TI ARM Assembler Unix v18.1.1 Fri Jul  3 20:08:21 2020

Tools Copyright (c) 1996-2017 Texas Instruments Incorporated
Debug.asm                                                            PAGE    1

       1                    ;******************************************************************************
       2                    ;* TI ARM C/C++ Codegen                                      Unix v18.1.1.LTS *
       3                    ;* Date/Time created: Fri Jul  3 20:08:21 2020                                *
       4                    ;******************************************************************************
       5                            .compiler_opts --abi=eabi --arm_vmrs_si_workaround=off --code_state=16 --diag_wrap=off --embed
       6 00000000                   .thumb
       7                    
       8                    $C$DW$CU        .dwtag  DW_TAG_compile_unit
       9                            .dwattr $C$DW$CU, DW_AT_name("../Debug.c")
      10                            .dwattr $C$DW$CU, DW_AT_producer("TI TI ARM C/C++ Codegen Unix v18.1.1.LTS Copyright (c) 1996-
      11                            .dwattr $C$DW$CU, DW_AT_TI_version(0x01)
      12                            .dwattr $C$DW$CU, DW_AT_comp_dir("/home/pola/workspace_v8/Microwave/Debug")
      13                    
      14                    $C$DW$1 .dwtag  DW_TAG_subprogram
      15                            .dwattr $C$DW$1, DW_AT_name("GPIOPinTypeUART")
      16                            .dwattr $C$DW$1, DW_AT_TI_symbol_name("GPIOPinTypeUART")
      17                            .dwattr $C$DW$1, DW_AT_declaration
      18                            .dwattr $C$DW$1, DW_AT_external
      19                            .dwattr $C$DW$1, DW_AT_decl_file("../driverlib/gpio.h")
      20                            .dwattr $C$DW$1, DW_AT_decl_line(0xbb)
      21                            .dwattr $C$DW$1, DW_AT_decl_column(0x0d)
      22                    $C$DW$2 .dwtag  DW_TAG_formal_parameter
      23                            .dwattr $C$DW$2, DW_AT_type(*$C$DW$T$27)
      24                    
      25                    $C$DW$3 .dwtag  DW_TAG_formal_parameter
      26                            .dwattr $C$DW$3, DW_AT_type(*$C$DW$T$35)
      27                    
      28                            .dwendtag $C$DW$1
      29                    
      30                    
      31                    $C$DW$4 .dwtag  DW_TAG_subprogram
      32                            .dwattr $C$DW$4, DW_AT_name("UARTConfigSetExpClk")
      33                            .dwattr $C$DW$4, DW_AT_TI_symbol_name("UARTConfigSetExpClk")
      34                            .dwattr $C$DW$4, DW_AT_declaration
      35                            .dwattr $C$DW$4, DW_AT_external
      36                            .dwattr $C$DW$4, DW_AT_decl_file("../driverlib/uart.h")
      37                            .dwattr $C$DW$4, DW_AT_decl_line(0xca)
      38                            .dwattr $C$DW$4, DW_AT_decl_column(0x0d)
      39                    $C$DW$5 .dwtag  DW_TAG_formal_parameter
      40                            .dwattr $C$DW$5, DW_AT_type(*$C$DW$T$27)
      41                    
      42                    $C$DW$6 .dwtag  DW_TAG_formal_parameter
      43                            .dwattr $C$DW$6, DW_AT_type(*$C$DW$T$27)
      44                    
      45                    $C$DW$7 .dwtag  DW_TAG_formal_parameter
      46                            .dwattr $C$DW$7, DW_AT_type(*$C$DW$T$27)
      47                    
      48                    $C$DW$8 .dwtag  DW_TAG_formal_parameter
      49                            .dwattr $C$DW$8, DW_AT_type(*$C$DW$T$27)
      50                    
      51                            .dwendtag $C$DW$4
      52                    
      53                    
      54                    $C$DW$9 .dwtag  DW_TAG_subprogram
      55                            .dwattr $C$DW$9, DW_AT_name("UARTEnable")
TI ARM Assembler Unix v18.1.1 Fri Jul  3 20:08:21 2020

Tools Copyright (c) 1996-2017 Texas Instruments Incorporated
Debug.asm                                                            PAGE    2

      56                            .dwattr $C$DW$9, DW_AT_TI_symbol_name("UARTEnable")
      57                            .dwattr $C$DW$9, DW_AT_declaration
      58                            .dwattr $C$DW$9, DW_AT_external
      59                            .dwattr $C$DW$9, DW_AT_decl_file("../driverlib/uart.h")
      60                            .dwattr $C$DW$9, DW_AT_decl_line(0xce)
      61                            .dwattr $C$DW$9, DW_AT_decl_column(0x0d)
      62                    $C$DW$10        .dwtag  DW_TAG_formal_parameter
      63                            .dwattr $C$DW$10, DW_AT_type(*$C$DW$T$27)
      64                    
      65                            .dwendtag $C$DW$9
      66                    
      67                    
      68                    $C$DW$11        .dwtag  DW_TAG_subprogram
      69                            .dwattr $C$DW$11, DW_AT_name("UARTCharPut")
      70                            .dwattr $C$DW$11, DW_AT_TI_symbol_name("UARTCharPut")
      71                            .dwattr $C$DW$11, DW_AT_declaration
      72                            .dwattr $C$DW$11, DW_AT_external
      73                            .dwattr $C$DW$11, DW_AT_decl_file("../driverlib/uart.h")
      74                            .dwattr $C$DW$11, DW_AT_decl_line(0xd9)
      75                            .dwattr $C$DW$11, DW_AT_decl_column(0x0d)
      76                    $C$DW$12        .dwtag  DW_TAG_formal_parameter
      77                            .dwattr $C$DW$12, DW_AT_type(*$C$DW$T$27)
      78                    
      79                    $C$DW$13        .dwtag  DW_TAG_formal_parameter
      80                            .dwattr $C$DW$13, DW_AT_type(*$C$DW$T$6)
      81                    
      82                            .dwendtag $C$DW$11
      83                    
      84                    
      85                    $C$DW$14        .dwtag  DW_TAG_subprogram
      86                            .dwattr $C$DW$14, DW_AT_name("memset")
      87                            .dwattr $C$DW$14, DW_AT_TI_symbol_name("memset")
      88                            .dwattr $C$DW$14, DW_AT_type(*$C$DW$T$3)
      89                            .dwattr $C$DW$14, DW_AT_declaration
      90                            .dwattr $C$DW$14, DW_AT_external
      91                            .dwendtag $C$DW$14
      92                    
      93                    ;       /home/pola/ti/ccsv8/tools/compiler/ti-cgt-arm_18.1.1.LTS/bin/armacpia -@/tmp/TI3KlP6ePpg 
      94 00000000                   .sect   ".text"
      95                            .clink
      96                            .thumbfunc Debug_Init
      97 00000000                   .thumb
      98                            .global Debug_Init
      99                    
     100                    $C$DW$15        .dwtag  DW_TAG_subprogram
     101                            .dwattr $C$DW$15, DW_AT_name("Debug_Init")
     102                            .dwattr $C$DW$15, DW_AT_low_pc(Debug_Init)
     103                            .dwattr $C$DW$15, DW_AT_high_pc(0x00)
     104                            .dwattr $C$DW$15, DW_AT_TI_symbol_name("Debug_Init")
     105                            .dwattr $C$DW$15, DW_AT_external
     106                            .dwattr $C$DW$15, DW_AT_TI_begin_file("../Debug.c")
     107                            .dwattr $C$DW$15, DW_AT_TI_begin_line(0x0d)
     108                            .dwattr $C$DW$15, DW_AT_TI_begin_column(0x06)
     109                            .dwattr $C$DW$15, DW_AT_decl_file("../Debug.c")
     110                            .dwattr $C$DW$15, DW_AT_decl_line(0x0d)
TI ARM Assembler Unix v18.1.1 Fri Jul  3 20:08:21 2020

Tools Copyright (c) 1996-2017 Texas Instruments Incorporated
Debug.asm                                                            PAGE    3

     111                            .dwattr $C$DW$15, DW_AT_decl_column(0x06)
     112                            .dwattr $C$DW$15, DW_AT_TI_max_frame_size(0x08)
     113                            .dwpsn  file "../Debug.c",line 14,column 1,is_stmt,address Debug_Init,isa 1
     114                    
     115                            .dwfde $C$DW$CIE, Debug_Init
     116                    ;----------------------------------------------------------------------
     117                    ;  13 | void Debug_Init(void)                                                  
     118                    ;----------------------------------------------------------------------
     119                    
     120                    ;*****************************************************************************
     121                    ;* FUNCTION NAME: Debug_Init                                                 *
     122                    ;*                                                                           *
     123                    ;*   Regs Modified     : A1,A2,A3,A4,V9,SP,LR,SR,D0,D0_hi,D1,D1_hi,D2,D2_hi, *
     124                    ;*                           D3,D3_hi,D4,D4_hi,D5,D5_hi,D6,D6_hi,D7,D7_hi,   *
     125                    ;*                           FPEXC,FPSCR                                     *
     126                    ;*   Regs Used         : A1,A2,A3,A4,V9,SP,LR,SR,D0,D0_hi,D1,D1_hi,D2,D2_hi, *
     127                    ;*                           D3,D3_hi,D4,D4_hi,D5,D5_hi,D6,D6_hi,D7,D7_hi,   *
     128                    ;*                           FPEXC,FPSCR                                     *
     129                    ;*   Local Frame Size  : 0 Args + 0 Auto + 4 Save = 4 byte                   *
     130                    ;*****************************************************************************
     131 00000000           Debug_Init:
     132                    ;* --------------------------------------------------------------------------*
     133                            .dwcfi  cfa_offset, 0
     134 00000000 B508              PUSH      {A4, LR}              ; [DPU_V7M3_PIPE]  ; [ORIG 16-BIT INS]
     135                            .dwcfi  cfa_offset, 8
     136                            .dwcfi  save_reg_to_mem, 14, -4
     137                            .dwcfi  save_reg_to_mem, 3, -8
     138                            .dwpsn  file "../Debug.c",line 15,column 5,is_stmt,isa 1
     139                    ;----------------------------------------------------------------------
     140                    ;  15 | GPIOPinTypeUART(GPIO_PORTA_BASE,1 << 0 | 1 << 1);                      
     141                    ;----------------------------------------------------------------------
     142 00000002 2040F04F          MOV       A1, #1073758208       ; [DPU_V7M3_PIPE] |15|  ; [KEEP 32-BIT INS]
     143 00000006 2103              MOVS      A2, #3                ; [DPU_V7M3_PIPE] |15|  ; [ORIG 16-BIT INS]
     144                    $C$DW$16        .dwtag  DW_TAG_TI_branch
     145                            .dwattr $C$DW$16, DW_AT_low_pc(0x00)
     146                            .dwattr $C$DW$16, DW_AT_name("GPIOPinTypeUART")
     147                            .dwattr $C$DW$16, DW_AT_TI_call
     148                    
     149 00000008 FFFEF7FF!         BL        GPIOPinTypeUART       ; [DPU_V7M3_PIPE] |15|  ; [KEEP 32-BIT INS]
     150                            ; CALL OCCURS {GPIOPinTypeUART }  ; [] |15| 
     151                            .dwpsn  file "../Debug.c",line 17,column 5,is_stmt,isa 1
     152                    ;----------------------------------------------------------------------
     153                    ;  17 | UARTConfigSetExpClk(UART0_BASE,16000000,9600,UART_CONFIG_WLEN_8 | UART_
     154                    ;     | CONFIG_STOP_ONE | UART_CONFIG_PAR_NONE);                               
     155                    ;----------------------------------------------------------------------
     156 0000000c 4859              LDR       A1, $C$CON1           ; [DPU_V7M3_PIPE] |17|  ; [ORIG 16-BIT INS]
     157 0000000e 495A              LDR       A2, $C$CON2           ; [DPU_V7M3_PIPE] |17|  ; [ORIG 16-BIT INS]
     158 00000010 5216F44F          MOV       A3, #9600             ; [DPU_V7M3_PIPE] |17|  ; [KEEP 32-BIT INS]
     159 00000014 2360              MOVS      A4, #96               ; [DPU_V7M3_PIPE] |17|  ; [ORIG 16-BIT INS]
     160                    $C$DW$17        .dwtag  DW_TAG_TI_branch
     161                            .dwattr $C$DW$17, DW_AT_low_pc(0x00)
     162                            .dwattr $C$DW$17, DW_AT_name("UARTConfigSetExpClk")
     163                            .dwattr $C$DW$17, DW_AT_TI_call
     164                    
     165 00000016 FFFEF7FF!         BL        UARTConfigSetExpClk   ; [DPU_V7M3_PIPE] |17|  ; [KEEP 32-BIT INS]
TI ARM Assembler Unix v18.1.1 Fri Jul  3 20:08:21 2020

Tools Copyright (c) 1996-2017 Texas Instruments Incorporated
Debug.asm                                                            PAGE    4

     166                            ; CALL OCCURS {UARTConfigSetExpClk }  ; [] |17| 
     167                            .dwpsn  file "../Debug.c",line 18,column 5,is_stmt,isa 1
     168                    ;----------------------------------------------------------------------
     169                    ;  18 | UARTEnable(UART0_BASE);                                                
     170                    ;----------------------------------------------------------------------
     171 0000001a 4856              LDR       A1, $C$CON1           ; [DPU_V7M3_PIPE] |18|  ; [ORIG 16-BIT INS]
     172                    $C$DW$18        .dwtag  DW_TAG_TI_branch
     173                            .dwattr $C$DW$18, DW_AT_low_pc(0x00)
     174                            .dwattr $C$DW$18, DW_AT_name("UARTEnable")
     175                            .dwattr $C$DW$18, DW_AT_TI_call
     176                    
     177 0000001c FFFEF7FF!         BL        UARTEnable            ; [DPU_V7M3_PIPE] |18|  ; [KEEP 32-BIT INS]
     178                            ; CALL OCCURS {UARTEnable }      ; [] |18| 
     179                            .dwpsn  file "../Debug.c",line 19,column 1,is_stmt,isa 1
     180                    $C$DW$19        .dwtag  DW_TAG_TI_branch
     181                            .dwattr $C$DW$19, DW_AT_low_pc(0x00)
     182                            .dwattr $C$DW$19, DW_AT_TI_return
     183                    
     184 00000020 BD08              POP       {A4, PC}              ; [DPU_V7M3_PIPE]  ; [ORIG 16-BIT INS]
     185                            .dwcfi  cfa_offset, 0
     186                            .dwcfi  restore_reg, 3
     187                            ; BRANCH OCCURS                  ; [] 
     188                            .dwattr $C$DW$15, DW_AT_TI_end_file("../Debug.c")
     189                            .dwattr $C$DW$15, DW_AT_TI_end_line(0x13)
     190                            .dwattr $C$DW$15, DW_AT_TI_end_column(0x01)
     191                            .dwendentry
     192                            .dwendtag $C$DW$15
     193                    
     194 00000022                   .sect   ".text"
     195                            .clink
     196                            .thumbfunc Debug_PrintString
     197 00000022                   .thumb
     198                            .global Debug_PrintString
     199                    
     200                    $C$DW$20        .dwtag  DW_TAG_subprogram
     201                            .dwattr $C$DW$20, DW_AT_name("Debug_PrintString")
     202                            .dwattr $C$DW$20, DW_AT_low_pc(Debug_PrintString)
     203                            .dwattr $C$DW$20, DW_AT_high_pc(0x00)
     204                            .dwattr $C$DW$20, DW_AT_TI_symbol_name("Debug_PrintString")
     205                            .dwattr $C$DW$20, DW_AT_external
     206                            .dwattr $C$DW$20, DW_AT_TI_begin_file("../Debug.c")
     207                            .dwattr $C$DW$20, DW_AT_TI_begin_line(0x14)
     208                            .dwattr $C$DW$20, DW_AT_TI_begin_column(0x06)
     209                            .dwattr $C$DW$20, DW_AT_decl_file("../Debug.c")
     210                            .dwattr $C$DW$20, DW_AT_decl_line(0x14)
     211                            .dwattr $C$DW$20, DW_AT_decl_column(0x06)
     212                            .dwattr $C$DW$20, DW_AT_TI_max_frame_size(0x10)
     213                            .dwpsn  file "../Debug.c",line 21,column 1,is_stmt,address Debug_PrintString,isa 1
     214                    
     215                            .dwfde $C$DW$CIE, Debug_PrintString
     216                    $C$DW$21        .dwtag  DW_TAG_formal_parameter
     217                            .dwattr $C$DW$21, DW_AT_name("string")
     218                            .dwattr $C$DW$21, DW_AT_TI_symbol_name("string")
     219                            .dwattr $C$DW$21, DW_AT_type(*$C$DW$T$40)
     220                            .dwattr $C$DW$21, DW_AT_location[DW_OP_reg0]
TI ARM Assembler Unix v18.1.1 Fri Jul  3 20:08:21 2020

Tools Copyright (c) 1996-2017 Texas Instruments Incorporated
Debug.asm                                                            PAGE    5

     221                    
     222                    $C$DW$22        .dwtag  DW_TAG_formal_parameter
     223                            .dwattr $C$DW$22, DW_AT_name("newLine")
     224                            .dwattr $C$DW$22, DW_AT_TI_symbol_name("newLine")
     225                            .dwattr $C$DW$22, DW_AT_type(*$C$DW$T$35)
     226                            .dwattr $C$DW$22, DW_AT_location[DW_OP_reg1]
     227                    
     228                    ;----------------------------------------------------------------------
     229                    ;  20 | void Debug_PrintString(char *string,uint8_t newLine)                   
     230                    ;----------------------------------------------------------------------
     231                    
     232                    ;*****************************************************************************
     233                    ;* FUNCTION NAME: Debug_PrintString                                          *
     234                    ;*                                                                           *
     235                    ;*   Regs Modified     : A1,A2,A3,A4,V9,SP,LR,SR,D0,D0_hi,D1,D1_hi,D2,D2_hi, *
     236                    ;*                           D3,D3_hi,D4,D4_hi,D5,D5_hi,D6,D6_hi,D7,D7_hi,   *
     237                    ;*                           FPEXC,FPSCR                                     *
     238                    ;*   Regs Used         : A1,A2,A3,A4,V9,SP,LR,SR,D0,D0_hi,D1,D1_hi,D2,D2_hi, *
     239                    ;*                           D3,D3_hi,D4,D4_hi,D5,D5_hi,D6,D6_hi,D7,D7_hi,   *
     240                    ;*                           FPEXC,FPSCR                                     *
     241                    ;*   Local Frame Size  : 0 Args + 8 Auto + 4 Save = 12 byte                  *
     242                    ;*****************************************************************************
     243 00000022           Debug_PrintString:
     244                    ;* --------------------------------------------------------------------------*
     245                            .dwcfi  cfa_offset, 0
     246 00000022 B50E              PUSH      {A2, A3, A4, LR}      ; [DPU_V7M3_PIPE]  ; [ORIG 16-BIT INS]
     247                            .dwcfi  cfa_offset, 16
     248                            .dwcfi  save_reg_to_mem, 14, -4
     249                            .dwcfi  save_reg_to_mem, 3, -8
     250                            .dwcfi  save_reg_to_mem, 2, -12
     251                            .dwcfi  save_reg_to_mem, 1, -16
     252                    $C$DW$23        .dwtag  DW_TAG_variable
     253                            .dwattr $C$DW$23, DW_AT_name("string")
     254                            .dwattr $C$DW$23, DW_AT_TI_symbol_name("string")
     255                            .dwattr $C$DW$23, DW_AT_type(*$C$DW$T$40)
     256                            .dwattr $C$DW$23, DW_AT_location[DW_OP_breg13 0]
     257                    
     258                    $C$DW$24        .dwtag  DW_TAG_variable
     259                            .dwattr $C$DW$24, DW_AT_name("newLine")
     260                            .dwattr $C$DW$24, DW_AT_TI_symbol_name("newLine")
     261                            .dwattr $C$DW$24, DW_AT_type(*$C$DW$T$35)
     262                            .dwattr $C$DW$24, DW_AT_location[DW_OP_breg13 4]
     263                    
     264 00000024 1004F88D          STRB      A2, [SP, #4]          ; [DPU_V7M3_PIPE] |21|  ; [KEEP 32-BIT INS]
     265 00000028 9000              STR       A1, [SP, #0]          ; [DPU_V7M3_PIPE] |21|  ; [ORIG 16-BIT INS]
     266                            .dwpsn  file "../Debug.c",line 22,column 5,is_stmt,isa 1
     267                    ;----------------------------------------------------------------------
     268                    ;  22 | while(string != 0 && *string != 0)                                     
     269                    ;----------------------------------------------------------------------
     270 0000002a E006              B         ||$C$L2||             ; [DPU_V7M3_PIPE] |22|  ; [ORIG 16-BIT INS]
     271                            ; BRANCH OCCURS {||$C$L2||}      ; [] |22| 
     272                    ;* --------------------------------------------------------------------------*
     273 0000002c           ||$C$L1||:    
     274                            .dwpsn  file "../Debug.c",line 24,column 9,is_stmt,isa 1
     275                    ;----------------------------------------------------------------------
TI ARM Assembler Unix v18.1.1 Fri Jul  3 20:08:21 2020

Tools Copyright (c) 1996-2017 Texas Instruments Incorporated
Debug.asm                                                            PAGE    6

     276                    ;  24 | UARTCharPut(UART0_BASE,*(string++));                                   
     277                    ;----------------------------------------------------------------------
     278 0000002c 9800              LDR       A1, [SP, #0]          ; [DPU_V7M3_PIPE] |24|  ; [ORIG 16-BIT INS]
     279 0000002e 1B01F810          LDRB      A2, [A1], #1          ; [DPU_V7M3_PIPE] |24|  ; [KEEP 32-BIT INS]
     280 00000032 9000              STR       A1, [SP, #0]          ; [DPU_V7M3_PIPE] |24|  ; [ORIG 16-BIT INS]
     281 00000034 484F              LDR       A1, $C$CON1           ; [DPU_V7M3_PIPE] |24|  ; [ORIG 16-BIT INS]
     282                    $C$DW$25        .dwtag  DW_TAG_TI_branch
     283                            .dwattr $C$DW$25, DW_AT_low_pc(0x00)
     284                            .dwattr $C$DW$25, DW_AT_name("UARTCharPut")
     285                            .dwattr $C$DW$25, DW_AT_TI_call
     286                    
     287 00000036 FFFEF7FF!         BL        UARTCharPut           ; [DPU_V7M3_PIPE] |24|  ; [KEEP 32-BIT INS]
     288                            ; CALL OCCURS {UARTCharPut }     ; [] |24| 
     289                    ;* --------------------------------------------------------------------------*
     290                    ;*   BEGIN LOOP ||$C$L2||
     291                    ;* --------------------------------------------------------------------------*
     292 0000003a           ||$C$L2||:    
     293                            .dwpsn  file "../Debug.c",line 22,column 11,is_stmt,isa 1
     294 0000003a 9800              LDR       A1, [SP, #0]          ; [DPU_V7M3_PIPE] |22|  ; [ORIG 16-BIT INS]
     295 0000003c B118              CBZ       A1, ||$C$L3||         ; []  ; [ORIG 16-BIT INS]
     296                            ; BRANCHCC OCCURS {||$C$L3||}    ; [] |22| 
     297                    ;* --------------------------------------------------------------------------*
     298 0000003e 9800              LDR       A1, [SP, #0]          ; [DPU_V7M3_PIPE] |22|  ; [ORIG 16-BIT INS]
     299 00000040 7800              LDRB      A1, [A1, #0]          ; [DPU_V7M3_PIPE] |22|  ; [ORIG 16-BIT INS]
     300 00000042 2800              CMP       A1, #0                ; [DPU_V7M3_PIPE] |22|  ; [ORIG 16-BIT INS]
     301 00000044 D1F2              BNE       ||$C$L1||             ; [DPU_V7M3_PIPE] |22|  ; [ORIG 16-BIT INS]
     302                            ; BRANCHCC OCCURS {||$C$L1||}    ; [] |22| 
     303                    ;* --------------------------------------------------------------------------*
     304 00000046           ||$C$L3||:    
     305                            .dwpsn  file "../Debug.c",line 27,column 5,is_stmt,isa 1
     306                    ;----------------------------------------------------------------------
     307                    ;  27 | if(newLine == 1)                                                       
     308                    ;----------------------------------------------------------------------
     309 00000046 0004F89D          LDRB      A1, [SP, #4]          ; [DPU_V7M3_PIPE] |27|  ; [KEEP 32-BIT INS]
     310 0000004a 2801              CMP       A1, #1                ; [DPU_V7M3_PIPE] |27|  ; [ORIG 16-BIT INS]
     311 0000004c D103              BNE       ||$C$L4||             ; [DPU_V7M3_PIPE] |27|  ; [ORIG 16-BIT INS]
     312                            ; BRANCHCC OCCURS {||$C$L4||}    ; [] |27| 
     313                    ;* --------------------------------------------------------------------------*
     314                            .dwpsn  file "../Debug.c",line 29,column 9,is_stmt,isa 1
     315                    ;----------------------------------------------------------------------
     316                    ;  29 | UARTCharPut(UART0_BASE,'\n');                                          
     317                    ;----------------------------------------------------------------------
     318 0000004e 4849              LDR       A1, $C$CON1           ; [DPU_V7M3_PIPE] |29|  ; [ORIG 16-BIT INS]
     319 00000050 210A              MOVS      A2, #10               ; [DPU_V7M3_PIPE] |29|  ; [ORIG 16-BIT INS]
     320                    $C$DW$26        .dwtag  DW_TAG_TI_branch
     321                            .dwattr $C$DW$26, DW_AT_low_pc(0x00)
     322                            .dwattr $C$DW$26, DW_AT_name("UARTCharPut")
     323                            .dwattr $C$DW$26, DW_AT_TI_call
     324                    
     325 00000052 FFFEF7FF!         BL        UARTCharPut           ; [DPU_V7M3_PIPE] |29|  ; [KEEP 32-BIT INS]
     326                            ; CALL OCCURS {UARTCharPut }     ; [] |29| 
     327                            .dwpsn  file "../Debug.c",line 31,column 1,is_stmt,isa 1
     328                    ;* --------------------------------------------------------------------------*
     329                    ||$C$L4||:    
     330                    $C$DW$27        .dwtag  DW_TAG_TI_branch
TI ARM Assembler Unix v18.1.1 Fri Jul  3 20:08:21 2020

Tools Copyright (c) 1996-2017 Texas Instruments Incorporated
Debug.asm                                                            PAGE    7

     331                            .dwattr $C$DW$27, DW_AT_low_pc(0x00)
     332                            .dwattr $C$DW$27, DW_AT_TI_return
     333                    
     334 00000056 BD0E              POP       {A2, A3, A4, PC}      ; [DPU_V7M3_PIPE]  ; [ORIG 16-BIT INS]
     335                            .dwcfi  cfa_offset, 0
     336                            .dwcfi  restore_reg, 3
     337                            .dwcfi  restore_reg, 2
     338                            .dwcfi  restore_reg, 1
     339                            ; BRANCH OCCURS                  ; [] 
     340                            .dwattr $C$DW$20, DW_AT_TI_end_file("../Debug.c")
     341                            .dwattr $C$DW$20, DW_AT_TI_end_line(0x1f)
     342                            .dwattr $C$DW$20, DW_AT_TI_end_column(0x01)
     343                            .dwendentry
     344                            .dwendtag $C$DW$20
     345                    
     346 00000058                   .sect   ".text"
     347                            .clink
     348                            .thumbfunc swap
     349 00000058                   .thumb
     350                    
     351                    $C$DW$28        .dwtag  DW_TAG_subprogram
     352                            .dwattr $C$DW$28, DW_AT_name("swap")
     353                            .dwattr $C$DW$28, DW_AT_low_pc(swap)
     354                            .dwattr $C$DW$28, DW_AT_high_pc(0x00)
     355                            .dwattr $C$DW$28, DW_AT_TI_symbol_name("swap")
     356                            .dwattr $C$DW$28, DW_AT_TI_begin_file("../Debug.c")
     357                            .dwattr $C$DW$28, DW_AT_TI_begin_line(0x21)
     358                            .dwattr $C$DW$28, DW_AT_TI_begin_column(0x0d)
     359                            .dwattr $C$DW$28, DW_AT_decl_file("../Debug.c")
     360                            .dwattr $C$DW$28, DW_AT_decl_line(0x21)
     361                            .dwattr $C$DW$28, DW_AT_decl_column(0x0d)
     362                            .dwattr $C$DW$28, DW_AT_TI_max_frame_size(0x10)
     363                            .dwpsn  file "../Debug.c",line 34,column 1,is_stmt,address swap,isa 1
     364                    
     365                            .dwfde $C$DW$CIE, swap
     366                    $C$DW$29        .dwtag  DW_TAG_formal_parameter
     367                            .dwattr $C$DW$29, DW_AT_name("buffer")
     368                            .dwattr $C$DW$29, DW_AT_TI_symbol_name("buffer")
     369                            .dwattr $C$DW$29, DW_AT_type(*$C$DW$T$40)
     370                            .dwattr $C$DW$29, DW_AT_location[DW_OP_reg0]
     371                    
     372                    $C$DW$30        .dwtag  DW_TAG_formal_parameter
     373                            .dwattr $C$DW$30, DW_AT_name("index1")
     374                            .dwattr $C$DW$30, DW_AT_TI_symbol_name("index1")
     375                            .dwattr $C$DW$30, DW_AT_type(*$C$DW$T$43)
     376                            .dwattr $C$DW$30, DW_AT_location[DW_OP_reg1]
     377                    
     378                    $C$DW$31        .dwtag  DW_TAG_formal_parameter
     379                            .dwattr $C$DW$31, DW_AT_name("index2")
     380                            .dwattr $C$DW$31, DW_AT_TI_symbol_name("index2")
     381                            .dwattr $C$DW$31, DW_AT_type(*$C$DW$T$43)
     382                            .dwattr $C$DW$31, DW_AT_location[DW_OP_reg2]
     383                    
     384                    ;----------------------------------------------------------------------
     385                    ;  33 | static void swap(char* buffer,uint16_t index1,uint16_t index2)         
TI ARM Assembler Unix v18.1.1 Fri Jul  3 20:08:21 2020

Tools Copyright (c) 1996-2017 Texas Instruments Incorporated
Debug.asm                                                            PAGE    8

     386                    ;----------------------------------------------------------------------
     387                    
     388                    ;*****************************************************************************
     389                    ;* FUNCTION NAME: swap                                                       *
     390                    ;*                                                                           *
     391                    ;*   Regs Modified     : A1,A2,A3,A4,SP                                      *
     392                    ;*   Regs Used         : A1,A2,A3,A4,SP,LR                                   *
     393                    ;*   Local Frame Size  : 0 Args + 12 Auto + 0 Save = 12 byte                 *
     394                    ;*****************************************************************************
     395 00000058           swap:
     396                    ;* --------------------------------------------------------------------------*
     397                            .dwcfi  cfa_offset, 0
     398 00000058 0D10F1AD          SUB       SP, SP, #16           ; [DPU_V7M3_PIPE]  ; [KEEP 32-BIT INS]
     399                            .dwcfi  cfa_offset, 16
     400                    $C$DW$32        .dwtag  DW_TAG_variable
     401                            .dwattr $C$DW$32, DW_AT_name("buffer")
     402                            .dwattr $C$DW$32, DW_AT_TI_symbol_name("buffer")
     403                            .dwattr $C$DW$32, DW_AT_type(*$C$DW$T$40)
     404                            .dwattr $C$DW$32, DW_AT_location[DW_OP_breg13 0]
     405                    
     406                    $C$DW$33        .dwtag  DW_TAG_variable
     407                            .dwattr $C$DW$33, DW_AT_name("index1")
     408                            .dwattr $C$DW$33, DW_AT_TI_symbol_name("index1")
     409                            .dwattr $C$DW$33, DW_AT_type(*$C$DW$T$43)
     410                            .dwattr $C$DW$33, DW_AT_location[DW_OP_breg13 4]
     411                    
     412                    $C$DW$34        .dwtag  DW_TAG_variable
     413                            .dwattr $C$DW$34, DW_AT_name("index2")
     414                            .dwattr $C$DW$34, DW_AT_TI_symbol_name("index2")
     415                            .dwattr $C$DW$34, DW_AT_type(*$C$DW$T$43)
     416                            .dwattr $C$DW$34, DW_AT_location[DW_OP_breg13 6]
     417                    
     418                    $C$DW$35        .dwtag  DW_TAG_variable
     419                            .dwattr $C$DW$35, DW_AT_name("temp")
     420                            .dwattr $C$DW$35, DW_AT_TI_symbol_name("temp")
     421                            .dwattr $C$DW$35, DW_AT_type(*$C$DW$T$6)
     422                            .dwattr $C$DW$35, DW_AT_location[DW_OP_breg13 8]
     423                    
     424 0000005c 2006F8AD          STRH      A3, [SP, #6]          ; [DPU_V7M3_PIPE] |34|  ; [KEEP 32-BIT INS]
     425 00000060 1004F8AD          STRH      A2, [SP, #4]          ; [DPU_V7M3_PIPE] |34|  ; [KEEP 32-BIT INS]
     426 00000064 9000              STR       A1, [SP, #0]          ; [DPU_V7M3_PIPE] |34|  ; [ORIG 16-BIT INS]
     427                            .dwpsn  file "../Debug.c",line 35,column 15,is_stmt,isa 1
     428                    ;----------------------------------------------------------------------
     429                    ;  35 | char temp = buffer[index1];                                            
     430                    ;----------------------------------------------------------------------
     431 00000066 9800              LDR       A1, [SP, #0]          ; [DPU_V7M3_PIPE] |35|  ; [ORIG 16-BIT INS]
     432 00000068 1004F8BD          LDRH      A2, [SP, #4]          ; [DPU_V7M3_PIPE] |35|  ; [KEEP 32-BIT INS]
     433 0000006c 5C08              LDRB      A1, [A2, +A1]         ; [DPU_V7M3_PIPE] |35|  ; [ORIG 16-BIT INS]
     434 0000006e 0008F88D          STRB      A1, [SP, #8]          ; [DPU_V7M3_PIPE] |35|  ; [KEEP 32-BIT INS]
     435                            .dwpsn  file "../Debug.c",line 36,column 5,is_stmt,isa 1
     436                    ;----------------------------------------------------------------------
     437                    ;  36 | buffer[index1] = buffer[index2];                                       
     438                    ;----------------------------------------------------------------------
     439 00000072 3004F8BD          LDRH      A4, [SP, #4]          ; [DPU_V7M3_PIPE] |36|  ; [KEEP 32-BIT INS]
     440 00000076 9800              LDR       A1, [SP, #0]          ; [DPU_V7M3_PIPE] |36|  ; [ORIG 16-BIT INS]
TI ARM Assembler Unix v18.1.1 Fri Jul  3 20:08:21 2020

Tools Copyright (c) 1996-2017 Texas Instruments Incorporated
Debug.asm                                                            PAGE    9

     441 00000078 1006F8BD          LDRH      A2, [SP, #6]          ; [DPU_V7M3_PIPE] |36|  ; [KEEP 32-BIT INS]
     442 0000007c 9A00              LDR       A3, [SP, #0]          ; [DPU_V7M3_PIPE] |36|  ; [ORIG 16-BIT INS]
     443 0000007e 5C08              LDRB      A1, [A2, +A1]         ; [DPU_V7M3_PIPE] |36|  ; [ORIG 16-BIT INS]
     444 00000080 5498              STRB      A1, [A4, +A3]         ; [DPU_V7M3_PIPE] |36|  ; [ORIG 16-BIT INS]
     445                            .dwpsn  file "../Debug.c",line 37,column 5,is_stmt,isa 1
     446                    ;----------------------------------------------------------------------
     447                    ;  37 | buffer[index2] = temp;                                                 
     448                    ;----------------------------------------------------------------------
     449 00000082 9900              LDR       A2, [SP, #0]          ; [DPU_V7M3_PIPE] |37|  ; [ORIG 16-BIT INS]
     450 00000084 2006F8BD          LDRH      A3, [SP, #6]          ; [DPU_V7M3_PIPE] |37|  ; [KEEP 32-BIT INS]
     451 00000088 0008F89D          LDRB      A1, [SP, #8]          ; [DPU_V7M3_PIPE] |37|  ; [KEEP 32-BIT INS]
     452 0000008c 5450              STRB      A1, [A3, +A2]         ; [DPU_V7M3_PIPE] |37|  ; [ORIG 16-BIT INS]
     453                            .dwpsn  file "../Debug.c",line 38,column 1,is_stmt,isa 1
     454 0000008e B004              ADD       SP, SP, #16           ; [DPU_V7M3_PIPE]  ; [ORIG 16-BIT INS]
     455                            .dwcfi  cfa_offset, 0
     456                    $C$DW$36        .dwtag  DW_TAG_TI_branch
     457                            .dwattr $C$DW$36, DW_AT_low_pc(0x00)
     458                            .dwattr $C$DW$36, DW_AT_TI_return
     459                    
     460 00000090 4770              BX        LR                    ; [DPU_V7M3_PIPE]  ; [ORIG 16-BIT INS]
     461                            ; BRANCH OCCURS                  ; [] 
     462                            .dwattr $C$DW$28, DW_AT_TI_end_file("../Debug.c")
     463                            .dwattr $C$DW$28, DW_AT_TI_end_line(0x26)
     464                            .dwattr $C$DW$28, DW_AT_TI_end_column(0x01)
     465                            .dwendentry
     466                            .dwendtag $C$DW$28
     467                    
     468 00000092                   .sect   ".text"
     469                            .clink
     470                            .thumbfunc reverse
     471 00000092                   .thumb
     472                    
     473                    $C$DW$37        .dwtag  DW_TAG_subprogram
     474                            .dwattr $C$DW$37, DW_AT_name("reverse")
     475                            .dwattr $C$DW$37, DW_AT_low_pc(reverse)
     476                            .dwattr $C$DW$37, DW_AT_high_pc(0x00)
     477                            .dwattr $C$DW$37, DW_AT_TI_symbol_name("reverse")
     478                            .dwattr $C$DW$37, DW_AT_TI_begin_file("../Debug.c")
     479                            .dwattr $C$DW$37, DW_AT_TI_begin_line(0x28)
     480                            .dwattr $C$DW$37, DW_AT_TI_begin_column(0x0d)
     481                            .dwattr $C$DW$37, DW_AT_decl_file("../Debug.c")
     482                            .dwattr $C$DW$37, DW_AT_decl_line(0x28)
     483                            .dwattr $C$DW$37, DW_AT_decl_column(0x0d)
     484                            .dwattr $C$DW$37, DW_AT_TI_max_frame_size(0x10)
     485                            .dwpsn  file "../Debug.c",line 41,column 1,is_stmt,address reverse,isa 1
     486                    
     487                            .dwfde $C$DW$CIE, reverse
     488                    $C$DW$38        .dwtag  DW_TAG_formal_parameter
     489                            .dwattr $C$DW$38, DW_AT_name("buffer")
     490                            .dwattr $C$DW$38, DW_AT_TI_symbol_name("buffer")
     491                            .dwattr $C$DW$38, DW_AT_type(*$C$DW$T$40)
     492                            .dwattr $C$DW$38, DW_AT_location[DW_OP_reg0]
     493                    
     494                    $C$DW$39        .dwtag  DW_TAG_formal_parameter
     495                            .dwattr $C$DW$39, DW_AT_name("len")
TI ARM Assembler Unix v18.1.1 Fri Jul  3 20:08:21 2020

Tools Copyright (c) 1996-2017 Texas Instruments Incorporated
Debug.asm                                                            PAGE   10

     496                            .dwattr $C$DW$39, DW_AT_TI_symbol_name("len")
     497                            .dwattr $C$DW$39, DW_AT_type(*$C$DW$T$43)
     498                            .dwattr $C$DW$39, DW_AT_location[DW_OP_reg1]
     499                    
     500                    ;----------------------------------------------------------------------
     501                    ;  40 | static void reverse(char* buffer,uint16_t len)                         
     502                    ;----------------------------------------------------------------------
     503                    
     504                    ;*****************************************************************************
     505                    ;* FUNCTION NAME: reverse                                                    *
     506                    ;*                                                                           *
     507                    ;*   Regs Modified     : A1,A2,A3,A4,SP,LR,SR,FPEXC,FPSCR                    *
     508                    ;*   Regs Used         : A1,A2,A3,A4,SP,LR,SR,FPEXC,FPSCR                    *
     509                    ;*   Local Frame Size  : 0 Args + 8 Auto + 4 Save = 12 byte                  *
     510                    ;*****************************************************************************
     511 00000092           reverse:
     512                    ;* --------------------------------------------------------------------------*
     513                            .dwcfi  cfa_offset, 0
     514 00000092 B50E              PUSH      {A2, A3, A4, LR}      ; [DPU_V7M3_PIPE]  ; [ORIG 16-BIT INS]
     515                            .dwcfi  cfa_offset, 16
     516                            .dwcfi  save_reg_to_mem, 14, -4
     517                            .dwcfi  save_reg_to_mem, 3, -8
     518                            .dwcfi  save_reg_to_mem, 2, -12
     519                            .dwcfi  save_reg_to_mem, 1, -16
     520                    $C$DW$40        .dwtag  DW_TAG_variable
     521                            .dwattr $C$DW$40, DW_AT_name("buffer")
     522                            .dwattr $C$DW$40, DW_AT_TI_symbol_name("buffer")
     523                            .dwattr $C$DW$40, DW_AT_type(*$C$DW$T$40)
     524                            .dwattr $C$DW$40, DW_AT_location[DW_OP_breg13 0]
     525                    
     526                    $C$DW$41        .dwtag  DW_TAG_variable
     527                            .dwattr $C$DW$41, DW_AT_name("len")
     528                            .dwattr $C$DW$41, DW_AT_TI_symbol_name("len")
     529                            .dwattr $C$DW$41, DW_AT_type(*$C$DW$T$43)
     530                            .dwattr $C$DW$41, DW_AT_location[DW_OP_breg13 4]
     531                    
     532                    $C$DW$42        .dwtag  DW_TAG_variable
     533                            .dwattr $C$DW$42, DW_AT_name("itr")
     534                            .dwattr $C$DW$42, DW_AT_TI_symbol_name("itr")
     535                            .dwattr $C$DW$42, DW_AT_type(*$C$DW$T$43)
     536                            .dwattr $C$DW$42, DW_AT_location[DW_OP_breg13 6]
     537                    
     538 00000094 1004F8AD          STRH      A2, [SP, #4]          ; [DPU_V7M3_PIPE] |41|  ; [KEEP 32-BIT INS]
     539 00000098 9000              STR       A1, [SP, #0]          ; [DPU_V7M3_PIPE] |41|  ; [ORIG 16-BIT INS]
     540                            .dwpsn  file "../Debug.c",line 42,column 18,is_stmt,isa 1
     541                    ;----------------------------------------------------------------------
     542                    ;  42 | uint16_t itr = 0;                                                      
     543                    ;----------------------------------------------------------------------
     544 0000009a 2000              MOVS      A1, #0                ; [DPU_V7M3_PIPE] |42|  ; [ORIG 16-BIT INS]
     545 0000009c 0006F8AD          STRH      A1, [SP, #6]          ; [DPU_V7M3_PIPE] |42|  ; [KEEP 32-BIT INS]
     546                            .dwpsn  file "../Debug.c",line 44,column 5,is_stmt,isa 1
     547                    ;----------------------------------------------------------------------
     548                    ;  44 | for(;itr < (len / 2);itr++)                                            
     549                    ;----------------------------------------------------------------------
     550 000000a0 E010              B         ||$C$L6||             ; [DPU_V7M3_PIPE] |44|  ; [ORIG 16-BIT INS]
TI ARM Assembler Unix v18.1.1 Fri Jul  3 20:08:21 2020

Tools Copyright (c) 1996-2017 Texas Instruments Incorporated
Debug.asm                                                            PAGE   11

     551                            ; BRANCH OCCURS {||$C$L6||}      ; [] |44| 
     552                    ;* --------------------------------------------------------------------------*
     553 000000a2           ||$C$L5||:    
     554                            .dwpsn  file "../Debug.c",line 46,column 9,is_stmt,isa 1
     555                    ;----------------------------------------------------------------------
     556                    ;  46 | swap(buffer,itr,len-1-itr);                                            
     557                    ;----------------------------------------------------------------------
     558 000000a2 2006F8BD          LDRH      A3, [SP, #6]          ; [DPU_V7M3_PIPE] |46|  ; [KEEP 32-BIT INS]
     559 000000a6 0004F8BD          LDRH      A1, [SP, #4]          ; [DPU_V7M3_PIPE] |46|  ; [KEEP 32-BIT INS]
     560 000000aa 1006F8BD          LDRH      A2, [SP, #6]          ; [DPU_V7M3_PIPE] |46|  ; [KEEP 32-BIT INS]
     561 000000ae 1A80              SUBS      A1, A1, A3            ; [DPU_V7M3_PIPE] |46|  ; [ORIG 16-BIT INS]
     562 000000b0 1E40              SUBS      A1, A1, #1            ; [DPU_V7M3_PIPE] |46|  ; [ORIG 16-BIT INS]
     563 000000b2 B282              UXTH      A3, A1                ; [DPU_V7M3_PIPE] |46|  ; [ORIG 16-BIT INS]
     564 000000b4 9800              LDR       A1, [SP, #0]          ; [DPU_V7M3_PIPE] |46|  ; [ORIG 16-BIT INS]
     565                    $C$DW$43        .dwtag  DW_TAG_TI_branch
     566                            .dwattr $C$DW$43, DW_AT_low_pc(0x00)
     567                            .dwattr $C$DW$43, DW_AT_name("swap")
     568                            .dwattr $C$DW$43, DW_AT_TI_call
     569                    
     570 000000b6 FFFEF7FF!         BL        swap                  ; [DPU_V7M3_PIPE] |46|  ; [KEEP 32-BIT INS]
     571                            ; CALL OCCURS {swap }            ; [] |46| 
     572                            .dwpsn  file "../Debug.c",line 44,column 26,is_stmt,isa 1
     573 000000ba 0006F8BD          LDRH      A1, [SP, #6]          ; [DPU_V7M3_PIPE] |44|  ; [KEEP 32-BIT INS]
     574 000000be 1C40              ADDS      A1, A1, #1            ; [DPU_V7M3_PIPE] |44|  ; [ORIG 16-BIT INS]
     575 000000c0 0006F8AD          STRH      A1, [SP, #6]          ; [DPU_V7M3_PIPE] |44|  ; [KEEP 32-BIT INS]
     576                    ;* --------------------------------------------------------------------------*
     577                    ;*   BEGIN LOOP ||$C$L6||
     578                    ;* --------------------------------------------------------------------------*
     579 000000c4           ||$C$L6||:    
     580                            .dwpsn  file "../Debug.c",line 44,column 10,is_stmt,isa 1
     581 000000c4 0004F8BD          LDRH      A1, [SP, #4]          ; [DPU_V7M3_PIPE] |44|  ; [KEEP 32-BIT INS]
     582 000000c8 1006F8BD          LDRH      A2, [SP, #6]          ; [DPU_V7M3_PIPE] |44|  ; [KEEP 32-BIT INS]
     583 000000cc 70D0EB00          ADD       A1, A1, A1, LSR #31   ; [DPU_V7M3_PIPE] |44|  ; [KEEP 32-BIT INS]
     584 000000d0 0F60EBB1          CMP       A2, A1, ASR #1        ; [DPU_V7M3_PIPE] |44|  ; [KEEP 32-BIT INS]
     585 000000d4 DBE5              BLT       ||$C$L5||             ; [DPU_V7M3_PIPE] |44|  ; [ORIG 16-BIT INS]
     586                            ; BRANCHCC OCCURS {||$C$L5||}    ; [] |44| 
     587                    ;* --------------------------------------------------------------------------*
     588                            .dwpsn  file "../Debug.c",line 48,column 1,is_stmt,isa 1
     589                    $C$DW$44        .dwtag  DW_TAG_TI_branch
     590                            .dwattr $C$DW$44, DW_AT_low_pc(0x00)
     591                            .dwattr $C$DW$44, DW_AT_TI_return
     592                    
     593 000000d6 BD0E              POP       {A2, A3, A4, PC}      ; [DPU_V7M3_PIPE]  ; [ORIG 16-BIT INS]
     594                            .dwcfi  cfa_offset, 0
     595                            .dwcfi  restore_reg, 3
     596                            .dwcfi  restore_reg, 2
     597                            .dwcfi  restore_reg, 1
     598                            ; BRANCH OCCURS                  ; [] 
     599                            .dwattr $C$DW$37, DW_AT_TI_end_file("../Debug.c")
     600                            .dwattr $C$DW$37, DW_AT_TI_end_line(0x30)
     601                            .dwattr $C$DW$37, DW_AT_TI_end_column(0x01)
     602                            .dwendentry
     603                            .dwendtag $C$DW$37
     604                    
     605 000000d8                   .sect   ".text"
TI ARM Assembler Unix v18.1.1 Fri Jul  3 20:08:21 2020

Tools Copyright (c) 1996-2017 Texas Instruments Incorporated
Debug.asm                                                            PAGE   12

     606                            .clink
     607                            .thumbfunc Debug_PrintNumber
     608 000000d8                   .thumb
     609                            .global Debug_PrintNumber
     610                    
     611                    $C$DW$45        .dwtag  DW_TAG_subprogram
     612                            .dwattr $C$DW$45, DW_AT_name("Debug_PrintNumber")
     613                            .dwattr $C$DW$45, DW_AT_low_pc(Debug_PrintNumber)
     614                            .dwattr $C$DW$45, DW_AT_high_pc(0x00)
     615                            .dwattr $C$DW$45, DW_AT_TI_symbol_name("Debug_PrintNumber")
     616                            .dwattr $C$DW$45, DW_AT_external
     617                            .dwattr $C$DW$45, DW_AT_TI_begin_file("../Debug.c")
     618                            .dwattr $C$DW$45, DW_AT_TI_begin_line(0x32)
     619                            .dwattr $C$DW$45, DW_AT_TI_begin_column(0x06)
     620                            .dwattr $C$DW$45, DW_AT_decl_file("../Debug.c")
     621                            .dwattr $C$DW$45, DW_AT_decl_line(0x32)
     622                            .dwattr $C$DW$45, DW_AT_decl_column(0x06)
     623                            .dwattr $C$DW$45, DW_AT_TI_max_frame_size(0x70)
     624                            .dwpsn  file "../Debug.c",line 51,column 1,is_stmt,address Debug_PrintNumber,isa 1
     625                    
     626                            .dwfde $C$DW$CIE, Debug_PrintNumber
     627                    $C$DW$46        .dwtag  DW_TAG_formal_parameter
     628                            .dwattr $C$DW$46, DW_AT_name("number")
     629                            .dwattr $C$DW$46, DW_AT_TI_symbol_name("number")
     630                            .dwattr $C$DW$46, DW_AT_type(*$C$DW$T$27)
     631                            .dwattr $C$DW$46, DW_AT_location[DW_OP_reg0]
     632                    
     633                    $C$DW$47        .dwtag  DW_TAG_formal_parameter
     634                            .dwattr $C$DW$47, DW_AT_name("newLine")
     635                            .dwattr $C$DW$47, DW_AT_TI_symbol_name("newLine")
     636                            .dwattr $C$DW$47, DW_AT_type(*$C$DW$T$35)
     637                            .dwattr $C$DW$47, DW_AT_location[DW_OP_reg1]
     638                    
     639                    ;----------------------------------------------------------------------
     640                    ;  50 | void Debug_PrintNumber(uint32_t number,uint8_t newLine)                
     641                    ;----------------------------------------------------------------------
     642                    
     643                    ;*****************************************************************************
     644                    ;* FUNCTION NAME: Debug_PrintNumber                                          *
     645                    ;*                                                                           *
     646                    ;*   Regs Modified     : A1,A2,A3,A4,V9,SP,LR,SR,D0,D0_hi,D1,D1_hi,D2,D2_hi, *
     647                    ;*                           D3,D3_hi,D4,D4_hi,D5,D5_hi,D6,D6_hi,D7,D7_hi,   *
     648                    ;*                           FPEXC,FPSCR                                     *
     649                    ;*   Regs Used         : A1,A2,A3,A4,V9,SP,LR,SR,D0,D0_hi,D1,D1_hi,D2,D2_hi, *
     650                    ;*                           D3,D3_hi,D4,D4_hi,D5,D5_hi,D6,D6_hi,D7,D7_hi,   *
     651                    ;*                           FPEXC,FPSCR                                     *
     652                    ;*   Local Frame Size  : 0 Args + 108 Auto + 4 Save = 112 byte               *
     653                    ;*****************************************************************************
     654 000000d8           Debug_PrintNumber:
     655                    ;* --------------------------------------------------------------------------*
     656                            .dwcfi  cfa_offset, 0
     657 000000d8 B500              PUSH      {LR}                  ; [DPU_V7M3_PIPE]  ; [ORIG 16-BIT INS]
     658                            .dwcfi  cfa_offset, 4
     659                            .dwcfi  save_reg_to_mem, 14, -4
     660 000000da 0D6CF1AD          SUB       SP, SP, #108          ; [DPU_V7M3_PIPE]  ; [KEEP 32-BIT INS]
TI ARM Assembler Unix v18.1.1 Fri Jul  3 20:08:21 2020

Tools Copyright (c) 1996-2017 Texas Instruments Incorporated
Debug.asm                                                            PAGE   13

     661                            .dwcfi  cfa_offset, 112
     662                    $C$DW$48        .dwtag  DW_TAG_variable
     663                            .dwattr $C$DW$48, DW_AT_name("number")
     664                            .dwattr $C$DW$48, DW_AT_TI_symbol_name("number")
     665                            .dwattr $C$DW$48, DW_AT_type(*$C$DW$T$27)
     666                            .dwattr $C$DW$48, DW_AT_location[DW_OP_breg13 0]
     667                    
     668                    $C$DW$49        .dwtag  DW_TAG_variable
     669                            .dwattr $C$DW$49, DW_AT_name("itr")
     670                            .dwattr $C$DW$49, DW_AT_TI_symbol_name("itr")
     671                            .dwattr $C$DW$49, DW_AT_type(*$C$DW$T$43)
     672                            .dwattr $C$DW$49, DW_AT_location[DW_OP_breg13 4]
     673                    
     674                    $C$DW$50        .dwtag  DW_TAG_variable
     675                            .dwattr $C$DW$50, DW_AT_name("buffer")
     676                            .dwattr $C$DW$50, DW_AT_TI_symbol_name("buffer")
     677                            .dwattr $C$DW$50, DW_AT_type(*$C$DW$T$152)
     678                            .dwattr $C$DW$50, DW_AT_location[DW_OP_breg13 6]
     679                    
     680                    $C$DW$51        .dwtag  DW_TAG_variable
     681                            .dwattr $C$DW$51, DW_AT_name("newLine")
     682                            .dwattr $C$DW$51, DW_AT_TI_symbol_name("newLine")
     683                            .dwattr $C$DW$51, DW_AT_type(*$C$DW$T$35)
     684                            .dwattr $C$DW$51, DW_AT_location[DW_OP_breg13 106]
     685                    
     686 000000de 106AF88D          STRB      A2, [SP, #106]        ; [DPU_V7M3_PIPE] |51|  ; [KEEP 32-BIT INS]
     687 000000e2 9000              STR       A1, [SP, #0]          ; [DPU_V7M3_PIPE] |51|  ; [ORIG 16-BIT INS]
     688                            .dwpsn  file "../Debug.c",line 52,column 22,is_stmt,isa 1
     689                    ;----------------------------------------------------------------------
     690                    ;  52 | char buffer[100] = {0};                                                
     691                    ;----------------------------------------------------------------------
     692 000000e4 2264              MOVS      A3, #100              ; [DPU_V7M3_PIPE] |52|  ; [ORIG 16-BIT INS]
     693 000000e6 2100              MOVS      A2, #0                ; [DPU_V7M3_PIPE] |52|  ; [ORIG 16-BIT INS]
     694 000000e8 0006F10D          ADD       A1, SP, #6            ; [DPU_V7M3_PIPE] |52|  ; [KEEP 32-BIT INS]
     695                    $C$DW$52        .dwtag  DW_TAG_TI_branch
     696                            .dwattr $C$DW$52, DW_AT_low_pc(0x00)
     697                            .dwattr $C$DW$52, DW_AT_name("memset")
     698                            .dwattr $C$DW$52, DW_AT_TI_call
     699                    
     700 000000ec FFFEF7FF!         BL        memset                ; [DPU_V7M3_PIPE] |52|  ; [KEEP 32-BIT INS]
     701                            ; CALL OCCURS {memset }          ; [] |52| 
     702                            .dwpsn  file "../Debug.c",line 53,column 18,is_stmt,isa 1
     703                    ;----------------------------------------------------------------------
     704                    ;  53 | uint16_t itr = 0;                                                      
     705                    ;----------------------------------------------------------------------
     706 000000f0 2000              MOVS      A1, #0                ; [DPU_V7M3_PIPE] |53|  ; [ORIG 16-BIT INS]
     707 000000f2 0004F8AD          STRH      A1, [SP, #4]          ; [DPU_V7M3_PIPE] |53|  ; [KEEP 32-BIT INS]
     708                            .dwpsn  file "../Debug.c",line 55,column 11,is_stmt,isa 1
     709                    ;----------------------------------------------------------------------
     710                    ;  55 | while(number > 0)                                                      
     711                    ;----------------------------------------------------------------------
     712 000000f6 9800              LDR       A1, [SP, #0]          ; [DPU_V7M3_PIPE] |55|  ; [ORIG 16-BIT INS]
     713 000000f8 B1B0              CBZ       A1, ||$C$L8||         ; []  ; [ORIG 16-BIT INS]
     714                            ; BRANCHCC OCCURS {||$C$L8||}    ; [] |55| 
     715                    ;* --------------------------------------------------------------------------*
TI ARM Assembler Unix v18.1.1 Fri Jul  3 20:08:21 2020

Tools Copyright (c) 1996-2017 Texas Instruments Incorporated
Debug.asm                                                            PAGE   14

     716                    ;*   BEGIN LOOP ||$C$L7||
     717                    ;*
     718                    ;*   Loop source line                : 55
     719                    ;*   Loop closing brace source line  : 59
     720                    ;*   Known Minimum Trip Count        : 1
     721                    ;*   Known Maximum Trip Count        : 4294967295
     722                    ;*   Known Max Trip Count Factor     : 1
     723                    ;* --------------------------------------------------------------------------*
     724 000000fa           ||$C$L7||:    
     725                            .dwpsn  file "../Debug.c",line 57,column 9,is_stmt,isa 1
     726                    ;----------------------------------------------------------------------
     727                    ;  57 | buffer[itr++] = (number % 10) + '0';                                   
     728                    ;----------------------------------------------------------------------
     729 000000fa 9800              LDR       A1, [SP, #0]          ; [DPU_V7M3_PIPE] |57|  ; [ORIG 16-BIT INS]
     730 000000fc 2004F8BD          LDRH      A3, [SP, #4]          ; [DPU_V7M3_PIPE] |57|  ; [KEEP 32-BIT INS]
     731 00000100 230A              MOVS      A4, #10               ; [DPU_V7M3_PIPE] |57|  ; [ORIG 16-BIT INS]
     732 00000102 F1F3FBB0          UDIV      A2, A1, A4            ; [DPU_V7M3_PIPE] |57|  ; [KEEP 32-BIT INS]
     733 00000106 4359              MULS      A2, A2, A4            ; [DPU_V7M3_PIPE] |57|  ; [ORIG 16-BIT INS]
     734 00000108 1C53              ADDS      A4, A3, #1            ; [DPU_V7M3_PIPE] |57|  ; [ORIG 16-BIT INS]
     735 0000010a 1A40              SUBS      A1, A1, A2            ; [DPU_V7M3_PIPE] |57|  ; [ORIG 16-BIT INS]
     736 0000010c 3004F8AD          STRH      A4, [SP, #4]          ; [DPU_V7M3_PIPE] |57|  ; [KEEP 32-BIT INS]
     737 00000110 3030              ADDS      A1, A1, #48           ; [DPU_V7M3_PIPE] |57|  ; [ORIG 16-BIT INS]
     738 00000112 0102EB0D          ADD       A2, SP, A3            ; [DPU_V7M3_PIPE] |57|  ; [KEEP 32-BIT INS]
     739 00000116 7188              STRB      A1, [A2, #6]          ; [DPU_V7M3_PIPE] |57|  ; [ORIG 16-BIT INS]
     740                            .dwpsn  file "../Debug.c",line 58,column 9,is_stmt,isa 1
     741                    ;----------------------------------------------------------------------
     742                    ;  58 | number /= 10;                                                          
     743                    ;----------------------------------------------------------------------
     744 00000118 9900              LDR       A2, [SP, #0]          ; [DPU_V7M3_PIPE] |58|  ; [ORIG 16-BIT INS]
     745 0000011a 200A              MOVS      A1, #10               ; [DPU_V7M3_PIPE] |58|  ; [ORIG 16-BIT INS]
     746 0000011c F0F0FBB1          UDIV      A1, A2, A1            ; [DPU_V7M3_PIPE] |58|  ; [KEEP 32-BIT INS]
     747 00000120 9000              STR       A1, [SP, #0]          ; [DPU_V7M3_PIPE] |58|  ; [ORIG 16-BIT INS]
     748                            .dwpsn  file "../Debug.c",line 55,column 11,is_stmt,isa 1
     749 00000122 9800              LDR       A1, [SP, #0]          ; [DPU_V7M3_PIPE] |55|  ; [ORIG 16-BIT INS]
     750 00000124 2800              CMP       A1, #0                ; [DPU_V7M3_PIPE] |55|  ; [ORIG 16-BIT INS]
     751 00000126 D1E8              BNE       ||$C$L7||             ; [DPU_V7M3_PIPE] |55|  ; [ORIG 16-BIT INS]
     752                            ; BRANCHCC OCCURS {||$C$L7||}    ; [] |55| 
     753                    ;* --------------------------------------------------------------------------*
     754 00000128           ||$C$L8||:    
     755                            .dwpsn  file "../Debug.c",line 61,column 5,is_stmt,isa 1
     756                    ;----------------------------------------------------------------------
     757                    ;  61 | reverse(buffer,itr);                                                   
     758                    ;----------------------------------------------------------------------
     759 00000128 1004F8BD          LDRH      A2, [SP, #4]          ; [DPU_V7M3_PIPE] |61|  ; [KEEP 32-BIT INS]
     760 0000012c 0006F10D          ADD       A1, SP, #6            ; [DPU_V7M3_PIPE] |61|  ; [KEEP 32-BIT INS]
     761                    $C$DW$53        .dwtag  DW_TAG_TI_branch
     762                            .dwattr $C$DW$53, DW_AT_low_pc(0x00)
     763                            .dwattr $C$DW$53, DW_AT_name("reverse")
     764                            .dwattr $C$DW$53, DW_AT_TI_call
     765                    
     766 00000130 FFFEF7FF!         BL        reverse               ; [DPU_V7M3_PIPE] |61|  ; [KEEP 32-BIT INS]
     767                            ; CALL OCCURS {reverse }         ; [] |61| 
     768                            .dwpsn  file "../Debug.c",line 63,column 5,is_stmt,isa 1
     769                    ;----------------------------------------------------------------------
     770                    ;  63 | itr = 0;                                                               
TI ARM Assembler Unix v18.1.1 Fri Jul  3 20:08:21 2020

Tools Copyright (c) 1996-2017 Texas Instruments Incorporated
Debug.asm                                                            PAGE   15

     771                    ;----------------------------------------------------------------------
     772 00000134 2000              MOVS      A1, #0                ; [DPU_V7M3_PIPE] |63|  ; [ORIG 16-BIT INS]
     773 00000136 0004F8AD          STRH      A1, [SP, #4]          ; [DPU_V7M3_PIPE] |63|  ; [KEEP 32-BIT INS]
     774                            .dwpsn  file "../Debug.c",line 65,column 5,is_stmt,isa 1
     775                    ;----------------------------------------------------------------------
     776                    ;  65 | while(buffer[itr] != 0)                                                
     777                    ;----------------------------------------------------------------------
     778 0000013a E00A              B         ||$C$L10||            ; [DPU_V7M3_PIPE] |65|  ; [ORIG 16-BIT INS]
     779                            ; BRANCH OCCURS {||$C$L10||}     ; [] |65| 
     780                    ;* --------------------------------------------------------------------------*
     781 0000013c           ||$C$L9||:    
     782                            .dwpsn  file "../Debug.c",line 67,column 9,is_stmt,isa 1
     783                    ;----------------------------------------------------------------------
     784                    ;  67 | UARTCharPut(UART0_BASE,buffer[itr++]);                                 
     785                    ;----------------------------------------------------------------------
     786 0000013c 0004F8BD          LDRH      A1, [SP, #4]          ; [DPU_V7M3_PIPE] |67|  ; [KEEP 32-BIT INS]
     787 00000140 0100EB0D          ADD       A2, SP, A1            ; [DPU_V7M3_PIPE] |67|  ; [KEEP 32-BIT INS]
     788 00000144 1C40              ADDS      A1, A1, #1            ; [DPU_V7M3_PIPE] |67|  ; [ORIG 16-BIT INS]
     789 00000146 7989              LDRB      A2, [A2, #6]          ; [DPU_V7M3_PIPE] |67|  ; [ORIG 16-BIT INS]
     790 00000148 0004F8AD          STRH      A1, [SP, #4]          ; [DPU_V7M3_PIPE] |67|  ; [KEEP 32-BIT INS]
     791 0000014c 4809              LDR       A1, $C$CON1           ; [DPU_V7M3_PIPE] |67|  ; [ORIG 16-BIT INS]
     792                    $C$DW$54        .dwtag  DW_TAG_TI_branch
     793                            .dwattr $C$DW$54, DW_AT_low_pc(0x00)
     794                            .dwattr $C$DW$54, DW_AT_name("UARTCharPut")
     795                            .dwattr $C$DW$54, DW_AT_TI_call
     796                    
     797 0000014e FFFEF7FF!         BL        UARTCharPut           ; [DPU_V7M3_PIPE] |67|  ; [KEEP 32-BIT INS]
     798                            ; CALL OCCURS {UARTCharPut }     ; [] |67| 
     799                    ;* --------------------------------------------------------------------------*
     800                    ;*   BEGIN LOOP ||$C$L10||
     801                    ;* --------------------------------------------------------------------------*
     802 00000152           ||$C$L10||:    
     803                            .dwpsn  file "../Debug.c",line 65,column 11,is_stmt,isa 1
     804 00000152 0004F8BD          LDRH      A1, [SP, #4]          ; [DPU_V7M3_PIPE] |65|  ; [KEEP 32-BIT INS]
     805 00000156 4468              ADD       A1, SP, A1            ; [DPU_V7M3_PIPE] |65|  ; [ORIG 16-BIT INS]
     806 00000158 7980              LDRB      A1, [A1, #6]          ; [DPU_V7M3_PIPE] |65|  ; [ORIG 16-BIT INS]
     807 0000015a 2800              CMP       A1, #0                ; [DPU_V7M3_PIPE] |65|  ; [ORIG 16-BIT INS]
     808 0000015c D1EE              BNE       ||$C$L9||             ; [DPU_V7M3_PIPE] |65|  ; [ORIG 16-BIT INS]
     809                            ; BRANCHCC OCCURS {||$C$L9||}    ; [] |65| 
     810                    ;* --------------------------------------------------------------------------*
     811                            .dwpsn  file "../Debug.c",line 70,column 5,is_stmt,isa 1
     812                    ;----------------------------------------------------------------------
     813                    ;  70 | if(newLine == 1)                                                       
     814                    ;----------------------------------------------------------------------
     815 0000015e 006AF89D          LDRB      A1, [SP, #106]        ; [DPU_V7M3_PIPE] |70|  ; [KEEP 32-BIT INS]
     816 00000162 2801              CMP       A1, #1                ; [DPU_V7M3_PIPE] |70|  ; [ORIG 16-BIT INS]
     817 00000164 D103              BNE       ||$C$L11||            ; [DPU_V7M3_PIPE] |70|  ; [ORIG 16-BIT INS]
     818                            ; BRANCHCC OCCURS {||$C$L11||}   ; [] |70| 
     819                    ;* --------------------------------------------------------------------------*
     820                            .dwpsn  file "../Debug.c",line 72,column 9,is_stmt,isa 1
     821                    ;----------------------------------------------------------------------
     822                    ;  72 | UARTCharPut(UART0_BASE,'\n');                                          
     823                    ;----------------------------------------------------------------------
     824 00000166 4803              LDR       A1, $C$CON1           ; [DPU_V7M3_PIPE] |72|  ; [ORIG 16-BIT INS]
     825 00000168 210A              MOVS      A2, #10               ; [DPU_V7M3_PIPE] |72|  ; [ORIG 16-BIT INS]
TI ARM Assembler Unix v18.1.1 Fri Jul  3 20:08:21 2020

Tools Copyright (c) 1996-2017 Texas Instruments Incorporated
Debug.asm                                                            PAGE   16

     826                    $C$DW$55        .dwtag  DW_TAG_TI_branch
     827                            .dwattr $C$DW$55, DW_AT_low_pc(0x00)
     828                            .dwattr $C$DW$55, DW_AT_name("UARTCharPut")
     829                            .dwattr $C$DW$55, DW_AT_TI_call
     830                    
     831 0000016a FFFEF7FF!         BL        UARTCharPut           ; [DPU_V7M3_PIPE] |72|  ; [KEEP 32-BIT INS]
     832                            ; CALL OCCURS {UARTCharPut }     ; [] |72| 
     833                            .dwpsn  file "../Debug.c",line 74,column 1,is_stmt,isa 1
     834                    ;* --------------------------------------------------------------------------*
     835 0000016e           ||$C$L11||:    
     836 0000016e B01B              ADD       SP, SP, #108          ; [DPU_V7M3_PIPE]  ; [ORIG 16-BIT INS]
     837                            .dwcfi  cfa_offset, 4
     838                    $C$DW$56        .dwtag  DW_TAG_TI_branch
     839                            .dwattr $C$DW$56, DW_AT_low_pc(0x00)
     840                            .dwattr $C$DW$56, DW_AT_TI_return
     841                    
     842 00000170 BD00              POP       {PC}                  ; [DPU_V7M3_PIPE]  ; [ORIG 16-BIT INS]
     843                            .dwcfi  cfa_offset, 0
     844                            ; BRANCH OCCURS                  ; [] 
     845                            .dwattr $C$DW$45, DW_AT_TI_end_file("../Debug.c")
     846                            .dwattr $C$DW$45, DW_AT_TI_end_line(0x4a)
     847                            .dwattr $C$DW$45, DW_AT_TI_end_column(0x01)
     848                            .dwendentry
     849                            .dwendtag $C$DW$45
     850                    
     851                    ;******************************************************************************
     852                    ;* CONSTANT TABLE                                                             *
     853                    ;******************************************************************************
     854 00000172                   .sect   ".text"
     855                            .align  4
     856 00000172 C00046C0  ||$C$CON1||:    .bits   1073790976,32
         00000176 00004000 
     857                            .align  4
     858 00000176 24004000  ||$C$CON2||:    .bits   16000000,32
         0000017a 000000F4 
     859                    ;*****************************************************************************
     860                    ;* UNDEFINED EXTERNAL REFERENCES                                             *
     861                    ;*****************************************************************************
     862                            .global GPIOPinTypeUART
     863                            .global UARTConfigSetExpClk
     864                            .global UARTEnable
     865                            .global UARTCharPut
     866                            .global memset
     867                    
     868                    ;******************************************************************************
     869                    ;* BUILD ATTRIBUTES                                                           *
     870                    ;******************************************************************************
     871                            .battr "aeabi", Tag_File, 1, Tag_ABI_PCS_wchar_t(2)
     872                            .battr "aeabi", Tag_File, 1, Tag_ABI_FP_rounding(0)
     873                            .battr "aeabi", Tag_File, 1, Tag_ABI_FP_denormal(0)
     874                            .battr "aeabi", Tag_File, 1, Tag_ABI_FP_exceptions(0)
     875                            .battr "aeabi", Tag_File, 1, Tag_ABI_FP_number_model(1)
     876                            .battr "aeabi", Tag_File, 1, Tag_ABI_enum_size(0)
     877                            .battr "aeabi", Tag_File, 1, Tag_ABI_optimization_goals(5)
     878                            .battr "aeabi", Tag_File, 1, Tag_ABI_FP_optimization_goals(0)
TI ARM Assembler Unix v18.1.1 Fri Jul  3 20:08:21 2020

Tools Copyright (c) 1996-2017 Texas Instruments Incorporated
Debug.asm                                                            PAGE   17

     879                            .battr "TI", Tag_File, 1, Tag_Bitfield_layout(2)
     880                            .battr "aeabi", Tag_File, 1, Tag_ABI_VFP_args(3)
     881                            .battr "TI", Tag_File, 1, Tag_FP_interface(1)
     882                    
     883                    ;******************************************************************************
     884                    ;* TYPE INFORMATION                                                           *
     885                    ;******************************************************************************
     886                    
     887                    $C$DW$T$21      .dwtag  DW_TAG_structure_type
     888                            .dwattr $C$DW$T$21, DW_AT_byte_size(0x10)
     889                    $C$DW$57        .dwtag  DW_TAG_member
     890                            .dwattr $C$DW$57, DW_AT_type(*$C$DW$T$14)
     891                            .dwattr $C$DW$57, DW_AT_name("__max_align1")
     892                            .dwattr $C$DW$57, DW_AT_TI_symbol_name("__max_align1")
     893                            .dwattr $C$DW$57, DW_AT_data_member_location[DW_OP_plus_uconst 0x0]
     894                            .dwattr $C$DW$57, DW_AT_accessibility(DW_ACCESS_public)
     895                            .dwattr $C$DW$57, DW_AT_decl_file("/home/pola/ti/ccsv8/tools/compiler/ti-cgt-arm_18.1.1.LTS/in
     896                            .dwattr $C$DW$57, DW_AT_decl_line(0x70)
     897                            .dwattr $C$DW$57, DW_AT_decl_column(0x0c)
     898                    
     899                    $C$DW$58        .dwtag  DW_TAG_member
     900                            .dwattr $C$DW$58, DW_AT_type(*$C$DW$T$18)
     901                            .dwattr $C$DW$58, DW_AT_name("__max_align2")
     902                            .dwattr $C$DW$58, DW_AT_TI_symbol_name("__max_align2")
     903                            .dwattr $C$DW$58, DW_AT_data_member_location[DW_OP_plus_uconst 0x8]
     904                            .dwattr $C$DW$58, DW_AT_accessibility(DW_ACCESS_public)
     905                            .dwattr $C$DW$58, DW_AT_decl_file("/home/pola/ti/ccsv8/tools/compiler/ti-cgt-arm_18.1.1.LTS/in
     906                            .dwattr $C$DW$58, DW_AT_decl_line(0x71)
     907                            .dwattr $C$DW$58, DW_AT_decl_column(0x0e)
     908                    
     909                            .dwattr $C$DW$T$21, DW_AT_decl_file("/home/pola/ti/ccsv8/tools/compiler/ti-cgt-arm_18.1.1.LTS/
     910                            .dwattr $C$DW$T$21, DW_AT_decl_line(0x6f)
     911                            .dwattr $C$DW$T$21, DW_AT_decl_column(0x10)
     912                            .dwendtag $C$DW$T$21
     913                    
     914                    $C$DW$T$23      .dwtag  DW_TAG_typedef
     915                            .dwattr $C$DW$T$23, DW_AT_name("__max_align_t")
     916                            .dwattr $C$DW$T$23, DW_AT_type(*$C$DW$T$21)
     917                            .dwattr $C$DW$T$23, DW_AT_language(DW_LANG_C)
     918                            .dwattr $C$DW$T$23, DW_AT_decl_file("/home/pola/ti/ccsv8/tools/compiler/ti-cgt-arm_18.1.1.LTS/
     919                            .dwattr $C$DW$T$23, DW_AT_decl_line(0x72)
     920                            .dwattr $C$DW$T$23, DW_AT_decl_column(0x03)
     921                    
     922                    $C$DW$T$2       .dwtag  DW_TAG_unspecified_type
     923                            .dwattr $C$DW$T$2, DW_AT_name("void")
     924                    
     925                    $C$DW$T$3       .dwtag  DW_TAG_pointer_type
     926                            .dwattr $C$DW$T$3, DW_AT_type(*$C$DW$T$2)
     927                            .dwattr $C$DW$T$3, DW_AT_address_class(0x20)
     928                    
     929                    $C$DW$T$4       .dwtag  DW_TAG_base_type
     930                            .dwattr $C$DW$T$4, DW_AT_encoding(DW_ATE_boolean)
     931                            .dwattr $C$DW$T$4, DW_AT_name("bool")
     932                            .dwattr $C$DW$T$4, DW_AT_byte_size(0x01)
     933                    
TI ARM Assembler Unix v18.1.1 Fri Jul  3 20:08:21 2020

Tools Copyright (c) 1996-2017 Texas Instruments Incorporated
Debug.asm                                                            PAGE   18

     934                    $C$DW$T$5       .dwtag  DW_TAG_base_type
     935                            .dwattr $C$DW$T$5, DW_AT_encoding(DW_ATE_signed_char)
     936                            .dwattr $C$DW$T$5, DW_AT_name("signed char")
     937                            .dwattr $C$DW$T$5, DW_AT_byte_size(0x01)
     938                    
     939                    $C$DW$T$48      .dwtag  DW_TAG_typedef
     940                            .dwattr $C$DW$T$48, DW_AT_name("__int8_t")
     941                            .dwattr $C$DW$T$48, DW_AT_type(*$C$DW$T$5)
     942                            .dwattr $C$DW$T$48, DW_AT_language(DW_LANG_C)
     943                            .dwattr $C$DW$T$48, DW_AT_decl_file("/home/pola/ti/ccsv8/tools/compiler/ti-cgt-arm_18.1.1.LTS/
     944                            .dwattr $C$DW$T$48, DW_AT_decl_line(0x39)
     945                            .dwattr $C$DW$T$48, DW_AT_decl_column(0x16)
     946                    
     947                    $C$DW$T$49      .dwtag  DW_TAG_typedef
     948                            .dwattr $C$DW$T$49, DW_AT_name("__int_least8_t")
     949                            .dwattr $C$DW$T$49, DW_AT_type(*$C$DW$T$48)
     950                            .dwattr $C$DW$T$49, DW_AT_language(DW_LANG_C)
     951                            .dwattr $C$DW$T$49, DW_AT_decl_file("/home/pola/ti/ccsv8/tools/compiler/ti-cgt-arm_18.1.1.LTS/
     952                            .dwattr $C$DW$T$49, DW_AT_decl_line(0x58)
     953                            .dwattr $C$DW$T$49, DW_AT_decl_column(0x12)
     954                    
     955                    $C$DW$T$50      .dwtag  DW_TAG_typedef
     956                            .dwattr $C$DW$T$50, DW_AT_name("int_least8_t")
     957                            .dwattr $C$DW$T$50, DW_AT_type(*$C$DW$T$49)
     958                            .dwattr $C$DW$T$50, DW_AT_language(DW_LANG_C)
     959                            .dwattr $C$DW$T$50, DW_AT_decl_file("/home/pola/ti/ccsv8/tools/compiler/ti-cgt-arm_18.1.1.LTS/
     960                            .dwattr $C$DW$T$50, DW_AT_decl_line(0x28)
     961                            .dwattr $C$DW$T$50, DW_AT_decl_column(0x19)
     962                    
     963                    $C$DW$T$51      .dwtag  DW_TAG_typedef
     964                            .dwattr $C$DW$T$51, DW_AT_name("int8_t")
     965                            .dwattr $C$DW$T$51, DW_AT_type(*$C$DW$T$48)
     966                            .dwattr $C$DW$T$51, DW_AT_language(DW_LANG_C)
     967                            .dwattr $C$DW$T$51, DW_AT_decl_file("/home/pola/ti/ccsv8/tools/compiler/ti-cgt-arm_18.1.1.LTS/
     968                            .dwattr $C$DW$T$51, DW_AT_decl_line(0x24)
     969                            .dwattr $C$DW$T$51, DW_AT_decl_column(0x13)
     970                    
     971                    $C$DW$T$6       .dwtag  DW_TAG_base_type
     972                            .dwattr $C$DW$T$6, DW_AT_encoding(DW_ATE_unsigned_char)
     973                            .dwattr $C$DW$T$6, DW_AT_name("unsigned char")
     974                            .dwattr $C$DW$T$6, DW_AT_byte_size(0x01)
     975                    
     976                    $C$DW$T$34      .dwtag  DW_TAG_typedef
     977                            .dwattr $C$DW$T$34, DW_AT_name("__uint8_t")
     978                            .dwattr $C$DW$T$34, DW_AT_type(*$C$DW$T$6)
     979                            .dwattr $C$DW$T$34, DW_AT_language(DW_LANG_C)
     980                            .dwattr $C$DW$T$34, DW_AT_decl_file("/home/pola/ti/ccsv8/tools/compiler/ti-cgt-arm_18.1.1.LTS/
     981                            .dwattr $C$DW$T$34, DW_AT_decl_line(0x3a)
     982                            .dwattr $C$DW$T$34, DW_AT_decl_column(0x18)
     983                    
     984                    $C$DW$T$52      .dwtag  DW_TAG_typedef
     985                            .dwattr $C$DW$T$52, DW_AT_name("__sa_family_t")
     986                            .dwattr $C$DW$T$52, DW_AT_type(*$C$DW$T$34)
     987                            .dwattr $C$DW$T$52, DW_AT_language(DW_LANG_C)
     988                            .dwattr $C$DW$T$52, DW_AT_decl_file("/home/pola/ti/ccsv8/tools/compiler/ti-cgt-arm_18.1.1.LTS/
TI ARM Assembler Unix v18.1.1 Fri Jul  3 20:08:21 2020

Tools Copyright (c) 1996-2017 Texas Instruments Incorporated
Debug.asm                                                            PAGE   19

     989                            .dwattr $C$DW$T$52, DW_AT_decl_line(0x43)
     990                            .dwattr $C$DW$T$52, DW_AT_decl_column(0x13)
     991                    
     992                    $C$DW$T$53      .dwtag  DW_TAG_typedef
     993                            .dwattr $C$DW$T$53, DW_AT_name("__uint_least8_t")
     994                            .dwattr $C$DW$T$53, DW_AT_type(*$C$DW$T$34)
     995                            .dwattr $C$DW$T$53, DW_AT_language(DW_LANG_C)
     996                            .dwattr $C$DW$T$53, DW_AT_decl_file("/home/pola/ti/ccsv8/tools/compiler/ti-cgt-arm_18.1.1.LTS/
     997                            .dwattr $C$DW$T$53, DW_AT_decl_line(0x6d)
     998                            .dwattr $C$DW$T$53, DW_AT_decl_column(0x13)
     999                    
    1000                    $C$DW$T$54      .dwtag  DW_TAG_typedef
    1001                            .dwattr $C$DW$T$54, DW_AT_name("uint_least8_t")
    1002                            .dwattr $C$DW$T$54, DW_AT_type(*$C$DW$T$53)
    1003                            .dwattr $C$DW$T$54, DW_AT_language(DW_LANG_C)
    1004                            .dwattr $C$DW$T$54, DW_AT_decl_file("/home/pola/ti/ccsv8/tools/compiler/ti-cgt-arm_18.1.1.LTS/
    1005                            .dwattr $C$DW$T$54, DW_AT_decl_line(0x2d)
    1006                            .dwattr $C$DW$T$54, DW_AT_decl_column(0x1a)
    1007                    
    1008                    $C$DW$T$35      .dwtag  DW_TAG_typedef
    1009                            .dwattr $C$DW$T$35, DW_AT_name("uint8_t")
    1010                            .dwattr $C$DW$T$35, DW_AT_type(*$C$DW$T$34)
    1011                            .dwattr $C$DW$T$35, DW_AT_language(DW_LANG_C)
    1012                            .dwattr $C$DW$T$35, DW_AT_decl_file("/home/pola/ti/ccsv8/tools/compiler/ti-cgt-arm_18.1.1.LTS/
    1013                            .dwattr $C$DW$T$35, DW_AT_decl_line(0x38)
    1014                            .dwattr $C$DW$T$35, DW_AT_decl_column(0x14)
    1015                    
    1016                    $C$DW$T$7       .dwtag  DW_TAG_base_type
    1017                            .dwattr $C$DW$T$7, DW_AT_encoding(DW_ATE_signed_char)
    1018                            .dwattr $C$DW$T$7, DW_AT_name("wchar_t")
    1019                            .dwattr $C$DW$T$7, DW_AT_byte_size(0x02)
    1020                    
    1021                    $C$DW$T$8       .dwtag  DW_TAG_base_type
    1022                            .dwattr $C$DW$T$8, DW_AT_encoding(DW_ATE_signed)
    1023                            .dwattr $C$DW$T$8, DW_AT_name("short")
    1024                            .dwattr $C$DW$T$8, DW_AT_byte_size(0x02)
    1025                    
    1026                    $C$DW$T$55      .dwtag  DW_TAG_typedef
    1027                            .dwattr $C$DW$T$55, DW_AT_name("__int16_t")
    1028                            .dwattr $C$DW$T$55, DW_AT_type(*$C$DW$T$8)
    1029                            .dwattr $C$DW$T$55, DW_AT_language(DW_LANG_C)
    1030                            .dwattr $C$DW$T$55, DW_AT_decl_file("/home/pola/ti/ccsv8/tools/compiler/ti-cgt-arm_18.1.1.LTS/
    1031                            .dwattr $C$DW$T$55, DW_AT_decl_line(0x3b)
    1032                            .dwattr $C$DW$T$55, DW_AT_decl_column(0x11)
    1033                    
    1034                    $C$DW$T$56      .dwtag  DW_TAG_typedef
    1035                            .dwattr $C$DW$T$56, DW_AT_name("__int_least16_t")
    1036                            .dwattr $C$DW$T$56, DW_AT_type(*$C$DW$T$55)
    1037                            .dwattr $C$DW$T$56, DW_AT_language(DW_LANG_C)
    1038                            .dwattr $C$DW$T$56, DW_AT_decl_file("/home/pola/ti/ccsv8/tools/compiler/ti-cgt-arm_18.1.1.LTS/
    1039                            .dwattr $C$DW$T$56, DW_AT_decl_line(0x59)
    1040                            .dwattr $C$DW$T$56, DW_AT_decl_column(0x13)
    1041                    
    1042                    $C$DW$T$57      .dwtag  DW_TAG_typedef
    1043                            .dwattr $C$DW$T$57, DW_AT_name("int_least16_t")
TI ARM Assembler Unix v18.1.1 Fri Jul  3 20:08:21 2020

Tools Copyright (c) 1996-2017 Texas Instruments Incorporated
Debug.asm                                                            PAGE   20

    1044                            .dwattr $C$DW$T$57, DW_AT_type(*$C$DW$T$56)
    1045                            .dwattr $C$DW$T$57, DW_AT_language(DW_LANG_C)
    1046                            .dwattr $C$DW$T$57, DW_AT_decl_file("/home/pola/ti/ccsv8/tools/compiler/ti-cgt-arm_18.1.1.LTS/
    1047                            .dwattr $C$DW$T$57, DW_AT_decl_line(0x29)
    1048                            .dwattr $C$DW$T$57, DW_AT_decl_column(0x1a)
    1049                    
    1050                    $C$DW$T$58      .dwtag  DW_TAG_typedef
    1051                            .dwattr $C$DW$T$58, DW_AT_name("int16_t")
    1052                            .dwattr $C$DW$T$58, DW_AT_type(*$C$DW$T$55)
    1053                            .dwattr $C$DW$T$58, DW_AT_language(DW_LANG_C)
    1054                            .dwattr $C$DW$T$58, DW_AT_decl_file("/home/pola/ti/ccsv8/tools/compiler/ti-cgt-arm_18.1.1.LTS/
    1055                            .dwattr $C$DW$T$58, DW_AT_decl_line(0x29)
    1056                            .dwattr $C$DW$T$58, DW_AT_decl_column(0x14)
    1057                    
    1058                    $C$DW$T$9       .dwtag  DW_TAG_base_type
    1059                            .dwattr $C$DW$T$9, DW_AT_encoding(DW_ATE_unsigned)
    1060                            .dwattr $C$DW$T$9, DW_AT_name("unsigned short")
    1061                            .dwattr $C$DW$T$9, DW_AT_byte_size(0x02)
    1062                    
    1063                    $C$DW$T$59      .dwtag  DW_TAG_typedef
    1064                            .dwattr $C$DW$T$59, DW_AT_name("___wchar_t")
    1065                            .dwattr $C$DW$T$59, DW_AT_type(*$C$DW$T$9)
    1066                            .dwattr $C$DW$T$59, DW_AT_language(DW_LANG_C)
    1067                            .dwattr $C$DW$T$59, DW_AT_decl_file("/home/pola/ti/ccsv8/tools/compiler/ti-cgt-arm_18.1.1.LTS/
    1068                            .dwattr $C$DW$T$59, DW_AT_decl_line(0x76)
    1069                            .dwattr $C$DW$T$59, DW_AT_decl_column(0x1a)
    1070                    
    1071                    $C$DW$T$42      .dwtag  DW_TAG_typedef
    1072                            .dwattr $C$DW$T$42, DW_AT_name("__uint16_t")
    1073                            .dwattr $C$DW$T$42, DW_AT_type(*$C$DW$T$9)
    1074                            .dwattr $C$DW$T$42, DW_AT_language(DW_LANG_C)
    1075                            .dwattr $C$DW$T$42, DW_AT_decl_file("/home/pola/ti/ccsv8/tools/compiler/ti-cgt-arm_18.1.1.LTS/
    1076                            .dwattr $C$DW$T$42, DW_AT_decl_line(0x3c)
    1077                            .dwattr $C$DW$T$42, DW_AT_decl_column(0x19)
    1078                    
    1079                    $C$DW$T$60      .dwtag  DW_TAG_typedef
    1080                            .dwattr $C$DW$T$60, DW_AT_name("__mode_t")
    1081                            .dwattr $C$DW$T$60, DW_AT_type(*$C$DW$T$42)
    1082                            .dwattr $C$DW$T$60, DW_AT_language(DW_LANG_C)
    1083                            .dwattr $C$DW$T$60, DW_AT_decl_file("/home/pola/ti/ccsv8/tools/compiler/ti-cgt-arm_18.1.1.LTS/
    1084                            .dwattr $C$DW$T$60, DW_AT_decl_line(0x39)
    1085                            .dwattr $C$DW$T$60, DW_AT_decl_column(0x14)
    1086                    
    1087                    $C$DW$T$61      .dwtag  DW_TAG_typedef
    1088                            .dwattr $C$DW$T$61, DW_AT_name("__uint_least16_t")
    1089                            .dwattr $C$DW$T$61, DW_AT_type(*$C$DW$T$42)
    1090                            .dwattr $C$DW$T$61, DW_AT_language(DW_LANG_C)
    1091                            .dwattr $C$DW$T$61, DW_AT_decl_file("/home/pola/ti/ccsv8/tools/compiler/ti-cgt-arm_18.1.1.LTS/
    1092                            .dwattr $C$DW$T$61, DW_AT_decl_line(0x6e)
    1093                            .dwattr $C$DW$T$61, DW_AT_decl_column(0x14)
    1094                    
    1095                    $C$DW$T$62      .dwtag  DW_TAG_typedef
    1096                            .dwattr $C$DW$T$62, DW_AT_name("__char16_t")
    1097                            .dwattr $C$DW$T$62, DW_AT_type(*$C$DW$T$61)
    1098                            .dwattr $C$DW$T$62, DW_AT_language(DW_LANG_C)
TI ARM Assembler Unix v18.1.1 Fri Jul  3 20:08:21 2020

Tools Copyright (c) 1996-2017 Texas Instruments Incorporated
Debug.asm                                                            PAGE   21

    1099                            .dwattr $C$DW$T$62, DW_AT_decl_file("/home/pola/ti/ccsv8/tools/compiler/ti-cgt-arm_18.1.1.LTS/
    1100                            .dwattr $C$DW$T$62, DW_AT_decl_line(0x66)
    1101                            .dwattr $C$DW$T$62, DW_AT_decl_column(0x1a)
    1102                    
    1103                    $C$DW$T$63      .dwtag  DW_TAG_typedef
    1104                            .dwattr $C$DW$T$63, DW_AT_name("uint_least16_t")
    1105                            .dwattr $C$DW$T$63, DW_AT_type(*$C$DW$T$61)
    1106                            .dwattr $C$DW$T$63, DW_AT_language(DW_LANG_C)
    1107                            .dwattr $C$DW$T$63, DW_AT_decl_file("/home/pola/ti/ccsv8/tools/compiler/ti-cgt-arm_18.1.1.LTS/
    1108                            .dwattr $C$DW$T$63, DW_AT_decl_line(0x2e)
    1109                            .dwattr $C$DW$T$63, DW_AT_decl_column(0x1a)
    1110                    
    1111                    $C$DW$T$43      .dwtag  DW_TAG_typedef
    1112                            .dwattr $C$DW$T$43, DW_AT_name("uint16_t")
    1113                            .dwattr $C$DW$T$43, DW_AT_type(*$C$DW$T$42)
    1114                            .dwattr $C$DW$T$43, DW_AT_language(DW_LANG_C)
    1115                            .dwattr $C$DW$T$43, DW_AT_decl_file("/home/pola/ti/ccsv8/tools/compiler/ti-cgt-arm_18.1.1.LTS/
    1116                            .dwattr $C$DW$T$43, DW_AT_decl_line(0x3d)
    1117                            .dwattr $C$DW$T$43, DW_AT_decl_column(0x15)
    1118                    
    1119                    $C$DW$T$10      .dwtag  DW_TAG_base_type
    1120                            .dwattr $C$DW$T$10, DW_AT_encoding(DW_ATE_signed)
    1121                            .dwattr $C$DW$T$10, DW_AT_name("int")
    1122                            .dwattr $C$DW$T$10, DW_AT_byte_size(0x04)
    1123                    
    1124                    $C$DW$T$64      .dwtag  DW_TAG_typedef
    1125                            .dwattr $C$DW$T$64, DW_AT_name("_Mbstatet")
    1126                            .dwattr $C$DW$T$64, DW_AT_type(*$C$DW$T$10)
    1127                            .dwattr $C$DW$T$64, DW_AT_language(DW_LANG_C)
    1128                            .dwattr $C$DW$T$64, DW_AT_decl_file("/home/pola/ti/ccsv8/tools/compiler/ti-cgt-arm_18.1.1.LTS/
    1129                            .dwattr $C$DW$T$64, DW_AT_decl_line(0x84)
    1130                            .dwattr $C$DW$T$64, DW_AT_decl_column(0x0d)
    1131                    
    1132                    $C$DW$T$65      .dwtag  DW_TAG_typedef
    1133                            .dwattr $C$DW$T$65, DW_AT_name("__mbstate_t")
    1134                            .dwattr $C$DW$T$65, DW_AT_type(*$C$DW$T$64)
    1135                            .dwattr $C$DW$T$65, DW_AT_language(DW_LANG_C)
    1136                            .dwattr $C$DW$T$65, DW_AT_decl_file("/home/pola/ti/ccsv8/tools/compiler/ti-cgt-arm_18.1.1.LTS/
    1137                            .dwattr $C$DW$T$65, DW_AT_decl_line(0x87)
    1138                            .dwattr $C$DW$T$65, DW_AT_decl_column(0x13)
    1139                    
    1140                    $C$DW$T$66      .dwtag  DW_TAG_typedef
    1141                            .dwattr $C$DW$T$66, DW_AT_name("__accmode_t")
    1142                            .dwattr $C$DW$T$66, DW_AT_type(*$C$DW$T$10)
    1143                            .dwattr $C$DW$T$66, DW_AT_language(DW_LANG_C)
    1144                            .dwattr $C$DW$T$66, DW_AT_decl_file("/home/pola/ti/ccsv8/tools/compiler/ti-cgt-arm_18.1.1.LTS/
    1145                            .dwattr $C$DW$T$66, DW_AT_decl_line(0x3a)
    1146                            .dwattr $C$DW$T$66, DW_AT_decl_column(0x0e)
    1147                    
    1148                    $C$DW$T$67      .dwtag  DW_TAG_typedef
    1149                            .dwattr $C$DW$T$67, DW_AT_name("__cpulevel_t")
    1150                            .dwattr $C$DW$T$67, DW_AT_type(*$C$DW$T$10)
    1151                            .dwattr $C$DW$T$67, DW_AT_language(DW_LANG_C)
    1152                            .dwattr $C$DW$T$67, DW_AT_decl_file("/home/pola/ti/ccsv8/tools/compiler/ti-cgt-arm_18.1.1.LTS/
    1153                            .dwattr $C$DW$T$67, DW_AT_decl_line(0x4b)
TI ARM Assembler Unix v18.1.1 Fri Jul  3 20:08:21 2020

Tools Copyright (c) 1996-2017 Texas Instruments Incorporated
Debug.asm                                                            PAGE   22

    1154                            .dwattr $C$DW$T$67, DW_AT_decl_column(0x0e)
    1155                    
    1156                    $C$DW$T$68      .dwtag  DW_TAG_typedef
    1157                            .dwattr $C$DW$T$68, DW_AT_name("__cpusetid_t")
    1158                            .dwattr $C$DW$T$68, DW_AT_type(*$C$DW$T$10)
    1159                            .dwattr $C$DW$T$68, DW_AT_language(DW_LANG_C)
    1160                            .dwattr $C$DW$T$68, DW_AT_decl_file("/home/pola/ti/ccsv8/tools/compiler/ti-cgt-arm_18.1.1.LTS/
    1161                            .dwattr $C$DW$T$68, DW_AT_decl_line(0x4c)
    1162                            .dwattr $C$DW$T$68, DW_AT_decl_column(0x0e)
    1163                    
    1164                    $C$DW$T$69      .dwtag  DW_TAG_typedef
    1165                            .dwattr $C$DW$T$69, DW_AT_name("__cpuwhich_t")
    1166                            .dwattr $C$DW$T$69, DW_AT_type(*$C$DW$T$10)
    1167                            .dwattr $C$DW$T$69, DW_AT_language(DW_LANG_C)
    1168                            .dwattr $C$DW$T$69, DW_AT_decl_file("/home/pola/ti/ccsv8/tools/compiler/ti-cgt-arm_18.1.1.LTS/
    1169                            .dwattr $C$DW$T$69, DW_AT_decl_line(0x4a)
    1170                            .dwattr $C$DW$T$69, DW_AT_decl_column(0x0e)
    1171                    
    1172                    $C$DW$T$70      .dwtag  DW_TAG_typedef
    1173                            .dwattr $C$DW$T$70, DW_AT_name("__ct_rune_t")
    1174                            .dwattr $C$DW$T$70, DW_AT_type(*$C$DW$T$10)
    1175                            .dwattr $C$DW$T$70, DW_AT_language(DW_LANG_C)
    1176                            .dwattr $C$DW$T$70, DW_AT_decl_file("/home/pola/ti/ccsv8/tools/compiler/ti-cgt-arm_18.1.1.LTS/
    1177                            .dwattr $C$DW$T$70, DW_AT_decl_line(0x60)
    1178                            .dwattr $C$DW$T$70, DW_AT_decl_column(0x0e)
    1179                    
    1180                    $C$DW$T$71      .dwtag  DW_TAG_typedef
    1181                            .dwattr $C$DW$T$71, DW_AT_name("__rune_t")
    1182                            .dwattr $C$DW$T$71, DW_AT_type(*$C$DW$T$70)
    1183                            .dwattr $C$DW$T$71, DW_AT_language(DW_LANG_C)
    1184                            .dwattr $C$DW$T$71, DW_AT_decl_file("/home/pola/ti/ccsv8/tools/compiler/ti-cgt-arm_18.1.1.LTS/
    1185                            .dwattr $C$DW$T$71, DW_AT_decl_line(0x61)
    1186                            .dwattr $C$DW$T$71, DW_AT_decl_column(0x15)
    1187                    
    1188                    $C$DW$T$72      .dwtag  DW_TAG_typedef
    1189                            .dwattr $C$DW$T$72, DW_AT_name("__wint_t")
    1190                            .dwattr $C$DW$T$72, DW_AT_type(*$C$DW$T$70)
    1191                            .dwattr $C$DW$T$72, DW_AT_language(DW_LANG_C)
    1192                            .dwattr $C$DW$T$72, DW_AT_decl_file("/home/pola/ti/ccsv8/tools/compiler/ti-cgt-arm_18.1.1.LTS/
    1193                            .dwattr $C$DW$T$72, DW_AT_decl_line(0x62)
    1194                            .dwattr $C$DW$T$72, DW_AT_decl_column(0x15)
    1195                    
    1196                    $C$DW$T$73      .dwtag  DW_TAG_typedef
    1197                            .dwattr $C$DW$T$73, DW_AT_name("__int32_t")
    1198                            .dwattr $C$DW$T$73, DW_AT_type(*$C$DW$T$10)
    1199                            .dwattr $C$DW$T$73, DW_AT_language(DW_LANG_C)
    1200                            .dwattr $C$DW$T$73, DW_AT_decl_file("/home/pola/ti/ccsv8/tools/compiler/ti-cgt-arm_18.1.1.LTS/
    1201                            .dwattr $C$DW$T$73, DW_AT_decl_line(0x3d)
    1202                            .dwattr $C$DW$T$73, DW_AT_decl_column(0x0f)
    1203                    
    1204                    $C$DW$T$74      .dwtag  DW_TAG_typedef
    1205                            .dwattr $C$DW$T$74, DW_AT_name("__blksize_t")
    1206                            .dwattr $C$DW$T$74, DW_AT_type(*$C$DW$T$73)
    1207                            .dwattr $C$DW$T$74, DW_AT_language(DW_LANG_C)
    1208                            .dwattr $C$DW$T$74, DW_AT_decl_file("/home/pola/ti/ccsv8/tools/compiler/ti-cgt-arm_18.1.1.LTS/
TI ARM Assembler Unix v18.1.1 Fri Jul  3 20:08:21 2020

Tools Copyright (c) 1996-2017 Texas Instruments Incorporated
Debug.asm                                                            PAGE   23

    1209                            .dwattr $C$DW$T$74, DW_AT_decl_line(0x2e)
    1210                            .dwattr $C$DW$T$74, DW_AT_decl_column(0x13)
    1211                    
    1212                    $C$DW$T$75      .dwtag  DW_TAG_typedef
    1213                            .dwattr $C$DW$T$75, DW_AT_name("__clockid_t")
    1214                            .dwattr $C$DW$T$75, DW_AT_type(*$C$DW$T$73)
    1215                            .dwattr $C$DW$T$75, DW_AT_language(DW_LANG_C)
    1216                            .dwattr $C$DW$T$75, DW_AT_decl_file("/home/pola/ti/ccsv8/tools/compiler/ti-cgt-arm_18.1.1.LTS/
    1217                            .dwattr $C$DW$T$75, DW_AT_decl_line(0x30)
    1218                            .dwattr $C$DW$T$75, DW_AT_decl_column(0x13)
    1219                    
    1220                    $C$DW$T$76      .dwtag  DW_TAG_typedef
    1221                            .dwattr $C$DW$T$76, DW_AT_name("__critical_t")
    1222                            .dwattr $C$DW$T$76, DW_AT_type(*$C$DW$T$73)
    1223                            .dwattr $C$DW$T$76, DW_AT_language(DW_LANG_C)
    1224                            .dwattr $C$DW$T$76, DW_AT_decl_file("/home/pola/ti/ccsv8/tools/compiler/ti-cgt-arm_18.1.1.LTS/
    1225                            .dwattr $C$DW$T$76, DW_AT_decl_line(0x4e)
    1226                            .dwattr $C$DW$T$76, DW_AT_decl_column(0x13)
    1227                    
    1228                    $C$DW$T$77      .dwtag  DW_TAG_typedef
    1229                            .dwattr $C$DW$T$77, DW_AT_name("__int_fast16_t")
    1230                            .dwattr $C$DW$T$77, DW_AT_type(*$C$DW$T$73)
    1231                            .dwattr $C$DW$T$77, DW_AT_language(DW_LANG_C)
    1232                            .dwattr $C$DW$T$77, DW_AT_decl_file("/home/pola/ti/ccsv8/tools/compiler/ti-cgt-arm_18.1.1.LTS/
    1233                            .dwattr $C$DW$T$77, DW_AT_decl_line(0x55)
    1234                            .dwattr $C$DW$T$77, DW_AT_decl_column(0x13)
    1235                    
    1236                    $C$DW$T$78      .dwtag  DW_TAG_typedef
    1237                            .dwattr $C$DW$T$78, DW_AT_name("int_fast16_t")
    1238                            .dwattr $C$DW$T$78, DW_AT_type(*$C$DW$T$77)
    1239                            .dwattr $C$DW$T$78, DW_AT_language(DW_LANG_C)
    1240                            .dwattr $C$DW$T$78, DW_AT_decl_file("/home/pola/ti/ccsv8/tools/compiler/ti-cgt-arm_18.1.1.LTS/
    1241                            .dwattr $C$DW$T$78, DW_AT_decl_line(0x33)
    1242                            .dwattr $C$DW$T$78, DW_AT_decl_column(0x19)
    1243                    
    1244                    $C$DW$T$79      .dwtag  DW_TAG_typedef
    1245                            .dwattr $C$DW$T$79, DW_AT_name("__int_fast32_t")
    1246                            .dwattr $C$DW$T$79, DW_AT_type(*$C$DW$T$73)
    1247                            .dwattr $C$DW$T$79, DW_AT_language(DW_LANG_C)
    1248                            .dwattr $C$DW$T$79, DW_AT_decl_file("/home/pola/ti/ccsv8/tools/compiler/ti-cgt-arm_18.1.1.LTS/
    1249                            .dwattr $C$DW$T$79, DW_AT_decl_line(0x56)
    1250                            .dwattr $C$DW$T$79, DW_AT_decl_column(0x13)
    1251                    
    1252                    $C$DW$T$80      .dwtag  DW_TAG_typedef
    1253                            .dwattr $C$DW$T$80, DW_AT_name("int_fast32_t")
    1254                            .dwattr $C$DW$T$80, DW_AT_type(*$C$DW$T$79)
    1255                            .dwattr $C$DW$T$80, DW_AT_language(DW_LANG_C)
    1256                            .dwattr $C$DW$T$80, DW_AT_decl_file("/home/pola/ti/ccsv8/tools/compiler/ti-cgt-arm_18.1.1.LTS/
    1257                            .dwattr $C$DW$T$80, DW_AT_decl_line(0x34)
    1258                            .dwattr $C$DW$T$80, DW_AT_decl_column(0x19)
    1259                    
    1260                    $C$DW$T$81      .dwtag  DW_TAG_typedef
    1261                            .dwattr $C$DW$T$81, DW_AT_name("__int_fast8_t")
    1262                            .dwattr $C$DW$T$81, DW_AT_type(*$C$DW$T$73)
    1263                            .dwattr $C$DW$T$81, DW_AT_language(DW_LANG_C)
TI ARM Assembler Unix v18.1.1 Fri Jul  3 20:08:21 2020

Tools Copyright (c) 1996-2017 Texas Instruments Incorporated
Debug.asm                                                            PAGE   24

    1264                            .dwattr $C$DW$T$81, DW_AT_decl_file("/home/pola/ti/ccsv8/tools/compiler/ti-cgt-arm_18.1.1.LTS/
    1265                            .dwattr $C$DW$T$81, DW_AT_decl_line(0x54)
    1266                            .dwattr $C$DW$T$81, DW_AT_decl_column(0x13)
    1267                    
    1268                    $C$DW$T$82      .dwtag  DW_TAG_typedef
    1269                            .dwattr $C$DW$T$82, DW_AT_name("int_fast8_t")
    1270                            .dwattr $C$DW$T$82, DW_AT_type(*$C$DW$T$81)
    1271                            .dwattr $C$DW$T$82, DW_AT_language(DW_LANG_C)
    1272                            .dwattr $C$DW$T$82, DW_AT_decl_file("/home/pola/ti/ccsv8/tools/compiler/ti-cgt-arm_18.1.1.LTS/
    1273                            .dwattr $C$DW$T$82, DW_AT_decl_line(0x32)
    1274                            .dwattr $C$DW$T$82, DW_AT_decl_column(0x18)
    1275                    
    1276                    $C$DW$T$83      .dwtag  DW_TAG_typedef
    1277                            .dwattr $C$DW$T$83, DW_AT_name("__int_least32_t")
    1278                            .dwattr $C$DW$T$83, DW_AT_type(*$C$DW$T$73)
    1279                            .dwattr $C$DW$T$83, DW_AT_language(DW_LANG_C)
    1280                            .dwattr $C$DW$T$83, DW_AT_decl_file("/home/pola/ti/ccsv8/tools/compiler/ti-cgt-arm_18.1.1.LTS/
    1281                            .dwattr $C$DW$T$83, DW_AT_decl_line(0x5a)
    1282                            .dwattr $C$DW$T$83, DW_AT_decl_column(0x13)
    1283                    
    1284                    $C$DW$T$84      .dwtag  DW_TAG_typedef
    1285                            .dwattr $C$DW$T$84, DW_AT_name("int_least32_t")
    1286                            .dwattr $C$DW$T$84, DW_AT_type(*$C$DW$T$83)
    1287                            .dwattr $C$DW$T$84, DW_AT_language(DW_LANG_C)
    1288                            .dwattr $C$DW$T$84, DW_AT_decl_file("/home/pola/ti/ccsv8/tools/compiler/ti-cgt-arm_18.1.1.LTS/
    1289                            .dwattr $C$DW$T$84, DW_AT_decl_line(0x2a)
    1290                            .dwattr $C$DW$T$84, DW_AT_decl_column(0x1a)
    1291                    
    1292                    $C$DW$T$85      .dwtag  DW_TAG_typedef
    1293                            .dwattr $C$DW$T$85, DW_AT_name("__intfptr_t")
    1294                            .dwattr $C$DW$T$85, DW_AT_type(*$C$DW$T$73)
    1295                            .dwattr $C$DW$T$85, DW_AT_language(DW_LANG_C)
    1296                            .dwattr $C$DW$T$85, DW_AT_decl_file("/home/pola/ti/ccsv8/tools/compiler/ti-cgt-arm_18.1.1.LTS/
    1297                            .dwattr $C$DW$T$85, DW_AT_decl_line(0x51)
    1298                            .dwattr $C$DW$T$85, DW_AT_decl_column(0x13)
    1299                    
    1300                    $C$DW$T$86      .dwtag  DW_TAG_typedef
    1301                            .dwattr $C$DW$T$86, DW_AT_name("__intptr_t")
    1302                            .dwattr $C$DW$T$86, DW_AT_type(*$C$DW$T$73)
    1303                            .dwattr $C$DW$T$86, DW_AT_language(DW_LANG_C)
    1304                            .dwattr $C$DW$T$86, DW_AT_decl_file("/home/pola/ti/ccsv8/tools/compiler/ti-cgt-arm_18.1.1.LTS/
    1305                            .dwattr $C$DW$T$86, DW_AT_decl_line(0x53)
    1306                            .dwattr $C$DW$T$86, DW_AT_decl_column(0x13)
    1307                    
    1308                    $C$DW$T$87      .dwtag  DW_TAG_typedef
    1309                            .dwattr $C$DW$T$87, DW_AT_name("intptr_t")
    1310                            .dwattr $C$DW$T$87, DW_AT_type(*$C$DW$T$86)
    1311                            .dwattr $C$DW$T$87, DW_AT_language(DW_LANG_C)
    1312                            .dwattr $C$DW$T$87, DW_AT_decl_file("/home/pola/ti/ccsv8/tools/compiler/ti-cgt-arm_18.1.1.LTS/
    1313                            .dwattr $C$DW$T$87, DW_AT_decl_line(0x4c)
    1314                            .dwattr $C$DW$T$87, DW_AT_decl_column(0x15)
    1315                    
    1316                    $C$DW$T$88      .dwtag  DW_TAG_typedef
    1317                            .dwattr $C$DW$T$88, DW_AT_name("__lwpid_t")
    1318                            .dwattr $C$DW$T$88, DW_AT_type(*$C$DW$T$73)
TI ARM Assembler Unix v18.1.1 Fri Jul  3 20:08:21 2020

Tools Copyright (c) 1996-2017 Texas Instruments Incorporated
Debug.asm                                                            PAGE   25

    1319                            .dwattr $C$DW$T$88, DW_AT_language(DW_LANG_C)
    1320                            .dwattr $C$DW$T$88, DW_AT_decl_file("/home/pola/ti/ccsv8/tools/compiler/ti-cgt-arm_18.1.1.LTS/
    1321                            .dwattr $C$DW$T$88, DW_AT_decl_line(0x38)
    1322                            .dwattr $C$DW$T$88, DW_AT_decl_column(0x13)
    1323                    
    1324                    $C$DW$T$89      .dwtag  DW_TAG_typedef
    1325                            .dwattr $C$DW$T$89, DW_AT_name("__pid_t")
    1326                            .dwattr $C$DW$T$89, DW_AT_type(*$C$DW$T$73)
    1327                            .dwattr $C$DW$T$89, DW_AT_language(DW_LANG_C)
    1328                            .dwattr $C$DW$T$89, DW_AT_decl_file("/home/pola/ti/ccsv8/tools/compiler/ti-cgt-arm_18.1.1.LTS/
    1329                            .dwattr $C$DW$T$89, DW_AT_decl_line(0x3f)
    1330                            .dwattr $C$DW$T$89, DW_AT_decl_column(0x13)
    1331                    
    1332                    $C$DW$T$90      .dwtag  DW_TAG_typedef
    1333                            .dwattr $C$DW$T$90, DW_AT_name("__ptrdiff_t")
    1334                            .dwattr $C$DW$T$90, DW_AT_type(*$C$DW$T$73)
    1335                            .dwattr $C$DW$T$90, DW_AT_language(DW_LANG_C)
    1336                            .dwattr $C$DW$T$90, DW_AT_decl_file("/home/pola/ti/ccsv8/tools/compiler/ti-cgt-arm_18.1.1.LTS/
    1337                            .dwattr $C$DW$T$90, DW_AT_decl_line(0x5c)
    1338                            .dwattr $C$DW$T$90, DW_AT_decl_column(0x13)
    1339                    
    1340                    $C$DW$T$91      .dwtag  DW_TAG_typedef
    1341                            .dwattr $C$DW$T$91, DW_AT_name("__register_t")
    1342                            .dwattr $C$DW$T$91, DW_AT_type(*$C$DW$T$73)
    1343                            .dwattr $C$DW$T$91, DW_AT_language(DW_LANG_C)
    1344                            .dwattr $C$DW$T$91, DW_AT_decl_file("/home/pola/ti/ccsv8/tools/compiler/ti-cgt-arm_18.1.1.LTS/
    1345                            .dwattr $C$DW$T$91, DW_AT_decl_line(0x5d)
    1346                            .dwattr $C$DW$T$91, DW_AT_decl_column(0x13)
    1347                    
    1348                    $C$DW$T$92      .dwtag  DW_TAG_typedef
    1349                            .dwattr $C$DW$T$92, DW_AT_name("__segsz_t")
    1350                            .dwattr $C$DW$T$92, DW_AT_type(*$C$DW$T$73)
    1351                            .dwattr $C$DW$T$92, DW_AT_language(DW_LANG_C)
    1352                            .dwattr $C$DW$T$92, DW_AT_decl_file("/home/pola/ti/ccsv8/tools/compiler/ti-cgt-arm_18.1.1.LTS/
    1353                            .dwattr $C$DW$T$92, DW_AT_decl_line(0x5e)
    1354                            .dwattr $C$DW$T$92, DW_AT_decl_column(0x13)
    1355                    
    1356                    $C$DW$T$93      .dwtag  DW_TAG_typedef
    1357                            .dwattr $C$DW$T$93, DW_AT_name("__ssize_t")
    1358                            .dwattr $C$DW$T$93, DW_AT_type(*$C$DW$T$73)
    1359                            .dwattr $C$DW$T$93, DW_AT_language(DW_LANG_C)
    1360                            .dwattr $C$DW$T$93, DW_AT_decl_file("/home/pola/ti/ccsv8/tools/compiler/ti-cgt-arm_18.1.1.LTS/
    1361                            .dwattr $C$DW$T$93, DW_AT_decl_line(0x60)
    1362                            .dwattr $C$DW$T$93, DW_AT_decl_column(0x13)
    1363                    
    1364                    $C$DW$T$94      .dwtag  DW_TAG_typedef
    1365                            .dwattr $C$DW$T$94, DW_AT_name("int32_t")
    1366                            .dwattr $C$DW$T$94, DW_AT_type(*$C$DW$T$73)
    1367                            .dwattr $C$DW$T$94, DW_AT_language(DW_LANG_C)
    1368                            .dwattr $C$DW$T$94, DW_AT_decl_file("/home/pola/ti/ccsv8/tools/compiler/ti-cgt-arm_18.1.1.LTS/
    1369                            .dwattr $C$DW$T$94, DW_AT_decl_line(0x2e)
    1370                            .dwattr $C$DW$T$94, DW_AT_decl_column(0x14)
    1371                    
    1372                    $C$DW$T$95      .dwtag  DW_TAG_typedef
    1373                            .dwattr $C$DW$T$95, DW_AT_name("__nl_item")
TI ARM Assembler Unix v18.1.1 Fri Jul  3 20:08:21 2020

Tools Copyright (c) 1996-2017 Texas Instruments Incorporated
Debug.asm                                                            PAGE   26

    1374                            .dwattr $C$DW$T$95, DW_AT_type(*$C$DW$T$10)
    1375                            .dwattr $C$DW$T$95, DW_AT_language(DW_LANG_C)
    1376                            .dwattr $C$DW$T$95, DW_AT_decl_file("/home/pola/ti/ccsv8/tools/compiler/ti-cgt-arm_18.1.1.LTS/
    1377                            .dwattr $C$DW$T$95, DW_AT_decl_line(0x3b)
    1378                            .dwattr $C$DW$T$95, DW_AT_decl_column(0x0e)
    1379                    
    1380                    $C$DW$T$11      .dwtag  DW_TAG_base_type
    1381                            .dwattr $C$DW$T$11, DW_AT_encoding(DW_ATE_unsigned)
    1382                            .dwattr $C$DW$T$11, DW_AT_name("unsigned int")
    1383                            .dwattr $C$DW$T$11, DW_AT_byte_size(0x04)
    1384                    
    1385                    $C$DW$T$26      .dwtag  DW_TAG_typedef
    1386                            .dwattr $C$DW$T$26, DW_AT_name("__uint32_t")
    1387                            .dwattr $C$DW$T$26, DW_AT_type(*$C$DW$T$11)
    1388                            .dwattr $C$DW$T$26, DW_AT_language(DW_LANG_C)
    1389                            .dwattr $C$DW$T$26, DW_AT_decl_file("/home/pola/ti/ccsv8/tools/compiler/ti-cgt-arm_18.1.1.LTS/
    1390                            .dwattr $C$DW$T$26, DW_AT_decl_line(0x3e)
    1391                            .dwattr $C$DW$T$26, DW_AT_decl_column(0x17)
    1392                    
    1393                    $C$DW$T$96      .dwtag  DW_TAG_typedef
    1394                            .dwattr $C$DW$T$96, DW_AT_name("__clock_t")
    1395                            .dwattr $C$DW$T$96, DW_AT_type(*$C$DW$T$26)
    1396                            .dwattr $C$DW$T$96, DW_AT_language(DW_LANG_C)
    1397                            .dwattr $C$DW$T$96, DW_AT_decl_file("/home/pola/ti/ccsv8/tools/compiler/ti-cgt-arm_18.1.1.LTS/
    1398                            .dwattr $C$DW$T$96, DW_AT_decl_line(0x4d)
    1399                            .dwattr $C$DW$T$96, DW_AT_decl_column(0x14)
    1400                    
    1401                    $C$DW$T$97      .dwtag  DW_TAG_typedef
    1402                            .dwattr $C$DW$T$97, DW_AT_name("__fflags_t")
    1403                            .dwattr $C$DW$T$97, DW_AT_type(*$C$DW$T$26)
    1404                            .dwattr $C$DW$T$97, DW_AT_language(DW_LANG_C)
    1405                            .dwattr $C$DW$T$97, DW_AT_decl_file("/home/pola/ti/ccsv8/tools/compiler/ti-cgt-arm_18.1.1.LTS/
    1406                            .dwattr $C$DW$T$97, DW_AT_decl_line(0x31)
    1407                            .dwattr $C$DW$T$97, DW_AT_decl_column(0x14)
    1408                    
    1409                    $C$DW$T$98      .dwtag  DW_TAG_typedef
    1410                            .dwattr $C$DW$T$98, DW_AT_name("__fixpt_t")
    1411                            .dwattr $C$DW$T$98, DW_AT_type(*$C$DW$T$26)
    1412                            .dwattr $C$DW$T$98, DW_AT_language(DW_LANG_C)
    1413                            .dwattr $C$DW$T$98, DW_AT_decl_file("/home/pola/ti/ccsv8/tools/compiler/ti-cgt-arm_18.1.1.LTS/
    1414                            .dwattr $C$DW$T$98, DW_AT_decl_line(0x76)
    1415                            .dwattr $C$DW$T$98, DW_AT_decl_column(0x14)
    1416                    
    1417                    $C$DW$T$99      .dwtag  DW_TAG_typedef
    1418                            .dwattr $C$DW$T$99, DW_AT_name("__gid_t")
    1419                            .dwattr $C$DW$T$99, DW_AT_type(*$C$DW$T$26)
    1420                            .dwattr $C$DW$T$99, DW_AT_language(DW_LANG_C)
    1421                            .dwattr $C$DW$T$99, DW_AT_decl_file("/home/pola/ti/ccsv8/tools/compiler/ti-cgt-arm_18.1.1.LTS/
    1422                            .dwattr $C$DW$T$99, DW_AT_decl_line(0x34)
    1423                            .dwattr $C$DW$T$99, DW_AT_decl_column(0x14)
    1424                    
    1425                    $C$DW$T$100     .dwtag  DW_TAG_typedef
    1426                            .dwattr $C$DW$T$100, DW_AT_name("__size_t")
    1427                            .dwattr $C$DW$T$100, DW_AT_type(*$C$DW$T$26)
    1428                            .dwattr $C$DW$T$100, DW_AT_language(DW_LANG_C)
TI ARM Assembler Unix v18.1.1 Fri Jul  3 20:08:21 2020

Tools Copyright (c) 1996-2017 Texas Instruments Incorporated
Debug.asm                                                            PAGE   27

    1429                            .dwattr $C$DW$T$100, DW_AT_decl_file("/home/pola/ti/ccsv8/tools/compiler/ti-cgt-arm_18.1.1.LTS
    1430                            .dwattr $C$DW$T$100, DW_AT_decl_line(0x5f)
    1431                            .dwattr $C$DW$T$100, DW_AT_decl_column(0x14)
    1432                    
    1433                    $C$DW$T$101     .dwtag  DW_TAG_typedef
    1434                            .dwattr $C$DW$T$101, DW_AT_name("__socklen_t")
    1435                            .dwattr $C$DW$T$101, DW_AT_type(*$C$DW$T$26)
    1436                            .dwattr $C$DW$T$101, DW_AT_language(DW_LANG_C)
    1437                            .dwattr $C$DW$T$101, DW_AT_decl_file("/home/pola/ti/ccsv8/tools/compiler/ti-cgt-arm_18.1.1.LTS
    1438                            .dwattr $C$DW$T$101, DW_AT_decl_line(0x44)
    1439                            .dwattr $C$DW$T$101, DW_AT_decl_column(0x14)
    1440                    
    1441                    $C$DW$T$102     .dwtag  DW_TAG_typedef
    1442                            .dwattr $C$DW$T$102, DW_AT_name("__time_t")
    1443                            .dwattr $C$DW$T$102, DW_AT_type(*$C$DW$T$26)
    1444                            .dwattr $C$DW$T$102, DW_AT_language(DW_LANG_C)
    1445                            .dwattr $C$DW$T$102, DW_AT_decl_file("/home/pola/ti/ccsv8/tools/compiler/ti-cgt-arm_18.1.1.LTS
    1446                            .dwattr $C$DW$T$102, DW_AT_decl_line(0x64)
    1447                            .dwattr $C$DW$T$102, DW_AT_decl_column(0x19)
    1448                    
    1449                    $C$DW$T$103     .dwtag  DW_TAG_typedef
    1450                            .dwattr $C$DW$T$103, DW_AT_name("__u_register_t")
    1451                            .dwattr $C$DW$T$103, DW_AT_type(*$C$DW$T$26)
    1452                            .dwattr $C$DW$T$103, DW_AT_language(DW_LANG_C)
    1453                            .dwattr $C$DW$T$103, DW_AT_decl_file("/home/pola/ti/ccsv8/tools/compiler/ti-cgt-arm_18.1.1.LTS
    1454                            .dwattr $C$DW$T$103, DW_AT_decl_line(0x71)
    1455                            .dwattr $C$DW$T$103, DW_AT_decl_column(0x14)
    1456                    
    1457                    $C$DW$T$104     .dwtag  DW_TAG_typedef
    1458                            .dwattr $C$DW$T$104, DW_AT_name("__uid_t")
    1459                            .dwattr $C$DW$T$104, DW_AT_type(*$C$DW$T$26)
    1460                            .dwattr $C$DW$T$104, DW_AT_language(DW_LANG_C)
    1461                            .dwattr $C$DW$T$104, DW_AT_decl_file("/home/pola/ti/ccsv8/tools/compiler/ti-cgt-arm_18.1.1.LTS
    1462                            .dwattr $C$DW$T$104, DW_AT_decl_line(0x48)
    1463                            .dwattr $C$DW$T$104, DW_AT_decl_column(0x14)
    1464                    
    1465                    $C$DW$T$105     .dwtag  DW_TAG_typedef
    1466                            .dwattr $C$DW$T$105, DW_AT_name("__uint_fast16_t")
    1467                            .dwattr $C$DW$T$105, DW_AT_type(*$C$DW$T$26)
    1468                            .dwattr $C$DW$T$105, DW_AT_language(DW_LANG_C)
    1469                            .dwattr $C$DW$T$105, DW_AT_decl_file("/home/pola/ti/ccsv8/tools/compiler/ti-cgt-arm_18.1.1.LTS
    1470                            .dwattr $C$DW$T$105, DW_AT_decl_line(0x6a)
    1471                            .dwattr $C$DW$T$105, DW_AT_decl_column(0x14)
    1472                    
    1473                    $C$DW$T$106     .dwtag  DW_TAG_typedef
    1474                            .dwattr $C$DW$T$106, DW_AT_name("uint_fast16_t")
    1475                            .dwattr $C$DW$T$106, DW_AT_type(*$C$DW$T$105)
    1476                            .dwattr $C$DW$T$106, DW_AT_language(DW_LANG_C)
    1477                            .dwattr $C$DW$T$106, DW_AT_decl_file("/home/pola/ti/ccsv8/tools/compiler/ti-cgt-arm_18.1.1.LTS
    1478                            .dwattr $C$DW$T$106, DW_AT_decl_line(0x38)
    1479                            .dwattr $C$DW$T$106, DW_AT_decl_column(0x1a)
    1480                    
    1481                    $C$DW$T$107     .dwtag  DW_TAG_typedef
    1482                            .dwattr $C$DW$T$107, DW_AT_name("__uint_fast32_t")
    1483                            .dwattr $C$DW$T$107, DW_AT_type(*$C$DW$T$26)
TI ARM Assembler Unix v18.1.1 Fri Jul  3 20:08:21 2020

Tools Copyright (c) 1996-2017 Texas Instruments Incorporated
Debug.asm                                                            PAGE   28

    1484                            .dwattr $C$DW$T$107, DW_AT_language(DW_LANG_C)
    1485                            .dwattr $C$DW$T$107, DW_AT_decl_file("/home/pola/ti/ccsv8/tools/compiler/ti-cgt-arm_18.1.1.LTS
    1486                            .dwattr $C$DW$T$107, DW_AT_decl_line(0x6b)
    1487                            .dwattr $C$DW$T$107, DW_AT_decl_column(0x14)
    1488                    
    1489                    $C$DW$T$108     .dwtag  DW_TAG_typedef
    1490                            .dwattr $C$DW$T$108, DW_AT_name("uint_fast32_t")
    1491                            .dwattr $C$DW$T$108, DW_AT_type(*$C$DW$T$107)
    1492                            .dwattr $C$DW$T$108, DW_AT_language(DW_LANG_C)
    1493                            .dwattr $C$DW$T$108, DW_AT_decl_file("/home/pola/ti/ccsv8/tools/compiler/ti-cgt-arm_18.1.1.LTS
    1494                            .dwattr $C$DW$T$108, DW_AT_decl_line(0x39)
    1495                            .dwattr $C$DW$T$108, DW_AT_decl_column(0x1a)
    1496                    
    1497                    $C$DW$T$109     .dwtag  DW_TAG_typedef
    1498                            .dwattr $C$DW$T$109, DW_AT_name("__uint_fast8_t")
    1499                            .dwattr $C$DW$T$109, DW_AT_type(*$C$DW$T$26)
    1500                            .dwattr $C$DW$T$109, DW_AT_language(DW_LANG_C)
    1501                            .dwattr $C$DW$T$109, DW_AT_decl_file("/home/pola/ti/ccsv8/tools/compiler/ti-cgt-arm_18.1.1.LTS
    1502                            .dwattr $C$DW$T$109, DW_AT_decl_line(0x69)
    1503                            .dwattr $C$DW$T$109, DW_AT_decl_column(0x14)
    1504                    
    1505                    $C$DW$T$110     .dwtag  DW_TAG_typedef
    1506                            .dwattr $C$DW$T$110, DW_AT_name("uint_fast8_t")
    1507                            .dwattr $C$DW$T$110, DW_AT_type(*$C$DW$T$109)
    1508                            .dwattr $C$DW$T$110, DW_AT_language(DW_LANG_C)
    1509                            .dwattr $C$DW$T$110, DW_AT_decl_file("/home/pola/ti/ccsv8/tools/compiler/ti-cgt-arm_18.1.1.LTS
    1510                            .dwattr $C$DW$T$110, DW_AT_decl_line(0x37)
    1511                            .dwattr $C$DW$T$110, DW_AT_decl_column(0x19)
    1512                    
    1513                    $C$DW$T$111     .dwtag  DW_TAG_typedef
    1514                            .dwattr $C$DW$T$111, DW_AT_name("__uint_least32_t")
    1515                            .dwattr $C$DW$T$111, DW_AT_type(*$C$DW$T$26)
    1516                            .dwattr $C$DW$T$111, DW_AT_language(DW_LANG_C)
    1517                            .dwattr $C$DW$T$111, DW_AT_decl_file("/home/pola/ti/ccsv8/tools/compiler/ti-cgt-arm_18.1.1.LTS
    1518                            .dwattr $C$DW$T$111, DW_AT_decl_line(0x6f)
    1519                            .dwattr $C$DW$T$111, DW_AT_decl_column(0x14)
    1520                    
    1521                    $C$DW$T$112     .dwtag  DW_TAG_typedef
    1522                            .dwattr $C$DW$T$112, DW_AT_name("__char32_t")
    1523                            .dwattr $C$DW$T$112, DW_AT_type(*$C$DW$T$111)
    1524                            .dwattr $C$DW$T$112, DW_AT_language(DW_LANG_C)
    1525                            .dwattr $C$DW$T$112, DW_AT_decl_file("/home/pola/ti/ccsv8/tools/compiler/ti-cgt-arm_18.1.1.LTS
    1526                            .dwattr $C$DW$T$112, DW_AT_decl_line(0x67)
    1527                            .dwattr $C$DW$T$112, DW_AT_decl_column(0x1a)
    1528                    
    1529                    $C$DW$T$113     .dwtag  DW_TAG_typedef
    1530                            .dwattr $C$DW$T$113, DW_AT_name("uint_least32_t")
    1531                            .dwattr $C$DW$T$113, DW_AT_type(*$C$DW$T$111)
    1532                            .dwattr $C$DW$T$113, DW_AT_language(DW_LANG_C)
    1533                            .dwattr $C$DW$T$113, DW_AT_decl_file("/home/pola/ti/ccsv8/tools/compiler/ti-cgt-arm_18.1.1.LTS
    1534                            .dwattr $C$DW$T$113, DW_AT_decl_line(0x2f)
    1535                            .dwattr $C$DW$T$113, DW_AT_decl_column(0x1a)
    1536                    
    1537                    $C$DW$T$114     .dwtag  DW_TAG_typedef
    1538                            .dwattr $C$DW$T$114, DW_AT_name("__uintfptr_t")
TI ARM Assembler Unix v18.1.1 Fri Jul  3 20:08:21 2020

Tools Copyright (c) 1996-2017 Texas Instruments Incorporated
Debug.asm                                                            PAGE   29

    1539                            .dwattr $C$DW$T$114, DW_AT_type(*$C$DW$T$26)
    1540                            .dwattr $C$DW$T$114, DW_AT_language(DW_LANG_C)
    1541                            .dwattr $C$DW$T$114, DW_AT_decl_file("/home/pola/ti/ccsv8/tools/compiler/ti-cgt-arm_18.1.1.LTS
    1542                            .dwattr $C$DW$T$114, DW_AT_decl_line(0x66)
    1543                            .dwattr $C$DW$T$114, DW_AT_decl_column(0x14)
    1544                    
    1545                    $C$DW$T$115     .dwtag  DW_TAG_typedef
    1546                            .dwattr $C$DW$T$115, DW_AT_name("__uintptr_t")
    1547                            .dwattr $C$DW$T$115, DW_AT_type(*$C$DW$T$26)
    1548                            .dwattr $C$DW$T$115, DW_AT_language(DW_LANG_C)
    1549                            .dwattr $C$DW$T$115, DW_AT_decl_file("/home/pola/ti/ccsv8/tools/compiler/ti-cgt-arm_18.1.1.LTS
    1550                            .dwattr $C$DW$T$115, DW_AT_decl_line(0x68)
    1551                            .dwattr $C$DW$T$115, DW_AT_decl_column(0x14)
    1552                    
    1553                    $C$DW$T$116     .dwtag  DW_TAG_typedef
    1554                            .dwattr $C$DW$T$116, DW_AT_name("uintptr_t")
    1555                            .dwattr $C$DW$T$116, DW_AT_type(*$C$DW$T$115)
    1556                            .dwattr $C$DW$T$116, DW_AT_language(DW_LANG_C)
    1557                            .dwattr $C$DW$T$116, DW_AT_decl_file("/home/pola/ti/ccsv8/tools/compiler/ti-cgt-arm_18.1.1.LTS
    1558                            .dwattr $C$DW$T$116, DW_AT_decl_line(0x50)
    1559                            .dwattr $C$DW$T$116, DW_AT_decl_column(0x16)
    1560                    
    1561                    $C$DW$T$117     .dwtag  DW_TAG_typedef
    1562                            .dwattr $C$DW$T$117, DW_AT_name("__vm_offset_t")
    1563                            .dwattr $C$DW$T$117, DW_AT_type(*$C$DW$T$26)
    1564                            .dwattr $C$DW$T$117, DW_AT_language(DW_LANG_C)
    1565                            .dwattr $C$DW$T$117, DW_AT_decl_file("/home/pola/ti/ccsv8/tools/compiler/ti-cgt-arm_18.1.1.LTS
    1566                            .dwattr $C$DW$T$117, DW_AT_decl_line(0x72)
    1567                            .dwattr $C$DW$T$117, DW_AT_decl_column(0x14)
    1568                    
    1569                    $C$DW$T$118     .dwtag  DW_TAG_typedef
    1570                            .dwattr $C$DW$T$118, DW_AT_name("__vm_paddr_t")
    1571                            .dwattr $C$DW$T$118, DW_AT_type(*$C$DW$T$26)
    1572                            .dwattr $C$DW$T$118, DW_AT_language(DW_LANG_C)
    1573                            .dwattr $C$DW$T$118, DW_AT_decl_file("/home/pola/ti/ccsv8/tools/compiler/ti-cgt-arm_18.1.1.LTS
    1574                            .dwattr $C$DW$T$118, DW_AT_decl_line(0x73)
    1575                            .dwattr $C$DW$T$118, DW_AT_decl_column(0x14)
    1576                    
    1577                    $C$DW$T$119     .dwtag  DW_TAG_typedef
    1578                            .dwattr $C$DW$T$119, DW_AT_name("__vm_size_t")
    1579                            .dwattr $C$DW$T$119, DW_AT_type(*$C$DW$T$26)
    1580                            .dwattr $C$DW$T$119, DW_AT_language(DW_LANG_C)
    1581                            .dwattr $C$DW$T$119, DW_AT_decl_file("/home/pola/ti/ccsv8/tools/compiler/ti-cgt-arm_18.1.1.LTS
    1582                            .dwattr $C$DW$T$119, DW_AT_decl_line(0x74)
    1583                            .dwattr $C$DW$T$119, DW_AT_decl_column(0x14)
    1584                    
    1585                    $C$DW$T$27      .dwtag  DW_TAG_typedef
    1586                            .dwattr $C$DW$T$27, DW_AT_name("uint32_t")
    1587                            .dwattr $C$DW$T$27, DW_AT_type(*$C$DW$T$26)
    1588                            .dwattr $C$DW$T$27, DW_AT_language(DW_LANG_C)
    1589                            .dwattr $C$DW$T$27, DW_AT_decl_file("/home/pola/ti/ccsv8/tools/compiler/ti-cgt-arm_18.1.1.LTS/
    1590                            .dwattr $C$DW$T$27, DW_AT_decl_line(0x42)
    1591                            .dwattr $C$DW$T$27, DW_AT_decl_column(0x15)
    1592                    
    1593                    $C$DW$T$120     .dwtag  DW_TAG_typedef
TI ARM Assembler Unix v18.1.1 Fri Jul  3 20:08:21 2020

Tools Copyright (c) 1996-2017 Texas Instruments Incorporated
Debug.asm                                                            PAGE   30

    1594                            .dwattr $C$DW$T$120, DW_AT_name("__useconds_t")
    1595                            .dwattr $C$DW$T$120, DW_AT_type(*$C$DW$T$11)
    1596                            .dwattr $C$DW$T$120, DW_AT_language(DW_LANG_C)
    1597                            .dwattr $C$DW$T$120, DW_AT_decl_file("/home/pola/ti/ccsv8/tools/compiler/ti-cgt-arm_18.1.1.LTS
    1598                            .dwattr $C$DW$T$120, DW_AT_decl_line(0x49)
    1599                            .dwattr $C$DW$T$120, DW_AT_decl_column(0x16)
    1600                    
    1601                    $C$DW$T$12      .dwtag  DW_TAG_base_type
    1602                            .dwattr $C$DW$T$12, DW_AT_encoding(DW_ATE_signed)
    1603                            .dwattr $C$DW$T$12, DW_AT_name("long")
    1604                            .dwattr $C$DW$T$12, DW_AT_byte_size(0x04)
    1605                    
    1606                    $C$DW$T$121     .dwtag  DW_TAG_typedef
    1607                            .dwattr $C$DW$T$121, DW_AT_name("__key_t")
    1608                            .dwattr $C$DW$T$121, DW_AT_type(*$C$DW$T$12)
    1609                            .dwattr $C$DW$T$121, DW_AT_language(DW_LANG_C)
    1610                            .dwattr $C$DW$T$121, DW_AT_decl_file("/home/pola/ti/ccsv8/tools/compiler/ti-cgt-arm_18.1.1.LTS
    1611                            .dwattr $C$DW$T$121, DW_AT_decl_line(0x37)
    1612                            .dwattr $C$DW$T$121, DW_AT_decl_column(0x0f)
    1613                    
    1614                    $C$DW$T$122     .dwtag  DW_TAG_typedef
    1615                            .dwattr $C$DW$T$122, DW_AT_name("__suseconds_t")
    1616                            .dwattr $C$DW$T$122, DW_AT_type(*$C$DW$T$12)
    1617                            .dwattr $C$DW$T$122, DW_AT_language(DW_LANG_C)
    1618                            .dwattr $C$DW$T$122, DW_AT_decl_file("/home/pola/ti/ccsv8/tools/compiler/ti-cgt-arm_18.1.1.LTS
    1619                            .dwattr $C$DW$T$122, DW_AT_decl_line(0x45)
    1620                            .dwattr $C$DW$T$122, DW_AT_decl_column(0x0f)
    1621                    
    1622                    $C$DW$T$13      .dwtag  DW_TAG_base_type
    1623                            .dwattr $C$DW$T$13, DW_AT_encoding(DW_ATE_unsigned)
    1624                            .dwattr $C$DW$T$13, DW_AT_name("unsigned long")
    1625                            .dwattr $C$DW$T$13, DW_AT_byte_size(0x04)
    1626                    
    1627                    $C$DW$T$14      .dwtag  DW_TAG_base_type
    1628                            .dwattr $C$DW$T$14, DW_AT_encoding(DW_ATE_signed)
    1629                            .dwattr $C$DW$T$14, DW_AT_name("long long")
    1630                            .dwattr $C$DW$T$14, DW_AT_byte_size(0x08)
    1631                    
    1632                    $C$DW$T$123     .dwtag  DW_TAG_typedef
    1633                            .dwattr $C$DW$T$123, DW_AT_name("__int64_t")
    1634                            .dwattr $C$DW$T$123, DW_AT_type(*$C$DW$T$14)
    1635                            .dwattr $C$DW$T$123, DW_AT_language(DW_LANG_C)
    1636                            .dwattr $C$DW$T$123, DW_AT_decl_file("/home/pola/ti/ccsv8/tools/compiler/ti-cgt-arm_18.1.1.LTS
    1637                            .dwattr $C$DW$T$123, DW_AT_decl_line(0x43)
    1638                            .dwattr $C$DW$T$123, DW_AT_decl_column(0x14)
    1639                    
    1640                    $C$DW$T$124     .dwtag  DW_TAG_typedef
    1641                            .dwattr $C$DW$T$124, DW_AT_name("__blkcnt_t")
    1642                            .dwattr $C$DW$T$124, DW_AT_type(*$C$DW$T$123)
    1643                            .dwattr $C$DW$T$124, DW_AT_language(DW_LANG_C)
    1644                            .dwattr $C$DW$T$124, DW_AT_decl_file("/home/pola/ti/ccsv8/tools/compiler/ti-cgt-arm_18.1.1.LTS
    1645                            .dwattr $C$DW$T$124, DW_AT_decl_line(0x2f)
    1646                            .dwattr $C$DW$T$124, DW_AT_decl_column(0x13)
    1647                    
    1648                    $C$DW$T$125     .dwtag  DW_TAG_typedef
TI ARM Assembler Unix v18.1.1 Fri Jul  3 20:08:21 2020

Tools Copyright (c) 1996-2017 Texas Instruments Incorporated
Debug.asm                                                            PAGE   31

    1649                            .dwattr $C$DW$T$125, DW_AT_name("__id_t")
    1650                            .dwattr $C$DW$T$125, DW_AT_type(*$C$DW$T$123)
    1651                            .dwattr $C$DW$T$125, DW_AT_language(DW_LANG_C)
    1652                            .dwattr $C$DW$T$125, DW_AT_decl_file("/home/pola/ti/ccsv8/tools/compiler/ti-cgt-arm_18.1.1.LTS
    1653                            .dwattr $C$DW$T$125, DW_AT_decl_line(0x35)
    1654                            .dwattr $C$DW$T$125, DW_AT_decl_column(0x13)
    1655                    
    1656                    $C$DW$T$126     .dwtag  DW_TAG_typedef
    1657                            .dwattr $C$DW$T$126, DW_AT_name("__int_fast64_t")
    1658                            .dwattr $C$DW$T$126, DW_AT_type(*$C$DW$T$123)
    1659                            .dwattr $C$DW$T$126, DW_AT_language(DW_LANG_C)
    1660                            .dwattr $C$DW$T$126, DW_AT_decl_file("/home/pola/ti/ccsv8/tools/compiler/ti-cgt-arm_18.1.1.LTS
    1661                            .dwattr $C$DW$T$126, DW_AT_decl_line(0x57)
    1662                            .dwattr $C$DW$T$126, DW_AT_decl_column(0x13)
    1663                    
    1664                    $C$DW$T$127     .dwtag  DW_TAG_typedef
    1665                            .dwattr $C$DW$T$127, DW_AT_name("int_fast64_t")
    1666                            .dwattr $C$DW$T$127, DW_AT_type(*$C$DW$T$126)
    1667                            .dwattr $C$DW$T$127, DW_AT_language(DW_LANG_C)
    1668                            .dwattr $C$DW$T$127, DW_AT_decl_file("/home/pola/ti/ccsv8/tools/compiler/ti-cgt-arm_18.1.1.LTS
    1669                            .dwattr $C$DW$T$127, DW_AT_decl_line(0x35)
    1670                            .dwattr $C$DW$T$127, DW_AT_decl_column(0x19)
    1671                    
    1672                    $C$DW$T$128     .dwtag  DW_TAG_typedef
    1673                            .dwattr $C$DW$T$128, DW_AT_name("__int_least64_t")
    1674                            .dwattr $C$DW$T$128, DW_AT_type(*$C$DW$T$123)
    1675                            .dwattr $C$DW$T$128, DW_AT_language(DW_LANG_C)
    1676                            .dwattr $C$DW$T$128, DW_AT_decl_file("/home/pola/ti/ccsv8/tools/compiler/ti-cgt-arm_18.1.1.LTS
    1677                            .dwattr $C$DW$T$128, DW_AT_decl_line(0x5b)
    1678                            .dwattr $C$DW$T$128, DW_AT_decl_column(0x13)
    1679                    
    1680                    $C$DW$T$129     .dwtag  DW_TAG_typedef
    1681                            .dwattr $C$DW$T$129, DW_AT_name("int_least64_t")
    1682                            .dwattr $C$DW$T$129, DW_AT_type(*$C$DW$T$128)
    1683                            .dwattr $C$DW$T$129, DW_AT_language(DW_LANG_C)
    1684                            .dwattr $C$DW$T$129, DW_AT_decl_file("/home/pola/ti/ccsv8/tools/compiler/ti-cgt-arm_18.1.1.LTS
    1685                            .dwattr $C$DW$T$129, DW_AT_decl_line(0x2b)
    1686                            .dwattr $C$DW$T$129, DW_AT_decl_column(0x1a)
    1687                    
    1688                    $C$DW$T$130     .dwtag  DW_TAG_typedef
    1689                            .dwattr $C$DW$T$130, DW_AT_name("__intmax_t")
    1690                            .dwattr $C$DW$T$130, DW_AT_type(*$C$DW$T$123)
    1691                            .dwattr $C$DW$T$130, DW_AT_language(DW_LANG_C)
    1692                            .dwattr $C$DW$T$130, DW_AT_decl_file("/home/pola/ti/ccsv8/tools/compiler/ti-cgt-arm_18.1.1.LTS
    1693                            .dwattr $C$DW$T$130, DW_AT_decl_line(0x52)
    1694                            .dwattr $C$DW$T$130, DW_AT_decl_column(0x13)
    1695                    
    1696                    $C$DW$T$131     .dwtag  DW_TAG_typedef
    1697                            .dwattr $C$DW$T$131, DW_AT_name("intmax_t")
    1698                            .dwattr $C$DW$T$131, DW_AT_type(*$C$DW$T$130)
    1699                            .dwattr $C$DW$T$131, DW_AT_language(DW_LANG_C)
    1700                            .dwattr $C$DW$T$131, DW_AT_decl_file("/home/pola/ti/ccsv8/tools/compiler/ti-cgt-arm_18.1.1.LTS
    1701                            .dwattr $C$DW$T$131, DW_AT_decl_line(0x54)
    1702                            .dwattr $C$DW$T$131, DW_AT_decl_column(0x15)
    1703                    
TI ARM Assembler Unix v18.1.1 Fri Jul  3 20:08:21 2020

Tools Copyright (c) 1996-2017 Texas Instruments Incorporated
Debug.asm                                                            PAGE   32

    1704                    $C$DW$T$132     .dwtag  DW_TAG_typedef
    1705                            .dwattr $C$DW$T$132, DW_AT_name("__off64_t")
    1706                            .dwattr $C$DW$T$132, DW_AT_type(*$C$DW$T$123)
    1707                            .dwattr $C$DW$T$132, DW_AT_language(DW_LANG_C)
    1708                            .dwattr $C$DW$T$132, DW_AT_decl_file("/home/pola/ti/ccsv8/tools/compiler/ti-cgt-arm_18.1.1.LTS
    1709                            .dwattr $C$DW$T$132, DW_AT_decl_line(0x3e)
    1710                            .dwattr $C$DW$T$132, DW_AT_decl_column(0x13)
    1711                    
    1712                    $C$DW$T$133     .dwtag  DW_TAG_typedef
    1713                            .dwattr $C$DW$T$133, DW_AT_name("__off_t")
    1714                            .dwattr $C$DW$T$133, DW_AT_type(*$C$DW$T$123)
    1715                            .dwattr $C$DW$T$133, DW_AT_language(DW_LANG_C)
    1716                            .dwattr $C$DW$T$133, DW_AT_decl_file("/home/pola/ti/ccsv8/tools/compiler/ti-cgt-arm_18.1.1.LTS
    1717                            .dwattr $C$DW$T$133, DW_AT_decl_line(0x3d)
    1718                            .dwattr $C$DW$T$133, DW_AT_decl_column(0x13)
    1719                    
    1720                    $C$DW$T$134     .dwtag  DW_TAG_typedef
    1721                            .dwattr $C$DW$T$134, DW_AT_name("__rlim_t")
    1722                            .dwattr $C$DW$T$134, DW_AT_type(*$C$DW$T$123)
    1723                            .dwattr $C$DW$T$134, DW_AT_language(DW_LANG_C)
    1724                            .dwattr $C$DW$T$134, DW_AT_decl_file("/home/pola/ti/ccsv8/tools/compiler/ti-cgt-arm_18.1.1.LTS
    1725                            .dwattr $C$DW$T$134, DW_AT_decl_line(0x40)
    1726                            .dwattr $C$DW$T$134, DW_AT_decl_column(0x13)
    1727                    
    1728                    $C$DW$T$135     .dwtag  DW_TAG_typedef
    1729                            .dwattr $C$DW$T$135, DW_AT_name("int64_t")
    1730                            .dwattr $C$DW$T$135, DW_AT_type(*$C$DW$T$123)
    1731                            .dwattr $C$DW$T$135, DW_AT_language(DW_LANG_C)
    1732                            .dwattr $C$DW$T$135, DW_AT_decl_file("/home/pola/ti/ccsv8/tools/compiler/ti-cgt-arm_18.1.1.LTS
    1733                            .dwattr $C$DW$T$135, DW_AT_decl_line(0x33)
    1734                            .dwattr $C$DW$T$135, DW_AT_decl_column(0x14)
    1735                    
    1736                    $C$DW$T$15      .dwtag  DW_TAG_base_type
    1737                            .dwattr $C$DW$T$15, DW_AT_encoding(DW_ATE_unsigned)
    1738                            .dwattr $C$DW$T$15, DW_AT_name("unsigned long long")
    1739                            .dwattr $C$DW$T$15, DW_AT_byte_size(0x08)
    1740                    
    1741                    $C$DW$T$136     .dwtag  DW_TAG_typedef
    1742                            .dwattr $C$DW$T$136, DW_AT_name("__uint64_t")
    1743                            .dwattr $C$DW$T$136, DW_AT_type(*$C$DW$T$15)
    1744                            .dwattr $C$DW$T$136, DW_AT_language(DW_LANG_C)
    1745                            .dwattr $C$DW$T$136, DW_AT_decl_file("/home/pola/ti/ccsv8/tools/compiler/ti-cgt-arm_18.1.1.LTS
    1746                            .dwattr $C$DW$T$136, DW_AT_decl_line(0x48)
    1747                            .dwattr $C$DW$T$136, DW_AT_decl_column(0x1c)
    1748                    
    1749                    $C$DW$T$137     .dwtag  DW_TAG_typedef
    1750                            .dwattr $C$DW$T$137, DW_AT_name("__dev_t")
    1751                            .dwattr $C$DW$T$137, DW_AT_type(*$C$DW$T$136)
    1752                            .dwattr $C$DW$T$137, DW_AT_language(DW_LANG_C)
    1753                            .dwattr $C$DW$T$137, DW_AT_decl_file("/home/pola/ti/ccsv8/tools/compiler/ti-cgt-arm_18.1.1.LTS
    1754                            .dwattr $C$DW$T$137, DW_AT_decl_line(0x74)
    1755                            .dwattr $C$DW$T$137, DW_AT_decl_column(0x14)
    1756                    
    1757                    $C$DW$T$138     .dwtag  DW_TAG_typedef
    1758                            .dwattr $C$DW$T$138, DW_AT_name("__fsblkcnt_t")
TI ARM Assembler Unix v18.1.1 Fri Jul  3 20:08:21 2020

Tools Copyright (c) 1996-2017 Texas Instruments Incorporated
Debug.asm                                                            PAGE   33

    1759                            .dwattr $C$DW$T$138, DW_AT_type(*$C$DW$T$136)
    1760                            .dwattr $C$DW$T$138, DW_AT_language(DW_LANG_C)
    1761                            .dwattr $C$DW$T$138, DW_AT_decl_file("/home/pola/ti/ccsv8/tools/compiler/ti-cgt-arm_18.1.1.LTS
    1762                            .dwattr $C$DW$T$138, DW_AT_decl_line(0x32)
    1763                            .dwattr $C$DW$T$138, DW_AT_decl_column(0x14)
    1764                    
    1765                    $C$DW$T$139     .dwtag  DW_TAG_typedef
    1766                            .dwattr $C$DW$T$139, DW_AT_name("__fsfilcnt_t")
    1767                            .dwattr $C$DW$T$139, DW_AT_type(*$C$DW$T$136)
    1768                            .dwattr $C$DW$T$139, DW_AT_language(DW_LANG_C)
    1769                            .dwattr $C$DW$T$139, DW_AT_decl_file("/home/pola/ti/ccsv8/tools/compiler/ti-cgt-arm_18.1.1.LTS
    1770                            .dwattr $C$DW$T$139, DW_AT_decl_line(0x33)
    1771                            .dwattr $C$DW$T$139, DW_AT_decl_column(0x14)
    1772                    
    1773                    $C$DW$T$140     .dwtag  DW_TAG_typedef
    1774                            .dwattr $C$DW$T$140, DW_AT_name("__ino_t")
    1775                            .dwattr $C$DW$T$140, DW_AT_type(*$C$DW$T$136)
    1776                            .dwattr $C$DW$T$140, DW_AT_language(DW_LANG_C)
    1777                            .dwattr $C$DW$T$140, DW_AT_decl_file("/home/pola/ti/ccsv8/tools/compiler/ti-cgt-arm_18.1.1.LTS
    1778                            .dwattr $C$DW$T$140, DW_AT_decl_line(0x36)
    1779                            .dwattr $C$DW$T$140, DW_AT_decl_column(0x14)
    1780                    
    1781                    $C$DW$T$141     .dwtag  DW_TAG_typedef
    1782                            .dwattr $C$DW$T$141, DW_AT_name("__nlink_t")
    1783                            .dwattr $C$DW$T$141, DW_AT_type(*$C$DW$T$136)
    1784                            .dwattr $C$DW$T$141, DW_AT_language(DW_LANG_C)
    1785                            .dwattr $C$DW$T$141, DW_AT_decl_file("/home/pola/ti/ccsv8/tools/compiler/ti-cgt-arm_18.1.1.LTS
    1786                            .dwattr $C$DW$T$141, DW_AT_decl_line(0x3c)
    1787                            .dwattr $C$DW$T$141, DW_AT_decl_column(0x14)
    1788                    
    1789                    $C$DW$T$142     .dwtag  DW_TAG_typedef
    1790                            .dwattr $C$DW$T$142, DW_AT_name("__uint_fast64_t")
    1791                            .dwattr $C$DW$T$142, DW_AT_type(*$C$DW$T$136)
    1792                            .dwattr $C$DW$T$142, DW_AT_language(DW_LANG_C)
    1793                            .dwattr $C$DW$T$142, DW_AT_decl_file("/home/pola/ti/ccsv8/tools/compiler/ti-cgt-arm_18.1.1.LTS
    1794                            .dwattr $C$DW$T$142, DW_AT_decl_line(0x6c)
    1795                            .dwattr $C$DW$T$142, DW_AT_decl_column(0x14)
    1796                    
    1797                    $C$DW$T$143     .dwtag  DW_TAG_typedef
    1798                            .dwattr $C$DW$T$143, DW_AT_name("uint_fast64_t")
    1799                            .dwattr $C$DW$T$143, DW_AT_type(*$C$DW$T$142)
    1800                            .dwattr $C$DW$T$143, DW_AT_language(DW_LANG_C)
    1801                            .dwattr $C$DW$T$143, DW_AT_decl_file("/home/pola/ti/ccsv8/tools/compiler/ti-cgt-arm_18.1.1.LTS
    1802                            .dwattr $C$DW$T$143, DW_AT_decl_line(0x3a)
    1803                            .dwattr $C$DW$T$143, DW_AT_decl_column(0x1a)
    1804                    
    1805                    $C$DW$T$144     .dwtag  DW_TAG_typedef
    1806                            .dwattr $C$DW$T$144, DW_AT_name("__uint_least64_t")
    1807                            .dwattr $C$DW$T$144, DW_AT_type(*$C$DW$T$136)
    1808                            .dwattr $C$DW$T$144, DW_AT_language(DW_LANG_C)
    1809                            .dwattr $C$DW$T$144, DW_AT_decl_file("/home/pola/ti/ccsv8/tools/compiler/ti-cgt-arm_18.1.1.LTS
    1810                            .dwattr $C$DW$T$144, DW_AT_decl_line(0x70)
    1811                            .dwattr $C$DW$T$144, DW_AT_decl_column(0x14)
    1812                    
    1813                    $C$DW$T$145     .dwtag  DW_TAG_typedef
TI ARM Assembler Unix v18.1.1 Fri Jul  3 20:08:21 2020

Tools Copyright (c) 1996-2017 Texas Instruments Incorporated
Debug.asm                                                            PAGE   34

    1814                            .dwattr $C$DW$T$145, DW_AT_name("uint_least64_t")
    1815                            .dwattr $C$DW$T$145, DW_AT_type(*$C$DW$T$144)
    1816                            .dwattr $C$DW$T$145, DW_AT_language(DW_LANG_C)
    1817                            .dwattr $C$DW$T$145, DW_AT_decl_file("/home/pola/ti/ccsv8/tools/compiler/ti-cgt-arm_18.1.1.LTS
    1818                            .dwattr $C$DW$T$145, DW_AT_decl_line(0x30)
    1819                            .dwattr $C$DW$T$145, DW_AT_decl_column(0x1a)
    1820                    
    1821                    $C$DW$T$146     .dwtag  DW_TAG_typedef
    1822                            .dwattr $C$DW$T$146, DW_AT_name("__uintmax_t")
    1823                            .dwattr $C$DW$T$146, DW_AT_type(*$C$DW$T$136)
    1824                            .dwattr $C$DW$T$146, DW_AT_language(DW_LANG_C)
    1825                            .dwattr $C$DW$T$146, DW_AT_decl_file("/home/pola/ti/ccsv8/tools/compiler/ti-cgt-arm_18.1.1.LTS
    1826                            .dwattr $C$DW$T$146, DW_AT_decl_line(0x67)
    1827                            .dwattr $C$DW$T$146, DW_AT_decl_column(0x14)
    1828                    
    1829                    $C$DW$T$147     .dwtag  DW_TAG_typedef
    1830                            .dwattr $C$DW$T$147, DW_AT_name("__rman_res_t")
    1831                            .dwattr $C$DW$T$147, DW_AT_type(*$C$DW$T$146)
    1832                            .dwattr $C$DW$T$147, DW_AT_language(DW_LANG_C)
    1833                            .dwattr $C$DW$T$147, DW_AT_decl_file("/home/pola/ti/ccsv8/tools/compiler/ti-cgt-arm_18.1.1.LTS
    1834                            .dwattr $C$DW$T$147, DW_AT_decl_line(0x8f)
    1835                            .dwattr $C$DW$T$147, DW_AT_decl_column(0x19)
    1836                    
    1837                    $C$DW$T$148     .dwtag  DW_TAG_typedef
    1838                            .dwattr $C$DW$T$148, DW_AT_name("uintmax_t")
    1839                            .dwattr $C$DW$T$148, DW_AT_type(*$C$DW$T$146)
    1840                            .dwattr $C$DW$T$148, DW_AT_language(DW_LANG_C)
    1841                            .dwattr $C$DW$T$148, DW_AT_decl_file("/home/pola/ti/ccsv8/tools/compiler/ti-cgt-arm_18.1.1.LTS
    1842                            .dwattr $C$DW$T$148, DW_AT_decl_line(0x58)
    1843                            .dwattr $C$DW$T$148, DW_AT_decl_column(0x16)
    1844                    
    1845                    $C$DW$T$149     .dwtag  DW_TAG_typedef
    1846                            .dwattr $C$DW$T$149, DW_AT_name("uint64_t")
    1847                            .dwattr $C$DW$T$149, DW_AT_type(*$C$DW$T$136)
    1848                            .dwattr $C$DW$T$149, DW_AT_language(DW_LANG_C)
    1849                            .dwattr $C$DW$T$149, DW_AT_decl_file("/home/pola/ti/ccsv8/tools/compiler/ti-cgt-arm_18.1.1.LTS
    1850                            .dwattr $C$DW$T$149, DW_AT_decl_line(0x47)
    1851                            .dwattr $C$DW$T$149, DW_AT_decl_column(0x15)
    1852                    
    1853                    $C$DW$T$16      .dwtag  DW_TAG_base_type
    1854                            .dwattr $C$DW$T$16, DW_AT_encoding(DW_ATE_float)
    1855                            .dwattr $C$DW$T$16, DW_AT_name("float")
    1856                            .dwattr $C$DW$T$16, DW_AT_byte_size(0x04)
    1857                    
    1858                    $C$DW$T$150     .dwtag  DW_TAG_typedef
    1859                            .dwattr $C$DW$T$150, DW_AT_name("__float_t")
    1860                            .dwattr $C$DW$T$150, DW_AT_type(*$C$DW$T$16)
    1861                            .dwattr $C$DW$T$150, DW_AT_language(DW_LANG_C)
    1862                            .dwattr $C$DW$T$150, DW_AT_decl_file("/home/pola/ti/ccsv8/tools/compiler/ti-cgt-arm_18.1.1.LTS
    1863                            .dwattr $C$DW$T$150, DW_AT_decl_line(0x50)
    1864                            .dwattr $C$DW$T$150, DW_AT_decl_column(0x10)
    1865                    
    1866                    $C$DW$T$17      .dwtag  DW_TAG_base_type
    1867                            .dwattr $C$DW$T$17, DW_AT_encoding(DW_ATE_float)
    1868                            .dwattr $C$DW$T$17, DW_AT_name("double")
TI ARM Assembler Unix v18.1.1 Fri Jul  3 20:08:21 2020

Tools Copyright (c) 1996-2017 Texas Instruments Incorporated
Debug.asm                                                            PAGE   35

    1869                            .dwattr $C$DW$T$17, DW_AT_byte_size(0x08)
    1870                    
    1871                    $C$DW$T$151     .dwtag  DW_TAG_typedef
    1872                            .dwattr $C$DW$T$151, DW_AT_name("__double_t")
    1873                            .dwattr $C$DW$T$151, DW_AT_type(*$C$DW$T$17)
    1874                            .dwattr $C$DW$T$151, DW_AT_language(DW_LANG_C)
    1875                            .dwattr $C$DW$T$151, DW_AT_decl_file("/home/pola/ti/ccsv8/tools/compiler/ti-cgt-arm_18.1.1.LTS
    1876                            .dwattr $C$DW$T$151, DW_AT_decl_line(0x4f)
    1877                            .dwattr $C$DW$T$151, DW_AT_decl_column(0x11)
    1878                    
    1879                    $C$DW$T$18      .dwtag  DW_TAG_base_type
    1880                            .dwattr $C$DW$T$18, DW_AT_encoding(DW_ATE_float)
    1881                            .dwattr $C$DW$T$18, DW_AT_name("long double")
    1882                            .dwattr $C$DW$T$18, DW_AT_byte_size(0x08)
    1883                    
    1884                    $C$DW$T$40      .dwtag  DW_TAG_pointer_type
    1885                            .dwattr $C$DW$T$40, DW_AT_type(*$C$DW$T$6)
    1886                            .dwattr $C$DW$T$40, DW_AT_address_class(0x20)
    1887                    
    1888                    
    1889                    $C$DW$T$152     .dwtag  DW_TAG_array_type
    1890                            .dwattr $C$DW$T$152, DW_AT_type(*$C$DW$T$6)
    1891                            .dwattr $C$DW$T$152, DW_AT_language(DW_LANG_C)
    1892                            .dwattr $C$DW$T$152, DW_AT_byte_size(0x64)
    1893                    $C$DW$59        .dwtag  DW_TAG_subrange_type
    1894                            .dwattr $C$DW$59, DW_AT_upper_bound(0x63)
    1895                    
    1896                            .dwendtag $C$DW$T$152
    1897                    
    1898                    
    1899                    $C$DW$T$19      .dwtag  DW_TAG_structure_type
    1900                            .dwattr $C$DW$T$19, DW_AT_name("__mq")
    1901                            .dwattr $C$DW$T$19, DW_AT_declaration
    1902                            .dwattr $C$DW$T$19, DW_AT_decl_file("/home/pola/ti/ccsv8/tools/compiler/ti-cgt-arm_18.1.1.LTS/
    1903                            .dwattr $C$DW$T$19, DW_AT_decl_line(0x47)
    1904                            .dwattr $C$DW$T$19, DW_AT_decl_column(0x10)
    1905                            .dwendtag $C$DW$T$19
    1906                    
    1907                    $C$DW$T$154     .dwtag  DW_TAG_pointer_type
    1908                            .dwattr $C$DW$T$154, DW_AT_type(*$C$DW$T$19)
    1909                            .dwattr $C$DW$T$154, DW_AT_address_class(0x20)
    1910                    
    1911                    $C$DW$T$155     .dwtag  DW_TAG_typedef
    1912                            .dwattr $C$DW$T$155, DW_AT_name("__mqd_t")
    1913                            .dwattr $C$DW$T$155, DW_AT_type(*$C$DW$T$154)
    1914                            .dwattr $C$DW$T$155, DW_AT_language(DW_LANG_C)
    1915                            .dwattr $C$DW$T$155, DW_AT_decl_file("/home/pola/ti/ccsv8/tools/compiler/ti-cgt-arm_18.1.1.LTS
    1916                            .dwattr $C$DW$T$155, DW_AT_decl_line(0x47)
    1917                            .dwattr $C$DW$T$155, DW_AT_decl_column(0x16)
    1918                    
    1919                    
    1920                    $C$DW$T$20      .dwtag  DW_TAG_structure_type
    1921                            .dwattr $C$DW$T$20, DW_AT_name("__timer")
    1922                            .dwattr $C$DW$T$20, DW_AT_declaration
    1923                            .dwattr $C$DW$T$20, DW_AT_decl_file("/home/pola/ti/ccsv8/tools/compiler/ti-cgt-arm_18.1.1.LTS/
TI ARM Assembler Unix v18.1.1 Fri Jul  3 20:08:21 2020

Tools Copyright (c) 1996-2017 Texas Instruments Incorporated
Debug.asm                                                            PAGE   36

    1924                            .dwattr $C$DW$T$20, DW_AT_decl_line(0x46)
    1925                            .dwattr $C$DW$T$20, DW_AT_decl_column(0x10)
    1926                            .dwendtag $C$DW$T$20
    1927                    
    1928                    $C$DW$T$156     .dwtag  DW_TAG_pointer_type
    1929                            .dwattr $C$DW$T$156, DW_AT_type(*$C$DW$T$20)
    1930                            .dwattr $C$DW$T$156, DW_AT_address_class(0x20)
    1931                    
    1932                    $C$DW$T$157     .dwtag  DW_TAG_typedef
    1933                            .dwattr $C$DW$T$157, DW_AT_name("__timer_t")
    1934                            .dwattr $C$DW$T$157, DW_AT_type(*$C$DW$T$156)
    1935                            .dwattr $C$DW$T$157, DW_AT_language(DW_LANG_C)
    1936                            .dwattr $C$DW$T$157, DW_AT_decl_file("/home/pola/ti/ccsv8/tools/compiler/ti-cgt-arm_18.1.1.LTS
    1937                            .dwattr $C$DW$T$157, DW_AT_decl_line(0x46)
    1938                            .dwattr $C$DW$T$157, DW_AT_decl_column(0x19)
    1939                    
    1940                    
    1941                    $C$DW$T$22      .dwtag  DW_TAG_structure_type
    1942                            .dwattr $C$DW$T$22, DW_AT_name("__va_list_t")
    1943                            .dwattr $C$DW$T$22, DW_AT_byte_size(0x04)
    1944                    $C$DW$60        .dwtag  DW_TAG_member
    1945                            .dwattr $C$DW$60, DW_AT_type(*$C$DW$T$3)
    1946                            .dwattr $C$DW$60, DW_AT_name("__ap")
    1947                            .dwattr $C$DW$60, DW_AT_TI_symbol_name("__ap")
    1948                            .dwattr $C$DW$60, DW_AT_data_member_location[DW_OP_plus_uconst 0x0]
    1949                            .dwattr $C$DW$60, DW_AT_accessibility(DW_ACCESS_public)
    1950                            .dwattr $C$DW$60, DW_AT_decl_file("/home/pola/ti/ccsv8/tools/compiler/ti-cgt-arm_18.1.1.LTS/in
    1951                            .dwattr $C$DW$60, DW_AT_decl_line(0x88)
    1952                            .dwattr $C$DW$60, DW_AT_decl_column(0x0c)
    1953                    
    1954                            .dwattr $C$DW$T$22, DW_AT_decl_file("/home/pola/ti/ccsv8/tools/compiler/ti-cgt-arm_18.1.1.LTS/
    1955                            .dwattr $C$DW$T$22, DW_AT_decl_line(0x87)
    1956                            .dwattr $C$DW$T$22, DW_AT_decl_column(0x10)
    1957                            .dwendtag $C$DW$T$22
    1958                    
    1959                    $C$DW$T$158     .dwtag  DW_TAG_typedef
    1960                            .dwattr $C$DW$T$158, DW_AT_name("__va_list")
    1961                            .dwattr $C$DW$T$158, DW_AT_type(*$C$DW$T$22)
    1962                            .dwattr $C$DW$T$158, DW_AT_language(DW_LANG_C)
    1963                            .dwattr $C$DW$T$158, DW_AT_decl_file("/home/pola/ti/ccsv8/tools/compiler/ti-cgt-arm_18.1.1.LTS
    1964                            .dwattr $C$DW$T$158, DW_AT_decl_line(0x89)
    1965                            .dwattr $C$DW$T$158, DW_AT_decl_column(0x03)
    1966                    
    1967                            .dwattr $C$DW$CU, DW_AT_language(DW_LANG_C)
    1968                    
    1969                    ;***************************************************************
    1970                    ;* DWARF CIE ENTRIES                                           *
    1971                    ;***************************************************************
    1972                    
    1973                    $C$DW$CIE       .dwcie 14
    1974                            .dwcfi  cfa_register, 13
    1975                            .dwcfi  cfa_offset, 0
    1976                            .dwcfi  same_value, 4
    1977                            .dwcfi  same_value, 5
    1978                            .dwcfi  same_value, 6
TI ARM Assembler Unix v18.1.1 Fri Jul  3 20:08:21 2020

Tools Copyright (c) 1996-2017 Texas Instruments Incorporated
Debug.asm                                                            PAGE   37

    1979                            .dwcfi  same_value, 7
    1980                            .dwcfi  same_value, 8
    1981                            .dwcfi  same_value, 9
    1982                            .dwcfi  same_value, 10
    1983                            .dwcfi  same_value, 11
    1984                            .dwcfi  same_value, 80
    1985                            .dwcfi  same_value, 81
    1986                            .dwcfi  same_value, 82
    1987                            .dwcfi  same_value, 83
    1988                            .dwcfi  same_value, 84
    1989                            .dwcfi  same_value, 85
    1990                            .dwcfi  same_value, 86
    1991                            .dwcfi  same_value, 87
    1992                            .dwcfi  same_value, 88
    1993                            .dwcfi  same_value, 89
    1994                            .dwcfi  same_value, 90
    1995                            .dwcfi  same_value, 91
    1996                            .dwcfi  same_value, 92
    1997                            .dwcfi  same_value, 93
    1998                            .dwcfi  same_value, 94
    1999                            .dwcfi  same_value, 95
    2000                            .dwendentry
    2001                    
    2002                    ;***************************************************************
    2003                    ;* DWARF REGISTER MAP                                          *
    2004                    ;***************************************************************
    2005                    
    2006                    $C$DW$61        .dwtag  DW_TAG_TI_assign_register
    2007                            .dwattr $C$DW$61, DW_AT_name("A1")
    2008                            .dwattr $C$DW$61, DW_AT_location[DW_OP_reg0]
    2009                    
    2010                    $C$DW$62        .dwtag  DW_TAG_TI_assign_register
    2011                            .dwattr $C$DW$62, DW_AT_name("A2")
    2012                            .dwattr $C$DW$62, DW_AT_location[DW_OP_reg1]
    2013                    
    2014                    $C$DW$63        .dwtag  DW_TAG_TI_assign_register
    2015                            .dwattr $C$DW$63, DW_AT_name("A3")
    2016                            .dwattr $C$DW$63, DW_AT_location[DW_OP_reg2]
    2017                    
    2018                    $C$DW$64        .dwtag  DW_TAG_TI_assign_register
    2019                            .dwattr $C$DW$64, DW_AT_name("A4")
    2020                            .dwattr $C$DW$64, DW_AT_location[DW_OP_reg3]
    2021                    
    2022                    $C$DW$65        .dwtag  DW_TAG_TI_assign_register
    2023                            .dwattr $C$DW$65, DW_AT_name("V1")
    2024                            .dwattr $C$DW$65, DW_AT_location[DW_OP_reg4]
    2025                    
    2026                    $C$DW$66        .dwtag  DW_TAG_TI_assign_register
    2027                            .dwattr $C$DW$66, DW_AT_name("V2")
    2028                            .dwattr $C$DW$66, DW_AT_location[DW_OP_reg5]
    2029                    
    2030                    $C$DW$67        .dwtag  DW_TAG_TI_assign_register
    2031                            .dwattr $C$DW$67, DW_AT_name("V3")
    2032                            .dwattr $C$DW$67, DW_AT_location[DW_OP_reg6]
    2033                    
TI ARM Assembler Unix v18.1.1 Fri Jul  3 20:08:21 2020

Tools Copyright (c) 1996-2017 Texas Instruments Incorporated
Debug.asm                                                            PAGE   38

    2034                    $C$DW$68        .dwtag  DW_TAG_TI_assign_register
    2035                            .dwattr $C$DW$68, DW_AT_name("V4")
    2036                            .dwattr $C$DW$68, DW_AT_location[DW_OP_reg7]
    2037                    
    2038                    $C$DW$69        .dwtag  DW_TAG_TI_assign_register
    2039                            .dwattr $C$DW$69, DW_AT_name("V5")
    2040                            .dwattr $C$DW$69, DW_AT_location[DW_OP_reg8]
    2041                    
    2042                    $C$DW$70        .dwtag  DW_TAG_TI_assign_register
    2043                            .dwattr $C$DW$70, DW_AT_name("V6")
    2044                            .dwattr $C$DW$70, DW_AT_location[DW_OP_reg9]
    2045                    
    2046                    $C$DW$71        .dwtag  DW_TAG_TI_assign_register
    2047                            .dwattr $C$DW$71, DW_AT_name("V7")
    2048                            .dwattr $C$DW$71, DW_AT_location[DW_OP_reg10]
    2049                    
    2050                    $C$DW$72        .dwtag  DW_TAG_TI_assign_register
    2051                            .dwattr $C$DW$72, DW_AT_name("V8")
    2052                            .dwattr $C$DW$72, DW_AT_location[DW_OP_reg11]
    2053                    
    2054                    $C$DW$73        .dwtag  DW_TAG_TI_assign_register
    2055                            .dwattr $C$DW$73, DW_AT_name("V9")
    2056                            .dwattr $C$DW$73, DW_AT_location[DW_OP_reg12]
    2057                    
    2058                    $C$DW$74        .dwtag  DW_TAG_TI_assign_register
    2059                            .dwattr $C$DW$74, DW_AT_name("SP")
    2060                            .dwattr $C$DW$74, DW_AT_location[DW_OP_reg13]
    2061                    
    2062                    $C$DW$75        .dwtag  DW_TAG_TI_assign_register
    2063                            .dwattr $C$DW$75, DW_AT_name("LR")
    2064                            .dwattr $C$DW$75, DW_AT_location[DW_OP_reg14]
    2065                    
    2066                    $C$DW$76        .dwtag  DW_TAG_TI_assign_register
    2067                            .dwattr $C$DW$76, DW_AT_name("PC")
    2068                            .dwattr $C$DW$76, DW_AT_location[DW_OP_reg15]
    2069                    
    2070                    $C$DW$77        .dwtag  DW_TAG_TI_assign_register
    2071                            .dwattr $C$DW$77, DW_AT_name("SR")
    2072                            .dwattr $C$DW$77, DW_AT_location[DW_OP_reg17]
    2073                    
    2074                    $C$DW$78        .dwtag  DW_TAG_TI_assign_register
    2075                            .dwattr $C$DW$78, DW_AT_name("AP")
    2076                            .dwattr $C$DW$78, DW_AT_location[DW_OP_reg7]
    2077                    
    2078                    $C$DW$79        .dwtag  DW_TAG_TI_assign_register
    2079                            .dwattr $C$DW$79, DW_AT_name("D0")
    2080                            .dwattr $C$DW$79, DW_AT_location[DW_OP_regx 0x40]
    2081                    
    2082                    $C$DW$80        .dwtag  DW_TAG_TI_assign_register
    2083                            .dwattr $C$DW$80, DW_AT_name("D0_hi")
    2084                            .dwattr $C$DW$80, DW_AT_location[DW_OP_regx 0x41]
    2085                    
    2086                    $C$DW$81        .dwtag  DW_TAG_TI_assign_register
    2087                            .dwattr $C$DW$81, DW_AT_name("D1")
    2088                            .dwattr $C$DW$81, DW_AT_location[DW_OP_regx 0x42]
TI ARM Assembler Unix v18.1.1 Fri Jul  3 20:08:21 2020

Tools Copyright (c) 1996-2017 Texas Instruments Incorporated
Debug.asm                                                            PAGE   39

    2089                    
    2090                    $C$DW$82        .dwtag  DW_TAG_TI_assign_register
    2091                            .dwattr $C$DW$82, DW_AT_name("D1_hi")
    2092                            .dwattr $C$DW$82, DW_AT_location[DW_OP_regx 0x43]
    2093                    
    2094                    $C$DW$83        .dwtag  DW_TAG_TI_assign_register
    2095                            .dwattr $C$DW$83, DW_AT_name("D2")
    2096                            .dwattr $C$DW$83, DW_AT_location[DW_OP_regx 0x44]
    2097                    
    2098                    $C$DW$84        .dwtag  DW_TAG_TI_assign_register
    2099                            .dwattr $C$DW$84, DW_AT_name("D2_hi")
    2100                            .dwattr $C$DW$84, DW_AT_location[DW_OP_regx 0x45]
    2101                    
    2102                    $C$DW$85        .dwtag  DW_TAG_TI_assign_register
    2103                            .dwattr $C$DW$85, DW_AT_name("D3")
    2104                            .dwattr $C$DW$85, DW_AT_location[DW_OP_regx 0x46]
    2105                    
    2106                    $C$DW$86        .dwtag  DW_TAG_TI_assign_register
    2107                            .dwattr $C$DW$86, DW_AT_name("D3_hi")
    2108                            .dwattr $C$DW$86, DW_AT_location[DW_OP_regx 0x47]
    2109                    
    2110                    $C$DW$87        .dwtag  DW_TAG_TI_assign_register
    2111                            .dwattr $C$DW$87, DW_AT_name("D4")
    2112                            .dwattr $C$DW$87, DW_AT_location[DW_OP_regx 0x48]
    2113                    
    2114                    $C$DW$88        .dwtag  DW_TAG_TI_assign_register
    2115                            .dwattr $C$DW$88, DW_AT_name("D4_hi")
    2116                            .dwattr $C$DW$88, DW_AT_location[DW_OP_regx 0x49]
    2117                    
    2118                    $C$DW$89        .dwtag  DW_TAG_TI_assign_register
    2119                            .dwattr $C$DW$89, DW_AT_name("D5")
    2120                            .dwattr $C$DW$89, DW_AT_location[DW_OP_regx 0x4a]
    2121                    
    2122                    $C$DW$90        .dwtag  DW_TAG_TI_assign_register
    2123                            .dwattr $C$DW$90, DW_AT_name("D5_hi")
    2124                            .dwattr $C$DW$90, DW_AT_location[DW_OP_regx 0x4b]
    2125                    
    2126                    $C$DW$91        .dwtag  DW_TAG_TI_assign_register
    2127                            .dwattr $C$DW$91, DW_AT_name("D6")
    2128                            .dwattr $C$DW$91, DW_AT_location[DW_OP_regx 0x4c]
    2129                    
    2130                    $C$DW$92        .dwtag  DW_TAG_TI_assign_register
    2131                            .dwattr $C$DW$92, DW_AT_name("D6_hi")
    2132                            .dwattr $C$DW$92, DW_AT_location[DW_OP_regx 0x4d]
    2133                    
    2134                    $C$DW$93        .dwtag  DW_TAG_TI_assign_register
    2135                            .dwattr $C$DW$93, DW_AT_name("D7")
    2136                            .dwattr $C$DW$93, DW_AT_location[DW_OP_regx 0x4e]
    2137                    
    2138                    $C$DW$94        .dwtag  DW_TAG_TI_assign_register
    2139                            .dwattr $C$DW$94, DW_AT_name("D7_hi")
    2140                            .dwattr $C$DW$94, DW_AT_location[DW_OP_regx 0x4f]
    2141                    
    2142                    $C$DW$95        .dwtag  DW_TAG_TI_assign_register
    2143                            .dwattr $C$DW$95, DW_AT_name("D8")
TI ARM Assembler Unix v18.1.1 Fri Jul  3 20:08:21 2020

Tools Copyright (c) 1996-2017 Texas Instruments Incorporated
Debug.asm                                                            PAGE   40

    2144                            .dwattr $C$DW$95, DW_AT_location[DW_OP_regx 0x50]
    2145                    
    2146                    $C$DW$96        .dwtag  DW_TAG_TI_assign_register
    2147                            .dwattr $C$DW$96, DW_AT_name("D8_hi")
    2148                            .dwattr $C$DW$96, DW_AT_location[DW_OP_regx 0x51]
    2149                    
    2150                    $C$DW$97        .dwtag  DW_TAG_TI_assign_register
    2151                            .dwattr $C$DW$97, DW_AT_name("D9")
    2152                            .dwattr $C$DW$97, DW_AT_location[DW_OP_regx 0x52]
    2153                    
    2154                    $C$DW$98        .dwtag  DW_TAG_TI_assign_register
    2155                            .dwattr $C$DW$98, DW_AT_name("D9_hi")
    2156                            .dwattr $C$DW$98, DW_AT_location[DW_OP_regx 0x53]
    2157                    
    2158                    $C$DW$99        .dwtag  DW_TAG_TI_assign_register
    2159                            .dwattr $C$DW$99, DW_AT_name("D10")
    2160                            .dwattr $C$DW$99, DW_AT_location[DW_OP_regx 0x54]
    2161                    
    2162                    $C$DW$100       .dwtag  DW_TAG_TI_assign_register
    2163                            .dwattr $C$DW$100, DW_AT_name("D10_hi")
    2164                            .dwattr $C$DW$100, DW_AT_location[DW_OP_regx 0x55]
    2165                    
    2166                    $C$DW$101       .dwtag  DW_TAG_TI_assign_register
    2167                            .dwattr $C$DW$101, DW_AT_name("D11")
    2168                            .dwattr $C$DW$101, DW_AT_location[DW_OP_regx 0x56]
    2169                    
    2170                    $C$DW$102       .dwtag  DW_TAG_TI_assign_register
    2171                            .dwattr $C$DW$102, DW_AT_name("D11_hi")
    2172                            .dwattr $C$DW$102, DW_AT_location[DW_OP_regx 0x57]
    2173                    
    2174                    $C$DW$103       .dwtag  DW_TAG_TI_assign_register
    2175                            .dwattr $C$DW$103, DW_AT_name("D12")
    2176                            .dwattr $C$DW$103, DW_AT_location[DW_OP_regx 0x58]
    2177                    
    2178                    $C$DW$104       .dwtag  DW_TAG_TI_assign_register
    2179                            .dwattr $C$DW$104, DW_AT_name("D12_hi")
    2180                            .dwattr $C$DW$104, DW_AT_location[DW_OP_regx 0x59]
    2181                    
    2182                    $C$DW$105       .dwtag  DW_TAG_TI_assign_register
    2183                            .dwattr $C$DW$105, DW_AT_name("D13")
    2184                            .dwattr $C$DW$105, DW_AT_location[DW_OP_regx 0x5a]
    2185                    
    2186                    $C$DW$106       .dwtag  DW_TAG_TI_assign_register
    2187                            .dwattr $C$DW$106, DW_AT_name("D13_hi")
    2188                            .dwattr $C$DW$106, DW_AT_location[DW_OP_regx 0x5b]
    2189                    
    2190                    $C$DW$107       .dwtag  DW_TAG_TI_assign_register
    2191                            .dwattr $C$DW$107, DW_AT_name("D14")
    2192                            .dwattr $C$DW$107, DW_AT_location[DW_OP_regx 0x5c]
    2193                    
    2194                    $C$DW$108       .dwtag  DW_TAG_TI_assign_register
    2195                            .dwattr $C$DW$108, DW_AT_name("D14_hi")
    2196                            .dwattr $C$DW$108, DW_AT_location[DW_OP_regx 0x5d]
    2197                    
    2198                    $C$DW$109       .dwtag  DW_TAG_TI_assign_register
TI ARM Assembler Unix v18.1.1 Fri Jul  3 20:08:21 2020

Tools Copyright (c) 1996-2017 Texas Instruments Incorporated
Debug.asm                                                            PAGE   41

    2199                            .dwattr $C$DW$109, DW_AT_name("D15")
    2200                            .dwattr $C$DW$109, DW_AT_location[DW_OP_regx 0x5e]
    2201                    
    2202                    $C$DW$110       .dwtag  DW_TAG_TI_assign_register
    2203                            .dwattr $C$DW$110, DW_AT_name("D15_hi")
    2204                            .dwattr $C$DW$110, DW_AT_location[DW_OP_regx 0x5f]
    2205                    
    2206                    $C$DW$111       .dwtag  DW_TAG_TI_assign_register
    2207                            .dwattr $C$DW$111, DW_AT_name("FPEXC")
    2208                            .dwattr $C$DW$111, DW_AT_location[DW_OP_reg18]
    2209                    
    2210                    $C$DW$112       .dwtag  DW_TAG_TI_assign_register
    2211                            .dwattr $C$DW$112, DW_AT_name("FPSCR")
    2212                            .dwattr $C$DW$112, DW_AT_location[DW_OP_reg19]
    2213                    
    2214                            .dwendtag $C$DW$CU
    2215                    

--------------------------
Thumb2 Statistics
--------------------------
Number of Thumb2 ins converted to Thumb = 0 (0%)
Number of Thumb ins in input = 123 (70%)
Number of Thumb2 ins encoded as Thumb2 = 52 (100%)
Number of Thumb2 ins converted to 2 OPND Thumb = 4


No Assembly Errors, No Assembly Warnings
