TI ARM Assembler Unix v18.1.1 Fri Jul  3 20:08:22 2020

Tools Copyright (c) 1996-2017 Texas Instruments Incorporated
main.asm                                                             PAGE    1

       1                    ;******************************************************************************
       2                    ;* TI ARM C/C++ Codegen                                      Unix v18.1.1.LTS *
       3                    ;* Date/Time created: Fri Jul  3 20:08:22 2020                                *
       4                    ;******************************************************************************
       5                            .compiler_opts --abi=eabi --arm_vmrs_si_workaround=off --code_state=16 --diag_wrap=off --embed
       6 00000000                   .thumb
       7                    
       8                    $C$DW$CU        .dwtag  DW_TAG_compile_unit
       9                            .dwattr $C$DW$CU, DW_AT_name("../main.c")
      10                            .dwattr $C$DW$CU, DW_AT_producer("TI TI ARM C/C++ Codegen Unix v18.1.1.LTS Copyright (c) 1996-
      11                            .dwattr $C$DW$CU, DW_AT_TI_version(0x01)
      12                            .dwattr $C$DW$CU, DW_AT_comp_dir("/home/pola/workspace_v8/Microwave/Debug")
      13 00000000           Startup_TCB:    .usect  ".bss:Startup_TCB",88,4
      14                            .clink ".bss:Startup_TCB"
      15                    $C$DW$1 .dwtag  DW_TAG_variable
      16                            .dwattr $C$DW$1, DW_AT_name("Startup_TCB")
      17                            .dwattr $C$DW$1, DW_AT_TI_symbol_name("Startup_TCB")
      18                            .dwattr $C$DW$1, DW_AT_type(*$C$DW$T$252)
      19                            .dwattr $C$DW$1, DW_AT_location[DW_OP_addr Startup_TCB]
      20                            .dwattr $C$DW$1, DW_AT_decl_file("../main.c")
      21                            .dwattr $C$DW$1, DW_AT_decl_line(0x0f)
      22                            .dwattr $C$DW$1, DW_AT_decl_column(0x15)
      23                    
      24 00000000                   .sect   ".data:Startup_Stack_Buffer", RW
      25                            .clink
      26                            .align  4
      27                            .elfsym Startup_Stack_Buffer,SYM_SIZE(512)
      28 00000000           Startup_Stack_Buffer:
      29 00000000 00000000          .bits   0,32                    ; Startup_Stack_Buffer[0] @ 0
      30 00000004                   .space  508
      31                    
      32                    $C$DW$2 .dwtag  DW_TAG_variable
      33                            .dwattr $C$DW$2, DW_AT_name("Startup_Stack_Buffer")
      34                            .dwattr $C$DW$2, DW_AT_TI_symbol_name("Startup_Stack_Buffer")
      35                            .dwattr $C$DW$2, DW_AT_type(*$C$DW$T$205)
      36                            .dwattr $C$DW$2, DW_AT_location[DW_OP_addr Startup_Stack_Buffer]
      37                            .dwattr $C$DW$2, DW_AT_decl_file("../main.c")
      38                            .dwattr $C$DW$2, DW_AT_decl_line(0x10)
      39                            .dwattr $C$DW$2, DW_AT_decl_column(0x14)
      40                    
      41                            .global Startup_Task_Handle
      42                            .common Startup_Task_Handle,4,4
      43                    $C$DW$3 .dwtag  DW_TAG_variable
      44                            .dwattr $C$DW$3, DW_AT_name("Startup_Task_Handle")
      45                            .dwattr $C$DW$3, DW_AT_TI_symbol_name("Startup_Task_Handle")
      46                            .dwattr $C$DW$3, DW_AT_location[DW_OP_addr Startup_Task_Handle]
      47                            .dwattr $C$DW$3, DW_AT_type(*$C$DW$T$83)
      48                            .dwattr $C$DW$3, DW_AT_external
      49                            .dwattr $C$DW$3, DW_AT_decl_file("../main.c")
      50                            .dwattr $C$DW$3, DW_AT_decl_line(0x11)
      51                            .dwattr $C$DW$3, DW_AT_decl_column(0x0e)
      52                    
      53                    
      54                    $C$DW$4 .dwtag  DW_TAG_subprogram
      55                            .dwattr $C$DW$4, DW_AT_name("TimerConfigure")
TI ARM Assembler Unix v18.1.1 Fri Jul  3 20:08:22 2020

Tools Copyright (c) 1996-2017 Texas Instruments Incorporated
main.asm                                                             PAGE    2

      56                            .dwattr $C$DW$4, DW_AT_TI_symbol_name("TimerConfigure")
      57                            .dwattr $C$DW$4, DW_AT_declaration
      58                            .dwattr $C$DW$4, DW_AT_external
      59                            .dwattr $C$DW$4, DW_AT_decl_file("../driverlib/timer.h")
      60                            .dwattr $C$DW$4, DW_AT_decl_line(0xf7)
      61                            .dwattr $C$DW$4, DW_AT_decl_column(0x0d)
      62                    $C$DW$5 .dwtag  DW_TAG_formal_parameter
      63                            .dwattr $C$DW$5, DW_AT_type(*$C$DW$T$40)
      64                    
      65                    $C$DW$6 .dwtag  DW_TAG_formal_parameter
      66                            .dwattr $C$DW$6, DW_AT_type(*$C$DW$T$40)
      67                    
      68                            .dwendtag $C$DW$4
      69                    
      70                    
      71                    $C$DW$7 .dwtag  DW_TAG_subprogram
      72                            .dwattr $C$DW$7, DW_AT_name("TimerPrescaleSet")
      73                            .dwattr $C$DW$7, DW_AT_TI_symbol_name("TimerPrescaleSet")
      74                            .dwattr $C$DW$7, DW_AT_declaration
      75                            .dwattr $C$DW$7, DW_AT_external
      76                            .dwattr $C$DW$7, DW_AT_decl_file("../driverlib/timer.h")
      77                            .dwattr $C$DW$7, DW_AT_decl_line(0x104)
      78                            .dwattr $C$DW$7, DW_AT_decl_column(0x0d)
      79                    $C$DW$8 .dwtag  DW_TAG_formal_parameter
      80                            .dwattr $C$DW$8, DW_AT_type(*$C$DW$T$40)
      81                    
      82                    $C$DW$9 .dwtag  DW_TAG_formal_parameter
      83                            .dwattr $C$DW$9, DW_AT_type(*$C$DW$T$40)
      84                    
      85                    $C$DW$10        .dwtag  DW_TAG_formal_parameter
      86                            .dwattr $C$DW$10, DW_AT_type(*$C$DW$T$40)
      87                    
      88                            .dwendtag $C$DW$7
      89                    
      90                    
      91                    $C$DW$11        .dwtag  DW_TAG_subprogram
      92                            .dwattr $C$DW$11, DW_AT_name("TimerClockSourceSet")
      93                            .dwattr $C$DW$11, DW_AT_TI_symbol_name("TimerClockSourceSet")
      94                            .dwattr $C$DW$11, DW_AT_declaration
      95                            .dwattr $C$DW$11, DW_AT_external
      96                            .dwattr $C$DW$11, DW_AT_decl_file("../driverlib/timer.h")
      97                            .dwattr $C$DW$11, DW_AT_decl_line(0x11f)
      98                            .dwattr $C$DW$11, DW_AT_decl_column(0x0d)
      99                    $C$DW$12        .dwtag  DW_TAG_formal_parameter
     100                            .dwattr $C$DW$12, DW_AT_type(*$C$DW$T$40)
     101                    
     102                    $C$DW$13        .dwtag  DW_TAG_formal_parameter
     103                            .dwattr $C$DW$13, DW_AT_type(*$C$DW$T$40)
     104                    
     105                            .dwendtag $C$DW$11
     106                    
     107                    
     108                    $C$DW$14        .dwtag  DW_TAG_subprogram
     109                            .dwattr $C$DW$14, DW_AT_name("TimerLoadSet")
     110                            .dwattr $C$DW$14, DW_AT_TI_symbol_name("TimerLoadSet")
TI ARM Assembler Unix v18.1.1 Fri Jul  3 20:08:22 2020

Tools Copyright (c) 1996-2017 Texas Instruments Incorporated
main.asm                                                             PAGE    3

     111                            .dwattr $C$DW$14, DW_AT_declaration
     112                            .dwattr $C$DW$14, DW_AT_external
     113                            .dwattr $C$DW$14, DW_AT_decl_file("../driverlib/timer.h")
     114                            .dwattr $C$DW$14, DW_AT_decl_line(0x10a)
     115                            .dwattr $C$DW$14, DW_AT_decl_column(0x0d)
     116                    $C$DW$15        .dwtag  DW_TAG_formal_parameter
     117                            .dwattr $C$DW$15, DW_AT_type(*$C$DW$T$40)
     118                    
     119                    $C$DW$16        .dwtag  DW_TAG_formal_parameter
     120                            .dwattr $C$DW$16, DW_AT_type(*$C$DW$T$40)
     121                    
     122                    $C$DW$17        .dwtag  DW_TAG_formal_parameter
     123                            .dwattr $C$DW$17, DW_AT_type(*$C$DW$T$40)
     124                    
     125                            .dwendtag $C$DW$14
     126                    
     127                    
     128                    $C$DW$18        .dwtag  DW_TAG_subprogram
     129                            .dwattr $C$DW$18, DW_AT_name("TimerSynchronize")
     130                            .dwattr $C$DW$18, DW_AT_TI_symbol_name("TimerSynchronize")
     131                            .dwattr $C$DW$18, DW_AT_declaration
     132                            .dwattr $C$DW$18, DW_AT_external
     133                            .dwattr $C$DW$18, DW_AT_decl_file("../driverlib/timer.h")
     134                            .dwattr $C$DW$18, DW_AT_decl_line(0x11d)
     135                            .dwattr $C$DW$18, DW_AT_decl_column(0x0d)
     136                    $C$DW$19        .dwtag  DW_TAG_formal_parameter
     137                            .dwattr $C$DW$19, DW_AT_type(*$C$DW$T$40)
     138                    
     139                    $C$DW$20        .dwtag  DW_TAG_formal_parameter
     140                            .dwattr $C$DW$20, DW_AT_type(*$C$DW$T$40)
     141                    
     142                            .dwendtag $C$DW$18
     143                    
     144                    
     145                    $C$DW$21        .dwtag  DW_TAG_subprogram
     146                            .dwattr $C$DW$21, DW_AT_name("TimerEnable")
     147                            .dwattr $C$DW$21, DW_AT_TI_symbol_name("TimerEnable")
     148                            .dwattr $C$DW$21, DW_AT_declaration
     149                            .dwattr $C$DW$21, DW_AT_external
     150                            .dwattr $C$DW$21, DW_AT_decl_file("../driverlib/timer.h")
     151                            .dwattr $C$DW$21, DW_AT_decl_line(0xf5)
     152                            .dwattr $C$DW$21, DW_AT_decl_column(0x0d)
     153                    $C$DW$22        .dwtag  DW_TAG_formal_parameter
     154                            .dwattr $C$DW$22, DW_AT_type(*$C$DW$T$40)
     155                    
     156                    $C$DW$23        .dwtag  DW_TAG_formal_parameter
     157                            .dwattr $C$DW$23, DW_AT_type(*$C$DW$T$40)
     158                    
     159                            .dwendtag $C$DW$21
     160                    
     161                    
     162                    $C$DW$24        .dwtag  DW_TAG_subprogram
     163                            .dwattr $C$DW$24, DW_AT_name("vTaskSuspend")
     164                            .dwattr $C$DW$24, DW_AT_TI_symbol_name("vTaskSuspend")
     165                            .dwattr $C$DW$24, DW_AT_declaration
TI ARM Assembler Unix v18.1.1 Fri Jul  3 20:08:22 2020

Tools Copyright (c) 1996-2017 Texas Instruments Incorporated
main.asm                                                             PAGE    4

     166                            .dwattr $C$DW$24, DW_AT_external
     167                            .dwattr $C$DW$24, DW_AT_decl_file("../OS/task.h")
     168                            .dwattr $C$DW$24, DW_AT_decl_line(0x420)
     169                            .dwattr $C$DW$24, DW_AT_decl_column(0x06)
     170                    $C$DW$25        .dwtag  DW_TAG_formal_parameter
     171                            .dwattr $C$DW$25, DW_AT_type(*$C$DW$T$83)
     172                    
     173                            .dwendtag $C$DW$24
     174                    
     175                    
     176                    $C$DW$26        .dwtag  DW_TAG_subprogram
     177                            .dwattr $C$DW$26, DW_AT_name("SysCtlPeripheralEnable")
     178                            .dwattr $C$DW$26, DW_AT_TI_symbol_name("SysCtlPeripheralEnable")
     179                            .dwattr $C$DW$26, DW_AT_declaration
     180                            .dwattr $C$DW$26, DW_AT_external
     181                            .dwattr $C$DW$26, DW_AT_decl_file("../driverlib/sysctl.h")
     182                            .dwattr $C$DW$26, DW_AT_decl_line(0x260)
     183                            .dwattr $C$DW$26, DW_AT_decl_column(0x0d)
     184                    $C$DW$27        .dwtag  DW_TAG_formal_parameter
     185                            .dwattr $C$DW$27, DW_AT_type(*$C$DW$T$40)
     186                    
     187                            .dwendtag $C$DW$26
     188                    
     189                    
     190                    $C$DW$28        .dwtag  DW_TAG_subprogram
     191                            .dwattr $C$DW$28, DW_AT_name("IntMasterDisable")
     192                            .dwattr $C$DW$28, DW_AT_TI_symbol_name("IntMasterDisable")
     193                            .dwattr $C$DW$28, DW_AT_type(*$C$DW$T$244)
     194                            .dwattr $C$DW$28, DW_AT_declaration
     195                            .dwattr $C$DW$28, DW_AT_external
     196                            .dwattr $C$DW$28, DW_AT_decl_file("../driverlib/interrupt.h")
     197                            .dwattr $C$DW$28, DW_AT_decl_line(0x44)
     198                            .dwattr $C$DW$28, DW_AT_decl_column(0x0d)
     199                            .dwendtag $C$DW$28
     200                    
     201                    
     202                    $C$DW$29        .dwtag  DW_TAG_subprogram
     203                            .dwattr $C$DW$29, DW_AT_name("Heater_Init")
     204                            .dwattr $C$DW$29, DW_AT_TI_symbol_name("Heater_Init")
     205                            .dwattr $C$DW$29, DW_AT_declaration
     206                            .dwattr $C$DW$29, DW_AT_external
     207                            .dwattr $C$DW$29, DW_AT_decl_file("../Heater.h")
     208                            .dwattr $C$DW$29, DW_AT_decl_line(0x10)
     209                            .dwattr $C$DW$29, DW_AT_decl_column(0x06)
     210                            .dwendtag $C$DW$29
     211                    
     212                    
     213                    $C$DW$30        .dwtag  DW_TAG_subprogram
     214                            .dwattr $C$DW$30, DW_AT_name("Buzzer_Init")
     215                            .dwattr $C$DW$30, DW_AT_TI_symbol_name("Buzzer_Init")
     216                            .dwattr $C$DW$30, DW_AT_declaration
     217                            .dwattr $C$DW$30, DW_AT_external
     218                            .dwattr $C$DW$30, DW_AT_decl_file("../Buzzer.h")
     219                            .dwattr $C$DW$30, DW_AT_decl_line(0x10)
     220                            .dwattr $C$DW$30, DW_AT_decl_column(0x06)
TI ARM Assembler Unix v18.1.1 Fri Jul  3 20:08:22 2020

Tools Copyright (c) 1996-2017 Texas Instruments Incorporated
main.asm                                                             PAGE    5

     221                            .dwendtag $C$DW$30
     222                    
     223                    
     224                    $C$DW$31        .dwtag  DW_TAG_subprogram
     225                            .dwattr $C$DW$31, DW_AT_name("Button_Init")
     226                            .dwattr $C$DW$31, DW_AT_TI_symbol_name("Button_Init")
     227                            .dwattr $C$DW$31, DW_AT_declaration
     228                            .dwattr $C$DW$31, DW_AT_external
     229                            .dwattr $C$DW$31, DW_AT_decl_file("../Button.h")
     230                            .dwattr $C$DW$31, DW_AT_decl_line(0x17)
     231                            .dwattr $C$DW$31, DW_AT_decl_column(0x06)
     232                            .dwendtag $C$DW$31
     233                    
     234                    
     235                    $C$DW$32        .dwtag  DW_TAG_subprogram
     236                            .dwattr $C$DW$32, DW_AT_name("SSD_Init")
     237                            .dwattr $C$DW$32, DW_AT_TI_symbol_name("SSD_Init")
     238                            .dwattr $C$DW$32, DW_AT_declaration
     239                            .dwattr $C$DW$32, DW_AT_external
     240                            .dwattr $C$DW$32, DW_AT_decl_file("../SSD.h")
     241                            .dwattr $C$DW$32, DW_AT_decl_line(0x20)
     242                            .dwattr $C$DW$32, DW_AT_decl_column(0x06)
     243                            .dwendtag $C$DW$32
     244                    
     245                    
     246                    $C$DW$33        .dwtag  DW_TAG_subprogram
     247                            .dwattr $C$DW$33, DW_AT_name("Sound_Init")
     248                            .dwattr $C$DW$33, DW_AT_TI_symbol_name("Sound_Init")
     249                            .dwattr $C$DW$33, DW_AT_declaration
     250                            .dwattr $C$DW$33, DW_AT_external
     251                            .dwattr $C$DW$33, DW_AT_decl_file("../Sound.h")
     252                            .dwattr $C$DW$33, DW_AT_decl_line(0x10)
     253                            .dwattr $C$DW$33, DW_AT_decl_column(0x06)
     254                            .dwendtag $C$DW$33
     255                    
     256                    
     257                    $C$DW$34        .dwtag  DW_TAG_subprogram
     258                            .dwattr $C$DW$34, DW_AT_name("UWAVE_Init")
     259                            .dwattr $C$DW$34, DW_AT_TI_symbol_name("UWAVE_Init")
     260                            .dwattr $C$DW$34, DW_AT_declaration
     261                            .dwattr $C$DW$34, DW_AT_external
     262                            .dwattr $C$DW$34, DW_AT_decl_file("../uWave.h")
     263                            .dwattr $C$DW$34, DW_AT_decl_line(0x0d)
     264                            .dwattr $C$DW$34, DW_AT_decl_column(0x06)
     265                            .dwendtag $C$DW$34
     266                    
     267                    
     268                    $C$DW$35        .dwtag  DW_TAG_subprogram
     269                            .dwattr $C$DW$35, DW_AT_name("Debug_Init")
     270                            .dwattr $C$DW$35, DW_AT_TI_symbol_name("Debug_Init")
     271                            .dwattr $C$DW$35, DW_AT_declaration
     272                            .dwattr $C$DW$35, DW_AT_external
     273                            .dwattr $C$DW$35, DW_AT_decl_file("../Debug.h")
     274                            .dwattr $C$DW$35, DW_AT_decl_line(0x0d)
     275                            .dwattr $C$DW$35, DW_AT_decl_column(0x06)
TI ARM Assembler Unix v18.1.1 Fri Jul  3 20:08:22 2020

Tools Copyright (c) 1996-2017 Texas Instruments Incorporated
main.asm                                                             PAGE    6

     276                            .dwendtag $C$DW$35
     277                    
     278                    
     279                    $C$DW$36        .dwtag  DW_TAG_subprogram
     280                            .dwattr $C$DW$36, DW_AT_name("IntMasterEnable")
     281                            .dwattr $C$DW$36, DW_AT_TI_symbol_name("IntMasterEnable")
     282                            .dwattr $C$DW$36, DW_AT_type(*$C$DW$T$244)
     283                            .dwattr $C$DW$36, DW_AT_declaration
     284                            .dwattr $C$DW$36, DW_AT_external
     285                            .dwattr $C$DW$36, DW_AT_decl_file("../driverlib/interrupt.h")
     286                            .dwattr $C$DW$36, DW_AT_decl_line(0x43)
     287                            .dwattr $C$DW$36, DW_AT_decl_column(0x0d)
     288                            .dwendtag $C$DW$36
     289                    
     290                    
     291                    $C$DW$37        .dwtag  DW_TAG_subprogram
     292                            .dwattr $C$DW$37, DW_AT_name("xTaskCreateStatic")
     293                            .dwattr $C$DW$37, DW_AT_TI_symbol_name("xTaskCreateStatic")
     294                            .dwattr $C$DW$37, DW_AT_type(*$C$DW$T$83)
     295                            .dwattr $C$DW$37, DW_AT_declaration
     296                            .dwattr $C$DW$37, DW_AT_external
     297                            .dwattr $C$DW$37, DW_AT_decl_file("../OS/task.h")
     298                            .dwattr $C$DW$37, DW_AT_decl_line(0x1b6)
     299                            .dwattr $C$DW$37, DW_AT_decl_column(0x0f)
     300                    $C$DW$38        .dwtag  DW_TAG_formal_parameter
     301                            .dwattr $C$DW$38, DW_AT_type(*$C$DW$T$69)
     302                    
     303                    $C$DW$39        .dwtag  DW_TAG_formal_parameter
     304                            .dwattr $C$DW$39, DW_AT_type(*$C$DW$T$74)
     305                    
     306                    $C$DW$40        .dwtag  DW_TAG_formal_parameter
     307                            .dwattr $C$DW$40, DW_AT_type(*$C$DW$T$206)
     308                    
     309                    $C$DW$41        .dwtag  DW_TAG_formal_parameter
     310                            .dwattr $C$DW$41, DW_AT_type(*$C$DW$T$112)
     311                    
     312                    $C$DW$42        .dwtag  DW_TAG_formal_parameter
     313                            .dwattr $C$DW$42, DW_AT_type(*$C$DW$T$26)
     314                    
     315                    $C$DW$43        .dwtag  DW_TAG_formal_parameter
     316                            .dwattr $C$DW$43, DW_AT_type(*$C$DW$T$204)
     317                    
     318                    $C$DW$44        .dwtag  DW_TAG_formal_parameter
     319                            .dwattr $C$DW$44, DW_AT_type(*$C$DW$T$254)
     320                    
     321                            .dwendtag $C$DW$37
     322                    
     323                    
     324                    $C$DW$45        .dwtag  DW_TAG_subprogram
     325                            .dwattr $C$DW$45, DW_AT_name("vTaskStartScheduler")
     326                            .dwattr $C$DW$45, DW_AT_TI_symbol_name("vTaskStartScheduler")
     327                            .dwattr $C$DW$45, DW_AT_declaration
     328                            .dwattr $C$DW$45, DW_AT_external
     329                            .dwattr $C$DW$45, DW_AT_decl_file("../OS/task.h")
     330                            .dwattr $C$DW$45, DW_AT_decl_line(0x48f)
TI ARM Assembler Unix v18.1.1 Fri Jul  3 20:08:22 2020

Tools Copyright (c) 1996-2017 Texas Instruments Incorporated
main.asm                                                             PAGE    7

     331                            .dwattr $C$DW$45, DW_AT_decl_column(0x06)
     332                            .dwendtag $C$DW$45
     333                    
     334                    ;       /home/pola/ti/ccsv8/tools/compiler/ti-cgt-arm_18.1.1.LTS/bin/armacpia -@/tmp/TI3L2lqWU3S 
     335 00000000                   .sect   ".text"
     336                            .clink
     337                            .thumbfunc Startup_Task
     338 00000000                   .thumb
     339                            .global Startup_Task
     340                    
     341                    $C$DW$46        .dwtag  DW_TAG_subprogram
     342                            .dwattr $C$DW$46, DW_AT_name("Startup_Task")
     343                            .dwattr $C$DW$46, DW_AT_low_pc(Startup_Task)
     344                            .dwattr $C$DW$46, DW_AT_high_pc(0x00)
     345                            .dwattr $C$DW$46, DW_AT_TI_symbol_name("Startup_Task")
     346                            .dwattr $C$DW$46, DW_AT_external
     347                            .dwattr $C$DW$46, DW_AT_TI_begin_file("../main.c")
     348                            .dwattr $C$DW$46, DW_AT_TI_begin_line(0x14)
     349                            .dwattr $C$DW$46, DW_AT_TI_begin_column(0x06)
     350                            .dwattr $C$DW$46, DW_AT_decl_file("../main.c")
     351                            .dwattr $C$DW$46, DW_AT_decl_line(0x14)
     352                            .dwattr $C$DW$46, DW_AT_decl_column(0x06)
     353                            .dwattr $C$DW$46, DW_AT_TI_max_frame_size(0x08)
     354                            .dwpsn  file "../main.c",line 21,column 1,is_stmt,address Startup_Task,isa 1
     355                    
     356                            .dwfde $C$DW$CIE, Startup_Task
     357                    $C$DW$47        .dwtag  DW_TAG_formal_parameter
     358                            .dwattr $C$DW$47, DW_AT_name("param")
     359                            .dwattr $C$DW$47, DW_AT_TI_symbol_name("param")
     360                            .dwattr $C$DW$47, DW_AT_type(*$C$DW$T$3)
     361                            .dwattr $C$DW$47, DW_AT_location[DW_OP_reg0]
     362                    
     363                    ;----------------------------------------------------------------------
     364                    ;  20 | void Startup_Task(void *param)                                         
     365                    ;----------------------------------------------------------------------
     366                    
     367                    ;*****************************************************************************
     368                    ;* FUNCTION NAME: Startup_Task                                               *
     369                    ;*                                                                           *
     370                    ;*   Regs Modified     : A1,A2,A3,A4,V9,SP,LR,SR,D0,D0_hi,D1,D1_hi,D2,D2_hi, *
     371                    ;*                           D3,D3_hi,D4,D4_hi,D5,D5_hi,D6,D6_hi,D7,D7_hi,   *
     372                    ;*                           FPEXC,FPSCR                                     *
     373                    ;*   Regs Used         : A1,A2,A3,A4,V9,SP,LR,SR,D0,D0_hi,D1,D1_hi,D2,D2_hi, *
     374                    ;*                           D3,D3_hi,D4,D4_hi,D5,D5_hi,D6,D6_hi,D7,D7_hi,   *
     375                    ;*                           FPEXC,FPSCR                                     *
     376                    ;*   Local Frame Size  : 0 Args + 4 Auto + 4 Save = 8 byte                   *
     377                    ;*****************************************************************************
     378 00000000           Startup_Task:
     379                    ;* --------------------------------------------------------------------------*
     380                            .dwcfi  cfa_offset, 0
     381 00000000 B508              PUSH      {A4, LR}              ; [DPU_V7M3_PIPE]  ; [ORIG 16-BIT INS]
     382                            .dwcfi  cfa_offset, 8
     383                            .dwcfi  save_reg_to_mem, 14, -4
     384                            .dwcfi  save_reg_to_mem, 3, -8
     385                    $C$DW$48        .dwtag  DW_TAG_variable
TI ARM Assembler Unix v18.1.1 Fri Jul  3 20:08:22 2020

Tools Copyright (c) 1996-2017 Texas Instruments Incorporated
main.asm                                                             PAGE    8

     386                            .dwattr $C$DW$48, DW_AT_name("param")
     387                            .dwattr $C$DW$48, DW_AT_TI_symbol_name("param")
     388                            .dwattr $C$DW$48, DW_AT_type(*$C$DW$T$3)
     389                            .dwattr $C$DW$48, DW_AT_location[DW_OP_breg13 0]
     390                    
     391 00000002 9000              STR       A1, [SP, #0]          ; [DPU_V7M3_PIPE] |21|  ; [ORIG 16-BIT INS]
     392                            .dwpsn  file "../main.c",line 23,column 5,is_stmt,isa 1
     393                    ;----------------------------------------------------------------------
     394                    ;  23 | TimerConfigure(TIMER0_BASE,TIMER_CFG_ONE_SHOT_UP);                     
     395                    ;----------------------------------------------------------------------
     396 00000004 4835              LDR       A1, $C$CON1           ; [DPU_V7M3_PIPE] |23|  ; [ORIG 16-BIT INS]
     397 00000006 2131              MOVS      A2, #49               ; [DPU_V7M3_PIPE] |23|  ; [ORIG 16-BIT INS]
     398                    $C$DW$49        .dwtag  DW_TAG_TI_branch
     399                            .dwattr $C$DW$49, DW_AT_low_pc(0x00)
     400                            .dwattr $C$DW$49, DW_AT_name("TimerConfigure")
     401                            .dwattr $C$DW$49, DW_AT_TI_call
     402                    
     403 00000008 FFFEF7FF!         BL        TimerConfigure        ; [DPU_V7M3_PIPE] |23|  ; [KEEP 32-BIT INS]
     404                            ; CALL OCCURS {TimerConfigure }  ; [] |23| 
     405                            .dwpsn  file "../main.c",line 24,column 5,is_stmt,isa 1
     406                    ;----------------------------------------------------------------------
     407                    ;  24 | TimerPrescaleSet(TIMER0_BASE,TIMER_BOTH, 16);                          
     408                    ;----------------------------------------------------------------------
     409 0000000c 4833              LDR       A1, $C$CON1           ; [DPU_V7M3_PIPE] |24|  ; [ORIG 16-BIT INS]
     410 0000000e 71FFF64F          MOV       A2, #65535            ; [DPU_V7M3_PIPE] |24|  ; [KEEP 32-BIT INS]
     411 00000012 2210              MOVS      A3, #16               ; [DPU_V7M3_PIPE] |24|  ; [ORIG 16-BIT INS]
     412                    $C$DW$50        .dwtag  DW_TAG_TI_branch
     413                            .dwattr $C$DW$50, DW_AT_low_pc(0x00)
     414                            .dwattr $C$DW$50, DW_AT_name("TimerPrescaleSet")
     415                            .dwattr $C$DW$50, DW_AT_TI_call
     416                    
     417 00000014 FFFEF7FF!         BL        TimerPrescaleSet      ; [DPU_V7M3_PIPE] |24|  ; [KEEP 32-BIT INS]
     418                            ; CALL OCCURS {TimerPrescaleSet }  ; [] |24| 
     419                            .dwpsn  file "../main.c",line 25,column 5,is_stmt,isa 1
     420                    ;----------------------------------------------------------------------
     421                    ;  25 | TimerClockSourceSet(TIMER0_BASE,TIMER_CLOCK_SYSTEM);                   
     422                    ;----------------------------------------------------------------------
     423 00000018 4830              LDR       A1, $C$CON1           ; [DPU_V7M3_PIPE] |25|  ; [ORIG 16-BIT INS]
     424 0000001a 2100              MOVS      A2, #0                ; [DPU_V7M3_PIPE] |25|  ; [ORIG 16-BIT INS]
     425                    $C$DW$51        .dwtag  DW_TAG_TI_branch
     426                            .dwattr $C$DW$51, DW_AT_low_pc(0x00)
     427                            .dwattr $C$DW$51, DW_AT_name("TimerClockSourceSet")
     428                            .dwattr $C$DW$51, DW_AT_TI_call
     429                    
     430 0000001c FFFEF7FF!         BL        TimerClockSourceSet   ; [DPU_V7M3_PIPE] |25|  ; [KEEP 32-BIT INS]
     431                            ; CALL OCCURS {TimerClockSourceSet }  ; [] |25| 
     432                            .dwpsn  file "../main.c",line 26,column 5,is_stmt,isa 1
     433                    ;----------------------------------------------------------------------
     434                    ;  26 | TimerLoadSet(TIMER0_BASE,TIMER_BOTH,5);                                
     435                    ;----------------------------------------------------------------------
     436 00000020 482E              LDR       A1, $C$CON1           ; [DPU_V7M3_PIPE] |26|  ; [ORIG 16-BIT INS]
     437 00000022 71FFF64F          MOV       A2, #65535            ; [DPU_V7M3_PIPE] |26|  ; [KEEP 32-BIT INS]
     438 00000026 2205              MOVS      A3, #5                ; [DPU_V7M3_PIPE] |26|  ; [ORIG 16-BIT INS]
     439                    $C$DW$52        .dwtag  DW_TAG_TI_branch
     440                            .dwattr $C$DW$52, DW_AT_low_pc(0x00)
TI ARM Assembler Unix v18.1.1 Fri Jul  3 20:08:22 2020

Tools Copyright (c) 1996-2017 Texas Instruments Incorporated
main.asm                                                             PAGE    9

     441                            .dwattr $C$DW$52, DW_AT_name("TimerLoadSet")
     442                            .dwattr $C$DW$52, DW_AT_TI_call
     443                    
     444 00000028 FFFEF7FF!         BL        TimerLoadSet          ; [DPU_V7M3_PIPE] |26|  ; [KEEP 32-BIT INS]
     445                            ; CALL OCCURS {TimerLoadSet }    ; [] |26| 
     446                            .dwpsn  file "../main.c",line 27,column 5,is_stmt,isa 1
     447                    ;----------------------------------------------------------------------
     448                    ;  27 | TimerSynchronize(TIMER0_BASE,TIMER_2A_SYNC | TIMER_2B_SYNC);           
     449                    ;----------------------------------------------------------------------
     450 0000002c 482B              LDR       A1, $C$CON1           ; [DPU_V7M3_PIPE] |27|  ; [ORIG 16-BIT INS]
     451 0000002e 2130              MOVS      A2, #48               ; [DPU_V7M3_PIPE] |27|  ; [ORIG 16-BIT INS]
     452                    $C$DW$53        .dwtag  DW_TAG_TI_branch
     453                            .dwattr $C$DW$53, DW_AT_low_pc(0x00)
     454                            .dwattr $C$DW$53, DW_AT_name("TimerSynchronize")
     455                            .dwattr $C$DW$53, DW_AT_TI_call
     456                    
     457 00000030 FFFEF7FF!         BL        TimerSynchronize      ; [DPU_V7M3_PIPE] |27|  ; [KEEP 32-BIT INS]
     458                            ; CALL OCCURS {TimerSynchronize }  ; [] |27| 
     459                            .dwpsn  file "../main.c",line 28,column 5,is_stmt,isa 1
     460                    ;----------------------------------------------------------------------
     461                    ;  28 | TimerEnable(TIMER2_BASE, TIMER_A);                                     
     462                    ;----------------------------------------------------------------------
     463 00000034 482A              LDR       A1, $C$CON2           ; [DPU_V7M3_PIPE] |28|  ; [ORIG 16-BIT INS]
     464 00000036 21FF              MOVS      A2, #255              ; [DPU_V7M3_PIPE] |28|  ; [ORIG 16-BIT INS]
     465                    $C$DW$54        .dwtag  DW_TAG_TI_branch
     466                            .dwattr $C$DW$54, DW_AT_low_pc(0x00)
     467                            .dwattr $C$DW$54, DW_AT_name("TimerEnable")
     468                            .dwattr $C$DW$54, DW_AT_TI_call
     469                    
     470 00000038 FFFEF7FF!         BL        TimerEnable           ; [DPU_V7M3_PIPE] |28|  ; [KEEP 32-BIT INS]
     471                            ; CALL OCCURS {TimerEnable }     ; [] |28| 
     472                            .dwpsn  file "../main.c",line 29,column 5,is_stmt,isa 1
     473                    ;----------------------------------------------------------------------
     474                    ;  29 | TimerEnable(TIMER2_BASE, TIMER_B);                                     
     475                    ;----------------------------------------------------------------------
     476 0000003c 4828              LDR       A1, $C$CON2           ; [DPU_V7M3_PIPE] |29|  ; [ORIG 16-BIT INS]
     477 0000003e 417FF44F          MOV       A2, #65280            ; [DPU_V7M3_PIPE] |29|  ; [KEEP 32-BIT INS]
     478                    $C$DW$55        .dwtag  DW_TAG_TI_branch
     479                            .dwattr $C$DW$55, DW_AT_low_pc(0x00)
     480                            .dwattr $C$DW$55, DW_AT_name("TimerEnable")
     481                            .dwattr $C$DW$55, DW_AT_TI_call
     482                    
     483 00000042 FFFEF7FF!         BL        TimerEnable           ; [DPU_V7M3_PIPE] |29|  ; [KEEP 32-BIT INS]
     484                            ; CALL OCCURS {TimerEnable }     ; [] |29| 
     485                            .dwpsn  file "../main.c",line 30,column 5,is_stmt,isa 1
     486                    ;----------------------------------------------------------------------
     487                    ;  30 | TimerEnable(TIMER0_BASE, TIMER_BOTH);                                  
     488                    ;----------------------------------------------------------------------
     489 00000046 4825              LDR       A1, $C$CON1           ; [DPU_V7M3_PIPE] |30|  ; [ORIG 16-BIT INS]
     490 00000048 71FFF64F          MOV       A2, #65535            ; [DPU_V7M3_PIPE] |30|  ; [KEEP 32-BIT INS]
     491                    $C$DW$56        .dwtag  DW_TAG_TI_branch
     492                            .dwattr $C$DW$56, DW_AT_low_pc(0x00)
     493                            .dwattr $C$DW$56, DW_AT_name("TimerEnable")
     494                            .dwattr $C$DW$56, DW_AT_TI_call
     495                    
TI ARM Assembler Unix v18.1.1 Fri Jul  3 20:08:22 2020

Tools Copyright (c) 1996-2017 Texas Instruments Incorporated
main.asm                                                             PAGE   10

     496 0000004c FFFEF7FF!         BL        TimerEnable           ; [DPU_V7M3_PIPE] |30|  ; [KEEP 32-BIT INS]
     497                            ; CALL OCCURS {TimerEnable }     ; [] |30| 
     498                            .dwpsn  file "../main.c",line 32,column 11,is_stmt,isa 1
     499                    ;----------------------------------------------------------------------
     500                    ;  32 | while(1)                                                               
     501                    ;----------------------------------------------------------------------
     502                    ;* --------------------------------------------------------------------------*
     503                    ;*   BEGIN LOOP ||$C$L1||
     504                    ;*
     505                    ;*   Loop source line                : 32
     506                    ;*   Loop closing brace source line  : 35
     507                    ;*   Known Minimum Trip Count        : 1
     508                    ;*   Known Maximum Trip Count        : 4294967295
     509                    ;*   Known Max Trip Count Factor     : 1
     510                    ;* --------------------------------------------------------------------------*
     511 00000050           ||$C$L1||:    
     512                            .dwpsn  file "../main.c",line 34,column 9,is_stmt,isa 1
     513                    ;----------------------------------------------------------------------
     514                    ;  34 | vTaskSuspend(Startup_Task_Handle);                                     
     515                    ;----------------------------------------------------------------------
     516 00000050 4824              LDR       A1, $C$CON3           ; [DPU_V7M3_PIPE] |34|  ; [ORIG 16-BIT INS]
     517 00000052 6800              LDR       A1, [A1, #0]          ; [DPU_V7M3_PIPE] |34|  ; [ORIG 16-BIT INS]
     518                    $C$DW$57        .dwtag  DW_TAG_TI_branch
     519                            .dwattr $C$DW$57, DW_AT_low_pc(0x00)
     520                            .dwattr $C$DW$57, DW_AT_name("vTaskSuspend")
     521                            .dwattr $C$DW$57, DW_AT_TI_call
     522                    
     523 00000054 FFFEF7FF!         BL        vTaskSuspend          ; [DPU_V7M3_PIPE] |34|  ; [KEEP 32-BIT INS]
     524                            ; CALL OCCURS {vTaskSuspend }    ; [] |34| 
     525                            .dwpsn  file "../main.c",line 32,column 11,is_stmt,isa 1
     526 00000058 E7FA              B         ||$C$L1||             ; [DPU_V7M3_PIPE] |32|  ; [ORIG 16-BIT INS]
     527                            ; BRANCH OCCURS {||$C$L1||}      ; [] |32| 
     528                    ;* --------------------------------------------------------------------------*
     529                            .dwattr $C$DW$46, DW_AT_TI_end_file("../main.c")
     530                            .dwattr $C$DW$46, DW_AT_TI_end_line(0x24)
     531                            .dwattr $C$DW$46, DW_AT_TI_end_column(0x01)
     532                            .dwendentry
     533                            .dwendtag $C$DW$46
     534                    
     535 0000005a                   .sect   ".text"
     536                            .clink
     537                            .thumbfunc main
     538 0000005a                   .thumb
     539                            .global main
     540                    
     541                    $C$DW$58        .dwtag  DW_TAG_subprogram
     542                            .dwattr $C$DW$58, DW_AT_name("main")
     543                            .dwattr $C$DW$58, DW_AT_low_pc(main)
     544                            .dwattr $C$DW$58, DW_AT_high_pc(0x00)
     545                            .dwattr $C$DW$58, DW_AT_TI_symbol_name("main")
     546                            .dwattr $C$DW$58, DW_AT_external
     547                            .dwattr $C$DW$58, DW_AT_type(*$C$DW$T$10)
     548                            .dwattr $C$DW$58, DW_AT_TI_begin_file("../main.c")
     549                            .dwattr $C$DW$58, DW_AT_TI_begin_line(0x29)
     550                            .dwattr $C$DW$58, DW_AT_TI_begin_column(0x05)
TI ARM Assembler Unix v18.1.1 Fri Jul  3 20:08:22 2020

Tools Copyright (c) 1996-2017 Texas Instruments Incorporated
main.asm                                                             PAGE   11

     551                            .dwattr $C$DW$58, DW_AT_decl_file("../main.c")
     552                            .dwattr $C$DW$58, DW_AT_decl_line(0x29)
     553                            .dwattr $C$DW$58, DW_AT_decl_column(0x05)
     554                            .dwattr $C$DW$58, DW_AT_TI_max_frame_size(0x10)
     555                            .dwpsn  file "../main.c",line 42,column 1,is_stmt,address main,isa 1
     556                    
     557                            .dwfde $C$DW$CIE, main
     558                    ;----------------------------------------------------------------------
     559                    ;  41 | int main(void)                                                         
     560                    ;----------------------------------------------------------------------
     561                    
     562                    ;*****************************************************************************
     563                    ;* FUNCTION NAME: main                                                       *
     564                    ;*                                                                           *
     565                    ;*   Regs Modified     : A1,A2,A3,A4,V9,SP,LR,SR,D0,D0_hi,D1,D1_hi,D2,D2_hi, *
     566                    ;*                           D3,D3_hi,D4,D4_hi,D5,D5_hi,D6,D6_hi,D7,D7_hi,   *
     567                    ;*                           FPEXC,FPSCR                                     *
     568                    ;*   Regs Used         : A1,A2,A3,A4,V9,SP,LR,SR,D0,D0_hi,D1,D1_hi,D2,D2_hi, *
     569                    ;*                           D3,D3_hi,D4,D4_hi,D5,D5_hi,D6,D6_hi,D7,D7_hi,   *
     570                    ;*                           FPEXC,FPSCR                                     *
     571                    ;*   Local Frame Size  : 12 Args + 0 Auto + 4 Save = 16 byte                 *
     572                    ;*****************************************************************************
     573 0000005a           main:
     574                    ;* --------------------------------------------------------------------------*
     575                            .dwcfi  cfa_offset, 0
     576 0000005a B50E              PUSH      {A2, A3, A4, LR}      ; [DPU_V7M3_PIPE]  ; [ORIG 16-BIT INS]
     577                            .dwcfi  cfa_offset, 16
     578                            .dwcfi  save_reg_to_mem, 14, -4
     579                            .dwcfi  save_reg_to_mem, 3, -8
     580                            .dwcfi  save_reg_to_mem, 2, -12
     581                            .dwcfi  save_reg_to_mem, 1, -16
     582                            .dwpsn  file "../main.c",line 43,column 5,is_stmt,isa 1
     583                    ;----------------------------------------------------------------------
     584                    ;  43 | SysCtlPeripheralEnable(SYSCTL_PERIPH_GPIOA);                           
     585                    ;----------------------------------------------------------------------
     586 0000005c 4822              LDR       A1, $C$CON4           ; [DPU_V7M3_PIPE] |43|  ; [ORIG 16-BIT INS]
     587                    $C$DW$59        .dwtag  DW_TAG_TI_branch
     588                            .dwattr $C$DW$59, DW_AT_low_pc(0x00)
     589                            .dwattr $C$DW$59, DW_AT_name("SysCtlPeripheralEnable")
     590                            .dwattr $C$DW$59, DW_AT_TI_call
     591                    
     592 0000005e FFFEF7FF!         BL        SysCtlPeripheralEnable ; [DPU_V7M3_PIPE] |43|  ; [KEEP 32-BIT INS]
     593                            ; CALL OCCURS {SysCtlPeripheralEnable }  ; [] |43| 
     594                            .dwpsn  file "../main.c",line 44,column 5,is_stmt,isa 1
     595                    ;----------------------------------------------------------------------
     596                    ;  44 | SysCtlPeripheralEnable(SYSCTL_PERIPH_GPIOB);                           
     597                    ;----------------------------------------------------------------------
     598 00000062 4822              LDR       A1, $C$CON5           ; [DPU_V7M3_PIPE] |44|  ; [ORIG 16-BIT INS]
     599                    $C$DW$60        .dwtag  DW_TAG_TI_branch
     600                            .dwattr $C$DW$60, DW_AT_low_pc(0x00)
     601                            .dwattr $C$DW$60, DW_AT_name("SysCtlPeripheralEnable")
     602                            .dwattr $C$DW$60, DW_AT_TI_call
     603                    
     604 00000064 FFFEF7FF!         BL        SysCtlPeripheralEnable ; [DPU_V7M3_PIPE] |44|  ; [KEEP 32-BIT INS]
     605                            ; CALL OCCURS {SysCtlPeripheralEnable }  ; [] |44| 
TI ARM Assembler Unix v18.1.1 Fri Jul  3 20:08:22 2020

Tools Copyright (c) 1996-2017 Texas Instruments Incorporated
main.asm                                                             PAGE   12

     606                            .dwpsn  file "../main.c",line 45,column 5,is_stmt,isa 1
     607                    ;----------------------------------------------------------------------
     608                    ;  45 | SysCtlPeripheralEnable(SYSCTL_PERIPH_GPIOD);                           
     609                    ;----------------------------------------------------------------------
     610 00000068 4821              LDR       A1, $C$CON6           ; [DPU_V7M3_PIPE] |45|  ; [ORIG 16-BIT INS]
     611                    $C$DW$61        .dwtag  DW_TAG_TI_branch
     612                            .dwattr $C$DW$61, DW_AT_low_pc(0x00)
     613                            .dwattr $C$DW$61, DW_AT_name("SysCtlPeripheralEnable")
     614                            .dwattr $C$DW$61, DW_AT_TI_call
     615                    
     616 0000006a FFFEF7FF!         BL        SysCtlPeripheralEnable ; [DPU_V7M3_PIPE] |45|  ; [KEEP 32-BIT INS]
     617                            ; CALL OCCURS {SysCtlPeripheralEnable }  ; [] |45| 
     618                            .dwpsn  file "../main.c",line 46,column 5,is_stmt,isa 1
     619                    ;----------------------------------------------------------------------
     620                    ;  46 | SysCtlPeripheralEnable(SYSCTL_PERIPH_GPIOE);                           
     621                    ;----------------------------------------------------------------------
     622 0000006e 4821              LDR       A1, $C$CON7           ; [DPU_V7M3_PIPE] |46|  ; [ORIG 16-BIT INS]
     623                    $C$DW$62        .dwtag  DW_TAG_TI_branch
     624                            .dwattr $C$DW$62, DW_AT_low_pc(0x00)
     625                            .dwattr $C$DW$62, DW_AT_name("SysCtlPeripheralEnable")
     626                            .dwattr $C$DW$62, DW_AT_TI_call
     627                    
     628 00000070 FFFEF7FF!         BL        SysCtlPeripheralEnable ; [DPU_V7M3_PIPE] |46|  ; [KEEP 32-BIT INS]
     629                            ; CALL OCCURS {SysCtlPeripheralEnable }  ; [] |46| 
     630                            .dwpsn  file "../main.c",line 47,column 5,is_stmt,isa 1
     631                    ;----------------------------------------------------------------------
     632                    ;  47 | SysCtlPeripheralEnable(SYSCTL_PERIPH_TIMER0);                          
     633                    ;----------------------------------------------------------------------
     634 00000074 4820              LDR       A1, $C$CON8           ; [DPU_V7M3_PIPE] |47|  ; [ORIG 16-BIT INS]
     635                    $C$DW$63        .dwtag  DW_TAG_TI_branch
     636                            .dwattr $C$DW$63, DW_AT_low_pc(0x00)
     637                            .dwattr $C$DW$63, DW_AT_name("SysCtlPeripheralEnable")
     638                            .dwattr $C$DW$63, DW_AT_TI_call
     639                    
     640 00000076 FFFEF7FF!         BL        SysCtlPeripheralEnable ; [DPU_V7M3_PIPE] |47|  ; [KEEP 32-BIT INS]
     641                            ; CALL OCCURS {SysCtlPeripheralEnable }  ; [] |47| 
     642                            .dwpsn  file "../main.c",line 48,column 5,is_stmt,isa 1
     643                    ;----------------------------------------------------------------------
     644                    ;  48 | SysCtlPeripheralEnable(SYSCTL_PERIPH_TIMER1);                          
     645                    ;----------------------------------------------------------------------
     646 0000007a 4820              LDR       A1, $C$CON9           ; [DPU_V7M3_PIPE] |48|  ; [ORIG 16-BIT INS]
     647                    $C$DW$64        .dwtag  DW_TAG_TI_branch
     648                            .dwattr $C$DW$64, DW_AT_low_pc(0x00)
     649                            .dwattr $C$DW$64, DW_AT_name("SysCtlPeripheralEnable")
     650                            .dwattr $C$DW$64, DW_AT_TI_call
     651                    
     652 0000007c FFFEF7FF!         BL        SysCtlPeripheralEnable ; [DPU_V7M3_PIPE] |48|  ; [KEEP 32-BIT INS]
     653                            ; CALL OCCURS {SysCtlPeripheralEnable }  ; [] |48| 
     654                            .dwpsn  file "../main.c",line 49,column 5,is_stmt,isa 1
     655                    ;----------------------------------------------------------------------
     656                    ;  49 | SysCtlPeripheralEnable(SYSCTL_PERIPH_TIMER2);                          
     657                    ;----------------------------------------------------------------------
     658 00000080 481F              LDR       A1, $C$CON10          ; [DPU_V7M3_PIPE] |49|  ; [ORIG 16-BIT INS]
     659                    $C$DW$65        .dwtag  DW_TAG_TI_branch
     660                            .dwattr $C$DW$65, DW_AT_low_pc(0x00)
TI ARM Assembler Unix v18.1.1 Fri Jul  3 20:08:22 2020

Tools Copyright (c) 1996-2017 Texas Instruments Incorporated
main.asm                                                             PAGE   13

     661                            .dwattr $C$DW$65, DW_AT_name("SysCtlPeripheralEnable")
     662                            .dwattr $C$DW$65, DW_AT_TI_call
     663                    
     664 00000082 FFFEF7FF!         BL        SysCtlPeripheralEnable ; [DPU_V7M3_PIPE] |49|  ; [KEEP 32-BIT INS]
     665                            ; CALL OCCURS {SysCtlPeripheralEnable }  ; [] |49| 
     666                            .dwpsn  file "../main.c",line 50,column 5,is_stmt,isa 1
     667                    ;----------------------------------------------------------------------
     668                    ;  50 | SysCtlPeripheralEnable(SYSCTL_PERIPH_UART0);                           
     669                    ;----------------------------------------------------------------------
     670 00000086 481F              LDR       A1, $C$CON11          ; [DPU_V7M3_PIPE] |50|  ; [ORIG 16-BIT INS]
     671                    $C$DW$66        .dwtag  DW_TAG_TI_branch
     672                            .dwattr $C$DW$66, DW_AT_low_pc(0x00)
     673                            .dwattr $C$DW$66, DW_AT_name("SysCtlPeripheralEnable")
     674                            .dwattr $C$DW$66, DW_AT_TI_call
     675                    
     676 00000088 FFFEF7FF!         BL        SysCtlPeripheralEnable ; [DPU_V7M3_PIPE] |50|  ; [KEEP 32-BIT INS]
     677                            ; CALL OCCURS {SysCtlPeripheralEnable }  ; [] |50| 
     678                            .dwpsn  file "../main.c",line 52,column 5,is_stmt,isa 1
     679                    ;----------------------------------------------------------------------
     680                    ;  52 | IntMasterDisable();                                                    
     681                    ;----------------------------------------------------------------------
     682                    $C$DW$67        .dwtag  DW_TAG_TI_branch
     683                            .dwattr $C$DW$67, DW_AT_low_pc(0x00)
     684                            .dwattr $C$DW$67, DW_AT_name("IntMasterDisable")
     685                            .dwattr $C$DW$67, DW_AT_TI_call
     686                    
     687 0000008c FFFEF7FF!         BL        IntMasterDisable      ; [DPU_V7M3_PIPE] |52|  ; [KEEP 32-BIT INS]
     688                            ; CALL OCCURS {IntMasterDisable }  ; [] |52| 
     689                            .dwpsn  file "../main.c",line 53,column 5,is_stmt,isa 1
     690                    ;----------------------------------------------------------------------
     691                    ;  53 | Heater_Init();                                                         
     692                    ;----------------------------------------------------------------------
     693                    $C$DW$68        .dwtag  DW_TAG_TI_branch
     694                            .dwattr $C$DW$68, DW_AT_low_pc(0x00)
     695                            .dwattr $C$DW$68, DW_AT_name("Heater_Init")
     696                            .dwattr $C$DW$68, DW_AT_TI_call
     697                    
     698 00000090 FFFEF7FF!         BL        Heater_Init           ; [DPU_V7M3_PIPE] |53|  ; [KEEP 32-BIT INS]
     699                            ; CALL OCCURS {Heater_Init }     ; [] |53| 
     700                    ;* --------------------------------------------------------------------------*
     701                            .dwpsn  file "../main.c",line 54,column 5,is_stmt,isa 1
     702                    ;----------------------------------------------------------------------
     703                    ;  54 | Buzzer_Init();                                                         
     704                    ;----------------------------------------------------------------------
     705                    $C$DW$69        .dwtag  DW_TAG_TI_branch
     706                            .dwattr $C$DW$69, DW_AT_low_pc(0x00)
     707                            .dwattr $C$DW$69, DW_AT_name("Buzzer_Init")
     708                            .dwattr $C$DW$69, DW_AT_TI_call
     709                    
     710 00000094 FFFEF7FF!         BL        Buzzer_Init           ; [DPU_V7M3_PIPE] |54|  ; [KEEP 32-BIT INS]
     711                            ; CALL OCCURS {Buzzer_Init }     ; [] |54| 
     712                            .dwpsn  file "../main.c",line 55,column 5,is_stmt,isa 1
     713                    ;----------------------------------------------------------------------
     714                    ;  55 | Button_Init();                                                         
     715                    ;----------------------------------------------------------------------
TI ARM Assembler Unix v18.1.1 Fri Jul  3 20:08:22 2020

Tools Copyright (c) 1996-2017 Texas Instruments Incorporated
main.asm                                                             PAGE   14

     716                    $C$DW$70        .dwtag  DW_TAG_TI_branch
     717                            .dwattr $C$DW$70, DW_AT_low_pc(0x00)
     718                            .dwattr $C$DW$70, DW_AT_name("Button_Init")
     719                            .dwattr $C$DW$70, DW_AT_TI_call
     720                    
     721 00000098 FFFEF7FF!         BL        Button_Init           ; [DPU_V7M3_PIPE] |55|  ; [KEEP 32-BIT INS]
     722                            ; CALL OCCURS {Button_Init }     ; [] |55| 
     723                            .dwpsn  file "../main.c",line 56,column 5,is_stmt,isa 1
     724                    ;----------------------------------------------------------------------
     725                    ;  56 | SSD_Init();                                                            
     726                    ;----------------------------------------------------------------------
     727                    $C$DW$71        .dwtag  DW_TAG_TI_branch
     728                            .dwattr $C$DW$71, DW_AT_low_pc(0x00)
     729                            .dwattr $C$DW$71, DW_AT_name("SSD_Init")
     730                            .dwattr $C$DW$71, DW_AT_TI_call
     731                    
     732 0000009c FFFEF7FF!         BL        SSD_Init              ; [DPU_V7M3_PIPE] |56|  ; [KEEP 32-BIT INS]
     733                            ; CALL OCCURS {SSD_Init }        ; [] |56| 
     734                            .dwpsn  file "../main.c",line 57,column 5,is_stmt,isa 1
     735                    ;----------------------------------------------------------------------
     736                    ;  57 | Sound_Init();                                                          
     737                    ;----------------------------------------------------------------------
     738                    $C$DW$72        .dwtag  DW_TAG_TI_branch
     739                            .dwattr $C$DW$72, DW_AT_low_pc(0x00)
     740                            .dwattr $C$DW$72, DW_AT_name("Sound_Init")
     741                            .dwattr $C$DW$72, DW_AT_TI_call
     742                    
     743 000000a0 FFFEF7FF!         BL        Sound_Init            ; [DPU_V7M3_PIPE] |57|  ; [KEEP 32-BIT INS]
     744                            ; CALL OCCURS {Sound_Init }      ; [] |57| 
     745                            .dwpsn  file "../main.c",line 58,column 5,is_stmt,isa 1
     746                    ;----------------------------------------------------------------------
     747                    ;  58 | UWAVE_Init();                                                          
     748                    ;----------------------------------------------------------------------
     749                    $C$DW$73        .dwtag  DW_TAG_TI_branch
     750                            .dwattr $C$DW$73, DW_AT_low_pc(0x00)
     751                            .dwattr $C$DW$73, DW_AT_name("UWAVE_Init")
     752                            .dwattr $C$DW$73, DW_AT_TI_call
     753                    
     754 000000a4 FFFEF7FF!         BL        UWAVE_Init            ; [DPU_V7M3_PIPE] |58|  ; [KEEP 32-BIT INS]
     755                            ; CALL OCCURS {UWAVE_Init }      ; [] |58| 
     756                            .dwpsn  file "../main.c",line 59,column 5,is_stmt,isa 1
     757                    ;----------------------------------------------------------------------
     758                    ;  59 | Debug_Init();                                                          
     759                    ;----------------------------------------------------------------------
     760                    $C$DW$74        .dwtag  DW_TAG_TI_branch
     761                            .dwattr $C$DW$74, DW_AT_low_pc(0x00)
     762                            .dwattr $C$DW$74, DW_AT_name("Debug_Init")
     763                            .dwattr $C$DW$74, DW_AT_TI_call
     764                    
     765 000000a8 FFFEF7FF!         BL        Debug_Init            ; [DPU_V7M3_PIPE] |59|  ; [KEEP 32-BIT INS]
     766                            ; CALL OCCURS {Debug_Init }      ; [] |59| 
     767                            .dwpsn  file "../main.c",line 60,column 5,is_stmt,isa 1
     768                    ;----------------------------------------------------------------------
     769                    ;  60 | IntMasterEnable();                                                     
     770                    ;----------------------------------------------------------------------
TI ARM Assembler Unix v18.1.1 Fri Jul  3 20:08:22 2020

Tools Copyright (c) 1996-2017 Texas Instruments Incorporated
main.asm                                                             PAGE   15

     771                    $C$DW$75        .dwtag  DW_TAG_TI_branch
     772                            .dwattr $C$DW$75, DW_AT_low_pc(0x00)
     773                            .dwattr $C$DW$75, DW_AT_name("IntMasterEnable")
     774                            .dwattr $C$DW$75, DW_AT_TI_call
     775                    
     776 000000ac FFFEF7FF!         BL        IntMasterEnable       ; [DPU_V7M3_PIPE] |60|  ; [KEEP 32-BIT INS]
     777                            ; CALL OCCURS {IntMasterEnable }  ; [] |60| 
     778                            .dwpsn  file "../main.c",line 62,column 5,is_stmt,isa 1
     779                    ;----------------------------------------------------------------------
     780                    ;  62 | Startup_Task_Handle = xTaskCreateStatic(Startup_Task, "Start", 128, 0,
     781                    ;     | 5, Startup_Stack_Buffer, &Startup_TCB);                                
     782                    ;----------------------------------------------------------------------
     783 000000b0 2005              MOVS      A1, #5                ; [DPU_V7M3_PIPE] |62|  ; [ORIG 16-BIT INS]
     784 000000b2 9000              STR       A1, [SP, #0]          ; [DPU_V7M3_PIPE] |62|  ; [ORIG 16-BIT INS]
     785 000000b4 4814              LDR       A1, $C$CON12          ; [DPU_V7M3_PIPE] |62|  ; [ORIG 16-BIT INS]
     786 000000b6 9001              STR       A1, [SP, #4]          ; [DPU_V7M3_PIPE] |62|  ; [ORIG 16-BIT INS]
     787 000000b8 4814              LDR       A1, $C$CON13          ; [DPU_V7M3_PIPE] |62|  ; [ORIG 16-BIT INS]
     788 000000ba 9002              STR       A1, [SP, #8]          ; [DPU_V7M3_PIPE] |62|  ; [ORIG 16-BIT INS]
     789 000000bc 4814              LDR       A1, $C$CON14          ; [DPU_V7M3_PIPE] |62|  ; [ORIG 16-BIT INS]
     790 000000be A105              ADR       A2, $C$SL1            ; [DPU_V7M3_PIPE] |62|  ; [ORIG 16-BIT INS]
     791 000000c0 2280              MOVS      A3, #128              ; [DPU_V7M3_PIPE] |62|  ; [ORIG 16-BIT INS]
     792 000000c2 2300              MOVS      A4, #0                ; [DPU_V7M3_PIPE] |62|  ; [ORIG 16-BIT INS]
     793                    $C$DW$76        .dwtag  DW_TAG_TI_branch
     794                            .dwattr $C$DW$76, DW_AT_low_pc(0x00)
     795                            .dwattr $C$DW$76, DW_AT_name("xTaskCreateStatic")
     796                            .dwattr $C$DW$76, DW_AT_TI_call
     797                    
     798 000000c4 FFFEF7FF!         BL        xTaskCreateStatic     ; [DPU_V7M3_PIPE] |62|  ; [KEEP 32-BIT INS]
     799                            ; CALL OCCURS {xTaskCreateStatic }  ; [] |62| 
     800 000000c8 4906              LDR       A2, $C$CON3           ; [DPU_V7M3_PIPE] |62|  ; [ORIG 16-BIT INS]
     801 000000ca 6008              STR       A1, [A2, #0]          ; [DPU_V7M3_PIPE] |62|  ; [ORIG 16-BIT INS]
     802                            .dwpsn  file "../main.c",line 64,column 5,is_stmt,isa 1
     803                    ;----------------------------------------------------------------------
     804                    ;  64 | vTaskStartScheduler();                                                 
     805                    ;----------------------------------------------------------------------
     806                    $C$DW$77        .dwtag  DW_TAG_TI_branch
     807                            .dwattr $C$DW$77, DW_AT_low_pc(0x00)
     808                            .dwattr $C$DW$77, DW_AT_name("vTaskStartScheduler")
     809                            .dwattr $C$DW$77, DW_AT_TI_call
     810                    
     811 000000cc FFFEF7FF!         BL        vTaskStartScheduler   ; [DPU_V7M3_PIPE] |64|  ; [KEEP 32-BIT INS]
     812                            ; CALL OCCURS {vTaskStartScheduler }  ; [] |64| 
     813                            .dwpsn  file "../main.c",line 66,column 11,is_stmt,isa 1
     814                    ;----------------------------------------------------------------------
     815                    ;  66 | while(1)                                                               
     816                    ;  71 |     return 0;                                                          
     817                    ;----------------------------------------------------------------------
     818                    ;* --------------------------------------------------------------------------*
     819                    ;*   BEGIN LOOP ||$C$L2||
     820                    ;*
     821                    ;*   Loop source line                : 66
     822                    ;*   Loop closing brace source line  : 69
     823                    ;*   Known Minimum Trip Count        : 1
     824                    ;*   Known Maximum Trip Count        : 4294967295
     825                    ;*   Known Max Trip Count Factor     : 1
TI ARM Assembler Unix v18.1.1 Fri Jul  3 20:08:22 2020

Tools Copyright (c) 1996-2017 Texas Instruments Incorporated
main.asm                                                             PAGE   16

     826                    ;* --------------------------------------------------------------------------*
     827 000000d0           ||$C$L2||:    
     828 000000d0 E7FE              B         ||$C$L2||             ; [DPU_V7M3_PIPE] |66|  ; [ORIG 16-BIT INS]
     829                            ; BRANCH OCCURS {||$C$L2||}      ; [] |66| 
     830                    ;* --------------------------------------------------------------------------*
     831                            .dwattr $C$DW$58, DW_AT_TI_end_file("../main.c")
     832                            .dwattr $C$DW$58, DW_AT_TI_end_line(0x48)
     833                            .dwattr $C$DW$58, DW_AT_TI_end_column(0x01)
     834                            .dwendentry
     835                            .dwendtag $C$DW$58
     836                    
     837                    ;******************************************************************************
     838                    ;* STRINGS                                                                    *
     839                    ;******************************************************************************
     840 000000d2                   .sect   ".text"
     841                            .align  4
     842 000000d4 53        ||$C$SL1||:     .string "Start",0
         000000d5 74       
         000000d6 61       
         000000d7 72       
         000000d8 74       
         000000d9 00       
     843                    ;******************************************************************************
     844                    ;* CONSTANT TABLE                                                             *
     845                    ;******************************************************************************
     846 000000da                   .sect   ".text"
     847                            .align  4
     848 000000da 000046C0  ||$C$CON1||:    .bits   1073938432,32
         000000de 00004003 
     849                            .align  4
     850 000000de 20004003  ||$C$CON2||:    .bits   1073946624,32
         000000e2 00004003 
     851                            .align  4
     852 000000e2 00004003! ||$C$CON3||:    .bits   Startup_Task_Handle,32
         000000e6 00000000 
     853                            .align  4
     854 000000e6 08000000  ||$C$CON4||:    .bits   -268433408,32
         000000ea 0000F000 
     855                            .align  4
     856 000000ea 0801F000  ||$C$CON5||:    .bits   -268433407,32
         000000ee 0000F000 
     857                            .align  4
     858 000000ee 0803F000  ||$C$CON6||:    .bits   -268433405,32
         000000f2 0000F000 
     859                            .align  4
     860 000000f2 0804F000  ||$C$CON7||:    .bits   -268433404,32
         000000f6 0000F000 
     861                            .align  4
     862 000000f6 0400F000  ||$C$CON8||:    .bits   -268434432,32
         000000fa 0000F000 
     863                            .align  4
     864 000000fa 0401F000  ||$C$CON9||:    .bits   -268434431,32
         000000fe 0000F000 
     865                            .align  4
     866 000000fe 0402F000  ||$C$CON10||:   .bits   -268434430,32
TI ARM Assembler Unix v18.1.1 Fri Jul  3 20:08:22 2020

Tools Copyright (c) 1996-2017 Texas Instruments Incorporated
main.asm                                                             PAGE   17

         00000102 0000F000 
     867                            .align  4
     868 00000102 1800F000  ||$C$CON11||:   .bits   -268429312,32
         00000106 0000F000 
     869                            .align  4
     870 00000106 0000F000! ||$C$CON12||:   .bits   Startup_Stack_Buffer,32
         0000010a 00000000 
     871                            .align  4
     872 0000010a 00000000! ||$C$CON13||:   .bits   Startup_TCB,32
         0000010e 00000000 
     873                            .align  4
     874 0000010e 00000000! ||$C$CON14||:   .bits   Startup_Task,32
         00000112 00000000 
     875                    ;*****************************************************************************
     876                    ;* UNDEFINED EXTERNAL REFERENCES                                             *
     877                    ;*****************************************************************************
     878                            .global TimerConfigure
     879                            .global TimerPrescaleSet
     880                            .global TimerClockSourceSet
     881                            .global TimerLoadSet
     882                            .global TimerSynchronize
     883                            .global TimerEnable
     884                            .global vTaskSuspend
     885                            .global SysCtlPeripheralEnable
     886                            .global IntMasterDisable
     887                            .global Heater_Init
     888                            .global Buzzer_Init
     889                            .global Button_Init
     890                            .global SSD_Init
     891                            .global Sound_Init
     892                            .global UWAVE_Init
     893                            .global Debug_Init
     894                            .global IntMasterEnable
     895                            .global xTaskCreateStatic
     896                            .global vTaskStartScheduler
     897                    
     898                    ;******************************************************************************
     899                    ;* BUILD ATTRIBUTES                                                           *
     900                    ;******************************************************************************
     901                            .battr "aeabi", Tag_File, 1, Tag_ABI_PCS_wchar_t(2)
     902                            .battr "aeabi", Tag_File, 1, Tag_ABI_FP_rounding(0)
     903                            .battr "aeabi", Tag_File, 1, Tag_ABI_FP_denormal(0)
     904                            .battr "aeabi", Tag_File, 1, Tag_ABI_FP_exceptions(0)
     905                            .battr "aeabi", Tag_File, 1, Tag_ABI_FP_number_model(1)
     906                            .battr "aeabi", Tag_File, 1, Tag_ABI_enum_size(1)
     907                            .battr "aeabi", Tag_File, 1, Tag_ABI_optimization_goals(5)
     908                            .battr "aeabi", Tag_File, 1, Tag_ABI_FP_optimization_goals(0)
     909                            .battr "TI", Tag_File, 1, Tag_Bitfield_layout(2)
     910                            .battr "aeabi", Tag_File, 1, Tag_ABI_VFP_args(3)
     911                            .battr "TI", Tag_File, 1, Tag_FP_interface(1)
     912                    
     913                    ;******************************************************************************
     914                    ;* TYPE INFORMATION                                                           *
     915                    ;******************************************************************************
     916                    
TI ARM Assembler Unix v18.1.1 Fri Jul  3 20:08:22 2020

Tools Copyright (c) 1996-2017 Texas Instruments Incorporated
main.asm                                                             PAGE   18

     917                    $C$DW$T$84      .dwtag  DW_TAG_enumeration_type
     918                            .dwattr $C$DW$T$84, DW_AT_byte_size(0x01)
     919                    $C$DW$78        .dwtag  DW_TAG_enumerator
     920                            .dwattr $C$DW$78, DW_AT_name("eRunning")
     921                            .dwattr $C$DW$78, DW_AT_const_value(0x00)
     922                            .dwattr $C$DW$78, DW_AT_decl_file("../OS/task.h")
     923                            .dwattr $C$DW$78, DW_AT_decl_line(0x49)
     924                            .dwattr $C$DW$78, DW_AT_decl_column(0x02)
     925                    
     926                    $C$DW$79        .dwtag  DW_TAG_enumerator
     927                            .dwattr $C$DW$79, DW_AT_name("eReady")
     928                            .dwattr $C$DW$79, DW_AT_const_value(0x01)
     929                            .dwattr $C$DW$79, DW_AT_decl_file("../OS/task.h")
     930                            .dwattr $C$DW$79, DW_AT_decl_line(0x4a)
     931                            .dwattr $C$DW$79, DW_AT_decl_column(0x02)
     932                    
     933                    $C$DW$80        .dwtag  DW_TAG_enumerator
     934                            .dwattr $C$DW$80, DW_AT_name("eBlocked")
     935                            .dwattr $C$DW$80, DW_AT_const_value(0x02)
     936                            .dwattr $C$DW$80, DW_AT_decl_file("../OS/task.h")
     937                            .dwattr $C$DW$80, DW_AT_decl_line(0x4b)
     938                            .dwattr $C$DW$80, DW_AT_decl_column(0x02)
     939                    
     940                    $C$DW$81        .dwtag  DW_TAG_enumerator
     941                            .dwattr $C$DW$81, DW_AT_name("eSuspended")
     942                            .dwattr $C$DW$81, DW_AT_const_value(0x03)
     943                            .dwattr $C$DW$81, DW_AT_decl_file("../OS/task.h")
     944                            .dwattr $C$DW$81, DW_AT_decl_line(0x4c)
     945                            .dwattr $C$DW$81, DW_AT_decl_column(0x02)
     946                    
     947                    $C$DW$82        .dwtag  DW_TAG_enumerator
     948                            .dwattr $C$DW$82, DW_AT_name("eDeleted")
     949                            .dwattr $C$DW$82, DW_AT_const_value(0x04)
     950                            .dwattr $C$DW$82, DW_AT_decl_file("../OS/task.h")
     951                            .dwattr $C$DW$82, DW_AT_decl_line(0x4d)
     952                            .dwattr $C$DW$82, DW_AT_decl_column(0x02)
     953                    
     954                    $C$DW$83        .dwtag  DW_TAG_enumerator
     955                            .dwattr $C$DW$83, DW_AT_name("eInvalid")
     956                            .dwattr $C$DW$83, DW_AT_const_value(0x05)
     957                            .dwattr $C$DW$83, DW_AT_decl_file("../OS/task.h")
     958                            .dwattr $C$DW$83, DW_AT_decl_line(0x4e)
     959                            .dwattr $C$DW$83, DW_AT_decl_column(0x02)
     960                    
     961                            .dwattr $C$DW$T$84, DW_AT_decl_file("../OS/task.h")
     962                            .dwattr $C$DW$T$84, DW_AT_decl_line(0x48)
     963                            .dwattr $C$DW$T$84, DW_AT_decl_column(0x01)
     964                            .dwendtag $C$DW$T$84
     965                    
     966                    $C$DW$T$85      .dwtag  DW_TAG_typedef
     967                            .dwattr $C$DW$T$85, DW_AT_name("eTaskState")
     968                            .dwattr $C$DW$T$85, DW_AT_type(*$C$DW$T$84)
     969                            .dwattr $C$DW$T$85, DW_AT_language(DW_LANG_C)
     970                            .dwattr $C$DW$T$85, DW_AT_decl_file("../OS/task.h")
     971                            .dwattr $C$DW$T$85, DW_AT_decl_line(0x4f)
TI ARM Assembler Unix v18.1.1 Fri Jul  3 20:08:22 2020

Tools Copyright (c) 1996-2017 Texas Instruments Incorporated
main.asm                                                             PAGE   19

     972                            .dwattr $C$DW$T$85, DW_AT_decl_column(0x03)
     973                    
     974                    
     975                    $C$DW$T$89      .dwtag  DW_TAG_enumeration_type
     976                            .dwattr $C$DW$T$89, DW_AT_byte_size(0x01)
     977                    $C$DW$84        .dwtag  DW_TAG_enumerator
     978                            .dwattr $C$DW$84, DW_AT_name("eNoAction")
     979                            .dwattr $C$DW$84, DW_AT_const_value(0x00)
     980                            .dwattr $C$DW$84, DW_AT_decl_file("../OS/task.h")
     981                            .dwattr $C$DW$84, DW_AT_decl_line(0x54)
     982                            .dwattr $C$DW$84, DW_AT_decl_column(0x02)
     983                    
     984                    $C$DW$85        .dwtag  DW_TAG_enumerator
     985                            .dwattr $C$DW$85, DW_AT_name("eSetBits")
     986                            .dwattr $C$DW$85, DW_AT_const_value(0x01)
     987                            .dwattr $C$DW$85, DW_AT_decl_file("../OS/task.h")
     988                            .dwattr $C$DW$85, DW_AT_decl_line(0x55)
     989                            .dwattr $C$DW$85, DW_AT_decl_column(0x02)
     990                    
     991                    $C$DW$86        .dwtag  DW_TAG_enumerator
     992                            .dwattr $C$DW$86, DW_AT_name("eIncrement")
     993                            .dwattr $C$DW$86, DW_AT_const_value(0x02)
     994                            .dwattr $C$DW$86, DW_AT_decl_file("../OS/task.h")
     995                            .dwattr $C$DW$86, DW_AT_decl_line(0x56)
     996                            .dwattr $C$DW$86, DW_AT_decl_column(0x02)
     997                    
     998                    $C$DW$87        .dwtag  DW_TAG_enumerator
     999                            .dwattr $C$DW$87, DW_AT_name("eSetValueWithOverwrite")
    1000                            .dwattr $C$DW$87, DW_AT_const_value(0x03)
    1001                            .dwattr $C$DW$87, DW_AT_decl_file("../OS/task.h")
    1002                            .dwattr $C$DW$87, DW_AT_decl_line(0x57)
    1003                            .dwattr $C$DW$87, DW_AT_decl_column(0x02)
    1004                    
    1005                    $C$DW$88        .dwtag  DW_TAG_enumerator
    1006                            .dwattr $C$DW$88, DW_AT_name("eSetValueWithoutOverwrite")
    1007                            .dwattr $C$DW$88, DW_AT_const_value(0x04)
    1008                            .dwattr $C$DW$88, DW_AT_decl_file("../OS/task.h")
    1009                            .dwattr $C$DW$88, DW_AT_decl_line(0x58)
    1010                            .dwattr $C$DW$88, DW_AT_decl_column(0x02)
    1011                    
    1012                            .dwattr $C$DW$T$89, DW_AT_decl_file("../OS/task.h")
    1013                            .dwattr $C$DW$T$89, DW_AT_decl_line(0x53)
    1014                            .dwattr $C$DW$T$89, DW_AT_decl_column(0x01)
    1015                            .dwendtag $C$DW$T$89
    1016                    
    1017                    $C$DW$T$90      .dwtag  DW_TAG_typedef
    1018                            .dwattr $C$DW$T$90, DW_AT_name("eNotifyAction")
    1019                            .dwattr $C$DW$T$90, DW_AT_type(*$C$DW$T$89)
    1020                            .dwattr $C$DW$T$90, DW_AT_language(DW_LANG_C)
    1021                            .dwattr $C$DW$T$90, DW_AT_decl_file("../OS/task.h")
    1022                            .dwattr $C$DW$T$90, DW_AT_decl_line(0x59)
    1023                            .dwattr $C$DW$T$90, DW_AT_decl_column(0x03)
    1024                    
    1025                    
    1026                    $C$DW$T$91      .dwtag  DW_TAG_enumeration_type
TI ARM Assembler Unix v18.1.1 Fri Jul  3 20:08:22 2020

Tools Copyright (c) 1996-2017 Texas Instruments Incorporated
main.asm                                                             PAGE   20

    1027                            .dwattr $C$DW$T$91, DW_AT_byte_size(0x01)
    1028                    $C$DW$89        .dwtag  DW_TAG_enumerator
    1029                            .dwattr $C$DW$89, DW_AT_name("eAbortSleep")
    1030                            .dwattr $C$DW$89, DW_AT_const_value(0x00)
    1031                            .dwattr $C$DW$89, DW_AT_decl_file("../OS/task.h")
    1032                            .dwattr $C$DW$89, DW_AT_decl_line(0x91)
    1033                            .dwattr $C$DW$89, DW_AT_decl_column(0x02)
    1034                    
    1035                    $C$DW$90        .dwtag  DW_TAG_enumerator
    1036                            .dwattr $C$DW$90, DW_AT_name("eStandardSleep")
    1037                            .dwattr $C$DW$90, DW_AT_const_value(0x01)
    1038                            .dwattr $C$DW$90, DW_AT_decl_file("../OS/task.h")
    1039                            .dwattr $C$DW$90, DW_AT_decl_line(0x92)
    1040                            .dwattr $C$DW$90, DW_AT_decl_column(0x02)
    1041                    
    1042                    $C$DW$91        .dwtag  DW_TAG_enumerator
    1043                            .dwattr $C$DW$91, DW_AT_name("eNoTasksWaitingTimeout")
    1044                            .dwattr $C$DW$91, DW_AT_const_value(0x02)
    1045                            .dwattr $C$DW$91, DW_AT_decl_file("../OS/task.h")
    1046                            .dwattr $C$DW$91, DW_AT_decl_line(0x93)
    1047                            .dwattr $C$DW$91, DW_AT_decl_column(0x02)
    1048                    
    1049                            .dwattr $C$DW$T$91, DW_AT_decl_file("../OS/task.h")
    1050                            .dwattr $C$DW$T$91, DW_AT_decl_line(0x90)
    1051                            .dwattr $C$DW$T$91, DW_AT_decl_column(0x01)
    1052                            .dwendtag $C$DW$T$91
    1053                    
    1054                    $C$DW$T$92      .dwtag  DW_TAG_typedef
    1055                            .dwattr $C$DW$T$92, DW_AT_name("eSleepModeStatus")
    1056                            .dwattr $C$DW$T$92, DW_AT_type(*$C$DW$T$91)
    1057                            .dwattr $C$DW$T$92, DW_AT_language(DW_LANG_C)
    1058                            .dwattr $C$DW$T$92, DW_AT_decl_file("../OS/task.h")
    1059                            .dwattr $C$DW$T$92, DW_AT_decl_line(0x94)
    1060                            .dwattr $C$DW$T$92, DW_AT_decl_column(0x03)
    1061                    
    1062                    
    1063                    $C$DW$T$93      .dwtag  DW_TAG_enumeration_type
    1064                            .dwattr $C$DW$T$93, DW_AT_byte_size(0x01)
    1065                    $C$DW$92        .dwtag  DW_TAG_enumerator
    1066                            .dwattr $C$DW$92, DW_AT_name("SSD_ONCE")
    1067                            .dwattr $C$DW$92, DW_AT_const_value(0x00)
    1068                            .dwattr $C$DW$92, DW_AT_decl_file("../SSD.h")
    1069                            .dwattr $C$DW$92, DW_AT_decl_line(0x0e)
    1070                            .dwattr $C$DW$92, DW_AT_decl_column(0x05)
    1071                    
    1072                    $C$DW$93        .dwtag  DW_TAG_enumerator
    1073                            .dwattr $C$DW$93, DW_AT_name("SSD_TENTH")
    1074                            .dwattr $C$DW$93, DW_AT_const_value(0x01)
    1075                            .dwattr $C$DW$93, DW_AT_decl_file("../SSD.h")
    1076                            .dwattr $C$DW$93, DW_AT_decl_line(0x0f)
    1077                            .dwattr $C$DW$93, DW_AT_decl_column(0x05)
    1078                    
    1079                            .dwattr $C$DW$T$93, DW_AT_decl_file("../SSD.h")
    1080                            .dwattr $C$DW$T$93, DW_AT_decl_line(0x0d)
    1081                            .dwattr $C$DW$T$93, DW_AT_decl_column(0x0d)
TI ARM Assembler Unix v18.1.1 Fri Jul  3 20:08:22 2020

Tools Copyright (c) 1996-2017 Texas Instruments Incorporated
main.asm                                                             PAGE   21

    1082                            .dwendtag $C$DW$T$93
    1083                    
    1084                    $C$DW$T$94      .dwtag  DW_TAG_typedef
    1085                            .dwattr $C$DW$T$94, DW_AT_name("tSSD")
    1086                            .dwattr $C$DW$T$94, DW_AT_type(*$C$DW$T$93)
    1087                            .dwattr $C$DW$T$94, DW_AT_language(DW_LANG_C)
    1088                            .dwattr $C$DW$T$94, DW_AT_decl_file("../SSD.h")
    1089                            .dwattr $C$DW$T$94, DW_AT_decl_line(0x10)
    1090                            .dwattr $C$DW$T$94, DW_AT_decl_column(0x02)
    1091                    
    1092                    
    1093                    $C$DW$T$95      .dwtag  DW_TAG_enumeration_type
    1094                            .dwattr $C$DW$T$95, DW_AT_byte_size(0x01)
    1095                    $C$DW$94        .dwtag  DW_TAG_enumerator
    1096                            .dwattr $C$DW$94, DW_AT_name("SSD_NUMBER_ZERO")
    1097                            .dwattr $C$DW$94, DW_AT_const_value(0x00)
    1098                            .dwattr $C$DW$94, DW_AT_decl_file("../SSD.h")
    1099                            .dwattr $C$DW$94, DW_AT_decl_line(0x13)
    1100                            .dwattr $C$DW$94, DW_AT_decl_column(0x05)
    1101                    
    1102                    $C$DW$95        .dwtag  DW_TAG_enumerator
    1103                            .dwattr $C$DW$95, DW_AT_name("SSD_NUMBER_ONE")
    1104                            .dwattr $C$DW$95, DW_AT_const_value(0x01)
    1105                            .dwattr $C$DW$95, DW_AT_decl_file("../SSD.h")
    1106                            .dwattr $C$DW$95, DW_AT_decl_line(0x14)
    1107                            .dwattr $C$DW$95, DW_AT_decl_column(0x05)
    1108                    
    1109                    $C$DW$96        .dwtag  DW_TAG_enumerator
    1110                            .dwattr $C$DW$96, DW_AT_name("SSD_NUMBER_TWO")
    1111                            .dwattr $C$DW$96, DW_AT_const_value(0x02)
    1112                            .dwattr $C$DW$96, DW_AT_decl_file("../SSD.h")
    1113                            .dwattr $C$DW$96, DW_AT_decl_line(0x15)
    1114                            .dwattr $C$DW$96, DW_AT_decl_column(0x05)
    1115                    
    1116                    $C$DW$97        .dwtag  DW_TAG_enumerator
    1117                            .dwattr $C$DW$97, DW_AT_name("SSD_NUMBER_THREE")
    1118                            .dwattr $C$DW$97, DW_AT_const_value(0x03)
    1119                            .dwattr $C$DW$97, DW_AT_decl_file("../SSD.h")
    1120                            .dwattr $C$DW$97, DW_AT_decl_line(0x16)
    1121                            .dwattr $C$DW$97, DW_AT_decl_column(0x05)
    1122                    
    1123                    $C$DW$98        .dwtag  DW_TAG_enumerator
    1124                            .dwattr $C$DW$98, DW_AT_name("SSD_NUMBER_FOUR")
    1125                            .dwattr $C$DW$98, DW_AT_const_value(0x04)
    1126                            .dwattr $C$DW$98, DW_AT_decl_file("../SSD.h")
    1127                            .dwattr $C$DW$98, DW_AT_decl_line(0x17)
    1128                            .dwattr $C$DW$98, DW_AT_decl_column(0x05)
    1129                    
    1130                    $C$DW$99        .dwtag  DW_TAG_enumerator
    1131                            .dwattr $C$DW$99, DW_AT_name("SSD_NUMBER_FIVE")
    1132                            .dwattr $C$DW$99, DW_AT_const_value(0x05)
    1133                            .dwattr $C$DW$99, DW_AT_decl_file("../SSD.h")
    1134                            .dwattr $C$DW$99, DW_AT_decl_line(0x18)
    1135                            .dwattr $C$DW$99, DW_AT_decl_column(0x05)
    1136                    
TI ARM Assembler Unix v18.1.1 Fri Jul  3 20:08:22 2020

Tools Copyright (c) 1996-2017 Texas Instruments Incorporated
main.asm                                                             PAGE   22

    1137                    $C$DW$100       .dwtag  DW_TAG_enumerator
    1138                            .dwattr $C$DW$100, DW_AT_name("SSD_NUMBER_SIX")
    1139                            .dwattr $C$DW$100, DW_AT_const_value(0x06)
    1140                            .dwattr $C$DW$100, DW_AT_decl_file("../SSD.h")
    1141                            .dwattr $C$DW$100, DW_AT_decl_line(0x19)
    1142                            .dwattr $C$DW$100, DW_AT_decl_column(0x05)
    1143                    
    1144                    $C$DW$101       .dwtag  DW_TAG_enumerator
    1145                            .dwattr $C$DW$101, DW_AT_name("SSD_NUMBER_SEVEN")
    1146                            .dwattr $C$DW$101, DW_AT_const_value(0x07)
    1147                            .dwattr $C$DW$101, DW_AT_decl_file("../SSD.h")
    1148                            .dwattr $C$DW$101, DW_AT_decl_line(0x1a)
    1149                            .dwattr $C$DW$101, DW_AT_decl_column(0x05)
    1150                    
    1151                    $C$DW$102       .dwtag  DW_TAG_enumerator
    1152                            .dwattr $C$DW$102, DW_AT_name("SSD_NUMBER_EIGHT")
    1153                            .dwattr $C$DW$102, DW_AT_const_value(0x08)
    1154                            .dwattr $C$DW$102, DW_AT_decl_file("../SSD.h")
    1155                            .dwattr $C$DW$102, DW_AT_decl_line(0x1b)
    1156                            .dwattr $C$DW$102, DW_AT_decl_column(0x05)
    1157                    
    1158                    $C$DW$103       .dwtag  DW_TAG_enumerator
    1159                            .dwattr $C$DW$103, DW_AT_name("SSD_NUMBER_NINE")
    1160                            .dwattr $C$DW$103, DW_AT_const_value(0x09)
    1161                            .dwattr $C$DW$103, DW_AT_decl_file("../SSD.h")
    1162                            .dwattr $C$DW$103, DW_AT_decl_line(0x1c)
    1163                            .dwattr $C$DW$103, DW_AT_decl_column(0x05)
    1164                    
    1165                    $C$DW$104       .dwtag  DW_TAG_enumerator
    1166                            .dwattr $C$DW$104, DW_AT_name("SSD_NUMBER_NULL")
    1167                            .dwattr $C$DW$104, DW_AT_const_value(0x0a)
    1168                            .dwattr $C$DW$104, DW_AT_decl_file("../SSD.h")
    1169                            .dwattr $C$DW$104, DW_AT_decl_line(0x1d)
    1170                            .dwattr $C$DW$104, DW_AT_decl_column(0x05)
    1171                    
    1172                            .dwattr $C$DW$T$95, DW_AT_decl_file("../SSD.h")
    1173                            .dwattr $C$DW$T$95, DW_AT_decl_line(0x12)
    1174                            .dwattr $C$DW$T$95, DW_AT_decl_column(0x0d)
    1175                            .dwendtag $C$DW$T$95
    1176                    
    1177                    $C$DW$T$96      .dwtag  DW_TAG_typedef
    1178                            .dwattr $C$DW$T$96, DW_AT_name("tSSD_Symbol")
    1179                            .dwattr $C$DW$T$96, DW_AT_type(*$C$DW$T$95)
    1180                            .dwattr $C$DW$T$96, DW_AT_language(DW_LANG_C)
    1181                            .dwattr $C$DW$T$96, DW_AT_decl_file("../SSD.h")
    1182                            .dwattr $C$DW$T$96, DW_AT_decl_line(0x1e)
    1183                            .dwattr $C$DW$T$96, DW_AT_decl_column(0x02)
    1184                    
    1185                    
    1186                    $C$DW$T$97      .dwtag  DW_TAG_enumeration_type
    1187                            .dwattr $C$DW$T$97, DW_AT_byte_size(0x01)
    1188                    $C$DW$105       .dwtag  DW_TAG_enumerator
    1189                            .dwattr $C$DW$105, DW_AT_name("BUTTON_UP")
    1190                            .dwattr $C$DW$105, DW_AT_const_value(0x00)
    1191                            .dwattr $C$DW$105, DW_AT_decl_file("../Button.h")
TI ARM Assembler Unix v18.1.1 Fri Jul  3 20:08:22 2020

Tools Copyright (c) 1996-2017 Texas Instruments Incorporated
main.asm                                                             PAGE   23

    1192                            .dwattr $C$DW$105, DW_AT_decl_line(0x0c)
    1193                            .dwattr $C$DW$105, DW_AT_decl_column(0x05)
    1194                    
    1195                    $C$DW$106       .dwtag  DW_TAG_enumerator
    1196                            .dwattr $C$DW$106, DW_AT_name("BUTTON_DOWN")
    1197                            .dwattr $C$DW$106, DW_AT_const_value(0x01)
    1198                            .dwattr $C$DW$106, DW_AT_decl_file("../Button.h")
    1199                            .dwattr $C$DW$106, DW_AT_decl_line(0x0d)
    1200                            .dwattr $C$DW$106, DW_AT_decl_column(0x05)
    1201                    
    1202                    $C$DW$107       .dwtag  DW_TAG_enumerator
    1203                            .dwattr $C$DW$107, DW_AT_name("BUTTON_OK")
    1204                            .dwattr $C$DW$107, DW_AT_const_value(0x02)
    1205                            .dwattr $C$DW$107, DW_AT_decl_file("../Button.h")
    1206                            .dwattr $C$DW$107, DW_AT_decl_line(0x0e)
    1207                            .dwattr $C$DW$107, DW_AT_decl_column(0x05)
    1208                    
    1209                    $C$DW$108       .dwtag  DW_TAG_enumerator
    1210                            .dwattr $C$DW$108, DW_AT_name("BUTTON_COUNT")
    1211                            .dwattr $C$DW$108, DW_AT_const_value(0x03)
    1212                            .dwattr $C$DW$108, DW_AT_decl_file("../Button.h")
    1213                            .dwattr $C$DW$108, DW_AT_decl_line(0x0f)
    1214                            .dwattr $C$DW$108, DW_AT_decl_column(0x05)
    1215                    
    1216                            .dwattr $C$DW$T$97, DW_AT_decl_file("../Button.h")
    1217                            .dwattr $C$DW$T$97, DW_AT_decl_line(0x0b)
    1218                            .dwattr $C$DW$T$97, DW_AT_decl_column(0x0d)
    1219                            .dwendtag $C$DW$T$97
    1220                    
    1221                    $C$DW$T$98      .dwtag  DW_TAG_typedef
    1222                            .dwattr $C$DW$T$98, DW_AT_name("tButton")
    1223                            .dwattr $C$DW$T$98, DW_AT_type(*$C$DW$T$97)
    1224                            .dwattr $C$DW$T$98, DW_AT_language(DW_LANG_C)
    1225                            .dwattr $C$DW$T$98, DW_AT_decl_file("../Button.h")
    1226                            .dwattr $C$DW$T$98, DW_AT_decl_line(0x10)
    1227                            .dwattr $C$DW$T$98, DW_AT_decl_column(0x02)
    1228                    
    1229                    
    1230                    $C$DW$T$99      .dwtag  DW_TAG_enumeration_type
    1231                            .dwattr $C$DW$T$99, DW_AT_byte_size(0x01)
    1232                    $C$DW$109       .dwtag  DW_TAG_enumerator
    1233                            .dwattr $C$DW$109, DW_AT_name("BUTTON_RELEASED")
    1234                            .dwattr $C$DW$109, DW_AT_const_value(0x00)
    1235                            .dwattr $C$DW$109, DW_AT_decl_file("../Button.h")
    1236                            .dwattr $C$DW$109, DW_AT_decl_line(0x13)
    1237                            .dwattr $C$DW$109, DW_AT_decl_column(0x05)
    1238                    
    1239                    $C$DW$110       .dwtag  DW_TAG_enumerator
    1240                            .dwattr $C$DW$110, DW_AT_name("BUTTON_PRESSED")
    1241                            .dwattr $C$DW$110, DW_AT_const_value(0x01)
    1242                            .dwattr $C$DW$110, DW_AT_decl_file("../Button.h")
    1243                            .dwattr $C$DW$110, DW_AT_decl_line(0x14)
    1244                            .dwattr $C$DW$110, DW_AT_decl_column(0x05)
    1245                    
    1246                            .dwattr $C$DW$T$99, DW_AT_decl_file("../Button.h")
TI ARM Assembler Unix v18.1.1 Fri Jul  3 20:08:22 2020

Tools Copyright (c) 1996-2017 Texas Instruments Incorporated
main.asm                                                             PAGE   24

    1247                            .dwattr $C$DW$T$99, DW_AT_decl_line(0x12)
    1248                            .dwattr $C$DW$T$99, DW_AT_decl_column(0x0d)
    1249                            .dwendtag $C$DW$T$99
    1250                    
    1251                    $C$DW$T$100     .dwtag  DW_TAG_typedef
    1252                            .dwattr $C$DW$T$100, DW_AT_name("tButton_State")
    1253                            .dwattr $C$DW$T$100, DW_AT_type(*$C$DW$T$99)
    1254                            .dwattr $C$DW$T$100, DW_AT_language(DW_LANG_C)
    1255                            .dwattr $C$DW$T$100, DW_AT_decl_file("../Button.h")
    1256                            .dwattr $C$DW$T$100, DW_AT_decl_line(0x15)
    1257                            .dwattr $C$DW$T$100, DW_AT_decl_column(0x02)
    1258                    
    1259                    
    1260                    $C$DW$T$101     .dwtag  DW_TAG_enumeration_type
    1261                            .dwattr $C$DW$T$101, DW_AT_byte_size(0x01)
    1262                    $C$DW$111       .dwtag  DW_TAG_enumerator
    1263                            .dwattr $C$DW$111, DW_AT_name("HEATER_OFF")
    1264                            .dwattr $C$DW$111, DW_AT_const_value(0x00)
    1265                            .dwattr $C$DW$111, DW_AT_decl_file("../Heater.h")
    1266                            .dwattr $C$DW$111, DW_AT_decl_line(0x0c)
    1267                            .dwattr $C$DW$111, DW_AT_decl_column(0x05)
    1268                    
    1269                    $C$DW$112       .dwtag  DW_TAG_enumerator
    1270                            .dwattr $C$DW$112, DW_AT_name("HEATER_ON")
    1271                            .dwattr $C$DW$112, DW_AT_const_value(0x01)
    1272                            .dwattr $C$DW$112, DW_AT_decl_file("../Heater.h")
    1273                            .dwattr $C$DW$112, DW_AT_decl_line(0x0d)
    1274                            .dwattr $C$DW$112, DW_AT_decl_column(0x05)
    1275                    
    1276                            .dwattr $C$DW$T$101, DW_AT_decl_file("../Heater.h")
    1277                            .dwattr $C$DW$T$101, DW_AT_decl_line(0x0b)
    1278                            .dwattr $C$DW$T$101, DW_AT_decl_column(0x0d)
    1279                            .dwendtag $C$DW$T$101
    1280                    
    1281                    $C$DW$T$102     .dwtag  DW_TAG_typedef
    1282                            .dwattr $C$DW$T$102, DW_AT_name("tHeater_State")
    1283                            .dwattr $C$DW$T$102, DW_AT_type(*$C$DW$T$101)
    1284                            .dwattr $C$DW$T$102, DW_AT_language(DW_LANG_C)
    1285                            .dwattr $C$DW$T$102, DW_AT_decl_file("../Heater.h")
    1286                            .dwattr $C$DW$T$102, DW_AT_decl_line(0x0e)
    1287                            .dwattr $C$DW$T$102, DW_AT_decl_column(0x02)
    1288                    
    1289                    
    1290                    $C$DW$T$103     .dwtag  DW_TAG_enumeration_type
    1291                            .dwattr $C$DW$T$103, DW_AT_byte_size(0x01)
    1292                    $C$DW$113       .dwtag  DW_TAG_enumerator
    1293                            .dwattr $C$DW$113, DW_AT_name("SOUND_BEEP")
    1294                            .dwattr $C$DW$113, DW_AT_const_value(0x00)
    1295                            .dwattr $C$DW$113, DW_AT_decl_file("../Sound.h")
    1296                            .dwattr $C$DW$113, DW_AT_decl_line(0x0c)
    1297                            .dwattr $C$DW$113, DW_AT_decl_column(0x05)
    1298                    
    1299                    $C$DW$114       .dwtag  DW_TAG_enumerator
    1300                            .dwattr $C$DW$114, DW_AT_name("SOUND_TIMEOUT")
    1301                            .dwattr $C$DW$114, DW_AT_const_value(0x01)
TI ARM Assembler Unix v18.1.1 Fri Jul  3 20:08:22 2020

Tools Copyright (c) 1996-2017 Texas Instruments Incorporated
main.asm                                                             PAGE   25

    1302                            .dwattr $C$DW$114, DW_AT_decl_file("../Sound.h")
    1303                            .dwattr $C$DW$114, DW_AT_decl_line(0x0d)
    1304                            .dwattr $C$DW$114, DW_AT_decl_column(0x05)
    1305                    
    1306                            .dwattr $C$DW$T$103, DW_AT_decl_file("../Sound.h")
    1307                            .dwattr $C$DW$T$103, DW_AT_decl_line(0x0b)
    1308                            .dwattr $C$DW$T$103, DW_AT_decl_column(0x0d)
    1309                            .dwendtag $C$DW$T$103
    1310                    
    1311                    $C$DW$T$104     .dwtag  DW_TAG_typedef
    1312                            .dwattr $C$DW$T$104, DW_AT_name("tSound")
    1313                            .dwattr $C$DW$T$104, DW_AT_type(*$C$DW$T$103)
    1314                            .dwattr $C$DW$T$104, DW_AT_language(DW_LANG_C)
    1315                            .dwattr $C$DW$T$104, DW_AT_decl_file("../Sound.h")
    1316                            .dwattr $C$DW$T$104, DW_AT_decl_line(0x0e)
    1317                            .dwattr $C$DW$T$104, DW_AT_decl_column(0x02)
    1318                    
    1319                    
    1320                    $C$DW$T$105     .dwtag  DW_TAG_enumeration_type
    1321                            .dwattr $C$DW$T$105, DW_AT_byte_size(0x01)
    1322                    $C$DW$115       .dwtag  DW_TAG_enumerator
    1323                            .dwattr $C$DW$115, DW_AT_name("BUZZER_OFF")
    1324                            .dwattr $C$DW$115, DW_AT_const_value(0x00)
    1325                            .dwattr $C$DW$115, DW_AT_decl_file("../Buzzer.h")
    1326                            .dwattr $C$DW$115, DW_AT_decl_line(0x0c)
    1327                            .dwattr $C$DW$115, DW_AT_decl_column(0x05)
    1328                    
    1329                    $C$DW$116       .dwtag  DW_TAG_enumerator
    1330                            .dwattr $C$DW$116, DW_AT_name("BUZZER_ON")
    1331                            .dwattr $C$DW$116, DW_AT_const_value(0x01)
    1332                            .dwattr $C$DW$116, DW_AT_decl_file("../Buzzer.h")
    1333                            .dwattr $C$DW$116, DW_AT_decl_line(0x0d)
    1334                            .dwattr $C$DW$116, DW_AT_decl_column(0x05)
    1335                    
    1336                            .dwattr $C$DW$T$105, DW_AT_decl_file("../Buzzer.h")
    1337                            .dwattr $C$DW$T$105, DW_AT_decl_line(0x0b)
    1338                            .dwattr $C$DW$T$105, DW_AT_decl_column(0x0d)
    1339                            .dwendtag $C$DW$T$105
    1340                    
    1341                    $C$DW$T$106     .dwtag  DW_TAG_typedef
    1342                            .dwattr $C$DW$T$106, DW_AT_name("tBuzzer_State")
    1343                            .dwattr $C$DW$T$106, DW_AT_type(*$C$DW$T$105)
    1344                            .dwattr $C$DW$T$106, DW_AT_language(DW_LANG_C)
    1345                            .dwattr $C$DW$T$106, DW_AT_decl_file("../Buzzer.h")
    1346                            .dwattr $C$DW$T$106, DW_AT_decl_line(0x0e)
    1347                            .dwattr $C$DW$T$106, DW_AT_decl_column(0x02)
    1348                    
    1349                    
    1350                    $C$DW$T$22      .dwtag  DW_TAG_structure_type
    1351                            .dwattr $C$DW$T$22, DW_AT_byte_size(0x10)
    1352                    $C$DW$117       .dwtag  DW_TAG_member
    1353                            .dwattr $C$DW$117, DW_AT_type(*$C$DW$T$14)
    1354                            .dwattr $C$DW$117, DW_AT_name("__max_align1")
    1355                            .dwattr $C$DW$117, DW_AT_TI_symbol_name("__max_align1")
    1356                            .dwattr $C$DW$117, DW_AT_data_member_location[DW_OP_plus_uconst 0x0]
TI ARM Assembler Unix v18.1.1 Fri Jul  3 20:08:22 2020

Tools Copyright (c) 1996-2017 Texas Instruments Incorporated
main.asm                                                             PAGE   26

    1357                            .dwattr $C$DW$117, DW_AT_accessibility(DW_ACCESS_public)
    1358                            .dwattr $C$DW$117, DW_AT_decl_file("/home/pola/ti/ccsv8/tools/compiler/ti-cgt-arm_18.1.1.LTS/i
    1359                            .dwattr $C$DW$117, DW_AT_decl_line(0x70)
    1360                            .dwattr $C$DW$117, DW_AT_decl_column(0x0c)
    1361                    
    1362                    $C$DW$118       .dwtag  DW_TAG_member
    1363                            .dwattr $C$DW$118, DW_AT_type(*$C$DW$T$18)
    1364                            .dwattr $C$DW$118, DW_AT_name("__max_align2")
    1365                            .dwattr $C$DW$118, DW_AT_TI_symbol_name("__max_align2")
    1366                            .dwattr $C$DW$118, DW_AT_data_member_location[DW_OP_plus_uconst 0x8]
    1367                            .dwattr $C$DW$118, DW_AT_accessibility(DW_ACCESS_public)
    1368                            .dwattr $C$DW$118, DW_AT_decl_file("/home/pola/ti/ccsv8/tools/compiler/ti-cgt-arm_18.1.1.LTS/i
    1369                            .dwattr $C$DW$118, DW_AT_decl_line(0x71)
    1370                            .dwattr $C$DW$118, DW_AT_decl_column(0x0e)
    1371                    
    1372                            .dwattr $C$DW$T$22, DW_AT_decl_file("/home/pola/ti/ccsv8/tools/compiler/ti-cgt-arm_18.1.1.LTS/
    1373                            .dwattr $C$DW$T$22, DW_AT_decl_line(0x6f)
    1374                            .dwattr $C$DW$T$22, DW_AT_decl_column(0x10)
    1375                            .dwendtag $C$DW$T$22
    1376                    
    1377                    $C$DW$T$107     .dwtag  DW_TAG_typedef
    1378                            .dwattr $C$DW$T$107, DW_AT_name("__max_align_t")
    1379                            .dwattr $C$DW$T$107, DW_AT_type(*$C$DW$T$22)
    1380                            .dwattr $C$DW$T$107, DW_AT_language(DW_LANG_C)
    1381                            .dwattr $C$DW$T$107, DW_AT_decl_file("/home/pola/ti/ccsv8/tools/compiler/ti-cgt-arm_18.1.1.LTS
    1382                            .dwattr $C$DW$T$107, DW_AT_decl_line(0x72)
    1383                            .dwattr $C$DW$T$107, DW_AT_decl_column(0x03)
    1384                    
    1385                    
    1386                    $C$DW$T$23      .dwtag  DW_TAG_structure_type
    1387                            .dwattr $C$DW$T$23, DW_AT_byte_size(0x08)
    1388                    $C$DW$119       .dwtag  DW_TAG_member
    1389                            .dwattr $C$DW$119, DW_AT_type(*$C$DW$T$10)
    1390                            .dwattr $C$DW$119, DW_AT_name("quot")
    1391                            .dwattr $C$DW$119, DW_AT_TI_symbol_name("quot")
    1392                            .dwattr $C$DW$119, DW_AT_data_member_location[DW_OP_plus_uconst 0x0]
    1393                            .dwattr $C$DW$119, DW_AT_accessibility(DW_ACCESS_public)
    1394                            .dwattr $C$DW$119, DW_AT_decl_file("/home/pola/ti/ccsv8/tools/compiler/ti-cgt-arm_18.1.1.LTS/i
    1395                            .dwattr $C$DW$119, DW_AT_decl_line(0x49)
    1396                            .dwattr $C$DW$119, DW_AT_decl_column(0x16)
    1397                    
    1398                    $C$DW$120       .dwtag  DW_TAG_member
    1399                            .dwattr $C$DW$120, DW_AT_type(*$C$DW$T$10)
    1400                            .dwattr $C$DW$120, DW_AT_name("rem")
    1401                            .dwattr $C$DW$120, DW_AT_TI_symbol_name("rem")
    1402                            .dwattr $C$DW$120, DW_AT_data_member_location[DW_OP_plus_uconst 0x4]
    1403                            .dwattr $C$DW$120, DW_AT_accessibility(DW_ACCESS_public)
    1404                            .dwattr $C$DW$120, DW_AT_decl_file("/home/pola/ti/ccsv8/tools/compiler/ti-cgt-arm_18.1.1.LTS/i
    1405                            .dwattr $C$DW$120, DW_AT_decl_line(0x49)
    1406                            .dwattr $C$DW$120, DW_AT_decl_column(0x1c)
    1407                    
    1408                            .dwattr $C$DW$T$23, DW_AT_decl_file("/home/pola/ti/ccsv8/tools/compiler/ti-cgt-arm_18.1.1.LTS/
    1409                            .dwattr $C$DW$T$23, DW_AT_decl_line(0x49)
    1410                            .dwattr $C$DW$T$23, DW_AT_decl_column(0x10)
    1411                            .dwendtag $C$DW$T$23
TI ARM Assembler Unix v18.1.1 Fri Jul  3 20:08:22 2020

Tools Copyright (c) 1996-2017 Texas Instruments Incorporated
main.asm                                                             PAGE   27

    1412                    
    1413                    $C$DW$T$108     .dwtag  DW_TAG_typedef
    1414                            .dwattr $C$DW$T$108, DW_AT_name("div_t")
    1415                            .dwattr $C$DW$T$108, DW_AT_type(*$C$DW$T$23)
    1416                            .dwattr $C$DW$T$108, DW_AT_language(DW_LANG_C)
    1417                            .dwattr $C$DW$T$108, DW_AT_decl_file("/home/pola/ti/ccsv8/tools/compiler/ti-cgt-arm_18.1.1.LTS
    1418                            .dwattr $C$DW$T$108, DW_AT_decl_line(0x49)
    1419                            .dwattr $C$DW$T$108, DW_AT_decl_column(0x23)
    1420                    
    1421                    
    1422                    $C$DW$T$24      .dwtag  DW_TAG_structure_type
    1423                            .dwattr $C$DW$T$24, DW_AT_byte_size(0x08)
    1424                    $C$DW$121       .dwtag  DW_TAG_member
    1425                            .dwattr $C$DW$121, DW_AT_type(*$C$DW$T$10)
    1426                            .dwattr $C$DW$121, DW_AT_name("quot")
    1427                            .dwattr $C$DW$121, DW_AT_TI_symbol_name("quot")
    1428                            .dwattr $C$DW$121, DW_AT_data_member_location[DW_OP_plus_uconst 0x0]
    1429                            .dwattr $C$DW$121, DW_AT_accessibility(DW_ACCESS_public)
    1430                            .dwattr $C$DW$121, DW_AT_decl_file("/home/pola/ti/ccsv8/tools/compiler/ti-cgt-arm_18.1.1.LTS/i
    1431                            .dwattr $C$DW$121, DW_AT_decl_line(0x4e)
    1432                            .dwattr $C$DW$121, DW_AT_decl_column(0x16)
    1433                    
    1434                    $C$DW$122       .dwtag  DW_TAG_member
    1435                            .dwattr $C$DW$122, DW_AT_type(*$C$DW$T$10)
    1436                            .dwattr $C$DW$122, DW_AT_name("rem")
    1437                            .dwattr $C$DW$122, DW_AT_TI_symbol_name("rem")
    1438                            .dwattr $C$DW$122, DW_AT_data_member_location[DW_OP_plus_uconst 0x4]
    1439                            .dwattr $C$DW$122, DW_AT_accessibility(DW_ACCESS_public)
    1440                            .dwattr $C$DW$122, DW_AT_decl_file("/home/pola/ti/ccsv8/tools/compiler/ti-cgt-arm_18.1.1.LTS/i
    1441                            .dwattr $C$DW$122, DW_AT_decl_line(0x4e)
    1442                            .dwattr $C$DW$122, DW_AT_decl_column(0x1c)
    1443                    
    1444                            .dwattr $C$DW$T$24, DW_AT_decl_file("/home/pola/ti/ccsv8/tools/compiler/ti-cgt-arm_18.1.1.LTS/
    1445                            .dwattr $C$DW$T$24, DW_AT_decl_line(0x4e)
    1446                            .dwattr $C$DW$T$24, DW_AT_decl_column(0x10)
    1447                            .dwendtag $C$DW$T$24
    1448                    
    1449                    $C$DW$T$109     .dwtag  DW_TAG_typedef
    1450                            .dwattr $C$DW$T$109, DW_AT_name("ldiv_t")
    1451                            .dwattr $C$DW$T$109, DW_AT_type(*$C$DW$T$24)
    1452                            .dwattr $C$DW$T$109, DW_AT_language(DW_LANG_C)
    1453                            .dwattr $C$DW$T$109, DW_AT_decl_file("/home/pola/ti/ccsv8/tools/compiler/ti-cgt-arm_18.1.1.LTS
    1454                            .dwattr $C$DW$T$109, DW_AT_decl_line(0x4e)
    1455                            .dwattr $C$DW$T$109, DW_AT_decl_column(0x23)
    1456                    
    1457                    
    1458                    $C$DW$T$25      .dwtag  DW_TAG_structure_type
    1459                            .dwattr $C$DW$T$25, DW_AT_byte_size(0x10)
    1460                    $C$DW$123       .dwtag  DW_TAG_member
    1461                            .dwattr $C$DW$123, DW_AT_type(*$C$DW$T$14)
    1462                            .dwattr $C$DW$123, DW_AT_name("quot")
    1463                            .dwattr $C$DW$123, DW_AT_TI_symbol_name("quot")
    1464                            .dwattr $C$DW$123, DW_AT_data_member_location[DW_OP_plus_uconst 0x0]
    1465                            .dwattr $C$DW$123, DW_AT_accessibility(DW_ACCESS_public)
    1466                            .dwattr $C$DW$123, DW_AT_decl_file("/home/pola/ti/ccsv8/tools/compiler/ti-cgt-arm_18.1.1.LTS/i
TI ARM Assembler Unix v18.1.1 Fri Jul  3 20:08:22 2020

Tools Copyright (c) 1996-2017 Texas Instruments Incorporated
main.asm                                                             PAGE   28

    1467                            .dwattr $C$DW$123, DW_AT_decl_line(0x56)
    1468                            .dwattr $C$DW$123, DW_AT_decl_column(0x1c)
    1469                    
    1470                    $C$DW$124       .dwtag  DW_TAG_member
    1471                            .dwattr $C$DW$124, DW_AT_type(*$C$DW$T$14)
    1472                            .dwattr $C$DW$124, DW_AT_name("rem")
    1473                            .dwattr $C$DW$124, DW_AT_TI_symbol_name("rem")
    1474                            .dwattr $C$DW$124, DW_AT_data_member_location[DW_OP_plus_uconst 0x8]
    1475                            .dwattr $C$DW$124, DW_AT_accessibility(DW_ACCESS_public)
    1476                            .dwattr $C$DW$124, DW_AT_decl_file("/home/pola/ti/ccsv8/tools/compiler/ti-cgt-arm_18.1.1.LTS/i
    1477                            .dwattr $C$DW$124, DW_AT_decl_line(0x56)
    1478                            .dwattr $C$DW$124, DW_AT_decl_column(0x22)
    1479                    
    1480                            .dwattr $C$DW$T$25, DW_AT_decl_file("/home/pola/ti/ccsv8/tools/compiler/ti-cgt-arm_18.1.1.LTS/
    1481                            .dwattr $C$DW$T$25, DW_AT_decl_line(0x56)
    1482                            .dwattr $C$DW$T$25, DW_AT_decl_column(0x10)
    1483                            .dwendtag $C$DW$T$25
    1484                    
    1485                    $C$DW$T$110     .dwtag  DW_TAG_typedef
    1486                            .dwattr $C$DW$T$110, DW_AT_name("lldiv_t")
    1487                            .dwattr $C$DW$T$110, DW_AT_type(*$C$DW$T$25)
    1488                            .dwattr $C$DW$T$110, DW_AT_language(DW_LANG_C)
    1489                            .dwattr $C$DW$T$110, DW_AT_decl_file("/home/pola/ti/ccsv8/tools/compiler/ti-cgt-arm_18.1.1.LTS
    1490                            .dwattr $C$DW$T$110, DW_AT_decl_line(0x56)
    1491                            .dwattr $C$DW$T$110, DW_AT_decl_column(0x29)
    1492                    
    1493                    
    1494                    $C$DW$T$27      .dwtag  DW_TAG_union_type
    1495                            .dwattr $C$DW$T$27, DW_AT_byte_size(0x04)
    1496                    $C$DW$125       .dwtag  DW_TAG_member
    1497                            .dwattr $C$DW$125, DW_AT_type(*$C$DW$T$3)
    1498                            .dwattr $C$DW$125, DW_AT_name("pvDummy2")
    1499                            .dwattr $C$DW$125, DW_AT_TI_symbol_name("pvDummy2")
    1500                            .dwattr $C$DW$125, DW_AT_data_member_location[DW_OP_plus_uconst 0x0]
    1501                            .dwattr $C$DW$125, DW_AT_accessibility(DW_ACCESS_public)
    1502                            .dwattr $C$DW$125, DW_AT_decl_file("../OS/FreeRTOS.h")
    1503                            .dwattr $C$DW$125, DW_AT_decl_line(0x42d)
    1504                            .dwattr $C$DW$125, DW_AT_decl_column(0x09)
    1505                    
    1506                    $C$DW$126       .dwtag  DW_TAG_member
    1507                            .dwattr $C$DW$126, DW_AT_type(*$C$DW$T$26)
    1508                            .dwattr $C$DW$126, DW_AT_name("uxDummy2")
    1509                            .dwattr $C$DW$126, DW_AT_TI_symbol_name("uxDummy2")
    1510                            .dwattr $C$DW$126, DW_AT_data_member_location[DW_OP_plus_uconst 0x0]
    1511                            .dwattr $C$DW$126, DW_AT_accessibility(DW_ACCESS_public)
    1512                            .dwattr $C$DW$126, DW_AT_decl_file("../OS/FreeRTOS.h")
    1513                            .dwattr $C$DW$126, DW_AT_decl_line(0x42e)
    1514                            .dwattr $C$DW$126, DW_AT_decl_column(0x0f)
    1515                    
    1516                            .dwattr $C$DW$T$27, DW_AT_decl_file("../OS/FreeRTOS.h")
    1517                            .dwattr $C$DW$T$27, DW_AT_decl_line(0x42c)
    1518                            .dwattr $C$DW$T$27, DW_AT_decl_column(0x02)
    1519                            .dwendtag $C$DW$T$27
    1520                    
    1521                    
TI ARM Assembler Unix v18.1.1 Fri Jul  3 20:08:22 2020

Tools Copyright (c) 1996-2017 Texas Instruments Incorporated
main.asm                                                             PAGE   29

    1522                    $C$DW$T$32      .dwtag  DW_TAG_structure_type
    1523                            .dwattr $C$DW$T$32, DW_AT_name("HeapRegion")
    1524                            .dwattr $C$DW$T$32, DW_AT_byte_size(0x08)
    1525                    $C$DW$127       .dwtag  DW_TAG_member
    1526                            .dwattr $C$DW$127, DW_AT_type(*$C$DW$T$30)
    1527                            .dwattr $C$DW$127, DW_AT_name("pucStartAddress")
    1528                            .dwattr $C$DW$127, DW_AT_TI_symbol_name("pucStartAddress")
    1529                            .dwattr $C$DW$127, DW_AT_data_member_location[DW_OP_plus_uconst 0x0]
    1530                            .dwattr $C$DW$127, DW_AT_accessibility(DW_ACCESS_public)
    1531                            .dwattr $C$DW$127, DW_AT_decl_file("../OS/portable.h")
    1532                            .dwattr $C$DW$127, DW_AT_decl_line(0x6e)
    1533                            .dwattr $C$DW$127, DW_AT_decl_column(0x0b)
    1534                    
    1535                    $C$DW$128       .dwtag  DW_TAG_member
    1536                            .dwattr $C$DW$128, DW_AT_type(*$C$DW$T$31)
    1537                            .dwattr $C$DW$128, DW_AT_name("xSizeInBytes")
    1538                            .dwattr $C$DW$128, DW_AT_TI_symbol_name("xSizeInBytes")
    1539                            .dwattr $C$DW$128, DW_AT_data_member_location[DW_OP_plus_uconst 0x4]
    1540                            .dwattr $C$DW$128, DW_AT_accessibility(DW_ACCESS_public)
    1541                            .dwattr $C$DW$128, DW_AT_decl_file("../OS/portable.h")
    1542                            .dwattr $C$DW$128, DW_AT_decl_line(0x6f)
    1543                            .dwattr $C$DW$128, DW_AT_decl_column(0x09)
    1544                    
    1545                            .dwattr $C$DW$T$32, DW_AT_decl_file("../OS/portable.h")
    1546                            .dwattr $C$DW$T$32, DW_AT_decl_line(0x6c)
    1547                            .dwattr $C$DW$T$32, DW_AT_decl_column(0x10)
    1548                            .dwendtag $C$DW$T$32
    1549                    
    1550                    $C$DW$T$111     .dwtag  DW_TAG_typedef
    1551                            .dwattr $C$DW$T$111, DW_AT_name("HeapRegion_t")
    1552                            .dwattr $C$DW$T$111, DW_AT_type(*$C$DW$T$32)
    1553                            .dwattr $C$DW$T$111, DW_AT_language(DW_LANG_C)
    1554                            .dwattr $C$DW$T$111, DW_AT_decl_file("../OS/portable.h")
    1555                            .dwattr $C$DW$T$111, DW_AT_decl_line(0x70)
    1556                            .dwattr $C$DW$T$111, DW_AT_decl_column(0x03)
    1557                    
    1558                    $C$DW$T$2       .dwtag  DW_TAG_unspecified_type
    1559                            .dwattr $C$DW$T$2, DW_AT_name("void")
    1560                    
    1561                    $C$DW$T$3       .dwtag  DW_TAG_pointer_type
    1562                            .dwattr $C$DW$T$3, DW_AT_type(*$C$DW$T$2)
    1563                            .dwattr $C$DW$T$3, DW_AT_address_class(0x20)
    1564                    
    1565                    
    1566                    $C$DW$T$51      .dwtag  DW_TAG_array_type
    1567                            .dwattr $C$DW$T$51, DW_AT_type(*$C$DW$T$3)
    1568                            .dwattr $C$DW$T$51, DW_AT_language(DW_LANG_C)
    1569                            .dwattr $C$DW$T$51, DW_AT_byte_size(0x10)
    1570                    $C$DW$129       .dwtag  DW_TAG_subrange_type
    1571                            .dwattr $C$DW$129, DW_AT_upper_bound(0x03)
    1572                    
    1573                            .dwendtag $C$DW$T$51
    1574                    
    1575                    
    1576                    $C$DW$T$53      .dwtag  DW_TAG_array_type
TI ARM Assembler Unix v18.1.1 Fri Jul  3 20:08:22 2020

Tools Copyright (c) 1996-2017 Texas Instruments Incorporated
main.asm                                                             PAGE   30

    1577                            .dwattr $C$DW$T$53, DW_AT_type(*$C$DW$T$3)
    1578                            .dwattr $C$DW$T$53, DW_AT_language(DW_LANG_C)
    1579                            .dwattr $C$DW$T$53, DW_AT_byte_size(0x08)
    1580                    $C$DW$130       .dwtag  DW_TAG_subrange_type
    1581                            .dwattr $C$DW$130, DW_AT_upper_bound(0x01)
    1582                    
    1583                            .dwendtag $C$DW$T$53
    1584                    
    1585                    
    1586                    $C$DW$T$55      .dwtag  DW_TAG_array_type
    1587                            .dwattr $C$DW$T$55, DW_AT_type(*$C$DW$T$3)
    1588                            .dwattr $C$DW$T$55, DW_AT_language(DW_LANG_C)
    1589                            .dwattr $C$DW$T$55, DW_AT_byte_size(0x0c)
    1590                    $C$DW$131       .dwtag  DW_TAG_subrange_type
    1591                            .dwattr $C$DW$131, DW_AT_upper_bound(0x02)
    1592                    
    1593                            .dwendtag $C$DW$T$55
    1594                    
    1595                    $C$DW$T$112     .dwtag  DW_TAG_const_type
    1596                            .dwattr $C$DW$T$112, DW_AT_type(*$C$DW$T$3)
    1597                    
    1598                    
    1599                    $C$DW$T$67      .dwtag  DW_TAG_subroutine_type
    1600                            .dwattr $C$DW$T$67, DW_AT_language(DW_LANG_C)
    1601                    $C$DW$132       .dwtag  DW_TAG_formal_parameter
    1602                            .dwattr $C$DW$132, DW_AT_type(*$C$DW$T$3)
    1603                    
    1604                            .dwendtag $C$DW$T$67
    1605                    
    1606                    $C$DW$T$68      .dwtag  DW_TAG_pointer_type
    1607                            .dwattr $C$DW$T$68, DW_AT_type(*$C$DW$T$67)
    1608                            .dwattr $C$DW$T$68, DW_AT_address_class(0x20)
    1609                    
    1610                    $C$DW$T$69      .dwtag  DW_TAG_typedef
    1611                            .dwattr $C$DW$T$69, DW_AT_name("TaskFunction_t")
    1612                            .dwattr $C$DW$T$69, DW_AT_type(*$C$DW$T$68)
    1613                            .dwattr $C$DW$T$69, DW_AT_language(DW_LANG_C)
    1614                            .dwattr $C$DW$T$69, DW_AT_decl_file("../OS/projdefs.h")
    1615                            .dwattr $C$DW$T$69, DW_AT_decl_line(0x23)
    1616                            .dwattr $C$DW$T$69, DW_AT_decl_column(0x10)
    1617                    
    1618                    
    1619                    $C$DW$T$115     .dwtag  DW_TAG_subroutine_type
    1620                            .dwattr $C$DW$T$115, DW_AT_language(DW_LANG_C)
    1621                            .dwendtag $C$DW$T$115
    1622                    
    1623                    $C$DW$T$116     .dwtag  DW_TAG_pointer_type
    1624                            .dwattr $C$DW$T$116, DW_AT_type(*$C$DW$T$115)
    1625                            .dwattr $C$DW$T$116, DW_AT_address_class(0x20)
    1626                    
    1627                    $C$DW$T$117     .dwtag  DW_TAG_typedef
    1628                            .dwattr $C$DW$T$117, DW_AT_name("__TI_atexit_fn")
    1629                            .dwattr $C$DW$T$117, DW_AT_type(*$C$DW$T$116)
    1630                            .dwattr $C$DW$T$117, DW_AT_language(DW_LANG_C)
    1631                            .dwattr $C$DW$T$117, DW_AT_decl_file("/home/pola/ti/ccsv8/tools/compiler/ti-cgt-arm_18.1.1.LTS
TI ARM Assembler Unix v18.1.1 Fri Jul  3 20:08:22 2020

Tools Copyright (c) 1996-2017 Texas Instruments Incorporated
main.asm                                                             PAGE   31

    1632                            .dwattr $C$DW$T$117, DW_AT_decl_line(0xb2)
    1633                            .dwattr $C$DW$T$117, DW_AT_decl_column(0x14)
    1634                    
    1635                    $C$DW$T$124     .dwtag  DW_TAG_const_type
    1636                            .dwattr $C$DW$T$124, DW_AT_type(*$C$DW$T$2)
    1637                    
    1638                    $C$DW$T$125     .dwtag  DW_TAG_pointer_type
    1639                            .dwattr $C$DW$T$125, DW_AT_type(*$C$DW$T$124)
    1640                            .dwattr $C$DW$T$125, DW_AT_address_class(0x20)
    1641                    
    1642                    $C$DW$T$4       .dwtag  DW_TAG_base_type
    1643                            .dwattr $C$DW$T$4, DW_AT_encoding(DW_ATE_boolean)
    1644                            .dwattr $C$DW$T$4, DW_AT_name("bool")
    1645                            .dwattr $C$DW$T$4, DW_AT_byte_size(0x01)
    1646                    
    1647                    $C$DW$T$5       .dwtag  DW_TAG_base_type
    1648                            .dwattr $C$DW$T$5, DW_AT_encoding(DW_ATE_signed_char)
    1649                            .dwattr $C$DW$T$5, DW_AT_name("signed char")
    1650                            .dwattr $C$DW$T$5, DW_AT_byte_size(0x01)
    1651                    
    1652                    $C$DW$T$126     .dwtag  DW_TAG_typedef
    1653                            .dwattr $C$DW$T$126, DW_AT_name("__int8_t")
    1654                            .dwattr $C$DW$T$126, DW_AT_type(*$C$DW$T$5)
    1655                            .dwattr $C$DW$T$126, DW_AT_language(DW_LANG_C)
    1656                            .dwattr $C$DW$T$126, DW_AT_decl_file("/home/pola/ti/ccsv8/tools/compiler/ti-cgt-arm_18.1.1.LTS
    1657                            .dwattr $C$DW$T$126, DW_AT_decl_line(0x39)
    1658                            .dwattr $C$DW$T$126, DW_AT_decl_column(0x16)
    1659                    
    1660                    $C$DW$T$127     .dwtag  DW_TAG_typedef
    1661                            .dwattr $C$DW$T$127, DW_AT_name("__int_least8_t")
    1662                            .dwattr $C$DW$T$127, DW_AT_type(*$C$DW$T$126)
    1663                            .dwattr $C$DW$T$127, DW_AT_language(DW_LANG_C)
    1664                            .dwattr $C$DW$T$127, DW_AT_decl_file("/home/pola/ti/ccsv8/tools/compiler/ti-cgt-arm_18.1.1.LTS
    1665                            .dwattr $C$DW$T$127, DW_AT_decl_line(0x58)
    1666                            .dwattr $C$DW$T$127, DW_AT_decl_column(0x12)
    1667                    
    1668                    $C$DW$T$128     .dwtag  DW_TAG_typedef
    1669                            .dwattr $C$DW$T$128, DW_AT_name("int_least8_t")
    1670                            .dwattr $C$DW$T$128, DW_AT_type(*$C$DW$T$127)
    1671                            .dwattr $C$DW$T$128, DW_AT_language(DW_LANG_C)
    1672                            .dwattr $C$DW$T$128, DW_AT_decl_file("/home/pola/ti/ccsv8/tools/compiler/ti-cgt-arm_18.1.1.LTS
    1673                            .dwattr $C$DW$T$128, DW_AT_decl_line(0x28)
    1674                            .dwattr $C$DW$T$128, DW_AT_decl_column(0x19)
    1675                    
    1676                    $C$DW$T$129     .dwtag  DW_TAG_typedef
    1677                            .dwattr $C$DW$T$129, DW_AT_name("int8_t")
    1678                            .dwattr $C$DW$T$129, DW_AT_type(*$C$DW$T$126)
    1679                            .dwattr $C$DW$T$129, DW_AT_language(DW_LANG_C)
    1680                            .dwattr $C$DW$T$129, DW_AT_decl_file("/home/pola/ti/ccsv8/tools/compiler/ti-cgt-arm_18.1.1.LTS
    1681                            .dwattr $C$DW$T$129, DW_AT_decl_line(0x24)
    1682                            .dwattr $C$DW$T$129, DW_AT_decl_column(0x13)
    1683                    
    1684                    $C$DW$T$6       .dwtag  DW_TAG_base_type
    1685                            .dwattr $C$DW$T$6, DW_AT_encoding(DW_ATE_unsigned_char)
    1686                            .dwattr $C$DW$T$6, DW_AT_name("unsigned char")
TI ARM Assembler Unix v18.1.1 Fri Jul  3 20:08:22 2020

Tools Copyright (c) 1996-2017 Texas Instruments Incorporated
main.asm                                                             PAGE   32

    1687                            .dwattr $C$DW$T$6, DW_AT_byte_size(0x01)
    1688                    
    1689                    $C$DW$T$28      .dwtag  DW_TAG_typedef
    1690                            .dwattr $C$DW$T$28, DW_AT_name("__uint8_t")
    1691                            .dwattr $C$DW$T$28, DW_AT_type(*$C$DW$T$6)
    1692                            .dwattr $C$DW$T$28, DW_AT_language(DW_LANG_C)
    1693                            .dwattr $C$DW$T$28, DW_AT_decl_file("/home/pola/ti/ccsv8/tools/compiler/ti-cgt-arm_18.1.1.LTS/
    1694                            .dwattr $C$DW$T$28, DW_AT_decl_line(0x3a)
    1695                            .dwattr $C$DW$T$28, DW_AT_decl_column(0x18)
    1696                    
    1697                    $C$DW$T$130     .dwtag  DW_TAG_typedef
    1698                            .dwattr $C$DW$T$130, DW_AT_name("__sa_family_t")
    1699                            .dwattr $C$DW$T$130, DW_AT_type(*$C$DW$T$28)
    1700                            .dwattr $C$DW$T$130, DW_AT_language(DW_LANG_C)
    1701                            .dwattr $C$DW$T$130, DW_AT_decl_file("/home/pola/ti/ccsv8/tools/compiler/ti-cgt-arm_18.1.1.LTS
    1702                            .dwattr $C$DW$T$130, DW_AT_decl_line(0x43)
    1703                            .dwattr $C$DW$T$130, DW_AT_decl_column(0x13)
    1704                    
    1705                    $C$DW$T$131     .dwtag  DW_TAG_typedef
    1706                            .dwattr $C$DW$T$131, DW_AT_name("__uint_least8_t")
    1707                            .dwattr $C$DW$T$131, DW_AT_type(*$C$DW$T$28)
    1708                            .dwattr $C$DW$T$131, DW_AT_language(DW_LANG_C)
    1709                            .dwattr $C$DW$T$131, DW_AT_decl_file("/home/pola/ti/ccsv8/tools/compiler/ti-cgt-arm_18.1.1.LTS
    1710                            .dwattr $C$DW$T$131, DW_AT_decl_line(0x6d)
    1711                            .dwattr $C$DW$T$131, DW_AT_decl_column(0x13)
    1712                    
    1713                    $C$DW$T$132     .dwtag  DW_TAG_typedef
    1714                            .dwattr $C$DW$T$132, DW_AT_name("uint_least8_t")
    1715                            .dwattr $C$DW$T$132, DW_AT_type(*$C$DW$T$131)
    1716                            .dwattr $C$DW$T$132, DW_AT_language(DW_LANG_C)
    1717                            .dwattr $C$DW$T$132, DW_AT_decl_file("/home/pola/ti/ccsv8/tools/compiler/ti-cgt-arm_18.1.1.LTS
    1718                            .dwattr $C$DW$T$132, DW_AT_decl_line(0x2d)
    1719                            .dwattr $C$DW$T$132, DW_AT_decl_column(0x1a)
    1720                    
    1721                    $C$DW$T$29      .dwtag  DW_TAG_typedef
    1722                            .dwattr $C$DW$T$29, DW_AT_name("uint8_t")
    1723                            .dwattr $C$DW$T$29, DW_AT_type(*$C$DW$T$28)
    1724                            .dwattr $C$DW$T$29, DW_AT_language(DW_LANG_C)
    1725                            .dwattr $C$DW$T$29, DW_AT_decl_file("/home/pola/ti/ccsv8/tools/compiler/ti-cgt-arm_18.1.1.LTS/
    1726                            .dwattr $C$DW$T$29, DW_AT_decl_line(0x38)
    1727                            .dwattr $C$DW$T$29, DW_AT_decl_column(0x14)
    1728                    
    1729                    $C$DW$T$30      .dwtag  DW_TAG_pointer_type
    1730                            .dwattr $C$DW$T$30, DW_AT_type(*$C$DW$T$29)
    1731                            .dwattr $C$DW$T$30, DW_AT_address_class(0x20)
    1732                    
    1733                    
    1734                    $C$DW$T$58      .dwtag  DW_TAG_array_type
    1735                            .dwattr $C$DW$T$58, DW_AT_type(*$C$DW$T$29)
    1736                            .dwattr $C$DW$T$58, DW_AT_language(DW_LANG_C)
    1737                            .dwattr $C$DW$T$58, DW_AT_byte_size(0x02)
    1738                    $C$DW$133       .dwtag  DW_TAG_subrange_type
    1739                            .dwattr $C$DW$133, DW_AT_upper_bound(0x01)
    1740                    
    1741                            .dwendtag $C$DW$T$58
TI ARM Assembler Unix v18.1.1 Fri Jul  3 20:08:22 2020

Tools Copyright (c) 1996-2017 Texas Instruments Incorporated
main.asm                                                             PAGE   33

    1742                    
    1743                    
    1744                    $C$DW$T$64      .dwtag  DW_TAG_array_type
    1745                            .dwattr $C$DW$T$64, DW_AT_type(*$C$DW$T$29)
    1746                            .dwattr $C$DW$T$64, DW_AT_language(DW_LANG_C)
    1747                            .dwattr $C$DW$T$64, DW_AT_byte_size(0x0c)
    1748                    $C$DW$134       .dwtag  DW_TAG_subrange_type
    1749                            .dwattr $C$DW$134, DW_AT_upper_bound(0x0b)
    1750                    
    1751                            .dwendtag $C$DW$T$64
    1752                    
    1753                    $C$DW$T$7       .dwtag  DW_TAG_base_type
    1754                            .dwattr $C$DW$T$7, DW_AT_encoding(DW_ATE_signed_char)
    1755                            .dwattr $C$DW$T$7, DW_AT_name("wchar_t")
    1756                            .dwattr $C$DW$T$7, DW_AT_byte_size(0x02)
    1757                    
    1758                    $C$DW$T$8       .dwtag  DW_TAG_base_type
    1759                            .dwattr $C$DW$T$8, DW_AT_encoding(DW_ATE_signed)
    1760                            .dwattr $C$DW$T$8, DW_AT_name("short")
    1761                            .dwattr $C$DW$T$8, DW_AT_byte_size(0x02)
    1762                    
    1763                    $C$DW$T$133     .dwtag  DW_TAG_typedef
    1764                            .dwattr $C$DW$T$133, DW_AT_name("__int16_t")
    1765                            .dwattr $C$DW$T$133, DW_AT_type(*$C$DW$T$8)
    1766                            .dwattr $C$DW$T$133, DW_AT_language(DW_LANG_C)
    1767                            .dwattr $C$DW$T$133, DW_AT_decl_file("/home/pola/ti/ccsv8/tools/compiler/ti-cgt-arm_18.1.1.LTS
    1768                            .dwattr $C$DW$T$133, DW_AT_decl_line(0x3b)
    1769                            .dwattr $C$DW$T$133, DW_AT_decl_column(0x11)
    1770                    
    1771                    $C$DW$T$134     .dwtag  DW_TAG_typedef
    1772                            .dwattr $C$DW$T$134, DW_AT_name("__int_least16_t")
    1773                            .dwattr $C$DW$T$134, DW_AT_type(*$C$DW$T$133)
    1774                            .dwattr $C$DW$T$134, DW_AT_language(DW_LANG_C)
    1775                            .dwattr $C$DW$T$134, DW_AT_decl_file("/home/pola/ti/ccsv8/tools/compiler/ti-cgt-arm_18.1.1.LTS
    1776                            .dwattr $C$DW$T$134, DW_AT_decl_line(0x59)
    1777                            .dwattr $C$DW$T$134, DW_AT_decl_column(0x13)
    1778                    
    1779                    $C$DW$T$135     .dwtag  DW_TAG_typedef
    1780                            .dwattr $C$DW$T$135, DW_AT_name("int_least16_t")
    1781                            .dwattr $C$DW$T$135, DW_AT_type(*$C$DW$T$134)
    1782                            .dwattr $C$DW$T$135, DW_AT_language(DW_LANG_C)
    1783                            .dwattr $C$DW$T$135, DW_AT_decl_file("/home/pola/ti/ccsv8/tools/compiler/ti-cgt-arm_18.1.1.LTS
    1784                            .dwattr $C$DW$T$135, DW_AT_decl_line(0x29)
    1785                            .dwattr $C$DW$T$135, DW_AT_decl_column(0x1a)
    1786                    
    1787                    $C$DW$T$136     .dwtag  DW_TAG_typedef
    1788                            .dwattr $C$DW$T$136, DW_AT_name("int16_t")
    1789                            .dwattr $C$DW$T$136, DW_AT_type(*$C$DW$T$133)
    1790                            .dwattr $C$DW$T$136, DW_AT_language(DW_LANG_C)
    1791                            .dwattr $C$DW$T$136, DW_AT_decl_file("/home/pola/ti/ccsv8/tools/compiler/ti-cgt-arm_18.1.1.LTS
    1792                            .dwattr $C$DW$T$136, DW_AT_decl_line(0x29)
    1793                            .dwattr $C$DW$T$136, DW_AT_decl_column(0x14)
    1794                    
    1795                    $C$DW$T$9       .dwtag  DW_TAG_base_type
    1796                            .dwattr $C$DW$T$9, DW_AT_encoding(DW_ATE_unsigned)
TI ARM Assembler Unix v18.1.1 Fri Jul  3 20:08:22 2020

Tools Copyright (c) 1996-2017 Texas Instruments Incorporated
main.asm                                                             PAGE   34

    1797                            .dwattr $C$DW$T$9, DW_AT_name("unsigned short")
    1798                            .dwattr $C$DW$T$9, DW_AT_byte_size(0x02)
    1799                    
    1800                    $C$DW$T$137     .dwtag  DW_TAG_typedef
    1801                            .dwattr $C$DW$T$137, DW_AT_name("___wchar_t")
    1802                            .dwattr $C$DW$T$137, DW_AT_type(*$C$DW$T$9)
    1803                            .dwattr $C$DW$T$137, DW_AT_language(DW_LANG_C)
    1804                            .dwattr $C$DW$T$137, DW_AT_decl_file("/home/pola/ti/ccsv8/tools/compiler/ti-cgt-arm_18.1.1.LTS
    1805                            .dwattr $C$DW$T$137, DW_AT_decl_line(0x76)
    1806                            .dwattr $C$DW$T$137, DW_AT_decl_column(0x1a)
    1807                    
    1808                    $C$DW$T$75      .dwtag  DW_TAG_typedef
    1809                            .dwattr $C$DW$T$75, DW_AT_name("__uint16_t")
    1810                            .dwattr $C$DW$T$75, DW_AT_type(*$C$DW$T$9)
    1811                            .dwattr $C$DW$T$75, DW_AT_language(DW_LANG_C)
    1812                            .dwattr $C$DW$T$75, DW_AT_decl_file("/home/pola/ti/ccsv8/tools/compiler/ti-cgt-arm_18.1.1.LTS/
    1813                            .dwattr $C$DW$T$75, DW_AT_decl_line(0x3c)
    1814                            .dwattr $C$DW$T$75, DW_AT_decl_column(0x19)
    1815                    
    1816                    $C$DW$T$138     .dwtag  DW_TAG_typedef
    1817                            .dwattr $C$DW$T$138, DW_AT_name("__mode_t")
    1818                            .dwattr $C$DW$T$138, DW_AT_type(*$C$DW$T$75)
    1819                            .dwattr $C$DW$T$138, DW_AT_language(DW_LANG_C)
    1820                            .dwattr $C$DW$T$138, DW_AT_decl_file("/home/pola/ti/ccsv8/tools/compiler/ti-cgt-arm_18.1.1.LTS
    1821                            .dwattr $C$DW$T$138, DW_AT_decl_line(0x39)
    1822                            .dwattr $C$DW$T$138, DW_AT_decl_column(0x14)
    1823                    
    1824                    $C$DW$T$139     .dwtag  DW_TAG_typedef
    1825                            .dwattr $C$DW$T$139, DW_AT_name("__uint_least16_t")
    1826                            .dwattr $C$DW$T$139, DW_AT_type(*$C$DW$T$75)
    1827                            .dwattr $C$DW$T$139, DW_AT_language(DW_LANG_C)
    1828                            .dwattr $C$DW$T$139, DW_AT_decl_file("/home/pola/ti/ccsv8/tools/compiler/ti-cgt-arm_18.1.1.LTS
    1829                            .dwattr $C$DW$T$139, DW_AT_decl_line(0x6e)
    1830                            .dwattr $C$DW$T$139, DW_AT_decl_column(0x14)
    1831                    
    1832                    $C$DW$T$140     .dwtag  DW_TAG_typedef
    1833                            .dwattr $C$DW$T$140, DW_AT_name("__char16_t")
    1834                            .dwattr $C$DW$T$140, DW_AT_type(*$C$DW$T$139)
    1835                            .dwattr $C$DW$T$140, DW_AT_language(DW_LANG_C)
    1836                            .dwattr $C$DW$T$140, DW_AT_decl_file("/home/pola/ti/ccsv8/tools/compiler/ti-cgt-arm_18.1.1.LTS
    1837                            .dwattr $C$DW$T$140, DW_AT_decl_line(0x66)
    1838                            .dwattr $C$DW$T$140, DW_AT_decl_column(0x1a)
    1839                    
    1840                    $C$DW$T$141     .dwtag  DW_TAG_typedef
    1841                            .dwattr $C$DW$T$141, DW_AT_name("uint_least16_t")
    1842                            .dwattr $C$DW$T$141, DW_AT_type(*$C$DW$T$139)
    1843                            .dwattr $C$DW$T$141, DW_AT_language(DW_LANG_C)
    1844                            .dwattr $C$DW$T$141, DW_AT_decl_file("/home/pola/ti/ccsv8/tools/compiler/ti-cgt-arm_18.1.1.LTS
    1845                            .dwattr $C$DW$T$141, DW_AT_decl_line(0x2e)
    1846                            .dwattr $C$DW$T$141, DW_AT_decl_column(0x1a)
    1847                    
    1848                    $C$DW$T$76      .dwtag  DW_TAG_typedef
    1849                            .dwattr $C$DW$T$76, DW_AT_name("uint16_t")
    1850                            .dwattr $C$DW$T$76, DW_AT_type(*$C$DW$T$75)
    1851                            .dwattr $C$DW$T$76, DW_AT_language(DW_LANG_C)
TI ARM Assembler Unix v18.1.1 Fri Jul  3 20:08:22 2020

Tools Copyright (c) 1996-2017 Texas Instruments Incorporated
main.asm                                                             PAGE   35

    1852                            .dwattr $C$DW$T$76, DW_AT_decl_file("/home/pola/ti/ccsv8/tools/compiler/ti-cgt-arm_18.1.1.LTS/
    1853                            .dwattr $C$DW$T$76, DW_AT_decl_line(0x3d)
    1854                            .dwattr $C$DW$T$76, DW_AT_decl_column(0x15)
    1855                    
    1856                    $C$DW$T$142     .dwtag  DW_TAG_typedef
    1857                            .dwattr $C$DW$T$142, DW_AT_name("wchar_t")
    1858                            .dwattr $C$DW$T$142, DW_AT_type(*$C$DW$T$9)
    1859                            .dwattr $C$DW$T$142, DW_AT_language(DW_LANG_C)
    1860                            .dwattr $C$DW$T$142, DW_AT_decl_file("/home/pola/ti/ccsv8/tools/compiler/ti-cgt-arm_18.1.1.LTS
    1861                            .dwattr $C$DW$T$142, DW_AT_decl_line(0x41)
    1862                            .dwattr $C$DW$T$142, DW_AT_decl_column(0x1a)
    1863                    
    1864                    $C$DW$T$10      .dwtag  DW_TAG_base_type
    1865                            .dwattr $C$DW$T$10, DW_AT_encoding(DW_ATE_signed)
    1866                            .dwattr $C$DW$T$10, DW_AT_name("int")
    1867                            .dwattr $C$DW$T$10, DW_AT_byte_size(0x04)
    1868                    
    1869                    $C$DW$T$143     .dwtag  DW_TAG_typedef
    1870                            .dwattr $C$DW$T$143, DW_AT_name("_Mbstatet")
    1871                            .dwattr $C$DW$T$143, DW_AT_type(*$C$DW$T$10)
    1872                            .dwattr $C$DW$T$143, DW_AT_language(DW_LANG_C)
    1873                            .dwattr $C$DW$T$143, DW_AT_decl_file("/home/pola/ti/ccsv8/tools/compiler/ti-cgt-arm_18.1.1.LTS
    1874                            .dwattr $C$DW$T$143, DW_AT_decl_line(0x84)
    1875                            .dwattr $C$DW$T$143, DW_AT_decl_column(0x0d)
    1876                    
    1877                    $C$DW$T$144     .dwtag  DW_TAG_typedef
    1878                            .dwattr $C$DW$T$144, DW_AT_name("__mbstate_t")
    1879                            .dwattr $C$DW$T$144, DW_AT_type(*$C$DW$T$143)
    1880                            .dwattr $C$DW$T$144, DW_AT_language(DW_LANG_C)
    1881                            .dwattr $C$DW$T$144, DW_AT_decl_file("/home/pola/ti/ccsv8/tools/compiler/ti-cgt-arm_18.1.1.LTS
    1882                            .dwattr $C$DW$T$144, DW_AT_decl_line(0x87)
    1883                            .dwattr $C$DW$T$144, DW_AT_decl_column(0x13)
    1884                    
    1885                    $C$DW$T$145     .dwtag  DW_TAG_typedef
    1886                            .dwattr $C$DW$T$145, DW_AT_name("__accmode_t")
    1887                            .dwattr $C$DW$T$145, DW_AT_type(*$C$DW$T$10)
    1888                            .dwattr $C$DW$T$145, DW_AT_language(DW_LANG_C)
    1889                            .dwattr $C$DW$T$145, DW_AT_decl_file("/home/pola/ti/ccsv8/tools/compiler/ti-cgt-arm_18.1.1.LTS
    1890                            .dwattr $C$DW$T$145, DW_AT_decl_line(0x3a)
    1891                            .dwattr $C$DW$T$145, DW_AT_decl_column(0x0e)
    1892                    
    1893                    
    1894                    $C$DW$T$147     .dwtag  DW_TAG_subroutine_type
    1895                            .dwattr $C$DW$T$147, DW_AT_type(*$C$DW$T$10)
    1896                            .dwattr $C$DW$T$147, DW_AT_language(DW_LANG_C)
    1897                    $C$DW$135       .dwtag  DW_TAG_formal_parameter
    1898                            .dwattr $C$DW$135, DW_AT_type(*$C$DW$T$125)
    1899                    
    1900                    $C$DW$136       .dwtag  DW_TAG_formal_parameter
    1901                            .dwattr $C$DW$136, DW_AT_type(*$C$DW$T$125)
    1902                    
    1903                            .dwendtag $C$DW$T$147
    1904                    
    1905                    $C$DW$T$148     .dwtag  DW_TAG_pointer_type
    1906                            .dwattr $C$DW$T$148, DW_AT_type(*$C$DW$T$147)
TI ARM Assembler Unix v18.1.1 Fri Jul  3 20:08:22 2020

Tools Copyright (c) 1996-2017 Texas Instruments Incorporated
main.asm                                                             PAGE   36

    1907                            .dwattr $C$DW$T$148, DW_AT_address_class(0x20)
    1908                    
    1909                    $C$DW$T$149     .dwtag  DW_TAG_typedef
    1910                            .dwattr $C$DW$T$149, DW_AT_name("__TI_compar_fn")
    1911                            .dwattr $C$DW$T$149, DW_AT_type(*$C$DW$T$148)
    1912                            .dwattr $C$DW$T$149, DW_AT_language(DW_LANG_C)
    1913                            .dwattr $C$DW$T$149, DW_AT_decl_file("/home/pola/ti/ccsv8/tools/compiler/ti-cgt-arm_18.1.1.LTS
    1914                            .dwattr $C$DW$T$149, DW_AT_decl_line(0xb5)
    1915                            .dwattr $C$DW$T$149, DW_AT_decl_column(0x13)
    1916                    
    1917                    $C$DW$T$150     .dwtag  DW_TAG_typedef
    1918                            .dwattr $C$DW$T$150, DW_AT_name("__cpulevel_t")
    1919                            .dwattr $C$DW$T$150, DW_AT_type(*$C$DW$T$10)
    1920                            .dwattr $C$DW$T$150, DW_AT_language(DW_LANG_C)
    1921                            .dwattr $C$DW$T$150, DW_AT_decl_file("/home/pola/ti/ccsv8/tools/compiler/ti-cgt-arm_18.1.1.LTS
    1922                            .dwattr $C$DW$T$150, DW_AT_decl_line(0x4b)
    1923                            .dwattr $C$DW$T$150, DW_AT_decl_column(0x0e)
    1924                    
    1925                    $C$DW$T$151     .dwtag  DW_TAG_typedef
    1926                            .dwattr $C$DW$T$151, DW_AT_name("__cpusetid_t")
    1927                            .dwattr $C$DW$T$151, DW_AT_type(*$C$DW$T$10)
    1928                            .dwattr $C$DW$T$151, DW_AT_language(DW_LANG_C)
    1929                            .dwattr $C$DW$T$151, DW_AT_decl_file("/home/pola/ti/ccsv8/tools/compiler/ti-cgt-arm_18.1.1.LTS
    1930                            .dwattr $C$DW$T$151, DW_AT_decl_line(0x4c)
    1931                            .dwattr $C$DW$T$151, DW_AT_decl_column(0x0e)
    1932                    
    1933                    $C$DW$T$152     .dwtag  DW_TAG_typedef
    1934                            .dwattr $C$DW$T$152, DW_AT_name("__cpuwhich_t")
    1935                            .dwattr $C$DW$T$152, DW_AT_type(*$C$DW$T$10)
    1936                            .dwattr $C$DW$T$152, DW_AT_language(DW_LANG_C)
    1937                            .dwattr $C$DW$T$152, DW_AT_decl_file("/home/pola/ti/ccsv8/tools/compiler/ti-cgt-arm_18.1.1.LTS
    1938                            .dwattr $C$DW$T$152, DW_AT_decl_line(0x4a)
    1939                            .dwattr $C$DW$T$152, DW_AT_decl_column(0x0e)
    1940                    
    1941                    $C$DW$T$153     .dwtag  DW_TAG_typedef
    1942                            .dwattr $C$DW$T$153, DW_AT_name("__ct_rune_t")
    1943                            .dwattr $C$DW$T$153, DW_AT_type(*$C$DW$T$10)
    1944                            .dwattr $C$DW$T$153, DW_AT_language(DW_LANG_C)
    1945                            .dwattr $C$DW$T$153, DW_AT_decl_file("/home/pola/ti/ccsv8/tools/compiler/ti-cgt-arm_18.1.1.LTS
    1946                            .dwattr $C$DW$T$153, DW_AT_decl_line(0x60)
    1947                            .dwattr $C$DW$T$153, DW_AT_decl_column(0x0e)
    1948                    
    1949                    $C$DW$T$154     .dwtag  DW_TAG_typedef
    1950                            .dwattr $C$DW$T$154, DW_AT_name("__rune_t")
    1951                            .dwattr $C$DW$T$154, DW_AT_type(*$C$DW$T$153)
    1952                            .dwattr $C$DW$T$154, DW_AT_language(DW_LANG_C)
    1953                            .dwattr $C$DW$T$154, DW_AT_decl_file("/home/pola/ti/ccsv8/tools/compiler/ti-cgt-arm_18.1.1.LTS
    1954                            .dwattr $C$DW$T$154, DW_AT_decl_line(0x61)
    1955                            .dwattr $C$DW$T$154, DW_AT_decl_column(0x15)
    1956                    
    1957                    $C$DW$T$155     .dwtag  DW_TAG_typedef
    1958                            .dwattr $C$DW$T$155, DW_AT_name("__wint_t")
    1959                            .dwattr $C$DW$T$155, DW_AT_type(*$C$DW$T$153)
    1960                            .dwattr $C$DW$T$155, DW_AT_language(DW_LANG_C)
    1961                            .dwattr $C$DW$T$155, DW_AT_decl_file("/home/pola/ti/ccsv8/tools/compiler/ti-cgt-arm_18.1.1.LTS
TI ARM Assembler Unix v18.1.1 Fri Jul  3 20:08:22 2020

Tools Copyright (c) 1996-2017 Texas Instruments Incorporated
main.asm                                                             PAGE   37

    1962                            .dwattr $C$DW$T$155, DW_AT_decl_line(0x62)
    1963                            .dwattr $C$DW$T$155, DW_AT_decl_column(0x15)
    1964                    
    1965                    $C$DW$T$156     .dwtag  DW_TAG_typedef
    1966                            .dwattr $C$DW$T$156, DW_AT_name("__int32_t")
    1967                            .dwattr $C$DW$T$156, DW_AT_type(*$C$DW$T$10)
    1968                            .dwattr $C$DW$T$156, DW_AT_language(DW_LANG_C)
    1969                            .dwattr $C$DW$T$156, DW_AT_decl_file("/home/pola/ti/ccsv8/tools/compiler/ti-cgt-arm_18.1.1.LTS
    1970                            .dwattr $C$DW$T$156, DW_AT_decl_line(0x3d)
    1971                            .dwattr $C$DW$T$156, DW_AT_decl_column(0x0f)
    1972                    
    1973                    $C$DW$T$157     .dwtag  DW_TAG_typedef
    1974                            .dwattr $C$DW$T$157, DW_AT_name("__blksize_t")
    1975                            .dwattr $C$DW$T$157, DW_AT_type(*$C$DW$T$156)
    1976                            .dwattr $C$DW$T$157, DW_AT_language(DW_LANG_C)
    1977                            .dwattr $C$DW$T$157, DW_AT_decl_file("/home/pola/ti/ccsv8/tools/compiler/ti-cgt-arm_18.1.1.LTS
    1978                            .dwattr $C$DW$T$157, DW_AT_decl_line(0x2e)
    1979                            .dwattr $C$DW$T$157, DW_AT_decl_column(0x13)
    1980                    
    1981                    $C$DW$T$158     .dwtag  DW_TAG_typedef
    1982                            .dwattr $C$DW$T$158, DW_AT_name("__clockid_t")
    1983                            .dwattr $C$DW$T$158, DW_AT_type(*$C$DW$T$156)
    1984                            .dwattr $C$DW$T$158, DW_AT_language(DW_LANG_C)
    1985                            .dwattr $C$DW$T$158, DW_AT_decl_file("/home/pola/ti/ccsv8/tools/compiler/ti-cgt-arm_18.1.1.LTS
    1986                            .dwattr $C$DW$T$158, DW_AT_decl_line(0x30)
    1987                            .dwattr $C$DW$T$158, DW_AT_decl_column(0x13)
    1988                    
    1989                    $C$DW$T$159     .dwtag  DW_TAG_typedef
    1990                            .dwattr $C$DW$T$159, DW_AT_name("__critical_t")
    1991                            .dwattr $C$DW$T$159, DW_AT_type(*$C$DW$T$156)
    1992                            .dwattr $C$DW$T$159, DW_AT_language(DW_LANG_C)
    1993                            .dwattr $C$DW$T$159, DW_AT_decl_file("/home/pola/ti/ccsv8/tools/compiler/ti-cgt-arm_18.1.1.LTS
    1994                            .dwattr $C$DW$T$159, DW_AT_decl_line(0x4e)
    1995                            .dwattr $C$DW$T$159, DW_AT_decl_column(0x13)
    1996                    
    1997                    $C$DW$T$160     .dwtag  DW_TAG_typedef
    1998                            .dwattr $C$DW$T$160, DW_AT_name("__int_fast16_t")
    1999                            .dwattr $C$DW$T$160, DW_AT_type(*$C$DW$T$156)
    2000                            .dwattr $C$DW$T$160, DW_AT_language(DW_LANG_C)
    2001                            .dwattr $C$DW$T$160, DW_AT_decl_file("/home/pola/ti/ccsv8/tools/compiler/ti-cgt-arm_18.1.1.LTS
    2002                            .dwattr $C$DW$T$160, DW_AT_decl_line(0x55)
    2003                            .dwattr $C$DW$T$160, DW_AT_decl_column(0x13)
    2004                    
    2005                    $C$DW$T$161     .dwtag  DW_TAG_typedef
    2006                            .dwattr $C$DW$T$161, DW_AT_name("int_fast16_t")
    2007                            .dwattr $C$DW$T$161, DW_AT_type(*$C$DW$T$160)
    2008                            .dwattr $C$DW$T$161, DW_AT_language(DW_LANG_C)
    2009                            .dwattr $C$DW$T$161, DW_AT_decl_file("/home/pola/ti/ccsv8/tools/compiler/ti-cgt-arm_18.1.1.LTS
    2010                            .dwattr $C$DW$T$161, DW_AT_decl_line(0x33)
    2011                            .dwattr $C$DW$T$161, DW_AT_decl_column(0x19)
    2012                    
    2013                    $C$DW$T$162     .dwtag  DW_TAG_typedef
    2014                            .dwattr $C$DW$T$162, DW_AT_name("__int_fast32_t")
    2015                            .dwattr $C$DW$T$162, DW_AT_type(*$C$DW$T$156)
    2016                            .dwattr $C$DW$T$162, DW_AT_language(DW_LANG_C)
TI ARM Assembler Unix v18.1.1 Fri Jul  3 20:08:22 2020

Tools Copyright (c) 1996-2017 Texas Instruments Incorporated
main.asm                                                             PAGE   38

    2017                            .dwattr $C$DW$T$162, DW_AT_decl_file("/home/pola/ti/ccsv8/tools/compiler/ti-cgt-arm_18.1.1.LTS
    2018                            .dwattr $C$DW$T$162, DW_AT_decl_line(0x56)
    2019                            .dwattr $C$DW$T$162, DW_AT_decl_column(0x13)
    2020                    
    2021                    $C$DW$T$163     .dwtag  DW_TAG_typedef
    2022                            .dwattr $C$DW$T$163, DW_AT_name("int_fast32_t")
    2023                            .dwattr $C$DW$T$163, DW_AT_type(*$C$DW$T$162)
    2024                            .dwattr $C$DW$T$163, DW_AT_language(DW_LANG_C)
    2025                            .dwattr $C$DW$T$163, DW_AT_decl_file("/home/pola/ti/ccsv8/tools/compiler/ti-cgt-arm_18.1.1.LTS
    2026                            .dwattr $C$DW$T$163, DW_AT_decl_line(0x34)
    2027                            .dwattr $C$DW$T$163, DW_AT_decl_column(0x19)
    2028                    
    2029                    $C$DW$T$164     .dwtag  DW_TAG_typedef
    2030                            .dwattr $C$DW$T$164, DW_AT_name("__int_fast8_t")
    2031                            .dwattr $C$DW$T$164, DW_AT_type(*$C$DW$T$156)
    2032                            .dwattr $C$DW$T$164, DW_AT_language(DW_LANG_C)
    2033                            .dwattr $C$DW$T$164, DW_AT_decl_file("/home/pola/ti/ccsv8/tools/compiler/ti-cgt-arm_18.1.1.LTS
    2034                            .dwattr $C$DW$T$164, DW_AT_decl_line(0x54)
    2035                            .dwattr $C$DW$T$164, DW_AT_decl_column(0x13)
    2036                    
    2037                    $C$DW$T$165     .dwtag  DW_TAG_typedef
    2038                            .dwattr $C$DW$T$165, DW_AT_name("int_fast8_t")
    2039                            .dwattr $C$DW$T$165, DW_AT_type(*$C$DW$T$164)
    2040                            .dwattr $C$DW$T$165, DW_AT_language(DW_LANG_C)
    2041                            .dwattr $C$DW$T$165, DW_AT_decl_file("/home/pola/ti/ccsv8/tools/compiler/ti-cgt-arm_18.1.1.LTS
    2042                            .dwattr $C$DW$T$165, DW_AT_decl_line(0x32)
    2043                            .dwattr $C$DW$T$165, DW_AT_decl_column(0x18)
    2044                    
    2045                    $C$DW$T$166     .dwtag  DW_TAG_typedef
    2046                            .dwattr $C$DW$T$166, DW_AT_name("__int_least32_t")
    2047                            .dwattr $C$DW$T$166, DW_AT_type(*$C$DW$T$156)
    2048                            .dwattr $C$DW$T$166, DW_AT_language(DW_LANG_C)
    2049                            .dwattr $C$DW$T$166, DW_AT_decl_file("/home/pola/ti/ccsv8/tools/compiler/ti-cgt-arm_18.1.1.LTS
    2050                            .dwattr $C$DW$T$166, DW_AT_decl_line(0x5a)
    2051                            .dwattr $C$DW$T$166, DW_AT_decl_column(0x13)
    2052                    
    2053                    $C$DW$T$167     .dwtag  DW_TAG_typedef
    2054                            .dwattr $C$DW$T$167, DW_AT_name("int_least32_t")
    2055                            .dwattr $C$DW$T$167, DW_AT_type(*$C$DW$T$166)
    2056                            .dwattr $C$DW$T$167, DW_AT_language(DW_LANG_C)
    2057                            .dwattr $C$DW$T$167, DW_AT_decl_file("/home/pola/ti/ccsv8/tools/compiler/ti-cgt-arm_18.1.1.LTS
    2058                            .dwattr $C$DW$T$167, DW_AT_decl_line(0x2a)
    2059                            .dwattr $C$DW$T$167, DW_AT_decl_column(0x1a)
    2060                    
    2061                    $C$DW$T$168     .dwtag  DW_TAG_typedef
    2062                            .dwattr $C$DW$T$168, DW_AT_name("__intfptr_t")
    2063                            .dwattr $C$DW$T$168, DW_AT_type(*$C$DW$T$156)
    2064                            .dwattr $C$DW$T$168, DW_AT_language(DW_LANG_C)
    2065                            .dwattr $C$DW$T$168, DW_AT_decl_file("/home/pola/ti/ccsv8/tools/compiler/ti-cgt-arm_18.1.1.LTS
    2066                            .dwattr $C$DW$T$168, DW_AT_decl_line(0x51)
    2067                            .dwattr $C$DW$T$168, DW_AT_decl_column(0x13)
    2068                    
    2069                    $C$DW$T$169     .dwtag  DW_TAG_typedef
    2070                            .dwattr $C$DW$T$169, DW_AT_name("__intptr_t")
    2071                            .dwattr $C$DW$T$169, DW_AT_type(*$C$DW$T$156)
TI ARM Assembler Unix v18.1.1 Fri Jul  3 20:08:22 2020

Tools Copyright (c) 1996-2017 Texas Instruments Incorporated
main.asm                                                             PAGE   39

    2072                            .dwattr $C$DW$T$169, DW_AT_language(DW_LANG_C)
    2073                            .dwattr $C$DW$T$169, DW_AT_decl_file("/home/pola/ti/ccsv8/tools/compiler/ti-cgt-arm_18.1.1.LTS
    2074                            .dwattr $C$DW$T$169, DW_AT_decl_line(0x53)
    2075                            .dwattr $C$DW$T$169, DW_AT_decl_column(0x13)
    2076                    
    2077                    $C$DW$T$170     .dwtag  DW_TAG_typedef
    2078                            .dwattr $C$DW$T$170, DW_AT_name("intptr_t")
    2079                            .dwattr $C$DW$T$170, DW_AT_type(*$C$DW$T$169)
    2080                            .dwattr $C$DW$T$170, DW_AT_language(DW_LANG_C)
    2081                            .dwattr $C$DW$T$170, DW_AT_decl_file("/home/pola/ti/ccsv8/tools/compiler/ti-cgt-arm_18.1.1.LTS
    2082                            .dwattr $C$DW$T$170, DW_AT_decl_line(0x4c)
    2083                            .dwattr $C$DW$T$170, DW_AT_decl_column(0x15)
    2084                    
    2085                    $C$DW$T$171     .dwtag  DW_TAG_typedef
    2086                            .dwattr $C$DW$T$171, DW_AT_name("__lwpid_t")
    2087                            .dwattr $C$DW$T$171, DW_AT_type(*$C$DW$T$156)
    2088                            .dwattr $C$DW$T$171, DW_AT_language(DW_LANG_C)
    2089                            .dwattr $C$DW$T$171, DW_AT_decl_file("/home/pola/ti/ccsv8/tools/compiler/ti-cgt-arm_18.1.1.LTS
    2090                            .dwattr $C$DW$T$171, DW_AT_decl_line(0x38)
    2091                            .dwattr $C$DW$T$171, DW_AT_decl_column(0x13)
    2092                    
    2093                    $C$DW$T$172     .dwtag  DW_TAG_typedef
    2094                            .dwattr $C$DW$T$172, DW_AT_name("__pid_t")
    2095                            .dwattr $C$DW$T$172, DW_AT_type(*$C$DW$T$156)
    2096                            .dwattr $C$DW$T$172, DW_AT_language(DW_LANG_C)
    2097                            .dwattr $C$DW$T$172, DW_AT_decl_file("/home/pola/ti/ccsv8/tools/compiler/ti-cgt-arm_18.1.1.LTS
    2098                            .dwattr $C$DW$T$172, DW_AT_decl_line(0x3f)
    2099                            .dwattr $C$DW$T$172, DW_AT_decl_column(0x13)
    2100                    
    2101                    $C$DW$T$173     .dwtag  DW_TAG_typedef
    2102                            .dwattr $C$DW$T$173, DW_AT_name("__ptrdiff_t")
    2103                            .dwattr $C$DW$T$173, DW_AT_type(*$C$DW$T$156)
    2104                            .dwattr $C$DW$T$173, DW_AT_language(DW_LANG_C)
    2105                            .dwattr $C$DW$T$173, DW_AT_decl_file("/home/pola/ti/ccsv8/tools/compiler/ti-cgt-arm_18.1.1.LTS
    2106                            .dwattr $C$DW$T$173, DW_AT_decl_line(0x5c)
    2107                            .dwattr $C$DW$T$173, DW_AT_decl_column(0x13)
    2108                    
    2109                    $C$DW$T$174     .dwtag  DW_TAG_typedef
    2110                            .dwattr $C$DW$T$174, DW_AT_name("__register_t")
    2111                            .dwattr $C$DW$T$174, DW_AT_type(*$C$DW$T$156)
    2112                            .dwattr $C$DW$T$174, DW_AT_language(DW_LANG_C)
    2113                            .dwattr $C$DW$T$174, DW_AT_decl_file("/home/pola/ti/ccsv8/tools/compiler/ti-cgt-arm_18.1.1.LTS
    2114                            .dwattr $C$DW$T$174, DW_AT_decl_line(0x5d)
    2115                            .dwattr $C$DW$T$174, DW_AT_decl_column(0x13)
    2116                    
    2117                    $C$DW$T$175     .dwtag  DW_TAG_typedef
    2118                            .dwattr $C$DW$T$175, DW_AT_name("__segsz_t")
    2119                            .dwattr $C$DW$T$175, DW_AT_type(*$C$DW$T$156)
    2120                            .dwattr $C$DW$T$175, DW_AT_language(DW_LANG_C)
    2121                            .dwattr $C$DW$T$175, DW_AT_decl_file("/home/pola/ti/ccsv8/tools/compiler/ti-cgt-arm_18.1.1.LTS
    2122                            .dwattr $C$DW$T$175, DW_AT_decl_line(0x5e)
    2123                            .dwattr $C$DW$T$175, DW_AT_decl_column(0x13)
    2124                    
    2125                    $C$DW$T$176     .dwtag  DW_TAG_typedef
    2126                            .dwattr $C$DW$T$176, DW_AT_name("__ssize_t")
TI ARM Assembler Unix v18.1.1 Fri Jul  3 20:08:22 2020

Tools Copyright (c) 1996-2017 Texas Instruments Incorporated
main.asm                                                             PAGE   40

    2127                            .dwattr $C$DW$T$176, DW_AT_type(*$C$DW$T$156)
    2128                            .dwattr $C$DW$T$176, DW_AT_language(DW_LANG_C)
    2129                            .dwattr $C$DW$T$176, DW_AT_decl_file("/home/pola/ti/ccsv8/tools/compiler/ti-cgt-arm_18.1.1.LTS
    2130                            .dwattr $C$DW$T$176, DW_AT_decl_line(0x60)
    2131                            .dwattr $C$DW$T$176, DW_AT_decl_column(0x13)
    2132                    
    2133                    $C$DW$T$177     .dwtag  DW_TAG_typedef
    2134                            .dwattr $C$DW$T$177, DW_AT_name("int32_t")
    2135                            .dwattr $C$DW$T$177, DW_AT_type(*$C$DW$T$156)
    2136                            .dwattr $C$DW$T$177, DW_AT_language(DW_LANG_C)
    2137                            .dwattr $C$DW$T$177, DW_AT_decl_file("/home/pola/ti/ccsv8/tools/compiler/ti-cgt-arm_18.1.1.LTS
    2138                            .dwattr $C$DW$T$177, DW_AT_decl_line(0x2e)
    2139                            .dwattr $C$DW$T$177, DW_AT_decl_column(0x14)
    2140                    
    2141                    $C$DW$T$178     .dwtag  DW_TAG_typedef
    2142                            .dwattr $C$DW$T$178, DW_AT_name("__nl_item")
    2143                            .dwattr $C$DW$T$178, DW_AT_type(*$C$DW$T$10)
    2144                            .dwattr $C$DW$T$178, DW_AT_language(DW_LANG_C)
    2145                            .dwattr $C$DW$T$178, DW_AT_decl_file("/home/pola/ti/ccsv8/tools/compiler/ti-cgt-arm_18.1.1.LTS
    2146                            .dwattr $C$DW$T$178, DW_AT_decl_line(0x3b)
    2147                            .dwattr $C$DW$T$178, DW_AT_decl_column(0x0e)
    2148                    
    2149                    $C$DW$T$179     .dwtag  DW_TAG_typedef
    2150                            .dwattr $C$DW$T$179, DW_AT_name("ptrdiff_t")
    2151                            .dwattr $C$DW$T$179, DW_AT_type(*$C$DW$T$10)
    2152                            .dwattr $C$DW$T$179, DW_AT_language(DW_LANG_C)
    2153                            .dwattr $C$DW$T$179, DW_AT_decl_file("/home/pola/ti/ccsv8/tools/compiler/ti-cgt-arm_18.1.1.LTS
    2154                            .dwattr $C$DW$T$179, DW_AT_decl_line(0x36)
    2155                            .dwattr $C$DW$T$179, DW_AT_decl_column(0x1c)
    2156                    
    2157                    $C$DW$T$11      .dwtag  DW_TAG_base_type
    2158                            .dwattr $C$DW$T$11, DW_AT_encoding(DW_ATE_unsigned)
    2159                            .dwattr $C$DW$T$11, DW_AT_name("unsigned int")
    2160                            .dwattr $C$DW$T$11, DW_AT_byte_size(0x04)
    2161                    
    2162                    $C$DW$T$39      .dwtag  DW_TAG_typedef
    2163                            .dwattr $C$DW$T$39, DW_AT_name("__uint32_t")
    2164                            .dwattr $C$DW$T$39, DW_AT_type(*$C$DW$T$11)
    2165                            .dwattr $C$DW$T$39, DW_AT_language(DW_LANG_C)
    2166                            .dwattr $C$DW$T$39, DW_AT_decl_file("/home/pola/ti/ccsv8/tools/compiler/ti-cgt-arm_18.1.1.LTS/
    2167                            .dwattr $C$DW$T$39, DW_AT_decl_line(0x3e)
    2168                            .dwattr $C$DW$T$39, DW_AT_decl_column(0x17)
    2169                    
    2170                    $C$DW$T$180     .dwtag  DW_TAG_typedef
    2171                            .dwattr $C$DW$T$180, DW_AT_name("__clock_t")
    2172                            .dwattr $C$DW$T$180, DW_AT_type(*$C$DW$T$39)
    2173                            .dwattr $C$DW$T$180, DW_AT_language(DW_LANG_C)
    2174                            .dwattr $C$DW$T$180, DW_AT_decl_file("/home/pola/ti/ccsv8/tools/compiler/ti-cgt-arm_18.1.1.LTS
    2175                            .dwattr $C$DW$T$180, DW_AT_decl_line(0x4d)
    2176                            .dwattr $C$DW$T$180, DW_AT_decl_column(0x14)
    2177                    
    2178                    $C$DW$T$181     .dwtag  DW_TAG_typedef
    2179                            .dwattr $C$DW$T$181, DW_AT_name("__fflags_t")
    2180                            .dwattr $C$DW$T$181, DW_AT_type(*$C$DW$T$39)
    2181                            .dwattr $C$DW$T$181, DW_AT_language(DW_LANG_C)
TI ARM Assembler Unix v18.1.1 Fri Jul  3 20:08:22 2020

Tools Copyright (c) 1996-2017 Texas Instruments Incorporated
main.asm                                                             PAGE   41

    2182                            .dwattr $C$DW$T$181, DW_AT_decl_file("/home/pola/ti/ccsv8/tools/compiler/ti-cgt-arm_18.1.1.LTS
    2183                            .dwattr $C$DW$T$181, DW_AT_decl_line(0x31)
    2184                            .dwattr $C$DW$T$181, DW_AT_decl_column(0x14)
    2185                    
    2186                    $C$DW$T$182     .dwtag  DW_TAG_typedef
    2187                            .dwattr $C$DW$T$182, DW_AT_name("__fixpt_t")
    2188                            .dwattr $C$DW$T$182, DW_AT_type(*$C$DW$T$39)
    2189                            .dwattr $C$DW$T$182, DW_AT_language(DW_LANG_C)
    2190                            .dwattr $C$DW$T$182, DW_AT_decl_file("/home/pola/ti/ccsv8/tools/compiler/ti-cgt-arm_18.1.1.LTS
    2191                            .dwattr $C$DW$T$182, DW_AT_decl_line(0x76)
    2192                            .dwattr $C$DW$T$182, DW_AT_decl_column(0x14)
    2193                    
    2194                    $C$DW$T$183     .dwtag  DW_TAG_typedef
    2195                            .dwattr $C$DW$T$183, DW_AT_name("__gid_t")
    2196                            .dwattr $C$DW$T$183, DW_AT_type(*$C$DW$T$39)
    2197                            .dwattr $C$DW$T$183, DW_AT_language(DW_LANG_C)
    2198                            .dwattr $C$DW$T$183, DW_AT_decl_file("/home/pola/ti/ccsv8/tools/compiler/ti-cgt-arm_18.1.1.LTS
    2199                            .dwattr $C$DW$T$183, DW_AT_decl_line(0x34)
    2200                            .dwattr $C$DW$T$183, DW_AT_decl_column(0x14)
    2201                    
    2202                    $C$DW$T$184     .dwtag  DW_TAG_typedef
    2203                            .dwattr $C$DW$T$184, DW_AT_name("__size_t")
    2204                            .dwattr $C$DW$T$184, DW_AT_type(*$C$DW$T$39)
    2205                            .dwattr $C$DW$T$184, DW_AT_language(DW_LANG_C)
    2206                            .dwattr $C$DW$T$184, DW_AT_decl_file("/home/pola/ti/ccsv8/tools/compiler/ti-cgt-arm_18.1.1.LTS
    2207                            .dwattr $C$DW$T$184, DW_AT_decl_line(0x5f)
    2208                            .dwattr $C$DW$T$184, DW_AT_decl_column(0x14)
    2209                    
    2210                    $C$DW$T$185     .dwtag  DW_TAG_typedef
    2211                            .dwattr $C$DW$T$185, DW_AT_name("__socklen_t")
    2212                            .dwattr $C$DW$T$185, DW_AT_type(*$C$DW$T$39)
    2213                            .dwattr $C$DW$T$185, DW_AT_language(DW_LANG_C)
    2214                            .dwattr $C$DW$T$185, DW_AT_decl_file("/home/pola/ti/ccsv8/tools/compiler/ti-cgt-arm_18.1.1.LTS
    2215                            .dwattr $C$DW$T$185, DW_AT_decl_line(0x44)
    2216                            .dwattr $C$DW$T$185, DW_AT_decl_column(0x14)
    2217                    
    2218                    $C$DW$T$186     .dwtag  DW_TAG_typedef
    2219                            .dwattr $C$DW$T$186, DW_AT_name("__time_t")
    2220                            .dwattr $C$DW$T$186, DW_AT_type(*$C$DW$T$39)
    2221                            .dwattr $C$DW$T$186, DW_AT_language(DW_LANG_C)
    2222                            .dwattr $C$DW$T$186, DW_AT_decl_file("/home/pola/ti/ccsv8/tools/compiler/ti-cgt-arm_18.1.1.LTS
    2223                            .dwattr $C$DW$T$186, DW_AT_decl_line(0x64)
    2224                            .dwattr $C$DW$T$186, DW_AT_decl_column(0x19)
    2225                    
    2226                    $C$DW$T$187     .dwtag  DW_TAG_typedef
    2227                            .dwattr $C$DW$T$187, DW_AT_name("__u_register_t")
    2228                            .dwattr $C$DW$T$187, DW_AT_type(*$C$DW$T$39)
    2229                            .dwattr $C$DW$T$187, DW_AT_language(DW_LANG_C)
    2230                            .dwattr $C$DW$T$187, DW_AT_decl_file("/home/pola/ti/ccsv8/tools/compiler/ti-cgt-arm_18.1.1.LTS
    2231                            .dwattr $C$DW$T$187, DW_AT_decl_line(0x71)
    2232                            .dwattr $C$DW$T$187, DW_AT_decl_column(0x14)
    2233                    
    2234                    $C$DW$T$188     .dwtag  DW_TAG_typedef
    2235                            .dwattr $C$DW$T$188, DW_AT_name("__uid_t")
    2236                            .dwattr $C$DW$T$188, DW_AT_type(*$C$DW$T$39)
TI ARM Assembler Unix v18.1.1 Fri Jul  3 20:08:22 2020

Tools Copyright (c) 1996-2017 Texas Instruments Incorporated
main.asm                                                             PAGE   42

    2237                            .dwattr $C$DW$T$188, DW_AT_language(DW_LANG_C)
    2238                            .dwattr $C$DW$T$188, DW_AT_decl_file("/home/pola/ti/ccsv8/tools/compiler/ti-cgt-arm_18.1.1.LTS
    2239                            .dwattr $C$DW$T$188, DW_AT_decl_line(0x48)
    2240                            .dwattr $C$DW$T$188, DW_AT_decl_column(0x14)
    2241                    
    2242                    $C$DW$T$189     .dwtag  DW_TAG_typedef
    2243                            .dwattr $C$DW$T$189, DW_AT_name("__uint_fast16_t")
    2244                            .dwattr $C$DW$T$189, DW_AT_type(*$C$DW$T$39)
    2245                            .dwattr $C$DW$T$189, DW_AT_language(DW_LANG_C)
    2246                            .dwattr $C$DW$T$189, DW_AT_decl_file("/home/pola/ti/ccsv8/tools/compiler/ti-cgt-arm_18.1.1.LTS
    2247                            .dwattr $C$DW$T$189, DW_AT_decl_line(0x6a)
    2248                            .dwattr $C$DW$T$189, DW_AT_decl_column(0x14)
    2249                    
    2250                    $C$DW$T$190     .dwtag  DW_TAG_typedef
    2251                            .dwattr $C$DW$T$190, DW_AT_name("uint_fast16_t")
    2252                            .dwattr $C$DW$T$190, DW_AT_type(*$C$DW$T$189)
    2253                            .dwattr $C$DW$T$190, DW_AT_language(DW_LANG_C)
    2254                            .dwattr $C$DW$T$190, DW_AT_decl_file("/home/pola/ti/ccsv8/tools/compiler/ti-cgt-arm_18.1.1.LTS
    2255                            .dwattr $C$DW$T$190, DW_AT_decl_line(0x38)
    2256                            .dwattr $C$DW$T$190, DW_AT_decl_column(0x1a)
    2257                    
    2258                    $C$DW$T$191     .dwtag  DW_TAG_typedef
    2259                            .dwattr $C$DW$T$191, DW_AT_name("__uint_fast32_t")
    2260                            .dwattr $C$DW$T$191, DW_AT_type(*$C$DW$T$39)
    2261                            .dwattr $C$DW$T$191, DW_AT_language(DW_LANG_C)
    2262                            .dwattr $C$DW$T$191, DW_AT_decl_file("/home/pola/ti/ccsv8/tools/compiler/ti-cgt-arm_18.1.1.LTS
    2263                            .dwattr $C$DW$T$191, DW_AT_decl_line(0x6b)
    2264                            .dwattr $C$DW$T$191, DW_AT_decl_column(0x14)
    2265                    
    2266                    $C$DW$T$192     .dwtag  DW_TAG_typedef
    2267                            .dwattr $C$DW$T$192, DW_AT_name("uint_fast32_t")
    2268                            .dwattr $C$DW$T$192, DW_AT_type(*$C$DW$T$191)
    2269                            .dwattr $C$DW$T$192, DW_AT_language(DW_LANG_C)
    2270                            .dwattr $C$DW$T$192, DW_AT_decl_file("/home/pola/ti/ccsv8/tools/compiler/ti-cgt-arm_18.1.1.LTS
    2271                            .dwattr $C$DW$T$192, DW_AT_decl_line(0x39)
    2272                            .dwattr $C$DW$T$192, DW_AT_decl_column(0x1a)
    2273                    
    2274                    $C$DW$T$193     .dwtag  DW_TAG_typedef
    2275                            .dwattr $C$DW$T$193, DW_AT_name("__uint_fast8_t")
    2276                            .dwattr $C$DW$T$193, DW_AT_type(*$C$DW$T$39)
    2277                            .dwattr $C$DW$T$193, DW_AT_language(DW_LANG_C)
    2278                            .dwattr $C$DW$T$193, DW_AT_decl_file("/home/pola/ti/ccsv8/tools/compiler/ti-cgt-arm_18.1.1.LTS
    2279                            .dwattr $C$DW$T$193, DW_AT_decl_line(0x69)
    2280                            .dwattr $C$DW$T$193, DW_AT_decl_column(0x14)
    2281                    
    2282                    $C$DW$T$194     .dwtag  DW_TAG_typedef
    2283                            .dwattr $C$DW$T$194, DW_AT_name("uint_fast8_t")
    2284                            .dwattr $C$DW$T$194, DW_AT_type(*$C$DW$T$193)
    2285                            .dwattr $C$DW$T$194, DW_AT_language(DW_LANG_C)
    2286                            .dwattr $C$DW$T$194, DW_AT_decl_file("/home/pola/ti/ccsv8/tools/compiler/ti-cgt-arm_18.1.1.LTS
    2287                            .dwattr $C$DW$T$194, DW_AT_decl_line(0x37)
    2288                            .dwattr $C$DW$T$194, DW_AT_decl_column(0x19)
    2289                    
    2290                    $C$DW$T$195     .dwtag  DW_TAG_typedef
    2291                            .dwattr $C$DW$T$195, DW_AT_name("__uint_least32_t")
TI ARM Assembler Unix v18.1.1 Fri Jul  3 20:08:22 2020

Tools Copyright (c) 1996-2017 Texas Instruments Incorporated
main.asm                                                             PAGE   43

    2292                            .dwattr $C$DW$T$195, DW_AT_type(*$C$DW$T$39)
    2293                            .dwattr $C$DW$T$195, DW_AT_language(DW_LANG_C)
    2294                            .dwattr $C$DW$T$195, DW_AT_decl_file("/home/pola/ti/ccsv8/tools/compiler/ti-cgt-arm_18.1.1.LTS
    2295                            .dwattr $C$DW$T$195, DW_AT_decl_line(0x6f)
    2296                            .dwattr $C$DW$T$195, DW_AT_decl_column(0x14)
    2297                    
    2298                    $C$DW$T$196     .dwtag  DW_TAG_typedef
    2299                            .dwattr $C$DW$T$196, DW_AT_name("__char32_t")
    2300                            .dwattr $C$DW$T$196, DW_AT_type(*$C$DW$T$195)
    2301                            .dwattr $C$DW$T$196, DW_AT_language(DW_LANG_C)
    2302                            .dwattr $C$DW$T$196, DW_AT_decl_file("/home/pola/ti/ccsv8/tools/compiler/ti-cgt-arm_18.1.1.LTS
    2303                            .dwattr $C$DW$T$196, DW_AT_decl_line(0x67)
    2304                            .dwattr $C$DW$T$196, DW_AT_decl_column(0x1a)
    2305                    
    2306                    $C$DW$T$197     .dwtag  DW_TAG_typedef
    2307                            .dwattr $C$DW$T$197, DW_AT_name("uint_least32_t")
    2308                            .dwattr $C$DW$T$197, DW_AT_type(*$C$DW$T$195)
    2309                            .dwattr $C$DW$T$197, DW_AT_language(DW_LANG_C)
    2310                            .dwattr $C$DW$T$197, DW_AT_decl_file("/home/pola/ti/ccsv8/tools/compiler/ti-cgt-arm_18.1.1.LTS
    2311                            .dwattr $C$DW$T$197, DW_AT_decl_line(0x2f)
    2312                            .dwattr $C$DW$T$197, DW_AT_decl_column(0x1a)
    2313                    
    2314                    $C$DW$T$198     .dwtag  DW_TAG_typedef
    2315                            .dwattr $C$DW$T$198, DW_AT_name("__uintfptr_t")
    2316                            .dwattr $C$DW$T$198, DW_AT_type(*$C$DW$T$39)
    2317                            .dwattr $C$DW$T$198, DW_AT_language(DW_LANG_C)
    2318                            .dwattr $C$DW$T$198, DW_AT_decl_file("/home/pola/ti/ccsv8/tools/compiler/ti-cgt-arm_18.1.1.LTS
    2319                            .dwattr $C$DW$T$198, DW_AT_decl_line(0x66)
    2320                            .dwattr $C$DW$T$198, DW_AT_decl_column(0x14)
    2321                    
    2322                    $C$DW$T$199     .dwtag  DW_TAG_typedef
    2323                            .dwattr $C$DW$T$199, DW_AT_name("__uintptr_t")
    2324                            .dwattr $C$DW$T$199, DW_AT_type(*$C$DW$T$39)
    2325                            .dwattr $C$DW$T$199, DW_AT_language(DW_LANG_C)
    2326                            .dwattr $C$DW$T$199, DW_AT_decl_file("/home/pola/ti/ccsv8/tools/compiler/ti-cgt-arm_18.1.1.LTS
    2327                            .dwattr $C$DW$T$199, DW_AT_decl_line(0x68)
    2328                            .dwattr $C$DW$T$199, DW_AT_decl_column(0x14)
    2329                    
    2330                    $C$DW$T$200     .dwtag  DW_TAG_typedef
    2331                            .dwattr $C$DW$T$200, DW_AT_name("uintptr_t")
    2332                            .dwattr $C$DW$T$200, DW_AT_type(*$C$DW$T$199)
    2333                            .dwattr $C$DW$T$200, DW_AT_language(DW_LANG_C)
    2334                            .dwattr $C$DW$T$200, DW_AT_decl_file("/home/pola/ti/ccsv8/tools/compiler/ti-cgt-arm_18.1.1.LTS
    2335                            .dwattr $C$DW$T$200, DW_AT_decl_line(0x50)
    2336                            .dwattr $C$DW$T$200, DW_AT_decl_column(0x16)
    2337                    
    2338                    $C$DW$T$201     .dwtag  DW_TAG_typedef
    2339                            .dwattr $C$DW$T$201, DW_AT_name("__vm_offset_t")
    2340                            .dwattr $C$DW$T$201, DW_AT_type(*$C$DW$T$39)
    2341                            .dwattr $C$DW$T$201, DW_AT_language(DW_LANG_C)
    2342                            .dwattr $C$DW$T$201, DW_AT_decl_file("/home/pola/ti/ccsv8/tools/compiler/ti-cgt-arm_18.1.1.LTS
    2343                            .dwattr $C$DW$T$201, DW_AT_decl_line(0x72)
    2344                            .dwattr $C$DW$T$201, DW_AT_decl_column(0x14)
    2345                    
    2346                    $C$DW$T$202     .dwtag  DW_TAG_typedef
TI ARM Assembler Unix v18.1.1 Fri Jul  3 20:08:22 2020

Tools Copyright (c) 1996-2017 Texas Instruments Incorporated
main.asm                                                             PAGE   44

    2347                            .dwattr $C$DW$T$202, DW_AT_name("__vm_paddr_t")
    2348                            .dwattr $C$DW$T$202, DW_AT_type(*$C$DW$T$39)
    2349                            .dwattr $C$DW$T$202, DW_AT_language(DW_LANG_C)
    2350                            .dwattr $C$DW$T$202, DW_AT_decl_file("/home/pola/ti/ccsv8/tools/compiler/ti-cgt-arm_18.1.1.LTS
    2351                            .dwattr $C$DW$T$202, DW_AT_decl_line(0x73)
    2352                            .dwattr $C$DW$T$202, DW_AT_decl_column(0x14)
    2353                    
    2354                    $C$DW$T$203     .dwtag  DW_TAG_typedef
    2355                            .dwattr $C$DW$T$203, DW_AT_name("__vm_size_t")
    2356                            .dwattr $C$DW$T$203, DW_AT_type(*$C$DW$T$39)
    2357                            .dwattr $C$DW$T$203, DW_AT_language(DW_LANG_C)
    2358                            .dwattr $C$DW$T$203, DW_AT_decl_file("/home/pola/ti/ccsv8/tools/compiler/ti-cgt-arm_18.1.1.LTS
    2359                            .dwattr $C$DW$T$203, DW_AT_decl_line(0x74)
    2360                            .dwattr $C$DW$T$203, DW_AT_decl_column(0x14)
    2361                    
    2362                    $C$DW$T$40      .dwtag  DW_TAG_typedef
    2363                            .dwattr $C$DW$T$40, DW_AT_name("uint32_t")
    2364                            .dwattr $C$DW$T$40, DW_AT_type(*$C$DW$T$39)
    2365                            .dwattr $C$DW$T$40, DW_AT_language(DW_LANG_C)
    2366                            .dwattr $C$DW$T$40, DW_AT_decl_file("/home/pola/ti/ccsv8/tools/compiler/ti-cgt-arm_18.1.1.LTS/
    2367                            .dwattr $C$DW$T$40, DW_AT_decl_line(0x42)
    2368                            .dwattr $C$DW$T$40, DW_AT_decl_column(0x15)
    2369                    
    2370                    $C$DW$T$77      .dwtag  DW_TAG_typedef
    2371                            .dwattr $C$DW$T$77, DW_AT_name("StackType_t")
    2372                            .dwattr $C$DW$T$77, DW_AT_type(*$C$DW$T$40)
    2373                            .dwattr $C$DW$T$77, DW_AT_language(DW_LANG_C)
    2374                            .dwattr $C$DW$T$77, DW_AT_decl_file("../OS/portmacro.h")
    2375                            .dwattr $C$DW$T$77, DW_AT_decl_line(0x37)
    2376                            .dwattr $C$DW$T$77, DW_AT_decl_column(0x18)
    2377                    
    2378                    $C$DW$T$78      .dwtag  DW_TAG_pointer_type
    2379                            .dwattr $C$DW$T$78, DW_AT_type(*$C$DW$T$77)
    2380                            .dwattr $C$DW$T$78, DW_AT_address_class(0x20)
    2381                    
    2382                    $C$DW$T$204     .dwtag  DW_TAG_const_type
    2383                            .dwattr $C$DW$T$204, DW_AT_type(*$C$DW$T$78)
    2384                    
    2385                    
    2386                    $C$DW$T$205     .dwtag  DW_TAG_array_type
    2387                            .dwattr $C$DW$T$205, DW_AT_type(*$C$DW$T$77)
    2388                            .dwattr $C$DW$T$205, DW_AT_language(DW_LANG_C)
    2389                            .dwattr $C$DW$T$205, DW_AT_byte_size(0x200)
    2390                    $C$DW$137       .dwtag  DW_TAG_subrange_type
    2391                            .dwattr $C$DW$137, DW_AT_upper_bound(0x7f)
    2392                    
    2393                            .dwendtag $C$DW$T$205
    2394                    
    2395                    $C$DW$T$41      .dwtag  DW_TAG_typedef
    2396                            .dwattr $C$DW$T$41, DW_AT_name("TickType_t")
    2397                            .dwattr $C$DW$T$41, DW_AT_type(*$C$DW$T$40)
    2398                            .dwattr $C$DW$T$41, DW_AT_language(DW_LANG_C)
    2399                            .dwattr $C$DW$T$41, DW_AT_decl_file("../OS/portmacro.h")
    2400                            .dwattr $C$DW$T$41, DW_AT_decl_line(0x3f)
    2401                            .dwattr $C$DW$T$41, DW_AT_decl_column(0x13)
TI ARM Assembler Unix v18.1.1 Fri Jul  3 20:08:22 2020

Tools Copyright (c) 1996-2017 Texas Instruments Incorporated
main.asm                                                             PAGE   45

    2402                    
    2403                    $C$DW$T$206     .dwtag  DW_TAG_const_type
    2404                            .dwattr $C$DW$T$206, DW_AT_type(*$C$DW$T$40)
    2405                    
    2406                    $C$DW$T$207     .dwtag  DW_TAG_typedef
    2407                            .dwattr $C$DW$T$207, DW_AT_name("__useconds_t")
    2408                            .dwattr $C$DW$T$207, DW_AT_type(*$C$DW$T$11)
    2409                            .dwattr $C$DW$T$207, DW_AT_language(DW_LANG_C)
    2410                            .dwattr $C$DW$T$207, DW_AT_decl_file("/home/pola/ti/ccsv8/tools/compiler/ti-cgt-arm_18.1.1.LTS
    2411                            .dwattr $C$DW$T$207, DW_AT_decl_line(0x49)
    2412                            .dwattr $C$DW$T$207, DW_AT_decl_column(0x16)
    2413                    
    2414                    $C$DW$T$31      .dwtag  DW_TAG_typedef
    2415                            .dwattr $C$DW$T$31, DW_AT_name("size_t")
    2416                            .dwattr $C$DW$T$31, DW_AT_type(*$C$DW$T$11)
    2417                            .dwattr $C$DW$T$31, DW_AT_language(DW_LANG_C)
    2418                            .dwattr $C$DW$T$31, DW_AT_decl_file("/home/pola/ti/ccsv8/tools/compiler/ti-cgt-arm_18.1.1.LTS/
    2419                            .dwattr $C$DW$T$31, DW_AT_decl_line(0x3a)
    2420                            .dwattr $C$DW$T$31, DW_AT_decl_column(0x19)
    2421                    
    2422                    
    2423                    $C$DW$T$60      .dwtag  DW_TAG_array_type
    2424                            .dwattr $C$DW$T$60, DW_AT_type(*$C$DW$T$31)
    2425                            .dwattr $C$DW$T$60, DW_AT_language(DW_LANG_C)
    2426                            .dwattr $C$DW$T$60, DW_AT_byte_size(0x10)
    2427                    $C$DW$138       .dwtag  DW_TAG_subrange_type
    2428                            .dwattr $C$DW$138, DW_AT_upper_bound(0x03)
    2429                    
    2430                            .dwendtag $C$DW$T$60
    2431                    
    2432                    $C$DW$T$12      .dwtag  DW_TAG_base_type
    2433                            .dwattr $C$DW$T$12, DW_AT_encoding(DW_ATE_signed)
    2434                            .dwattr $C$DW$T$12, DW_AT_name("long")
    2435                            .dwattr $C$DW$T$12, DW_AT_byte_size(0x04)
    2436                    
    2437                    $C$DW$T$87      .dwtag  DW_TAG_typedef
    2438                            .dwattr $C$DW$T$87, DW_AT_name("BaseType_t")
    2439                            .dwattr $C$DW$T$87, DW_AT_type(*$C$DW$T$12)
    2440                            .dwattr $C$DW$T$87, DW_AT_language(DW_LANG_C)
    2441                            .dwattr $C$DW$T$87, DW_AT_decl_file("../OS/portmacro.h")
    2442                            .dwattr $C$DW$T$87, DW_AT_decl_line(0x38)
    2443                            .dwattr $C$DW$T$87, DW_AT_decl_column(0x0e)
    2444                    
    2445                    
    2446                    $C$DW$T$208     .dwtag  DW_TAG_subroutine_type
    2447                            .dwattr $C$DW$T$208, DW_AT_type(*$C$DW$T$87)
    2448                            .dwattr $C$DW$T$208, DW_AT_language(DW_LANG_C)
    2449                    $C$DW$139       .dwtag  DW_TAG_formal_parameter
    2450                            .dwattr $C$DW$139, DW_AT_type(*$C$DW$T$3)
    2451                    
    2452                            .dwendtag $C$DW$T$208
    2453                    
    2454                    $C$DW$T$209     .dwtag  DW_TAG_pointer_type
    2455                            .dwattr $C$DW$T$209, DW_AT_type(*$C$DW$T$208)
    2456                            .dwattr $C$DW$T$209, DW_AT_address_class(0x20)
TI ARM Assembler Unix v18.1.1 Fri Jul  3 20:08:22 2020

Tools Copyright (c) 1996-2017 Texas Instruments Incorporated
main.asm                                                             PAGE   46

    2457                    
    2458                    $C$DW$T$210     .dwtag  DW_TAG_typedef
    2459                            .dwattr $C$DW$T$210, DW_AT_name("TaskHookFunction_t")
    2460                            .dwattr $C$DW$T$210, DW_AT_type(*$C$DW$T$209)
    2461                            .dwattr $C$DW$T$210, DW_AT_language(DW_LANG_C)
    2462                            .dwattr $C$DW$T$210, DW_AT_decl_file("../OS/task.h")
    2463                            .dwattr $C$DW$T$210, DW_AT_decl_line(0x44)
    2464                            .dwattr $C$DW$T$210, DW_AT_decl_column(0x16)
    2465                    
    2466                    $C$DW$T$211     .dwtag  DW_TAG_typedef
    2467                            .dwattr $C$DW$T$211, DW_AT_name("__key_t")
    2468                            .dwattr $C$DW$T$211, DW_AT_type(*$C$DW$T$12)
    2469                            .dwattr $C$DW$T$211, DW_AT_language(DW_LANG_C)
    2470                            .dwattr $C$DW$T$211, DW_AT_decl_file("/home/pola/ti/ccsv8/tools/compiler/ti-cgt-arm_18.1.1.LTS
    2471                            .dwattr $C$DW$T$211, DW_AT_decl_line(0x37)
    2472                            .dwattr $C$DW$T$211, DW_AT_decl_column(0x0f)
    2473                    
    2474                    $C$DW$T$212     .dwtag  DW_TAG_typedef
    2475                            .dwattr $C$DW$T$212, DW_AT_name("__suseconds_t")
    2476                            .dwattr $C$DW$T$212, DW_AT_type(*$C$DW$T$12)
    2477                            .dwattr $C$DW$T$212, DW_AT_language(DW_LANG_C)
    2478                            .dwattr $C$DW$T$212, DW_AT_decl_file("/home/pola/ti/ccsv8/tools/compiler/ti-cgt-arm_18.1.1.LTS
    2479                            .dwattr $C$DW$T$212, DW_AT_decl_line(0x45)
    2480                            .dwattr $C$DW$T$212, DW_AT_decl_column(0x0f)
    2481                    
    2482                    $C$DW$T$13      .dwtag  DW_TAG_base_type
    2483                            .dwattr $C$DW$T$13, DW_AT_encoding(DW_ATE_unsigned)
    2484                            .dwattr $C$DW$T$13, DW_AT_name("unsigned long")
    2485                            .dwattr $C$DW$T$13, DW_AT_byte_size(0x04)
    2486                    
    2487                    $C$DW$T$26      .dwtag  DW_TAG_typedef
    2488                            .dwattr $C$DW$T$26, DW_AT_name("UBaseType_t")
    2489                            .dwattr $C$DW$T$26, DW_AT_type(*$C$DW$T$13)
    2490                            .dwattr $C$DW$T$26, DW_AT_language(DW_LANG_C)
    2491                            .dwattr $C$DW$T$26, DW_AT_decl_file("../OS/portmacro.h")
    2492                            .dwattr $C$DW$T$26, DW_AT_decl_line(0x39)
    2493                            .dwattr $C$DW$T$26, DW_AT_decl_column(0x17)
    2494                    
    2495                    $C$DW$T$34      .dwtag  DW_TAG_volatile_type
    2496                            .dwattr $C$DW$T$34, DW_AT_type(*$C$DW$T$26)
    2497                    
    2498                    
    2499                    $C$DW$T$57      .dwtag  DW_TAG_array_type
    2500                            .dwattr $C$DW$T$57, DW_AT_type(*$C$DW$T$26)
    2501                            .dwattr $C$DW$T$57, DW_AT_language(DW_LANG_C)
    2502                            .dwattr $C$DW$T$57, DW_AT_byte_size(0x0c)
    2503                    $C$DW$140       .dwtag  DW_TAG_subrange_type
    2504                            .dwattr $C$DW$140, DW_AT_upper_bound(0x02)
    2505                    
    2506                            .dwendtag $C$DW$T$57
    2507                    
    2508                    
    2509                    $C$DW$T$65      .dwtag  DW_TAG_array_type
    2510                            .dwattr $C$DW$T$65, DW_AT_type(*$C$DW$T$26)
    2511                            .dwattr $C$DW$T$65, DW_AT_language(DW_LANG_C)
TI ARM Assembler Unix v18.1.1 Fri Jul  3 20:08:22 2020

Tools Copyright (c) 1996-2017 Texas Instruments Incorporated
main.asm                                                             PAGE   47

    2512                            .dwattr $C$DW$T$65, DW_AT_byte_size(0x08)
    2513                    $C$DW$141       .dwtag  DW_TAG_subrange_type
    2514                            .dwattr $C$DW$141, DW_AT_upper_bound(0x01)
    2515                    
    2516                            .dwendtag $C$DW$T$65
    2517                    
    2518                    $C$DW$T$14      .dwtag  DW_TAG_base_type
    2519                            .dwattr $C$DW$T$14, DW_AT_encoding(DW_ATE_signed)
    2520                            .dwattr $C$DW$T$14, DW_AT_name("long long")
    2521                            .dwattr $C$DW$T$14, DW_AT_byte_size(0x08)
    2522                    
    2523                    $C$DW$T$213     .dwtag  DW_TAG_typedef
    2524                            .dwattr $C$DW$T$213, DW_AT_name("__int64_t")
    2525                            .dwattr $C$DW$T$213, DW_AT_type(*$C$DW$T$14)
    2526                            .dwattr $C$DW$T$213, DW_AT_language(DW_LANG_C)
    2527                            .dwattr $C$DW$T$213, DW_AT_decl_file("/home/pola/ti/ccsv8/tools/compiler/ti-cgt-arm_18.1.1.LTS
    2528                            .dwattr $C$DW$T$213, DW_AT_decl_line(0x43)
    2529                            .dwattr $C$DW$T$213, DW_AT_decl_column(0x14)
    2530                    
    2531                    $C$DW$T$214     .dwtag  DW_TAG_typedef
    2532                            .dwattr $C$DW$T$214, DW_AT_name("__blkcnt_t")
    2533                            .dwattr $C$DW$T$214, DW_AT_type(*$C$DW$T$213)
    2534                            .dwattr $C$DW$T$214, DW_AT_language(DW_LANG_C)
    2535                            .dwattr $C$DW$T$214, DW_AT_decl_file("/home/pola/ti/ccsv8/tools/compiler/ti-cgt-arm_18.1.1.LTS
    2536                            .dwattr $C$DW$T$214, DW_AT_decl_line(0x2f)
    2537                            .dwattr $C$DW$T$214, DW_AT_decl_column(0x13)
    2538                    
    2539                    $C$DW$T$215     .dwtag  DW_TAG_typedef
    2540                            .dwattr $C$DW$T$215, DW_AT_name("__id_t")
    2541                            .dwattr $C$DW$T$215, DW_AT_type(*$C$DW$T$213)
    2542                            .dwattr $C$DW$T$215, DW_AT_language(DW_LANG_C)
    2543                            .dwattr $C$DW$T$215, DW_AT_decl_file("/home/pola/ti/ccsv8/tools/compiler/ti-cgt-arm_18.1.1.LTS
    2544                            .dwattr $C$DW$T$215, DW_AT_decl_line(0x35)
    2545                            .dwattr $C$DW$T$215, DW_AT_decl_column(0x13)
    2546                    
    2547                    $C$DW$T$216     .dwtag  DW_TAG_typedef
    2548                            .dwattr $C$DW$T$216, DW_AT_name("__int_fast64_t")
    2549                            .dwattr $C$DW$T$216, DW_AT_type(*$C$DW$T$213)
    2550                            .dwattr $C$DW$T$216, DW_AT_language(DW_LANG_C)
    2551                            .dwattr $C$DW$T$216, DW_AT_decl_file("/home/pola/ti/ccsv8/tools/compiler/ti-cgt-arm_18.1.1.LTS
    2552                            .dwattr $C$DW$T$216, DW_AT_decl_line(0x57)
    2553                            .dwattr $C$DW$T$216, DW_AT_decl_column(0x13)
    2554                    
    2555                    $C$DW$T$217     .dwtag  DW_TAG_typedef
    2556                            .dwattr $C$DW$T$217, DW_AT_name("int_fast64_t")
    2557                            .dwattr $C$DW$T$217, DW_AT_type(*$C$DW$T$216)
    2558                            .dwattr $C$DW$T$217, DW_AT_language(DW_LANG_C)
    2559                            .dwattr $C$DW$T$217, DW_AT_decl_file("/home/pola/ti/ccsv8/tools/compiler/ti-cgt-arm_18.1.1.LTS
    2560                            .dwattr $C$DW$T$217, DW_AT_decl_line(0x35)
    2561                            .dwattr $C$DW$T$217, DW_AT_decl_column(0x19)
    2562                    
    2563                    $C$DW$T$218     .dwtag  DW_TAG_typedef
    2564                            .dwattr $C$DW$T$218, DW_AT_name("__int_least64_t")
    2565                            .dwattr $C$DW$T$218, DW_AT_type(*$C$DW$T$213)
    2566                            .dwattr $C$DW$T$218, DW_AT_language(DW_LANG_C)
TI ARM Assembler Unix v18.1.1 Fri Jul  3 20:08:22 2020

Tools Copyright (c) 1996-2017 Texas Instruments Incorporated
main.asm                                                             PAGE   48

    2567                            .dwattr $C$DW$T$218, DW_AT_decl_file("/home/pola/ti/ccsv8/tools/compiler/ti-cgt-arm_18.1.1.LTS
    2568                            .dwattr $C$DW$T$218, DW_AT_decl_line(0x5b)
    2569                            .dwattr $C$DW$T$218, DW_AT_decl_column(0x13)
    2570                    
    2571                    $C$DW$T$219     .dwtag  DW_TAG_typedef
    2572                            .dwattr $C$DW$T$219, DW_AT_name("int_least64_t")
    2573                            .dwattr $C$DW$T$219, DW_AT_type(*$C$DW$T$218)
    2574                            .dwattr $C$DW$T$219, DW_AT_language(DW_LANG_C)
    2575                            .dwattr $C$DW$T$219, DW_AT_decl_file("/home/pola/ti/ccsv8/tools/compiler/ti-cgt-arm_18.1.1.LTS
    2576                            .dwattr $C$DW$T$219, DW_AT_decl_line(0x2b)
    2577                            .dwattr $C$DW$T$219, DW_AT_decl_column(0x1a)
    2578                    
    2579                    $C$DW$T$220     .dwtag  DW_TAG_typedef
    2580                            .dwattr $C$DW$T$220, DW_AT_name("__intmax_t")
    2581                            .dwattr $C$DW$T$220, DW_AT_type(*$C$DW$T$213)
    2582                            .dwattr $C$DW$T$220, DW_AT_language(DW_LANG_C)
    2583                            .dwattr $C$DW$T$220, DW_AT_decl_file("/home/pola/ti/ccsv8/tools/compiler/ti-cgt-arm_18.1.1.LTS
    2584                            .dwattr $C$DW$T$220, DW_AT_decl_line(0x52)
    2585                            .dwattr $C$DW$T$220, DW_AT_decl_column(0x13)
    2586                    
    2587                    $C$DW$T$221     .dwtag  DW_TAG_typedef
    2588                            .dwattr $C$DW$T$221, DW_AT_name("intmax_t")
    2589                            .dwattr $C$DW$T$221, DW_AT_type(*$C$DW$T$220)
    2590                            .dwattr $C$DW$T$221, DW_AT_language(DW_LANG_C)
    2591                            .dwattr $C$DW$T$221, DW_AT_decl_file("/home/pola/ti/ccsv8/tools/compiler/ti-cgt-arm_18.1.1.LTS
    2592                            .dwattr $C$DW$T$221, DW_AT_decl_line(0x54)
    2593                            .dwattr $C$DW$T$221, DW_AT_decl_column(0x15)
    2594                    
    2595                    $C$DW$T$222     .dwtag  DW_TAG_typedef
    2596                            .dwattr $C$DW$T$222, DW_AT_name("__off64_t")
    2597                            .dwattr $C$DW$T$222, DW_AT_type(*$C$DW$T$213)
    2598                            .dwattr $C$DW$T$222, DW_AT_language(DW_LANG_C)
    2599                            .dwattr $C$DW$T$222, DW_AT_decl_file("/home/pola/ti/ccsv8/tools/compiler/ti-cgt-arm_18.1.1.LTS
    2600                            .dwattr $C$DW$T$222, DW_AT_decl_line(0x3e)
    2601                            .dwattr $C$DW$T$222, DW_AT_decl_column(0x13)
    2602                    
    2603                    $C$DW$T$223     .dwtag  DW_TAG_typedef
    2604                            .dwattr $C$DW$T$223, DW_AT_name("__off_t")
    2605                            .dwattr $C$DW$T$223, DW_AT_type(*$C$DW$T$213)
    2606                            .dwattr $C$DW$T$223, DW_AT_language(DW_LANG_C)
    2607                            .dwattr $C$DW$T$223, DW_AT_decl_file("/home/pola/ti/ccsv8/tools/compiler/ti-cgt-arm_18.1.1.LTS
    2608                            .dwattr $C$DW$T$223, DW_AT_decl_line(0x3d)
    2609                            .dwattr $C$DW$T$223, DW_AT_decl_column(0x13)
    2610                    
    2611                    $C$DW$T$224     .dwtag  DW_TAG_typedef
    2612                            .dwattr $C$DW$T$224, DW_AT_name("__rlim_t")
    2613                            .dwattr $C$DW$T$224, DW_AT_type(*$C$DW$T$213)
    2614                            .dwattr $C$DW$T$224, DW_AT_language(DW_LANG_C)
    2615                            .dwattr $C$DW$T$224, DW_AT_decl_file("/home/pola/ti/ccsv8/tools/compiler/ti-cgt-arm_18.1.1.LTS
    2616                            .dwattr $C$DW$T$224, DW_AT_decl_line(0x40)
    2617                            .dwattr $C$DW$T$224, DW_AT_decl_column(0x13)
    2618                    
    2619                    $C$DW$T$225     .dwtag  DW_TAG_typedef
    2620                            .dwattr $C$DW$T$225, DW_AT_name("int64_t")
    2621                            .dwattr $C$DW$T$225, DW_AT_type(*$C$DW$T$213)
TI ARM Assembler Unix v18.1.1 Fri Jul  3 20:08:22 2020

Tools Copyright (c) 1996-2017 Texas Instruments Incorporated
main.asm                                                             PAGE   49

    2622                            .dwattr $C$DW$T$225, DW_AT_language(DW_LANG_C)
    2623                            .dwattr $C$DW$T$225, DW_AT_decl_file("/home/pola/ti/ccsv8/tools/compiler/ti-cgt-arm_18.1.1.LTS
    2624                            .dwattr $C$DW$T$225, DW_AT_decl_line(0x33)
    2625                            .dwattr $C$DW$T$225, DW_AT_decl_column(0x14)
    2626                    
    2627                    $C$DW$T$15      .dwtag  DW_TAG_base_type
    2628                            .dwattr $C$DW$T$15, DW_AT_encoding(DW_ATE_unsigned)
    2629                            .dwattr $C$DW$T$15, DW_AT_name("unsigned long long")
    2630                            .dwattr $C$DW$T$15, DW_AT_byte_size(0x08)
    2631                    
    2632                    $C$DW$T$226     .dwtag  DW_TAG_typedef
    2633                            .dwattr $C$DW$T$226, DW_AT_name("__uint64_t")
    2634                            .dwattr $C$DW$T$226, DW_AT_type(*$C$DW$T$15)
    2635                            .dwattr $C$DW$T$226, DW_AT_language(DW_LANG_C)
    2636                            .dwattr $C$DW$T$226, DW_AT_decl_file("/home/pola/ti/ccsv8/tools/compiler/ti-cgt-arm_18.1.1.LTS
    2637                            .dwattr $C$DW$T$226, DW_AT_decl_line(0x48)
    2638                            .dwattr $C$DW$T$226, DW_AT_decl_column(0x1c)
    2639                    
    2640                    $C$DW$T$227     .dwtag  DW_TAG_typedef
    2641                            .dwattr $C$DW$T$227, DW_AT_name("__dev_t")
    2642                            .dwattr $C$DW$T$227, DW_AT_type(*$C$DW$T$226)
    2643                            .dwattr $C$DW$T$227, DW_AT_language(DW_LANG_C)
    2644                            .dwattr $C$DW$T$227, DW_AT_decl_file("/home/pola/ti/ccsv8/tools/compiler/ti-cgt-arm_18.1.1.LTS
    2645                            .dwattr $C$DW$T$227, DW_AT_decl_line(0x74)
    2646                            .dwattr $C$DW$T$227, DW_AT_decl_column(0x14)
    2647                    
    2648                    $C$DW$T$228     .dwtag  DW_TAG_typedef
    2649                            .dwattr $C$DW$T$228, DW_AT_name("__fsblkcnt_t")
    2650                            .dwattr $C$DW$T$228, DW_AT_type(*$C$DW$T$226)
    2651                            .dwattr $C$DW$T$228, DW_AT_language(DW_LANG_C)
    2652                            .dwattr $C$DW$T$228, DW_AT_decl_file("/home/pola/ti/ccsv8/tools/compiler/ti-cgt-arm_18.1.1.LTS
    2653                            .dwattr $C$DW$T$228, DW_AT_decl_line(0x32)
    2654                            .dwattr $C$DW$T$228, DW_AT_decl_column(0x14)
    2655                    
    2656                    $C$DW$T$229     .dwtag  DW_TAG_typedef
    2657                            .dwattr $C$DW$T$229, DW_AT_name("__fsfilcnt_t")
    2658                            .dwattr $C$DW$T$229, DW_AT_type(*$C$DW$T$226)
    2659                            .dwattr $C$DW$T$229, DW_AT_language(DW_LANG_C)
    2660                            .dwattr $C$DW$T$229, DW_AT_decl_file("/home/pola/ti/ccsv8/tools/compiler/ti-cgt-arm_18.1.1.LTS
    2661                            .dwattr $C$DW$T$229, DW_AT_decl_line(0x33)
    2662                            .dwattr $C$DW$T$229, DW_AT_decl_column(0x14)
    2663                    
    2664                    $C$DW$T$230     .dwtag  DW_TAG_typedef
    2665                            .dwattr $C$DW$T$230, DW_AT_name("__ino_t")
    2666                            .dwattr $C$DW$T$230, DW_AT_type(*$C$DW$T$226)
    2667                            .dwattr $C$DW$T$230, DW_AT_language(DW_LANG_C)
    2668                            .dwattr $C$DW$T$230, DW_AT_decl_file("/home/pola/ti/ccsv8/tools/compiler/ti-cgt-arm_18.1.1.LTS
    2669                            .dwattr $C$DW$T$230, DW_AT_decl_line(0x36)
    2670                            .dwattr $C$DW$T$230, DW_AT_decl_column(0x14)
    2671                    
    2672                    $C$DW$T$231     .dwtag  DW_TAG_typedef
    2673                            .dwattr $C$DW$T$231, DW_AT_name("__nlink_t")
    2674                            .dwattr $C$DW$T$231, DW_AT_type(*$C$DW$T$226)
    2675                            .dwattr $C$DW$T$231, DW_AT_language(DW_LANG_C)
    2676                            .dwattr $C$DW$T$231, DW_AT_decl_file("/home/pola/ti/ccsv8/tools/compiler/ti-cgt-arm_18.1.1.LTS
TI ARM Assembler Unix v18.1.1 Fri Jul  3 20:08:22 2020

Tools Copyright (c) 1996-2017 Texas Instruments Incorporated
main.asm                                                             PAGE   50

    2677                            .dwattr $C$DW$T$231, DW_AT_decl_line(0x3c)
    2678                            .dwattr $C$DW$T$231, DW_AT_decl_column(0x14)
    2679                    
    2680                    $C$DW$T$232     .dwtag  DW_TAG_typedef
    2681                            .dwattr $C$DW$T$232, DW_AT_name("__uint_fast64_t")
    2682                            .dwattr $C$DW$T$232, DW_AT_type(*$C$DW$T$226)
    2683                            .dwattr $C$DW$T$232, DW_AT_language(DW_LANG_C)
    2684                            .dwattr $C$DW$T$232, DW_AT_decl_file("/home/pola/ti/ccsv8/tools/compiler/ti-cgt-arm_18.1.1.LTS
    2685                            .dwattr $C$DW$T$232, DW_AT_decl_line(0x6c)
    2686                            .dwattr $C$DW$T$232, DW_AT_decl_column(0x14)
    2687                    
    2688                    $C$DW$T$233     .dwtag  DW_TAG_typedef
    2689                            .dwattr $C$DW$T$233, DW_AT_name("uint_fast64_t")
    2690                            .dwattr $C$DW$T$233, DW_AT_type(*$C$DW$T$232)
    2691                            .dwattr $C$DW$T$233, DW_AT_language(DW_LANG_C)
    2692                            .dwattr $C$DW$T$233, DW_AT_decl_file("/home/pola/ti/ccsv8/tools/compiler/ti-cgt-arm_18.1.1.LTS
    2693                            .dwattr $C$DW$T$233, DW_AT_decl_line(0x3a)
    2694                            .dwattr $C$DW$T$233, DW_AT_decl_column(0x1a)
    2695                    
    2696                    $C$DW$T$234     .dwtag  DW_TAG_typedef
    2697                            .dwattr $C$DW$T$234, DW_AT_name("__uint_least64_t")
    2698                            .dwattr $C$DW$T$234, DW_AT_type(*$C$DW$T$226)
    2699                            .dwattr $C$DW$T$234, DW_AT_language(DW_LANG_C)
    2700                            .dwattr $C$DW$T$234, DW_AT_decl_file("/home/pola/ti/ccsv8/tools/compiler/ti-cgt-arm_18.1.1.LTS
    2701                            .dwattr $C$DW$T$234, DW_AT_decl_line(0x70)
    2702                            .dwattr $C$DW$T$234, DW_AT_decl_column(0x14)
    2703                    
    2704                    $C$DW$T$235     .dwtag  DW_TAG_typedef
    2705                            .dwattr $C$DW$T$235, DW_AT_name("uint_least64_t")
    2706                            .dwattr $C$DW$T$235, DW_AT_type(*$C$DW$T$234)
    2707                            .dwattr $C$DW$T$235, DW_AT_language(DW_LANG_C)
    2708                            .dwattr $C$DW$T$235, DW_AT_decl_file("/home/pola/ti/ccsv8/tools/compiler/ti-cgt-arm_18.1.1.LTS
    2709                            .dwattr $C$DW$T$235, DW_AT_decl_line(0x30)
    2710                            .dwattr $C$DW$T$235, DW_AT_decl_column(0x1a)
    2711                    
    2712                    $C$DW$T$236     .dwtag  DW_TAG_typedef
    2713                            .dwattr $C$DW$T$236, DW_AT_name("__uintmax_t")
    2714                            .dwattr $C$DW$T$236, DW_AT_type(*$C$DW$T$226)
    2715                            .dwattr $C$DW$T$236, DW_AT_language(DW_LANG_C)
    2716                            .dwattr $C$DW$T$236, DW_AT_decl_file("/home/pola/ti/ccsv8/tools/compiler/ti-cgt-arm_18.1.1.LTS
    2717                            .dwattr $C$DW$T$236, DW_AT_decl_line(0x67)
    2718                            .dwattr $C$DW$T$236, DW_AT_decl_column(0x14)
    2719                    
    2720                    $C$DW$T$237     .dwtag  DW_TAG_typedef
    2721                            .dwattr $C$DW$T$237, DW_AT_name("__rman_res_t")
    2722                            .dwattr $C$DW$T$237, DW_AT_type(*$C$DW$T$236)
    2723                            .dwattr $C$DW$T$237, DW_AT_language(DW_LANG_C)
    2724                            .dwattr $C$DW$T$237, DW_AT_decl_file("/home/pola/ti/ccsv8/tools/compiler/ti-cgt-arm_18.1.1.LTS
    2725                            .dwattr $C$DW$T$237, DW_AT_decl_line(0x8f)
    2726                            .dwattr $C$DW$T$237, DW_AT_decl_column(0x19)
    2727                    
    2728                    $C$DW$T$238     .dwtag  DW_TAG_typedef
    2729                            .dwattr $C$DW$T$238, DW_AT_name("uintmax_t")
    2730                            .dwattr $C$DW$T$238, DW_AT_type(*$C$DW$T$236)
    2731                            .dwattr $C$DW$T$238, DW_AT_language(DW_LANG_C)
TI ARM Assembler Unix v18.1.1 Fri Jul  3 20:08:22 2020

Tools Copyright (c) 1996-2017 Texas Instruments Incorporated
main.asm                                                             PAGE   51

    2732                            .dwattr $C$DW$T$238, DW_AT_decl_file("/home/pola/ti/ccsv8/tools/compiler/ti-cgt-arm_18.1.1.LTS
    2733                            .dwattr $C$DW$T$238, DW_AT_decl_line(0x58)
    2734                            .dwattr $C$DW$T$238, DW_AT_decl_column(0x16)
    2735                    
    2736                    $C$DW$T$239     .dwtag  DW_TAG_typedef
    2737                            .dwattr $C$DW$T$239, DW_AT_name("uint64_t")
    2738                            .dwattr $C$DW$T$239, DW_AT_type(*$C$DW$T$226)
    2739                            .dwattr $C$DW$T$239, DW_AT_language(DW_LANG_C)
    2740                            .dwattr $C$DW$T$239, DW_AT_decl_file("/home/pola/ti/ccsv8/tools/compiler/ti-cgt-arm_18.1.1.LTS
    2741                            .dwattr $C$DW$T$239, DW_AT_decl_line(0x47)
    2742                            .dwattr $C$DW$T$239, DW_AT_decl_column(0x15)
    2743                    
    2744                    $C$DW$T$16      .dwtag  DW_TAG_base_type
    2745                            .dwattr $C$DW$T$16, DW_AT_encoding(DW_ATE_float)
    2746                            .dwattr $C$DW$T$16, DW_AT_name("float")
    2747                            .dwattr $C$DW$T$16, DW_AT_byte_size(0x04)
    2748                    
    2749                    $C$DW$T$240     .dwtag  DW_TAG_typedef
    2750                            .dwattr $C$DW$T$240, DW_AT_name("__float_t")
    2751                            .dwattr $C$DW$T$240, DW_AT_type(*$C$DW$T$16)
    2752                            .dwattr $C$DW$T$240, DW_AT_language(DW_LANG_C)
    2753                            .dwattr $C$DW$T$240, DW_AT_decl_file("/home/pola/ti/ccsv8/tools/compiler/ti-cgt-arm_18.1.1.LTS
    2754                            .dwattr $C$DW$T$240, DW_AT_decl_line(0x50)
    2755                            .dwattr $C$DW$T$240, DW_AT_decl_column(0x10)
    2756                    
    2757                    $C$DW$T$17      .dwtag  DW_TAG_base_type
    2758                            .dwattr $C$DW$T$17, DW_AT_encoding(DW_ATE_float)
    2759                            .dwattr $C$DW$T$17, DW_AT_name("double")
    2760                            .dwattr $C$DW$T$17, DW_AT_byte_size(0x08)
    2761                    
    2762                    $C$DW$T$241     .dwtag  DW_TAG_typedef
    2763                            .dwattr $C$DW$T$241, DW_AT_name("__double_t")
    2764                            .dwattr $C$DW$T$241, DW_AT_type(*$C$DW$T$17)
    2765                            .dwattr $C$DW$T$241, DW_AT_language(DW_LANG_C)
    2766                            .dwattr $C$DW$T$241, DW_AT_decl_file("/home/pola/ti/ccsv8/tools/compiler/ti-cgt-arm_18.1.1.LTS
    2767                            .dwattr $C$DW$T$241, DW_AT_decl_line(0x4f)
    2768                            .dwattr $C$DW$T$241, DW_AT_decl_column(0x11)
    2769                    
    2770                    $C$DW$T$18      .dwtag  DW_TAG_base_type
    2771                            .dwattr $C$DW$T$18, DW_AT_encoding(DW_ATE_float)
    2772                            .dwattr $C$DW$T$18, DW_AT_name("long double")
    2773                            .dwattr $C$DW$T$18, DW_AT_byte_size(0x08)
    2774                    
    2775                    $C$DW$T$242     .dwtag  DW_TAG_typedef
    2776                            .dwattr $C$DW$T$242, DW_AT_name("max_align_t")
    2777                            .dwattr $C$DW$T$242, DW_AT_type(*$C$DW$T$18)
    2778                            .dwattr $C$DW$T$242, DW_AT_language(DW_LANG_C)
    2779                            .dwattr $C$DW$T$242, DW_AT_decl_file("/home/pola/ti/ccsv8/tools/compiler/ti-cgt-arm_18.1.1.LTS
    2780                            .dwattr $C$DW$T$242, DW_AT_decl_line(0x4f)
    2781                            .dwattr $C$DW$T$242, DW_AT_decl_column(0x15)
    2782                    
    2783                    $C$DW$T$72      .dwtag  DW_TAG_const_type
    2784                            .dwattr $C$DW$T$72, DW_AT_type(*$C$DW$T$6)
    2785                    
    2786                    $C$DW$T$73      .dwtag  DW_TAG_pointer_type
TI ARM Assembler Unix v18.1.1 Fri Jul  3 20:08:22 2020

Tools Copyright (c) 1996-2017 Texas Instruments Incorporated
main.asm                                                             PAGE   52

    2787                            .dwattr $C$DW$T$73, DW_AT_type(*$C$DW$T$72)
    2788                            .dwattr $C$DW$T$73, DW_AT_address_class(0x20)
    2789                    
    2790                    $C$DW$T$74      .dwtag  DW_TAG_const_type
    2791                            .dwattr $C$DW$T$74, DW_AT_type(*$C$DW$T$73)
    2792                    
    2793                    $C$DW$T$244     .dwtag  DW_TAG_base_type
    2794                            .dwattr $C$DW$T$244, DW_AT_encoding(DW_ATE_unsigned_char)
    2795                            .dwattr $C$DW$T$244, DW_AT_name("unsigned char")
    2796                            .dwattr $C$DW$T$244, DW_AT_byte_size(0x01)
    2797                    
    2798                    
    2799                    $C$DW$T$19      .dwtag  DW_TAG_structure_type
    2800                            .dwattr $C$DW$T$19, DW_AT_name("__mq")
    2801                            .dwattr $C$DW$T$19, DW_AT_declaration
    2802                            .dwattr $C$DW$T$19, DW_AT_decl_file("/home/pola/ti/ccsv8/tools/compiler/ti-cgt-arm_18.1.1.LTS/
    2803                            .dwattr $C$DW$T$19, DW_AT_decl_line(0x47)
    2804                            .dwattr $C$DW$T$19, DW_AT_decl_column(0x10)
    2805                            .dwendtag $C$DW$T$19
    2806                    
    2807                    $C$DW$T$247     .dwtag  DW_TAG_pointer_type
    2808                            .dwattr $C$DW$T$247, DW_AT_type(*$C$DW$T$19)
    2809                            .dwattr $C$DW$T$247, DW_AT_address_class(0x20)
    2810                    
    2811                    $C$DW$T$248     .dwtag  DW_TAG_typedef
    2812                            .dwattr $C$DW$T$248, DW_AT_name("__mqd_t")
    2813                            .dwattr $C$DW$T$248, DW_AT_type(*$C$DW$T$247)
    2814                            .dwattr $C$DW$T$248, DW_AT_language(DW_LANG_C)
    2815                            .dwattr $C$DW$T$248, DW_AT_decl_file("/home/pola/ti/ccsv8/tools/compiler/ti-cgt-arm_18.1.1.LTS
    2816                            .dwattr $C$DW$T$248, DW_AT_decl_line(0x47)
    2817                            .dwattr $C$DW$T$248, DW_AT_decl_column(0x16)
    2818                    
    2819                    
    2820                    $C$DW$T$20      .dwtag  DW_TAG_structure_type
    2821                            .dwattr $C$DW$T$20, DW_AT_name("__timer")
    2822                            .dwattr $C$DW$T$20, DW_AT_declaration
    2823                            .dwattr $C$DW$T$20, DW_AT_decl_file("/home/pola/ti/ccsv8/tools/compiler/ti-cgt-arm_18.1.1.LTS/
    2824                            .dwattr $C$DW$T$20, DW_AT_decl_line(0x46)
    2825                            .dwattr $C$DW$T$20, DW_AT_decl_column(0x10)
    2826                            .dwendtag $C$DW$T$20
    2827                    
    2828                    $C$DW$T$249     .dwtag  DW_TAG_pointer_type
    2829                            .dwattr $C$DW$T$249, DW_AT_type(*$C$DW$T$20)
    2830                            .dwattr $C$DW$T$249, DW_AT_address_class(0x20)
    2831                    
    2832                    $C$DW$T$250     .dwtag  DW_TAG_typedef
    2833                            .dwattr $C$DW$T$250, DW_AT_name("__timer_t")
    2834                            .dwattr $C$DW$T$250, DW_AT_type(*$C$DW$T$249)
    2835                            .dwattr $C$DW$T$250, DW_AT_language(DW_LANG_C)
    2836                            .dwattr $C$DW$T$250, DW_AT_decl_file("/home/pola/ti/ccsv8/tools/compiler/ti-cgt-arm_18.1.1.LTS
    2837                            .dwattr $C$DW$T$250, DW_AT_decl_line(0x46)
    2838                            .dwattr $C$DW$T$250, DW_AT_decl_column(0x19)
    2839                    
    2840                    
    2841                    $C$DW$T$33      .dwtag  DW_TAG_structure_type
TI ARM Assembler Unix v18.1.1 Fri Jul  3 20:08:22 2020

Tools Copyright (c) 1996-2017 Texas Instruments Incorporated
main.asm                                                             PAGE   53

    2842                            .dwattr $C$DW$T$33, DW_AT_name("__va_list_t")
    2843                            .dwattr $C$DW$T$33, DW_AT_byte_size(0x04)
    2844                    $C$DW$142       .dwtag  DW_TAG_member
    2845                            .dwattr $C$DW$142, DW_AT_type(*$C$DW$T$3)
    2846                            .dwattr $C$DW$142, DW_AT_name("__ap")
    2847                            .dwattr $C$DW$142, DW_AT_TI_symbol_name("__ap")
    2848                            .dwattr $C$DW$142, DW_AT_data_member_location[DW_OP_plus_uconst 0x0]
    2849                            .dwattr $C$DW$142, DW_AT_accessibility(DW_ACCESS_public)
    2850                            .dwattr $C$DW$142, DW_AT_decl_file("/home/pola/ti/ccsv8/tools/compiler/ti-cgt-arm_18.1.1.LTS/i
    2851                            .dwattr $C$DW$142, DW_AT_decl_line(0x88)
    2852                            .dwattr $C$DW$142, DW_AT_decl_column(0x0c)
    2853                    
    2854                            .dwattr $C$DW$T$33, DW_AT_decl_file("/home/pola/ti/ccsv8/tools/compiler/ti-cgt-arm_18.1.1.LTS/
    2855                            .dwattr $C$DW$T$33, DW_AT_decl_line(0x87)
    2856                            .dwattr $C$DW$T$33, DW_AT_decl_column(0x10)
    2857                            .dwendtag $C$DW$T$33
    2858                    
    2859                    $C$DW$T$251     .dwtag  DW_TAG_typedef
    2860                            .dwattr $C$DW$T$251, DW_AT_name("__va_list")
    2861                            .dwattr $C$DW$T$251, DW_AT_type(*$C$DW$T$33)
    2862                            .dwattr $C$DW$T$251, DW_AT_language(DW_LANG_C)
    2863                            .dwattr $C$DW$T$251, DW_AT_decl_file("/home/pola/ti/ccsv8/tools/compiler/ti-cgt-arm_18.1.1.LTS
    2864                            .dwattr $C$DW$T$251, DW_AT_decl_line(0x89)
    2865                            .dwattr $C$DW$T$251, DW_AT_decl_column(0x03)
    2866                    
    2867                    
    2868                    $C$DW$T$21      .dwtag  DW_TAG_structure_type
    2869                            .dwattr $C$DW$T$21, DW_AT_name("tskTaskControlBlock")
    2870                            .dwattr $C$DW$T$21, DW_AT_declaration
    2871                            .dwattr $C$DW$T$21, DW_AT_decl_file("../OS/task.h")
    2872                            .dwattr $C$DW$T$21, DW_AT_decl_line(0x3d)
    2873                            .dwattr $C$DW$T$21, DW_AT_decl_column(0x08)
    2874                            .dwendtag $C$DW$T$21
    2875                    
    2876                    $C$DW$T$82      .dwtag  DW_TAG_pointer_type
    2877                            .dwattr $C$DW$T$82, DW_AT_type(*$C$DW$T$21)
    2878                            .dwattr $C$DW$T$82, DW_AT_address_class(0x20)
    2879                    
    2880                    $C$DW$T$83      .dwtag  DW_TAG_typedef
    2881                            .dwattr $C$DW$T$83, DW_AT_name("TaskHandle_t")
    2882                            .dwattr $C$DW$T$83, DW_AT_type(*$C$DW$T$82)
    2883                            .dwattr $C$DW$T$83, DW_AT_language(DW_LANG_C)
    2884                            .dwattr $C$DW$T$83, DW_AT_decl_file("../OS/task.h")
    2885                            .dwattr $C$DW$T$83, DW_AT_decl_line(0x3e)
    2886                            .dwattr $C$DW$T$83, DW_AT_decl_column(0x25)
    2887                    
    2888                    
    2889                    $C$DW$T$38      .dwtag  DW_TAG_structure_type
    2890                            .dwattr $C$DW$T$38, DW_AT_name("xLIST")
    2891                            .dwattr $C$DW$T$38, DW_AT_byte_size(0x14)
    2892                    $C$DW$143       .dwtag  DW_TAG_member
    2893                            .dwattr $C$DW$143, DW_AT_type(*$C$DW$T$34)
    2894                            .dwattr $C$DW$143, DW_AT_name("uxNumberOfItems")
    2895                            .dwattr $C$DW$143, DW_AT_TI_symbol_name("uxNumberOfItems")
    2896                            .dwattr $C$DW$143, DW_AT_data_member_location[DW_OP_plus_uconst 0x0]
TI ARM Assembler Unix v18.1.1 Fri Jul  3 20:08:22 2020

Tools Copyright (c) 1996-2017 Texas Instruments Incorporated
main.asm                                                             PAGE   54

    2897                            .dwattr $C$DW$143, DW_AT_accessibility(DW_ACCESS_public)
    2898                            .dwattr $C$DW$143, DW_AT_decl_file("../OS/list.h")
    2899                            .dwattr $C$DW$143, DW_AT_decl_line(0xa7)
    2900                            .dwattr $C$DW$143, DW_AT_decl_column(0x17)
    2901                    
    2902                    $C$DW$144       .dwtag  DW_TAG_member
    2903                            .dwattr $C$DW$144, DW_AT_type(*$C$DW$T$36)
    2904                            .dwattr $C$DW$144, DW_AT_name("pxIndex")
    2905                            .dwattr $C$DW$144, DW_AT_TI_symbol_name("pxIndex")
    2906                            .dwattr $C$DW$144, DW_AT_data_member_location[DW_OP_plus_uconst 0x4]
    2907                            .dwattr $C$DW$144, DW_AT_accessibility(DW_ACCESS_public)
    2908                            .dwattr $C$DW$144, DW_AT_decl_file("../OS/list.h")
    2909                            .dwattr $C$DW$144, DW_AT_decl_line(0xa8)
    2910                            .dwattr $C$DW$144, DW_AT_decl_column(0x23)
    2911                    
    2912                    $C$DW$145       .dwtag  DW_TAG_member
    2913                            .dwattr $C$DW$145, DW_AT_type(*$C$DW$T$37)
    2914                            .dwattr $C$DW$145, DW_AT_name("xListEnd")
    2915                            .dwattr $C$DW$145, DW_AT_TI_symbol_name("xListEnd")
    2916                            .dwattr $C$DW$145, DW_AT_data_member_location[DW_OP_plus_uconst 0x8]
    2917                            .dwattr $C$DW$145, DW_AT_accessibility(DW_ACCESS_public)
    2918                            .dwattr $C$DW$145, DW_AT_decl_file("../OS/list.h")
    2919                            .dwattr $C$DW$145, DW_AT_decl_line(0xa9)
    2920                            .dwattr $C$DW$145, DW_AT_decl_column(0x11)
    2921                    
    2922                            .dwattr $C$DW$T$38, DW_AT_decl_file("../OS/list.h")
    2923                            .dwattr $C$DW$T$38, DW_AT_decl_line(0xa4)
    2924                            .dwattr $C$DW$T$38, DW_AT_decl_column(0x10)
    2925                            .dwendtag $C$DW$T$38
    2926                    
    2927                    $C$DW$T$257     .dwtag  DW_TAG_typedef
    2928                            .dwattr $C$DW$T$257, DW_AT_name("List_t")
    2929                            .dwattr $C$DW$T$257, DW_AT_type(*$C$DW$T$38)
    2930                            .dwattr $C$DW$T$257, DW_AT_language(DW_LANG_C)
    2931                            .dwattr $C$DW$T$257, DW_AT_decl_file("../OS/list.h")
    2932                            .dwattr $C$DW$T$257, DW_AT_decl_line(0xab)
    2933                            .dwattr $C$DW$T$257, DW_AT_decl_column(0x03)
    2934                    
    2935                    $C$DW$T$43      .dwtag  DW_TAG_pointer_type
    2936                            .dwattr $C$DW$T$43, DW_AT_type(*$C$DW$T$38)
    2937                            .dwattr $C$DW$T$43, DW_AT_address_class(0x20)
    2938                    
    2939                    
    2940                    $C$DW$T$44      .dwtag  DW_TAG_structure_type
    2941                            .dwattr $C$DW$T$44, DW_AT_name("xLIST_ITEM")
    2942                            .dwattr $C$DW$T$44, DW_AT_byte_size(0x14)
    2943                    $C$DW$146       .dwtag  DW_TAG_member
    2944                            .dwattr $C$DW$146, DW_AT_type(*$C$DW$T$41)
    2945                            .dwattr $C$DW$146, DW_AT_name("xItemValue")
    2946                            .dwattr $C$DW$146, DW_AT_TI_symbol_name("xItemValue")
    2947                            .dwattr $C$DW$146, DW_AT_data_member_location[DW_OP_plus_uconst 0x0]
    2948                            .dwattr $C$DW$146, DW_AT_accessibility(DW_ACCESS_public)
    2949                            .dwattr $C$DW$146, DW_AT_decl_file("../OS/list.h")
    2950                            .dwattr $C$DW$146, DW_AT_decl_line(0x8f)
    2951                            .dwattr $C$DW$146, DW_AT_decl_column(0x21)
TI ARM Assembler Unix v18.1.1 Fri Jul  3 20:08:22 2020

Tools Copyright (c) 1996-2017 Texas Instruments Incorporated
main.asm                                                             PAGE   55

    2952                    
    2953                    $C$DW$147       .dwtag  DW_TAG_member
    2954                            .dwattr $C$DW$147, DW_AT_type(*$C$DW$T$42)
    2955                            .dwattr $C$DW$147, DW_AT_name("pxNext")
    2956                            .dwattr $C$DW$147, DW_AT_TI_symbol_name("pxNext")
    2957                            .dwattr $C$DW$147, DW_AT_data_member_location[DW_OP_plus_uconst 0x4]
    2958                            .dwattr $C$DW$147, DW_AT_accessibility(DW_ACCESS_public)
    2959                            .dwattr $C$DW$147, DW_AT_decl_file("../OS/list.h")
    2960                            .dwattr $C$DW$147, DW_AT_decl_line(0x90)
    2961                            .dwattr $C$DW$147, DW_AT_decl_column(0x2a)
    2962                    
    2963                    $C$DW$148       .dwtag  DW_TAG_member
    2964                            .dwattr $C$DW$148, DW_AT_type(*$C$DW$T$42)
    2965                            .dwattr $C$DW$148, DW_AT_name("pxPrevious")
    2966                            .dwattr $C$DW$148, DW_AT_TI_symbol_name("pxPrevious")
    2967                            .dwattr $C$DW$148, DW_AT_data_member_location[DW_OP_plus_uconst 0x8]
    2968                            .dwattr $C$DW$148, DW_AT_accessibility(DW_ACCESS_public)
    2969                            .dwattr $C$DW$148, DW_AT_decl_file("../OS/list.h")
    2970                            .dwattr $C$DW$148, DW_AT_decl_line(0x91)
    2971                            .dwattr $C$DW$148, DW_AT_decl_column(0x2a)
    2972                    
    2973                    $C$DW$149       .dwtag  DW_TAG_member
    2974                            .dwattr $C$DW$149, DW_AT_type(*$C$DW$T$3)
    2975                            .dwattr $C$DW$149, DW_AT_name("pvOwner")
    2976                            .dwattr $C$DW$149, DW_AT_TI_symbol_name("pvOwner")
    2977                            .dwattr $C$DW$149, DW_AT_data_member_location[DW_OP_plus_uconst 0xc]
    2978                            .dwattr $C$DW$149, DW_AT_accessibility(DW_ACCESS_public)
    2979                            .dwattr $C$DW$149, DW_AT_decl_file("../OS/list.h")
    2980                            .dwattr $C$DW$149, DW_AT_decl_line(0x92)
    2981                            .dwattr $C$DW$149, DW_AT_decl_column(0x09)
    2982                    
    2983                    $C$DW$150       .dwtag  DW_TAG_member
    2984                            .dwattr $C$DW$150, DW_AT_type(*$C$DW$T$43)
    2985                            .dwattr $C$DW$150, DW_AT_name("pvContainer")
    2986                            .dwattr $C$DW$150, DW_AT_TI_symbol_name("pvContainer")
    2987                            .dwattr $C$DW$150, DW_AT_data_member_location[DW_OP_plus_uconst 0x10]
    2988                            .dwattr $C$DW$150, DW_AT_accessibility(DW_ACCESS_public)
    2989                            .dwattr $C$DW$150, DW_AT_decl_file("../OS/list.h")
    2990                            .dwattr $C$DW$150, DW_AT_decl_line(0x93)
    2991                            .dwattr $C$DW$150, DW_AT_decl_column(0x25)
    2992                    
    2993                            .dwattr $C$DW$T$44, DW_AT_decl_file("../OS/list.h")
    2994                            .dwattr $C$DW$T$44, DW_AT_decl_line(0x8c)
    2995                            .dwattr $C$DW$T$44, DW_AT_decl_column(0x08)
    2996                            .dwendtag $C$DW$T$44
    2997                    
    2998                    $C$DW$T$35      .dwtag  DW_TAG_typedef
    2999                            .dwattr $C$DW$T$35, DW_AT_name("ListItem_t")
    3000                            .dwattr $C$DW$T$35, DW_AT_type(*$C$DW$T$44)
    3001                            .dwattr $C$DW$T$35, DW_AT_language(DW_LANG_C)
    3002                            .dwattr $C$DW$T$35, DW_AT_decl_file("../OS/list.h")
    3003                            .dwattr $C$DW$T$35, DW_AT_decl_line(0x96)
    3004                            .dwattr $C$DW$T$35, DW_AT_decl_column(0x1b)
    3005                    
    3006                    $C$DW$T$36      .dwtag  DW_TAG_pointer_type
TI ARM Assembler Unix v18.1.1 Fri Jul  3 20:08:22 2020

Tools Copyright (c) 1996-2017 Texas Instruments Incorporated
main.asm                                                             PAGE   56

    3007                            .dwattr $C$DW$T$36, DW_AT_type(*$C$DW$T$35)
    3008                            .dwattr $C$DW$T$36, DW_AT_address_class(0x20)
    3009                    
    3010                    $C$DW$T$42      .dwtag  DW_TAG_pointer_type
    3011                            .dwattr $C$DW$T$42, DW_AT_type(*$C$DW$T$44)
    3012                            .dwattr $C$DW$T$42, DW_AT_address_class(0x20)
    3013                    
    3014                    
    3015                    $C$DW$T$45      .dwtag  DW_TAG_structure_type
    3016                            .dwattr $C$DW$T$45, DW_AT_name("xMEMORY_REGION")
    3017                            .dwattr $C$DW$T$45, DW_AT_byte_size(0x0c)
    3018                    $C$DW$151       .dwtag  DW_TAG_member
    3019                            .dwattr $C$DW$151, DW_AT_type(*$C$DW$T$3)
    3020                            .dwattr $C$DW$151, DW_AT_name("pvBaseAddress")
    3021                            .dwattr $C$DW$151, DW_AT_TI_symbol_name("pvBaseAddress")
    3022                            .dwattr $C$DW$151, DW_AT_data_member_location[DW_OP_plus_uconst 0x0]
    3023                            .dwattr $C$DW$151, DW_AT_accessibility(DW_ACCESS_public)
    3024                            .dwattr $C$DW$151, DW_AT_decl_file("../OS/task.h")
    3025                            .dwattr $C$DW$151, DW_AT_decl_line(0x69)
    3026                            .dwattr $C$DW$151, DW_AT_decl_column(0x08)
    3027                    
    3028                    $C$DW$152       .dwtag  DW_TAG_member
    3029                            .dwattr $C$DW$152, DW_AT_type(*$C$DW$T$40)
    3030                            .dwattr $C$DW$152, DW_AT_name("ulLengthInBytes")
    3031                            .dwattr $C$DW$152, DW_AT_TI_symbol_name("ulLengthInBytes")
    3032                            .dwattr $C$DW$152, DW_AT_data_member_location[DW_OP_plus_uconst 0x4]
    3033                            .dwattr $C$DW$152, DW_AT_accessibility(DW_ACCESS_public)
    3034                            .dwattr $C$DW$152, DW_AT_decl_file("../OS/task.h")
    3035                            .dwattr $C$DW$152, DW_AT_decl_line(0x6a)
    3036                            .dwattr $C$DW$152, DW_AT_decl_column(0x0b)
    3037                    
    3038                    $C$DW$153       .dwtag  DW_TAG_member
    3039                            .dwattr $C$DW$153, DW_AT_type(*$C$DW$T$40)
    3040                            .dwattr $C$DW$153, DW_AT_name("ulParameters")
    3041                            .dwattr $C$DW$153, DW_AT_TI_symbol_name("ulParameters")
    3042                            .dwattr $C$DW$153, DW_AT_data_member_location[DW_OP_plus_uconst 0x8]
    3043                            .dwattr $C$DW$153, DW_AT_accessibility(DW_ACCESS_public)
    3044                            .dwattr $C$DW$153, DW_AT_decl_file("../OS/task.h")
    3045                            .dwattr $C$DW$153, DW_AT_decl_line(0x6b)
    3046                            .dwattr $C$DW$153, DW_AT_decl_column(0x0b)
    3047                    
    3048                            .dwattr $C$DW$T$45, DW_AT_decl_file("../OS/task.h")
    3049                            .dwattr $C$DW$T$45, DW_AT_decl_line(0x67)
    3050                            .dwattr $C$DW$T$45, DW_AT_decl_column(0x10)
    3051                            .dwendtag $C$DW$T$45
    3052                    
    3053                    $C$DW$T$79      .dwtag  DW_TAG_typedef
    3054                            .dwattr $C$DW$T$79, DW_AT_name("MemoryRegion_t")
    3055                            .dwattr $C$DW$T$79, DW_AT_type(*$C$DW$T$45)
    3056                            .dwattr $C$DW$T$79, DW_AT_language(DW_LANG_C)
    3057                            .dwattr $C$DW$T$79, DW_AT_decl_file("../OS/task.h")
    3058                            .dwattr $C$DW$T$79, DW_AT_decl_line(0x6c)
    3059                            .dwattr $C$DW$T$79, DW_AT_decl_column(0x03)
    3060                    
    3061                    
TI ARM Assembler Unix v18.1.1 Fri Jul  3 20:08:22 2020

Tools Copyright (c) 1996-2017 Texas Instruments Incorporated
main.asm                                                             PAGE   57

    3062                    $C$DW$T$80      .dwtag  DW_TAG_array_type
    3063                            .dwattr $C$DW$T$80, DW_AT_type(*$C$DW$T$79)
    3064                            .dwattr $C$DW$T$80, DW_AT_language(DW_LANG_C)
    3065                            .dwattr $C$DW$T$80, DW_AT_byte_size(0x0c)
    3066                    $C$DW$154       .dwtag  DW_TAG_subrange_type
    3067                            .dwattr $C$DW$154, DW_AT_upper_bound(0x00)
    3068                    
    3069                            .dwendtag $C$DW$T$80
    3070                    
    3071                    
    3072                    $C$DW$T$46      .dwtag  DW_TAG_structure_type
    3073                            .dwattr $C$DW$T$46, DW_AT_name("xMINI_LIST_ITEM")
    3074                            .dwattr $C$DW$T$46, DW_AT_byte_size(0x0c)
    3075                    $C$DW$155       .dwtag  DW_TAG_member
    3076                            .dwattr $C$DW$155, DW_AT_type(*$C$DW$T$41)
    3077                            .dwattr $C$DW$155, DW_AT_name("xItemValue")
    3078                            .dwattr $C$DW$155, DW_AT_TI_symbol_name("xItemValue")
    3079                            .dwattr $C$DW$155, DW_AT_data_member_location[DW_OP_plus_uconst 0x0]
    3080                            .dwattr $C$DW$155, DW_AT_accessibility(DW_ACCESS_public)
    3081                            .dwattr $C$DW$155, DW_AT_decl_file("../OS/list.h")
    3082                            .dwattr $C$DW$155, DW_AT_decl_line(0x9b)
    3083                            .dwattr $C$DW$155, DW_AT_decl_column(0x21)
    3084                    
    3085                    $C$DW$156       .dwtag  DW_TAG_member
    3086                            .dwattr $C$DW$156, DW_AT_type(*$C$DW$T$42)
    3087                            .dwattr $C$DW$156, DW_AT_name("pxNext")
    3088                            .dwattr $C$DW$156, DW_AT_TI_symbol_name("pxNext")
    3089                            .dwattr $C$DW$156, DW_AT_data_member_location[DW_OP_plus_uconst 0x4]
    3090                            .dwattr $C$DW$156, DW_AT_accessibility(DW_ACCESS_public)
    3091                            .dwattr $C$DW$156, DW_AT_decl_file("../OS/list.h")
    3092                            .dwattr $C$DW$156, DW_AT_decl_line(0x9c)
    3093                            .dwattr $C$DW$156, DW_AT_decl_column(0x2a)
    3094                    
    3095                    $C$DW$157       .dwtag  DW_TAG_member
    3096                            .dwattr $C$DW$157, DW_AT_type(*$C$DW$T$42)
    3097                            .dwattr $C$DW$157, DW_AT_name("pxPrevious")
    3098                            .dwattr $C$DW$157, DW_AT_TI_symbol_name("pxPrevious")
    3099                            .dwattr $C$DW$157, DW_AT_data_member_location[DW_OP_plus_uconst 0x8]
    3100                            .dwattr $C$DW$157, DW_AT_accessibility(DW_ACCESS_public)
    3101                            .dwattr $C$DW$157, DW_AT_decl_file("../OS/list.h")
    3102                            .dwattr $C$DW$157, DW_AT_decl_line(0x9d)
    3103                            .dwattr $C$DW$157, DW_AT_decl_column(0x2a)
    3104                    
    3105                            .dwattr $C$DW$T$46, DW_AT_decl_file("../OS/list.h")
    3106                            .dwattr $C$DW$T$46, DW_AT_decl_line(0x98)
    3107                            .dwattr $C$DW$T$46, DW_AT_decl_column(0x08)
    3108                            .dwendtag $C$DW$T$46
    3109                    
    3110                    $C$DW$T$37      .dwtag  DW_TAG_typedef
    3111                            .dwattr $C$DW$T$37, DW_AT_name("MiniListItem_t")
    3112                            .dwattr $C$DW$T$37, DW_AT_type(*$C$DW$T$46)
    3113                            .dwattr $C$DW$T$37, DW_AT_language(DW_LANG_C)
    3114                            .dwattr $C$DW$T$37, DW_AT_decl_file("../OS/list.h")
    3115                            .dwattr $C$DW$T$37, DW_AT_decl_line(0x9f)
    3116                            .dwattr $C$DW$T$37, DW_AT_decl_column(0x20)
TI ARM Assembler Unix v18.1.1 Fri Jul  3 20:08:22 2020

Tools Copyright (c) 1996-2017 Texas Instruments Incorporated
main.asm                                                             PAGE   58

    3117                    
    3118                    
    3119                    $C$DW$T$48      .dwtag  DW_TAG_structure_type
    3120                            .dwattr $C$DW$T$48, DW_AT_name("xSTATIC_EVENT_GROUP")
    3121                            .dwattr $C$DW$T$48, DW_AT_byte_size(0x1c)
    3122                    $C$DW$158       .dwtag  DW_TAG_member
    3123                            .dwattr $C$DW$158, DW_AT_type(*$C$DW$T$41)
    3124                            .dwattr $C$DW$158, DW_AT_name("xDummy1")
    3125                            .dwattr $C$DW$158, DW_AT_TI_symbol_name("xDummy1")
    3126                            .dwattr $C$DW$158, DW_AT_data_member_location[DW_OP_plus_uconst 0x0]
    3127                            .dwattr $C$DW$158, DW_AT_accessibility(DW_ACCESS_public)
    3128                            .dwattr $C$DW$158, DW_AT_decl_file("../OS/FreeRTOS.h")
    3129                            .dwattr $C$DW$158, DW_AT_decl_line(0x455)
    3130                            .dwattr $C$DW$158, DW_AT_decl_column(0x0d)
    3131                    
    3132                    $C$DW$159       .dwtag  DW_TAG_member
    3133                            .dwattr $C$DW$159, DW_AT_type(*$C$DW$T$47)
    3134                            .dwattr $C$DW$159, DW_AT_name("xDummy2")
    3135                            .dwattr $C$DW$159, DW_AT_TI_symbol_name("xDummy2")
    3136                            .dwattr $C$DW$159, DW_AT_data_member_location[DW_OP_plus_uconst 0x4]
    3137                            .dwattr $C$DW$159, DW_AT_accessibility(DW_ACCESS_public)
    3138                            .dwattr $C$DW$159, DW_AT_decl_file("../OS/FreeRTOS.h")
    3139                            .dwattr $C$DW$159, DW_AT_decl_line(0x456)
    3140                            .dwattr $C$DW$159, DW_AT_decl_column(0x0f)
    3141                    
    3142                    $C$DW$160       .dwtag  DW_TAG_member
    3143                            .dwattr $C$DW$160, DW_AT_type(*$C$DW$T$26)
    3144                            .dwattr $C$DW$160, DW_AT_name("uxDummy3")
    3145                            .dwattr $C$DW$160, DW_AT_TI_symbol_name("uxDummy3")
    3146                            .dwattr $C$DW$160, DW_AT_data_member_location[DW_OP_plus_uconst 0x18]
    3147                            .dwattr $C$DW$160, DW_AT_accessibility(DW_ACCESS_public)
    3148                            .dwattr $C$DW$160, DW_AT_decl_file("../OS/FreeRTOS.h")
    3149                            .dwattr $C$DW$160, DW_AT_decl_line(0x459)
    3150                            .dwattr $C$DW$160, DW_AT_decl_column(0x0f)
    3151                    
    3152                            .dwattr $C$DW$T$48, DW_AT_decl_file("../OS/FreeRTOS.h")
    3153                            .dwattr $C$DW$T$48, DW_AT_decl_line(0x453)
    3154                            .dwattr $C$DW$T$48, DW_AT_decl_column(0x10)
    3155                            .dwendtag $C$DW$T$48
    3156                    
    3157                    $C$DW$T$258     .dwtag  DW_TAG_typedef
    3158                            .dwattr $C$DW$T$258, DW_AT_name("StaticEventGroup_t")
    3159                            .dwattr $C$DW$T$258, DW_AT_type(*$C$DW$T$48)
