;******************************************************************************
;* TI ARM C/C++ Codegen                                      Unix v18.1.1.LTS *
;* Date/Time created: Fri Jul  3 20:08:22 2020                                *
;******************************************************************************
	.compiler_opts --abi=eabi --arm_vmrs_si_workaround=off --code_state=16 --diag_wrap=off --embedded_constants=on --endian=little --float_support=FPv4SPD16 --hll_source=on --object_format=elf --silicon_version=7M4 --symdebug:dwarf --symdebug:dwarf_version=3 --unaligned_access=on 
	.thumb

$C$DW$CU	.dwtag  DW_TAG_compile_unit
	.dwattr $C$DW$CU, DW_AT_name("../OS/stream_buffer.c")
	.dwattr $C$DW$CU, DW_AT_producer("TI TI ARM C/C++ Codegen Unix v18.1.1.LTS Copyright (c) 1996-2017 Texas Instruments Incorporated")
	.dwattr $C$DW$CU, DW_AT_TI_version(0x01)
	.dwattr $C$DW$CU, DW_AT_comp_dir("/home/pola/workspace_v8/Microwave/Debug")

$C$DW$1	.dwtag  DW_TAG_subprogram
	.dwattr $C$DW$1, DW_AT_name("memset")
	.dwattr $C$DW$1, DW_AT_TI_symbol_name("memset")
	.dwattr $C$DW$1, DW_AT_type(*$C$DW$T$3)
	.dwattr $C$DW$1, DW_AT_declaration
	.dwattr $C$DW$1, DW_AT_external
	.dwattr $C$DW$1, DW_AT_decl_file("/home/pola/ti/ccsv8/tools/compiler/ti-cgt-arm_18.1.1.LTS/include/string.h")
	.dwattr $C$DW$1, DW_AT_decl_line(0x7a)
	.dwattr $C$DW$1, DW_AT_decl_column(0x16)
$C$DW$2	.dwtag  DW_TAG_formal_parameter
	.dwattr $C$DW$2, DW_AT_type(*$C$DW$T$3)

$C$DW$3	.dwtag  DW_TAG_formal_parameter
	.dwattr $C$DW$3, DW_AT_type(*$C$DW$T$10)

$C$DW$4	.dwtag  DW_TAG_formal_parameter
	.dwattr $C$DW$4, DW_AT_type(*$C$DW$T$31)

	.dwendtag $C$DW$1


$C$DW$5	.dwtag  DW_TAG_subprogram
	.dwattr $C$DW$5, DW_AT_name("vPortEnterCritical")
	.dwattr $C$DW$5, DW_AT_TI_symbol_name("vPortEnterCritical")
	.dwattr $C$DW$5, DW_AT_declaration
	.dwattr $C$DW$5, DW_AT_external
	.dwattr $C$DW$5, DW_AT_decl_file("../OS/portmacro.h")
	.dwattr $C$DW$5, DW_AT_decl_line(0x76)
	.dwattr $C$DW$5, DW_AT_decl_column(0x0d)
	.dwendtag $C$DW$5


$C$DW$6	.dwtag  DW_TAG_subprogram
	.dwattr $C$DW$6, DW_AT_name("vPortExitCritical")
	.dwattr $C$DW$6, DW_AT_TI_symbol_name("vPortExitCritical")
	.dwattr $C$DW$6, DW_AT_declaration
	.dwattr $C$DW$6, DW_AT_external
	.dwattr $C$DW$6, DW_AT_decl_file("../OS/portmacro.h")
	.dwattr $C$DW$6, DW_AT_decl_line(0x77)
	.dwattr $C$DW$6, DW_AT_decl_column(0x0d)
	.dwendtag $C$DW$6


$C$DW$7	.dwtag  DW_TAG_subprogram
	.dwattr $C$DW$7, DW_AT_name("vTaskSetTimeOutState")
	.dwattr $C$DW$7, DW_AT_TI_symbol_name("vTaskSetTimeOutState")
	.dwattr $C$DW$7, DW_AT_declaration
	.dwattr $C$DW$7, DW_AT_external
	.dwattr $C$DW$7, DW_AT_decl_file("../OS/task.h")
	.dwattr $C$DW$7, DW_AT_decl_line(0x8c1)
	.dwattr $C$DW$7, DW_AT_decl_column(0x06)
$C$DW$8	.dwtag  DW_TAG_formal_parameter
	.dwattr $C$DW$8, DW_AT_type(*$C$DW$T$123)

	.dwendtag $C$DW$7


$C$DW$9	.dwtag  DW_TAG_subprogram
	.dwattr $C$DW$9, DW_AT_name("xTaskNotifyStateClear")
	.dwattr $C$DW$9, DW_AT_TI_symbol_name("xTaskNotifyStateClear")
	.dwattr $C$DW$9, DW_AT_type(*$C$DW$T$90)
	.dwattr $C$DW$9, DW_AT_declaration
	.dwattr $C$DW$9, DW_AT_external
	.dwattr $C$DW$9, DW_AT_decl_file("../OS/task.h")
	.dwattr $C$DW$9, DW_AT_decl_line(0x848)
	.dwattr $C$DW$9, DW_AT_decl_column(0x0c)
$C$DW$10	.dwtag  DW_TAG_formal_parameter
	.dwattr $C$DW$10, DW_AT_type(*$C$DW$T$35)

	.dwendtag $C$DW$9


$C$DW$11	.dwtag  DW_TAG_subprogram
	.dwattr $C$DW$11, DW_AT_name("xTaskGetCurrentTaskHandle")
	.dwattr $C$DW$11, DW_AT_TI_symbol_name("xTaskGetCurrentTaskHandle")
	.dwattr $C$DW$11, DW_AT_type(*$C$DW$T$35)
	.dwattr $C$DW$11, DW_AT_declaration
	.dwattr $C$DW$11, DW_AT_external
	.dwattr $C$DW$11, DW_AT_decl_file("../OS/task.h")
	.dwattr $C$DW$11, DW_AT_decl_line(0x8bc)
	.dwattr $C$DW$11, DW_AT_decl_column(0x0e)
	.dwendtag $C$DW$11


$C$DW$12	.dwtag  DW_TAG_subprogram
	.dwattr $C$DW$12, DW_AT_name("xTaskNotifyWait")
	.dwattr $C$DW$12, DW_AT_TI_symbol_name("xTaskNotifyWait")
	.dwattr $C$DW$12, DW_AT_type(*$C$DW$T$90)
	.dwattr $C$DW$12, DW_AT_declaration
	.dwattr $C$DW$12, DW_AT_external
	.dwattr $C$DW$12, DW_AT_decl_file("../OS/task.h")
	.dwattr $C$DW$12, DW_AT_decl_line(0x78e)
	.dwattr $C$DW$12, DW_AT_decl_column(0x0c)
$C$DW$13	.dwtag  DW_TAG_formal_parameter
	.dwattr $C$DW$13, DW_AT_type(*$C$DW$T$45)

$C$DW$14	.dwtag  DW_TAG_formal_parameter
	.dwattr $C$DW$14, DW_AT_type(*$C$DW$T$45)

$C$DW$15	.dwtag  DW_TAG_formal_parameter
	.dwattr $C$DW$15, DW_AT_type(*$C$DW$T$212)

$C$DW$16	.dwtag  DW_TAG_formal_parameter
	.dwattr $C$DW$16, DW_AT_type(*$C$DW$T$46)

	.dwendtag $C$DW$12


$C$DW$17	.dwtag  DW_TAG_subprogram
	.dwattr $C$DW$17, DW_AT_name("xTaskCheckForTimeOut")
	.dwattr $C$DW$17, DW_AT_TI_symbol_name("xTaskCheckForTimeOut")
	.dwattr $C$DW$17, DW_AT_type(*$C$DW$T$90)
	.dwattr $C$DW$17, DW_AT_declaration
	.dwattr $C$DW$17, DW_AT_external
	.dwattr $C$DW$17, DW_AT_decl_file("../OS/task.h")
	.dwattr $C$DW$17, DW_AT_decl_line(0x8c7)
	.dwattr $C$DW$17, DW_AT_decl_column(0x0c)
$C$DW$18	.dwtag  DW_TAG_formal_parameter
	.dwattr $C$DW$18, DW_AT_type(*$C$DW$T$123)

$C$DW$19	.dwtag  DW_TAG_formal_parameter
	.dwattr $C$DW$19, DW_AT_type(*$C$DW$T$211)

	.dwendtag $C$DW$17


$C$DW$20	.dwtag  DW_TAG_subprogram
	.dwattr $C$DW$20, DW_AT_name("vTaskSuspendAll")
	.dwattr $C$DW$20, DW_AT_TI_symbol_name("vTaskSuspendAll")
	.dwattr $C$DW$20, DW_AT_declaration
	.dwattr $C$DW$20, DW_AT_external
	.dwattr $C$DW$20, DW_AT_decl_file("../OS/task.h")
	.dwattr $C$DW$20, DW_AT_decl_line(0x4fa)
	.dwattr $C$DW$20, DW_AT_decl_column(0x06)
	.dwendtag $C$DW$20


$C$DW$21	.dwtag  DW_TAG_subprogram
	.dwattr $C$DW$21, DW_AT_name("xTaskGenericNotify")
	.dwattr $C$DW$21, DW_AT_TI_symbol_name("xTaskGenericNotify")
	.dwattr $C$DW$21, DW_AT_type(*$C$DW$T$90)
	.dwattr $C$DW$21, DW_AT_declaration
	.dwattr $C$DW$21, DW_AT_external
	.dwattr $C$DW$21, DW_AT_decl_file("../OS/task.h")
	.dwattr $C$DW$21, DW_AT_decl_line(0x6e6)
	.dwattr $C$DW$21, DW_AT_decl_column(0x0c)
$C$DW$22	.dwtag  DW_TAG_formal_parameter
	.dwattr $C$DW$22, DW_AT_type(*$C$DW$T$35)

$C$DW$23	.dwtag  DW_TAG_formal_parameter
	.dwattr $C$DW$23, DW_AT_type(*$C$DW$T$45)

$C$DW$24	.dwtag  DW_TAG_formal_parameter
	.dwattr $C$DW$24, DW_AT_type(*$C$DW$T$93)

$C$DW$25	.dwtag  DW_TAG_formal_parameter
	.dwattr $C$DW$25, DW_AT_type(*$C$DW$T$212)

	.dwendtag $C$DW$21


$C$DW$26	.dwtag  DW_TAG_subprogram
	.dwattr $C$DW$26, DW_AT_name("xTaskResumeAll")
	.dwattr $C$DW$26, DW_AT_TI_symbol_name("xTaskResumeAll")
	.dwattr $C$DW$26, DW_AT_type(*$C$DW$T$90)
	.dwattr $C$DW$26, DW_AT_declaration
	.dwattr $C$DW$26, DW_AT_external
	.dwattr $C$DW$26, DW_AT_decl_file("../OS/task.h")
	.dwattr $C$DW$26, DW_AT_decl_line(0x530)
	.dwattr $C$DW$26, DW_AT_decl_column(0x0c)
	.dwendtag $C$DW$26


$C$DW$27	.dwtag  DW_TAG_subprogram
	.dwattr $C$DW$27, DW_AT_name("xTaskGenericNotifyFromISR")
	.dwattr $C$DW$27, DW_AT_TI_symbol_name("xTaskGenericNotifyFromISR")
	.dwattr $C$DW$27, DW_AT_type(*$C$DW$T$90)
	.dwattr $C$DW$27, DW_AT_declaration
	.dwattr $C$DW$27, DW_AT_external
	.dwattr $C$DW$27, DW_AT_decl_file("../OS/task.h")
	.dwattr $C$DW$27, DW_AT_decl_line(0x741)
	.dwattr $C$DW$27, DW_AT_decl_column(0x0c)
$C$DW$28	.dwtag  DW_TAG_formal_parameter
	.dwattr $C$DW$28, DW_AT_type(*$C$DW$T$35)

$C$DW$29	.dwtag  DW_TAG_formal_parameter
	.dwattr $C$DW$29, DW_AT_type(*$C$DW$T$45)

$C$DW$30	.dwtag  DW_TAG_formal_parameter
	.dwattr $C$DW$30, DW_AT_type(*$C$DW$T$93)

$C$DW$31	.dwtag  DW_TAG_formal_parameter
	.dwattr $C$DW$31, DW_AT_type(*$C$DW$T$212)

$C$DW$32	.dwtag  DW_TAG_formal_parameter
	.dwattr $C$DW$32, DW_AT_type(*$C$DW$T$217)

	.dwendtag $C$DW$27

;	/home/pola/ti/ccsv8/tools/compiler/ti-cgt-arm_18.1.1.LTS/bin/armacpia -@/tmp/TI3MUGpsllC 
	.sect	".text"
	.clink
	.thumbfunc xStreamBufferGenericCreateStatic
	.thumb
	.global	xStreamBufferGenericCreateStatic

$C$DW$33	.dwtag  DW_TAG_subprogram
	.dwattr $C$DW$33, DW_AT_name("xStreamBufferGenericCreateStatic")
	.dwattr $C$DW$33, DW_AT_low_pc(xStreamBufferGenericCreateStatic)
	.dwattr $C$DW$33, DW_AT_high_pc(0x00)
	.dwattr $C$DW$33, DW_AT_TI_symbol_name("xStreamBufferGenericCreateStatic")
	.dwattr $C$DW$33, DW_AT_external
	.dwattr $C$DW$33, DW_AT_type(*$C$DW$T$108)
	.dwattr $C$DW$33, DW_AT_TI_begin_file("../OS/stream_buffer.c")
	.dwattr $C$DW$33, DW_AT_TI_begin_line(0x11b)
	.dwattr $C$DW$33, DW_AT_TI_begin_column(0x17)
	.dwattr $C$DW$33, DW_AT_decl_file("../OS/stream_buffer.c")
	.dwattr $C$DW$33, DW_AT_decl_line(0x11b)
	.dwattr $C$DW$33, DW_AT_decl_column(0x17)
	.dwattr $C$DW$33, DW_AT_TI_max_frame_size(0x28)
	.dwpsn	file "../OS/stream_buffer.c",line 288,column 2,is_stmt,address xStreamBufferGenericCreateStatic,isa 1

	.dwfde $C$DW$CIE, xStreamBufferGenericCreateStatic
$C$DW$34	.dwtag  DW_TAG_formal_parameter
	.dwattr $C$DW$34, DW_AT_name("xBufferSizeBytes")
	.dwattr $C$DW$34, DW_AT_TI_symbol_name("xBufferSizeBytes")
	.dwattr $C$DW$34, DW_AT_type(*$C$DW$T$31)
	.dwattr $C$DW$34, DW_AT_location[DW_OP_reg0]

$C$DW$35	.dwtag  DW_TAG_formal_parameter
	.dwattr $C$DW$35, DW_AT_name("xTriggerLevelBytes")
	.dwattr $C$DW$35, DW_AT_TI_symbol_name("xTriggerLevelBytes")
	.dwattr $C$DW$35, DW_AT_type(*$C$DW$T$31)
	.dwattr $C$DW$35, DW_AT_location[DW_OP_reg1]

$C$DW$36	.dwtag  DW_TAG_formal_parameter
	.dwattr $C$DW$36, DW_AT_name("xIsMessageBuffer")
	.dwattr $C$DW$36, DW_AT_TI_symbol_name("xIsMessageBuffer")
	.dwattr $C$DW$36, DW_AT_type(*$C$DW$T$90)
	.dwattr $C$DW$36, DW_AT_location[DW_OP_reg2]

$C$DW$37	.dwtag  DW_TAG_formal_parameter
	.dwattr $C$DW$37, DW_AT_name("pucStreamBufferStorageArea")
	.dwattr $C$DW$37, DW_AT_TI_symbol_name("pucStreamBufferStorageArea")
	.dwattr $C$DW$37, DW_AT_type(*$C$DW$T$109)
	.dwattr $C$DW$37, DW_AT_location[DW_OP_reg3]

$C$DW$38	.dwtag  DW_TAG_formal_parameter
	.dwattr $C$DW$38, DW_AT_name("pxStaticStreamBuffer")
	.dwattr $C$DW$38, DW_AT_TI_symbol_name("pxStaticStreamBuffer")
	.dwattr $C$DW$38, DW_AT_type(*$C$DW$T$112)
	.dwattr $C$DW$38, DW_AT_location[DW_OP_breg13 40]

;----------------------------------------------------------------------
; 283 | StreamBufferHandle_t xStreamBufferGenericCreateStatic( size_t xBufferSi
;     | zeBytes,                                                               
; 284 | 
;     |                                     size_t xTriggerLevelBytes,         
; 285 | 
;     |                                     BaseType_t xIsMessageBuffer,       
; 286 | 
;     |                                     uint8_t * const pucStreamBufferStor
;     | ageArea,                                                               
; 287 | 
;     |                                     StaticStreamBuffer_t * const pxStat
;     | icStreamBuffer )                                                       
;----------------------------------------------------------------------

;*****************************************************************************
;* FUNCTION NAME: xStreamBufferGenericCreateStatic                           *
;*                                                                           *
;*   Regs Modified     : A1,A2,A3,A4,V9,SP,LR,SR,D0,D0_hi,D1,D1_hi,D2,D2_hi, *
;*                           D3,D3_hi,D4,D4_hi,D5,D5_hi,D6,D6_hi,D7,D7_hi,   *
;*                           FPEXC,FPSCR                                     *
;*   Regs Used         : A1,A2,A3,A4,V9,SP,LR,SR,D0,D0_hi,D1,D1_hi,D2,D2_hi, *
;*                           D3,D3_hi,D4,D4_hi,D5,D5_hi,D6,D6_hi,D7,D7_hi,   *
;*                           FPEXC,FPSCR                                     *
;*   Local Frame Size  : 4 Args + 32 Auto + 4 Save = 40 byte                 *
;*****************************************************************************
xStreamBufferGenericCreateStatic:
;* --------------------------------------------------------------------------*
	.dwcfi	cfa_offset, 0
        PUSH      {LR}                  ; [DPU_V7M3_PIPE] 
	.dwcfi	cfa_offset, 4
	.dwcfi	save_reg_to_mem, 14, -4
        SUB       SP, SP, #36           ; [DPU_V7M3_PIPE] 
	.dwcfi	cfa_offset, 40
$C$DW$39	.dwtag  DW_TAG_variable
	.dwattr $C$DW$39, DW_AT_name("xBufferSizeBytes")
	.dwattr $C$DW$39, DW_AT_TI_symbol_name("xBufferSizeBytes")
	.dwattr $C$DW$39, DW_AT_type(*$C$DW$T$31)
	.dwattr $C$DW$39, DW_AT_location[DW_OP_breg13 4]

$C$DW$40	.dwtag  DW_TAG_variable
	.dwattr $C$DW$40, DW_AT_name("xTriggerLevelBytes")
	.dwattr $C$DW$40, DW_AT_TI_symbol_name("xTriggerLevelBytes")
	.dwattr $C$DW$40, DW_AT_type(*$C$DW$T$31)
	.dwattr $C$DW$40, DW_AT_location[DW_OP_breg13 8]

$C$DW$41	.dwtag  DW_TAG_variable
	.dwattr $C$DW$41, DW_AT_name("xIsMessageBuffer")
	.dwattr $C$DW$41, DW_AT_TI_symbol_name("xIsMessageBuffer")
	.dwattr $C$DW$41, DW_AT_type(*$C$DW$T$90)
	.dwattr $C$DW$41, DW_AT_location[DW_OP_breg13 12]

$C$DW$42	.dwtag  DW_TAG_variable
	.dwattr $C$DW$42, DW_AT_name("pucStreamBufferStorageArea")
	.dwattr $C$DW$42, DW_AT_TI_symbol_name("pucStreamBufferStorageArea")
	.dwattr $C$DW$42, DW_AT_type(*$C$DW$T$109)
	.dwattr $C$DW$42, DW_AT_location[DW_OP_breg13 16]

$C$DW$43	.dwtag  DW_TAG_variable
	.dwattr $C$DW$43, DW_AT_name("pxStreamBuffer")
	.dwattr $C$DW$43, DW_AT_TI_symbol_name("pxStreamBuffer")
	.dwattr $C$DW$43, DW_AT_type(*$C$DW$T$106)
	.dwattr $C$DW$43, DW_AT_location[DW_OP_breg13 20]

$C$DW$44	.dwtag  DW_TAG_variable
	.dwattr $C$DW$44, DW_AT_name("xReturn")
	.dwattr $C$DW$44, DW_AT_TI_symbol_name("xReturn")
	.dwattr $C$DW$44, DW_AT_type(*$C$DW$T$108)
	.dwattr $C$DW$44, DW_AT_location[DW_OP_breg13 24]

$C$DW$45	.dwtag  DW_TAG_variable
	.dwattr $C$DW$45, DW_AT_name("ucFlags")
	.dwattr $C$DW$45, DW_AT_TI_symbol_name("ucFlags")
	.dwattr $C$DW$45, DW_AT_type(*$C$DW$T$29)
	.dwattr $C$DW$45, DW_AT_location[DW_OP_breg13 28]

        STR       A4, [SP, #16]         ; [DPU_V7M3_PIPE] |288| 
        STR       A3, [SP, #12]         ; [DPU_V7M3_PIPE] |288| 
        STR       A2, [SP, #8]          ; [DPU_V7M3_PIPE] |288| 
        STR       A1, [SP, #4]          ; [DPU_V7M3_PIPE] |288| 
	.dwpsn	file "../OS/stream_buffer.c",line 289,column 40,is_stmt,isa 1
;----------------------------------------------------------------------
; 289 | StreamBuffer_t * const pxStreamBuffer = ( StreamBuffer_t * ) pxStaticSt
;     | reamBuffer; /*lint !e740 !e9087 Safe cast as StaticStreamBuffer_t is op
;     | aque Streambuffer_t. */                                                
; 290 | StreamBufferHandle_t xReturn;                                          
; 291 | uint8_t ucFlags;                                                       
;----------------------------------------------------------------------
        LDR       A1, [SP, #40]         ; [DPU_V7M3_PIPE] |289| 
        STR       A1, [SP, #20]         ; [DPU_V7M3_PIPE] |289| 
	.dwpsn	file "../OS/stream_buffer.c",line 293,column 3,is_stmt,isa 1
;----------------------------------------------------------------------
; 293 | configASSERT( pucStreamBufferStorageArea );                            
;----------------------------------------------------------------------
        LDR       A1, [SP, #16]         ; [DPU_V7M3_PIPE] |293| 
        CBNZ      A1, ||$C$L2||         ; [] 
        ; BRANCHCC OCCURS {||$C$L2||}    ; [] |293| 
;* --------------------------------------------------------------------------*
        MOVS      A1, #160              ; [DPU_V7M3_PIPE] |293| 
        MSR       BASEPRI, A1           ; [DPU_V7M3_PIPE] |293| 
	dsb
	isb
;* --------------------------------------------------------------------------*
;*   BEGIN LOOP ||$C$L1||
;*
;*   Loop source line                : 293
;*   Loop closing brace source line  : 293
;*   Known Minimum Trip Count        : 1
;*   Known Maximum Trip Count        : 4294967295
;*   Known Max Trip Count Factor     : 1
;* --------------------------------------------------------------------------*
||$C$L1||:    
        B         ||$C$L1||             ; [DPU_V7M3_PIPE] |293| 
        ; BRANCH OCCURS {||$C$L1||}      ; [] |293| 
;* --------------------------------------------------------------------------*
||$C$L2||:    
	.dwpsn	file "../OS/stream_buffer.c",line 294,column 3,is_stmt,isa 1
;----------------------------------------------------------------------
; 294 | configASSERT( pxStaticStreamBuffer );                                  
;----------------------------------------------------------------------
        LDR       A1, [SP, #40]         ; [DPU_V7M3_PIPE] |294| 
        CBNZ      A1, ||$C$L4||         ; [] 
        ; BRANCHCC OCCURS {||$C$L4||}    ; [] |294| 
;* --------------------------------------------------------------------------*
        MOVS      A1, #160              ; [DPU_V7M3_PIPE] |294| 
        MSR       BASEPRI, A1           ; [DPU_V7M3_PIPE] |294| 
	dsb
	isb
;* --------------------------------------------------------------------------*
;*   BEGIN LOOP ||$C$L3||
;*
;*   Loop source line                : 294
;*   Loop closing brace source line  : 294
;*   Known Minimum Trip Count        : 1
;*   Known Maximum Trip Count        : 4294967295
;*   Known Max Trip Count Factor     : 1
;* --------------------------------------------------------------------------*
||$C$L3||:    
        B         ||$C$L3||             ; [DPU_V7M3_PIPE] |294| 
        ; BRANCH OCCURS {||$C$L3||}      ; [] |294| 
;* --------------------------------------------------------------------------*
||$C$L4||:    
	.dwpsn	file "../OS/stream_buffer.c",line 295,column 3,is_stmt,isa 1
;----------------------------------------------------------------------
; 295 | configASSERT( xTriggerLevelBytes <= xBufferSizeBytes );                
;----------------------------------------------------------------------
        LDR       A2, [SP, #4]          ; [DPU_V7M3_PIPE] |295| 
        LDR       A3, [SP, #8]          ; [DPU_V7M3_PIPE] |295| 
        MOVS      A1, #0                ; [DPU_V7M3_PIPE] |295| 
        CMP       A2, A3                ; [DPU_V7M3_PIPE] |295| 
        BCC       ||$C$L5||             ; [DPU_V7M3_PIPE] |295| 
        ; BRANCHCC OCCURS {||$C$L5||}    ; [] |295| 
;* --------------------------------------------------------------------------*
        MOVS      A1, #1                ; [DPU_V7M3_PIPE] |295| 
;* --------------------------------------------------------------------------*
||$C$L5||:    
        CBNZ      A1, ||$C$L7||         ; [] 
        ; BRANCHCC OCCURS {||$C$L7||}    ; [] |295| 
;* --------------------------------------------------------------------------*
        MOVS      A1, #160              ; [DPU_V7M3_PIPE] |295| 
        MSR       BASEPRI, A1           ; [DPU_V7M3_PIPE] |295| 
	dsb
	isb
;* --------------------------------------------------------------------------*
;*   BEGIN LOOP ||$C$L6||
;*
;*   Loop source line                : 295
;*   Loop closing brace source line  : 295
;*   Known Minimum Trip Count        : 1
;*   Known Maximum Trip Count        : 4294967295
;*   Known Max Trip Count Factor     : 1
;* --------------------------------------------------------------------------*
||$C$L6||:    
        B         ||$C$L6||             ; [DPU_V7M3_PIPE] |295| 
        ; BRANCH OCCURS {||$C$L6||}      ; [] |295| 
;* --------------------------------------------------------------------------*
||$C$L7||:    
	.dwpsn	file "../OS/stream_buffer.c",line 299,column 3,is_stmt,isa 1
;----------------------------------------------------------------------
; 299 | if( xTriggerLevelBytes == ( size_t ) 0 )                               
;----------------------------------------------------------------------
        LDR       A1, [SP, #8]          ; [DPU_V7M3_PIPE] |299| 
        CBNZ      A1, ||$C$L8||         ; [] 
        ; BRANCHCC OCCURS {||$C$L8||}    ; [] |299| 
;* --------------------------------------------------------------------------*
	.dwpsn	file "../OS/stream_buffer.c",line 301,column 4,is_stmt,isa 1
;----------------------------------------------------------------------
; 301 | xTriggerLevelBytes = ( size_t ) 1;                                     
;----------------------------------------------------------------------
        MOVS      A1, #1                ; [DPU_V7M3_PIPE] |301| 
        STR       A1, [SP, #8]          ; [DPU_V7M3_PIPE] |301| 
;* --------------------------------------------------------------------------*
||$C$L8||:    
	.dwpsn	file "../OS/stream_buffer.c",line 304,column 3,is_stmt,isa 1
;----------------------------------------------------------------------
; 304 | if( xIsMessageBuffer != pdFALSE )                                      
;----------------------------------------------------------------------
        LDR       A1, [SP, #12]         ; [DPU_V7M3_PIPE] |304| 
        CBZ       A1, ||$C$L9||         ; [] 
        ; BRANCHCC OCCURS {||$C$L9||}    ; [] |304| 
;* --------------------------------------------------------------------------*
	.dwpsn	file "../OS/stream_buffer.c",line 307,column 4,is_stmt,isa 1
;----------------------------------------------------------------------
; 307 | ucFlags = sbFLAGS_IS_MESSAGE_BUFFER | sbFLAGS_IS_STATICALLY_ALLOCATED; 
;----------------------------------------------------------------------
        MOVS      A1, #3                ; [DPU_V7M3_PIPE] |307| 
        STRB      A1, [SP, #28]         ; [DPU_V7M3_PIPE] |307| 
	.dwpsn	file "../OS/stream_buffer.c",line 308,column 3,is_stmt,isa 1
;----------------------------------------------------------------------
; 309 | else                                                                   
;----------------------------------------------------------------------
        B         ||$C$L10||            ; [DPU_V7M3_PIPE] |308| 
        ; BRANCH OCCURS {||$C$L10||}     ; [] |308| 
;* --------------------------------------------------------------------------*
||$C$L9||:    
	.dwpsn	file "../OS/stream_buffer.c",line 312,column 4,is_stmt,isa 1
;----------------------------------------------------------------------
; 312 | ucFlags = sbFLAGS_IS_STATICALLY_ALLOCATED;                             
;----------------------------------------------------------------------
        MOVS      A1, #2                ; [DPU_V7M3_PIPE] |312| 
        STRB      A1, [SP, #28]         ; [DPU_V7M3_PIPE] |312| 
;* --------------------------------------------------------------------------*
||$C$L10||:    
	.dwpsn	file "../OS/stream_buffer.c",line 319,column 3,is_stmt,isa 1
;----------------------------------------------------------------------
; 319 | configASSERT( xBufferSizeBytes > sbBYTES_TO_STORE_MESSAGE_LENGTH );    
; 321 | #if( configASSERT_DEFINED == 1 )                                       
;----------------------------------------------------------------------
        LDR       A2, [SP, #4]          ; [DPU_V7M3_PIPE] |319| 
        MOVS      A1, #0                ; [DPU_V7M3_PIPE] |319| 
        CMP       A2, #4                ; [DPU_V7M3_PIPE] |319| 
        BLS       ||$C$L11||            ; [DPU_V7M3_PIPE] |319| 
        ; BRANCHCC OCCURS {||$C$L11||}   ; [] |319| 
;* --------------------------------------------------------------------------*
        MOVS      A1, #1                ; [DPU_V7M3_PIPE] |319| 
;* --------------------------------------------------------------------------*
||$C$L11||:    
        CBNZ      A1, ||$C$L13||        ; [] 
        ; BRANCHCC OCCURS {||$C$L13||}   ; [] |319| 
;* --------------------------------------------------------------------------*
        MOVS      A1, #160              ; [DPU_V7M3_PIPE] |319| 
        MSR       BASEPRI, A1           ; [DPU_V7M3_PIPE] |319| 
	dsb
	isb
;* --------------------------------------------------------------------------*
;*   BEGIN LOOP ||$C$L12||
;*
;*   Loop source line                : 319
;*   Loop closing brace source line  : 319
;*   Known Minimum Trip Count        : 1
;*   Known Maximum Trip Count        : 4294967295
;*   Known Max Trip Count Factor     : 1
;* --------------------------------------------------------------------------*
||$C$L12||:    
        B         ||$C$L12||            ; [DPU_V7M3_PIPE] |319| 
        ; BRANCH OCCURS {||$C$L12||}     ; [] |319| 
;* --------------------------------------------------------------------------*
||$C$L13||:    

$C$DW$46	.dwtag  DW_TAG_lexical_block
	.dwattr $C$DW$46, DW_AT_low_pc(0x00)
	.dwattr $C$DW$46, DW_AT_high_pc(0x00)
$C$DW$47	.dwtag  DW_TAG_variable
	.dwattr $C$DW$47, DW_AT_name("xSize")
	.dwattr $C$DW$47, DW_AT_TI_symbol_name("xSize")
	.dwattr $C$DW$47, DW_AT_type(*$C$DW$T$33)
	.dwattr $C$DW$47, DW_AT_location[DW_OP_breg13 32]

	.dwpsn	file "../OS/stream_buffer.c",line 326,column 26,is_stmt,isa 1
;----------------------------------------------------------------------
; 326 | volatile size_t xSize = sizeof( StaticStreamBuffer_t );                
;----------------------------------------------------------------------
        MOVS      A1, #36               ; [DPU_V7M3_PIPE] |326| 
        STR       A1, [SP, #32]         ; [DPU_V7M3_PIPE] |326| 
	.dwpsn	file "../OS/stream_buffer.c",line 327,column 4,is_stmt,isa 1
;----------------------------------------------------------------------
; 327 | configASSERT( xSize == sizeof( StreamBuffer_t ) );                     
; 329 | #endif /* configASSERT_DEFINED */                                      
;----------------------------------------------------------------------
        LDR       A2, [SP, #32]         ; [DPU_V7M3_PIPE] |327| 
        MOVS      A1, #0                ; [DPU_V7M3_PIPE] |327| 
        CMP       A2, #36               ; [DPU_V7M3_PIPE] |327| 
        BNE       ||$C$L14||            ; [DPU_V7M3_PIPE] |327| 
        ; BRANCHCC OCCURS {||$C$L14||}   ; [] |327| 
;* --------------------------------------------------------------------------*
        MOVS      A1, #1                ; [DPU_V7M3_PIPE] |327| 
;* --------------------------------------------------------------------------*
||$C$L14||:    
        CBNZ      A1, ||$C$L16||        ; [] 
        ; BRANCHCC OCCURS {||$C$L16||}   ; [] |327| 
;* --------------------------------------------------------------------------*
        MOVS      A1, #160              ; [DPU_V7M3_PIPE] |327| 
        MSR       BASEPRI, A1           ; [DPU_V7M3_PIPE] |327| 
	dsb
	isb
;* --------------------------------------------------------------------------*
;*   BEGIN LOOP ||$C$L15||
;*
;*   Loop source line                : 327
;*   Loop closing brace source line  : 327
;*   Known Minimum Trip Count        : 1
;*   Known Maximum Trip Count        : 4294967295
;*   Known Max Trip Count Factor     : 1
;* --------------------------------------------------------------------------*
||$C$L15||:    
        B         ||$C$L15||            ; [DPU_V7M3_PIPE] |327| 
        ; BRANCH OCCURS {||$C$L15||}     ; [] |327| 
;* --------------------------------------------------------------------------*
||$C$L16||:    
	.dwendtag $C$DW$46

	.dwpsn	file "../OS/stream_buffer.c",line 331,column 3,is_stmt,isa 1
;----------------------------------------------------------------------
; 331 | if( ( pucStreamBufferStorageArea != NULL ) && ( pxStaticStreamBuffer !=
;     |  NULL ) )                                                              
;----------------------------------------------------------------------
        LDR       A1, [SP, #16]         ; [DPU_V7M3_PIPE] |331| 
        CBZ       A1, ||$C$L17||        ; [] 
        ; BRANCHCC OCCURS {||$C$L17||}   ; [] |331| 
;* --------------------------------------------------------------------------*
        LDR       A1, [SP, #40]         ; [DPU_V7M3_PIPE] |331| 
        CBZ       A1, ||$C$L17||        ; [] 
        ; BRANCHCC OCCURS {||$C$L17||}   ; [] |331| 
;* --------------------------------------------------------------------------*
	.dwpsn	file "../OS/stream_buffer.c",line 333,column 4,is_stmt,isa 1
;----------------------------------------------------------------------
; 333 | prvInitialiseNewStreamBuffer( pxStreamBuffer,                          
; 334 |                                                           pucStreamBuff
;     | erStorageArea,                                                         
; 335 |                                                           xBufferSizeBy
;     | tes,                                                                   
; 336 |                                                           xTriggerLevel
;     | Bytes,                                                                 
; 337 |                                                           ucFlags );   
;----------------------------------------------------------------------
        LDRB      A1, [SP, #28]         ; [DPU_V7M3_PIPE] |333| 
        STR       A1, [SP, #0]          ; [DPU_V7M3_PIPE] |333| 
        LDR       A2, [SP, #16]         ; [DPU_V7M3_PIPE] |333| 
        LDR       A3, [SP, #4]          ; [DPU_V7M3_PIPE] |333| 
        LDR       A4, [SP, #8]          ; [DPU_V7M3_PIPE] |333| 
        LDR       A1, [SP, #20]         ; [DPU_V7M3_PIPE] |333| 
$C$DW$48	.dwtag  DW_TAG_TI_branch
	.dwattr $C$DW$48, DW_AT_low_pc(0x00)
	.dwattr $C$DW$48, DW_AT_name("prvInitialiseNewStreamBuffer")
	.dwattr $C$DW$48, DW_AT_TI_call

        BL        prvInitialiseNewStreamBuffer ; [DPU_V7M3_PIPE] |333| 
        ; CALL OCCURS {prvInitialiseNewStreamBuffer }  ; [] |333| 
	.dwpsn	file "../OS/stream_buffer.c",line 341,column 4,is_stmt,isa 1
;----------------------------------------------------------------------
; 341 | pxStreamBuffer->ucFlags |= sbFLAGS_IS_STATICALLY_ALLOCATED;            
; 343 | traceSTREAM_BUFFER_CREATE( pxStreamBuffer, xIsMessageBuffer );         
;----------------------------------------------------------------------
        LDR       A2, [SP, #20]         ; [DPU_V7M3_PIPE] |341| 
        LDRB      A1, [A2, #28]         ; [DPU_V7M3_PIPE] |341| 
        ORR       A1, A1, #2            ; [DPU_V7M3_PIPE] |341| 
        STRB      A1, [A2, #28]         ; [DPU_V7M3_PIPE] |341| 
	.dwpsn	file "../OS/stream_buffer.c",line 345,column 4,is_stmt,isa 1
;----------------------------------------------------------------------
; 345 | xReturn = ( StreamBufferHandle_t ) pxStaticStreamBuffer; /*lint !e9087
;     | Data hiding requires cast to opaque type. */                           
;----------------------------------------------------------------------
        LDR       A1, [SP, #40]         ; [DPU_V7M3_PIPE] |345| 
        STR       A1, [SP, #24]         ; [DPU_V7M3_PIPE] |345| 
	.dwpsn	file "../OS/stream_buffer.c",line 346,column 3,is_stmt,isa 1
;----------------------------------------------------------------------
; 347 | else                                                                   
;----------------------------------------------------------------------
        B         ||$C$L18||            ; [DPU_V7M3_PIPE] |346| 
        ; BRANCH OCCURS {||$C$L18||}     ; [] |346| 
;* --------------------------------------------------------------------------*
||$C$L17||:    
	.dwpsn	file "../OS/stream_buffer.c",line 349,column 4,is_stmt,isa 1
;----------------------------------------------------------------------
; 349 | xReturn = NULL;                                                        
; 350 | traceSTREAM_BUFFER_CREATE_STATIC_FAILED( xReturn, xIsMessageBuffer );  
;----------------------------------------------------------------------
        MOVS      A1, #0                ; [DPU_V7M3_PIPE] |349| 
        STR       A1, [SP, #24]         ; [DPU_V7M3_PIPE] |349| 
;* --------------------------------------------------------------------------*
||$C$L18||:    
	.dwpsn	file "../OS/stream_buffer.c",line 353,column 3,is_stmt,isa 1
;----------------------------------------------------------------------
; 353 | return xReturn;                                                        
;----------------------------------------------------------------------
        LDR       A1, [SP, #24]         ; [DPU_V7M3_PIPE] |353| 
	.dwpsn	file "../OS/stream_buffer.c",line 354,column 2,is_stmt,isa 1
        ADD       SP, SP, #36           ; [DPU_V7M3_PIPE] 
	.dwcfi	cfa_offset, 4
$C$DW$49	.dwtag  DW_TAG_TI_branch
	.dwattr $C$DW$49, DW_AT_low_pc(0x00)
	.dwattr $C$DW$49, DW_AT_TI_return

        POP       {PC}                  ; [DPU_V7M3_PIPE] 
	.dwcfi	cfa_offset, 0
        ; BRANCH OCCURS                  ; [] 
	.dwattr $C$DW$33, DW_AT_TI_end_file("../OS/stream_buffer.c")
	.dwattr $C$DW$33, DW_AT_TI_end_line(0x162)
	.dwattr $C$DW$33, DW_AT_TI_end_column(0x02)
	.dwendentry
	.dwendtag $C$DW$33

	.sect	".text"
	.clink
	.thumbfunc vStreamBufferDelete
	.thumb
	.global	vStreamBufferDelete

$C$DW$50	.dwtag  DW_TAG_subprogram
	.dwattr $C$DW$50, DW_AT_name("vStreamBufferDelete")
	.dwattr $C$DW$50, DW_AT_low_pc(vStreamBufferDelete)
	.dwattr $C$DW$50, DW_AT_high_pc(0x00)
	.dwattr $C$DW$50, DW_AT_TI_symbol_name("vStreamBufferDelete")
	.dwattr $C$DW$50, DW_AT_external
	.dwattr $C$DW$50, DW_AT_TI_begin_file("../OS/stream_buffer.c")
	.dwattr $C$DW$50, DW_AT_TI_begin_line(0x167)
	.dwattr $C$DW$50, DW_AT_TI_begin_column(0x06)
	.dwattr $C$DW$50, DW_AT_decl_file("../OS/stream_buffer.c")
	.dwattr $C$DW$50, DW_AT_decl_line(0x167)
	.dwattr $C$DW$50, DW_AT_decl_column(0x06)
	.dwattr $C$DW$50, DW_AT_TI_max_frame_size(0x10)
	.dwpsn	file "../OS/stream_buffer.c",line 360,column 1,is_stmt,address vStreamBufferDelete,isa 1

	.dwfde $C$DW$CIE, vStreamBufferDelete
$C$DW$51	.dwtag  DW_TAG_formal_parameter
	.dwattr $C$DW$51, DW_AT_name("xStreamBuffer")
	.dwattr $C$DW$51, DW_AT_TI_symbol_name("xStreamBuffer")
	.dwattr $C$DW$51, DW_AT_type(*$C$DW$T$108)
	.dwattr $C$DW$51, DW_AT_location[DW_OP_reg0]

;----------------------------------------------------------------------
; 359 | void vStreamBufferDelete( StreamBufferHandle_t xStreamBuffer )         
;----------------------------------------------------------------------

;*****************************************************************************
;* FUNCTION NAME: vStreamBufferDelete                                        *
;*                                                                           *
;*   Regs Modified     : A1,A2,A3,A4,V9,SP,LR,SR,D0,D0_hi,D1,D1_hi,D2,D2_hi, *
;*                           D3,D3_hi,D4,D4_hi,D5,D5_hi,D6,D6_hi,D7,D7_hi,   *
;*                           FPEXC,FPSCR                                     *
;*   Regs Used         : A1,A2,A3,A4,V9,SP,LR,SR,D0,D0_hi,D1,D1_hi,D2,D2_hi, *
;*                           D3,D3_hi,D4,D4_hi,D5,D5_hi,D6,D6_hi,D7,D7_hi,   *
;*                           FPEXC,FPSCR                                     *
;*   Local Frame Size  : 0 Args + 8 Auto + 4 Save = 12 byte                  *
;*****************************************************************************
vStreamBufferDelete:
;* --------------------------------------------------------------------------*
	.dwcfi	cfa_offset, 0
        PUSH      {A2, A3, A4, LR}      ; [DPU_V7M3_PIPE] 
	.dwcfi	cfa_offset, 16
	.dwcfi	save_reg_to_mem, 14, -4
	.dwcfi	save_reg_to_mem, 3, -8
	.dwcfi	save_reg_to_mem, 2, -12
	.dwcfi	save_reg_to_mem, 1, -16
$C$DW$52	.dwtag  DW_TAG_variable
	.dwattr $C$DW$52, DW_AT_name("xStreamBuffer")
	.dwattr $C$DW$52, DW_AT_TI_symbol_name("xStreamBuffer")
	.dwattr $C$DW$52, DW_AT_type(*$C$DW$T$108)
	.dwattr $C$DW$52, DW_AT_location[DW_OP_breg13 0]

$C$DW$53	.dwtag  DW_TAG_variable
	.dwattr $C$DW$53, DW_AT_name("pxStreamBuffer")
	.dwattr $C$DW$53, DW_AT_TI_symbol_name("pxStreamBuffer")
	.dwattr $C$DW$53, DW_AT_type(*$C$DW$T$105)
	.dwattr $C$DW$53, DW_AT_location[DW_OP_breg13 4]

        STR       A1, [SP, #0]          ; [DPU_V7M3_PIPE] |360| 
	.dwpsn	file "../OS/stream_buffer.c",line 361,column 33,is_stmt,isa 1
;----------------------------------------------------------------------
; 361 | StreamBuffer_t * pxStreamBuffer = xStreamBuffer;                       
;----------------------------------------------------------------------
        LDR       A1, [SP, #0]          ; [DPU_V7M3_PIPE] |361| 
        STR       A1, [SP, #4]          ; [DPU_V7M3_PIPE] |361| 
	.dwpsn	file "../OS/stream_buffer.c",line 363,column 2,is_stmt,isa 1
;----------------------------------------------------------------------
; 363 | configASSERT( pxStreamBuffer );                                        
; 365 | traceSTREAM_BUFFER_DELETE( xStreamBuffer );                            
;----------------------------------------------------------------------
        LDR       A1, [SP, #4]          ; [DPU_V7M3_PIPE] |363| 
        CBNZ      A1, ||$C$L20||        ; [] 
        ; BRANCHCC OCCURS {||$C$L20||}   ; [] |363| 
;* --------------------------------------------------------------------------*
        MOVS      A1, #160              ; [DPU_V7M3_PIPE] |363| 
        MSR       BASEPRI, A1           ; [DPU_V7M3_PIPE] |363| 
	dsb
	isb
;* --------------------------------------------------------------------------*
;*   BEGIN LOOP ||$C$L19||
;*
;*   Loop source line                : 363
;*   Loop closing brace source line  : 363
;*   Known Minimum Trip Count        : 1
;*   Known Maximum Trip Count        : 4294967295
;*   Known Max Trip Count Factor     : 1
;* --------------------------------------------------------------------------*
||$C$L19||:    
        B         ||$C$L19||            ; [DPU_V7M3_PIPE] |363| 
        ; BRANCH OCCURS {||$C$L19||}     ; [] |363| 
;* --------------------------------------------------------------------------*
||$C$L20||:    
	.dwpsn	file "../OS/stream_buffer.c",line 367,column 2,is_stmt,isa 1
;----------------------------------------------------------------------
; 367 | if( ( pxStreamBuffer->ucFlags & sbFLAGS_IS_STATICALLY_ALLOCATED ) == (
;     | uint8_t ) pdFALSE )                                                    
; 369 |         #if( configSUPPORT_DYNAMIC_ALLOCATION == 1 )                   
; 373 |                 vPortFree( ( void * ) pxStreamBuffer ); /*lint !e9087 S
;     | tandard free() semantics require void *, plus pxStreamBuffer was alloca
;     | ted by pvPortMalloc(). */                                              
; 375 |         #else                                                          
;----------------------------------------------------------------------
        LDR       A1, [SP, #4]          ; [DPU_V7M3_PIPE] |367| 
        LDRB      A1, [A1, #28]         ; [DPU_V7M3_PIPE] |367| 
        LSRS      A1, A1, #2            ; [DPU_V7M3_PIPE] |367| 
        BCS       ||$C$L23||            ; [DPU_V7M3_PIPE] |367| 
        ; BRANCHCC OCCURS {||$C$L23||}   ; [] |367| 
;* --------------------------------------------------------------------------*
	.dwpsn	file "../OS/stream_buffer.c",line 379,column 4,is_stmt,isa 1
;----------------------------------------------------------------------
; 379 | configASSERT( xStreamBuffer == ( StreamBufferHandle_t ) ~0 );          
; 381 | #endif                                                                 
; 383 | else                                                                   
;----------------------------------------------------------------------
        LDR       A2, [SP, #0]          ; [DPU_V7M3_PIPE] |379| 
        MOVS      A1, #0                ; [DPU_V7M3_PIPE] |379| 
        CMP       A2, #-1               ; [DPU_V7M3_PIPE] |379| 
        BNE       ||$C$L21||            ; [DPU_V7M3_PIPE] |379| 
        ; BRANCHCC OCCURS {||$C$L21||}   ; [] |379| 
;* --------------------------------------------------------------------------*
        MOVS      A1, #1                ; [DPU_V7M3_PIPE] |379| 
;* --------------------------------------------------------------------------*
||$C$L21||:    
        CBNZ      A1, ||$C$L24||        ; [] 
        ; BRANCHCC OCCURS {||$C$L24||}   ; [] |379| 
;* --------------------------------------------------------------------------*
        MOVS      A1, #160              ; [DPU_V7M3_PIPE] |379| 
        MSR       BASEPRI, A1           ; [DPU_V7M3_PIPE] |379| 
	dsb
	isb
;* --------------------------------------------------------------------------*
;*   BEGIN LOOP ||$C$L22||
;*
;*   Loop source line                : 379
;*   Loop closing brace source line  : 379
;*   Known Minimum Trip Count        : 1
;*   Known Maximum Trip Count        : 4294967295
;*   Known Max Trip Count Factor     : 1
;* --------------------------------------------------------------------------*
||$C$L22||:    
        B         ||$C$L22||            ; [DPU_V7M3_PIPE] |379| 
        ; BRANCH OCCURS {||$C$L22||}     ; [] |379| 
;* --------------------------------------------------------------------------*
;* --------------------------------------------------------------------------*
||$C$L23||:    
	.dwpsn	file "../OS/stream_buffer.c",line 387,column 3,is_stmt,isa 1
;----------------------------------------------------------------------
; 387 | ( void ) memset( pxStreamBuffer, 0x00, sizeof( StreamBuffer_t ) );     
;----------------------------------------------------------------------
        LDR       A1, [SP, #4]          ; [DPU_V7M3_PIPE] |387| 
        MOVS      A2, #0                ; [DPU_V7M3_PIPE] |387| 
        MOVS      A3, #36               ; [DPU_V7M3_PIPE] |387| 
$C$DW$54	.dwtag  DW_TAG_TI_branch
	.dwattr $C$DW$54, DW_AT_low_pc(0x00)
	.dwattr $C$DW$54, DW_AT_name("memset")
	.dwattr $C$DW$54, DW_AT_TI_call

        BL        memset                ; [DPU_V7M3_PIPE] |387| 
        ; CALL OCCURS {memset }          ; [] |387| 
	.dwpsn	file "../OS/stream_buffer.c",line 389,column 1,is_stmt,isa 1
;* --------------------------------------------------------------------------*
||$C$L24||:    
$C$DW$55	.dwtag  DW_TAG_TI_branch
	.dwattr $C$DW$55, DW_AT_low_pc(0x00)
	.dwattr $C$DW$55, DW_AT_TI_return

        POP       {A2, A3, A4, PC}      ; [DPU_V7M3_PIPE] 
	.dwcfi	cfa_offset, 0
	.dwcfi	restore_reg, 3
	.dwcfi	restore_reg, 2
	.dwcfi	restore_reg, 1
        ; BRANCH OCCURS                  ; [] 
	.dwattr $C$DW$50, DW_AT_TI_end_file("../OS/stream_buffer.c")
	.dwattr $C$DW$50, DW_AT_TI_end_line(0x185)
	.dwattr $C$DW$50, DW_AT_TI_end_column(0x01)
	.dwendentry
	.dwendtag $C$DW$50

	.sect	".text"
	.clink
	.thumbfunc xStreamBufferReset
	.thumb
	.global	xStreamBufferReset

$C$DW$56	.dwtag  DW_TAG_subprogram
	.dwattr $C$DW$56, DW_AT_name("xStreamBufferReset")
	.dwattr $C$DW$56, DW_AT_low_pc(xStreamBufferReset)
	.dwattr $C$DW$56, DW_AT_high_pc(0x00)
	.dwattr $C$DW$56, DW_AT_TI_symbol_name("xStreamBufferReset")
	.dwattr $C$DW$56, DW_AT_external
	.dwattr $C$DW$56, DW_AT_type(*$C$DW$T$90)
	.dwattr $C$DW$56, DW_AT_TI_begin_file("../OS/stream_buffer.c")
	.dwattr $C$DW$56, DW_AT_TI_begin_line(0x188)
	.dwattr $C$DW$56, DW_AT_TI_begin_column(0x0c)
	.dwattr $C$DW$56, DW_AT_decl_file("../OS/stream_buffer.c")
	.dwattr $C$DW$56, DW_AT_decl_line(0x188)
	.dwattr $C$DW$56, DW_AT_decl_column(0x0c)
	.dwattr $C$DW$56, DW_AT_TI_max_frame_size(0x18)
	.dwpsn	file "../OS/stream_buffer.c",line 393,column 1,is_stmt,address xStreamBufferReset,isa 1

	.dwfde $C$DW$CIE, xStreamBufferReset
$C$DW$57	.dwtag  DW_TAG_formal_parameter
	.dwattr $C$DW$57, DW_AT_name("xStreamBuffer")
	.dwattr $C$DW$57, DW_AT_TI_symbol_name("xStreamBuffer")
	.dwattr $C$DW$57, DW_AT_type(*$C$DW$T$108)
	.dwattr $C$DW$57, DW_AT_location[DW_OP_reg0]

;----------------------------------------------------------------------
; 392 | BaseType_t xStreamBufferReset( StreamBufferHandle_t xStreamBuffer )    
;----------------------------------------------------------------------

;*****************************************************************************
;* FUNCTION NAME: xStreamBufferReset                                         *
;*                                                                           *
;*   Regs Modified     : A1,A2,A3,A4,V9,SP,LR,SR,D0,D0_hi,D1,D1_hi,D2,D2_hi, *
;*                           D3,D3_hi,D4,D4_hi,D5,D5_hi,D6,D6_hi,D7,D7_hi,   *
;*                           FPEXC,FPSCR                                     *
;*   Regs Used         : A1,A2,A3,A4,V9,SP,LR,SR,D0,D0_hi,D1,D1_hi,D2,D2_hi, *
;*                           D3,D3_hi,D4,D4_hi,D5,D5_hi,D6,D6_hi,D7,D7_hi,   *
;*                           FPEXC,FPSCR                                     *
;*   Local Frame Size  : 4 Args + 16 Auto + 4 Save = 24 byte                 *
;*****************************************************************************
xStreamBufferReset:
;* --------------------------------------------------------------------------*
	.dwcfi	cfa_offset, 0
        PUSH      {LR}                  ; [DPU_V7M3_PIPE] 
	.dwcfi	cfa_offset, 4
	.dwcfi	save_reg_to_mem, 14, -4
        SUB       SP, SP, #20           ; [DPU_V7M3_PIPE] 
	.dwcfi	cfa_offset, 24
$C$DW$58	.dwtag  DW_TAG_variable
	.dwattr $C$DW$58, DW_AT_name("xStreamBuffer")
	.dwattr $C$DW$58, DW_AT_TI_symbol_name("xStreamBuffer")
	.dwattr $C$DW$58, DW_AT_type(*$C$DW$T$108)
	.dwattr $C$DW$58, DW_AT_location[DW_OP_breg13 4]

$C$DW$59	.dwtag  DW_TAG_variable
	.dwattr $C$DW$59, DW_AT_name("pxStreamBuffer")
	.dwattr $C$DW$59, DW_AT_TI_symbol_name("pxStreamBuffer")
	.dwattr $C$DW$59, DW_AT_type(*$C$DW$T$106)
	.dwattr $C$DW$59, DW_AT_location[DW_OP_breg13 8]

$C$DW$60	.dwtag  DW_TAG_variable
	.dwattr $C$DW$60, DW_AT_name("xReturn")
	.dwattr $C$DW$60, DW_AT_TI_symbol_name("xReturn")
	.dwattr $C$DW$60, DW_AT_type(*$C$DW$T$90)
	.dwattr $C$DW$60, DW_AT_location[DW_OP_breg13 12]

$C$DW$61	.dwtag  DW_TAG_variable
	.dwattr $C$DW$61, DW_AT_name("uxStreamBufferNumber")
	.dwattr $C$DW$61, DW_AT_TI_symbol_name("uxStreamBufferNumber")
	.dwattr $C$DW$61, DW_AT_type(*$C$DW$T$26)
	.dwattr $C$DW$61, DW_AT_location[DW_OP_breg13 16]

        STR       A1, [SP, #4]          ; [DPU_V7M3_PIPE] |393| 
	.dwpsn	file "../OS/stream_buffer.c",line 394,column 39,is_stmt,isa 1
;----------------------------------------------------------------------
; 394 | StreamBuffer_t * const pxStreamBuffer = xStreamBuffer;                 
;----------------------------------------------------------------------
        LDR       A1, [SP, #4]          ; [DPU_V7M3_PIPE] |394| 
        STR       A1, [SP, #8]          ; [DPU_V7M3_PIPE] |394| 
	.dwpsn	file "../OS/stream_buffer.c",line 395,column 20,is_stmt,isa 1
;----------------------------------------------------------------------
; 395 | BaseType_t xReturn = pdFAIL;                                           
; 397 | #if( configUSE_TRACE_FACILITY == 1 )                                   
; 398 | UBaseType_t uxStreamBufferNumber;                                      
; 399 | #endif                                                                 
;----------------------------------------------------------------------
        MOVS      A1, #0                ; [DPU_V7M3_PIPE] |395| 
        STR       A1, [SP, #12]         ; [DPU_V7M3_PIPE] |395| 
	.dwpsn	file "../OS/stream_buffer.c",line 401,column 2,is_stmt,isa 1
;----------------------------------------------------------------------
; 401 | configASSERT( pxStreamBuffer );                                        
; 403 | #if( configUSE_TRACE_FACILITY == 1 )                                   
;----------------------------------------------------------------------
        LDR       A1, [SP, #8]          ; [DPU_V7M3_PIPE] |401| 
        CBNZ      A1, ||$C$L26||        ; [] 
        ; BRANCHCC OCCURS {||$C$L26||}   ; [] |401| 
;* --------------------------------------------------------------------------*
        MOVS      A1, #160              ; [DPU_V7M3_PIPE] |401| 
        MSR       BASEPRI, A1           ; [DPU_V7M3_PIPE] |401| 
	dsb
	isb
;* --------------------------------------------------------------------------*
;*   BEGIN LOOP ||$C$L25||
;*
;*   Loop source line                : 401
;*   Loop closing brace source line  : 401
;*   Known Minimum Trip Count        : 1
;*   Known Maximum Trip Count        : 4294967295
;*   Known Max Trip Count Factor     : 1
;* --------------------------------------------------------------------------*
||$C$L25||:    
        B         ||$C$L25||            ; [DPU_V7M3_PIPE] |401| 
        ; BRANCH OCCURS {||$C$L25||}     ; [] |401| 
;* --------------------------------------------------------------------------*
||$C$L26||:    
	.dwpsn	file "../OS/stream_buffer.c",line 407,column 3,is_stmt,isa 1
;----------------------------------------------------------------------
; 407 | uxStreamBufferNumber = pxStreamBuffer->uxStreamBufferNumber;           
; 409 | #endif                                                                 
;----------------------------------------------------------------------
        LDR       A1, [SP, #8]          ; [DPU_V7M3_PIPE] |407| 
        LDR       A1, [A1, #32]         ; [DPU_V7M3_PIPE] |407| 
        STR       A1, [SP, #16]         ; [DPU_V7M3_PIPE] |407| 
	.dwpsn	file "../OS/stream_buffer.c",line 412,column 2,is_stmt,isa 1
;----------------------------------------------------------------------
; 412 | taskENTER_CRITICAL();                                                  
;----------------------------------------------------------------------
$C$DW$62	.dwtag  DW_TAG_TI_branch
	.dwattr $C$DW$62, DW_AT_low_pc(0x00)
	.dwattr $C$DW$62, DW_AT_name("vPortEnterCritical")
	.dwattr $C$DW$62, DW_AT_TI_call

        BL        vPortEnterCritical    ; [DPU_V7M3_PIPE] |412| 
        ; CALL OCCURS {vPortEnterCritical }  ; [] |412| 
	.dwpsn	file "../OS/stream_buffer.c",line 414,column 3,is_stmt,isa 1
;----------------------------------------------------------------------
; 414 | if( pxStreamBuffer->xTaskWaitingToReceive == NULL )                    
;----------------------------------------------------------------------
        LDR       A1, [SP, #8]          ; [DPU_V7M3_PIPE] |414| 
        LDR       A1, [A1, #16]         ; [DPU_V7M3_PIPE] |414| 
        CBNZ      A1, ||$C$L27||        ; [] 
        ; BRANCHCC OCCURS {||$C$L27||}   ; [] |414| 
;* --------------------------------------------------------------------------*
	.dwpsn	file "../OS/stream_buffer.c",line 416,column 4,is_stmt,isa 1
;----------------------------------------------------------------------
; 416 | if( pxStreamBuffer->xTaskWaitingToSend == NULL )                       
;----------------------------------------------------------------------
        LDR       A1, [SP, #8]          ; [DPU_V7M3_PIPE] |416| 
        LDR       A1, [A1, #20]         ; [DPU_V7M3_PIPE] |416| 
        CBNZ      A1, ||$C$L27||        ; [] 
        ; BRANCHCC OCCURS {||$C$L27||}   ; [] |416| 
;* --------------------------------------------------------------------------*
	.dwpsn	file "../OS/stream_buffer.c",line 418,column 5,is_stmt,isa 1
;----------------------------------------------------------------------
; 418 | prvInitialiseNewStreamBuffer( pxStreamBuffer,                          
; 419 |                                                           pxStreamBuffe
;     | r->pucBuffer,                                                          
; 420 |                                                           pxStreamBuffe
;     | r->xLength,                                                            
; 421 |                                                           pxStreamBuffe
;     | r->xTriggerLevelBytes,                                                 
; 422 |                                                           pxStreamBuffe
;     | r->ucFlags );                                                          
;----------------------------------------------------------------------
        LDR       A1, [SP, #8]          ; [DPU_V7M3_PIPE] |418| 
        LDRB      A1, [A1, #28]         ; [DPU_V7M3_PIPE] |418| 
        STR       A1, [SP, #0]          ; [DPU_V7M3_PIPE] |418| 
        LDR       A2, [SP, #8]          ; [DPU_V7M3_PIPE] |418| 
        LDR       A1, [SP, #8]          ; [DPU_V7M3_PIPE] |418| 
        LDR       A3, [SP, #8]          ; [DPU_V7M3_PIPE] |418| 
        LDR       A4, [A1, #12]         ; [DPU_V7M3_PIPE] |418| 
        LDR       A2, [A2, #24]         ; [DPU_V7M3_PIPE] |418| 
        LDR       A3, [A3, #8]          ; [DPU_V7M3_PIPE] |418| 
        LDR       A1, [SP, #8]          ; [DPU_V7M3_PIPE] |418| 
$C$DW$63	.dwtag  DW_TAG_TI_branch
	.dwattr $C$DW$63, DW_AT_low_pc(0x00)
	.dwattr $C$DW$63, DW_AT_name("prvInitialiseNewStreamBuffer")
	.dwattr $C$DW$63, DW_AT_TI_call

        BL        prvInitialiseNewStreamBuffer ; [DPU_V7M3_PIPE] |418| 
        ; CALL OCCURS {prvInitialiseNewStreamBuffer }  ; [] |418| 
	.dwpsn	file "../OS/stream_buffer.c",line 423,column 5,is_stmt,isa 1
;----------------------------------------------------------------------
; 423 | xReturn = pdPASS;                                                      
; 425 | #if( configUSE_TRACE_FACILITY == 1 )                                   
;----------------------------------------------------------------------
        MOVS      A1, #1                ; [DPU_V7M3_PIPE] |423| 
        STR       A1, [SP, #12]         ; [DPU_V7M3_PIPE] |423| 
	.dwpsn	file "../OS/stream_buffer.c",line 427,column 6,is_stmt,isa 1
;----------------------------------------------------------------------
; 427 | pxStreamBuffer->uxStreamBufferNumber = uxStreamBufferNumber;           
; 429 | #endif                                                                 
; 431 | traceSTREAM_BUFFER_RESET( xStreamBuffer );                             
;----------------------------------------------------------------------
        LDR       A1, [SP, #16]         ; [DPU_V7M3_PIPE] |427| 
        LDR       A2, [SP, #8]          ; [DPU_V7M3_PIPE] |427| 
        STR       A1, [A2, #32]         ; [DPU_V7M3_PIPE] |427| 
;* --------------------------------------------------------------------------*
||$C$L27||:    
	.dwpsn	file "../OS/stream_buffer.c",line 435,column 2,is_stmt,isa 1
;----------------------------------------------------------------------
; 435 | taskEXIT_CRITICAL();                                                   
;----------------------------------------------------------------------
$C$DW$64	.dwtag  DW_TAG_TI_branch
	.dwattr $C$DW$64, DW_AT_low_pc(0x00)
	.dwattr $C$DW$64, DW_AT_name("vPortExitCritical")
	.dwattr $C$DW$64, DW_AT_TI_call

        BL        vPortExitCritical     ; [DPU_V7M3_PIPE] |435| 
        ; CALL OCCURS {vPortExitCritical }  ; [] |435| 
	.dwpsn	file "../OS/stream_buffer.c",line 437,column 2,is_stmt,isa 1
;----------------------------------------------------------------------
; 437 | return xReturn;                                                        
;----------------------------------------------------------------------
        LDR       A1, [SP, #12]         ; [DPU_V7M3_PIPE] |437| 
	.dwpsn	file "../OS/stream_buffer.c",line 438,column 1,is_stmt,isa 1
        ADD       SP, SP, #20           ; [DPU_V7M3_PIPE] 
	.dwcfi	cfa_offset, 4
$C$DW$65	.dwtag  DW_TAG_TI_branch
	.dwattr $C$DW$65, DW_AT_low_pc(0x00)
	.dwattr $C$DW$65, DW_AT_TI_return

        POP       {PC}                  ; [DPU_V7M3_PIPE] 
	.dwcfi	cfa_offset, 0
        ; BRANCH OCCURS                  ; [] 
	.dwattr $C$DW$56, DW_AT_TI_end_file("../OS/stream_buffer.c")
	.dwattr $C$DW$56, DW_AT_TI_end_line(0x1b6)
	.dwattr $C$DW$56, DW_AT_TI_end_column(0x01)
	.dwendentry
	.dwendtag $C$DW$56

	.sect	".text"
	.clink
	.thumbfunc xStreamBufferSetTriggerLevel
	.thumb
	.global	xStreamBufferSetTriggerLevel

$C$DW$66	.dwtag  DW_TAG_subprogram
	.dwattr $C$DW$66, DW_AT_name("xStreamBufferSetTriggerLevel")
	.dwattr $C$DW$66, DW_AT_low_pc(xStreamBufferSetTriggerLevel)
	.dwattr $C$DW$66, DW_AT_high_pc(0x00)
	.dwattr $C$DW$66, DW_AT_TI_symbol_name("xStreamBufferSetTriggerLevel")
	.dwattr $C$DW$66, DW_AT_external
	.dwattr $C$DW$66, DW_AT_type(*$C$DW$T$90)
	.dwattr $C$DW$66, DW_AT_TI_begin_file("../OS/stream_buffer.c")
	.dwattr $C$DW$66, DW_AT_TI_begin_line(0x1b9)
	.dwattr $C$DW$66, DW_AT_TI_begin_column(0x0c)
	.dwattr $C$DW$66, DW_AT_decl_file("../OS/stream_buffer.c")
	.dwattr $C$DW$66, DW_AT_decl_line(0x1b9)
	.dwattr $C$DW$66, DW_AT_decl_column(0x0c)
	.dwattr $C$DW$66, DW_AT_TI_max_frame_size(0x10)
	.dwpsn	file "../OS/stream_buffer.c",line 442,column 1,is_stmt,address xStreamBufferSetTriggerLevel,isa 1

	.dwfde $C$DW$CIE, xStreamBufferSetTriggerLevel
$C$DW$67	.dwtag  DW_TAG_formal_parameter
	.dwattr $C$DW$67, DW_AT_name("xStreamBuffer")
	.dwattr $C$DW$67, DW_AT_TI_symbol_name("xStreamBuffer")
	.dwattr $C$DW$67, DW_AT_type(*$C$DW$T$108)
	.dwattr $C$DW$67, DW_AT_location[DW_OP_reg0]

$C$DW$68	.dwtag  DW_TAG_formal_parameter
	.dwattr $C$DW$68, DW_AT_name("xTriggerLevel")
	.dwattr $C$DW$68, DW_AT_TI_symbol_name("xTriggerLevel")
	.dwattr $C$DW$68, DW_AT_type(*$C$DW$T$31)
	.dwattr $C$DW$68, DW_AT_location[DW_OP_reg1]

;----------------------------------------------------------------------
; 441 | BaseType_t xStreamBufferSetTriggerLevel( StreamBufferHandle_t xStreamBu
;     | ffer, size_t xTriggerLevel )                                           
;----------------------------------------------------------------------

;*****************************************************************************
;* FUNCTION NAME: xStreamBufferSetTriggerLevel                               *
;*                                                                           *
;*   Regs Modified     : A1,A2,SP,SR                                         *
;*   Regs Used         : A1,A2,SP,LR,SR                                      *
;*   Local Frame Size  : 0 Args + 16 Auto + 0 Save = 16 byte                 *
;*****************************************************************************
xStreamBufferSetTriggerLevel:
;* --------------------------------------------------------------------------*
	.dwcfi	cfa_offset, 0
        SUB       SP, SP, #16           ; [DPU_V7M3_PIPE] 
	.dwcfi	cfa_offset, 16
$C$DW$69	.dwtag  DW_TAG_variable
	.dwattr $C$DW$69, DW_AT_name("xStreamBuffer")
	.dwattr $C$DW$69, DW_AT_TI_symbol_name("xStreamBuffer")
	.dwattr $C$DW$69, DW_AT_type(*$C$DW$T$108)
	.dwattr $C$DW$69, DW_AT_location[DW_OP_breg13 0]

$C$DW$70	.dwtag  DW_TAG_variable
	.dwattr $C$DW$70, DW_AT_name("xTriggerLevel")
	.dwattr $C$DW$70, DW_AT_TI_symbol_name("xTriggerLevel")
	.dwattr $C$DW$70, DW_AT_type(*$C$DW$T$31)
	.dwattr $C$DW$70, DW_AT_location[DW_OP_breg13 4]

$C$DW$71	.dwtag  DW_TAG_variable
	.dwattr $C$DW$71, DW_AT_name("pxStreamBuffer")
	.dwattr $C$DW$71, DW_AT_TI_symbol_name("pxStreamBuffer")
	.dwattr $C$DW$71, DW_AT_type(*$C$DW$T$106)
	.dwattr $C$DW$71, DW_AT_location[DW_OP_breg13 8]

$C$DW$72	.dwtag  DW_TAG_variable
	.dwattr $C$DW$72, DW_AT_name("xReturn")
	.dwattr $C$DW$72, DW_AT_TI_symbol_name("xReturn")
	.dwattr $C$DW$72, DW_AT_type(*$C$DW$T$90)
	.dwattr $C$DW$72, DW_AT_location[DW_OP_breg13 12]

        STR       A2, [SP, #4]          ; [DPU_V7M3_PIPE] |442| 
        STR       A1, [SP, #0]          ; [DPU_V7M3_PIPE] |442| 
	.dwpsn	file "../OS/stream_buffer.c",line 443,column 39,is_stmt,isa 1
;----------------------------------------------------------------------
; 443 | StreamBuffer_t * const pxStreamBuffer = xStreamBuffer;                 
; 444 | BaseType_t xReturn;                                                    
;----------------------------------------------------------------------
        LDR       A1, [SP, #0]          ; [DPU_V7M3_PIPE] |443| 
        STR       A1, [SP, #8]          ; [DPU_V7M3_PIPE] |443| 
	.dwpsn	file "../OS/stream_buffer.c",line 446,column 2,is_stmt,isa 1
;----------------------------------------------------------------------
; 446 | configASSERT( pxStreamBuffer );                                        
;----------------------------------------------------------------------
        LDR       A1, [SP, #8]          ; [DPU_V7M3_PIPE] |446| 
        CBNZ      A1, ||$C$L29||        ; [] 
        ; BRANCHCC OCCURS {||$C$L29||}   ; [] |446| 
;* --------------------------------------------------------------------------*
        MOVS      A1, #160              ; [DPU_V7M3_PIPE] |446| 
        MSR       BASEPRI, A1           ; [DPU_V7M3_PIPE] |446| 
	dsb
	isb
;* --------------------------------------------------------------------------*
;*   BEGIN LOOP ||$C$L28||
;*
;*   Loop source line                : 446
;*   Loop closing brace source line  : 446
;*   Known Minimum Trip Count        : 1
;*   Known Maximum Trip Count        : 4294967295
;*   Known Max Trip Count Factor     : 1
;* --------------------------------------------------------------------------*
||$C$L28||:    
        B         ||$C$L28||            ; [DPU_V7M3_PIPE] |446| 
        ; BRANCH OCCURS {||$C$L28||}     ; [] |446| 
;* --------------------------------------------------------------------------*
||$C$L29||:    
	.dwpsn	file "../OS/stream_buffer.c",line 449,column 2,is_stmt,isa 1
;----------------------------------------------------------------------
; 449 | if( xTriggerLevel == ( size_t ) 0 )                                    
;----------------------------------------------------------------------
        LDR       A1, [SP, #4]          ; [DPU_V7M3_PIPE] |449| 
        CBNZ      A1, ||$C$L30||        ; [] 
        ; BRANCHCC OCCURS {||$C$L30||}   ; [] |449| 
;* --------------------------------------------------------------------------*
	.dwpsn	file "../OS/stream_buffer.c",line 451,column 3,is_stmt,isa 1
;----------------------------------------------------------------------
; 451 | xTriggerLevel = ( size_t ) 1;                                          
;----------------------------------------------------------------------
        MOVS      A1, #1                ; [DPU_V7M3_PIPE] |451| 
        STR       A1, [SP, #4]          ; [DPU_V7M3_PIPE] |451| 
;* --------------------------------------------------------------------------*
||$C$L30||:    
	.dwpsn	file "../OS/stream_buffer.c",line 456,column 2,is_stmt,isa 1
;----------------------------------------------------------------------
; 456 | if( xTriggerLevel <= pxStreamBuffer->xLength )                         
;----------------------------------------------------------------------
        LDR       A1, [SP, #8]          ; [DPU_V7M3_PIPE] |456| 
        LDR       A2, [SP, #4]          ; [DPU_V7M3_PIPE] |456| 
        LDR       A1, [A1, #8]          ; [DPU_V7M3_PIPE] |456| 
        CMP       A1, A2                ; [DPU_V7M3_PIPE] |456| 
        BCC       ||$C$L31||            ; [DPU_V7M3_PIPE] |456| 
        ; BRANCHCC OCCURS {||$C$L31||}   ; [] |456| 
;* --------------------------------------------------------------------------*
	.dwpsn	file "../OS/stream_buffer.c",line 458,column 3,is_stmt,isa 1
;----------------------------------------------------------------------
; 458 | pxStreamBuffer->xTriggerLevelBytes = xTriggerLevel;                    
;----------------------------------------------------------------------
        LDR       A1, [SP, #4]          ; [DPU_V7M3_PIPE] |458| 
        LDR       A2, [SP, #8]          ; [DPU_V7M3_PIPE] |458| 
        STR       A1, [A2, #12]         ; [DPU_V7M3_PIPE] |458| 
	.dwpsn	file "../OS/stream_buffer.c",line 459,column 3,is_stmt,isa 1
;----------------------------------------------------------------------
; 459 | xReturn = pdPASS;                                                      
;----------------------------------------------------------------------
        MOVS      A1, #1                ; [DPU_V7M3_PIPE] |459| 
        STR       A1, [SP, #12]         ; [DPU_V7M3_PIPE] |459| 
	.dwpsn	file "../OS/stream_buffer.c",line 460,column 2,is_stmt,isa 1
;----------------------------------------------------------------------
; 461 | else                                                                   
;----------------------------------------------------------------------
        B         ||$C$L32||            ; [DPU_V7M3_PIPE] |460| 
        ; BRANCH OCCURS {||$C$L32||}     ; [] |460| 
;* --------------------------------------------------------------------------*
||$C$L31||:    
	.dwpsn	file "../OS/stream_buffer.c",line 463,column 3,is_stmt,isa 1
;----------------------------------------------------------------------
; 463 | xReturn = pdFALSE;                                                     
;----------------------------------------------------------------------
        MOVS      A1, #0                ; [DPU_V7M3_PIPE] |463| 
        STR       A1, [SP, #12]         ; [DPU_V7M3_PIPE] |463| 
;* --------------------------------------------------------------------------*
||$C$L32||:    
	.dwpsn	file "../OS/stream_buffer.c",line 466,column 2,is_stmt,isa 1
;----------------------------------------------------------------------
; 466 | return xReturn;                                                        
;----------------------------------------------------------------------
        LDR       A1, [SP, #12]         ; [DPU_V7M3_PIPE] |466| 
	.dwpsn	file "../OS/stream_buffer.c",line 467,column 1,is_stmt,isa 1
        ADD       SP, SP, #16           ; [DPU_V7M3_PIPE] 
	.dwcfi	cfa_offset, 0
$C$DW$73	.dwtag  DW_TAG_TI_branch
	.dwattr $C$DW$73, DW_AT_low_pc(0x00)
	.dwattr $C$DW$73, DW_AT_TI_return

        BX        LR                    ; [DPU_V7M3_PIPE] 
        ; BRANCH OCCURS                  ; [] 
	.dwattr $C$DW$66, DW_AT_TI_end_file("../OS/stream_buffer.c")
	.dwattr $C$DW$66, DW_AT_TI_end_line(0x1d3)
	.dwattr $C$DW$66, DW_AT_TI_end_column(0x01)
	.dwendentry
	.dwendtag $C$DW$66

	.sect	".text"
	.clink
	.thumbfunc xStreamBufferSpacesAvailable
	.thumb
	.global	xStreamBufferSpacesAvailable

$C$DW$74	.dwtag  DW_TAG_subprogram
	.dwattr $C$DW$74, DW_AT_name("xStreamBufferSpacesAvailable")
	.dwattr $C$DW$74, DW_AT_low_pc(xStreamBufferSpacesAvailable)
	.dwattr $C$DW$74, DW_AT_high_pc(0x00)
	.dwattr $C$DW$74, DW_AT_TI_symbol_name("xStreamBufferSpacesAvailable")
	.dwattr $C$DW$74, DW_AT_external
	.dwattr $C$DW$74, DW_AT_type(*$C$DW$T$31)
	.dwattr $C$DW$74, DW_AT_TI_begin_file("../OS/stream_buffer.c")
	.dwattr $C$DW$74, DW_AT_TI_begin_line(0x1d6)
	.dwattr $C$DW$74, DW_AT_TI_begin_column(0x08)
	.dwattr $C$DW$74, DW_AT_decl_file("../OS/stream_buffer.c")
	.dwattr $C$DW$74, DW_AT_decl_line(0x1d6)
	.dwattr $C$DW$74, DW_AT_decl_column(0x08)
	.dwattr $C$DW$74, DW_AT_TI_max_frame_size(0x10)
	.dwpsn	file "../OS/stream_buffer.c",line 471,column 1,is_stmt,address xStreamBufferSpacesAvailable,isa 1

	.dwfde $C$DW$CIE, xStreamBufferSpacesAvailable
$C$DW$75	.dwtag  DW_TAG_formal_parameter
	.dwattr $C$DW$75, DW_AT_name("xStreamBuffer")
	.dwattr $C$DW$75, DW_AT_TI_symbol_name("xStreamBuffer")
	.dwattr $C$DW$75, DW_AT_type(*$C$DW$T$108)
	.dwattr $C$DW$75, DW_AT_location[DW_OP_reg0]

;----------------------------------------------------------------------
; 470 | size_t xStreamBufferSpacesAvailable( StreamBufferHandle_t xStreamBuffer
;     |  )                                                                     
;----------------------------------------------------------------------

;*****************************************************************************
;* FUNCTION NAME: xStreamBufferSpacesAvailable                               *
;*                                                                           *
;*   Regs Modified     : A1,A2,SP,SR                                         *
;*   Regs Used         : A1,A2,SP,LR,SR                                      *
;*   Local Frame Size  : 0 Args + 12 Auto + 0 Save = 12 byte                 *
;*****************************************************************************
xStreamBufferSpacesAvailable:
;* --------------------------------------------------------------------------*
	.dwcfi	cfa_offset, 0
        SUB       SP, SP, #16           ; [DPU_V7M3_PIPE] 
	.dwcfi	cfa_offset, 16
$C$DW$76	.dwtag  DW_TAG_variable
	.dwattr $C$DW$76, DW_AT_name("xStreamBuffer")
	.dwattr $C$DW$76, DW_AT_TI_symbol_name("xStreamBuffer")
	.dwattr $C$DW$76, DW_AT_type(*$C$DW$T$108)
	.dwattr $C$DW$76, DW_AT_location[DW_OP_breg13 0]

$C$DW$77	.dwtag  DW_TAG_variable
	.dwattr $C$DW$77, DW_AT_name("pxStreamBuffer")
	.dwattr $C$DW$77, DW_AT_TI_symbol_name("pxStreamBuffer")
	.dwattr $C$DW$77, DW_AT_type(*$C$DW$T$104)
	.dwattr $C$DW$77, DW_AT_location[DW_OP_breg13 4]

$C$DW$78	.dwtag  DW_TAG_variable
	.dwattr $C$DW$78, DW_AT_name("xSpace")
	.dwattr $C$DW$78, DW_AT_TI_symbol_name("xSpace")
	.dwattr $C$DW$78, DW_AT_type(*$C$DW$T$31)
	.dwattr $C$DW$78, DW_AT_location[DW_OP_breg13 8]

        STR       A1, [SP, #0]          ; [DPU_V7M3_PIPE] |471| 
	.dwpsn	file "../OS/stream_buffer.c",line 472,column 45,is_stmt,isa 1
;----------------------------------------------------------------------
; 472 | const StreamBuffer_t * const pxStreamBuffer = xStreamBuffer;           
; 473 | size_t xSpace;                                                         
;----------------------------------------------------------------------
        LDR       A1, [SP, #0]          ; [DPU_V7M3_PIPE] |472| 
        STR       A1, [SP, #4]          ; [DPU_V7M3_PIPE] |472| 
	.dwpsn	file "../OS/stream_buffer.c",line 475,column 2,is_stmt,isa 1
;----------------------------------------------------------------------
; 475 | configASSERT( pxStreamBuffer );                                        
;----------------------------------------------------------------------
        LDR       A1, [SP, #4]          ; [DPU_V7M3_PIPE] |475| 
        CBNZ      A1, ||$C$L34||        ; [] 
        ; BRANCHCC OCCURS {||$C$L34||}   ; [] |475| 
;* --------------------------------------------------------------------------*
        MOVS      A1, #160              ; [DPU_V7M3_PIPE] |475| 
        MSR       BASEPRI, A1           ; [DPU_V7M3_PIPE] |475| 
	dsb
	isb
;* --------------------------------------------------------------------------*
;*   BEGIN LOOP ||$C$L33||
;*
;*   Loop source line                : 475
;*   Loop closing brace source line  : 475
;*   Known Minimum Trip Count        : 1
;*   Known Maximum Trip Count        : 4294967295
;*   Known Max Trip Count Factor     : 1
;* --------------------------------------------------------------------------*
||$C$L33||:    
        B         ||$C$L33||            ; [DPU_V7M3_PIPE] |475| 
        ; BRANCH OCCURS {||$C$L33||}     ; [] |475| 
;* --------------------------------------------------------------------------*
||$C$L34||:    
	.dwpsn	file "../OS/stream_buffer.c",line 477,column 2,is_stmt,isa 1
;----------------------------------------------------------------------
; 477 | xSpace = pxStreamBuffer->xLength + pxStreamBuffer->xTail;              
;----------------------------------------------------------------------
        LDR       A2, [SP, #4]          ; [DPU_V7M3_PIPE] |477| 
        LDR       A1, [SP, #4]          ; [DPU_V7M3_PIPE] |477| 
        LDR       A2, [A2, #0]          ; [DPU_V7M3_PIPE] |477| 
        LDR       A1, [A1, #8]          ; [DPU_V7M3_PIPE] |477| 
        ADDS      A1, A1, A2            ; [DPU_V7M3_PIPE] |477| 
        STR       A1, [SP, #8]          ; [DPU_V7M3_PIPE] |477| 
	.dwpsn	file "../OS/stream_buffer.c",line 478,column 2,is_stmt,isa 1
;----------------------------------------------------------------------
; 478 | xSpace -= pxStreamBuffer->xHead;                                       
;----------------------------------------------------------------------
        LDR       A2, [SP, #4]          ; [DPU_V7M3_PIPE] |478| 
        LDR       A1, [SP, #8]          ; [DPU_V7M3_PIPE] |478| 
        LDR       A2, [A2, #4]          ; [DPU_V7M3_PIPE] |478| 
        SUBS      A1, A1, A2            ; [DPU_V7M3_PIPE] |478| 
        STR       A1, [SP, #8]          ; [DPU_V7M3_PIPE] |478| 
	.dwpsn	file "../OS/stream_buffer.c",line 479,column 2,is_stmt,isa 1
;----------------------------------------------------------------------
; 479 | xSpace -= ( size_t ) 1;                                                
;----------------------------------------------------------------------
        LDR       A1, [SP, #8]          ; [DPU_V7M3_PIPE] |479| 
        SUBS      A1, A1, #1            ; [DPU_V7M3_PIPE] |479| 
        STR       A1, [SP, #8]          ; [DPU_V7M3_PIPE] |479| 
	.dwpsn	file "../OS/stream_buffer.c",line 481,column 2,is_stmt,isa 1
;----------------------------------------------------------------------
; 481 | if( xSpace >= pxStreamBuffer->xLength )                                
;----------------------------------------------------------------------
        LDR       A1, [SP, #4]          ; [DPU_V7M3_PIPE] |481| 
        LDR       A2, [SP, #8]          ; [DPU_V7M3_PIPE] |481| 
        LDR       A1, [A1, #8]          ; [DPU_V7M3_PIPE] |481| 
        CMP       A1, A2                ; [DPU_V7M3_PIPE] |481| 
        BHI       ||$C$L35||            ; [DPU_V7M3_PIPE] |481| 
        ; BRANCHCC OCCURS {||$C$L35||}   ; [] |481| 
;* --------------------------------------------------------------------------*
	.dwpsn	file "../OS/stream_buffer.c",line 483,column 3,is_stmt,isa 1
;----------------------------------------------------------------------
; 483 | xSpace -= pxStreamBuffer->xLength;                                     
;----------------------------------------------------------------------
        LDR       A2, [SP, #4]          ; [DPU_V7M3_PIPE] |483| 
        LDR       A1, [SP, #8]          ; [DPU_V7M3_PIPE] |483| 
        LDR       A2, [A2, #8]          ; [DPU_V7M3_PIPE] |483| 
        SUBS      A1, A1, A2            ; [DPU_V7M3_PIPE] |483| 
        STR       A1, [SP, #8]          ; [DPU_V7M3_PIPE] |483| 
	.dwpsn	file "../OS/stream_buffer.c",line 484,column 2,is_stmt,isa 1
;----------------------------------------------------------------------
; 485 | else                                                                   
; 487 |         mtCOVERAGE_TEST_MARKER();                                      
;----------------------------------------------------------------------
;* --------------------------------------------------------------------------*
||$C$L35||:    
	.dwpsn	file "../OS/stream_buffer.c",line 490,column 2,is_stmt,isa 1
;----------------------------------------------------------------------
; 490 | return xSpace;                                                         
;----------------------------------------------------------------------
        LDR       A1, [SP, #8]          ; [DPU_V7M3_PIPE] |490| 
	.dwpsn	file "../OS/stream_buffer.c",line 491,column 1,is_stmt,isa 1
        ADD       SP, SP, #16           ; [DPU_V7M3_PIPE] 
	.dwcfi	cfa_offset, 0
$C$DW$79	.dwtag  DW_TAG_TI_branch
	.dwattr $C$DW$79, DW_AT_low_pc(0x00)
	.dwattr $C$DW$79, DW_AT_TI_return

        BX        LR                    ; [DPU_V7M3_PIPE] 
        ; BRANCH OCCURS                  ; [] 
	.dwattr $C$DW$74, DW_AT_TI_end_file("../OS/stream_buffer.c")
	.dwattr $C$DW$74, DW_AT_TI_end_line(0x1eb)
	.dwattr $C$DW$74, DW_AT_TI_end_column(0x01)
	.dwendentry
	.dwendtag $C$DW$74

	.sect	".text"
	.clink
	.thumbfunc xStreamBufferBytesAvailable
	.thumb
	.global	xStreamBufferBytesAvailable

$C$DW$80	.dwtag  DW_TAG_subprogram
	.dwattr $C$DW$80, DW_AT_name("xStreamBufferBytesAvailable")
	.dwattr $C$DW$80, DW_AT_low_pc(xStreamBufferBytesAvailable)
	.dwattr $C$DW$80, DW_AT_high_pc(0x00)
	.dwattr $C$DW$80, DW_AT_TI_symbol_name("xStreamBufferBytesAvailable")
	.dwattr $C$DW$80, DW_AT_external
	.dwattr $C$DW$80, DW_AT_type(*$C$DW$T$31)
	.dwattr $C$DW$80, DW_AT_TI_begin_file("../OS/stream_buffer.c")
	.dwattr $C$DW$80, DW_AT_TI_begin_line(0x1ee)
	.dwattr $C$DW$80, DW_AT_TI_begin_column(0x08)
	.dwattr $C$DW$80, DW_AT_decl_file("../OS/stream_buffer.c")
	.dwattr $C$DW$80, DW_AT_decl_line(0x1ee)
	.dwattr $C$DW$80, DW_AT_decl_column(0x08)
	.dwattr $C$DW$80, DW_AT_TI_max_frame_size(0x10)
	.dwpsn	file "../OS/stream_buffer.c",line 495,column 1,is_stmt,address xStreamBufferBytesAvailable,isa 1

	.dwfde $C$DW$CIE, xStreamBufferBytesAvailable
$C$DW$81	.dwtag  DW_TAG_formal_parameter
	.dwattr $C$DW$81, DW_AT_name("xStreamBuffer")
	.dwattr $C$DW$81, DW_AT_TI_symbol_name("xStreamBuffer")
	.dwattr $C$DW$81, DW_AT_type(*$C$DW$T$108)
	.dwattr $C$DW$81, DW_AT_location[DW_OP_reg0]

;----------------------------------------------------------------------
; 494 | size_t xStreamBufferBytesAvailable( StreamBufferHandle_t xStreamBuffer
;     | )                                                                      
;----------------------------------------------------------------------

;*****************************************************************************
;* FUNCTION NAME: xStreamBufferBytesAvailable                                *
;*                                                                           *
;*   Regs Modified     : A1,A2,A3,A4,V9,SP,LR,SR,D0,D0_hi,D1,D1_hi,D2,D2_hi, *
;*                           D3,D3_hi,D4,D4_hi,D5,D5_hi,D6,D6_hi,D7,D7_hi,   *
;*                           FPEXC,FPSCR                                     *
;*   Regs Used         : A1,A2,A3,A4,V9,SP,LR,SR,D0,D0_hi,D1,D1_hi,D2,D2_hi, *
;*                           D3,D3_hi,D4,D4_hi,D5,D5_hi,D6,D6_hi,D7,D7_hi,   *
;*                           FPEXC,FPSCR                                     *
;*   Local Frame Size  : 0 Args + 12 Auto + 4 Save = 16 byte                 *
;*****************************************************************************
xStreamBufferBytesAvailable:
;* --------------------------------------------------------------------------*
	.dwcfi	cfa_offset, 0
        PUSH      {A2, A3, A4, LR}      ; [DPU_V7M3_PIPE] 
	.dwcfi	cfa_offset, 16
	.dwcfi	save_reg_to_mem, 14, -4
	.dwcfi	save_reg_to_mem, 3, -8
	.dwcfi	save_reg_to_mem, 2, -12
	.dwcfi	save_reg_to_mem, 1, -16
$C$DW$82	.dwtag  DW_TAG_variable
	.dwattr $C$DW$82, DW_AT_name("xStreamBuffer")
	.dwattr $C$DW$82, DW_AT_TI_symbol_name("xStreamBuffer")
	.dwattr $C$DW$82, DW_AT_type(*$C$DW$T$108)
	.dwattr $C$DW$82, DW_AT_location[DW_OP_breg13 0]

$C$DW$83	.dwtag  DW_TAG_variable
	.dwattr $C$DW$83, DW_AT_name("pxStreamBuffer")
	.dwattr $C$DW$83, DW_AT_TI_symbol_name("pxStreamBuffer")
	.dwattr $C$DW$83, DW_AT_type(*$C$DW$T$104)
	.dwattr $C$DW$83, DW_AT_location[DW_OP_breg13 4]

$C$DW$84	.dwtag  DW_TAG_variable
	.dwattr $C$DW$84, DW_AT_name("xReturn")
	.dwattr $C$DW$84, DW_AT_TI_symbol_name("xReturn")
	.dwattr $C$DW$84, DW_AT_type(*$C$DW$T$31)
	.dwattr $C$DW$84, DW_AT_location[DW_OP_breg13 8]

        STR       A1, [SP, #0]          ; [DPU_V7M3_PIPE] |495| 
	.dwpsn	file "../OS/stream_buffer.c",line 496,column 45,is_stmt,isa 1
;----------------------------------------------------------------------
; 496 | const StreamBuffer_t * const pxStreamBuffer = xStreamBuffer;           
; 497 | size_t xReturn;                                                        
;----------------------------------------------------------------------
        LDR       A1, [SP, #0]          ; [DPU_V7M3_PIPE] |496| 
        STR       A1, [SP, #4]          ; [DPU_V7M3_PIPE] |496| 
	.dwpsn	file "../OS/stream_buffer.c",line 499,column 2,is_stmt,isa 1
;----------------------------------------------------------------------
; 499 | configASSERT( pxStreamBuffer );                                        
;----------------------------------------------------------------------
        LDR       A1, [SP, #4]          ; [DPU_V7M3_PIPE] |499| 
        CBNZ      A1, ||$C$L37||        ; [] 
        ; BRANCHCC OCCURS {||$C$L37||}   ; [] |499| 
;* --------------------------------------------------------------------------*
        MOVS      A1, #160              ; [DPU_V7M3_PIPE] |499| 
        MSR       BASEPRI, A1           ; [DPU_V7M3_PIPE] |499| 
	dsb
	isb
;* --------------------------------------------------------------------------*
;*   BEGIN LOOP ||$C$L36||
;*
;*   Loop source line                : 499
;*   Loop closing brace source line  : 499
;*   Known Minimum Trip Count        : 1
;*   Known Maximum Trip Count        : 4294967295
;*   Known Max Trip Count Factor     : 1
;* --------------------------------------------------------------------------*
||$C$L36||:    
        B         ||$C$L36||            ; [DPU_V7M3_PIPE] |499| 
        ; BRANCH OCCURS {||$C$L36||}     ; [] |499| 
;* --------------------------------------------------------------------------*
||$C$L37||:    
	.dwpsn	file "../OS/stream_buffer.c",line 501,column 2,is_stmt,isa 1
;----------------------------------------------------------------------
; 501 | xReturn = prvBytesInBuffer( pxStreamBuffer );                          
;----------------------------------------------------------------------
        LDR       A1, [SP, #4]          ; [DPU_V7M3_PIPE] |501| 
$C$DW$85	.dwtag  DW_TAG_TI_branch
	.dwattr $C$DW$85, DW_AT_low_pc(0x00)
	.dwattr $C$DW$85, DW_AT_name("prvBytesInBuffer")
	.dwattr $C$DW$85, DW_AT_TI_call

        BL        prvBytesInBuffer      ; [DPU_V7M3_PIPE] |501| 
        ; CALL OCCURS {prvBytesInBuffer }  ; [] |501| 
        STR       A1, [SP, #8]          ; [DPU_V7M3_PIPE] |501| 
	.dwpsn	file "../OS/stream_buffer.c",line 502,column 2,is_stmt,isa 1
;----------------------------------------------------------------------
; 502 | return xReturn;                                                        
;----------------------------------------------------------------------
        LDR       A1, [SP, #8]          ; [DPU_V7M3_PIPE] |502| 
	.dwpsn	file "../OS/stream_buffer.c",line 503,column 1,is_stmt,isa 1
$C$DW$86	.dwtag  DW_TAG_TI_branch
	.dwattr $C$DW$86, DW_AT_low_pc(0x00)
	.dwattr $C$DW$86, DW_AT_TI_return

        POP       {A2, A3, A4, PC}      ; [DPU_V7M3_PIPE] 
	.dwcfi	cfa_offset, 0
	.dwcfi	restore_reg, 3
	.dwcfi	restore_reg, 2
	.dwcfi	restore_reg, 1
        ; BRANCH OCCURS                  ; [] 
	.dwattr $C$DW$80, DW_AT_TI_end_file("../OS/stream_buffer.c")
	.dwattr $C$DW$80, DW_AT_TI_end_line(0x1f7)
	.dwattr $C$DW$80, DW_AT_TI_end_column(0x01)
	.dwendentry
	.dwendtag $C$DW$80

	.sect	".text"
	.clink
	.thumbfunc xStreamBufferSend
	.thumb
	.global	xStreamBufferSend

$C$DW$87	.dwtag  DW_TAG_subprogram
	.dwattr $C$DW$87, DW_AT_name("xStreamBufferSend")
	.dwattr $C$DW$87, DW_AT_low_pc(xStreamBufferSend)
	.dwattr $C$DW$87, DW_AT_high_pc(0x00)
	.dwattr $C$DW$87, DW_AT_TI_symbol_name("xStreamBufferSend")
	.dwattr $C$DW$87, DW_AT_external
	.dwattr $C$DW$87, DW_AT_type(*$C$DW$T$31)
	.dwattr $C$DW$87, DW_AT_TI_begin_file("../OS/stream_buffer.c")
	.dwattr $C$DW$87, DW_AT_TI_begin_line(0x1fa)
	.dwattr $C$DW$87, DW_AT_TI_begin_column(0x08)
	.dwattr $C$DW$87, DW_AT_decl_file("../OS/stream_buffer.c")
	.dwattr $C$DW$87, DW_AT_decl_line(0x1fa)
	.dwattr $C$DW$87, DW_AT_decl_column(0x08)
	.dwattr $C$DW$87, DW_AT_TI_max_frame_size(0x38)
	.dwpsn	file "../OS/stream_buffer.c",line 510,column 1,is_stmt,address xStreamBufferSend,isa 1

	.dwfde $C$DW$CIE, xStreamBufferSend
$C$DW$88	.dwtag  DW_TAG_formal_parameter
	.dwattr $C$DW$88, DW_AT_name("xStreamBuffer")
	.dwattr $C$DW$88, DW_AT_TI_symbol_name("xStreamBuffer")
	.dwattr $C$DW$88, DW_AT_type(*$C$DW$T$108)
	.dwattr $C$DW$88, DW_AT_location[DW_OP_reg0]

$C$DW$89	.dwtag  DW_TAG_formal_parameter
	.dwattr $C$DW$89, DW_AT_name("pvTxData")
	.dwattr $C$DW$89, DW_AT_TI_symbol_name("pvTxData")
	.dwattr $C$DW$89, DW_AT_type(*$C$DW$T$117)
	.dwattr $C$DW$89, DW_AT_location[DW_OP_reg1]

$C$DW$90	.dwtag  DW_TAG_formal_parameter
	.dwattr $C$DW$90, DW_AT_name("xDataLengthBytes")
	.dwattr $C$DW$90, DW_AT_TI_symbol_name("xDataLengthBytes")
	.dwattr $C$DW$90, DW_AT_type(*$C$DW$T$31)
	.dwattr $C$DW$90, DW_AT_location[DW_OP_reg2]

$C$DW$91	.dwtag  DW_TAG_formal_parameter
	.dwattr $C$DW$91, DW_AT_name("xTicksToWait")
	.dwattr $C$DW$91, DW_AT_TI_symbol_name("xTicksToWait")
	.dwattr $C$DW$91, DW_AT_type(*$C$DW$T$46)
	.dwattr $C$DW$91, DW_AT_location[DW_OP_reg3]

;----------------------------------------------------------------------
; 506 | size_t xStreamBufferSend( StreamBufferHandle_t xStreamBuffer,          
; 507 | const void *pvTxData,                                                  
; 508 | size_t xDataLengthBytes,                                               
; 509 | TickType_t xTicksToWait )                                              
;----------------------------------------------------------------------

;*****************************************************************************
;* FUNCTION NAME: xStreamBufferSend                                          *
;*                                                                           *
;*   Regs Modified     : A1,A2,A3,A4,V9,SP,LR,SR,D0,D0_hi,D1,D1_hi,D2,D2_hi, *
;*                           D3,D3_hi,D4,D4_hi,D5,D5_hi,D6,D6_hi,D7,D7_hi,   *
;*                           FPEXC,FPSCR                                     *
;*   Regs Used         : A1,A2,A3,A4,V9,SP,LR,SR,D0,D0_hi,D1,D1_hi,D2,D2_hi, *
;*                           D3,D3_hi,D4,D4_hi,D5,D5_hi,D6,D6_hi,D7,D7_hi,   *
;*                           FPEXC,FPSCR                                     *
;*   Local Frame Size  : 4 Args + 44 Auto + 4 Save = 52 byte                 *
;*****************************************************************************
xStreamBufferSend:
;* --------------------------------------------------------------------------*
	.dwcfi	cfa_offset, 0
        PUSH      {LR}                  ; [DPU_V7M3_PIPE] 
	.dwcfi	cfa_offset, 4
	.dwcfi	save_reg_to_mem, 14, -4
        SUB       SP, SP, #52           ; [DPU_V7M3_PIPE] 
	.dwcfi	cfa_offset, 56
$C$DW$92	.dwtag  DW_TAG_variable
	.dwattr $C$DW$92, DW_AT_name("xTimeOut")
	.dwattr $C$DW$92, DW_AT_TI_symbol_name("xTimeOut")
	.dwattr $C$DW$92, DW_AT_type(*$C$DW$T$121)
	.dwattr $C$DW$92, DW_AT_location[DW_OP_breg13 8]

$C$DW$93	.dwtag  DW_TAG_variable
	.dwattr $C$DW$93, DW_AT_name("xStreamBuffer")
	.dwattr $C$DW$93, DW_AT_TI_symbol_name("xStreamBuffer")
	.dwattr $C$DW$93, DW_AT_type(*$C$DW$T$108)
	.dwattr $C$DW$93, DW_AT_location[DW_OP_breg13 16]

$C$DW$94	.dwtag  DW_TAG_variable
	.dwattr $C$DW$94, DW_AT_name("pvTxData")
	.dwattr $C$DW$94, DW_AT_TI_symbol_name("pvTxData")
	.dwattr $C$DW$94, DW_AT_type(*$C$DW$T$117)
	.dwattr $C$DW$94, DW_AT_location[DW_OP_breg13 20]

$C$DW$95	.dwtag  DW_TAG_variable
	.dwattr $C$DW$95, DW_AT_name("xDataLengthBytes")
	.dwattr $C$DW$95, DW_AT_TI_symbol_name("xDataLengthBytes")
	.dwattr $C$DW$95, DW_AT_type(*$C$DW$T$31)
	.dwattr $C$DW$95, DW_AT_location[DW_OP_breg13 24]

$C$DW$96	.dwtag  DW_TAG_variable
	.dwattr $C$DW$96, DW_AT_name("xTicksToWait")
	.dwattr $C$DW$96, DW_AT_TI_symbol_name("xTicksToWait")
	.dwattr $C$DW$96, DW_AT_type(*$C$DW$T$46)
	.dwattr $C$DW$96, DW_AT_location[DW_OP_breg13 28]

$C$DW$97	.dwtag  DW_TAG_variable
	.dwattr $C$DW$97, DW_AT_name("pxStreamBuffer")
	.dwattr $C$DW$97, DW_AT_TI_symbol_name("pxStreamBuffer")
	.dwattr $C$DW$97, DW_AT_type(*$C$DW$T$106)
	.dwattr $C$DW$97, DW_AT_location[DW_OP_breg13 32]

$C$DW$98	.dwtag  DW_TAG_variable
	.dwattr $C$DW$98, DW_AT_name("xReturn")
	.dwattr $C$DW$98, DW_AT_TI_symbol_name("xReturn")
	.dwattr $C$DW$98, DW_AT_type(*$C$DW$T$31)
	.dwattr $C$DW$98, DW_AT_location[DW_OP_breg13 36]

$C$DW$99	.dwtag  DW_TAG_variable
	.dwattr $C$DW$99, DW_AT_name("xSpace")
	.dwattr $C$DW$99, DW_AT_TI_symbol_name("xSpace")
	.dwattr $C$DW$99, DW_AT_type(*$C$DW$T$31)
	.dwattr $C$DW$99, DW_AT_location[DW_OP_breg13 40]

$C$DW$100	.dwtag  DW_TAG_variable
	.dwattr $C$DW$100, DW_AT_name("xRequiredSpace")
	.dwattr $C$DW$100, DW_AT_TI_symbol_name("xRequiredSpace")
	.dwattr $C$DW$100, DW_AT_type(*$C$DW$T$31)
	.dwattr $C$DW$100, DW_AT_location[DW_OP_breg13 44]

        STR       A4, [SP, #28]         ; [DPU_V7M3_PIPE] |510| 
        STR       A3, [SP, #24]         ; [DPU_V7M3_PIPE] |510| 
        STR       A2, [SP, #20]         ; [DPU_V7M3_PIPE] |510| 
        STR       A1, [SP, #16]         ; [DPU_V7M3_PIPE] |510| 
	.dwpsn	file "../OS/stream_buffer.c",line 511,column 39,is_stmt,isa 1
;----------------------------------------------------------------------
; 511 | StreamBuffer_t * const pxStreamBuffer = xStreamBuffer;                 
;----------------------------------------------------------------------
        LDR       A1, [SP, #16]         ; [DPU_V7M3_PIPE] |511| 
        STR       A1, [SP, #32]         ; [DPU_V7M3_PIPE] |511| 
	.dwpsn	file "../OS/stream_buffer.c",line 512,column 24,is_stmt,isa 1
;----------------------------------------------------------------------
; 512 | size_t xReturn, xSpace = 0;                                            
;----------------------------------------------------------------------
        MOVS      A1, #0                ; [DPU_V7M3_PIPE] |512| 
        STR       A1, [SP, #40]         ; [DPU_V7M3_PIPE] |512| 
	.dwpsn	file "../OS/stream_buffer.c",line 513,column 23,is_stmt,isa 1
;----------------------------------------------------------------------
; 513 | size_t xRequiredSpace = xDataLengthBytes;                              
; 514 | TimeOut_t xTimeOut;                                                    
;----------------------------------------------------------------------
        LDR       A1, [SP, #24]         ; [DPU_V7M3_PIPE] |513| 
        STR       A1, [SP, #44]         ; [DPU_V7M3_PIPE] |513| 
	.dwpsn	file "../OS/stream_buffer.c",line 516,column 2,is_stmt,isa 1
;----------------------------------------------------------------------
; 516 | configASSERT( pvTxData );                                              
;----------------------------------------------------------------------
        LDR       A1, [SP, #20]         ; [DPU_V7M3_PIPE] |516| 
        CBNZ      A1, ||$C$L39||        ; [] 
        ; BRANCHCC OCCURS {||$C$L39||}   ; [] |516| 
;* --------------------------------------------------------------------------*
        MOVS      A1, #160              ; [DPU_V7M3_PIPE] |516| 
        MSR       BASEPRI, A1           ; [DPU_V7M3_PIPE] |516| 
	dsb
	isb
;* --------------------------------------------------------------------------*
;*   BEGIN LOOP ||$C$L38||
;*
;*   Loop source line                : 516
;*   Loop closing brace source line  : 516
;*   Known Minimum Trip Count        : 1
;*   Known Maximum Trip Count        : 4294967295
;*   Known Max Trip Count Factor     : 1
;* --------------------------------------------------------------------------*
||$C$L38||:    
        B         ||$C$L38||            ; [DPU_V7M3_PIPE] |516| 
        ; BRANCH OCCURS {||$C$L38||}     ; [] |516| 
;* --------------------------------------------------------------------------*
||$C$L39||:    
	.dwpsn	file "../OS/stream_buffer.c",line 517,column 2,is_stmt,isa 1
;----------------------------------------------------------------------
; 517 | configASSERT( pxStreamBuffer );                                        
;----------------------------------------------------------------------
        LDR       A1, [SP, #32]         ; [DPU_V7M3_PIPE] |517| 
        CBNZ      A1, ||$C$L41||        ; [] 
        ; BRANCHCC OCCURS {||$C$L41||}   ; [] |517| 
;* --------------------------------------------------------------------------*
        MOVS      A1, #160              ; [DPU_V7M3_PIPE] |517| 
        MSR       BASEPRI, A1           ; [DPU_V7M3_PIPE] |517| 
	dsb
	isb
;* --------------------------------------------------------------------------*
;*   BEGIN LOOP ||$C$L40||
;*
;*   Loop source line                : 517
;*   Loop closing brace source line  : 517
;*   Known Minimum Trip Count        : 1
;*   Known Maximum Trip Count        : 4294967295
;*   Known Max Trip Count Factor     : 1
;* --------------------------------------------------------------------------*
||$C$L40||:    
        B         ||$C$L40||            ; [DPU_V7M3_PIPE] |517| 
        ; BRANCH OCCURS {||$C$L40||}     ; [] |517| 
;* --------------------------------------------------------------------------*
||$C$L41||:    
	.dwpsn	file "../OS/stream_buffer.c",line 523,column 2,is_stmt,isa 1
;----------------------------------------------------------------------
; 523 | if( ( pxStreamBuffer->ucFlags & sbFLAGS_IS_MESSAGE_BUFFER ) != ( uint8_
;     | t ) 0 )                                                                
;----------------------------------------------------------------------
        LDR       A1, [SP, #32]         ; [DPU_V7M3_PIPE] |523| 
        LDRB      A1, [A1, #28]         ; [DPU_V7M3_PIPE] |523| 
        LSRS      A1, A1, #1            ; [DPU_V7M3_PIPE] |523| 
        BCC       ||$C$L44||            ; [DPU_V7M3_PIPE] |523| 
        ; BRANCHCC OCCURS {||$C$L44||}   ; [] |523| 
;* --------------------------------------------------------------------------*
	.dwpsn	file "../OS/stream_buffer.c",line 525,column 3,is_stmt,isa 1
;----------------------------------------------------------------------
; 525 | xRequiredSpace += sbBYTES_TO_STORE_MESSAGE_LENGTH;                     
;----------------------------------------------------------------------
        LDR       A1, [SP, #44]         ; [DPU_V7M3_PIPE] |525| 
        ADDS      A1, A1, #4            ; [DPU_V7M3_PIPE] |525| 
        STR       A1, [SP, #44]         ; [DPU_V7M3_PIPE] |525| 
	.dwpsn	file "../OS/stream_buffer.c",line 528,column 3,is_stmt,isa 1
;----------------------------------------------------------------------
; 528 | configASSERT( xRequiredSpace > xDataLengthBytes );                     
; 530 | else                                                                   
; 532 | mtCOVERAGE_TEST_MARKER();                                              
;----------------------------------------------------------------------
        LDR       A2, [SP, #24]         ; [DPU_V7M3_PIPE] |528| 
        LDR       A3, [SP, #44]         ; [DPU_V7M3_PIPE] |528| 
        MOVS      A1, #0                ; [DPU_V7M3_PIPE] |528| 
        CMP       A2, A3                ; [DPU_V7M3_PIPE] |528| 
        BCS       ||$C$L42||            ; [DPU_V7M3_PIPE] |528| 
        ; BRANCHCC OCCURS {||$C$L42||}   ; [] |528| 
;* --------------------------------------------------------------------------*
        MOVS      A1, #1                ; [DPU_V7M3_PIPE] |528| 
;* --------------------------------------------------------------------------*
||$C$L42||:    
        CBNZ      A1, ||$C$L44||        ; [] 
        ; BRANCHCC OCCURS {||$C$L44||}   ; [] |528| 
;* --------------------------------------------------------------------------*
        MOVS      A1, #160              ; [DPU_V7M3_PIPE] |528| 
        MSR       BASEPRI, A1           ; [DPU_V7M3_PIPE] |528| 
	dsb
	isb
;* --------------------------------------------------------------------------*
;*   BEGIN LOOP ||$C$L43||
;*
;*   Loop source line                : 528
;*   Loop closing brace source line  : 528
;*   Known Minimum Trip Count        : 1
;*   Known Maximum Trip Count        : 4294967295
;*   Known Max Trip Count Factor     : 1
;* --------------------------------------------------------------------------*
||$C$L43||:    
        B         ||$C$L43||            ; [DPU_V7M3_PIPE] |528| 
        ; BRANCH OCCURS {||$C$L43||}     ; [] |528| 
;* --------------------------------------------------------------------------*
;* --------------------------------------------------------------------------*
||$C$L44||:    
	.dwpsn	file "../OS/stream_buffer.c",line 535,column 2,is_stmt,isa 1
;----------------------------------------------------------------------
; 535 | if( xTicksToWait != ( TickType_t ) 0 )                                 
;----------------------------------------------------------------------
        LDR       A1, [SP, #28]         ; [DPU_V7M3_PIPE] |535| 
        CMP       A1, #0                ; [DPU_V7M3_PIPE] |535| 
        BEQ       ||$C$L51||            ; [DPU_V7M3_PIPE] |535| 
        ; BRANCHCC OCCURS {||$C$L51||}   ; [] |535| 
;* --------------------------------------------------------------------------*
	.dwpsn	file "../OS/stream_buffer.c",line 537,column 3,is_stmt,isa 1
;----------------------------------------------------------------------
; 537 | vTaskSetTimeOutState( &xTimeOut );                                     
; 539 | do                                                                     
;----------------------------------------------------------------------
        ADD       A1, SP, #8            ; [DPU_V7M3_PIPE] |537| 
$C$DW$101	.dwtag  DW_TAG_TI_branch
	.dwattr $C$DW$101, DW_AT_low_pc(0x00)
	.dwattr $C$DW$101, DW_AT_name("vTaskSetTimeOutState")
	.dwattr $C$DW$101, DW_AT_TI_call

        BL        vTaskSetTimeOutState  ; [DPU_V7M3_PIPE] |537| 
        ; CALL OCCURS {vTaskSetTimeOutState }  ; [] |537| 
;* --------------------------------------------------------------------------*
;*   BEGIN LOOP ||$C$L45||
;*
;*   Loop source line                : 539
;*   Loop closing brace source line  : 568
;*   Known Minimum Trip Count        : 1
;*   Known Maximum Trip Count        : 4294967295
;*   Known Max Trip Count Factor     : 1
;* --------------------------------------------------------------------------*
||$C$L45||:    
	.dwpsn	file "../OS/stream_buffer.c",line 543,column 4,is_stmt,isa 1
;----------------------------------------------------------------------
; 543 | taskENTER_CRITICAL();                                                  
;----------------------------------------------------------------------
$C$DW$102	.dwtag  DW_TAG_TI_branch
	.dwattr $C$DW$102, DW_AT_low_pc(0x00)
	.dwattr $C$DW$102, DW_AT_name("vPortEnterCritical")
	.dwattr $C$DW$102, DW_AT_TI_call

        BL        vPortEnterCritical    ; [DPU_V7M3_PIPE] |543| 
        ; CALL OCCURS {vPortEnterCritical }  ; [] |543| 
	.dwpsn	file "../OS/stream_buffer.c",line 545,column 5,is_stmt,isa 1
;----------------------------------------------------------------------
; 545 | xSpace = xStreamBufferSpacesAvailable( pxStreamBuffer );               
;----------------------------------------------------------------------
        LDR       A1, [SP, #32]         ; [DPU_V7M3_PIPE] |545| 
$C$DW$103	.dwtag  DW_TAG_TI_branch
	.dwattr $C$DW$103, DW_AT_low_pc(0x00)
	.dwattr $C$DW$103, DW_AT_name("xStreamBufferSpacesAvailable")
	.dwattr $C$DW$103, DW_AT_TI_call

        BL        xStreamBufferSpacesAvailable ; [DPU_V7M3_PIPE] |545| 
        ; CALL OCCURS {xStreamBufferSpacesAvailable }  ; [] |545| 
        STR       A1, [SP, #40]         ; [DPU_V7M3_PIPE] |545| 
	.dwpsn	file "../OS/stream_buffer.c",line 547,column 5,is_stmt,isa 1
;----------------------------------------------------------------------
; 547 | if( xSpace < xRequiredSpace )                                          
;----------------------------------------------------------------------
        LDR       A1, [SP, #44]         ; [DPU_V7M3_PIPE] |547| 
        LDR       A2, [SP, #40]         ; [DPU_V7M3_PIPE] |547| 
        CMP       A1, A2                ; [DPU_V7M3_PIPE] |547| 
        BLS       ||$C$L49||            ; [DPU_V7M3_PIPE] |547| 
        ; BRANCHCC OCCURS {||$C$L49||}   ; [] |547| 
;* --------------------------------------------------------------------------*
	.dwpsn	file "../OS/stream_buffer.c",line 550,column 6,is_stmt,isa 1
;----------------------------------------------------------------------
; 550 | ( void ) xTaskNotifyStateClear( NULL );                                
;----------------------------------------------------------------------
        MOVS      A1, #0                ; [DPU_V7M3_PIPE] |550| 
$C$DW$104	.dwtag  DW_TAG_TI_branch
	.dwattr $C$DW$104, DW_AT_low_pc(0x00)
	.dwattr $C$DW$104, DW_AT_name("xTaskNotifyStateClear")
	.dwattr $C$DW$104, DW_AT_TI_call

        BL        xTaskNotifyStateClear ; [DPU_V7M3_PIPE] |550| 
        ; CALL OCCURS {xTaskNotifyStateClear }  ; [] |550| 
	.dwpsn	file "../OS/stream_buffer.c",line 553,column 6,is_stmt,isa 1
;----------------------------------------------------------------------
; 553 | configASSERT( pxStreamBuffer->xTaskWaitingToSend == NULL );            
;----------------------------------------------------------------------
        LDR       A1, [SP, #32]         ; [DPU_V7M3_PIPE] |553| 
        LDR       A2, [A1, #20]         ; [DPU_V7M3_PIPE] |553| 
        MOVS      A1, #0                ; [DPU_V7M3_PIPE] |553| 
        CBNZ      A2, ||$C$L46||        ; [] 
        ; BRANCHCC OCCURS {||$C$L46||}   ; [] |553| 
;* --------------------------------------------------------------------------*
        MOVS      A1, #1                ; [DPU_V7M3_PIPE] |553| 
;* --------------------------------------------------------------------------*
||$C$L46||:    
        CBNZ      A1, ||$C$L48||        ; [] 
        ; BRANCHCC OCCURS {||$C$L48||}   ; [] |553| 
;* --------------------------------------------------------------------------*
        MOVS      A1, #160              ; [DPU_V7M3_PIPE] |553| 
        MSR       BASEPRI, A1           ; [DPU_V7M3_PIPE] |553| 
	dsb
	isb
;* --------------------------------------------------------------------------*
;*   BEGIN LOOP ||$C$L47||
;*
;*   Loop source line                : 553
;*   Loop closing brace source line  : 553
;*   Known Minimum Trip Count        : 1
;*   Known Maximum Trip Count        : 4294967295
;*   Known Max Trip Count Factor     : 1
;* --------------------------------------------------------------------------*
||$C$L47||:    
        B         ||$C$L47||            ; [DPU_V7M3_PIPE] |553| 
        ; BRANCH OCCURS {||$C$L47||}     ; [] |553| 
;* --------------------------------------------------------------------------*
||$C$L48||:    
	.dwpsn	file "../OS/stream_buffer.c",line 554,column 6,is_stmt,isa 1
;----------------------------------------------------------------------
; 554 | pxStreamBuffer->xTaskWaitingToSend = xTaskGetCurrentTaskHandle();      
;----------------------------------------------------------------------
$C$DW$105	.dwtag  DW_TAG_TI_branch
	.dwattr $C$DW$105, DW_AT_low_pc(0x00)
	.dwattr $C$DW$105, DW_AT_name("xTaskGetCurrentTaskHandle")
	.dwattr $C$DW$105, DW_AT_TI_call

        BL        xTaskGetCurrentTaskHandle ; [DPU_V7M3_PIPE] |554| 
        ; CALL OCCURS {xTaskGetCurrentTaskHandle }  ; [] |554| 
        LDR       A2, [SP, #32]         ; [DPU_V7M3_PIPE] |554| 
        STR       A1, [A2, #20]         ; [DPU_V7M3_PIPE] |554| 
	.dwpsn	file "../OS/stream_buffer.c",line 555,column 5,is_stmt,isa 1
;----------------------------------------------------------------------
; 556 | else                                                                   
;----------------------------------------------------------------------
        B         ||$C$L50||            ; [DPU_V7M3_PIPE] |555| 
        ; BRANCH OCCURS {||$C$L50||}     ; [] |555| 
;* --------------------------------------------------------------------------*
||$C$L49||:    
	.dwpsn	file "../OS/stream_buffer.c",line 558,column 6,is_stmt,isa 1
;----------------------------------------------------------------------
; 558 | taskEXIT_CRITICAL();                                                   
;----------------------------------------------------------------------
$C$DW$106	.dwtag  DW_TAG_TI_branch
	.dwattr $C$DW$106, DW_AT_low_pc(0x00)
	.dwattr $C$DW$106, DW_AT_name("vPortExitCritical")
	.dwattr $C$DW$106, DW_AT_TI_call

        BL        vPortExitCritical     ; [DPU_V7M3_PIPE] |558| 
        ; CALL OCCURS {vPortExitCritical }  ; [] |558| 
	.dwpsn	file "../OS/stream_buffer.c",line 559,column 6,is_stmt,isa 1
;----------------------------------------------------------------------
; 559 | break;                                                                 
;----------------------------------------------------------------------
        B         ||$C$L51||            ; [DPU_V7M3_PIPE] |559| 
        ; BRANCH OCCURS {||$C$L51||}     ; [] |559| 
;* --------------------------------------------------------------------------*
||$C$L50||:    
	.dwpsn	file "../OS/stream_buffer.c",line 562,column 4,is_stmt,isa 1
;----------------------------------------------------------------------
; 562 | taskEXIT_CRITICAL();                                                   
; 564 | traceBLOCKING_ON_STREAM_BUFFER_SEND( xStreamBuffer );                  
;----------------------------------------------------------------------
$C$DW$107	.dwtag  DW_TAG_TI_branch
	.dwattr $C$DW$107, DW_AT_low_pc(0x00)
	.dwattr $C$DW$107, DW_AT_name("vPortExitCritical")
	.dwattr $C$DW$107, DW_AT_TI_call

        BL        vPortExitCritical     ; [DPU_V7M3_PIPE] |562| 
        ; CALL OCCURS {vPortExitCritical }  ; [] |562| 
	.dwpsn	file "../OS/stream_buffer.c",line 565,column 4,is_stmt,isa 1
;----------------------------------------------------------------------
; 565 | ( void ) xTaskNotifyWait( ( uint32_t ) 0, ( uint32_t ) 0, NULL, xTicksT
;     | oWait );                                                               
;----------------------------------------------------------------------
        LDR       A4, [SP, #28]         ; [DPU_V7M3_PIPE] |565| 
        MOVS      A1, #0                ; [DPU_V7M3_PIPE] |565| 
        MOVS      A2, #0                ; [DPU_V7M3_PIPE] |565| 
        MOVS      A3, #0                ; [DPU_V7M3_PIPE] |565| 
$C$DW$108	.dwtag  DW_TAG_TI_branch
	.dwattr $C$DW$108, DW_AT_low_pc(0x00)
	.dwattr $C$DW$108, DW_AT_name("xTaskNotifyWait")
	.dwattr $C$DW$108, DW_AT_TI_call

        BL        xTaskNotifyWait       ; [DPU_V7M3_PIPE] |565| 
        ; CALL OCCURS {xTaskNotifyWait }  ; [] |565| 
	.dwpsn	file "../OS/stream_buffer.c",line 566,column 4,is_stmt,isa 1
;----------------------------------------------------------------------
; 566 | pxStreamBuffer->xTaskWaitingToSend = NULL;                             
;----------------------------------------------------------------------
        LDR       A1, [SP, #32]         ; [DPU_V7M3_PIPE] |566| 
        MOVS      A2, #0                ; [DPU_V7M3_PIPE] |566| 
        STR       A2, [A1, #20]         ; [DPU_V7M3_PIPE] |566| 
	.dwpsn	file "../OS/stream_buffer.c",line 568,column 12,is_stmt,isa 1
;----------------------------------------------------------------------
; 568 | } while( xTaskCheckForTimeOut( &xTimeOut, &xTicksToWait ) == pdFALSE );
;----------------------------------------------------------------------
        ADD       A2, SP, #28           ; [DPU_V7M3_PIPE] |568| 
        ADD       A1, SP, #8            ; [DPU_V7M3_PIPE] |568| 
$C$DW$109	.dwtag  DW_TAG_TI_branch
	.dwattr $C$DW$109, DW_AT_low_pc(0x00)
	.dwattr $C$DW$109, DW_AT_name("xTaskCheckForTimeOut")
	.dwattr $C$DW$109, DW_AT_TI_call

        BL        xTaskCheckForTimeOut  ; [DPU_V7M3_PIPE] |568| 
        ; CALL OCCURS {xTaskCheckForTimeOut }  ; [] |568| 
        CMP       A1, #0                ; [DPU_V7M3_PIPE] |568| 
        BEQ       ||$C$L45||            ; [DPU_V7M3_PIPE] |568| 
        ; BRANCHCC OCCURS {||$C$L45||}   ; [] |568| 
;* --------------------------------------------------------------------------*
	.dwpsn	file "../OS/stream_buffer.c",line 569,column 2,is_stmt,isa 1
;----------------------------------------------------------------------
; 570 | else                                                                   
; 572 |         mtCOVERAGE_TEST_MARKER();                                      
;----------------------------------------------------------------------
;* --------------------------------------------------------------------------*
||$C$L51||:    
	.dwpsn	file "../OS/stream_buffer.c",line 575,column 2,is_stmt,isa 1
;----------------------------------------------------------------------
; 575 | if( xSpace == ( size_t ) 0 )                                           
;----------------------------------------------------------------------
        LDR       A1, [SP, #40]         ; [DPU_V7M3_PIPE] |575| 
        CBNZ      A1, ||$C$L52||        ; [] 
        ; BRANCHCC OCCURS {||$C$L52||}   ; [] |575| 
;* --------------------------------------------------------------------------*
	.dwpsn	file "../OS/stream_buffer.c",line 577,column 3,is_stmt,isa 1
;----------------------------------------------------------------------
; 577 | xSpace = xStreamBufferSpacesAvailable( pxStreamBuffer );               
;----------------------------------------------------------------------
        LDR       A1, [SP, #32]         ; [DPU_V7M3_PIPE] |577| 
$C$DW$110	.dwtag  DW_TAG_TI_branch
	.dwattr $C$DW$110, DW_AT_low_pc(0x00)
	.dwattr $C$DW$110, DW_AT_name("xStreamBufferSpacesAvailable")
	.dwattr $C$DW$110, DW_AT_TI_call

        BL        xStreamBufferSpacesAvailable ; [DPU_V7M3_PIPE] |577| 
        ; CALL OCCURS {xStreamBufferSpacesAvailable }  ; [] |577| 
        STR       A1, [SP, #40]         ; [DPU_V7M3_PIPE] |577| 
	.dwpsn	file "../OS/stream_buffer.c",line 578,column 2,is_stmt,isa 1
;----------------------------------------------------------------------
; 579 | else                                                                   
; 581 |         mtCOVERAGE_TEST_MARKER();                                      
;----------------------------------------------------------------------
;* --------------------------------------------------------------------------*
||$C$L52||:    
	.dwpsn	file "../OS/stream_buffer.c",line 584,column 2,is_stmt,isa 1
;----------------------------------------------------------------------
; 584 | xReturn = prvWriteMessageToBuffer( pxStreamBuffer, pvTxData, xDataLengt
;     | hBytes, xSpace, xRequiredSpace );                                      
;----------------------------------------------------------------------
        LDR       A1, [SP, #44]         ; [DPU_V7M3_PIPE] |584| 
        STR       A1, [SP, #0]          ; [DPU_V7M3_PIPE] |584| 
        LDR       A4, [SP, #40]         ; [DPU_V7M3_PIPE] |584| 
        LDR       A2, [SP, #20]         ; [DPU_V7M3_PIPE] |584| 
        LDR       A3, [SP, #24]         ; [DPU_V7M3_PIPE] |584| 
        LDR       A1, [SP, #32]         ; [DPU_V7M3_PIPE] |584| 
$C$DW$111	.dwtag  DW_TAG_TI_branch
	.dwattr $C$DW$111, DW_AT_low_pc(0x00)
	.dwattr $C$DW$111, DW_AT_name("prvWriteMessageToBuffer")
	.dwattr $C$DW$111, DW_AT_TI_call

        BL        prvWriteMessageToBuffer ; [DPU_V7M3_PIPE] |584| 
        ; CALL OCCURS {prvWriteMessageToBuffer }  ; [] |584| 
        STR       A1, [SP, #36]         ; [DPU_V7M3_PIPE] |584| 
	.dwpsn	file "../OS/stream_buffer.c",line 586,column 2,is_stmt,isa 1
;----------------------------------------------------------------------
; 586 | if( xReturn > ( size_t ) 0 )                                           
; 588 |         traceSTREAM_BUFFER_SEND( xStreamBuffer, xReturn );             
;----------------------------------------------------------------------
        LDR       A1, [SP, #36]         ; [DPU_V7M3_PIPE] |586| 
        CBZ       A1, ||$C$L54||        ; [] 
        ; BRANCHCC OCCURS {||$C$L54||}   ; [] |586| 
;* --------------------------------------------------------------------------*
	.dwpsn	file "../OS/stream_buffer.c",line 591,column 3,is_stmt,isa 1
;----------------------------------------------------------------------
; 591 | if( prvBytesInBuffer( pxStreamBuffer ) >= pxStreamBuffer->xTriggerLevel
;     | Bytes )                                                                
;----------------------------------------------------------------------
        LDR       A1, [SP, #32]         ; [DPU_V7M3_PIPE] |591| 
$C$DW$112	.dwtag  DW_TAG_TI_branch
	.dwattr $C$DW$112, DW_AT_low_pc(0x00)
	.dwattr $C$DW$112, DW_AT_name("prvBytesInBuffer")
	.dwattr $C$DW$112, DW_AT_TI_call

        BL        prvBytesInBuffer      ; [DPU_V7M3_PIPE] |591| 
        ; CALL OCCURS {prvBytesInBuffer }  ; [] |591| 
        LDR       A2, [SP, #32]         ; [DPU_V7M3_PIPE] |591| 
        LDR       A2, [A2, #12]         ; [DPU_V7M3_PIPE] |591| 
        CMP       A2, A1                ; [DPU_V7M3_PIPE] |591| 
        BHI       ||$C$L54||            ; [DPU_V7M3_PIPE] |591| 
        ; BRANCHCC OCCURS {||$C$L54||}   ; [] |591| 
;* --------------------------------------------------------------------------*
	.dwpsn	file "../OS/stream_buffer.c",line 593,column 4,is_stmt,isa 1
;----------------------------------------------------------------------
; 593 | sbSEND_COMPLETED( pxStreamBuffer );                                    
;----------------------------------------------------------------------
$C$DW$113	.dwtag  DW_TAG_TI_branch
	.dwattr $C$DW$113, DW_AT_low_pc(0x00)
	.dwattr $C$DW$113, DW_AT_name("vTaskSuspendAll")
	.dwattr $C$DW$113, DW_AT_TI_call

        BL        vTaskSuspendAll       ; [DPU_V7M3_PIPE] |593| 
        ; CALL OCCURS {vTaskSuspendAll }  ; [] |593| 
        LDR       A1, [SP, #32]         ; [DPU_V7M3_PIPE] |593| 
        LDR       A1, [A1, #16]         ; [DPU_V7M3_PIPE] |593| 
        CBZ       A1, ||$C$L53||        ; [] 
        ; BRANCHCC OCCURS {||$C$L53||}   ; [] |593| 
;* --------------------------------------------------------------------------*
        LDR       A1, [SP, #32]         ; [DPU_V7M3_PIPE] |593| 
        LDR       A1, [A1, #16]         ; [DPU_V7M3_PIPE] |593| 
        MOVS      A2, #0                ; [DPU_V7M3_PIPE] |593| 
        MOVS      A3, #0                ; [DPU_V7M3_PIPE] |593| 
        MOVS      A4, #0                ; [DPU_V7M3_PIPE] |593| 
$C$DW$114	.dwtag  DW_TAG_TI_branch
	.dwattr $C$DW$114, DW_AT_low_pc(0x00)
	.dwattr $C$DW$114, DW_AT_name("xTaskGenericNotify")
	.dwattr $C$DW$114, DW_AT_TI_call

        BL        xTaskGenericNotify    ; [DPU_V7M3_PIPE] |593| 
        ; CALL OCCURS {xTaskGenericNotify }  ; [] |593| 
        LDR       A1, [SP, #32]         ; [DPU_V7M3_PIPE] |593| 
        MOVS      A2, #0                ; [DPU_V7M3_PIPE] |593| 
        STR       A2, [A1, #16]         ; [DPU_V7M3_PIPE] |593| 
;* --------------------------------------------------------------------------*
||$C$L53||:    
$C$DW$115	.dwtag  DW_TAG_TI_branch
	.dwattr $C$DW$115, DW_AT_low_pc(0x00)
	.dwattr $C$DW$115, DW_AT_name("xTaskResumeAll")
	.dwattr $C$DW$115, DW_AT_TI_call

        BL        xTaskResumeAll        ; [DPU_V7M3_PIPE] |593| 
        ; CALL OCCURS {xTaskResumeAll }  ; [] |593| 
	.dwpsn	file "../OS/stream_buffer.c",line 594,column 3,is_stmt,isa 1
;----------------------------------------------------------------------
; 595 | else                                                                   
; 597 |         mtCOVERAGE_TEST_MARKER();                                      
; 600 | else                                                                   
; 602 | mtCOVERAGE_TEST_MARKER();                                              
; 603 | traceSTREAM_BUFFER_SEND_FAILED( xStreamBuffer );                       
;----------------------------------------------------------------------
        B         ||$C$L54||            ; [DPU_V7M3_PIPE] |594| 
        ; BRANCH OCCURS {||$C$L54||}     ; [] |594| 
;* --------------------------------------------------------------------------*
;* --------------------------------------------------------------------------*
||$C$L54||:    
	.dwpsn	file "../OS/stream_buffer.c",line 606,column 2,is_stmt,isa 1
;----------------------------------------------------------------------
; 606 | return xReturn;                                                        
;----------------------------------------------------------------------
        LDR       A1, [SP, #36]         ; [DPU_V7M3_PIPE] |606| 
	.dwpsn	file "../OS/stream_buffer.c",line 607,column 1,is_stmt,isa 1
        ADD       SP, SP, #52           ; [DPU_V7M3_PIPE] 
	.dwcfi	cfa_offset, 4
$C$DW$116	.dwtag  DW_TAG_TI_branch
	.dwattr $C$DW$116, DW_AT_low_pc(0x00)
	.dwattr $C$DW$116, DW_AT_TI_return

        POP       {PC}                  ; [DPU_V7M3_PIPE] 
	.dwcfi	cfa_offset, 0
        ; BRANCH OCCURS                  ; [] 
	.dwattr $C$DW$87, DW_AT_TI_end_file("../OS/stream_buffer.c")
	.dwattr $C$DW$87, DW_AT_TI_end_line(0x25f)
	.dwattr $C$DW$87, DW_AT_TI_end_column(0x01)
	.dwendentry
	.dwendtag $C$DW$87

	.sect	".text"
	.clink
	.thumbfunc xStreamBufferSendFromISR
	.thumb
	.global	xStreamBufferSendFromISR

$C$DW$117	.dwtag  DW_TAG_subprogram
	.dwattr $C$DW$117, DW_AT_name("xStreamBufferSendFromISR")
	.dwattr $C$DW$117, DW_AT_low_pc(xStreamBufferSendFromISR)
	.dwattr $C$DW$117, DW_AT_high_pc(0x00)
	.dwattr $C$DW$117, DW_AT_TI_symbol_name("xStreamBufferSendFromISR")
	.dwattr $C$DW$117, DW_AT_external
	.dwattr $C$DW$117, DW_AT_type(*$C$DW$T$31)
	.dwattr $C$DW$117, DW_AT_TI_begin_file("../OS/stream_buffer.c")
	.dwattr $C$DW$117, DW_AT_TI_begin_line(0x262)
	.dwattr $C$DW$117, DW_AT_TI_begin_column(0x08)
	.dwattr $C$DW$117, DW_AT_decl_file("../OS/stream_buffer.c")
	.dwattr $C$DW$117, DW_AT_decl_line(0x262)
	.dwattr $C$DW$117, DW_AT_decl_column(0x08)
	.dwattr $C$DW$117, DW_AT_TI_max_frame_size(0x30)
	.dwpsn	file "../OS/stream_buffer.c",line 614,column 1,is_stmt,address xStreamBufferSendFromISR,isa 1

	.dwfde $C$DW$CIE, xStreamBufferSendFromISR
$C$DW$118	.dwtag  DW_TAG_formal_parameter
	.dwattr $C$DW$118, DW_AT_name("xStreamBuffer")
	.dwattr $C$DW$118, DW_AT_TI_symbol_name("xStreamBuffer")
	.dwattr $C$DW$118, DW_AT_type(*$C$DW$T$108)
	.dwattr $C$DW$118, DW_AT_location[DW_OP_reg0]

$C$DW$119	.dwtag  DW_TAG_formal_parameter
	.dwattr $C$DW$119, DW_AT_name("pvTxData")
	.dwattr $C$DW$119, DW_AT_TI_symbol_name("pvTxData")
	.dwattr $C$DW$119, DW_AT_type(*$C$DW$T$117)
	.dwattr $C$DW$119, DW_AT_location[DW_OP_reg1]

$C$DW$120	.dwtag  DW_TAG_formal_parameter
	.dwattr $C$DW$120, DW_AT_name("xDataLengthBytes")
	.dwattr $C$DW$120, DW_AT_TI_symbol_name("xDataLengthBytes")
	.dwattr $C$DW$120, DW_AT_type(*$C$DW$T$31)
	.dwattr $C$DW$120, DW_AT_location[DW_OP_reg2]

$C$DW$121	.dwtag  DW_TAG_formal_parameter
	.dwattr $C$DW$121, DW_AT_name("pxHigherPriorityTaskWoken")
	.dwattr $C$DW$121, DW_AT_TI_symbol_name("pxHigherPriorityTaskWoken")
	.dwattr $C$DW$121, DW_AT_type(*$C$DW$T$218)
	.dwattr $C$DW$121, DW_AT_location[DW_OP_reg3]

;----------------------------------------------------------------------
; 610 | size_t xStreamBufferSendFromISR( StreamBufferHandle_t xStreamBuffer,   
; 611 | const void *pvTxData,                                                  
; 612 | size_t xDataLengthBytes,                                               
; 613 | BaseType_t * const pxHigherPriorityTaskWoken )                         
;----------------------------------------------------------------------

;*****************************************************************************
;* FUNCTION NAME: xStreamBufferSendFromISR                                   *
;*                                                                           *
;*   Regs Modified     : A1,A2,A3,A4,V9,SP,LR,SR,D0,D0_hi,D1,D1_hi,D2,D2_hi, *
;*                           D3,D3_hi,D4,D4_hi,D5,D5_hi,D6,D6_hi,D7,D7_hi,   *
;*                           FPEXC,FPSCR                                     *
;*   Regs Used         : A1,A2,A3,A4,V9,SP,LR,SR,D0,D0_hi,D1,D1_hi,D2,D2_hi, *
;*                           D3,D3_hi,D4,D4_hi,D5,D5_hi,D6,D6_hi,D7,D7_hi,   *
;*                           FPEXC,FPSCR                                     *
;*   Local Frame Size  : 4 Args + 36 Auto + 4 Save = 44 byte                 *
;*****************************************************************************
xStreamBufferSendFromISR:
;* --------------------------------------------------------------------------*
	.dwcfi	cfa_offset, 0
        PUSH      {LR}                  ; [DPU_V7M3_PIPE] 
	.dwcfi	cfa_offset, 4
	.dwcfi	save_reg_to_mem, 14, -4
        SUB       SP, SP, #44           ; [DPU_V7M3_PIPE] 
	.dwcfi	cfa_offset, 48
$C$DW$122	.dwtag  DW_TAG_variable
	.dwattr $C$DW$122, DW_AT_name("xStreamBuffer")
	.dwattr $C$DW$122, DW_AT_TI_symbol_name("xStreamBuffer")
	.dwattr $C$DW$122, DW_AT_type(*$C$DW$T$108)
	.dwattr $C$DW$122, DW_AT_location[DW_OP_breg13 4]

$C$DW$123	.dwtag  DW_TAG_variable
	.dwattr $C$DW$123, DW_AT_name("pvTxData")
	.dwattr $C$DW$123, DW_AT_TI_symbol_name("pvTxData")
	.dwattr $C$DW$123, DW_AT_type(*$C$DW$T$117)
	.dwattr $C$DW$123, DW_AT_location[DW_OP_breg13 8]

$C$DW$124	.dwtag  DW_TAG_variable
	.dwattr $C$DW$124, DW_AT_name("xDataLengthBytes")
	.dwattr $C$DW$124, DW_AT_TI_symbol_name("xDataLengthBytes")
	.dwattr $C$DW$124, DW_AT_type(*$C$DW$T$31)
	.dwattr $C$DW$124, DW_AT_location[DW_OP_breg13 12]

$C$DW$125	.dwtag  DW_TAG_variable
	.dwattr $C$DW$125, DW_AT_name("pxHigherPriorityTaskWoken")
	.dwattr $C$DW$125, DW_AT_TI_symbol_name("pxHigherPriorityTaskWoken")
	.dwattr $C$DW$125, DW_AT_type(*$C$DW$T$218)
	.dwattr $C$DW$125, DW_AT_location[DW_OP_breg13 16]

$C$DW$126	.dwtag  DW_TAG_variable
	.dwattr $C$DW$126, DW_AT_name("pxStreamBuffer")
	.dwattr $C$DW$126, DW_AT_TI_symbol_name("pxStreamBuffer")
	.dwattr $C$DW$126, DW_AT_type(*$C$DW$T$106)
	.dwattr $C$DW$126, DW_AT_location[DW_OP_breg13 20]

$C$DW$127	.dwtag  DW_TAG_variable
	.dwattr $C$DW$127, DW_AT_name("xReturn")
	.dwattr $C$DW$127, DW_AT_TI_symbol_name("xReturn")
	.dwattr $C$DW$127, DW_AT_type(*$C$DW$T$31)
	.dwattr $C$DW$127, DW_AT_location[DW_OP_breg13 24]

$C$DW$128	.dwtag  DW_TAG_variable
	.dwattr $C$DW$128, DW_AT_name("xSpace")
	.dwattr $C$DW$128, DW_AT_TI_symbol_name("xSpace")
	.dwattr $C$DW$128, DW_AT_type(*$C$DW$T$31)
	.dwattr $C$DW$128, DW_AT_location[DW_OP_breg13 28]

$C$DW$129	.dwtag  DW_TAG_variable
	.dwattr $C$DW$129, DW_AT_name("xRequiredSpace")
	.dwattr $C$DW$129, DW_AT_TI_symbol_name("xRequiredSpace")
	.dwattr $C$DW$129, DW_AT_type(*$C$DW$T$31)
	.dwattr $C$DW$129, DW_AT_location[DW_OP_breg13 32]

        STR       A4, [SP, #16]         ; [DPU_V7M3_PIPE] |614| 
        STR       A3, [SP, #12]         ; [DPU_V7M3_PIPE] |614| 
        STR       A2, [SP, #8]          ; [DPU_V7M3_PIPE] |614| 
        STR       A1, [SP, #4]          ; [DPU_V7M3_PIPE] |614| 
	.dwpsn	file "../OS/stream_buffer.c",line 615,column 39,is_stmt,isa 1
;----------------------------------------------------------------------
; 615 | StreamBuffer_t * const pxStreamBuffer = xStreamBuffer;                 
; 616 | size_t xReturn, xSpace;                                                
;----------------------------------------------------------------------
        LDR       A1, [SP, #4]          ; [DPU_V7M3_PIPE] |615| 
        STR       A1, [SP, #20]         ; [DPU_V7M3_PIPE] |615| 
	.dwpsn	file "../OS/stream_buffer.c",line 617,column 23,is_stmt,isa 1
;----------------------------------------------------------------------
; 617 | size_t xRequiredSpace = xDataLengthBytes;                              
;----------------------------------------------------------------------
        LDR       A1, [SP, #12]         ; [DPU_V7M3_PIPE] |617| 
        STR       A1, [SP, #32]         ; [DPU_V7M3_PIPE] |617| 
	.dwpsn	file "../OS/stream_buffer.c",line 619,column 2,is_stmt,isa 1
;----------------------------------------------------------------------
; 619 | configASSERT( pvTxData );                                              
;----------------------------------------------------------------------
        LDR       A1, [SP, #8]          ; [DPU_V7M3_PIPE] |619| 
        CBNZ      A1, ||$C$L56||        ; [] 
        ; BRANCHCC OCCURS {||$C$L56||}   ; [] |619| 
;* --------------------------------------------------------------------------*
        MOVS      A1, #160              ; [DPU_V7M3_PIPE] |619| 
        MSR       BASEPRI, A1           ; [DPU_V7M3_PIPE] |619| 
	dsb
	isb
;* --------------------------------------------------------------------------*
;*   BEGIN LOOP ||$C$L55||
;*
;*   Loop source line                : 619
;*   Loop closing brace source line  : 619
;*   Known Minimum Trip Count        : 1
;*   Known Maximum Trip Count        : 4294967295
;*   Known Max Trip Count Factor     : 1
;* --------------------------------------------------------------------------*
||$C$L55||:    
        B         ||$C$L55||            ; [DPU_V7M3_PIPE] |619| 
        ; BRANCH OCCURS {||$C$L55||}     ; [] |619| 
;* --------------------------------------------------------------------------*
||$C$L56||:    
	.dwpsn	file "../OS/stream_buffer.c",line 620,column 2,is_stmt,isa 1
;----------------------------------------------------------------------
; 620 | configASSERT( pxStreamBuffer );                                        
;----------------------------------------------------------------------
        LDR       A1, [SP, #20]         ; [DPU_V7M3_PIPE] |620| 
        CBNZ      A1, ||$C$L58||        ; [] 
        ; BRANCHCC OCCURS {||$C$L58||}   ; [] |620| 
;* --------------------------------------------------------------------------*
        MOVS      A1, #160              ; [DPU_V7M3_PIPE] |620| 
        MSR       BASEPRI, A1           ; [DPU_V7M3_PIPE] |620| 
	dsb
	isb
;* --------------------------------------------------------------------------*
;*   BEGIN LOOP ||$C$L57||
;*
;*   Loop source line                : 620
;*   Loop closing brace source line  : 620
;*   Known Minimum Trip Count        : 1
;*   Known Maximum Trip Count        : 4294967295
;*   Known Max Trip Count Factor     : 1
;* --------------------------------------------------------------------------*
||$C$L57||:    
        B         ||$C$L57||            ; [DPU_V7M3_PIPE] |620| 
        ; BRANCH OCCURS {||$C$L57||}     ; [] |620| 
;* --------------------------------------------------------------------------*
||$C$L58||:    
	.dwpsn	file "../OS/stream_buffer.c",line 626,column 2,is_stmt,isa 1
;----------------------------------------------------------------------
; 626 | if( ( pxStreamBuffer->ucFlags & sbFLAGS_IS_MESSAGE_BUFFER ) != ( uint8_
;     | t ) 0 )                                                                
;----------------------------------------------------------------------
        LDR       A1, [SP, #20]         ; [DPU_V7M3_PIPE] |626| 
        LDRB      A1, [A1, #28]         ; [DPU_V7M3_PIPE] |626| 
        LSRS      A1, A1, #1            ; [DPU_V7M3_PIPE] |626| 
        BCC       ||$C$L59||            ; [DPU_V7M3_PIPE] |626| 
        ; BRANCHCC OCCURS {||$C$L59||}   ; [] |626| 
;* --------------------------------------------------------------------------*
	.dwpsn	file "../OS/stream_buffer.c",line 628,column 3,is_stmt,isa 1
;----------------------------------------------------------------------
; 628 | xRequiredSpace += sbBYTES_TO_STORE_MESSAGE_LENGTH;                     
;----------------------------------------------------------------------
        LDR       A1, [SP, #32]         ; [DPU_V7M3_PIPE] |628| 
        ADDS      A1, A1, #4            ; [DPU_V7M3_PIPE] |628| 
        STR       A1, [SP, #32]         ; [DPU_V7M3_PIPE] |628| 
	.dwpsn	file "../OS/stream_buffer.c",line 629,column 2,is_stmt,isa 1
;----------------------------------------------------------------------
; 630 | else                                                                   
; 632 |         mtCOVERAGE_TEST_MARKER();                                      
;----------------------------------------------------------------------
;* --------------------------------------------------------------------------*
||$C$L59||:    
	.dwpsn	file "../OS/stream_buffer.c",line 635,column 2,is_stmt,isa 1
;----------------------------------------------------------------------
; 635 | xSpace = xStreamBufferSpacesAvailable( pxStreamBuffer );               
;----------------------------------------------------------------------
        LDR       A1, [SP, #20]         ; [DPU_V7M3_PIPE] |635| 
$C$DW$130	.dwtag  DW_TAG_TI_branch
	.dwattr $C$DW$130, DW_AT_low_pc(0x00)
	.dwattr $C$DW$130, DW_AT_name("xStreamBufferSpacesAvailable")
	.dwattr $C$DW$130, DW_AT_TI_call

        BL        xStreamBufferSpacesAvailable ; [DPU_V7M3_PIPE] |635| 
        ; CALL OCCURS {xStreamBufferSpacesAvailable }  ; [] |635| 
        STR       A1, [SP, #28]         ; [DPU_V7M3_PIPE] |635| 
	.dwpsn	file "../OS/stream_buffer.c",line 636,column 2,is_stmt,isa 1
;----------------------------------------------------------------------
; 636 | xReturn = prvWriteMessageToBuffer( pxStreamBuffer, pvTxData, xDataLengt
;     | hBytes, xSpace, xRequiredSpace );                                      
;----------------------------------------------------------------------
        LDR       A1, [SP, #32]         ; [DPU_V7M3_PIPE] |636| 
        STR       A1, [SP, #0]          ; [DPU_V7M3_PIPE] |636| 
        LDR       A3, [SP, #12]         ; [DPU_V7M3_PIPE] |636| 
        LDR       A2, [SP, #8]          ; [DPU_V7M3_PIPE] |636| 
        LDR       A4, [SP, #28]         ; [DPU_V7M3_PIPE] |636| 
        LDR       A1, [SP, #20]         ; [DPU_V7M3_PIPE] |636| 
$C$DW$131	.dwtag  DW_TAG_TI_branch
	.dwattr $C$DW$131, DW_AT_low_pc(0x00)
	.dwattr $C$DW$131, DW_AT_name("prvWriteMessageToBuffer")
	.dwattr $C$DW$131, DW_AT_TI_call

        BL        prvWriteMessageToBuffer ; [DPU_V7M3_PIPE] |636| 
        ; CALL OCCURS {prvWriteMessageToBuffer }  ; [] |636| 
        STR       A1, [SP, #24]         ; [DPU_V7M3_PIPE] |636| 
	.dwpsn	file "../OS/stream_buffer.c",line 638,column 2,is_stmt,isa 1
;----------------------------------------------------------------------
; 638 | if( xReturn > ( size_t ) 0 )                                           
;----------------------------------------------------------------------
        LDR       A1, [SP, #24]         ; [DPU_V7M3_PIPE] |638| 
        CBZ       A1, ||$C$L61||        ; [] 
        ; BRANCHCC OCCURS {||$C$L61||}   ; [] |638| 
;* --------------------------------------------------------------------------*

$C$DW$132	.dwtag  DW_TAG_lexical_block
	.dwattr $C$DW$132, DW_AT_low_pc(0x00)
	.dwattr $C$DW$132, DW_AT_high_pc(0x00)
	.dwpsn	file "../OS/stream_buffer.c",line 641,column 3,is_stmt,isa 1
;----------------------------------------------------------------------
; 641 | if( prvBytesInBuffer( pxStreamBuffer ) >= pxStreamBuffer->xTriggerLevel
;     | Bytes )                                                                
;----------------------------------------------------------------------
        LDR       A1, [SP, #20]         ; [DPU_V7M3_PIPE] |641| 
$C$DW$133	.dwtag  DW_TAG_TI_branch
	.dwattr $C$DW$133, DW_AT_low_pc(0x00)
	.dwattr $C$DW$133, DW_AT_name("prvBytesInBuffer")
	.dwattr $C$DW$133, DW_AT_TI_call

        BL        prvBytesInBuffer      ; [DPU_V7M3_PIPE] |641| 
        ; CALL OCCURS {prvBytesInBuffer }  ; [] |641| 
        LDR       A2, [SP, #20]         ; [DPU_V7M3_PIPE] |641| 
        LDR       A2, [A2, #12]         ; [DPU_V7M3_PIPE] |641| 
        CMP       A2, A1                ; [DPU_V7M3_PIPE] |641| 
        BHI       ||$C$L61||            ; [DPU_V7M3_PIPE] |641| 
        ; BRANCHCC OCCURS {||$C$L61||}   ; [] |641| 
;* --------------------------------------------------------------------------*

$C$DW$134	.dwtag  DW_TAG_lexical_block
	.dwattr $C$DW$134, DW_AT_low_pc(0x00)
	.dwattr $C$DW$134, DW_AT_high_pc(0x00)

$C$DW$135	.dwtag  DW_TAG_lexical_block
	.dwattr $C$DW$135, DW_AT_low_pc(0x00)
	.dwattr $C$DW$135, DW_AT_high_pc(0x00)
$C$DW$136	.dwtag  DW_TAG_variable
	.dwattr $C$DW$136, DW_AT_name("uxSavedInterruptStatus")
	.dwattr $C$DW$136, DW_AT_TI_symbol_name("uxSavedInterruptStatus")
	.dwattr $C$DW$136, DW_AT_type(*$C$DW$T$26)
	.dwattr $C$DW$136, DW_AT_location[DW_OP_breg13 36]

	.dwpsn	file "../OS/stream_buffer.c",line 643,column 4,is_stmt,isa 1
;----------------------------------------------------------------------
; 643 | sbSEND_COMPLETE_FROM_ISR( pxStreamBuffer, pxHigherPriorityTaskWoken ); 
;----------------------------------------------------------------------
        MOVS      A1, #160              ; [DPU_V7M3_PIPE] |643| 
        MRS       A2, BASEPRI           ; [DPU_V7M3_PIPE] |643| 
        MSR       BASEPRI, A1           ; [DPU_V7M3_PIPE] |643| 
        STR       A2, [SP, #36]         ; [DPU_V7M3_PIPE] |643| 
	dsb
	isb
        LDR       A1, [SP, #20]         ; [DPU_V7M3_PIPE] |643| 
        LDR       A1, [A1, #16]         ; [DPU_V7M3_PIPE] |643| 
        CBZ       A1, ||$C$L60||        ; [] 
        ; BRANCHCC OCCURS {||$C$L60||}   ; [] |643| 
;* --------------------------------------------------------------------------*
        LDR       A1, [SP, #16]         ; [DPU_V7M3_PIPE] |643| 
        STR       A1, [SP, #0]          ; [DPU_V7M3_PIPE] |643| 
        LDR       A1, [SP, #20]         ; [DPU_V7M3_PIPE] |643| 
        LDR       A1, [A1, #16]         ; [DPU_V7M3_PIPE] |643| 
        MOVS      A2, #0                ; [DPU_V7M3_PIPE] |643| 
        MOVS      A3, #0                ; [DPU_V7M3_PIPE] |643| 
        MOVS      A4, #0                ; [DPU_V7M3_PIPE] |643| 
$C$DW$137	.dwtag  DW_TAG_TI_branch
	.dwattr $C$DW$137, DW_AT_low_pc(0x00)
	.dwattr $C$DW$137, DW_AT_name("xTaskGenericNotifyFromISR")
	.dwattr $C$DW$137, DW_AT_TI_call

        BL        xTaskGenericNotifyFromISR ; [DPU_V7M3_PIPE] |643| 
        ; CALL OCCURS {xTaskGenericNotifyFromISR }  ; [] |643| 
        LDR       A1, [SP, #20]         ; [DPU_V7M3_PIPE] |643| 
        MOVS      A2, #0                ; [DPU_V7M3_PIPE] |643| 
        STR       A2, [A1, #16]         ; [DPU_V7M3_PIPE] |643| 
;* --------------------------------------------------------------------------*
||$C$L60||:    
        LDR       A1, [SP, #36]         ; [DPU_V7M3_PIPE] |643| 
        MSR       BASEPRI, A1           ; [DPU_V7M3_PIPE] |643| 
	.dwendtag $C$DW$135

	.dwendtag $C$DW$134

	.dwpsn	file "../OS/stream_buffer.c",line 644,column 3,is_stmt,isa 1
;----------------------------------------------------------------------
; 645 | else                                                                   
; 647 |         mtCOVERAGE_TEST_MARKER();                                      
; 650 | else                                                                   
; 652 | mtCOVERAGE_TEST_MARKER();                                              
; 655 | traceSTREAM_BUFFER_SEND_FROM_ISR( xStreamBuffer, xReturn );            
;----------------------------------------------------------------------
        B         ||$C$L61||            ; [DPU_V7M3_PIPE] |644| 
        ; BRANCH OCCURS {||$C$L61||}     ; [] |644| 
;* --------------------------------------------------------------------------*
	.dwendtag $C$DW$132

;* --------------------------------------------------------------------------*
||$C$L61||:    
	.dwpsn	file "../OS/stream_buffer.c",line 657,column 2,is_stmt,isa 1
;----------------------------------------------------------------------
; 657 | return xReturn;                                                        
;----------------------------------------------------------------------
        LDR       A1, [SP, #24]         ; [DPU_V7M3_PIPE] |657| 
	.dwpsn	file "../OS/stream_buffer.c",line 658,column 1,is_stmt,isa 1
        ADD       SP, SP, #44           ; [DPU_V7M3_PIPE] 
	.dwcfi	cfa_offset, 4
$C$DW$138	.dwtag  DW_TAG_TI_branch
	.dwattr $C$DW$138, DW_AT_low_pc(0x00)
	.dwattr $C$DW$138, DW_AT_TI_return

        POP       {PC}                  ; [DPU_V7M3_PIPE] 
	.dwcfi	cfa_offset, 0
        ; BRANCH OCCURS                  ; [] 
	.dwattr $C$DW$117, DW_AT_TI_end_file("../OS/stream_buffer.c")
	.dwattr $C$DW$117, DW_AT_TI_end_line(0x292)
	.dwattr $C$DW$117, DW_AT_TI_end_column(0x01)
	.dwendentry
	.dwendtag $C$DW$117

	.sect	".text"
	.clink
	.thumbfunc prvWriteMessageToBuffer
	.thumb

$C$DW$139	.dwtag  DW_TAG_subprogram
	.dwattr $C$DW$139, DW_AT_name("prvWriteMessageToBuffer")
	.dwattr $C$DW$139, DW_AT_low_pc(prvWriteMessageToBuffer)
	.dwattr $C$DW$139, DW_AT_high_pc(0x00)
	.dwattr $C$DW$139, DW_AT_TI_symbol_name("prvWriteMessageToBuffer")
	.dwattr $C$DW$139, DW_AT_type(*$C$DW$T$31)
	.dwattr $C$DW$139, DW_AT_TI_begin_file("../OS/stream_buffer.c")
	.dwattr $C$DW$139, DW_AT_TI_begin_line(0x295)
	.dwattr $C$DW$139, DW_AT_TI_begin_column(0x0f)
	.dwattr $C$DW$139, DW_AT_decl_file("../OS/stream_buffer.c")
	.dwattr $C$DW$139, DW_AT_decl_line(0x295)
	.dwattr $C$DW$139, DW_AT_decl_column(0x0f)
	.dwattr $C$DW$139, DW_AT_TI_max_frame_size(0x20)
	.dwpsn	file "../OS/stream_buffer.c",line 666,column 1,is_stmt,address prvWriteMessageToBuffer,isa 1

	.dwfde $C$DW$CIE, prvWriteMessageToBuffer
$C$DW$140	.dwtag  DW_TAG_formal_parameter
	.dwattr $C$DW$140, DW_AT_name("pxStreamBuffer")
	.dwattr $C$DW$140, DW_AT_TI_symbol_name("pxStreamBuffer")
	.dwattr $C$DW$140, DW_AT_type(*$C$DW$T$106)
	.dwattr $C$DW$140, DW_AT_location[DW_OP_reg0]

$C$DW$141	.dwtag  DW_TAG_formal_parameter
	.dwattr $C$DW$141, DW_AT_name("pvTxData")
	.dwattr $C$DW$141, DW_AT_TI_symbol_name("pvTxData")
	.dwattr $C$DW$141, DW_AT_type(*$C$DW$T$117)
	.dwattr $C$DW$141, DW_AT_location[DW_OP_reg1]

$C$DW$142	.dwtag  DW_TAG_formal_parameter
	.dwattr $C$DW$142, DW_AT_name("xDataLengthBytes")
	.dwattr $C$DW$142, DW_AT_TI_symbol_name("xDataLengthBytes")
	.dwattr $C$DW$142, DW_AT_type(*$C$DW$T$31)
	.dwattr $C$DW$142, DW_AT_location[DW_OP_reg2]

$C$DW$143	.dwtag  DW_TAG_formal_parameter
	.dwattr $C$DW$143, DW_AT_name("xSpace")
	.dwattr $C$DW$143, DW_AT_TI_symbol_name("xSpace")
	.dwattr $C$DW$143, DW_AT_type(*$C$DW$T$31)
	.dwattr $C$DW$143, DW_AT_location[DW_OP_reg3]

$C$DW$144	.dwtag  DW_TAG_formal_parameter
	.dwattr $C$DW$144, DW_AT_name("xRequiredSpace")
	.dwattr $C$DW$144, DW_AT_TI_symbol_name("xRequiredSpace")
	.dwattr $C$DW$144, DW_AT_type(*$C$DW$T$31)
	.dwattr $C$DW$144, DW_AT_location[DW_OP_breg13 32]

;----------------------------------------------------------------------
; 661 | static size_t prvWriteMessageToBuffer( StreamBuffer_t * const pxStreamB
;     | uffer,                                                                 
; 662 | const void * pvTxData,                                                 
; 663 | size_t xDataLengthBytes,                                               
; 664 | size_t xSpace,                                                         
; 665 | size_t xRequiredSpace )                                                
;----------------------------------------------------------------------

;*****************************************************************************
;* FUNCTION NAME: prvWriteMessageToBuffer                                    *
;*                                                                           *
;*   Regs Modified     : A1,A2,A3,A4,V9,SP,LR,SR,D0,D0_hi,D1,D1_hi,D2,D2_hi, *
;*                           D3,D3_hi,D4,D4_hi,D5,D5_hi,D6,D6_hi,D7,D7_hi,   *
;*                           FPEXC,FPSCR                                     *
;*   Regs Used         : A1,A2,A3,A4,V9,SP,LR,SR,D0,D0_hi,D1,D1_hi,D2,D2_hi, *
;*                           D3,D3_hi,D4,D4_hi,D5,D5_hi,D6,D6_hi,D7,D7_hi,   *
;*                           FPEXC,FPSCR                                     *
;*   Local Frame Size  : 0 Args + 24 Auto + 4 Save = 28 byte                 *
;*****************************************************************************
prvWriteMessageToBuffer:
;* --------------------------------------------------------------------------*
	.dwcfi	cfa_offset, 0
        PUSH      {LR}                  ; [DPU_V7M3_PIPE] 
	.dwcfi	cfa_offset, 4
	.dwcfi	save_reg_to_mem, 14, -4
        SUB       SP, SP, #28           ; [DPU_V7M3_PIPE] 
	.dwcfi	cfa_offset, 32
$C$DW$145	.dwtag  DW_TAG_variable
	.dwattr $C$DW$145, DW_AT_name("pxStreamBuffer")
	.dwattr $C$DW$145, DW_AT_TI_symbol_name("pxStreamBuffer")
	.dwattr $C$DW$145, DW_AT_type(*$C$DW$T$106)
	.dwattr $C$DW$145, DW_AT_location[DW_OP_breg13 0]

$C$DW$146	.dwtag  DW_TAG_variable
	.dwattr $C$DW$146, DW_AT_name("pvTxData")
	.dwattr $C$DW$146, DW_AT_TI_symbol_name("pvTxData")
	.dwattr $C$DW$146, DW_AT_type(*$C$DW$T$117)
	.dwattr $C$DW$146, DW_AT_location[DW_OP_breg13 4]

$C$DW$147	.dwtag  DW_TAG_variable
	.dwattr $C$DW$147, DW_AT_name("xDataLengthBytes")
	.dwattr $C$DW$147, DW_AT_TI_symbol_name("xDataLengthBytes")
	.dwattr $C$DW$147, DW_AT_type(*$C$DW$T$31)
	.dwattr $C$DW$147, DW_AT_location[DW_OP_breg13 8]

$C$DW$148	.dwtag  DW_TAG_variable
	.dwattr $C$DW$148, DW_AT_name("xSpace")
	.dwattr $C$DW$148, DW_AT_TI_symbol_name("xSpace")
	.dwattr $C$DW$148, DW_AT_type(*$C$DW$T$31)
	.dwattr $C$DW$148, DW_AT_location[DW_OP_breg13 12]

$C$DW$149	.dwtag  DW_TAG_variable
	.dwattr $C$DW$149, DW_AT_name("xShouldWrite")
	.dwattr $C$DW$149, DW_AT_TI_symbol_name("xShouldWrite")
	.dwattr $C$DW$149, DW_AT_type(*$C$DW$T$90)
	.dwattr $C$DW$149, DW_AT_location[DW_OP_breg13 16]

$C$DW$150	.dwtag  DW_TAG_variable
	.dwattr $C$DW$150, DW_AT_name("xReturn")
	.dwattr $C$DW$150, DW_AT_TI_symbol_name("xReturn")
	.dwattr $C$DW$150, DW_AT_type(*$C$DW$T$31)
	.dwattr $C$DW$150, DW_AT_location[DW_OP_breg13 20]

;----------------------------------------------------------------------
; 667 | BaseType_t xShouldWrite;                                               
; 668 | size_t xReturn;                                                        
;----------------------------------------------------------------------
        STR       A4, [SP, #12]         ; [DPU_V7M3_PIPE] |666| 
        STR       A3, [SP, #8]          ; [DPU_V7M3_PIPE] |666| 
        STR       A2, [SP, #4]          ; [DPU_V7M3_PIPE] |666| 
        STR       A1, [SP, #0]          ; [DPU_V7M3_PIPE] |666| 
	.dwpsn	file "../OS/stream_buffer.c",line 670,column 2,is_stmt,isa 1
;----------------------------------------------------------------------
; 670 | if( xSpace == ( size_t ) 0 )                                           
;----------------------------------------------------------------------
        LDR       A1, [SP, #12]         ; [DPU_V7M3_PIPE] |670| 
        CBNZ      A1, ||$C$L62||        ; [] 
        ; BRANCHCC OCCURS {||$C$L62||}   ; [] |670| 
;* --------------------------------------------------------------------------*
	.dwpsn	file "../OS/stream_buffer.c",line 674,column 3,is_stmt,isa 1
;----------------------------------------------------------------------
; 674 | xShouldWrite = pdFALSE;                                                
;----------------------------------------------------------------------
        MOVS      A1, #0                ; [DPU_V7M3_PIPE] |674| 
        STR       A1, [SP, #16]         ; [DPU_V7M3_PIPE] |674| 
	.dwpsn	file "../OS/stream_buffer.c",line 675,column 2,is_stmt,isa 1
        B         ||$C$L67||            ; [DPU_V7M3_PIPE] |675| 
        ; BRANCH OCCURS {||$C$L67||}     ; [] |675| 
;* --------------------------------------------------------------------------*
||$C$L62||:    
	.dwpsn	file "../OS/stream_buffer.c",line 676,column 7,is_stmt,isa 1
;----------------------------------------------------------------------
; 676 | else if( ( pxStreamBuffer->ucFlags & sbFLAGS_IS_MESSAGE_BUFFER ) == ( u
;     | int8_t ) 0 )                                                           
;----------------------------------------------------------------------
        LDR       A1, [SP, #0]          ; [DPU_V7M3_PIPE] |676| 
        LDRB      A1, [A1, #28]         ; [DPU_V7M3_PIPE] |676| 
        LSRS      A1, A1, #1            ; [DPU_V7M3_PIPE] |676| 
        BCS       ||$C$L65||            ; [DPU_V7M3_PIPE] |676| 
        ; BRANCHCC OCCURS {||$C$L65||}   ; [] |676| 
;* --------------------------------------------------------------------------*
	.dwpsn	file "../OS/stream_buffer.c",line 681,column 3,is_stmt,isa 1
;----------------------------------------------------------------------
; 681 | xShouldWrite = pdTRUE;                                                 
;----------------------------------------------------------------------
        MOVS      A1, #1                ; [DPU_V7M3_PIPE] |681| 
        STR       A1, [SP, #16]         ; [DPU_V7M3_PIPE] |681| 
	.dwpsn	file "../OS/stream_buffer.c",line 682,column 3,is_stmt,isa 1
;----------------------------------------------------------------------
; 682 | xDataLengthBytes = configMIN( xDataLengthBytes, xSpace );              
;----------------------------------------------------------------------
        LDR       A2, [SP, #8]          ; [DPU_V7M3_PIPE] |682| 
        LDR       A1, [SP, #12]         ; [DPU_V7M3_PIPE] |682| 
        CMP       A1, A2                ; [DPU_V7M3_PIPE] |682| 
        BLS       ||$C$L63||            ; [DPU_V7M3_PIPE] |682| 
        ; BRANCHCC OCCURS {||$C$L63||}   ; [] |682| 
;* --------------------------------------------------------------------------*
        LDR       A1, [SP, #8]          ; [DPU_V7M3_PIPE] |682| 
        B         ||$C$L64||            ; [DPU_V7M3_PIPE] |682| 
        ; BRANCH OCCURS {||$C$L64||}     ; [] |682| 
;* --------------------------------------------------------------------------*
||$C$L63||:    
        LDR       A1, [SP, #12]         ; [DPU_V7M3_PIPE] |682| 
;* --------------------------------------------------------------------------*
||$C$L64||:    
        STR       A1, [SP, #8]          ; [DPU_V7M3_PIPE] |682| 
	.dwpsn	file "../OS/stream_buffer.c",line 683,column 2,is_stmt,isa 1
        B         ||$C$L67||            ; [DPU_V7M3_PIPE] |683| 
        ; BRANCH OCCURS {||$C$L67||}     ; [] |683| 
;* --------------------------------------------------------------------------*
||$C$L65||:    
	.dwpsn	file "../OS/stream_buffer.c",line 684,column 7,is_stmt,isa 1
;----------------------------------------------------------------------
; 684 | else if( xSpace >= xRequiredSpace )                                    
;----------------------------------------------------------------------
        LDR       A1, [SP, #32]         ; [DPU_V7M3_PIPE] |684| 
        LDR       A2, [SP, #12]         ; [DPU_V7M3_PIPE] |684| 
        CMP       A1, A2                ; [DPU_V7M3_PIPE] |684| 
        BHI       ||$C$L66||            ; [DPU_V7M3_PIPE] |684| 
        ; BRANCHCC OCCURS {||$C$L66||}   ; [] |684| 
;* --------------------------------------------------------------------------*
	.dwpsn	file "../OS/stream_buffer.c",line 690,column 3,is_stmt,isa 1
;----------------------------------------------------------------------
; 690 | xShouldWrite = pdTRUE;                                                 
;----------------------------------------------------------------------
        MOVS      A1, #1                ; [DPU_V7M3_PIPE] |690| 
        STR       A1, [SP, #16]         ; [DPU_V7M3_PIPE] |690| 
	.dwpsn	file "../OS/stream_buffer.c",line 691,column 3,is_stmt,isa 1
;----------------------------------------------------------------------
; 691 | ( void ) prvWriteBytesToBuffer( pxStreamBuffer, ( const uint8_t * ) &(
;     | xDataLengthBytes ), sbBYTES_TO_STORE_MESSAGE_LENGTH );                 
;----------------------------------------------------------------------
        LDR       A1, [SP, #0]          ; [DPU_V7M3_PIPE] |691| 
        ADD       A2, SP, #8            ; [DPU_V7M3_PIPE] |691| 
        MOVS      A3, #4                ; [DPU_V7M3_PIPE] |691| 
$C$DW$151	.dwtag  DW_TAG_TI_branch
	.dwattr $C$DW$151, DW_AT_low_pc(0x00)
	.dwattr $C$DW$151, DW_AT_name("prvWriteBytesToBuffer")
	.dwattr $C$DW$151, DW_AT_TI_call

        BL        prvWriteBytesToBuffer ; [DPU_V7M3_PIPE] |691| 
        ; CALL OCCURS {prvWriteBytesToBuffer }  ; [] |691| 
	.dwpsn	file "../OS/stream_buffer.c",line 692,column 2,is_stmt,isa 1
;----------------------------------------------------------------------
; 693 | else                                                                   
;----------------------------------------------------------------------
        B         ||$C$L67||            ; [DPU_V7M3_PIPE] |692| 
        ; BRANCH OCCURS {||$C$L67||}     ; [] |692| 
;* --------------------------------------------------------------------------*
||$C$L66||:    
	.dwpsn	file "../OS/stream_buffer.c",line 696,column 3,is_stmt,isa 1
;----------------------------------------------------------------------
; 696 | xShouldWrite = pdFALSE;                                                
;----------------------------------------------------------------------
        MOVS      A1, #0                ; [DPU_V7M3_PIPE] |696| 
        STR       A1, [SP, #16]         ; [DPU_V7M3_PIPE] |696| 
;* --------------------------------------------------------------------------*
||$C$L67||:    
	.dwpsn	file "../OS/stream_buffer.c",line 699,column 2,is_stmt,isa 1
;----------------------------------------------------------------------
; 699 | if( xShouldWrite != pdFALSE )                                          
;----------------------------------------------------------------------
        LDR       A1, [SP, #16]         ; [DPU_V7M3_PIPE] |699| 
        CBZ       A1, ||$C$L68||        ; [] 
        ; BRANCHCC OCCURS {||$C$L68||}   ; [] |699| 
;* --------------------------------------------------------------------------*
	.dwpsn	file "../OS/stream_buffer.c",line 702,column 3,is_stmt,isa 1
;----------------------------------------------------------------------
; 702 | xReturn = prvWriteBytesToBuffer( pxStreamBuffer, ( const uint8_t * ) pv
;     | TxData, xDataLengthBytes ); /*lint !e9079 Storage buffer is implemented
;     |  as uint8_t for ease of sizing, alighment and access. */               
;----------------------------------------------------------------------
        LDR       A1, [SP, #0]          ; [DPU_V7M3_PIPE] |702| 
        LDR       A2, [SP, #4]          ; [DPU_V7M3_PIPE] |702| 
        LDR       A3, [SP, #8]          ; [DPU_V7M3_PIPE] |702| 
$C$DW$152	.dwtag  DW_TAG_TI_branch
	.dwattr $C$DW$152, DW_AT_low_pc(0x00)
	.dwattr $C$DW$152, DW_AT_name("prvWriteBytesToBuffer")
	.dwattr $C$DW$152, DW_AT_TI_call

        BL        prvWriteBytesToBuffer ; [DPU_V7M3_PIPE] |702| 
        ; CALL OCCURS {prvWriteBytesToBuffer }  ; [] |702| 
        STR       A1, [SP, #20]         ; [DPU_V7M3_PIPE] |702| 
	.dwpsn	file "../OS/stream_buffer.c",line 703,column 2,is_stmt,isa 1
;----------------------------------------------------------------------
; 704 | else                                                                   
;----------------------------------------------------------------------
        B         ||$C$L69||            ; [DPU_V7M3_PIPE] |703| 
        ; BRANCH OCCURS {||$C$L69||}     ; [] |703| 
;* --------------------------------------------------------------------------*
||$C$L68||:    
	.dwpsn	file "../OS/stream_buffer.c",line 706,column 3,is_stmt,isa 1
;----------------------------------------------------------------------
; 706 | xReturn = 0;                                                           
;----------------------------------------------------------------------
        MOVS      A1, #0                ; [DPU_V7M3_PIPE] |706| 
        STR       A1, [SP, #20]         ; [DPU_V7M3_PIPE] |706| 
;* --------------------------------------------------------------------------*
||$C$L69||:    
	.dwpsn	file "../OS/stream_buffer.c",line 709,column 2,is_stmt,isa 1
;----------------------------------------------------------------------
; 709 | return xReturn;                                                        
;----------------------------------------------------------------------
        LDR       A1, [SP, #20]         ; [DPU_V7M3_PIPE] |709| 
	.dwpsn	file "../OS/stream_buffer.c",line 710,column 1,is_stmt,isa 1
        ADD       SP, SP, #28           ; [DPU_V7M3_PIPE] 
	.dwcfi	cfa_offset, 4
$C$DW$153	.dwtag  DW_TAG_TI_branch
	.dwattr $C$DW$153, DW_AT_low_pc(0x00)
	.dwattr $C$DW$153, DW_AT_TI_return

        POP       {PC}                  ; [DPU_V7M3_PIPE] 
	.dwcfi	cfa_offset, 0
        ; BRANCH OCCURS                  ; [] 
	.dwattr $C$DW$139, DW_AT_TI_end_file("../OS/stream_buffer.c")
	.dwattr $C$DW$139, DW_AT_TI_end_line(0x2c6)
	.dwattr $C$DW$139, DW_AT_TI_end_column(0x01)
	.dwendentry
	.dwendtag $C$DW$139

	.sect	".text"
	.clink
	.thumbfunc xStreamBufferReceive
	.thumb
	.global	xStreamBufferReceive

$C$DW$154	.dwtag  DW_TAG_subprogram
	.dwattr $C$DW$154, DW_AT_name("xStreamBufferReceive")
	.dwattr $C$DW$154, DW_AT_low_pc(xStreamBufferReceive)
	.dwattr $C$DW$154, DW_AT_high_pc(0x00)
	.dwattr $C$DW$154, DW_AT_TI_symbol_name("xStreamBufferReceive")
	.dwattr $C$DW$154, DW_AT_external
	.dwattr $C$DW$154, DW_AT_type(*$C$DW$T$31)
	.dwattr $C$DW$154, DW_AT_TI_begin_file("../OS/stream_buffer.c")
	.dwattr $C$DW$154, DW_AT_TI_begin_line(0x2c9)
	.dwattr $C$DW$154, DW_AT_TI_begin_column(0x08)
	.dwattr $C$DW$154, DW_AT_decl_file("../OS/stream_buffer.c")
	.dwattr $C$DW$154, DW_AT_decl_line(0x2c9)
	.dwattr $C$DW$154, DW_AT_decl_column(0x08)
	.dwattr $C$DW$154, DW_AT_TI_max_frame_size(0x28)
	.dwpsn	file "../OS/stream_buffer.c",line 717,column 1,is_stmt,address xStreamBufferReceive,isa 1

	.dwfde $C$DW$CIE, xStreamBufferReceive
$C$DW$155	.dwtag  DW_TAG_formal_parameter
	.dwattr $C$DW$155, DW_AT_name("xStreamBuffer")
	.dwattr $C$DW$155, DW_AT_TI_symbol_name("xStreamBuffer")
	.dwattr $C$DW$155, DW_AT_type(*$C$DW$T$108)
	.dwattr $C$DW$155, DW_AT_location[DW_OP_reg0]

$C$DW$156	.dwtag  DW_TAG_formal_parameter
	.dwattr $C$DW$156, DW_AT_name("pvRxData")
	.dwattr $C$DW$156, DW_AT_TI_symbol_name("pvRxData")
	.dwattr $C$DW$156, DW_AT_type(*$C$DW$T$3)
	.dwattr $C$DW$156, DW_AT_location[DW_OP_reg1]

$C$DW$157	.dwtag  DW_TAG_formal_parameter
	.dwattr $C$DW$157, DW_AT_name("xBufferLengthBytes")
	.dwattr $C$DW$157, DW_AT_TI_symbol_name("xBufferLengthBytes")
	.dwattr $C$DW$157, DW_AT_type(*$C$DW$T$31)
	.dwattr $C$DW$157, DW_AT_location[DW_OP_reg2]

$C$DW$158	.dwtag  DW_TAG_formal_parameter
	.dwattr $C$DW$158, DW_AT_name("xTicksToWait")
	.dwattr $C$DW$158, DW_AT_TI_symbol_name("xTicksToWait")
	.dwattr $C$DW$158, DW_AT_type(*$C$DW$T$46)
	.dwattr $C$DW$158, DW_AT_location[DW_OP_reg3]

;----------------------------------------------------------------------
; 713 | size_t xStreamBufferReceive( StreamBufferHandle_t xStreamBuffer,       
; 714 | void *pvRxData,                                                        
; 715 | size_t xBufferLengthBytes,                                             
; 716 | TickType_t xTicksToWait )                                              
;----------------------------------------------------------------------

;*****************************************************************************
;* FUNCTION NAME: xStreamBufferReceive                                       *
;*                                                                           *
;*   Regs Modified     : A1,A2,A3,A4,V9,SP,LR,SR,D0,D0_hi,D1,D1_hi,D2,D2_hi, *
;*                           D3,D3_hi,D4,D4_hi,D5,D5_hi,D6,D6_hi,D7,D7_hi,   *
;*                           FPEXC,FPSCR                                     *
;*   Regs Used         : A1,A2,A3,A4,V9,SP,LR,SR,D0,D0_hi,D1,D1_hi,D2,D2_hi, *
;*                           D3,D3_hi,D4,D4_hi,D5,D5_hi,D6,D6_hi,D7,D7_hi,   *
;*                           FPEXC,FPSCR                                     *
;*   Local Frame Size  : 4 Args + 32 Auto + 4 Save = 40 byte                 *
;*****************************************************************************
xStreamBufferReceive:
;* --------------------------------------------------------------------------*
	.dwcfi	cfa_offset, 0
        PUSH      {LR}                  ; [DPU_V7M3_PIPE] 
	.dwcfi	cfa_offset, 4
	.dwcfi	save_reg_to_mem, 14, -4
        SUB       SP, SP, #36           ; [DPU_V7M3_PIPE] 
	.dwcfi	cfa_offset, 40
$C$DW$159	.dwtag  DW_TAG_variable
	.dwattr $C$DW$159, DW_AT_name("xStreamBuffer")
	.dwattr $C$DW$159, DW_AT_TI_symbol_name("xStreamBuffer")
	.dwattr $C$DW$159, DW_AT_type(*$C$DW$T$108)
	.dwattr $C$DW$159, DW_AT_location[DW_OP_breg13 4]

$C$DW$160	.dwtag  DW_TAG_variable
	.dwattr $C$DW$160, DW_AT_name("pvRxData")
	.dwattr $C$DW$160, DW_AT_TI_symbol_name("pvRxData")
	.dwattr $C$DW$160, DW_AT_type(*$C$DW$T$3)
	.dwattr $C$DW$160, DW_AT_location[DW_OP_breg13 8]

$C$DW$161	.dwtag  DW_TAG_variable
	.dwattr $C$DW$161, DW_AT_name("xBufferLengthBytes")
	.dwattr $C$DW$161, DW_AT_TI_symbol_name("xBufferLengthBytes")
	.dwattr $C$DW$161, DW_AT_type(*$C$DW$T$31)
	.dwattr $C$DW$161, DW_AT_location[DW_OP_breg13 12]

$C$DW$162	.dwtag  DW_TAG_variable
	.dwattr $C$DW$162, DW_AT_name("xTicksToWait")
	.dwattr $C$DW$162, DW_AT_TI_symbol_name("xTicksToWait")
	.dwattr $C$DW$162, DW_AT_type(*$C$DW$T$46)
	.dwattr $C$DW$162, DW_AT_location[DW_OP_breg13 16]

$C$DW$163	.dwtag  DW_TAG_variable
	.dwattr $C$DW$163, DW_AT_name("pxStreamBuffer")
	.dwattr $C$DW$163, DW_AT_TI_symbol_name("pxStreamBuffer")
	.dwattr $C$DW$163, DW_AT_type(*$C$DW$T$106)
	.dwattr $C$DW$163, DW_AT_location[DW_OP_breg13 20]

$C$DW$164	.dwtag  DW_TAG_variable
	.dwattr $C$DW$164, DW_AT_name("xReceivedLength")
	.dwattr $C$DW$164, DW_AT_TI_symbol_name("xReceivedLength")
	.dwattr $C$DW$164, DW_AT_type(*$C$DW$T$31)
	.dwattr $C$DW$164, DW_AT_location[DW_OP_breg13 24]

$C$DW$165	.dwtag  DW_TAG_variable
	.dwattr $C$DW$165, DW_AT_name("xBytesAvailable")
	.dwattr $C$DW$165, DW_AT_TI_symbol_name("xBytesAvailable")
	.dwattr $C$DW$165, DW_AT_type(*$C$DW$T$31)
	.dwattr $C$DW$165, DW_AT_location[DW_OP_breg13 28]

$C$DW$166	.dwtag  DW_TAG_variable
	.dwattr $C$DW$166, DW_AT_name("xBytesToStoreMessageLength")
	.dwattr $C$DW$166, DW_AT_TI_symbol_name("xBytesToStoreMessageLength")
	.dwattr $C$DW$166, DW_AT_type(*$C$DW$T$31)
	.dwattr $C$DW$166, DW_AT_location[DW_OP_breg13 32]

        STR       A4, [SP, #16]         ; [DPU_V7M3_PIPE] |717| 
        STR       A3, [SP, #12]         ; [DPU_V7M3_PIPE] |717| 
        STR       A2, [SP, #8]          ; [DPU_V7M3_PIPE] |717| 
        STR       A1, [SP, #4]          ; [DPU_V7M3_PIPE] |717| 
	.dwpsn	file "../OS/stream_buffer.c",line 718,column 39,is_stmt,isa 1
;----------------------------------------------------------------------
; 718 | StreamBuffer_t * const pxStreamBuffer = xStreamBuffer;                 
;----------------------------------------------------------------------
        LDR       A1, [SP, #4]          ; [DPU_V7M3_PIPE] |718| 
        STR       A1, [SP, #20]         ; [DPU_V7M3_PIPE] |718| 
	.dwpsn	file "../OS/stream_buffer.c",line 719,column 24,is_stmt,isa 1
;----------------------------------------------------------------------
; 719 | size_t xReceivedLength = 0, xBytesAvailable, xBytesToStoreMessageLength
;     | ;                                                                      
;----------------------------------------------------------------------
        MOVS      A1, #0                ; [DPU_V7M3_PIPE] |719| 
        STR       A1, [SP, #24]         ; [DPU_V7M3_PIPE] |719| 
	.dwpsn	file "../OS/stream_buffer.c",line 721,column 2,is_stmt,isa 1
;----------------------------------------------------------------------
; 721 | configASSERT( pvRxData );                                              
;----------------------------------------------------------------------
        LDR       A1, [SP, #8]          ; [DPU_V7M3_PIPE] |721| 
        CBNZ      A1, ||$C$L71||        ; [] 
        ; BRANCHCC OCCURS {||$C$L71||}   ; [] |721| 
;* --------------------------------------------------------------------------*
        MOVS      A1, #160              ; [DPU_V7M3_PIPE] |721| 
        MSR       BASEPRI, A1           ; [DPU_V7M3_PIPE] |721| 
	dsb
	isb
;* --------------------------------------------------------------------------*
;*   BEGIN LOOP ||$C$L70||
;*
;*   Loop source line                : 721
;*   Loop closing brace source line  : 721
;*   Known Minimum Trip Count        : 1
;*   Known Maximum Trip Count        : 4294967295
;*   Known Max Trip Count Factor     : 1
;* --------------------------------------------------------------------------*
||$C$L70||:    
        B         ||$C$L70||            ; [DPU_V7M3_PIPE] |721| 
        ; BRANCH OCCURS {||$C$L70||}     ; [] |721| 
;* --------------------------------------------------------------------------*
||$C$L71||:    
	.dwpsn	file "../OS/stream_buffer.c",line 722,column 2,is_stmt,isa 1
;----------------------------------------------------------------------
; 722 | configASSERT( pxStreamBuffer );                                        
;----------------------------------------------------------------------
        LDR       A1, [SP, #20]         ; [DPU_V7M3_PIPE] |722| 
        CBNZ      A1, ||$C$L73||        ; [] 
        ; BRANCHCC OCCURS {||$C$L73||}   ; [] |722| 
;* --------------------------------------------------------------------------*
        MOVS      A1, #160              ; [DPU_V7M3_PIPE] |722| 
        MSR       BASEPRI, A1           ; [DPU_V7M3_PIPE] |722| 
	dsb
	isb
;* --------------------------------------------------------------------------*
;*   BEGIN LOOP ||$C$L72||
;*
;*   Loop source line                : 722
;*   Loop closing brace source line  : 722
;*   Known Minimum Trip Count        : 1
;*   Known Maximum Trip Count        : 4294967295
;*   Known Max Trip Count Factor     : 1
;* --------------------------------------------------------------------------*
||$C$L72||:    
        B         ||$C$L72||            ; [DPU_V7M3_PIPE] |722| 
        ; BRANCH OCCURS {||$C$L72||}     ; [] |722| 
;* --------------------------------------------------------------------------*
||$C$L73||:    
	.dwpsn	file "../OS/stream_buffer.c",line 729,column 2,is_stmt,isa 1
;----------------------------------------------------------------------
; 729 | if( ( pxStreamBuffer->ucFlags & sbFLAGS_IS_MESSAGE_BUFFER ) != ( uint8_
;     | t ) 0 )                                                                
;----------------------------------------------------------------------
        LDR       A1, [SP, #20]         ; [DPU_V7M3_PIPE] |729| 
        LDRB      A1, [A1, #28]         ; [DPU_V7M3_PIPE] |729| 
        LSRS      A1, A1, #1            ; [DPU_V7M3_PIPE] |729| 
        BCC       ||$C$L74||            ; [DPU_V7M3_PIPE] |729| 
        ; BRANCHCC OCCURS {||$C$L74||}   ; [] |729| 
;* --------------------------------------------------------------------------*
	.dwpsn	file "../OS/stream_buffer.c",line 731,column 3,is_stmt,isa 1
;----------------------------------------------------------------------
; 731 | xBytesToStoreMessageLength = sbBYTES_TO_STORE_MESSAGE_LENGTH;          
;----------------------------------------------------------------------
        MOVS      A1, #4                ; [DPU_V7M3_PIPE] |731| 
        STR       A1, [SP, #32]         ; [DPU_V7M3_PIPE] |731| 
	.dwpsn	file "../OS/stream_buffer.c",line 732,column 2,is_stmt,isa 1
;----------------------------------------------------------------------
; 733 | else                                                                   
;----------------------------------------------------------------------
        B         ||$C$L75||            ; [DPU_V7M3_PIPE] |732| 
        ; BRANCH OCCURS {||$C$L75||}     ; [] |732| 
;* --------------------------------------------------------------------------*
||$C$L74||:    
	.dwpsn	file "../OS/stream_buffer.c",line 735,column 3,is_stmt,isa 1
;----------------------------------------------------------------------
; 735 | xBytesToStoreMessageLength = 0;                                        
;----------------------------------------------------------------------
        MOVS      A1, #0                ; [DPU_V7M3_PIPE] |735| 
        STR       A1, [SP, #32]         ; [DPU_V7M3_PIPE] |735| 
;* --------------------------------------------------------------------------*
||$C$L75||:    
	.dwpsn	file "../OS/stream_buffer.c",line 738,column 2,is_stmt,isa 1
;----------------------------------------------------------------------
; 738 | if( xTicksToWait != ( TickType_t ) 0 )                                 
;----------------------------------------------------------------------
        LDR       A1, [SP, #16]         ; [DPU_V7M3_PIPE] |738| 
        CMP       A1, #0                ; [DPU_V7M3_PIPE] |738| 
        BEQ       ||$C$L80||            ; [DPU_V7M3_PIPE] |738| 
        ; BRANCHCC OCCURS {||$C$L80||}   ; [] |738| 
;* --------------------------------------------------------------------------*
	.dwpsn	file "../OS/stream_buffer.c",line 742,column 3,is_stmt,isa 1
;----------------------------------------------------------------------
; 742 | taskENTER_CRITICAL();                                                  
;----------------------------------------------------------------------
$C$DW$167	.dwtag  DW_TAG_TI_branch
	.dwattr $C$DW$167, DW_AT_low_pc(0x00)
	.dwattr $C$DW$167, DW_AT_name("vPortEnterCritical")
	.dwattr $C$DW$167, DW_AT_TI_call

        BL        vPortEnterCritical    ; [DPU_V7M3_PIPE] |742| 
        ; CALL OCCURS {vPortEnterCritical }  ; [] |742| 
	.dwpsn	file "../OS/stream_buffer.c",line 744,column 4,is_stmt,isa 1
;----------------------------------------------------------------------
; 744 | xBytesAvailable = prvBytesInBuffer( pxStreamBuffer );                  
;----------------------------------------------------------------------
        LDR       A1, [SP, #20]         ; [DPU_V7M3_PIPE] |744| 
$C$DW$168	.dwtag  DW_TAG_TI_branch
	.dwattr $C$DW$168, DW_AT_low_pc(0x00)
	.dwattr $C$DW$168, DW_AT_name("prvBytesInBuffer")
	.dwattr $C$DW$168, DW_AT_TI_call

        BL        prvBytesInBuffer      ; [DPU_V7M3_PIPE] |744| 
        ; CALL OCCURS {prvBytesInBuffer }  ; [] |744| 
        STR       A1, [SP, #28]         ; [DPU_V7M3_PIPE] |744| 
	.dwpsn	file "../OS/stream_buffer.c",line 751,column 4,is_stmt,isa 1
;----------------------------------------------------------------------
; 751 | if( xBytesAvailable <= xBytesToStoreMessageLength )                    
;----------------------------------------------------------------------
        LDR       A1, [SP, #32]         ; [DPU_V7M3_PIPE] |751| 
        LDR       A2, [SP, #28]         ; [DPU_V7M3_PIPE] |751| 
        CMP       A1, A2                ; [DPU_V7M3_PIPE] |751| 
        BCC       ||$C$L79||            ; [DPU_V7M3_PIPE] |751| 
        ; BRANCHCC OCCURS {||$C$L79||}   ; [] |751| 
;* --------------------------------------------------------------------------*
	.dwpsn	file "../OS/stream_buffer.c",line 754,column 5,is_stmt,isa 1
;----------------------------------------------------------------------
; 754 | ( void ) xTaskNotifyStateClear( NULL );                                
;----------------------------------------------------------------------
        MOVS      A1, #0                ; [DPU_V7M3_PIPE] |754| 
$C$DW$169	.dwtag  DW_TAG_TI_branch
	.dwattr $C$DW$169, DW_AT_low_pc(0x00)
	.dwattr $C$DW$169, DW_AT_name("xTaskNotifyStateClear")
	.dwattr $C$DW$169, DW_AT_TI_call

        BL        xTaskNotifyStateClear ; [DPU_V7M3_PIPE] |754| 
        ; CALL OCCURS {xTaskNotifyStateClear }  ; [] |754| 
	.dwpsn	file "../OS/stream_buffer.c",line 757,column 5,is_stmt,isa 1
;----------------------------------------------------------------------
; 757 | configASSERT( pxStreamBuffer->xTaskWaitingToReceive == NULL );         
;----------------------------------------------------------------------
        LDR       A1, [SP, #20]         ; [DPU_V7M3_PIPE] |757| 
        LDR       A2, [A1, #16]         ; [DPU_V7M3_PIPE] |757| 
        MOVS      A1, #0                ; [DPU_V7M3_PIPE] |757| 
        CBNZ      A2, ||$C$L76||        ; [] 
        ; BRANCHCC OCCURS {||$C$L76||}   ; [] |757| 
;* --------------------------------------------------------------------------*
        MOVS      A1, #1                ; [DPU_V7M3_PIPE] |757| 
;* --------------------------------------------------------------------------*
||$C$L76||:    
        CBNZ      A1, ||$C$L78||        ; [] 
        ; BRANCHCC OCCURS {||$C$L78||}   ; [] |757| 
;* --------------------------------------------------------------------------*
        MOVS      A1, #160              ; [DPU_V7M3_PIPE] |757| 
        MSR       BASEPRI, A1           ; [DPU_V7M3_PIPE] |757| 
	dsb
	isb
;* --------------------------------------------------------------------------*
;*   BEGIN LOOP ||$C$L77||
;*
;*   Loop source line                : 757
;*   Loop closing brace source line  : 757
;*   Known Minimum Trip Count        : 1
;*   Known Maximum Trip Count        : 4294967295
;*   Known Max Trip Count Factor     : 1
;* --------------------------------------------------------------------------*
||$C$L77||:    
        B         ||$C$L77||            ; [DPU_V7M3_PIPE] |757| 
        ; BRANCH OCCURS {||$C$L77||}     ; [] |757| 
;* --------------------------------------------------------------------------*
||$C$L78||:    
	.dwpsn	file "../OS/stream_buffer.c",line 758,column 5,is_stmt,isa 1
;----------------------------------------------------------------------
; 758 | pxStreamBuffer->xTaskWaitingToReceive = xTaskGetCurrentTaskHandle();   
;----------------------------------------------------------------------
$C$DW$170	.dwtag  DW_TAG_TI_branch
	.dwattr $C$DW$170, DW_AT_low_pc(0x00)
	.dwattr $C$DW$170, DW_AT_name("xTaskGetCurrentTaskHandle")
	.dwattr $C$DW$170, DW_AT_TI_call

        BL        xTaskGetCurrentTaskHandle ; [DPU_V7M3_PIPE] |758| 
        ; CALL OCCURS {xTaskGetCurrentTaskHandle }  ; [] |758| 
        LDR       A2, [SP, #20]         ; [DPU_V7M3_PIPE] |758| 
        STR       A1, [A2, #16]         ; [DPU_V7M3_PIPE] |758| 
	.dwpsn	file "../OS/stream_buffer.c",line 759,column 4,is_stmt,isa 1
;----------------------------------------------------------------------
; 760 | else                                                                   
; 762 |         mtCOVERAGE_TEST_MARKER();                                      
;----------------------------------------------------------------------
;* --------------------------------------------------------------------------*
||$C$L79||:    
	.dwpsn	file "../OS/stream_buffer.c",line 765,column 3,is_stmt,isa 1
;----------------------------------------------------------------------
; 765 | taskEXIT_CRITICAL();                                                   
;----------------------------------------------------------------------
$C$DW$171	.dwtag  DW_TAG_TI_branch
	.dwattr $C$DW$171, DW_AT_low_pc(0x00)
	.dwattr $C$DW$171, DW_AT_name("vPortExitCritical")
	.dwattr $C$DW$171, DW_AT_TI_call

        BL        vPortExitCritical     ; [DPU_V7M3_PIPE] |765| 
        ; CALL OCCURS {vPortExitCritical }  ; [] |765| 
	.dwpsn	file "../OS/stream_buffer.c",line 767,column 3,is_stmt,isa 1
;----------------------------------------------------------------------
; 767 | if( xBytesAvailable <= xBytesToStoreMessageLength )                    
; 770 |         traceBLOCKING_ON_STREAM_BUFFER_RECEIVE( xStreamBuffer );       
;----------------------------------------------------------------------
        LDR       A1, [SP, #32]         ; [DPU_V7M3_PIPE] |767| 
        LDR       A2, [SP, #28]         ; [DPU_V7M3_PIPE] |767| 
        CMP       A1, A2                ; [DPU_V7M3_PIPE] |767| 
        BCC       ||$C$L81||            ; [DPU_V7M3_PIPE] |767| 
        ; BRANCHCC OCCURS {||$C$L81||}   ; [] |767| 
;* --------------------------------------------------------------------------*
	.dwpsn	file "../OS/stream_buffer.c",line 771,column 4,is_stmt,isa 1
;----------------------------------------------------------------------
; 771 | ( void ) xTaskNotifyWait( ( uint32_t ) 0, ( uint32_t ) 0, NULL, xTicksT
;     | oWait );                                                               
;----------------------------------------------------------------------
        LDR       A4, [SP, #16]         ; [DPU_V7M3_PIPE] |771| 
        MOVS      A1, #0                ; [DPU_V7M3_PIPE] |771| 
        MOVS      A2, #0                ; [DPU_V7M3_PIPE] |771| 
        MOVS      A3, #0                ; [DPU_V7M3_PIPE] |771| 
$C$DW$172	.dwtag  DW_TAG_TI_branch
	.dwattr $C$DW$172, DW_AT_low_pc(0x00)
	.dwattr $C$DW$172, DW_AT_name("xTaskNotifyWait")
	.dwattr $C$DW$172, DW_AT_TI_call

        BL        xTaskNotifyWait       ; [DPU_V7M3_PIPE] |771| 
        ; CALL OCCURS {xTaskNotifyWait }  ; [] |771| 
	.dwpsn	file "../OS/stream_buffer.c",line 772,column 4,is_stmt,isa 1
;----------------------------------------------------------------------
; 772 | pxStreamBuffer->xTaskWaitingToReceive = NULL;                          
;----------------------------------------------------------------------
        LDR       A1, [SP, #20]         ; [DPU_V7M3_PIPE] |772| 
        MOVS      A2, #0                ; [DPU_V7M3_PIPE] |772| 
        STR       A2, [A1, #16]         ; [DPU_V7M3_PIPE] |772| 
	.dwpsn	file "../OS/stream_buffer.c",line 775,column 4,is_stmt,isa 1
;----------------------------------------------------------------------
; 775 | xBytesAvailable = prvBytesInBuffer( pxStreamBuffer );                  
;----------------------------------------------------------------------
        LDR       A1, [SP, #20]         ; [DPU_V7M3_PIPE] |775| 
$C$DW$173	.dwtag  DW_TAG_TI_branch
	.dwattr $C$DW$173, DW_AT_low_pc(0x00)
	.dwattr $C$DW$173, DW_AT_name("prvBytesInBuffer")
	.dwattr $C$DW$173, DW_AT_TI_call

        BL        prvBytesInBuffer      ; [DPU_V7M3_PIPE] |775| 
        ; CALL OCCURS {prvBytesInBuffer }  ; [] |775| 
        STR       A1, [SP, #28]         ; [DPU_V7M3_PIPE] |775| 
	.dwpsn	file "../OS/stream_buffer.c",line 776,column 3,is_stmt,isa 1
;----------------------------------------------------------------------
; 777 | else                                                                   
; 779 |         mtCOVERAGE_TEST_MARKER();                                      
; 782 | else                                                                   
;----------------------------------------------------------------------
        B         ||$C$L81||            ; [DPU_V7M3_PIPE] |776| 
        ; BRANCH OCCURS {||$C$L81||}     ; [] |776| 
;* --------------------------------------------------------------------------*
;* --------------------------------------------------------------------------*
||$C$L80||:    
	.dwpsn	file "../OS/stream_buffer.c",line 784,column 3,is_stmt,isa 1
;----------------------------------------------------------------------
; 784 | xBytesAvailable = prvBytesInBuffer( pxStreamBuffer );                  
;----------------------------------------------------------------------
        LDR       A1, [SP, #20]         ; [DPU_V7M3_PIPE] |784| 
$C$DW$174	.dwtag  DW_TAG_TI_branch
	.dwattr $C$DW$174, DW_AT_low_pc(0x00)
	.dwattr $C$DW$174, DW_AT_name("prvBytesInBuffer")
	.dwattr $C$DW$174, DW_AT_TI_call

        BL        prvBytesInBuffer      ; [DPU_V7M3_PIPE] |784| 
        ; CALL OCCURS {prvBytesInBuffer }  ; [] |784| 
        STR       A1, [SP, #28]         ; [DPU_V7M3_PIPE] |784| 
;* --------------------------------------------------------------------------*
||$C$L81||:    
	.dwpsn	file "../OS/stream_buffer.c",line 792,column 2,is_stmt,isa 1
;----------------------------------------------------------------------
; 792 | if( xBytesAvailable > xBytesToStoreMessageLength )                     
;----------------------------------------------------------------------
        LDR       A1, [SP, #32]         ; [DPU_V7M3_PIPE] |792| 
        LDR       A2, [SP, #28]         ; [DPU_V7M3_PIPE] |792| 
        CMP       A1, A2                ; [DPU_V7M3_PIPE] |792| 
        BCS       ||$C$L83||            ; [DPU_V7M3_PIPE] |792| 
        ; BRANCHCC OCCURS {||$C$L83||}   ; [] |792| 
;* --------------------------------------------------------------------------*
	.dwpsn	file "../OS/stream_buffer.c",line 794,column 3,is_stmt,isa 1
;----------------------------------------------------------------------
; 794 | xReceivedLength = prvReadMessageFromBuffer( pxStreamBuffer, pvRxData, x
;     | BufferLengthBytes, xBytesAvailable, xBytesToStoreMessageLength );      
;----------------------------------------------------------------------
        LDR       A1, [SP, #32]         ; [DPU_V7M3_PIPE] |794| 
        STR       A1, [SP, #0]          ; [DPU_V7M3_PIPE] |794| 
        LDR       A2, [SP, #8]          ; [DPU_V7M3_PIPE] |794| 
        LDR       A3, [SP, #12]         ; [DPU_V7M3_PIPE] |794| 
        LDR       A4, [SP, #28]         ; [DPU_V7M3_PIPE] |794| 
        LDR       A1, [SP, #20]         ; [DPU_V7M3_PIPE] |794| 
$C$DW$175	.dwtag  DW_TAG_TI_branch
	.dwattr $C$DW$175, DW_AT_low_pc(0x00)
	.dwattr $C$DW$175, DW_AT_name("prvReadMessageFromBuffer")
	.dwattr $C$DW$175, DW_AT_TI_call

        BL        prvReadMessageFromBuffer ; [DPU_V7M3_PIPE] |794| 
        ; CALL OCCURS {prvReadMessageFromBuffer }  ; [] |794| 
        STR       A1, [SP, #24]         ; [DPU_V7M3_PIPE] |794| 
	.dwpsn	file "../OS/stream_buffer.c",line 797,column 3,is_stmt,isa 1
;----------------------------------------------------------------------
; 797 | if( xReceivedLength != ( size_t ) 0 )                                  
; 799 |         traceSTREAM_BUFFER_RECEIVE( xStreamBuffer, xReceivedLength );  
;----------------------------------------------------------------------
        LDR       A1, [SP, #24]         ; [DPU_V7M3_PIPE] |797| 
        CBZ       A1, ||$C$L83||        ; [] 
        ; BRANCHCC OCCURS {||$C$L83||}   ; [] |797| 
;* --------------------------------------------------------------------------*
	.dwpsn	file "../OS/stream_buffer.c",line 800,column 4,is_stmt,isa 1
;----------------------------------------------------------------------
; 800 | sbRECEIVE_COMPLETED( pxStreamBuffer );                                 
;----------------------------------------------------------------------
$C$DW$176	.dwtag  DW_TAG_TI_branch
	.dwattr $C$DW$176, DW_AT_low_pc(0x00)
	.dwattr $C$DW$176, DW_AT_name("vTaskSuspendAll")
	.dwattr $C$DW$176, DW_AT_TI_call

        BL        vTaskSuspendAll       ; [DPU_V7M3_PIPE] |800| 
        ; CALL OCCURS {vTaskSuspendAll }  ; [] |800| 
        LDR       A1, [SP, #20]         ; [DPU_V7M3_PIPE] |800| 
        LDR       A1, [A1, #20]         ; [DPU_V7M3_PIPE] |800| 
        CBZ       A1, ||$C$L82||        ; [] 
        ; BRANCHCC OCCURS {||$C$L82||}   ; [] |800| 
;* --------------------------------------------------------------------------*
        LDR       A1, [SP, #20]         ; [DPU_V7M3_PIPE] |800| 
        LDR       A1, [A1, #20]         ; [DPU_V7M3_PIPE] |800| 
        MOVS      A2, #0                ; [DPU_V7M3_PIPE] |800| 
        MOVS      A3, #0                ; [DPU_V7M3_PIPE] |800| 
        MOVS      A4, #0                ; [DPU_V7M3_PIPE] |800| 
$C$DW$177	.dwtag  DW_TAG_TI_branch
	.dwattr $C$DW$177, DW_AT_low_pc(0x00)
	.dwattr $C$DW$177, DW_AT_name("xTaskGenericNotify")
	.dwattr $C$DW$177, DW_AT_TI_call

        BL        xTaskGenericNotify    ; [DPU_V7M3_PIPE] |800| 
        ; CALL OCCURS {xTaskGenericNotify }  ; [] |800| 
        LDR       A1, [SP, #20]         ; [DPU_V7M3_PIPE] |800| 
        MOVS      A2, #0                ; [DPU_V7M3_PIPE] |800| 
        STR       A2, [A1, #20]         ; [DPU_V7M3_PIPE] |800| 
;* --------------------------------------------------------------------------*
||$C$L82||:    
$C$DW$178	.dwtag  DW_TAG_TI_branch
	.dwattr $C$DW$178, DW_AT_low_pc(0x00)
	.dwattr $C$DW$178, DW_AT_name("xTaskResumeAll")
	.dwattr $C$DW$178, DW_AT_TI_call

        BL        xTaskResumeAll        ; [DPU_V7M3_PIPE] |800| 
        ; CALL OCCURS {xTaskResumeAll }  ; [] |800| 
	.dwpsn	file "../OS/stream_buffer.c",line 801,column 3,is_stmt,isa 1
;----------------------------------------------------------------------
; 802 | else                                                                   
; 804 |         mtCOVERAGE_TEST_MARKER();                                      
; 807 | else                                                                   
; 809 | traceSTREAM_BUFFER_RECEIVE_FAILED( xStreamBuffer );                    
; 810 | mtCOVERAGE_TEST_MARKER();                                              
;----------------------------------------------------------------------
        B         ||$C$L83||            ; [DPU_V7M3_PIPE] |801| 
        ; BRANCH OCCURS {||$C$L83||}     ; [] |801| 
;* --------------------------------------------------------------------------*
;* --------------------------------------------------------------------------*
||$C$L83||:    
	.dwpsn	file "../OS/stream_buffer.c",line 813,column 2,is_stmt,isa 1
;----------------------------------------------------------------------
; 813 | return xReceivedLength;                                                
;----------------------------------------------------------------------
        LDR       A1, [SP, #24]         ; [DPU_V7M3_PIPE] |813| 
	.dwpsn	file "../OS/stream_buffer.c",line 814,column 1,is_stmt,isa 1
        ADD       SP, SP, #36           ; [DPU_V7M3_PIPE] 
	.dwcfi	cfa_offset, 4
$C$DW$179	.dwtag  DW_TAG_TI_branch
	.dwattr $C$DW$179, DW_AT_low_pc(0x00)
	.dwattr $C$DW$179, DW_AT_TI_return

        POP       {PC}                  ; [DPU_V7M3_PIPE] 
	.dwcfi	cfa_offset, 0
        ; BRANCH OCCURS                  ; [] 
	.dwattr $C$DW$154, DW_AT_TI_end_file("../OS/stream_buffer.c")
	.dwattr $C$DW$154, DW_AT_TI_end_line(0x32e)
	.dwattr $C$DW$154, DW_AT_TI_end_column(0x01)
	.dwendentry
	.dwendtag $C$DW$154

	.sect	".text"
	.clink
	.thumbfunc xStreamBufferNextMessageLengthBytes
	.thumb
	.global	xStreamBufferNextMessageLengthBytes

$C$DW$180	.dwtag  DW_TAG_subprogram
	.dwattr $C$DW$180, DW_AT_name("xStreamBufferNextMessageLengthBytes")
	.dwattr $C$DW$180, DW_AT_low_pc(xStreamBufferNextMessageLengthBytes)
	.dwattr $C$DW$180, DW_AT_high_pc(0x00)
	.dwattr $C$DW$180, DW_AT_TI_symbol_name("xStreamBufferNextMessageLengthBytes")
	.dwattr $C$DW$180, DW_AT_external
	.dwattr $C$DW$180, DW_AT_type(*$C$DW$T$31)
	.dwattr $C$DW$180, DW_AT_TI_begin_file("../OS/stream_buffer.c")
	.dwattr $C$DW$180, DW_AT_TI_begin_line(0x331)
	.dwattr $C$DW$180, DW_AT_TI_begin_column(0x08)
	.dwattr $C$DW$180, DW_AT_decl_file("../OS/stream_buffer.c")
	.dwattr $C$DW$180, DW_AT_decl_line(0x331)
	.dwattr $C$DW$180, DW_AT_decl_column(0x08)
	.dwattr $C$DW$180, DW_AT_TI_max_frame_size(0x20)
	.dwpsn	file "../OS/stream_buffer.c",line 818,column 1,is_stmt,address xStreamBufferNextMessageLengthBytes,isa 1

	.dwfde $C$DW$CIE, xStreamBufferNextMessageLengthBytes
$C$DW$181	.dwtag  DW_TAG_formal_parameter
	.dwattr $C$DW$181, DW_AT_name("xStreamBuffer")
	.dwattr $C$DW$181, DW_AT_TI_symbol_name("xStreamBuffer")
	.dwattr $C$DW$181, DW_AT_type(*$C$DW$T$108)
	.dwattr $C$DW$181, DW_AT_location[DW_OP_reg0]

;----------------------------------------------------------------------
; 817 | size_t xStreamBufferNextMessageLengthBytes( StreamBufferHandle_t xStrea
;     | mBuffer )                                                              
;----------------------------------------------------------------------

;*****************************************************************************
;* FUNCTION NAME: xStreamBufferNextMessageLengthBytes                        *
;*                                                                           *
;*   Regs Modified     : A1,A2,A3,A4,V9,SP,LR,SR,D0,D0_hi,D1,D1_hi,D2,D2_hi, *
;*                           D3,D3_hi,D4,D4_hi,D5,D5_hi,D6,D6_hi,D7,D7_hi,   *
;*                           FPEXC,FPSCR                                     *
;*   Regs Used         : A1,A2,A3,A4,V9,SP,LR,SR,D0,D0_hi,D1,D1_hi,D2,D2_hi, *
;*                           D3,D3_hi,D4,D4_hi,D5,D5_hi,D6,D6_hi,D7,D7_hi,   *
;*                           FPEXC,FPSCR                                     *
;*   Local Frame Size  : 0 Args + 24 Auto + 4 Save = 28 byte                 *
;*****************************************************************************
xStreamBufferNextMessageLengthBytes:
;* --------------------------------------------------------------------------*
	.dwcfi	cfa_offset, 0
        PUSH      {LR}                  ; [DPU_V7M3_PIPE] 
	.dwcfi	cfa_offset, 4
	.dwcfi	save_reg_to_mem, 14, -4
        SUB       SP, SP, #28           ; [DPU_V7M3_PIPE] 
	.dwcfi	cfa_offset, 32
$C$DW$182	.dwtag  DW_TAG_variable
	.dwattr $C$DW$182, DW_AT_name("xStreamBuffer")
	.dwattr $C$DW$182, DW_AT_TI_symbol_name("xStreamBuffer")
	.dwattr $C$DW$182, DW_AT_type(*$C$DW$T$108)
	.dwattr $C$DW$182, DW_AT_location[DW_OP_breg13 0]

$C$DW$183	.dwtag  DW_TAG_variable
	.dwattr $C$DW$183, DW_AT_name("pxStreamBuffer")
	.dwattr $C$DW$183, DW_AT_TI_symbol_name("pxStreamBuffer")
	.dwattr $C$DW$183, DW_AT_type(*$C$DW$T$106)
	.dwattr $C$DW$183, DW_AT_location[DW_OP_breg13 4]

$C$DW$184	.dwtag  DW_TAG_variable
	.dwattr $C$DW$184, DW_AT_name("xReturn")
	.dwattr $C$DW$184, DW_AT_TI_symbol_name("xReturn")
	.dwattr $C$DW$184, DW_AT_type(*$C$DW$T$31)
	.dwattr $C$DW$184, DW_AT_location[DW_OP_breg13 8]

$C$DW$185	.dwtag  DW_TAG_variable
	.dwattr $C$DW$185, DW_AT_name("xBytesAvailable")
	.dwattr $C$DW$185, DW_AT_TI_symbol_name("xBytesAvailable")
	.dwattr $C$DW$185, DW_AT_type(*$C$DW$T$31)
	.dwattr $C$DW$185, DW_AT_location[DW_OP_breg13 12]

$C$DW$186	.dwtag  DW_TAG_variable
	.dwattr $C$DW$186, DW_AT_name("xOriginalTail")
	.dwattr $C$DW$186, DW_AT_TI_symbol_name("xOriginalTail")
	.dwattr $C$DW$186, DW_AT_type(*$C$DW$T$31)
	.dwattr $C$DW$186, DW_AT_location[DW_OP_breg13 16]

$C$DW$187	.dwtag  DW_TAG_variable
	.dwattr $C$DW$187, DW_AT_name("xTempReturn")
	.dwattr $C$DW$187, DW_AT_TI_symbol_name("xTempReturn")
	.dwattr $C$DW$187, DW_AT_type(*$C$DW$T$31)
	.dwattr $C$DW$187, DW_AT_location[DW_OP_breg13 20]

        STR       A1, [SP, #0]          ; [DPU_V7M3_PIPE] |818| 
	.dwpsn	file "../OS/stream_buffer.c",line 819,column 39,is_stmt,isa 1
;----------------------------------------------------------------------
; 819 | StreamBuffer_t * const pxStreamBuffer = xStreamBuffer;                 
; 820 | size_t xReturn, xBytesAvailable, xOriginalTail;                        
; 821 | configMESSAGE_BUFFER_LENGTH_TYPE xTempReturn;                          
;----------------------------------------------------------------------
        LDR       A1, [SP, #0]          ; [DPU_V7M3_PIPE] |819| 
        STR       A1, [SP, #4]          ; [DPU_V7M3_PIPE] |819| 
	.dwpsn	file "../OS/stream_buffer.c",line 823,column 2,is_stmt,isa 1
;----------------------------------------------------------------------
; 823 | configASSERT( pxStreamBuffer );                                        
;----------------------------------------------------------------------
        LDR       A1, [SP, #4]          ; [DPU_V7M3_PIPE] |823| 
        CBNZ      A1, ||$C$L85||        ; [] 
        ; BRANCHCC OCCURS {||$C$L85||}   ; [] |823| 
;* --------------------------------------------------------------------------*
        MOVS      A1, #160              ; [DPU_V7M3_PIPE] |823| 
        MSR       BASEPRI, A1           ; [DPU_V7M3_PIPE] |823| 
	dsb
	isb
;* --------------------------------------------------------------------------*
;*   BEGIN LOOP ||$C$L84||
;*
;*   Loop source line                : 823
;*   Loop closing brace source line  : 823
;*   Known Minimum Trip Count        : 1
;*   Known Maximum Trip Count        : 4294967295
;*   Known Max Trip Count Factor     : 1
;* --------------------------------------------------------------------------*
||$C$L84||:    
        B         ||$C$L84||            ; [DPU_V7M3_PIPE] |823| 
        ; BRANCH OCCURS {||$C$L84||}     ; [] |823| 
;* --------------------------------------------------------------------------*
||$C$L85||:    
	.dwpsn	file "../OS/stream_buffer.c",line 826,column 2,is_stmt,isa 1
;----------------------------------------------------------------------
; 826 | if( ( pxStreamBuffer->ucFlags & sbFLAGS_IS_MESSAGE_BUFFER ) != ( uint8_
;     | t ) 0 )                                                                
;----------------------------------------------------------------------
        LDR       A1, [SP, #4]          ; [DPU_V7M3_PIPE] |826| 
        LDRB      A1, [A1, #28]         ; [DPU_V7M3_PIPE] |826| 
        LSRS      A1, A1, #1            ; [DPU_V7M3_PIPE] |826| 
        BCC       ||$C$L90||            ; [DPU_V7M3_PIPE] |826| 
        ; BRANCHCC OCCURS {||$C$L90||}   ; [] |826| 
;* --------------------------------------------------------------------------*
	.dwpsn	file "../OS/stream_buffer.c",line 828,column 3,is_stmt,isa 1
;----------------------------------------------------------------------
; 828 | xBytesAvailable = prvBytesInBuffer( pxStreamBuffer );                  
;----------------------------------------------------------------------
        LDR       A1, [SP, #4]          ; [DPU_V7M3_PIPE] |828| 
$C$DW$188	.dwtag  DW_TAG_TI_branch
	.dwattr $C$DW$188, DW_AT_low_pc(0x00)
	.dwattr $C$DW$188, DW_AT_name("prvBytesInBuffer")
	.dwattr $C$DW$188, DW_AT_TI_call

        BL        prvBytesInBuffer      ; [DPU_V7M3_PIPE] |828| 
        ; CALL OCCURS {prvBytesInBuffer }  ; [] |828| 
        STR       A1, [SP, #12]         ; [DPU_V7M3_PIPE] |828| 
	.dwpsn	file "../OS/stream_buffer.c",line 829,column 3,is_stmt,isa 1
;----------------------------------------------------------------------
; 829 | if( xBytesAvailable > sbBYTES_TO_STORE_MESSAGE_LENGTH )                
;----------------------------------------------------------------------
        LDR       A1, [SP, #12]         ; [DPU_V7M3_PIPE] |829| 
        CMP       A1, #4                ; [DPU_V7M3_PIPE] |829| 
        BLS       ||$C$L86||            ; [DPU_V7M3_PIPE] |829| 
        ; BRANCHCC OCCURS {||$C$L86||}   ; [] |829| 
;* --------------------------------------------------------------------------*
	.dwpsn	file "../OS/stream_buffer.c",line 837,column 4,is_stmt,isa 1
;----------------------------------------------------------------------
; 837 | xOriginalTail = pxStreamBuffer->xTail;                                 
;----------------------------------------------------------------------
        LDR       A1, [SP, #4]          ; [DPU_V7M3_PIPE] |837| 
        LDR       A1, [A1, #0]          ; [DPU_V7M3_PIPE] |837| 
        STR       A1, [SP, #16]         ; [DPU_V7M3_PIPE] |837| 
	.dwpsn	file "../OS/stream_buffer.c",line 838,column 4,is_stmt,isa 1
;----------------------------------------------------------------------
; 838 | ( void ) prvReadBytesFromBuffer( pxStreamBuffer, ( uint8_t * ) &xTempRe
;     | turn, sbBYTES_TO_STORE_MESSAGE_LENGTH, xBytesAvailable );              
;----------------------------------------------------------------------
        LDR       A4, [SP, #12]         ; [DPU_V7M3_PIPE] |838| 
        LDR       A1, [SP, #4]          ; [DPU_V7M3_PIPE] |838| 
        ADD       A2, SP, #20           ; [DPU_V7M3_PIPE] |838| 
        MOVS      A3, #4                ; [DPU_V7M3_PIPE] |838| 
$C$DW$189	.dwtag  DW_TAG_TI_branch
	.dwattr $C$DW$189, DW_AT_low_pc(0x00)
	.dwattr $C$DW$189, DW_AT_name("prvReadBytesFromBuffer")
	.dwattr $C$DW$189, DW_AT_TI_call

        BL        prvReadBytesFromBuffer ; [DPU_V7M3_PIPE] |838| 
        ; CALL OCCURS {prvReadBytesFromBuffer }  ; [] |838| 
	.dwpsn	file "../OS/stream_buffer.c",line 839,column 4,is_stmt,isa 1
;----------------------------------------------------------------------
; 839 | xReturn = ( size_t ) xTempReturn;                                      
;----------------------------------------------------------------------
        LDR       A1, [SP, #20]         ; [DPU_V7M3_PIPE] |839| 
        STR       A1, [SP, #8]          ; [DPU_V7M3_PIPE] |839| 
	.dwpsn	file "../OS/stream_buffer.c",line 840,column 4,is_stmt,isa 1
;----------------------------------------------------------------------
; 840 | pxStreamBuffer->xTail = xOriginalTail;                                 
;----------------------------------------------------------------------
        LDR       A2, [SP, #4]          ; [DPU_V7M3_PIPE] |840| 
        LDR       A1, [SP, #16]         ; [DPU_V7M3_PIPE] |840| 
        STR       A1, [A2, #0]          ; [DPU_V7M3_PIPE] |840| 
	.dwpsn	file "../OS/stream_buffer.c",line 841,column 3,is_stmt,isa 1
;----------------------------------------------------------------------
; 842 | else                                                                   
;----------------------------------------------------------------------
        B         ||$C$L91||            ; [DPU_V7M3_PIPE] |841| 
        ; BRANCH OCCURS {||$C$L91||}     ; [] |841| 
;* --------------------------------------------------------------------------*
||$C$L86||:    
	.dwpsn	file "../OS/stream_buffer.c",line 848,column 4,is_stmt,isa 1
;----------------------------------------------------------------------
; 848 | configASSERT( xBytesAvailable == 0 );                                  
;----------------------------------------------------------------------
        LDR       A2, [SP, #12]         ; [DPU_V7M3_PIPE] |848| 
        MOVS      A1, #0                ; [DPU_V7M3_PIPE] |848| 
        CBNZ      A2, ||$C$L87||        ; [] 
        ; BRANCHCC OCCURS {||$C$L87||}   ; [] |848| 
;* --------------------------------------------------------------------------*
        MOVS      A1, #1                ; [DPU_V7M3_PIPE] |848| 
;* --------------------------------------------------------------------------*
||$C$L87||:    
        CBNZ      A1, ||$C$L89||        ; [] 
        ; BRANCHCC OCCURS {||$C$L89||}   ; [] |848| 
;* --------------------------------------------------------------------------*
        MOVS      A1, #160              ; [DPU_V7M3_PIPE] |848| 
        MSR       BASEPRI, A1           ; [DPU_V7M3_PIPE] |848| 
	dsb
	isb
;* --------------------------------------------------------------------------*
;*   BEGIN LOOP ||$C$L88||
;*
;*   Loop source line                : 848
;*   Loop closing brace source line  : 848
;*   Known Minimum Trip Count        : 1
;*   Known Maximum Trip Count        : 4294967295
;*   Known Max Trip Count Factor     : 1
;* --------------------------------------------------------------------------*
||$C$L88||:    
        B         ||$C$L88||            ; [DPU_V7M3_PIPE] |848| 
        ; BRANCH OCCURS {||$C$L88||}     ; [] |848| 
;* --------------------------------------------------------------------------*
||$C$L89||:    
	.dwpsn	file "../OS/stream_buffer.c",line 849,column 4,is_stmt,isa 1
;----------------------------------------------------------------------
; 849 | xReturn = 0;                                                           
;----------------------------------------------------------------------
        MOVS      A1, #0                ; [DPU_V7M3_PIPE] |849| 
        STR       A1, [SP, #8]          ; [DPU_V7M3_PIPE] |849| 
	.dwpsn	file "../OS/stream_buffer.c",line 851,column 2,is_stmt,isa 1
;----------------------------------------------------------------------
; 852 | else                                                                   
;----------------------------------------------------------------------
        B         ||$C$L91||            ; [DPU_V7M3_PIPE] |851| 
        ; BRANCH OCCURS {||$C$L91||}     ; [] |851| 
;* --------------------------------------------------------------------------*
||$C$L90||:    
	.dwpsn	file "../OS/stream_buffer.c",line 854,column 3,is_stmt,isa 1
;----------------------------------------------------------------------
; 854 | xReturn = 0;                                                           
;----------------------------------------------------------------------
        MOVS      A1, #0                ; [DPU_V7M3_PIPE] |854| 
        STR       A1, [SP, #8]          ; [DPU_V7M3_PIPE] |854| 
;* --------------------------------------------------------------------------*
||$C$L91||:    
	.dwpsn	file "../OS/stream_buffer.c",line 857,column 2,is_stmt,isa 1
;----------------------------------------------------------------------
; 857 | return xReturn;                                                        
;----------------------------------------------------------------------
        LDR       A1, [SP, #8]          ; [DPU_V7M3_PIPE] |857| 
	.dwpsn	file "../OS/stream_buffer.c",line 858,column 1,is_stmt,isa 1
        ADD       SP, SP, #28           ; [DPU_V7M3_PIPE] 
	.dwcfi	cfa_offset, 4
$C$DW$190	.dwtag  DW_TAG_TI_branch
	.dwattr $C$DW$190, DW_AT_low_pc(0x00)
	.dwattr $C$DW$190, DW_AT_TI_return

        POP       {PC}                  ; [DPU_V7M3_PIPE] 
	.dwcfi	cfa_offset, 0
        ; BRANCH OCCURS                  ; [] 
	.dwattr $C$DW$180, DW_AT_TI_end_file("../OS/stream_buffer.c")
	.dwattr $C$DW$180, DW_AT_TI_end_line(0x35a)
	.dwattr $C$DW$180, DW_AT_TI_end_column(0x01)
	.dwendentry
	.dwendtag $C$DW$180

	.sect	".text"
	.clink
	.thumbfunc xStreamBufferReceiveFromISR
	.thumb
	.global	xStreamBufferReceiveFromISR

$C$DW$191	.dwtag  DW_TAG_subprogram
	.dwattr $C$DW$191, DW_AT_name("xStreamBufferReceiveFromISR")
	.dwattr $C$DW$191, DW_AT_low_pc(xStreamBufferReceiveFromISR)
	.dwattr $C$DW$191, DW_AT_high_pc(0x00)
	.dwattr $C$DW$191, DW_AT_TI_symbol_name("xStreamBufferReceiveFromISR")
	.dwattr $C$DW$191, DW_AT_external
	.dwattr $C$DW$191, DW_AT_type(*$C$DW$T$31)
	.dwattr $C$DW$191, DW_AT_TI_begin_file("../OS/stream_buffer.c")
	.dwattr $C$DW$191, DW_AT_TI_begin_line(0x35d)
	.dwattr $C$DW$191, DW_AT_TI_begin_column(0x08)
	.dwattr $C$DW$191, DW_AT_decl_file("../OS/stream_buffer.c")
	.dwattr $C$DW$191, DW_AT_decl_line(0x35d)
	.dwattr $C$DW$191, DW_AT_decl_column(0x08)
	.dwattr $C$DW$191, DW_AT_TI_max_frame_size(0x30)
	.dwpsn	file "../OS/stream_buffer.c",line 865,column 1,is_stmt,address xStreamBufferReceiveFromISR,isa 1

	.dwfde $C$DW$CIE, xStreamBufferReceiveFromISR
$C$DW$192	.dwtag  DW_TAG_formal_parameter
	.dwattr $C$DW$192, DW_AT_name("xStreamBuffer")
	.dwattr $C$DW$192, DW_AT_TI_symbol_name("xStreamBuffer")
	.dwattr $C$DW$192, DW_AT_type(*$C$DW$T$108)
	.dwattr $C$DW$192, DW_AT_location[DW_OP_reg0]

$C$DW$193	.dwtag  DW_TAG_formal_parameter
	.dwattr $C$DW$193, DW_AT_name("pvRxData")
	.dwattr $C$DW$193, DW_AT_TI_symbol_name("pvRxData")
	.dwattr $C$DW$193, DW_AT_type(*$C$DW$T$3)
	.dwattr $C$DW$193, DW_AT_location[DW_OP_reg1]

$C$DW$194	.dwtag  DW_TAG_formal_parameter
	.dwattr $C$DW$194, DW_AT_name("xBufferLengthBytes")
	.dwattr $C$DW$194, DW_AT_TI_symbol_name("xBufferLengthBytes")
	.dwattr $C$DW$194, DW_AT_type(*$C$DW$T$31)
	.dwattr $C$DW$194, DW_AT_location[DW_OP_reg2]

$C$DW$195	.dwtag  DW_TAG_formal_parameter
	.dwattr $C$DW$195, DW_AT_name("pxHigherPriorityTaskWoken")
	.dwattr $C$DW$195, DW_AT_TI_symbol_name("pxHigherPriorityTaskWoken")
	.dwattr $C$DW$195, DW_AT_type(*$C$DW$T$218)
	.dwattr $C$DW$195, DW_AT_location[DW_OP_reg3]

;----------------------------------------------------------------------
; 861 | size_t xStreamBufferReceiveFromISR( StreamBufferHandle_t xStreamBuffer,
; 862 | void *pvRxData,                                                        
; 863 | size_t xBufferLengthBytes,                                             
; 864 | BaseType_t * const pxHigherPriorityTaskWoken )                         
;----------------------------------------------------------------------

;*****************************************************************************
;* FUNCTION NAME: xStreamBufferReceiveFromISR                                *
;*                                                                           *
;*   Regs Modified     : A1,A2,A3,A4,V9,SP,LR,SR,D0,D0_hi,D1,D1_hi,D2,D2_hi, *
;*                           D3,D3_hi,D4,D4_hi,D5,D5_hi,D6,D6_hi,D7,D7_hi,   *
;*                           FPEXC,FPSCR                                     *
;*   Regs Used         : A1,A2,A3,A4,V9,SP,LR,SR,D0,D0_hi,D1,D1_hi,D2,D2_hi, *
;*                           D3,D3_hi,D4,D4_hi,D5,D5_hi,D6,D6_hi,D7,D7_hi,   *
;*                           FPEXC,FPSCR                                     *
;*   Local Frame Size  : 4 Args + 36 Auto + 4 Save = 44 byte                 *
;*****************************************************************************
xStreamBufferReceiveFromISR:
;* --------------------------------------------------------------------------*
	.dwcfi	cfa_offset, 0
        PUSH      {LR}                  ; [DPU_V7M3_PIPE] 
	.dwcfi	cfa_offset, 4
	.dwcfi	save_reg_to_mem, 14, -4
        SUB       SP, SP, #44           ; [DPU_V7M3_PIPE] 
	.dwcfi	cfa_offset, 48
$C$DW$196	.dwtag  DW_TAG_variable
	.dwattr $C$DW$196, DW_AT_name("xStreamBuffer")
	.dwattr $C$DW$196, DW_AT_TI_symbol_name("xStreamBuffer")
	.dwattr $C$DW$196, DW_AT_type(*$C$DW$T$108)
	.dwattr $C$DW$196, DW_AT_location[DW_OP_breg13 4]

$C$DW$197	.dwtag  DW_TAG_variable
	.dwattr $C$DW$197, DW_AT_name("pvRxData")
	.dwattr $C$DW$197, DW_AT_TI_symbol_name("pvRxData")
	.dwattr $C$DW$197, DW_AT_type(*$C$DW$T$3)
	.dwattr $C$DW$197, DW_AT_location[DW_OP_breg13 8]

$C$DW$198	.dwtag  DW_TAG_variable
	.dwattr $C$DW$198, DW_AT_name("xBufferLengthBytes")
	.dwattr $C$DW$198, DW_AT_TI_symbol_name("xBufferLengthBytes")
	.dwattr $C$DW$198, DW_AT_type(*$C$DW$T$31)
	.dwattr $C$DW$198, DW_AT_location[DW_OP_breg13 12]

$C$DW$199	.dwtag  DW_TAG_variable
	.dwattr $C$DW$199, DW_AT_name("pxHigherPriorityTaskWoken")
	.dwattr $C$DW$199, DW_AT_TI_symbol_name("pxHigherPriorityTaskWoken")
	.dwattr $C$DW$199, DW_AT_type(*$C$DW$T$218)
	.dwattr $C$DW$199, DW_AT_location[DW_OP_breg13 16]

$C$DW$200	.dwtag  DW_TAG_variable
	.dwattr $C$DW$200, DW_AT_name("pxStreamBuffer")
	.dwattr $C$DW$200, DW_AT_TI_symbol_name("pxStreamBuffer")
	.dwattr $C$DW$200, DW_AT_type(*$C$DW$T$106)
	.dwattr $C$DW$200, DW_AT_location[DW_OP_breg13 20]

$C$DW$201	.dwtag  DW_TAG_variable
	.dwattr $C$DW$201, DW_AT_name("xReceivedLength")
	.dwattr $C$DW$201, DW_AT_TI_symbol_name("xReceivedLength")
	.dwattr $C$DW$201, DW_AT_type(*$C$DW$T$31)
	.dwattr $C$DW$201, DW_AT_location[DW_OP_breg13 24]

$C$DW$202	.dwtag  DW_TAG_variable
	.dwattr $C$DW$202, DW_AT_name("xBytesAvailable")
	.dwattr $C$DW$202, DW_AT_TI_symbol_name("xBytesAvailable")
	.dwattr $C$DW$202, DW_AT_type(*$C$DW$T$31)
	.dwattr $C$DW$202, DW_AT_location[DW_OP_breg13 28]

$C$DW$203	.dwtag  DW_TAG_variable
	.dwattr $C$DW$203, DW_AT_name("xBytesToStoreMessageLength")
	.dwattr $C$DW$203, DW_AT_TI_symbol_name("xBytesToStoreMessageLength")
	.dwattr $C$DW$203, DW_AT_type(*$C$DW$T$31)
	.dwattr $C$DW$203, DW_AT_location[DW_OP_breg13 32]

        STR       A4, [SP, #16]         ; [DPU_V7M3_PIPE] |865| 
        STR       A3, [SP, #12]         ; [DPU_V7M3_PIPE] |865| 
        STR       A2, [SP, #8]          ; [DPU_V7M3_PIPE] |865| 
        STR       A1, [SP, #4]          ; [DPU_V7M3_PIPE] |865| 
	.dwpsn	file "../OS/stream_buffer.c",line 866,column 39,is_stmt,isa 1
;----------------------------------------------------------------------
; 866 | StreamBuffer_t * const pxStreamBuffer = xStreamBuffer;                 
;----------------------------------------------------------------------
        LDR       A1, [SP, #4]          ; [DPU_V7M3_PIPE] |866| 
        STR       A1, [SP, #20]         ; [DPU_V7M3_PIPE] |866| 
	.dwpsn	file "../OS/stream_buffer.c",line 867,column 24,is_stmt,isa 1
;----------------------------------------------------------------------
; 867 | size_t xReceivedLength = 0, xBytesAvailable, xBytesToStoreMessageLength
;     | ;                                                                      
;----------------------------------------------------------------------
        MOVS      A1, #0                ; [DPU_V7M3_PIPE] |867| 
        STR       A1, [SP, #24]         ; [DPU_V7M3_PIPE] |867| 
	.dwpsn	file "../OS/stream_buffer.c",line 869,column 2,is_stmt,isa 1
;----------------------------------------------------------------------
; 869 | configASSERT( pvRxData );                                              
;----------------------------------------------------------------------
        LDR       A1, [SP, #8]          ; [DPU_V7M3_PIPE] |869| 
        CBNZ      A1, ||$C$L93||        ; [] 
        ; BRANCHCC OCCURS {||$C$L93||}   ; [] |869| 
;* --------------------------------------------------------------------------*
        MOVS      A1, #160              ; [DPU_V7M3_PIPE] |869| 
        MSR       BASEPRI, A1           ; [DPU_V7M3_PIPE] |869| 
	dsb
	isb
;* --------------------------------------------------------------------------*
;*   BEGIN LOOP ||$C$L92||
;*
;*   Loop source line                : 869
;*   Loop closing brace source line  : 869
;*   Known Minimum Trip Count        : 1
;*   Known Maximum Trip Count        : 4294967295
;*   Known Max Trip Count Factor     : 1
;* --------------------------------------------------------------------------*
||$C$L92||:    
        B         ||$C$L92||            ; [DPU_V7M3_PIPE] |869| 
        ; BRANCH OCCURS {||$C$L92||}     ; [] |869| 
;* --------------------------------------------------------------------------*
||$C$L93||:    
	.dwpsn	file "../OS/stream_buffer.c",line 870,column 2,is_stmt,isa 1
;----------------------------------------------------------------------
; 870 | configASSERT( pxStreamBuffer );                                        
;----------------------------------------------------------------------
        LDR       A1, [SP, #20]         ; [DPU_V7M3_PIPE] |870| 
        CBNZ      A1, ||$C$L95||        ; [] 
        ; BRANCHCC OCCURS {||$C$L95||}   ; [] |870| 
;* --------------------------------------------------------------------------*
        MOVS      A1, #160              ; [DPU_V7M3_PIPE] |870| 
        MSR       BASEPRI, A1           ; [DPU_V7M3_PIPE] |870| 
	dsb
	isb
;* --------------------------------------------------------------------------*
;*   BEGIN LOOP ||$C$L94||
;*
;*   Loop source line                : 870
;*   Loop closing brace source line  : 870
;*   Known Minimum Trip Count        : 1
;*   Known Maximum Trip Count        : 4294967295
;*   Known Max Trip Count Factor     : 1
;* --------------------------------------------------------------------------*
||$C$L94||:    
        B         ||$C$L94||            ; [DPU_V7M3_PIPE] |870| 
        ; BRANCH OCCURS {||$C$L94||}     ; [] |870| 
;* --------------------------------------------------------------------------*
||$C$L95||:    
	.dwpsn	file "../OS/stream_buffer.c",line 877,column 2,is_stmt,isa 1
;----------------------------------------------------------------------
; 877 | if( ( pxStreamBuffer->ucFlags & sbFLAGS_IS_MESSAGE_BUFFER ) != ( uint8_
;     | t ) 0 )                                                                
;----------------------------------------------------------------------
        LDR       A1, [SP, #20]         ; [DPU_V7M3_PIPE] |877| 
        LDRB      A1, [A1, #28]         ; [DPU_V7M3_PIPE] |877| 
        LSRS      A1, A1, #1            ; [DPU_V7M3_PIPE] |877| 
        BCC       ||$C$L96||            ; [DPU_V7M3_PIPE] |877| 
        ; BRANCHCC OCCURS {||$C$L96||}   ; [] |877| 
;* --------------------------------------------------------------------------*
	.dwpsn	file "../OS/stream_buffer.c",line 879,column 3,is_stmt,isa 1
;----------------------------------------------------------------------
; 879 | xBytesToStoreMessageLength = sbBYTES_TO_STORE_MESSAGE_LENGTH;          
;----------------------------------------------------------------------
        MOVS      A1, #4                ; [DPU_V7M3_PIPE] |879| 
        STR       A1, [SP, #32]         ; [DPU_V7M3_PIPE] |879| 
	.dwpsn	file "../OS/stream_buffer.c",line 880,column 2,is_stmt,isa 1
;----------------------------------------------------------------------
; 881 | else                                                                   
;----------------------------------------------------------------------
        B         ||$C$L97||            ; [DPU_V7M3_PIPE] |880| 
        ; BRANCH OCCURS {||$C$L97||}     ; [] |880| 
;* --------------------------------------------------------------------------*
||$C$L96||:    
	.dwpsn	file "../OS/stream_buffer.c",line 883,column 3,is_stmt,isa 1
;----------------------------------------------------------------------
; 883 | xBytesToStoreMessageLength = 0;                                        
;----------------------------------------------------------------------
        MOVS      A1, #0                ; [DPU_V7M3_PIPE] |883| 
        STR       A1, [SP, #32]         ; [DPU_V7M3_PIPE] |883| 
;* --------------------------------------------------------------------------*
||$C$L97||:    
	.dwpsn	file "../OS/stream_buffer.c",line 886,column 2,is_stmt,isa 1
;----------------------------------------------------------------------
; 886 | xBytesAvailable = prvBytesInBuffer( pxStreamBuffer );                  
;----------------------------------------------------------------------
        LDR       A1, [SP, #20]         ; [DPU_V7M3_PIPE] |886| 
$C$DW$204	.dwtag  DW_TAG_TI_branch
	.dwattr $C$DW$204, DW_AT_low_pc(0x00)
	.dwattr $C$DW$204, DW_AT_name("prvBytesInBuffer")
	.dwattr $C$DW$204, DW_AT_TI_call

        BL        prvBytesInBuffer      ; [DPU_V7M3_PIPE] |886| 
        ; CALL OCCURS {prvBytesInBuffer }  ; [] |886| 
        STR       A1, [SP, #28]         ; [DPU_V7M3_PIPE] |886| 
	.dwpsn	file "../OS/stream_buffer.c",line 893,column 2,is_stmt,isa 1
;----------------------------------------------------------------------
; 893 | if( xBytesAvailable > xBytesToStoreMessageLength )                     
;----------------------------------------------------------------------
        LDR       A1, [SP, #32]         ; [DPU_V7M3_PIPE] |893| 
        LDR       A2, [SP, #28]         ; [DPU_V7M3_PIPE] |893| 
        CMP       A1, A2                ; [DPU_V7M3_PIPE] |893| 
        BCS       ||$C$L99||            ; [DPU_V7M3_PIPE] |893| 
        ; BRANCHCC OCCURS {||$C$L99||}   ; [] |893| 
;* --------------------------------------------------------------------------*

$C$DW$205	.dwtag  DW_TAG_lexical_block
	.dwattr $C$DW$205, DW_AT_low_pc(0x00)
	.dwattr $C$DW$205, DW_AT_high_pc(0x00)
	.dwpsn	file "../OS/stream_buffer.c",line 895,column 3,is_stmt,isa 1
;----------------------------------------------------------------------
; 895 | xReceivedLength = prvReadMessageFromBuffer( pxStreamBuffer, pvRxData, x
;     | BufferLengthBytes, xBytesAvailable, xBytesToStoreMessageLength );      
;----------------------------------------------------------------------
        LDR       A1, [SP, #32]         ; [DPU_V7M3_PIPE] |895| 
        STR       A1, [SP, #0]          ; [DPU_V7M3_PIPE] |895| 
        LDR       A2, [SP, #8]          ; [DPU_V7M3_PIPE] |895| 
        LDR       A3, [SP, #12]         ; [DPU_V7M3_PIPE] |895| 
        LDR       A4, [SP, #28]         ; [DPU_V7M3_PIPE] |895| 
        LDR       A1, [SP, #20]         ; [DPU_V7M3_PIPE] |895| 
$C$DW$206	.dwtag  DW_TAG_TI_branch
	.dwattr $C$DW$206, DW_AT_low_pc(0x00)
	.dwattr $C$DW$206, DW_AT_name("prvReadMessageFromBuffer")
	.dwattr $C$DW$206, DW_AT_TI_call

        BL        prvReadMessageFromBuffer ; [DPU_V7M3_PIPE] |895| 
        ; CALL OCCURS {prvReadMessageFromBuffer }  ; [] |895| 
        STR       A1, [SP, #24]         ; [DPU_V7M3_PIPE] |895| 
	.dwpsn	file "../OS/stream_buffer.c",line 898,column 3,is_stmt,isa 1
;----------------------------------------------------------------------
; 898 | if( xReceivedLength != ( size_t ) 0 )                                  
;----------------------------------------------------------------------
        LDR       A1, [SP, #24]         ; [DPU_V7M3_PIPE] |898| 
        CBZ       A1, ||$C$L99||        ; [] 
        ; BRANCHCC OCCURS {||$C$L99||}   ; [] |898| 
;* --------------------------------------------------------------------------*

$C$DW$207	.dwtag  DW_TAG_lexical_block
	.dwattr $C$DW$207, DW_AT_low_pc(0x00)
	.dwattr $C$DW$207, DW_AT_high_pc(0x00)

$C$DW$208	.dwtag  DW_TAG_lexical_block
	.dwattr $C$DW$208, DW_AT_low_pc(0x00)
	.dwattr $C$DW$208, DW_AT_high_pc(0x00)
$C$DW$209	.dwtag  DW_TAG_variable
	.dwattr $C$DW$209, DW_AT_name("uxSavedInterruptStatus")
	.dwattr $C$DW$209, DW_AT_TI_symbol_name("uxSavedInterruptStatus")
	.dwattr $C$DW$209, DW_AT_type(*$C$DW$T$26)
	.dwattr $C$DW$209, DW_AT_location[DW_OP_breg13 36]

	.dwpsn	file "../OS/stream_buffer.c",line 900,column 4,is_stmt,isa 1
;----------------------------------------------------------------------
; 900 | sbRECEIVE_COMPLETED_FROM_ISR( pxStreamBuffer, pxHigherPriorityTaskWoken
;     |  );                                                                    
;----------------------------------------------------------------------
        MOVS      A1, #160              ; [DPU_V7M3_PIPE] |900| 
        MRS       A2, BASEPRI           ; [DPU_V7M3_PIPE] |900| 
        MSR       BASEPRI, A1           ; [DPU_V7M3_PIPE] |900| 
        STR       A2, [SP, #36]         ; [DPU_V7M3_PIPE] |900| 
	dsb
	isb
        LDR       A1, [SP, #20]         ; [DPU_V7M3_PIPE] |900| 
        LDR       A1, [A1, #20]         ; [DPU_V7M3_PIPE] |900| 
        CBZ       A1, ||$C$L98||        ; [] 
        ; BRANCHCC OCCURS {||$C$L98||}   ; [] |900| 
;* --------------------------------------------------------------------------*
        LDR       A1, [SP, #16]         ; [DPU_V7M3_PIPE] |900| 
        STR       A1, [SP, #0]          ; [DPU_V7M3_PIPE] |900| 
        LDR       A1, [SP, #20]         ; [DPU_V7M3_PIPE] |900| 
        LDR       A1, [A1, #20]         ; [DPU_V7M3_PIPE] |900| 
        MOVS      A2, #0                ; [DPU_V7M3_PIPE] |900| 
        MOVS      A3, #0                ; [DPU_V7M3_PIPE] |900| 
        MOVS      A4, #0                ; [DPU_V7M3_PIPE] |900| 
$C$DW$210	.dwtag  DW_TAG_TI_branch
	.dwattr $C$DW$210, DW_AT_low_pc(0x00)
	.dwattr $C$DW$210, DW_AT_name("xTaskGenericNotifyFromISR")
	.dwattr $C$DW$210, DW_AT_TI_call

        BL        xTaskGenericNotifyFromISR ; [DPU_V7M3_PIPE] |900| 
        ; CALL OCCURS {xTaskGenericNotifyFromISR }  ; [] |900| 
        LDR       A1, [SP, #20]         ; [DPU_V7M3_PIPE] |900| 
        MOVS      A2, #0                ; [DPU_V7M3_PIPE] |900| 
        STR       A2, [A1, #20]         ; [DPU_V7M3_PIPE] |900| 
;* --------------------------------------------------------------------------*
||$C$L98||:    
        LDR       A1, [SP, #36]         ; [DPU_V7M3_PIPE] |900| 
        MSR       BASEPRI, A1           ; [DPU_V7M3_PIPE] |900| 
	.dwendtag $C$DW$208

	.dwendtag $C$DW$207

	.dwpsn	file "../OS/stream_buffer.c",line 901,column 3,is_stmt,isa 1
;----------------------------------------------------------------------
; 902 | else                                                                   
; 904 |         mtCOVERAGE_TEST_MARKER();                                      
; 907 | else                                                                   
; 909 | mtCOVERAGE_TEST_MARKER();                                              
; 912 | traceSTREAM_BUFFER_RECEIVE_FROM_ISR( xStreamBuffer, xReceivedLength ); 
;----------------------------------------------------------------------
        B         ||$C$L99||            ; [DPU_V7M3_PIPE] |901| 
        ; BRANCH OCCURS {||$C$L99||}     ; [] |901| 
;* --------------------------------------------------------------------------*
	.dwendtag $C$DW$205

;* --------------------------------------------------------------------------*
||$C$L99||:    
	.dwpsn	file "../OS/stream_buffer.c",line 914,column 2,is_stmt,isa 1
;----------------------------------------------------------------------
; 914 | return xReceivedLength;                                                
;----------------------------------------------------------------------
        LDR       A1, [SP, #24]         ; [DPU_V7M3_PIPE] |914| 
	.dwpsn	file "../OS/stream_buffer.c",line 915,column 1,is_stmt,isa 1
        ADD       SP, SP, #44           ; [DPU_V7M3_PIPE] 
	.dwcfi	cfa_offset, 4
$C$DW$211	.dwtag  DW_TAG_TI_branch
	.dwattr $C$DW$211, DW_AT_low_pc(0x00)
	.dwattr $C$DW$211, DW_AT_TI_return

        POP       {PC}                  ; [DPU_V7M3_PIPE] 
	.dwcfi	cfa_offset, 0
        ; BRANCH OCCURS                  ; [] 
	.dwattr $C$DW$191, DW_AT_TI_end_file("../OS/stream_buffer.c")
	.dwattr $C$DW$191, DW_AT_TI_end_line(0x393)
	.dwattr $C$DW$191, DW_AT_TI_end_column(0x01)
	.dwendentry
	.dwendtag $C$DW$191

	.sect	".text"
	.clink
	.thumbfunc prvReadMessageFromBuffer
	.thumb

$C$DW$212	.dwtag  DW_TAG_subprogram
	.dwattr $C$DW$212, DW_AT_name("prvReadMessageFromBuffer")
	.dwattr $C$DW$212, DW_AT_low_pc(prvReadMessageFromBuffer)
	.dwattr $C$DW$212, DW_AT_high_pc(0x00)
	.dwattr $C$DW$212, DW_AT_TI_symbol_name("prvReadMessageFromBuffer")
	.dwattr $C$DW$212, DW_AT_type(*$C$DW$T$31)
	.dwattr $C$DW$212, DW_AT_TI_begin_file("../OS/stream_buffer.c")
	.dwattr $C$DW$212, DW_AT_TI_begin_line(0x396)
	.dwattr $C$DW$212, DW_AT_TI_begin_column(0x0f)
	.dwattr $C$DW$212, DW_AT_decl_file("../OS/stream_buffer.c")
	.dwattr $C$DW$212, DW_AT_decl_line(0x396)
	.dwattr $C$DW$212, DW_AT_decl_column(0x0f)
	.dwattr $C$DW$212, DW_AT_TI_max_frame_size(0x28)
	.dwpsn	file "../OS/stream_buffer.c",line 923,column 1,is_stmt,address prvReadMessageFromBuffer,isa 1

	.dwfde $C$DW$CIE, prvReadMessageFromBuffer
$C$DW$213	.dwtag  DW_TAG_formal_parameter
	.dwattr $C$DW$213, DW_AT_name("pxStreamBuffer")
	.dwattr $C$DW$213, DW_AT_TI_symbol_name("pxStreamBuffer")
	.dwattr $C$DW$213, DW_AT_type(*$C$DW$T$105)
	.dwattr $C$DW$213, DW_AT_location[DW_OP_reg0]

$C$DW$214	.dwtag  DW_TAG_formal_parameter
	.dwattr $C$DW$214, DW_AT_name("pvRxData")
	.dwattr $C$DW$214, DW_AT_TI_symbol_name("pvRxData")
	.dwattr $C$DW$214, DW_AT_type(*$C$DW$T$3)
	.dwattr $C$DW$214, DW_AT_location[DW_OP_reg1]

$C$DW$215	.dwtag  DW_TAG_formal_parameter
	.dwattr $C$DW$215, DW_AT_name("xBufferLengthBytes")
	.dwattr $C$DW$215, DW_AT_TI_symbol_name("xBufferLengthBytes")
	.dwattr $C$DW$215, DW_AT_type(*$C$DW$T$31)
	.dwattr $C$DW$215, DW_AT_location[DW_OP_reg2]

$C$DW$216	.dwtag  DW_TAG_formal_parameter
	.dwattr $C$DW$216, DW_AT_name("xBytesAvailable")
	.dwattr $C$DW$216, DW_AT_TI_symbol_name("xBytesAvailable")
	.dwattr $C$DW$216, DW_AT_type(*$C$DW$T$31)
	.dwattr $C$DW$216, DW_AT_location[DW_OP_reg3]

$C$DW$217	.dwtag  DW_TAG_formal_parameter
	.dwattr $C$DW$217, DW_AT_name("xBytesToStoreMessageLength")
	.dwattr $C$DW$217, DW_AT_TI_symbol_name("xBytesToStoreMessageLength")
	.dwattr $C$DW$217, DW_AT_type(*$C$DW$T$31)
	.dwattr $C$DW$217, DW_AT_location[DW_OP_breg13 40]

;----------------------------------------------------------------------
; 918 | static size_t prvReadMessageFromBuffer( StreamBuffer_t *pxStreamBuffer,
; 919 | void *pvRxData,                                                        
; 920 | size_t xBufferLengthBytes,                                             
; 921 | size_t xBytesAvailable,                                                
; 922 | size_t xBytesToStoreMessageLength )                                    
;----------------------------------------------------------------------

;*****************************************************************************
;* FUNCTION NAME: prvReadMessageFromBuffer                                   *
;*                                                                           *
;*   Regs Modified     : A1,A2,A3,A4,V9,SP,LR,SR,D0,D0_hi,D1,D1_hi,D2,D2_hi, *
;*                           D3,D3_hi,D4,D4_hi,D5,D5_hi,D6,D6_hi,D7,D7_hi,   *
;*                           FPEXC,FPSCR                                     *
;*   Regs Used         : A1,A2,A3,A4,V9,SP,LR,SR,D0,D0_hi,D1,D1_hi,D2,D2_hi, *
;*                           D3,D3_hi,D4,D4_hi,D5,D5_hi,D6,D6_hi,D7,D7_hi,   *
;*                           FPEXC,FPSCR                                     *
;*   Local Frame Size  : 0 Args + 32 Auto + 4 Save = 36 byte                 *
;*****************************************************************************
prvReadMessageFromBuffer:
;* --------------------------------------------------------------------------*
	.dwcfi	cfa_offset, 0
        PUSH      {LR}                  ; [DPU_V7M3_PIPE] 
	.dwcfi	cfa_offset, 4
	.dwcfi	save_reg_to_mem, 14, -4
        SUB       SP, SP, #36           ; [DPU_V7M3_PIPE] 
	.dwcfi	cfa_offset, 40
$C$DW$218	.dwtag  DW_TAG_variable
	.dwattr $C$DW$218, DW_AT_name("pxStreamBuffer")
	.dwattr $C$DW$218, DW_AT_TI_symbol_name("pxStreamBuffer")
	.dwattr $C$DW$218, DW_AT_type(*$C$DW$T$105)
	.dwattr $C$DW$218, DW_AT_location[DW_OP_breg13 0]

$C$DW$219	.dwtag  DW_TAG_variable
	.dwattr $C$DW$219, DW_AT_name("pvRxData")
	.dwattr $C$DW$219, DW_AT_TI_symbol_name("pvRxData")
	.dwattr $C$DW$219, DW_AT_type(*$C$DW$T$3)
	.dwattr $C$DW$219, DW_AT_location[DW_OP_breg13 4]

$C$DW$220	.dwtag  DW_TAG_variable
	.dwattr $C$DW$220, DW_AT_name("xBufferLengthBytes")
	.dwattr $C$DW$220, DW_AT_TI_symbol_name("xBufferLengthBytes")
	.dwattr $C$DW$220, DW_AT_type(*$C$DW$T$31)
	.dwattr $C$DW$220, DW_AT_location[DW_OP_breg13 8]

$C$DW$221	.dwtag  DW_TAG_variable
	.dwattr $C$DW$221, DW_AT_name("xBytesAvailable")
	.dwattr $C$DW$221, DW_AT_TI_symbol_name("xBytesAvailable")
	.dwattr $C$DW$221, DW_AT_type(*$C$DW$T$31)
	.dwattr $C$DW$221, DW_AT_location[DW_OP_breg13 12]

$C$DW$222	.dwtag  DW_TAG_variable
	.dwattr $C$DW$222, DW_AT_name("xOriginalTail")
	.dwattr $C$DW$222, DW_AT_TI_symbol_name("xOriginalTail")
	.dwattr $C$DW$222, DW_AT_type(*$C$DW$T$31)
	.dwattr $C$DW$222, DW_AT_location[DW_OP_breg13 16]

$C$DW$223	.dwtag  DW_TAG_variable
	.dwattr $C$DW$223, DW_AT_name("xReceivedLength")
	.dwattr $C$DW$223, DW_AT_TI_symbol_name("xReceivedLength")
	.dwattr $C$DW$223, DW_AT_type(*$C$DW$T$31)
	.dwattr $C$DW$223, DW_AT_location[DW_OP_breg13 20]

$C$DW$224	.dwtag  DW_TAG_variable
	.dwattr $C$DW$224, DW_AT_name("xNextMessageLength")
	.dwattr $C$DW$224, DW_AT_TI_symbol_name("xNextMessageLength")
	.dwattr $C$DW$224, DW_AT_type(*$C$DW$T$31)
	.dwattr $C$DW$224, DW_AT_location[DW_OP_breg13 24]

$C$DW$225	.dwtag  DW_TAG_variable
	.dwattr $C$DW$225, DW_AT_name("xTempNextMessageLength")
	.dwattr $C$DW$225, DW_AT_TI_symbol_name("xTempNextMessageLength")
	.dwattr $C$DW$225, DW_AT_type(*$C$DW$T$31)
	.dwattr $C$DW$225, DW_AT_location[DW_OP_breg13 28]

;----------------------------------------------------------------------
; 924 | size_t xOriginalTail, xReceivedLength, xNextMessageLength;             
; 925 | configMESSAGE_BUFFER_LENGTH_TYPE xTempNextMessageLength;               
;----------------------------------------------------------------------
        STR       A4, [SP, #12]         ; [DPU_V7M3_PIPE] |923| 
        STR       A3, [SP, #8]          ; [DPU_V7M3_PIPE] |923| 
        STR       A2, [SP, #4]          ; [DPU_V7M3_PIPE] |923| 
        STR       A1, [SP, #0]          ; [DPU_V7M3_PIPE] |923| 
	.dwpsn	file "../OS/stream_buffer.c",line 927,column 2,is_stmt,isa 1
;----------------------------------------------------------------------
; 927 | if( xBytesToStoreMessageLength != ( size_t ) 0 )                       
;----------------------------------------------------------------------
        LDR       A1, [SP, #40]         ; [DPU_V7M3_PIPE] |927| 
        CBZ       A1, ||$C$L100||       ; [] 
        ; BRANCHCC OCCURS {||$C$L100||}  ; [] |927| 
;* --------------------------------------------------------------------------*
	.dwpsn	file "../OS/stream_buffer.c",line 933,column 3,is_stmt,isa 1
;----------------------------------------------------------------------
; 933 | xOriginalTail = pxStreamBuffer->xTail;                                 
;----------------------------------------------------------------------
        LDR       A1, [SP, #0]          ; [DPU_V7M3_PIPE] |933| 
        LDR       A1, [A1, #0]          ; [DPU_V7M3_PIPE] |933| 
        STR       A1, [SP, #16]         ; [DPU_V7M3_PIPE] |933| 
	.dwpsn	file "../OS/stream_buffer.c",line 934,column 3,is_stmt,isa 1
;----------------------------------------------------------------------
; 934 | ( void ) prvReadBytesFromBuffer( pxStreamBuffer, ( uint8_t * ) &xTempNe
;     | xtMessageLength, xBytesToStoreMessageLength, xBytesAvailable );        
;----------------------------------------------------------------------
        LDR       A3, [SP, #40]         ; [DPU_V7M3_PIPE] |934| 
        LDR       A4, [SP, #12]         ; [DPU_V7M3_PIPE] |934| 
        LDR       A1, [SP, #0]          ; [DPU_V7M3_PIPE] |934| 
        ADD       A2, SP, #28           ; [DPU_V7M3_PIPE] |934| 
$C$DW$226	.dwtag  DW_TAG_TI_branch
	.dwattr $C$DW$226, DW_AT_low_pc(0x00)
	.dwattr $C$DW$226, DW_AT_name("prvReadBytesFromBuffer")
	.dwattr $C$DW$226, DW_AT_TI_call

        BL        prvReadBytesFromBuffer ; [DPU_V7M3_PIPE] |934| 
        ; CALL OCCURS {prvReadBytesFromBuffer }  ; [] |934| 
	.dwpsn	file "../OS/stream_buffer.c",line 935,column 3,is_stmt,isa 1
;----------------------------------------------------------------------
; 935 | xNextMessageLength = ( size_t ) xTempNextMessageLength;                
;----------------------------------------------------------------------
        LDR       A1, [SP, #28]         ; [DPU_V7M3_PIPE] |935| 
        STR       A1, [SP, #24]         ; [DPU_V7M3_PIPE] |935| 
	.dwpsn	file "../OS/stream_buffer.c",line 939,column 3,is_stmt,isa 1
;----------------------------------------------------------------------
; 939 | xBytesAvailable -= xBytesToStoreMessageLength;                         
;----------------------------------------------------------------------
        LDR       A2, [SP, #40]         ; [DPU_V7M3_PIPE] |939| 
        LDR       A1, [SP, #12]         ; [DPU_V7M3_PIPE] |939| 
        SUBS      A1, A1, A2            ; [DPU_V7M3_PIPE] |939| 
        STR       A1, [SP, #12]         ; [DPU_V7M3_PIPE] |939| 
	.dwpsn	file "../OS/stream_buffer.c",line 943,column 3,is_stmt,isa 1
;----------------------------------------------------------------------
; 943 | if( xNextMessageLength > xBufferLengthBytes )                          
;----------------------------------------------------------------------
        LDR       A1, [SP, #8]          ; [DPU_V7M3_PIPE] |943| 
        LDR       A2, [SP, #24]         ; [DPU_V7M3_PIPE] |943| 
        CMP       A1, A2                ; [DPU_V7M3_PIPE] |943| 
        BCS       ||$C$L101||           ; [DPU_V7M3_PIPE] |943| 
        ; BRANCHCC OCCURS {||$C$L101||}  ; [] |943| 
;* --------------------------------------------------------------------------*
	.dwpsn	file "../OS/stream_buffer.c",line 948,column 4,is_stmt,isa 1
;----------------------------------------------------------------------
; 948 | pxStreamBuffer->xTail = xOriginalTail;                                 
;----------------------------------------------------------------------
        LDR       A1, [SP, #16]         ; [DPU_V7M3_PIPE] |948| 
        LDR       A2, [SP, #0]          ; [DPU_V7M3_PIPE] |948| 
        STR       A1, [A2, #0]          ; [DPU_V7M3_PIPE] |948| 
	.dwpsn	file "../OS/stream_buffer.c",line 949,column 4,is_stmt,isa 1
;----------------------------------------------------------------------
; 949 | xNextMessageLength = 0;                                                
;----------------------------------------------------------------------
        MOVS      A1, #0                ; [DPU_V7M3_PIPE] |949| 
        STR       A1, [SP, #24]         ; [DPU_V7M3_PIPE] |949| 
	.dwpsn	file "../OS/stream_buffer.c",line 950,column 3,is_stmt,isa 1
;----------------------------------------------------------------------
; 951 | else                                                                   
; 953 |         mtCOVERAGE_TEST_MARKER();                                      
; 956 | else                                                                   
;----------------------------------------------------------------------
        B         ||$C$L101||           ; [DPU_V7M3_PIPE] |950| 
        ; BRANCH OCCURS {||$C$L101||}    ; [] |950| 
;* --------------------------------------------------------------------------*
;* --------------------------------------------------------------------------*
||$C$L100||:    
	.dwpsn	file "../OS/stream_buffer.c",line 960,column 3,is_stmt,isa 1
;----------------------------------------------------------------------
; 960 | xNextMessageLength = xBufferLengthBytes;                               
;----------------------------------------------------------------------
        LDR       A1, [SP, #8]          ; [DPU_V7M3_PIPE] |960| 
        STR       A1, [SP, #24]         ; [DPU_V7M3_PIPE] |960| 
;* --------------------------------------------------------------------------*
||$C$L101||:    
	.dwpsn	file "../OS/stream_buffer.c",line 964,column 2,is_stmt,isa 1
;----------------------------------------------------------------------
; 964 | xReceivedLength = prvReadBytesFromBuffer( pxStreamBuffer, ( uint8_t * )
;     |  pvRxData, xNextMessageLength, xBytesAvailable ); /*lint !e9079 Data st
;     | orage area is implemented as uint8_t array for ease of sizing, indexing
;     |  and alignment. */                                                     
;----------------------------------------------------------------------
        LDR       A1, [SP, #0]          ; [DPU_V7M3_PIPE] |964| 
        LDR       A2, [SP, #4]          ; [DPU_V7M3_PIPE] |964| 
        LDR       A3, [SP, #24]         ; [DPU_V7M3_PIPE] |964| 
        LDR       A4, [SP, #12]         ; [DPU_V7M3_PIPE] |964| 
$C$DW$227	.dwtag  DW_TAG_TI_branch
	.dwattr $C$DW$227, DW_AT_low_pc(0x00)
	.dwattr $C$DW$227, DW_AT_name("prvReadBytesFromBuffer")
	.dwattr $C$DW$227, DW_AT_TI_call

        BL        prvReadBytesFromBuffer ; [DPU_V7M3_PIPE] |964| 
        ; CALL OCCURS {prvReadBytesFromBuffer }  ; [] |964| 
        STR       A1, [SP, #20]         ; [DPU_V7M3_PIPE] |964| 
	.dwpsn	file "../OS/stream_buffer.c",line 966,column 2,is_stmt,isa 1
;----------------------------------------------------------------------
; 966 | return xReceivedLength;                                                
;----------------------------------------------------------------------
        LDR       A1, [SP, #20]         ; [DPU_V7M3_PIPE] |966| 
	.dwpsn	file "../OS/stream_buffer.c",line 967,column 1,is_stmt,isa 1
        ADD       SP, SP, #36           ; [DPU_V7M3_PIPE] 
	.dwcfi	cfa_offset, 4
$C$DW$228	.dwtag  DW_TAG_TI_branch
	.dwattr $C$DW$228, DW_AT_low_pc(0x00)
	.dwattr $C$DW$228, DW_AT_TI_return

        POP       {PC}                  ; [DPU_V7M3_PIPE] 
	.dwcfi	cfa_offset, 0
        ; BRANCH OCCURS                  ; [] 
	.dwattr $C$DW$212, DW_AT_TI_end_file("../OS/stream_buffer.c")
	.dwattr $C$DW$212, DW_AT_TI_end_line(0x3c7)
	.dwattr $C$DW$212, DW_AT_TI_end_column(0x01)
	.dwendentry
	.dwendtag $C$DW$212

	.sect	".text"
	.clink
	.thumbfunc xStreamBufferIsEmpty
	.thumb
	.global	xStreamBufferIsEmpty

$C$DW$229	.dwtag  DW_TAG_subprogram
	.dwattr $C$DW$229, DW_AT_name("xStreamBufferIsEmpty")
	.dwattr $C$DW$229, DW_AT_low_pc(xStreamBufferIsEmpty)
	.dwattr $C$DW$229, DW_AT_high_pc(0x00)
	.dwattr $C$DW$229, DW_AT_TI_symbol_name("xStreamBufferIsEmpty")
	.dwattr $C$DW$229, DW_AT_external
	.dwattr $C$DW$229, DW_AT_type(*$C$DW$T$90)
	.dwattr $C$DW$229, DW_AT_TI_begin_file("../OS/stream_buffer.c")
	.dwattr $C$DW$229, DW_AT_TI_begin_line(0x3ca)
	.dwattr $C$DW$229, DW_AT_TI_begin_column(0x0c)
	.dwattr $C$DW$229, DW_AT_decl_file("../OS/stream_buffer.c")
	.dwattr $C$DW$229, DW_AT_decl_line(0x3ca)
	.dwattr $C$DW$229, DW_AT_decl_column(0x0c)
	.dwattr $C$DW$229, DW_AT_TI_max_frame_size(0x10)
	.dwpsn	file "../OS/stream_buffer.c",line 971,column 1,is_stmt,address xStreamBufferIsEmpty,isa 1

	.dwfde $C$DW$CIE, xStreamBufferIsEmpty
$C$DW$230	.dwtag  DW_TAG_formal_parameter
	.dwattr $C$DW$230, DW_AT_name("xStreamBuffer")
	.dwattr $C$DW$230, DW_AT_TI_symbol_name("xStreamBuffer")
	.dwattr $C$DW$230, DW_AT_type(*$C$DW$T$108)
	.dwattr $C$DW$230, DW_AT_location[DW_OP_reg0]

;----------------------------------------------------------------------
; 970 | BaseType_t xStreamBufferIsEmpty( StreamBufferHandle_t xStreamBuffer )  
;----------------------------------------------------------------------

;*****************************************************************************
;* FUNCTION NAME: xStreamBufferIsEmpty                                       *
;*                                                                           *
;*   Regs Modified     : A1,A2,SP,SR                                         *
;*   Regs Used         : A1,A2,SP,LR,SR                                      *
;*   Local Frame Size  : 0 Args + 16 Auto + 0 Save = 16 byte                 *
;*****************************************************************************
xStreamBufferIsEmpty:
;* --------------------------------------------------------------------------*
	.dwcfi	cfa_offset, 0
        SUB       SP, SP, #16           ; [DPU_V7M3_PIPE] 
	.dwcfi	cfa_offset, 16
$C$DW$231	.dwtag  DW_TAG_variable
	.dwattr $C$DW$231, DW_AT_name("xStreamBuffer")
	.dwattr $C$DW$231, DW_AT_TI_symbol_name("xStreamBuffer")
	.dwattr $C$DW$231, DW_AT_type(*$C$DW$T$108)
	.dwattr $C$DW$231, DW_AT_location[DW_OP_breg13 0]

$C$DW$232	.dwtag  DW_TAG_variable
	.dwattr $C$DW$232, DW_AT_name("pxStreamBuffer")
	.dwattr $C$DW$232, DW_AT_TI_symbol_name("pxStreamBuffer")
	.dwattr $C$DW$232, DW_AT_type(*$C$DW$T$104)
	.dwattr $C$DW$232, DW_AT_location[DW_OP_breg13 4]

$C$DW$233	.dwtag  DW_TAG_variable
	.dwattr $C$DW$233, DW_AT_name("xReturn")
	.dwattr $C$DW$233, DW_AT_TI_symbol_name("xReturn")
	.dwattr $C$DW$233, DW_AT_type(*$C$DW$T$90)
	.dwattr $C$DW$233, DW_AT_location[DW_OP_breg13 8]

$C$DW$234	.dwtag  DW_TAG_variable
	.dwattr $C$DW$234, DW_AT_name("xTail")
	.dwattr $C$DW$234, DW_AT_TI_symbol_name("xTail")
	.dwattr $C$DW$234, DW_AT_type(*$C$DW$T$31)
	.dwattr $C$DW$234, DW_AT_location[DW_OP_breg13 12]

        STR       A1, [SP, #0]          ; [DPU_V7M3_PIPE] |971| 
	.dwpsn	file "../OS/stream_buffer.c",line 972,column 45,is_stmt,isa 1
;----------------------------------------------------------------------
; 972 | const StreamBuffer_t * const pxStreamBuffer = xStreamBuffer;           
; 973 | BaseType_t xReturn;                                                    
; 974 | size_t xTail;                                                          
;----------------------------------------------------------------------
        LDR       A1, [SP, #0]          ; [DPU_V7M3_PIPE] |972| 
        STR       A1, [SP, #4]          ; [DPU_V7M3_PIPE] |972| 
	.dwpsn	file "../OS/stream_buffer.c",line 976,column 2,is_stmt,isa 1
;----------------------------------------------------------------------
; 976 | configASSERT( pxStreamBuffer );                                        
;----------------------------------------------------------------------
        LDR       A1, [SP, #4]          ; [DPU_V7M3_PIPE] |976| 
        CBNZ      A1, ||$C$L103||       ; [] 
        ; BRANCHCC OCCURS {||$C$L103||}  ; [] |976| 
;* --------------------------------------------------------------------------*
        MOVS      A1, #160              ; [DPU_V7M3_PIPE] |976| 
        MSR       BASEPRI, A1           ; [DPU_V7M3_PIPE] |976| 
	dsb
	isb
;* --------------------------------------------------------------------------*
;*   BEGIN LOOP ||$C$L102||
;*
;*   Loop source line                : 976
;*   Loop closing brace source line  : 976
;*   Known Minimum Trip Count        : 1
;*   Known Maximum Trip Count        : 4294967295
;*   Known Max Trip Count Factor     : 1
;* --------------------------------------------------------------------------*
||$C$L102||:    
        B         ||$C$L102||           ; [DPU_V7M3_PIPE] |976| 
        ; BRANCH OCCURS {||$C$L102||}    ; [] |976| 
;* --------------------------------------------------------------------------*
||$C$L103||:    
	.dwpsn	file "../OS/stream_buffer.c",line 979,column 2,is_stmt,isa 1
;----------------------------------------------------------------------
; 979 | xTail = pxStreamBuffer->xTail;                                         
;----------------------------------------------------------------------
        LDR       A1, [SP, #4]          ; [DPU_V7M3_PIPE] |979| 
        LDR       A1, [A1, #0]          ; [DPU_V7M3_PIPE] |979| 
        STR       A1, [SP, #12]         ; [DPU_V7M3_PIPE] |979| 
	.dwpsn	file "../OS/stream_buffer.c",line 980,column 2,is_stmt,isa 1
;----------------------------------------------------------------------
; 980 | if( pxStreamBuffer->xHead == xTail )                                   
;----------------------------------------------------------------------
        LDR       A2, [SP, #4]          ; [DPU_V7M3_PIPE] |980| 
        LDR       A1, [SP, #12]         ; [DPU_V7M3_PIPE] |980| 
        LDR       A2, [A2, #4]          ; [DPU_V7M3_PIPE] |980| 
        CMP       A1, A2                ; [DPU_V7M3_PIPE] |980| 
        BNE       ||$C$L104||           ; [DPU_V7M3_PIPE] |980| 
        ; BRANCHCC OCCURS {||$C$L104||}  ; [] |980| 
;* --------------------------------------------------------------------------*
	.dwpsn	file "../OS/stream_buffer.c",line 982,column 3,is_stmt,isa 1
;----------------------------------------------------------------------
; 982 | xReturn = pdTRUE;                                                      
;----------------------------------------------------------------------
        MOVS      A1, #1                ; [DPU_V7M3_PIPE] |982| 
        STR       A1, [SP, #8]          ; [DPU_V7M3_PIPE] |982| 
	.dwpsn	file "../OS/stream_buffer.c",line 983,column 2,is_stmt,isa 1
;----------------------------------------------------------------------
; 984 | else                                                                   
;----------------------------------------------------------------------
        B         ||$C$L105||           ; [DPU_V7M3_PIPE] |983| 
        ; BRANCH OCCURS {||$C$L105||}    ; [] |983| 
;* --------------------------------------------------------------------------*
||$C$L104||:    
	.dwpsn	file "../OS/stream_buffer.c",line 986,column 3,is_stmt,isa 1
;----------------------------------------------------------------------
; 986 | xReturn = pdFALSE;                                                     
;----------------------------------------------------------------------
        MOVS      A1, #0                ; [DPU_V7M3_PIPE] |986| 
        STR       A1, [SP, #8]          ; [DPU_V7M3_PIPE] |986| 
;* --------------------------------------------------------------------------*
||$C$L105||:    
	.dwpsn	file "../OS/stream_buffer.c",line 989,column 2,is_stmt,isa 1
;----------------------------------------------------------------------
; 989 | return xReturn;                                                        
;----------------------------------------------------------------------
        LDR       A1, [SP, #8]          ; [DPU_V7M3_PIPE] |989| 
	.dwpsn	file "../OS/stream_buffer.c",line 990,column 1,is_stmt,isa 1
        ADD       SP, SP, #16           ; [DPU_V7M3_PIPE] 
	.dwcfi	cfa_offset, 0
$C$DW$235	.dwtag  DW_TAG_TI_branch
	.dwattr $C$DW$235, DW_AT_low_pc(0x00)
	.dwattr $C$DW$235, DW_AT_TI_return

        BX        LR                    ; [DPU_V7M3_PIPE] 
        ; BRANCH OCCURS                  ; [] 
	.dwattr $C$DW$229, DW_AT_TI_end_file("../OS/stream_buffer.c")
	.dwattr $C$DW$229, DW_AT_TI_end_line(0x3de)
	.dwattr $C$DW$229, DW_AT_TI_end_column(0x01)
	.dwendentry
	.dwendtag $C$DW$229

	.sect	".text"
	.clink
	.thumbfunc xStreamBufferIsFull
	.thumb
	.global	xStreamBufferIsFull

$C$DW$236	.dwtag  DW_TAG_subprogram
	.dwattr $C$DW$236, DW_AT_name("xStreamBufferIsFull")
	.dwattr $C$DW$236, DW_AT_low_pc(xStreamBufferIsFull)
	.dwattr $C$DW$236, DW_AT_high_pc(0x00)
	.dwattr $C$DW$236, DW_AT_TI_symbol_name("xStreamBufferIsFull")
	.dwattr $C$DW$236, DW_AT_external
	.dwattr $C$DW$236, DW_AT_type(*$C$DW$T$90)
	.dwattr $C$DW$236, DW_AT_TI_begin_file("../OS/stream_buffer.c")
	.dwattr $C$DW$236, DW_AT_TI_begin_line(0x3e1)
	.dwattr $C$DW$236, DW_AT_TI_begin_column(0x0c)
	.dwattr $C$DW$236, DW_AT_decl_file("../OS/stream_buffer.c")
	.dwattr $C$DW$236, DW_AT_decl_line(0x3e1)
	.dwattr $C$DW$236, DW_AT_decl_column(0x0c)
	.dwattr $C$DW$236, DW_AT_TI_max_frame_size(0x18)
	.dwpsn	file "../OS/stream_buffer.c",line 994,column 1,is_stmt,address xStreamBufferIsFull,isa 1

	.dwfde $C$DW$CIE, xStreamBufferIsFull
$C$DW$237	.dwtag  DW_TAG_formal_parameter
	.dwattr $C$DW$237, DW_AT_name("xStreamBuffer")
	.dwattr $C$DW$237, DW_AT_TI_symbol_name("xStreamBuffer")
	.dwattr $C$DW$237, DW_AT_type(*$C$DW$T$108)
	.dwattr $C$DW$237, DW_AT_location[DW_OP_reg0]

;----------------------------------------------------------------------
; 993 | BaseType_t xStreamBufferIsFull( StreamBufferHandle_t xStreamBuffer )   
;----------------------------------------------------------------------

;*****************************************************************************
;* FUNCTION NAME: xStreamBufferIsFull                                        *
;*                                                                           *
;*   Regs Modified     : A1,A2,SP,LR,SR,FPEXC,FPSCR                          *
;*   Regs Used         : A1,A2,SP,LR,SR,FPEXC,FPSCR                          *
;*   Local Frame Size  : 0 Args + 16 Auto + 4 Save = 20 byte                 *
;*****************************************************************************
xStreamBufferIsFull:
;* --------------------------------------------------------------------------*
	.dwcfi	cfa_offset, 0
        PUSH      {LR}                  ; [DPU_V7M3_PIPE] 
	.dwcfi	cfa_offset, 4
	.dwcfi	save_reg_to_mem, 14, -4
        SUB       SP, SP, #20           ; [DPU_V7M3_PIPE] 
	.dwcfi	cfa_offset, 24
$C$DW$238	.dwtag  DW_TAG_variable
	.dwattr $C$DW$238, DW_AT_name("xStreamBuffer")
	.dwattr $C$DW$238, DW_AT_TI_symbol_name("xStreamBuffer")
	.dwattr $C$DW$238, DW_AT_type(*$C$DW$T$108)
	.dwattr $C$DW$238, DW_AT_location[DW_OP_breg13 0]

$C$DW$239	.dwtag  DW_TAG_variable
	.dwattr $C$DW$239, DW_AT_name("xReturn")
	.dwattr $C$DW$239, DW_AT_TI_symbol_name("xReturn")
	.dwattr $C$DW$239, DW_AT_type(*$C$DW$T$90)
	.dwattr $C$DW$239, DW_AT_location[DW_OP_breg13 4]

$C$DW$240	.dwtag  DW_TAG_variable
	.dwattr $C$DW$240, DW_AT_name("xBytesToStoreMessageLength")
	.dwattr $C$DW$240, DW_AT_TI_symbol_name("xBytesToStoreMessageLength")
	.dwattr $C$DW$240, DW_AT_type(*$C$DW$T$31)
	.dwattr $C$DW$240, DW_AT_location[DW_OP_breg13 8]

$C$DW$241	.dwtag  DW_TAG_variable
	.dwattr $C$DW$241, DW_AT_name("pxStreamBuffer")
	.dwattr $C$DW$241, DW_AT_TI_symbol_name("pxStreamBuffer")
	.dwattr $C$DW$241, DW_AT_type(*$C$DW$T$104)
	.dwattr $C$DW$241, DW_AT_location[DW_OP_breg13 12]

;----------------------------------------------------------------------
; 995 | BaseType_t xReturn;                                                    
; 996 | size_t xBytesToStoreMessageLength;                                     
;----------------------------------------------------------------------
        STR       A1, [SP, #0]          ; [DPU_V7M3_PIPE] |994| 
	.dwpsn	file "../OS/stream_buffer.c",line 997,column 45,is_stmt,isa 1
;----------------------------------------------------------------------
; 997 | const StreamBuffer_t * const pxStreamBuffer = xStreamBuffer;           
;----------------------------------------------------------------------
        LDR       A1, [SP, #0]          ; [DPU_V7M3_PIPE] |997| 
        STR       A1, [SP, #12]         ; [DPU_V7M3_PIPE] |997| 
	.dwpsn	file "../OS/stream_buffer.c",line 999,column 2,is_stmt,isa 1
;----------------------------------------------------------------------
; 999 | configASSERT( pxStreamBuffer );                                        
;----------------------------------------------------------------------
        LDR       A1, [SP, #12]         ; [DPU_V7M3_PIPE] |999| 
        CBNZ      A1, ||$C$L107||       ; [] 
        ; BRANCHCC OCCURS {||$C$L107||}  ; [] |999| 
;* --------------------------------------------------------------------------*
        MOVS      A1, #160              ; [DPU_V7M3_PIPE] |999| 
        MSR       BASEPRI, A1           ; [DPU_V7M3_PIPE] |999| 
	dsb
	isb
;* --------------------------------------------------------------------------*
;*   BEGIN LOOP ||$C$L106||
;*
;*   Loop source line                : 999
;*   Loop closing brace source line  : 999
;*   Known Minimum Trip Count        : 1
;*   Known Maximum Trip Count        : 4294967295
;*   Known Max Trip Count Factor     : 1
;* --------------------------------------------------------------------------*
||$C$L106||:    
        B         ||$C$L106||           ; [DPU_V7M3_PIPE] |999| 
        ; BRANCH OCCURS {||$C$L106||}    ; [] |999| 
;* --------------------------------------------------------------------------*
||$C$L107||:    
	.dwpsn	file "../OS/stream_buffer.c",line 1005,column 2,is_stmt,isa 1
;----------------------------------------------------------------------
; 1005 | if( ( pxStreamBuffer->ucFlags & sbFLAGS_IS_MESSAGE_BUFFER ) != ( uint8_
;     | t ) 0 )                                                                
;----------------------------------------------------------------------
        LDR       A1, [SP, #12]         ; [DPU_V7M3_PIPE] |1005| 
        LDRB      A1, [A1, #28]         ; [DPU_V7M3_PIPE] |1005| 
        LSRS      A1, A1, #1            ; [DPU_V7M3_PIPE] |1005| 
        BCC       ||$C$L108||           ; [DPU_V7M3_PIPE] |1005| 
        ; BRANCHCC OCCURS {||$C$L108||}  ; [] |1005| 
;* --------------------------------------------------------------------------*
	.dwpsn	file "../OS/stream_buffer.c",line 1007,column 3,is_stmt,isa 1
;----------------------------------------------------------------------
; 1007 | xBytesToStoreMessageLength = sbBYTES_TO_STORE_MESSAGE_LENGTH;          
;----------------------------------------------------------------------
        MOVS      A1, #4                ; [DPU_V7M3_PIPE] |1007| 
        STR       A1, [SP, #8]          ; [DPU_V7M3_PIPE] |1007| 
	.dwpsn	file "../OS/stream_buffer.c",line 1008,column 2,is_stmt,isa 1
;----------------------------------------------------------------------
; 1009 | else                                                                   
;----------------------------------------------------------------------
        B         ||$C$L109||           ; [DPU_V7M3_PIPE] |1008| 
        ; BRANCH OCCURS {||$C$L109||}    ; [] |1008| 
;* --------------------------------------------------------------------------*
||$C$L108||:    
	.dwpsn	file "../OS/stream_buffer.c",line 1011,column 3,is_stmt,isa 1
;----------------------------------------------------------------------
; 1011 | xBytesToStoreMessageLength = 0;                                        
;----------------------------------------------------------------------
        MOVS      A1, #0                ; [DPU_V7M3_PIPE] |1011| 
        STR       A1, [SP, #8]          ; [DPU_V7M3_PIPE] |1011| 
;* --------------------------------------------------------------------------*
||$C$L109||:    
	.dwpsn	file "../OS/stream_buffer.c",line 1015,column 2,is_stmt,isa 1
;----------------------------------------------------------------------
; 1015 | if( xStreamBufferSpacesAvailable( xStreamBuffer ) <= xBytesToStoreMessa
;     | geLength )                                                             
;----------------------------------------------------------------------
        LDR       A1, [SP, #0]          ; [DPU_V7M3_PIPE] |1015| 
$C$DW$242	.dwtag  DW_TAG_TI_branch
	.dwattr $C$DW$242, DW_AT_low_pc(0x00)
	.dwattr $C$DW$242, DW_AT_name("xStreamBufferSpacesAvailable")
	.dwattr $C$DW$242, DW_AT_TI_call

        BL        xStreamBufferSpacesAvailable ; [DPU_V7M3_PIPE] |1015| 
        ; CALL OCCURS {xStreamBufferSpacesAvailable }  ; [] |1015| 
        LDR       A2, [SP, #8]          ; [DPU_V7M3_PIPE] |1015| 
        CMP       A2, A1                ; [DPU_V7M3_PIPE] |1015| 
        BCC       ||$C$L110||           ; [DPU_V7M3_PIPE] |1015| 
        ; BRANCHCC OCCURS {||$C$L110||}  ; [] |1015| 
;* --------------------------------------------------------------------------*
	.dwpsn	file "../OS/stream_buffer.c",line 1017,column 3,is_stmt,isa 1
;----------------------------------------------------------------------
; 1017 | xReturn = pdTRUE;                                                      
;----------------------------------------------------------------------
        MOVS      A1, #1                ; [DPU_V7M3_PIPE] |1017| 
        STR       A1, [SP, #4]          ; [DPU_V7M3_PIPE] |1017| 
	.dwpsn	file "../OS/stream_buffer.c",line 1018,column 2,is_stmt,isa 1
;----------------------------------------------------------------------
; 1019 | else                                                                   
;----------------------------------------------------------------------
        B         ||$C$L111||           ; [DPU_V7M3_PIPE] |1018| 
        ; BRANCH OCCURS {||$C$L111||}    ; [] |1018| 
;* --------------------------------------------------------------------------*
||$C$L110||:    
	.dwpsn	file "../OS/stream_buffer.c",line 1021,column 3,is_stmt,isa 1
;----------------------------------------------------------------------
; 1021 | xReturn = pdFALSE;                                                     
;----------------------------------------------------------------------
        MOVS      A1, #0                ; [DPU_V7M3_PIPE] |1021| 
        STR       A1, [SP, #4]          ; [DPU_V7M3_PIPE] |1021| 
;* --------------------------------------------------------------------------*
||$C$L111||:    
	.dwpsn	file "../OS/stream_buffer.c",line 1024,column 2,is_stmt,isa 1
;----------------------------------------------------------------------
; 1024 | return xReturn;                                                        
;----------------------------------------------------------------------
        LDR       A1, [SP, #4]          ; [DPU_V7M3_PIPE] |1024| 
	.dwpsn	file "../OS/stream_buffer.c",line 1025,column 1,is_stmt,isa 1
        ADD       SP, SP, #20           ; [DPU_V7M3_PIPE] 
	.dwcfi	cfa_offset, 4
$C$DW$243	.dwtag  DW_TAG_TI_branch
	.dwattr $C$DW$243, DW_AT_low_pc(0x00)
	.dwattr $C$DW$243, DW_AT_TI_return

        POP       {PC}                  ; [DPU_V7M3_PIPE] 
	.dwcfi	cfa_offset, 0
        ; BRANCH OCCURS                  ; [] 
	.dwattr $C$DW$236, DW_AT_TI_end_file("../OS/stream_buffer.c")
	.dwattr $C$DW$236, DW_AT_TI_end_line(0x401)
	.dwattr $C$DW$236, DW_AT_TI_end_column(0x01)
	.dwendentry
	.dwendtag $C$DW$236

	.sect	".text"
	.clink
	.thumbfunc xStreamBufferSendCompletedFromISR
	.thumb
	.global	xStreamBufferSendCompletedFromISR

$C$DW$244	.dwtag  DW_TAG_subprogram
	.dwattr $C$DW$244, DW_AT_name("xStreamBufferSendCompletedFromISR")
	.dwattr $C$DW$244, DW_AT_low_pc(xStreamBufferSendCompletedFromISR)
	.dwattr $C$DW$244, DW_AT_high_pc(0x00)
	.dwattr $C$DW$244, DW_AT_TI_symbol_name("xStreamBufferSendCompletedFromISR")
	.dwattr $C$DW$244, DW_AT_external
	.dwattr $C$DW$244, DW_AT_type(*$C$DW$T$90)
	.dwattr $C$DW$244, DW_AT_TI_begin_file("../OS/stream_buffer.c")
	.dwattr $C$DW$244, DW_AT_TI_begin_line(0x404)
	.dwattr $C$DW$244, DW_AT_TI_begin_column(0x0c)
	.dwattr $C$DW$244, DW_AT_decl_file("../OS/stream_buffer.c")
	.dwattr $C$DW$244, DW_AT_decl_line(0x404)
	.dwattr $C$DW$244, DW_AT_decl_column(0x0c)
	.dwattr $C$DW$244, DW_AT_TI_max_frame_size(0x20)
	.dwpsn	file "../OS/stream_buffer.c",line 1029,column 1,is_stmt,address xStreamBufferSendCompletedFromISR,isa 1

	.dwfde $C$DW$CIE, xStreamBufferSendCompletedFromISR
$C$DW$245	.dwtag  DW_TAG_formal_parameter
	.dwattr $C$DW$245, DW_AT_name("xStreamBuffer")
	.dwattr $C$DW$245, DW_AT_TI_symbol_name("xStreamBuffer")
	.dwattr $C$DW$245, DW_AT_type(*$C$DW$T$108)
	.dwattr $C$DW$245, DW_AT_location[DW_OP_reg0]

$C$DW$246	.dwtag  DW_TAG_formal_parameter
	.dwattr $C$DW$246, DW_AT_name("pxHigherPriorityTaskWoken")
	.dwattr $C$DW$246, DW_AT_TI_symbol_name("pxHigherPriorityTaskWoken")
	.dwattr $C$DW$246, DW_AT_type(*$C$DW$T$217)
	.dwattr $C$DW$246, DW_AT_location[DW_OP_reg1]

;----------------------------------------------------------------------
; 1028 | BaseType_t xStreamBufferSendCompletedFromISR( StreamBufferHandle_t xStr
;     | eamBuffer, BaseType_t *pxHigherPriorityTaskWoken )                     
;----------------------------------------------------------------------

;*****************************************************************************
;* FUNCTION NAME: xStreamBufferSendCompletedFromISR                          *
;*                                                                           *
;*   Regs Modified     : A1,A2,A3,A4,V9,SP,LR,SR,D0,D0_hi,D1,D1_hi,D2,D2_hi, *
;*                           D3,D3_hi,D4,D4_hi,D5,D5_hi,D6,D6_hi,D7,D7_hi,   *
;*                           FPEXC,FPSCR                                     *
;*   Regs Used         : A1,A2,A3,A4,V9,SP,LR,SR,D0,D0_hi,D1,D1_hi,D2,D2_hi, *
;*                           D3,D3_hi,D4,D4_hi,D5,D5_hi,D6,D6_hi,D7,D7_hi,   *
;*                           FPEXC,FPSCR                                     *
;*   Local Frame Size  : 4 Args + 20 Auto + 4 Save = 28 byte                 *
;*****************************************************************************
xStreamBufferSendCompletedFromISR:
;* --------------------------------------------------------------------------*
	.dwcfi	cfa_offset, 0
