;******************************************************************************
;* TI ARM C/C++ Codegen                                      Unix v18.1.1.LTS *
;* Date/Time created: Fri Jul  3 20:08:22 2020                                *
;******************************************************************************
	.compiler_opts --abi=eabi --arm_vmrs_si_workaround=off --code_state=16 --diag_wrap=off --embedded_constants=on --endian=little --float_support=FPv4SPD16 --hll_source=on --object_format=elf --silicon_version=7M4 --symdebug:dwarf --symdebug:dwarf_version=3 --unaligned_access=on 
	.thumb

$C$DW$CU	.dwtag  DW_TAG_compile_unit
	.dwattr $C$DW$CU, DW_AT_name("../OS/tasks.c")
	.dwattr $C$DW$CU, DW_AT_producer("TI TI ARM C/C++ Codegen Unix v18.1.1.LTS Copyright (c) 1996-2017 Texas Instruments Incorporated")
	.dwattr $C$DW$CU, DW_AT_TI_version(0x01)
	.dwattr $C$DW$CU, DW_AT_comp_dir("/home/pola/workspace_v8/Microwave/Debug")
	.global	pxCurrentTCB
	.data
	.align	4
	.elfsym	pxCurrentTCB,SYM_SIZE(4)
pxCurrentTCB:
	.bits	0,32			; pxCurrentTCB @ 0

$C$DW$1	.dwtag  DW_TAG_variable
	.dwattr $C$DW$1, DW_AT_name("pxCurrentTCB")
	.dwattr $C$DW$1, DW_AT_TI_symbol_name("pxCurrentTCB")
	.dwattr $C$DW$1, DW_AT_location[DW_OP_addr pxCurrentTCB]
	.dwattr $C$DW$1, DW_AT_type(*$C$DW$T$343)
	.dwattr $C$DW$1, DW_AT_external
	.dwattr $C$DW$1, DW_AT_decl_file("../OS/tasks.c")
	.dwattr $C$DW$1, DW_AT_decl_line(0x15f)
	.dwattr $C$DW$1, DW_AT_decl_column(0x22)

pxReadyTasksLists:	.usect	".bss:pxReadyTasksLists",100,4
	.clink ".bss:pxReadyTasksLists"
$C$DW$2	.dwtag  DW_TAG_variable
	.dwattr $C$DW$2, DW_AT_name("pxReadyTasksLists")
	.dwattr $C$DW$2, DW_AT_TI_symbol_name("pxReadyTasksLists")
	.dwattr $C$DW$2, DW_AT_type(*$C$DW$T$346)
	.dwattr $C$DW$2, DW_AT_location[DW_OP_addr pxReadyTasksLists]
	.dwattr $C$DW$2, DW_AT_decl_file("../OS/tasks.c")
	.dwattr $C$DW$2, DW_AT_decl_line(0x165)
	.dwattr $C$DW$2, DW_AT_decl_column(0x1f)

xDelayedTaskList1:	.usect	".bss:xDelayedTaskList1",20,4
	.clink ".bss:xDelayedTaskList1"
$C$DW$3	.dwtag  DW_TAG_variable
	.dwattr $C$DW$3, DW_AT_name("xDelayedTaskList1")
	.dwattr $C$DW$3, DW_AT_TI_symbol_name("xDelayedTaskList1")
	.dwattr $C$DW$3, DW_AT_type(*$C$DW$T$112)
	.dwattr $C$DW$3, DW_AT_location[DW_OP_addr xDelayedTaskList1]
	.dwattr $C$DW$3, DW_AT_decl_file("../OS/tasks.c")
	.dwattr $C$DW$3, DW_AT_decl_line(0x166)
	.dwattr $C$DW$3, DW_AT_decl_column(0x1f)

xDelayedTaskList2:	.usect	".bss:xDelayedTaskList2",20,4
	.clink ".bss:xDelayedTaskList2"
$C$DW$4	.dwtag  DW_TAG_variable
	.dwattr $C$DW$4, DW_AT_name("xDelayedTaskList2")
	.dwattr $C$DW$4, DW_AT_TI_symbol_name("xDelayedTaskList2")
	.dwattr $C$DW$4, DW_AT_type(*$C$DW$T$112)
	.dwattr $C$DW$4, DW_AT_location[DW_OP_addr xDelayedTaskList2]
	.dwattr $C$DW$4, DW_AT_decl_file("../OS/tasks.c")
	.dwattr $C$DW$4, DW_AT_decl_line(0x167)
	.dwattr $C$DW$4, DW_AT_decl_column(0x1f)

	.bss	pxDelayedTaskList,4,4
$C$DW$5	.dwtag  DW_TAG_variable
	.dwattr $C$DW$5, DW_AT_name("pxDelayedTaskList")
	.dwattr $C$DW$5, DW_AT_TI_symbol_name("pxDelayedTaskList")
	.dwattr $C$DW$5, DW_AT_type(*$C$DW$T$345)
	.dwattr $C$DW$5, DW_AT_location[DW_OP_addr pxDelayedTaskList]
	.dwattr $C$DW$5, DW_AT_decl_file("../OS/tasks.c")
	.dwattr $C$DW$5, DW_AT_decl_line(0x168)
	.dwattr $C$DW$5, DW_AT_decl_column(0x2a)

	.bss	pxOverflowDelayedTaskList,4,4
$C$DW$6	.dwtag  DW_TAG_variable
	.dwattr $C$DW$6, DW_AT_name("pxOverflowDelayedTaskList")
	.dwattr $C$DW$6, DW_AT_TI_symbol_name("pxOverflowDelayedTaskList")
	.dwattr $C$DW$6, DW_AT_type(*$C$DW$T$345)
	.dwattr $C$DW$6, DW_AT_location[DW_OP_addr pxOverflowDelayedTaskList]
	.dwattr $C$DW$6, DW_AT_decl_file("../OS/tasks.c")
	.dwattr $C$DW$6, DW_AT_decl_line(0x169)
	.dwattr $C$DW$6, DW_AT_decl_column(0x2a)

xPendingReadyList:	.usect	".bss:xPendingReadyList",20,4
	.clink ".bss:xPendingReadyList"
$C$DW$7	.dwtag  DW_TAG_variable
	.dwattr $C$DW$7, DW_AT_name("xPendingReadyList")
	.dwattr $C$DW$7, DW_AT_TI_symbol_name("xPendingReadyList")
	.dwattr $C$DW$7, DW_AT_type(*$C$DW$T$112)
	.dwattr $C$DW$7, DW_AT_location[DW_OP_addr xPendingReadyList]
	.dwattr $C$DW$7, DW_AT_decl_file("../OS/tasks.c")
	.dwattr $C$DW$7, DW_AT_decl_line(0x16a)
	.dwattr $C$DW$7, DW_AT_decl_column(0x1f)

xSuspendedTaskList:	.usect	".bss:xSuspendedTaskList",20,4
	.clink ".bss:xSuspendedTaskList"
$C$DW$8	.dwtag  DW_TAG_variable
	.dwattr $C$DW$8, DW_AT_name("xSuspendedTaskList")
	.dwattr $C$DW$8, DW_AT_TI_symbol_name("xSuspendedTaskList")
	.dwattr $C$DW$8, DW_AT_type(*$C$DW$T$112)
	.dwattr $C$DW$8, DW_AT_location[DW_OP_addr xSuspendedTaskList]
	.dwattr $C$DW$8, DW_AT_decl_file("../OS/tasks.c")
	.dwattr $C$DW$8, DW_AT_decl_line(0x175)
	.dwattr $C$DW$8, DW_AT_decl_column(0x20)

	.data
	.align	4
	.elfsym	uxCurrentNumberOfTasks,SYM_SIZE(4)
uxCurrentNumberOfTasks:
	.bits	0,32			; uxCurrentNumberOfTasks @ 0

$C$DW$9	.dwtag  DW_TAG_variable
	.dwattr $C$DW$9, DW_AT_name("uxCurrentNumberOfTasks")
	.dwattr $C$DW$9, DW_AT_TI_symbol_name("uxCurrentNumberOfTasks")
	.dwattr $C$DW$9, DW_AT_type(*$C$DW$T$46)
	.dwattr $C$DW$9, DW_AT_location[DW_OP_addr uxCurrentNumberOfTasks]
	.dwattr $C$DW$9, DW_AT_decl_file("../OS/tasks.c")
	.dwattr $C$DW$9, DW_AT_decl_line(0x180)
	.dwattr $C$DW$9, DW_AT_decl_column(0x2d)

	.data
	.align	4
	.elfsym	xTickCount,SYM_SIZE(4)
xTickCount:
	.bits	0,32			; xTickCount @ 0

$C$DW$10	.dwtag  DW_TAG_variable
	.dwattr $C$DW$10, DW_AT_name("xTickCount")
	.dwattr $C$DW$10, DW_AT_TI_symbol_name("xTickCount")
	.dwattr $C$DW$10, DW_AT_type(*$C$DW$T$265)
	.dwattr $C$DW$10, DW_AT_location[DW_OP_addr xTickCount]
	.dwattr $C$DW$10, DW_AT_decl_file("../OS/tasks.c")
	.dwattr $C$DW$10, DW_AT_decl_line(0x181)
	.dwattr $C$DW$10, DW_AT_decl_column(0x2c)

	.data
	.align	4
	.elfsym	uxTopReadyPriority,SYM_SIZE(4)
uxTopReadyPriority:
	.bits	0,32			; uxTopReadyPriority @ 0

$C$DW$11	.dwtag  DW_TAG_variable
	.dwattr $C$DW$11, DW_AT_name("uxTopReadyPriority")
	.dwattr $C$DW$11, DW_AT_TI_symbol_name("uxTopReadyPriority")
	.dwattr $C$DW$11, DW_AT_type(*$C$DW$T$46)
	.dwattr $C$DW$11, DW_AT_location[DW_OP_addr uxTopReadyPriority]
	.dwattr $C$DW$11, DW_AT_decl_file("../OS/tasks.c")
	.dwattr $C$DW$11, DW_AT_decl_line(0x182)
	.dwattr $C$DW$11, DW_AT_decl_column(0x2d)

	.data
	.align	4
	.elfsym	xSchedulerRunning,SYM_SIZE(4)
xSchedulerRunning:
	.bits	0,32			; xSchedulerRunning @ 0

$C$DW$12	.dwtag  DW_TAG_variable
	.dwattr $C$DW$12, DW_AT_name("xSchedulerRunning")
	.dwattr $C$DW$12, DW_AT_TI_symbol_name("xSchedulerRunning")
	.dwattr $C$DW$12, DW_AT_type(*$C$DW$T$272)
	.dwattr $C$DW$12, DW_AT_location[DW_OP_addr xSchedulerRunning]
	.dwattr $C$DW$12, DW_AT_decl_file("../OS/tasks.c")
	.dwattr $C$DW$12, DW_AT_decl_line(0x183)
	.dwattr $C$DW$12, DW_AT_decl_column(0x2c)

	.data
	.align	4
	.elfsym	uxPendedTicks,SYM_SIZE(4)
uxPendedTicks:
	.bits	0,32			; uxPendedTicks @ 0

$C$DW$13	.dwtag  DW_TAG_variable
	.dwattr $C$DW$13, DW_AT_name("uxPendedTicks")
	.dwattr $C$DW$13, DW_AT_TI_symbol_name("uxPendedTicks")
	.dwattr $C$DW$13, DW_AT_type(*$C$DW$T$46)
	.dwattr $C$DW$13, DW_AT_location[DW_OP_addr uxPendedTicks]
	.dwattr $C$DW$13, DW_AT_decl_file("../OS/tasks.c")
	.dwattr $C$DW$13, DW_AT_decl_line(0x184)
	.dwattr $C$DW$13, DW_AT_decl_column(0x2d)

	.data
	.align	4
	.elfsym	xYieldPending,SYM_SIZE(4)
xYieldPending:
	.bits	0,32			; xYieldPending @ 0

$C$DW$14	.dwtag  DW_TAG_variable
	.dwattr $C$DW$14, DW_AT_name("xYieldPending")
	.dwattr $C$DW$14, DW_AT_TI_symbol_name("xYieldPending")
	.dwattr $C$DW$14, DW_AT_type(*$C$DW$T$272)
	.dwattr $C$DW$14, DW_AT_location[DW_OP_addr xYieldPending]
	.dwattr $C$DW$14, DW_AT_decl_file("../OS/tasks.c")
	.dwattr $C$DW$14, DW_AT_decl_line(0x185)
	.dwattr $C$DW$14, DW_AT_decl_column(0x2c)

	.data
	.align	4
	.elfsym	xNumOfOverflows,SYM_SIZE(4)
xNumOfOverflows:
	.bits	0,32			; xNumOfOverflows @ 0

$C$DW$15	.dwtag  DW_TAG_variable
	.dwattr $C$DW$15, DW_AT_name("xNumOfOverflows")
	.dwattr $C$DW$15, DW_AT_TI_symbol_name("xNumOfOverflows")
	.dwattr $C$DW$15, DW_AT_type(*$C$DW$T$272)
	.dwattr $C$DW$15, DW_AT_location[DW_OP_addr xNumOfOverflows]
	.dwattr $C$DW$15, DW_AT_decl_file("../OS/tasks.c")
	.dwattr $C$DW$15, DW_AT_decl_line(0x186)
	.dwattr $C$DW$15, DW_AT_decl_column(0x2c)

	.data
	.align	4
	.elfsym	uxTaskNumber,SYM_SIZE(4)
uxTaskNumber:
	.bits	0,32			; uxTaskNumber @ 0

$C$DW$16	.dwtag  DW_TAG_variable
	.dwattr $C$DW$16, DW_AT_name("uxTaskNumber")
	.dwattr $C$DW$16, DW_AT_TI_symbol_name("uxTaskNumber")
	.dwattr $C$DW$16, DW_AT_type(*$C$DW$T$26)
	.dwattr $C$DW$16, DW_AT_location[DW_OP_addr uxTaskNumber]
	.dwattr $C$DW$16, DW_AT_decl_file("../OS/tasks.c")
	.dwattr $C$DW$16, DW_AT_decl_line(0x187)
	.dwattr $C$DW$16, DW_AT_decl_column(0x24)

	.data
	.align	4
	.elfsym	xNextTaskUnblockTime,SYM_SIZE(4)
xNextTaskUnblockTime:
	.bits	0,32			; xNextTaskUnblockTime @ 0

$C$DW$17	.dwtag  DW_TAG_variable
	.dwattr $C$DW$17, DW_AT_name("xNextTaskUnblockTime")
	.dwattr $C$DW$17, DW_AT_TI_symbol_name("xNextTaskUnblockTime")
	.dwattr $C$DW$17, DW_AT_type(*$C$DW$T$265)
	.dwattr $C$DW$17, DW_AT_location[DW_OP_addr xNextTaskUnblockTime]
	.dwattr $C$DW$17, DW_AT_decl_file("../OS/tasks.c")
	.dwattr $C$DW$17, DW_AT_decl_line(0x188)
	.dwattr $C$DW$17, DW_AT_decl_column(0x2c)

	.data
	.align	4
	.elfsym	xIdleTaskHandle,SYM_SIZE(4)
xIdleTaskHandle:
	.bits	0,32			; xIdleTaskHandle @ 0

$C$DW$18	.dwtag  DW_TAG_variable
	.dwattr $C$DW$18, DW_AT_name("xIdleTaskHandle")
	.dwattr $C$DW$18, DW_AT_TI_symbol_name("xIdleTaskHandle")
	.dwattr $C$DW$18, DW_AT_type(*$C$DW$T$89)
	.dwattr $C$DW$18, DW_AT_location[DW_OP_addr xIdleTaskHandle]
	.dwattr $C$DW$18, DW_AT_decl_file("../OS/tasks.c")
	.dwattr $C$DW$18, DW_AT_decl_line(0x189)
	.dwattr $C$DW$18, DW_AT_decl_column(0x25)

	.data
	.align	4
	.elfsym	uxSchedulerSuspended,SYM_SIZE(4)
uxSchedulerSuspended:
	.bits	0,32			; uxSchedulerSuspended @ 0

$C$DW$19	.dwtag  DW_TAG_variable
	.dwattr $C$DW$19, DW_AT_name("uxSchedulerSuspended")
	.dwattr $C$DW$19, DW_AT_TI_symbol_name("uxSchedulerSuspended")
	.dwattr $C$DW$19, DW_AT_type(*$C$DW$T$46)
	.dwattr $C$DW$19, DW_AT_location[DW_OP_addr uxSchedulerSuspended]
	.dwattr $C$DW$19, DW_AT_decl_file("../OS/tasks.c")
	.dwattr $C$DW$19, DW_AT_decl_line(0x193)
	.dwattr $C$DW$19, DW_AT_decl_column(0x2d)


$C$DW$20	.dwtag  DW_TAG_subprogram
	.dwattr $C$DW$20, DW_AT_name("memset")
	.dwattr $C$DW$20, DW_AT_TI_symbol_name("memset")
	.dwattr $C$DW$20, DW_AT_type(*$C$DW$T$3)
	.dwattr $C$DW$20, DW_AT_declaration
	.dwattr $C$DW$20, DW_AT_external
	.dwattr $C$DW$20, DW_AT_decl_file("/home/pola/ti/ccsv8/tools/compiler/ti-cgt-arm_18.1.1.LTS/include/string.h")
	.dwattr $C$DW$20, DW_AT_decl_line(0x7a)
	.dwattr $C$DW$20, DW_AT_decl_column(0x16)
$C$DW$21	.dwtag  DW_TAG_formal_parameter
	.dwattr $C$DW$21, DW_AT_type(*$C$DW$T$3)

$C$DW$22	.dwtag  DW_TAG_formal_parameter
	.dwattr $C$DW$22, DW_AT_type(*$C$DW$T$10)

$C$DW$23	.dwtag  DW_TAG_formal_parameter
	.dwattr $C$DW$23, DW_AT_type(*$C$DW$T$31)

	.dwendtag $C$DW$20


$C$DW$24	.dwtag  DW_TAG_subprogram
	.dwattr $C$DW$24, DW_AT_name("vListInitialiseItem")
	.dwattr $C$DW$24, DW_AT_TI_symbol_name("vListInitialiseItem")
	.dwattr $C$DW$24, DW_AT_declaration
	.dwattr $C$DW$24, DW_AT_external
	.dwattr $C$DW$24, DW_AT_decl_file("../OS/list.h")
	.dwattr $C$DW$24, DW_AT_decl_line(0x164)
	.dwattr $C$DW$24, DW_AT_decl_column(0x06)
$C$DW$25	.dwtag  DW_TAG_formal_parameter
	.dwattr $C$DW$25, DW_AT_type(*$C$DW$T$117)

	.dwendtag $C$DW$24


$C$DW$26	.dwtag  DW_TAG_subprogram
	.dwattr $C$DW$26, DW_AT_name("pxPortInitialiseStack")
	.dwattr $C$DW$26, DW_AT_TI_symbol_name("pxPortInitialiseStack")
	.dwattr $C$DW$26, DW_AT_type(*$C$DW$T$40)
	.dwattr $C$DW$26, DW_AT_declaration
	.dwattr $C$DW$26, DW_AT_external
	.dwattr $C$DW$26, DW_AT_decl_file("../OS/portable.h")
	.dwattr $C$DW$26, DW_AT_decl_line(0x68)
	.dwattr $C$DW$26, DW_AT_decl_column(0x0f)
$C$DW$27	.dwtag  DW_TAG_formal_parameter
	.dwattr $C$DW$27, DW_AT_type(*$C$DW$T$40)

$C$DW$28	.dwtag  DW_TAG_formal_parameter
	.dwattr $C$DW$28, DW_AT_type(*$C$DW$T$78)

$C$DW$29	.dwtag  DW_TAG_formal_parameter
	.dwattr $C$DW$29, DW_AT_type(*$C$DW$T$3)

	.dwendtag $C$DW$26


$C$DW$30	.dwtag  DW_TAG_subprogram
	.dwattr $C$DW$30, DW_AT_name("vPortEnterCritical")
	.dwattr $C$DW$30, DW_AT_TI_symbol_name("vPortEnterCritical")
	.dwattr $C$DW$30, DW_AT_declaration
	.dwattr $C$DW$30, DW_AT_external
	.dwattr $C$DW$30, DW_AT_decl_file("../OS/portmacro.h")
	.dwattr $C$DW$30, DW_AT_decl_line(0x76)
	.dwattr $C$DW$30, DW_AT_decl_column(0x0d)
	.dwendtag $C$DW$30


$C$DW$31	.dwtag  DW_TAG_subprogram
	.dwattr $C$DW$31, DW_AT_name("vListInsertEnd")
	.dwattr $C$DW$31, DW_AT_TI_symbol_name("vListInsertEnd")
	.dwattr $C$DW$31, DW_AT_declaration
	.dwattr $C$DW$31, DW_AT_external
	.dwattr $C$DW$31, DW_AT_decl_file("../OS/list.h")
	.dwattr $C$DW$31, DW_AT_decl_line(0x186)
	.dwattr $C$DW$31, DW_AT_decl_column(0x06)
$C$DW$32	.dwtag  DW_TAG_formal_parameter
	.dwattr $C$DW$32, DW_AT_type(*$C$DW$T$114)

$C$DW$33	.dwtag  DW_TAG_formal_parameter
	.dwattr $C$DW$33, DW_AT_type(*$C$DW$T$117)

	.dwendtag $C$DW$31


$C$DW$34	.dwtag  DW_TAG_subprogram
	.dwattr $C$DW$34, DW_AT_name("vPortExitCritical")
	.dwattr $C$DW$34, DW_AT_TI_symbol_name("vPortExitCritical")
	.dwattr $C$DW$34, DW_AT_declaration
	.dwattr $C$DW$34, DW_AT_external
	.dwattr $C$DW$34, DW_AT_decl_file("../OS/portmacro.h")
	.dwattr $C$DW$34, DW_AT_decl_line(0x77)
	.dwattr $C$DW$34, DW_AT_decl_column(0x0d)
	.dwendtag $C$DW$34


$C$DW$35	.dwtag  DW_TAG_subprogram
	.dwattr $C$DW$35, DW_AT_name("uxListRemove")
	.dwattr $C$DW$35, DW_AT_TI_symbol_name("uxListRemove")
	.dwattr $C$DW$35, DW_AT_type(*$C$DW$T$26)
	.dwattr $C$DW$35, DW_AT_declaration
	.dwattr $C$DW$35, DW_AT_external
	.dwattr $C$DW$35, DW_AT_decl_file("../OS/list.h")
	.dwattr $C$DW$35, DW_AT_decl_line(0x195)
	.dwattr $C$DW$35, DW_AT_decl_column(0x0d)
$C$DW$36	.dwtag  DW_TAG_formal_parameter
	.dwattr $C$DW$36, DW_AT_type(*$C$DW$T$117)

	.dwendtag $C$DW$35


$C$DW$37	.dwtag  DW_TAG_subprogram
	.dwattr $C$DW$37, DW_AT_name("vApplicationGetIdleTaskMemory")
	.dwattr $C$DW$37, DW_AT_TI_symbol_name("vApplicationGetIdleTaskMemory")
	.dwattr $C$DW$37, DW_AT_declaration
	.dwattr $C$DW$37, DW_AT_external
	.dwattr $C$DW$37, DW_AT_decl_file("../OS/tasks.c")
	.dwattr $C$DW$37, DW_AT_decl_line(0x1b1)
	.dwattr $C$DW$37, DW_AT_decl_column(0x0e)
$C$DW$38	.dwtag  DW_TAG_formal_parameter
	.dwattr $C$DW$38, DW_AT_type(*$C$DW$T$124)

$C$DW$39	.dwtag  DW_TAG_formal_parameter
	.dwattr $C$DW$39, DW_AT_type(*$C$DW$T$125)

$C$DW$40	.dwtag  DW_TAG_formal_parameter
	.dwattr $C$DW$40, DW_AT_type(*$C$DW$T$126)

	.dwendtag $C$DW$37


$C$DW$41	.dwtag  DW_TAG_subprogram
	.dwattr $C$DW$41, DW_AT_name("xTimerCreateTimerTask")
	.dwattr $C$DW$41, DW_AT_TI_symbol_name("xTimerCreateTimerTask")
	.dwattr $C$DW$41, DW_AT_type(*$C$DW$T$93)
	.dwattr $C$DW$41, DW_AT_declaration
	.dwattr $C$DW$41, DW_AT_external
	.dwattr $C$DW$41, DW_AT_decl_file("../OS/timers.h")
	.dwattr $C$DW$41, DW_AT_decl_line(0x4f0)
	.dwattr $C$DW$41, DW_AT_decl_column(0x0c)
	.dwendtag $C$DW$41


$C$DW$42	.dwtag  DW_TAG_subprogram
	.dwattr $C$DW$42, DW_AT_name("xPortStartScheduler")
	.dwattr $C$DW$42, DW_AT_TI_symbol_name("xPortStartScheduler")
	.dwattr $C$DW$42, DW_AT_type(*$C$DW$T$93)
	.dwattr $C$DW$42, DW_AT_declaration
	.dwattr $C$DW$42, DW_AT_external
	.dwattr $C$DW$42, DW_AT_decl_file("../OS/portable.h")
	.dwattr $C$DW$42, DW_AT_decl_line(0x8d)
	.dwattr $C$DW$42, DW_AT_decl_column(0x0c)
	.dwendtag $C$DW$42


$C$DW$43	.dwtag  DW_TAG_subprogram
	.dwattr $C$DW$43, DW_AT_name("vPortEndScheduler")
	.dwattr $C$DW$43, DW_AT_TI_symbol_name("vPortEndScheduler")
	.dwattr $C$DW$43, DW_AT_declaration
	.dwattr $C$DW$43, DW_AT_external
	.dwattr $C$DW$43, DW_AT_decl_file("../OS/portable.h")
	.dwattr $C$DW$43, DW_AT_decl_line(0x94)
	.dwattr $C$DW$43, DW_AT_decl_column(0x06)
	.dwendtag $C$DW$43


$C$DW$44	.dwtag  DW_TAG_subprogram
	.dwattr $C$DW$44, DW_AT_name("vPortValidateInterruptPriority")
	.dwattr $C$DW$44, DW_AT_TI_symbol_name("vPortValidateInterruptPriority")
	.dwattr $C$DW$44, DW_AT_declaration
	.dwattr $C$DW$44, DW_AT_external
	.dwattr $C$DW$44, DW_AT_decl_file("../OS/portmacro.h")
	.dwattr $C$DW$44, DW_AT_decl_line(0x97)
	.dwattr $C$DW$44, DW_AT_decl_column(0x07)
	.dwendtag $C$DW$44


$C$DW$45	.dwtag  DW_TAG_subprogram
	.dwattr $C$DW$45, DW_AT_name("vListInsert")
	.dwattr $C$DW$45, DW_AT_TI_symbol_name("vListInsert")
	.dwattr $C$DW$45, DW_AT_declaration
	.dwattr $C$DW$45, DW_AT_external
	.dwattr $C$DW$45, DW_AT_decl_file("../OS/list.h")
	.dwattr $C$DW$45, DW_AT_decl_line(0x171)
	.dwattr $C$DW$45, DW_AT_decl_column(0x06)
$C$DW$46	.dwtag  DW_TAG_formal_parameter
	.dwattr $C$DW$46, DW_AT_type(*$C$DW$T$114)

$C$DW$47	.dwtag  DW_TAG_formal_parameter
	.dwattr $C$DW$47, DW_AT_type(*$C$DW$T$117)

	.dwendtag $C$DW$45


$C$DW$48	.dwtag  DW_TAG_subprogram
	.dwattr $C$DW$48, DW_AT_name("vListInitialise")
	.dwattr $C$DW$48, DW_AT_TI_symbol_name("vListInitialise")
	.dwattr $C$DW$48, DW_AT_declaration
	.dwattr $C$DW$48, DW_AT_external
	.dwattr $C$DW$48, DW_AT_decl_file("../OS/list.h")
	.dwattr $C$DW$48, DW_AT_decl_line(0x159)
	.dwattr $C$DW$48, DW_AT_decl_column(0x06)
$C$DW$49	.dwtag  DW_TAG_formal_parameter
	.dwattr $C$DW$49, DW_AT_type(*$C$DW$T$114)

	.dwendtag $C$DW$48

;	/home/pola/ti/ccsv8/tools/compiler/ti-cgt-arm_18.1.1.LTS/bin/armacpia -@/tmp/TI3N6O77v3M 
	.sect	".text"
	.clink
	.thumbfunc xTaskCreateStatic
	.thumb
	.global	xTaskCreateStatic

$C$DW$50	.dwtag  DW_TAG_subprogram
	.dwattr $C$DW$50, DW_AT_name("xTaskCreateStatic")
	.dwattr $C$DW$50, DW_AT_low_pc(xTaskCreateStatic)
	.dwattr $C$DW$50, DW_AT_high_pc(0x00)
	.dwattr $C$DW$50, DW_AT_TI_symbol_name("xTaskCreateStatic")
	.dwattr $C$DW$50, DW_AT_external
	.dwattr $C$DW$50, DW_AT_type(*$C$DW$T$89)
	.dwattr $C$DW$50, DW_AT_TI_begin_file("../OS/tasks.c")
	.dwattr $C$DW$50, DW_AT_TI_begin_line(0x253)
	.dwattr $C$DW$50, DW_AT_TI_begin_column(0x0f)
	.dwattr $C$DW$50, DW_AT_decl_file("../OS/tasks.c")
	.dwattr $C$DW$50, DW_AT_decl_line(0x253)
	.dwattr $C$DW$50, DW_AT_decl_column(0x0f)
	.dwattr $C$DW$50, DW_AT_TI_max_frame_size(0x30)
	.dwpsn	file "../OS/tasks.c",line 602,column 2,is_stmt,address xTaskCreateStatic,isa 1

	.dwfde $C$DW$CIE, xTaskCreateStatic
$C$DW$51	.dwtag  DW_TAG_formal_parameter
	.dwattr $C$DW$51, DW_AT_name("pxTaskCode")
	.dwattr $C$DW$51, DW_AT_TI_symbol_name("pxTaskCode")
	.dwattr $C$DW$51, DW_AT_type(*$C$DW$T$78)
	.dwattr $C$DW$51, DW_AT_location[DW_OP_reg0]

$C$DW$52	.dwtag  DW_TAG_formal_parameter
	.dwattr $C$DW$52, DW_AT_name("pcName")
	.dwattr $C$DW$52, DW_AT_TI_symbol_name("pcName")
	.dwattr $C$DW$52, DW_AT_type(*$C$DW$T$82)
	.dwattr $C$DW$52, DW_AT_location[DW_OP_reg1]

$C$DW$53	.dwtag  DW_TAG_formal_parameter
	.dwattr $C$DW$53, DW_AT_name("ulStackDepth")
	.dwattr $C$DW$53, DW_AT_TI_symbol_name("ulStackDepth")
	.dwattr $C$DW$53, DW_AT_type(*$C$DW$T$129)
	.dwattr $C$DW$53, DW_AT_location[DW_OP_reg2]

$C$DW$54	.dwtag  DW_TAG_formal_parameter
	.dwattr $C$DW$54, DW_AT_name("pvParameters")
	.dwattr $C$DW$54, DW_AT_TI_symbol_name("pvParameters")
	.dwattr $C$DW$54, DW_AT_type(*$C$DW$T$108)
	.dwattr $C$DW$54, DW_AT_location[DW_OP_reg3]

$C$DW$55	.dwtag  DW_TAG_formal_parameter
	.dwattr $C$DW$55, DW_AT_name("uxPriority")
	.dwattr $C$DW$55, DW_AT_TI_symbol_name("uxPriority")
	.dwattr $C$DW$55, DW_AT_type(*$C$DW$T$26)
	.dwattr $C$DW$55, DW_AT_location[DW_OP_breg13 48]

$C$DW$56	.dwtag  DW_TAG_formal_parameter
	.dwattr $C$DW$56, DW_AT_name("puxStackBuffer")
	.dwattr $C$DW$56, DW_AT_TI_symbol_name("puxStackBuffer")
	.dwattr $C$DW$56, DW_AT_type(*$C$DW$T$264)
	.dwattr $C$DW$56, DW_AT_location[DW_OP_breg13 52]

$C$DW$57	.dwtag  DW_TAG_formal_parameter
	.dwattr $C$DW$57, DW_AT_name("pxTaskBuffer")
	.dwattr $C$DW$57, DW_AT_TI_symbol_name("pxTaskBuffer")
	.dwattr $C$DW$57, DW_AT_type(*$C$DW$T$336)
	.dwattr $C$DW$57, DW_AT_location[DW_OP_breg13 56]

;----------------------------------------------------------------------
; 595 | TaskHandle_t xTaskCreateStatic( TaskFunction_t pxTaskCode,             
; 596 |                                                                 const c
;     | har * const pcName,              /*lint !e971 Unqualified char types ar
;     | e allowed for strings and single characters only. */                   
; 597 |                                                                 const u
;     | int32_t ulStackDepth,                                                  
; 598 |                                                                 void *
;     | const pvParameters,                                                    
; 599 |                                                                 UBaseTy
;     | pe_t uxPriority,                                                       
; 600 |                                                                 StackTy
;     | pe_t * const puxStackBuffer,                                           
; 601 |                                                                 StaticT
;     | ask_t * const pxTaskBuffer )                                           
;----------------------------------------------------------------------

;*****************************************************************************
;* FUNCTION NAME: xTaskCreateStatic                                          *
;*                                                                           *
;*   Regs Modified     : A1,A2,A3,A4,V9,SP,LR,SR,D0,D0_hi,D1,D1_hi,D2,D2_hi, *
;*                           D3,D3_hi,D4,D4_hi,D5,D5_hi,D6,D6_hi,D7,D7_hi,   *
;*                           FPEXC,FPSCR                                     *
;*   Regs Used         : A1,A2,A3,A4,V9,SP,LR,SR,D0,D0_hi,D1,D1_hi,D2,D2_hi, *
;*                           D3,D3_hi,D4,D4_hi,D5,D5_hi,D6,D6_hi,D7,D7_hi,   *
;*                           FPEXC,FPSCR                                     *
;*   Local Frame Size  : 16 Args + 28 Auto + 4 Save = 48 byte                *
;*****************************************************************************
xTaskCreateStatic:
;* --------------------------------------------------------------------------*
	.dwcfi	cfa_offset, 0
        PUSH      {LR}                  ; [DPU_V7M3_PIPE] 
	.dwcfi	cfa_offset, 4
	.dwcfi	save_reg_to_mem, 14, -4
        SUB       SP, SP, #44           ; [DPU_V7M3_PIPE] 
	.dwcfi	cfa_offset, 48
$C$DW$58	.dwtag  DW_TAG_variable
	.dwattr $C$DW$58, DW_AT_name("pxTaskCode")
	.dwattr $C$DW$58, DW_AT_TI_symbol_name("pxTaskCode")
	.dwattr $C$DW$58, DW_AT_type(*$C$DW$T$78)
	.dwattr $C$DW$58, DW_AT_location[DW_OP_breg13 16]

$C$DW$59	.dwtag  DW_TAG_variable
	.dwattr $C$DW$59, DW_AT_name("pcName")
	.dwattr $C$DW$59, DW_AT_TI_symbol_name("pcName")
	.dwattr $C$DW$59, DW_AT_type(*$C$DW$T$82)
	.dwattr $C$DW$59, DW_AT_location[DW_OP_breg13 20]

$C$DW$60	.dwtag  DW_TAG_variable
	.dwattr $C$DW$60, DW_AT_name("ulStackDepth")
	.dwattr $C$DW$60, DW_AT_TI_symbol_name("ulStackDepth")
	.dwattr $C$DW$60, DW_AT_type(*$C$DW$T$129)
	.dwattr $C$DW$60, DW_AT_location[DW_OP_breg13 24]

$C$DW$61	.dwtag  DW_TAG_variable
	.dwattr $C$DW$61, DW_AT_name("pvParameters")
	.dwattr $C$DW$61, DW_AT_TI_symbol_name("pvParameters")
	.dwattr $C$DW$61, DW_AT_type(*$C$DW$T$108)
	.dwattr $C$DW$61, DW_AT_location[DW_OP_breg13 28]

$C$DW$62	.dwtag  DW_TAG_variable
	.dwattr $C$DW$62, DW_AT_name("pxNewTCB")
	.dwattr $C$DW$62, DW_AT_TI_symbol_name("pxNewTCB")
	.dwattr $C$DW$62, DW_AT_type(*$C$DW$T$134)
	.dwattr $C$DW$62, DW_AT_location[DW_OP_breg13 32]

$C$DW$63	.dwtag  DW_TAG_variable
	.dwattr $C$DW$63, DW_AT_name("xReturn")
	.dwattr $C$DW$63, DW_AT_TI_symbol_name("xReturn")
	.dwattr $C$DW$63, DW_AT_type(*$C$DW$T$89)
	.dwattr $C$DW$63, DW_AT_location[DW_OP_breg13 36]

;----------------------------------------------------------------------
; 603 | TCB_t *pxNewTCB;                                                       
; 604 | TaskHandle_t xReturn;                                                  
;----------------------------------------------------------------------
        STR       A4, [SP, #28]         ; [DPU_V7M3_PIPE] |602| 
        STR       A3, [SP, #24]         ; [DPU_V7M3_PIPE] |602| 
        STR       A2, [SP, #20]         ; [DPU_V7M3_PIPE] |602| 
        STR       A1, [SP, #16]         ; [DPU_V7M3_PIPE] |602| 
	.dwpsn	file "../OS/tasks.c",line 606,column 3,is_stmt,isa 1
;----------------------------------------------------------------------
; 606 | configASSERT( puxStackBuffer != NULL );                                
;----------------------------------------------------------------------
        LDR       A2, [SP, #52]         ; [DPU_V7M3_PIPE] |606| 
        MOVS      A1, #0                ; [DPU_V7M3_PIPE] |606| 
        CBZ       A2, ||$C$L1||         ; [] 
        ; BRANCHCC OCCURS {||$C$L1||}    ; [] |606| 
;* --------------------------------------------------------------------------*
        MOVS      A1, #1                ; [DPU_V7M3_PIPE] |606| 
;* --------------------------------------------------------------------------*
||$C$L1||:    
        CBNZ      A1, ||$C$L3||         ; [] 
        ; BRANCHCC OCCURS {||$C$L3||}    ; [] |606| 
;* --------------------------------------------------------------------------*
        MOVS      A1, #160              ; [DPU_V7M3_PIPE] |606| 
        MSR       BASEPRI, A1           ; [DPU_V7M3_PIPE] |606| 
	dsb
	isb
;* --------------------------------------------------------------------------*
;*   BEGIN LOOP ||$C$L2||
;*
;*   Loop source line                : 606
;*   Loop closing brace source line  : 606
;*   Known Minimum Trip Count        : 1
;*   Known Maximum Trip Count        : 4294967295
;*   Known Max Trip Count Factor     : 1
;* --------------------------------------------------------------------------*
||$C$L2||:    
        B         ||$C$L2||             ; [DPU_V7M3_PIPE] |606| 
        ; BRANCH OCCURS {||$C$L2||}      ; [] |606| 
;* --------------------------------------------------------------------------*
||$C$L3||:    
	.dwpsn	file "../OS/tasks.c",line 607,column 3,is_stmt,isa 1
;----------------------------------------------------------------------
; 607 | configASSERT( pxTaskBuffer != NULL );                                  
; 609 | #if( configASSERT_DEFINED == 1 )                                       
;----------------------------------------------------------------------
        LDR       A2, [SP, #56]         ; [DPU_V7M3_PIPE] |607| 
        MOVS      A1, #0                ; [DPU_V7M3_PIPE] |607| 
        CBZ       A2, ||$C$L4||         ; [] 
        ; BRANCHCC OCCURS {||$C$L4||}    ; [] |607| 
;* --------------------------------------------------------------------------*
        MOVS      A1, #1                ; [DPU_V7M3_PIPE] |607| 
;* --------------------------------------------------------------------------*
||$C$L4||:    
        CBNZ      A1, ||$C$L6||         ; [] 
        ; BRANCHCC OCCURS {||$C$L6||}    ; [] |607| 
;* --------------------------------------------------------------------------*
        MOVS      A1, #160              ; [DPU_V7M3_PIPE] |607| 
        MSR       BASEPRI, A1           ; [DPU_V7M3_PIPE] |607| 
	dsb
	isb
;* --------------------------------------------------------------------------*
;*   BEGIN LOOP ||$C$L5||
;*
;*   Loop source line                : 607
;*   Loop closing brace source line  : 607
;*   Known Minimum Trip Count        : 1
;*   Known Maximum Trip Count        : 4294967295
;*   Known Max Trip Count Factor     : 1
;* --------------------------------------------------------------------------*
||$C$L5||:    
        B         ||$C$L5||             ; [DPU_V7M3_PIPE] |607| 
        ; BRANCH OCCURS {||$C$L5||}      ; [] |607| 
;* --------------------------------------------------------------------------*
||$C$L6||:    

$C$DW$64	.dwtag  DW_TAG_lexical_block
	.dwattr $C$DW$64, DW_AT_low_pc(0x00)
	.dwattr $C$DW$64, DW_AT_high_pc(0x00)
$C$DW$65	.dwtag  DW_TAG_variable
	.dwattr $C$DW$65, DW_AT_name("xSize")
	.dwattr $C$DW$65, DW_AT_TI_symbol_name("xSize")
	.dwattr $C$DW$65, DW_AT_type(*$C$DW$T$271)
	.dwattr $C$DW$65, DW_AT_location[DW_OP_breg13 40]

	.dwpsn	file "../OS/tasks.c",line 614,column 26,is_stmt,isa 1
;----------------------------------------------------------------------
; 614 | volatile size_t xSize = sizeof( StaticTask_t );                        
;----------------------------------------------------------------------
        MOVS      A1, #88               ; [DPU_V7M3_PIPE] |614| 
        STR       A1, [SP, #40]         ; [DPU_V7M3_PIPE] |614| 
	.dwpsn	file "../OS/tasks.c",line 615,column 4,is_stmt,isa 1
;----------------------------------------------------------------------
; 615 | configASSERT( xSize == sizeof( TCB_t ) );                              
;----------------------------------------------------------------------
        LDR       A2, [SP, #40]         ; [DPU_V7M3_PIPE] |615| 
        MOVS      A1, #0                ; [DPU_V7M3_PIPE] |615| 
        CMP       A2, #88               ; [DPU_V7M3_PIPE] |615| 
        BNE       ||$C$L7||             ; [DPU_V7M3_PIPE] |615| 
        ; BRANCHCC OCCURS {||$C$L7||}    ; [] |615| 
;* --------------------------------------------------------------------------*
        MOVS      A1, #1                ; [DPU_V7M3_PIPE] |615| 
;* --------------------------------------------------------------------------*
||$C$L7||:    
        CBNZ      A1, ||$C$L9||         ; [] 
        ; BRANCHCC OCCURS {||$C$L9||}    ; [] |615| 
;* --------------------------------------------------------------------------*
        MOVS      A1, #160              ; [DPU_V7M3_PIPE] |615| 
        MSR       BASEPRI, A1           ; [DPU_V7M3_PIPE] |615| 
	dsb
	isb
;* --------------------------------------------------------------------------*
;*   BEGIN LOOP ||$C$L8||
;*
;*   Loop source line                : 615
;*   Loop closing brace source line  : 615
;*   Known Minimum Trip Count        : 1
;*   Known Maximum Trip Count        : 4294967295
;*   Known Max Trip Count Factor     : 1
;* --------------------------------------------------------------------------*
||$C$L8||:    
        B         ||$C$L8||             ; [DPU_V7M3_PIPE] |615| 
        ; BRANCH OCCURS {||$C$L8||}      ; [] |615| 
;* --------------------------------------------------------------------------*
||$C$L9||:    
	.dwpsn	file "../OS/tasks.c",line 616,column 4,is_stmt,isa 1
;----------------------------------------------------------------------
; 616 | ( void ) xSize; /* Prevent lint warning when configASSERT() is not used
;     | . */                                                                   
; 618 | #endif /* configASSERT_DEFINED */                                      
;----------------------------------------------------------------------
        LDR       A1, [SP, #40]         ; [DPU_V7M3_PIPE] |616| 
	.dwendtag $C$DW$64

	.dwpsn	file "../OS/tasks.c",line 621,column 3,is_stmt,isa 1
;----------------------------------------------------------------------
; 621 | if( ( pxTaskBuffer != NULL ) && ( puxStackBuffer != NULL ) )           
;----------------------------------------------------------------------
        LDR       A1, [SP, #56]         ; [DPU_V7M3_PIPE] |621| 
        CBZ       A1, ||$C$L10||        ; [] 
        ; BRANCHCC OCCURS {||$C$L10||}   ; [] |621| 
;* --------------------------------------------------------------------------*
        LDR       A1, [SP, #52]         ; [DPU_V7M3_PIPE] |621| 
        CBZ       A1, ||$C$L10||        ; [] 
        ; BRANCHCC OCCURS {||$C$L10||}   ; [] |621| 
;* --------------------------------------------------------------------------*
	.dwpsn	file "../OS/tasks.c",line 625,column 4,is_stmt,isa 1
;----------------------------------------------------------------------
; 625 | pxNewTCB = ( TCB_t * ) pxTaskBuffer; /*lint !e740 !e9087 Unusual cast i
;     | s ok as the structures are designed to have the same alignment, and the
;     |  size is checked by an assert. */                                      
;----------------------------------------------------------------------
        LDR       A1, [SP, #56]         ; [DPU_V7M3_PIPE] |625| 
        STR       A1, [SP, #32]         ; [DPU_V7M3_PIPE] |625| 
	.dwpsn	file "../OS/tasks.c",line 626,column 4,is_stmt,isa 1
;----------------------------------------------------------------------
; 626 | pxNewTCB->pxStack = ( StackType_t * ) puxStackBuffer;                  
; 628 | #if( tskSTATIC_AND_DYNAMIC_ALLOCATION_POSSIBLE != 0 ) /*lint !e731 !e90
;     | 29 Macro has been consolidated for readability reasons. */             
; 632 |         pxNewTCB->ucStaticallyAllocated = tskSTATICALLY_ALLOCATED_STACK
;     | _AND_TCB;                                                              
; 634 | #endif /* configSUPPORT_DYNAMIC_ALLOCATION */                          
;----------------------------------------------------------------------
        LDR       A2, [SP, #32]         ; [DPU_V7M3_PIPE] |626| 
        LDR       A1, [SP, #52]         ; [DPU_V7M3_PIPE] |626| 
        STR       A1, [A2, #48]         ; [DPU_V7M3_PIPE] |626| 
	.dwpsn	file "../OS/tasks.c",line 636,column 4,is_stmt,isa 1
;----------------------------------------------------------------------
; 636 | prvInitialiseNewTask( pxTaskCode, pcName, ulStackDepth, pvParameters, u
;     | xPriority, &xReturn, pxNewTCB, NULL );                                 
;----------------------------------------------------------------------
        LDR       A1, [SP, #48]         ; [DPU_V7M3_PIPE] |636| 
        STR       A1, [SP, #0]          ; [DPU_V7M3_PIPE] |636| 
        ADD       A1, SP, #36           ; [DPU_V7M3_PIPE] |636| 
        STR       A1, [SP, #4]          ; [DPU_V7M3_PIPE] |636| 
        LDR       A1, [SP, #32]         ; [DPU_V7M3_PIPE] |636| 
        STR       A1, [SP, #8]          ; [DPU_V7M3_PIPE] |636| 
        MOVS      A1, #0                ; [DPU_V7M3_PIPE] |636| 
        STR       A1, [SP, #12]         ; [DPU_V7M3_PIPE] |636| 
        LDR       A3, [SP, #24]         ; [DPU_V7M3_PIPE] |636| 
        LDR       A4, [SP, #28]         ; [DPU_V7M3_PIPE] |636| 
        LDR       A1, [SP, #16]         ; [DPU_V7M3_PIPE] |636| 
        LDR       A2, [SP, #20]         ; [DPU_V7M3_PIPE] |636| 
$C$DW$66	.dwtag  DW_TAG_TI_branch
	.dwattr $C$DW$66, DW_AT_low_pc(0x00)
	.dwattr $C$DW$66, DW_AT_name("prvInitialiseNewTask")
	.dwattr $C$DW$66, DW_AT_TI_call

        BL        prvInitialiseNewTask  ; [DPU_V7M3_PIPE] |636| 
        ; CALL OCCURS {prvInitialiseNewTask }  ; [] |636| 
	.dwpsn	file "../OS/tasks.c",line 637,column 4,is_stmt,isa 1
;----------------------------------------------------------------------
; 637 | prvAddNewTaskToReadyList( pxNewTCB );                                  
;----------------------------------------------------------------------
        LDR       A1, [SP, #32]         ; [DPU_V7M3_PIPE] |637| 
$C$DW$67	.dwtag  DW_TAG_TI_branch
	.dwattr $C$DW$67, DW_AT_low_pc(0x00)
	.dwattr $C$DW$67, DW_AT_name("prvAddNewTaskToReadyList")
	.dwattr $C$DW$67, DW_AT_TI_call

        BL        prvAddNewTaskToReadyList ; [DPU_V7M3_PIPE] |637| 
        ; CALL OCCURS {prvAddNewTaskToReadyList }  ; [] |637| 
	.dwpsn	file "../OS/tasks.c",line 638,column 3,is_stmt,isa 1
;----------------------------------------------------------------------
; 639 | else                                                                   
;----------------------------------------------------------------------
        B         ||$C$L11||            ; [DPU_V7M3_PIPE] |638| 
        ; BRANCH OCCURS {||$C$L11||}     ; [] |638| 
;* --------------------------------------------------------------------------*
||$C$L10||:    
	.dwpsn	file "../OS/tasks.c",line 641,column 4,is_stmt,isa 1
;----------------------------------------------------------------------
; 641 | xReturn = NULL;                                                        
;----------------------------------------------------------------------
        MOVS      A1, #0                ; [DPU_V7M3_PIPE] |641| 
        STR       A1, [SP, #36]         ; [DPU_V7M3_PIPE] |641| 
;* --------------------------------------------------------------------------*
||$C$L11||:    
	.dwpsn	file "../OS/tasks.c",line 644,column 3,is_stmt,isa 1
;----------------------------------------------------------------------
; 644 | return xReturn;                                                        
;----------------------------------------------------------------------
        LDR       A1, [SP, #36]         ; [DPU_V7M3_PIPE] |644| 
	.dwpsn	file "../OS/tasks.c",line 645,column 2,is_stmt,isa 1
        ADD       SP, SP, #44           ; [DPU_V7M3_PIPE] 
	.dwcfi	cfa_offset, 4
$C$DW$68	.dwtag  DW_TAG_TI_branch
	.dwattr $C$DW$68, DW_AT_low_pc(0x00)
	.dwattr $C$DW$68, DW_AT_TI_return

        POP       {PC}                  ; [DPU_V7M3_PIPE] 
	.dwcfi	cfa_offset, 0
        ; BRANCH OCCURS                  ; [] 
	.dwattr $C$DW$50, DW_AT_TI_end_file("../OS/tasks.c")
	.dwattr $C$DW$50, DW_AT_TI_end_line(0x285)
	.dwattr $C$DW$50, DW_AT_TI_end_column(0x02)
	.dwendentry
	.dwendtag $C$DW$50

	.sect	".text"
	.clink
	.thumbfunc prvInitialiseNewTask
	.thumb

$C$DW$69	.dwtag  DW_TAG_subprogram
	.dwattr $C$DW$69, DW_AT_name("prvInitialiseNewTask")
	.dwattr $C$DW$69, DW_AT_low_pc(prvInitialiseNewTask)
	.dwattr $C$DW$69, DW_AT_high_pc(0x00)
	.dwattr $C$DW$69, DW_AT_TI_symbol_name("prvInitialiseNewTask")
	.dwattr $C$DW$69, DW_AT_TI_begin_file("../OS/tasks.c")
	.dwattr $C$DW$69, DW_AT_TI_begin_line(0x346)
	.dwattr $C$DW$69, DW_AT_TI_begin_column(0x0d)
	.dwattr $C$DW$69, DW_AT_decl_file("../OS/tasks.c")
	.dwattr $C$DW$69, DW_AT_decl_line(0x346)
	.dwattr $C$DW$69, DW_AT_decl_column(0x0d)
	.dwattr $C$DW$69, DW_AT_TI_max_frame_size(0x20)
	.dwpsn	file "../OS/tasks.c",line 846,column 1,is_stmt,address prvInitialiseNewTask,isa 1

	.dwfde $C$DW$CIE, prvInitialiseNewTask
$C$DW$70	.dwtag  DW_TAG_formal_parameter
	.dwattr $C$DW$70, DW_AT_name("pxTaskCode")
	.dwattr $C$DW$70, DW_AT_TI_symbol_name("pxTaskCode")
	.dwattr $C$DW$70, DW_AT_type(*$C$DW$T$78)
	.dwattr $C$DW$70, DW_AT_location[DW_OP_reg0]

$C$DW$71	.dwtag  DW_TAG_formal_parameter
	.dwattr $C$DW$71, DW_AT_name("pcName")
	.dwattr $C$DW$71, DW_AT_TI_symbol_name("pcName")
	.dwattr $C$DW$71, DW_AT_type(*$C$DW$T$82)
	.dwattr $C$DW$71, DW_AT_location[DW_OP_reg1]

$C$DW$72	.dwtag  DW_TAG_formal_parameter
	.dwattr $C$DW$72, DW_AT_name("ulStackDepth")
	.dwattr $C$DW$72, DW_AT_TI_symbol_name("ulStackDepth")
	.dwattr $C$DW$72, DW_AT_type(*$C$DW$T$129)
	.dwattr $C$DW$72, DW_AT_location[DW_OP_reg2]

$C$DW$73	.dwtag  DW_TAG_formal_parameter
	.dwattr $C$DW$73, DW_AT_name("pvParameters")
	.dwattr $C$DW$73, DW_AT_TI_symbol_name("pvParameters")
	.dwattr $C$DW$73, DW_AT_type(*$C$DW$T$108)
	.dwattr $C$DW$73, DW_AT_location[DW_OP_reg3]

$C$DW$74	.dwtag  DW_TAG_formal_parameter
	.dwattr $C$DW$74, DW_AT_name("uxPriority")
	.dwattr $C$DW$74, DW_AT_TI_symbol_name("uxPriority")
	.dwattr $C$DW$74, DW_AT_type(*$C$DW$T$26)
	.dwattr $C$DW$74, DW_AT_location[DW_OP_breg13 32]

$C$DW$75	.dwtag  DW_TAG_formal_parameter
	.dwattr $C$DW$75, DW_AT_name("pxCreatedTask")
	.dwattr $C$DW$75, DW_AT_TI_symbol_name("pxCreatedTask")
	.dwattr $C$DW$75, DW_AT_type(*$C$DW$T$131)
	.dwattr $C$DW$75, DW_AT_location[DW_OP_breg13 36]

$C$DW$76	.dwtag  DW_TAG_formal_parameter
	.dwattr $C$DW$76, DW_AT_name("pxNewTCB")
	.dwattr $C$DW$76, DW_AT_TI_symbol_name("pxNewTCB")
	.dwattr $C$DW$76, DW_AT_type(*$C$DW$T$134)
	.dwattr $C$DW$76, DW_AT_location[DW_OP_breg13 40]

$C$DW$77	.dwtag  DW_TAG_formal_parameter
	.dwattr $C$DW$77, DW_AT_name("xRegions")
	.dwattr $C$DW$77, DW_AT_TI_symbol_name("xRegions")
	.dwattr $C$DW$77, DW_AT_type(*$C$DW$T$137)
	.dwattr $C$DW$77, DW_AT_location[DW_OP_breg13 44]

;----------------------------------------------------------------------
; 838 | static void prvInitialiseNewTask(       TaskFunction_t pxTaskCode,     
; 839 | const char * const pcName,              /*lint !e971 Unqualified char t
;     | ypes are allowed for strings and single characters only. */            
; 840 | const uint32_t ulStackDepth,                                           
; 841 | void * const pvParameters,                                             
; 842 | UBaseType_t uxPriority,                                                
; 843 | TaskHandle_t * const pxCreatedTask,                                    
; 844 | TCB_t *pxNewTCB,                                                       
; 845 | const MemoryRegion_t * const xRegions )                                
;----------------------------------------------------------------------

;*****************************************************************************
;* FUNCTION NAME: prvInitialiseNewTask                                       *
;*                                                                           *
;*   Regs Modified     : A1,A2,A3,A4,V9,SP,LR,SR,D0,D0_hi,D1,D1_hi,D2,D2_hi, *
;*                           D3,D3_hi,D4,D4_hi,D5,D5_hi,D6,D6_hi,D7,D7_hi,   *
;*                           FPEXC,FPSCR                                     *
;*   Regs Used         : A1,A2,A3,A4,V9,SP,LR,SR,D0,D0_hi,D1,D1_hi,D2,D2_hi, *
;*                           D3,D3_hi,D4,D4_hi,D5,D5_hi,D6,D6_hi,D7,D7_hi,   *
;*                           FPEXC,FPSCR                                     *
;*   Local Frame Size  : 0 Args + 24 Auto + 4 Save = 28 byte                 *
;*****************************************************************************
prvInitialiseNewTask:
;* --------------------------------------------------------------------------*
	.dwcfi	cfa_offset, 0
        PUSH      {LR}                  ; [DPU_V7M3_PIPE] 
	.dwcfi	cfa_offset, 4
	.dwcfi	save_reg_to_mem, 14, -4
        SUB       SP, SP, #28           ; [DPU_V7M3_PIPE] 
	.dwcfi	cfa_offset, 32
$C$DW$78	.dwtag  DW_TAG_variable
	.dwattr $C$DW$78, DW_AT_name("pxTaskCode")
	.dwattr $C$DW$78, DW_AT_TI_symbol_name("pxTaskCode")
	.dwattr $C$DW$78, DW_AT_type(*$C$DW$T$78)
	.dwattr $C$DW$78, DW_AT_location[DW_OP_breg13 0]

$C$DW$79	.dwtag  DW_TAG_variable
	.dwattr $C$DW$79, DW_AT_name("pcName")
	.dwattr $C$DW$79, DW_AT_TI_symbol_name("pcName")
	.dwattr $C$DW$79, DW_AT_type(*$C$DW$T$82)
	.dwattr $C$DW$79, DW_AT_location[DW_OP_breg13 4]

$C$DW$80	.dwtag  DW_TAG_variable
	.dwattr $C$DW$80, DW_AT_name("ulStackDepth")
	.dwattr $C$DW$80, DW_AT_TI_symbol_name("ulStackDepth")
	.dwattr $C$DW$80, DW_AT_type(*$C$DW$T$129)
	.dwattr $C$DW$80, DW_AT_location[DW_OP_breg13 8]

$C$DW$81	.dwtag  DW_TAG_variable
	.dwattr $C$DW$81, DW_AT_name("pvParameters")
	.dwattr $C$DW$81, DW_AT_TI_symbol_name("pvParameters")
	.dwattr $C$DW$81, DW_AT_type(*$C$DW$T$108)
	.dwattr $C$DW$81, DW_AT_location[DW_OP_breg13 12]

$C$DW$82	.dwtag  DW_TAG_variable
	.dwattr $C$DW$82, DW_AT_name("pxTopOfStack")
	.dwattr $C$DW$82, DW_AT_TI_symbol_name("pxTopOfStack")
	.dwattr $C$DW$82, DW_AT_type(*$C$DW$T$40)
	.dwattr $C$DW$82, DW_AT_location[DW_OP_breg13 16]

$C$DW$83	.dwtag  DW_TAG_variable
	.dwattr $C$DW$83, DW_AT_name("x")
	.dwattr $C$DW$83, DW_AT_TI_symbol_name("x")
	.dwattr $C$DW$83, DW_AT_type(*$C$DW$T$26)
	.dwattr $C$DW$83, DW_AT_location[DW_OP_breg13 20]

;----------------------------------------------------------------------
; 847 | StackType_t *pxTopOfStack;                                             
; 848 | UBaseType_t x;                                                         
; 850 | #if( portUSING_MPU_WRAPPERS == 1 )                                     
; 852 |         BaseType_t xRunPrivileged;                                     
; 853 |         if( ( uxPriority & portPRIVILEGE_BIT ) != 0U )                 
; 855 |                 xRunPrivileged = pdTRUE;                               
; 857 |         else                                                           
; 859 |                 xRunPrivileged = pdFALSE;                              
; 861 |         uxPriority &= ~portPRIVILEGE_BIT;                              
; 862 | #endif /* portUSING_MPU_WRAPPERS == 1 */                               
;----------------------------------------------------------------------
        STR       A4, [SP, #12]         ; [DPU_V7M3_PIPE] |846| 
        STR       A3, [SP, #8]          ; [DPU_V7M3_PIPE] |846| 
        STR       A2, [SP, #4]          ; [DPU_V7M3_PIPE] |846| 
        STR       A1, [SP, #0]          ; [DPU_V7M3_PIPE] |846| 
	.dwpsn	file "../OS/tasks.c",line 864,column 2,is_stmt,isa 1
;----------------------------------------------------------------------
; 864 | configASSERT( pcName );                                                
; 867 | #if( tskSET_NEW_STACKS_TO_KNOWN_VALUE == 1 )                           
;----------------------------------------------------------------------
        LDR       A1, [SP, #4]          ; [DPU_V7M3_PIPE] |864| 
        CBNZ      A1, ||$C$L13||        ; [] 
        ; BRANCHCC OCCURS {||$C$L13||}   ; [] |864| 
;* --------------------------------------------------------------------------*
        MOVS      A1, #160              ; [DPU_V7M3_PIPE] |864| 
        MSR       BASEPRI, A1           ; [DPU_V7M3_PIPE] |864| 
	dsb
	isb
;* --------------------------------------------------------------------------*
;*   BEGIN LOOP ||$C$L12||
;*
;*   Loop source line                : 864
;*   Loop closing brace source line  : 864
;*   Known Minimum Trip Count        : 1
;*   Known Maximum Trip Count        : 4294967295
;*   Known Max Trip Count Factor     : 1
;* --------------------------------------------------------------------------*
||$C$L12||:    
        B         ||$C$L12||            ; [DPU_V7M3_PIPE] |864| 
        ; BRANCH OCCURS {||$C$L12||}     ; [] |864| 
;* --------------------------------------------------------------------------*
||$C$L13||:    
	.dwpsn	file "../OS/tasks.c",line 870,column 3,is_stmt,isa 1
;----------------------------------------------------------------------
; 870 | ( void ) memset( pxNewTCB->pxStack, ( int ) tskSTACK_FILL_BYTE, ( size_
;     | t ) ulStackDepth * sizeof( StackType_t ) );                            
; 872 | #endif /* tskSET_NEW_STACKS_TO_KNOWN_VALUE */                          
; 878 | #if( portSTACK_GROWTH < 0 )                                            
;----------------------------------------------------------------------
        LDR       A1, [SP, #40]         ; [DPU_V7M3_PIPE] |870| 
        LDR       A2, [SP, #8]          ; [DPU_V7M3_PIPE] |870| 
        LDR       A1, [A1, #48]         ; [DPU_V7M3_PIPE] |870| 
        LSLS      A3, A2, #2            ; [DPU_V7M3_PIPE] |870| 
        MOVS      A2, #165              ; [DPU_V7M3_PIPE] |870| 
$C$DW$84	.dwtag  DW_TAG_TI_branch
	.dwattr $C$DW$84, DW_AT_low_pc(0x00)
	.dwattr $C$DW$84, DW_AT_name("memset")
	.dwattr $C$DW$84, DW_AT_TI_call

        BL        memset                ; [DPU_V7M3_PIPE] |870| 
        ; CALL OCCURS {memset }          ; [] |870| 
	.dwpsn	file "../OS/tasks.c",line 880,column 3,is_stmt,isa 1
;----------------------------------------------------------------------
; 880 | pxTopOfStack = &( pxNewTCB->pxStack[ ulStackDepth - ( uint32_t ) 1 ] );
;----------------------------------------------------------------------
        LDR       A2, [SP, #40]         ; [DPU_V7M3_PIPE] |880| 
        LDR       A1, [SP, #8]          ; [DPU_V7M3_PIPE] |880| 
        LDR       A2, [A2, #48]         ; [DPU_V7M3_PIPE] |880| 
        SUBS      A1, A1, #1            ; [DPU_V7M3_PIPE] |880| 
        ADD       A2, A2, A1, LSL #2    ; [DPU_V7M3_PIPE] |880| 
        STR       A2, [SP, #16]         ; [DPU_V7M3_PIPE] |880| 
	.dwpsn	file "../OS/tasks.c",line 881,column 3,is_stmt,isa 1
;----------------------------------------------------------------------
; 881 | pxTopOfStack = ( StackType_t * ) ( ( ( portPOINTER_SIZE_TYPE ) pxTopOfS
;     | tack ) & ( ~( ( portPOINTER_SIZE_TYPE ) portBYTE_ALIGNMENT_MASK ) ) ); 
;     | /*lint !e923 !e9033 !e9078 MISRA exception.  Avoiding casts between poi
;     | nters and integers is not practical.  Size differences accounted for us
;     | ing portPOINTER_SIZE_TYPE type.  Checked by assert(). */               
;----------------------------------------------------------------------
        LDR       A1, [SP, #16]         ; [DPU_V7M3_PIPE] |881| 
        BIC       A1, A1, #7            ; [DPU_V7M3_PIPE] |881| 
        STR       A1, [SP, #16]         ; [DPU_V7M3_PIPE] |881| 
	.dwpsn	file "../OS/tasks.c",line 884,column 3,is_stmt,isa 1
;----------------------------------------------------------------------
; 884 | configASSERT( ( ( ( portPOINTER_SIZE_TYPE ) pxTopOfStack & ( portPOINTE
;     | R_SIZE_TYPE ) portBYTE_ALIGNMENT_MASK ) == 0UL ) );                    
; 886 | #if( configRECORD_STACK_HIGH_ADDRESS == 1 )                            
; 890 |         pxNewTCB->pxEndOfStack = pxTopOfStack;                         
; 892 | #endif /* configRECORD_STACK_HIGH_ADDRESS */                           
; 894 | #else /* portSTACK_GROWTH */                                           
; 896 | pxTopOfStack = pxNewTCB->pxStack;                                      
; 899 | configASSERT( ( ( ( portPOINTER_SIZE_TYPE ) pxNewTCB->pxStack & ( portP
;     | OINTER_SIZE_TYPE ) portBYTE_ALIGNMENT_MASK ) == 0UL ) );               
; 903 | pxNewTCB->pxEndOfStack = pxNewTCB->pxStack + ( ulStackDepth - ( uint32_
;     | t ) 1 );                                                               
; 905 | #endif /* portSTACK_GROWTH */                                          
;----------------------------------------------------------------------
        LDR       A2, [SP, #16]         ; [DPU_V7M3_PIPE] |884| 
        MOVS      A1, #0                ; [DPU_V7M3_PIPE] |884| 
        TST       A2, #7                ; [DPU_V7M3_PIPE] |884| 
        BNE       ||$C$L14||            ; [DPU_V7M3_PIPE] |884| 
        ; BRANCHCC OCCURS {||$C$L14||}   ; [] |884| 
;* --------------------------------------------------------------------------*
        MOVS      A1, #1                ; [DPU_V7M3_PIPE] |884| 
;* --------------------------------------------------------------------------*
||$C$L14||:    
        CBNZ      A1, ||$C$L16||        ; [] 
        ; BRANCHCC OCCURS {||$C$L16||}   ; [] |884| 
;* --------------------------------------------------------------------------*
        MOVS      A1, #160              ; [DPU_V7M3_PIPE] |884| 
        MSR       BASEPRI, A1           ; [DPU_V7M3_PIPE] |884| 
	dsb
	isb
;* --------------------------------------------------------------------------*
;*   BEGIN LOOP ||$C$L15||
;*
;*   Loop source line                : 884
;*   Loop closing brace source line  : 884
;*   Known Minimum Trip Count        : 1
;*   Known Maximum Trip Count        : 4294967295
;*   Known Max Trip Count Factor     : 1
;* --------------------------------------------------------------------------*
||$C$L15||:    
        B         ||$C$L15||            ; [DPU_V7M3_PIPE] |884| 
        ; BRANCH OCCURS {||$C$L15||}     ; [] |884| 
;* --------------------------------------------------------------------------*
||$C$L16||:    
	.dwpsn	file "../OS/tasks.c",line 908,column 7,is_stmt,isa 1
;----------------------------------------------------------------------
; 908 | for( x = ( UBaseType_t ) 0; x < ( UBaseType_t ) configMAX_TASK_NAME_LEN
;     | ; x++ )                                                                
;----------------------------------------------------------------------
        MOVS      A1, #0                ; [DPU_V7M3_PIPE] |908| 
        STR       A1, [SP, #20]         ; [DPU_V7M3_PIPE] |908| 
	.dwpsn	file "../OS/tasks.c",line 908,column 30,is_stmt,isa 1
        LDR       A1, [SP, #20]         ; [DPU_V7M3_PIPE] |908| 
        CMP       A1, #12               ; [DPU_V7M3_PIPE] |908| 
        BCS       ||$C$L19||            ; [DPU_V7M3_PIPE] |908| 
        ; BRANCHCC OCCURS {||$C$L19||}   ; [] |908| 
;* --------------------------------------------------------------------------*
;*   BEGIN LOOP ||$C$L17||
;*
;*   Loop source line                : 908
;*   Loop closing brace source line  : 923
;*   Known Minimum Trip Count        : 1
;*   Known Maximum Trip Count        : 4294967295
;*   Known Max Trip Count Factor     : 1
;* --------------------------------------------------------------------------*
||$C$L17||:    
	.dwpsn	file "../OS/tasks.c",line 910,column 3,is_stmt,isa 1
;----------------------------------------------------------------------
; 910 | pxNewTCB->pcTaskName[ x ] = pcName[ x ];                               
;----------------------------------------------------------------------
        LDR       A2, [SP, #4]          ; [DPU_V7M3_PIPE] |910| 
        LDR       A4, [SP, #20]         ; [DPU_V7M3_PIPE] |910| 
        LDR       A3, [SP, #20]         ; [DPU_V7M3_PIPE] |910| 
        LDR       A1, [SP, #40]         ; [DPU_V7M3_PIPE] |910| 
        LDRB      A2, [A4, +A2]         ; [DPU_V7M3_PIPE] |910| 
        ADDS      A1, A1, A3            ; [DPU_V7M3_PIPE] |910| 
        STRB      A2, [A1, #52]         ; [DPU_V7M3_PIPE] |910| 
	.dwpsn	file "../OS/tasks.c",line 915,column 3,is_stmt,isa 1
;----------------------------------------------------------------------
; 915 | if( pcName[ x ] == ( char ) 0x00 )                                     
;----------------------------------------------------------------------
        LDR       A1, [SP, #4]          ; [DPU_V7M3_PIPE] |915| 
        LDR       A2, [SP, #20]         ; [DPU_V7M3_PIPE] |915| 
        LDRB      A1, [A2, +A1]         ; [DPU_V7M3_PIPE] |915| 
        CBNZ      A1, ||$C$L18||        ; [] 
        ; BRANCHCC OCCURS {||$C$L18||}   ; [] |915| 
;* --------------------------------------------------------------------------*
	.dwpsn	file "../OS/tasks.c",line 917,column 4,is_stmt,isa 1
;----------------------------------------------------------------------
; 917 | break;                                                                 
; 919 | else                                                                   
; 921 | mtCOVERAGE_TEST_MARKER();                                              
;----------------------------------------------------------------------
        B         ||$C$L19||            ; [DPU_V7M3_PIPE] |917| 
        ; BRANCH OCCURS {||$C$L19||}     ; [] |917| 
;* --------------------------------------------------------------------------*
;* --------------------------------------------------------------------------*
||$C$L18||:    
	.dwpsn	file "../OS/tasks.c",line 908,column 75,is_stmt,isa 1
        LDR       A1, [SP, #20]         ; [DPU_V7M3_PIPE] |908| 
        ADDS      A1, A1, #1            ; [DPU_V7M3_PIPE] |908| 
        STR       A1, [SP, #20]         ; [DPU_V7M3_PIPE] |908| 
	.dwpsn	file "../OS/tasks.c",line 908,column 30,is_stmt,isa 1
        LDR       A1, [SP, #20]         ; [DPU_V7M3_PIPE] |908| 
        CMP       A1, #12               ; [DPU_V7M3_PIPE] |908| 
        BCC       ||$C$L17||            ; [DPU_V7M3_PIPE] |908| 
        ; BRANCHCC OCCURS {||$C$L17||}   ; [] |908| 
;* --------------------------------------------------------------------------*
||$C$L19||:    
	.dwpsn	file "../OS/tasks.c",line 927,column 2,is_stmt,isa 1
;----------------------------------------------------------------------
; 927 | pxNewTCB->pcTaskName[ configMAX_TASK_NAME_LEN - 1 ] = '\0';            
;----------------------------------------------------------------------
        LDR       A2, [SP, #40]         ; [DPU_V7M3_PIPE] |927| 
        MOVS      A1, #0                ; [DPU_V7M3_PIPE] |927| 
        STRB      A1, [A2, #63]         ; [DPU_V7M3_PIPE] |927| 
	.dwpsn	file "../OS/tasks.c",line 931,column 2,is_stmt,isa 1
;----------------------------------------------------------------------
; 931 | if( uxPriority >= ( UBaseType_t ) configMAX_PRIORITIES )               
;----------------------------------------------------------------------
        LDR       A1, [SP, #32]         ; [DPU_V7M3_PIPE] |931| 
        CMP       A1, #5                ; [DPU_V7M3_PIPE] |931| 
        BCC       ||$C$L20||            ; [DPU_V7M3_PIPE] |931| 
        ; BRANCHCC OCCURS {||$C$L20||}   ; [] |931| 
;* --------------------------------------------------------------------------*
	.dwpsn	file "../OS/tasks.c",line 933,column 3,is_stmt,isa 1
;----------------------------------------------------------------------
; 933 | uxPriority = ( UBaseType_t ) configMAX_PRIORITIES - ( UBaseType_t ) 1U;
;----------------------------------------------------------------------
        MOVS      A1, #4                ; [DPU_V7M3_PIPE] |933| 
        STR       A1, [SP, #32]         ; [DPU_V7M3_PIPE] |933| 
	.dwpsn	file "../OS/tasks.c",line 934,column 2,is_stmt,isa 1
;----------------------------------------------------------------------
; 935 | else                                                                   
; 937 |         mtCOVERAGE_TEST_MARKER();                                      
;----------------------------------------------------------------------
;* --------------------------------------------------------------------------*
||$C$L20||:    
	.dwpsn	file "../OS/tasks.c",line 940,column 2,is_stmt,isa 1
;----------------------------------------------------------------------
; 940 | pxNewTCB->uxPriority = uxPriority;                                     
; 941 | #if ( configUSE_MUTEXES == 1 )                                         
;----------------------------------------------------------------------
        LDR       A1, [SP, #32]         ; [DPU_V7M3_PIPE] |940| 
        LDR       A2, [SP, #40]         ; [DPU_V7M3_PIPE] |940| 
        STR       A1, [A2, #44]         ; [DPU_V7M3_PIPE] |940| 
	.dwpsn	file "../OS/tasks.c",line 943,column 3,is_stmt,isa 1
;----------------------------------------------------------------------
; 943 | pxNewTCB->uxBasePriority = uxPriority;                                 
;----------------------------------------------------------------------
        LDR       A1, [SP, #32]         ; [DPU_V7M3_PIPE] |943| 
        LDR       A2, [SP, #40]         ; [DPU_V7M3_PIPE] |943| 
        STR       A1, [A2, #72]         ; [DPU_V7M3_PIPE] |943| 
	.dwpsn	file "../OS/tasks.c",line 944,column 3,is_stmt,isa 1
;----------------------------------------------------------------------
; 944 | pxNewTCB->uxMutexesHeld = 0;                                           
; 946 | #endif /* configUSE_MUTEXES */                                         
;----------------------------------------------------------------------
        LDR       A1, [SP, #40]         ; [DPU_V7M3_PIPE] |944| 
        MOVS      A2, #0                ; [DPU_V7M3_PIPE] |944| 
        STR       A2, [A1, #76]         ; [DPU_V7M3_PIPE] |944| 
	.dwpsn	file "../OS/tasks.c",line 948,column 2,is_stmt,isa 1
;----------------------------------------------------------------------
; 948 | vListInitialiseItem( &( pxNewTCB->xStateListItem ) );                  
;----------------------------------------------------------------------
        LDR       A1, [SP, #40]         ; [DPU_V7M3_PIPE] |948| 
        ADDS      A1, A1, #4            ; [DPU_V7M3_PIPE] |948| 
$C$DW$85	.dwtag  DW_TAG_TI_branch
	.dwattr $C$DW$85, DW_AT_low_pc(0x00)
	.dwattr $C$DW$85, DW_AT_name("vListInitialiseItem")
	.dwattr $C$DW$85, DW_AT_TI_call

        BL        vListInitialiseItem   ; [DPU_V7M3_PIPE] |948| 
        ; CALL OCCURS {vListInitialiseItem }  ; [] |948| 
	.dwpsn	file "../OS/tasks.c",line 949,column 2,is_stmt,isa 1
;----------------------------------------------------------------------
; 949 | vListInitialiseItem( &( pxNewTCB->xEventListItem ) );                  
;----------------------------------------------------------------------
        LDR       A1, [SP, #40]         ; [DPU_V7M3_PIPE] |949| 
        ADDS      A1, A1, #24           ; [DPU_V7M3_PIPE] |949| 
$C$DW$86	.dwtag  DW_TAG_TI_branch
	.dwattr $C$DW$86, DW_AT_low_pc(0x00)
	.dwattr $C$DW$86, DW_AT_name("vListInitialiseItem")
	.dwattr $C$DW$86, DW_AT_TI_call

        BL        vListInitialiseItem   ; [DPU_V7M3_PIPE] |949| 
        ; CALL OCCURS {vListInitialiseItem }  ; [] |949| 
	.dwpsn	file "../OS/tasks.c",line 953,column 2,is_stmt,isa 1
;----------------------------------------------------------------------
; 953 | listSET_LIST_ITEM_OWNER( &( pxNewTCB->xStateListItem ), pxNewTCB );    
;----------------------------------------------------------------------
        LDR       A1, [SP, #40]         ; [DPU_V7M3_PIPE] |953| 
        LDR       A2, [SP, #40]         ; [DPU_V7M3_PIPE] |953| 
        STR       A1, [A2, #16]         ; [DPU_V7M3_PIPE] |953| 
	.dwpsn	file "../OS/tasks.c",line 956,column 2,is_stmt,isa 1
;----------------------------------------------------------------------
; 956 | listSET_LIST_ITEM_VALUE( &( pxNewTCB->xEventListItem ), ( TickType_t )
;     | configMAX_PRIORITIES - ( TickType_t ) uxPriority ); /*lint !e961 MISRA 
;     | exception as the casts are only redundant for some ports. */           
;----------------------------------------------------------------------
        LDR       A1, [SP, #32]         ; [DPU_V7M3_PIPE] |956| 
        LDR       A2, [SP, #40]         ; [DPU_V7M3_PIPE] |956| 
        RSB       A1, A1, #5            ; [DPU_V7M3_PIPE] |956| 
        STR       A1, [A2, #24]         ; [DPU_V7M3_PIPE] |956| 
	.dwpsn	file "../OS/tasks.c",line 957,column 2,is_stmt,isa 1
;----------------------------------------------------------------------
; 957 | listSET_LIST_ITEM_OWNER( &( pxNewTCB->xEventListItem ), pxNewTCB );    
; 959 | #if ( portCRITICAL_NESTING_IN_TCB == 1 )                               
; 961 |         pxNewTCB->uxCriticalNesting = ( UBaseType_t ) 0U;              
; 963 | #endif /* portCRITICAL_NESTING_IN_TCB */                               
; 965 | #if ( configUSE_APPLICATION_TASK_TAG == 1 )                            
; 967 |         pxNewTCB->pxTaskTag = NULL;                                    
; 969 | #endif /* configUSE_APPLICATION_TASK_TAG */                            
; 971 | #if ( configGENERATE_RUN_TIME_STATS == 1 )                             
; 973 |         pxNewTCB->ulRunTimeCounter = 0UL;                              
; 975 | #endif /* configGENERATE_RUN_TIME_STATS */                             
; 977 | #if ( portUSING_MPU_WRAPPERS == 1 )                                    
; 979 |         vPortStoreTaskMPUSettings( &( pxNewTCB->xMPUSettings ), xRegion
;     | s, pxNewTCB->pxStack, ulStackDepth );                                  
; 981 | #else                                                                  
;----------------------------------------------------------------------
        LDR       A1, [SP, #40]         ; [DPU_V7M3_PIPE] |957| 
        LDR       A2, [SP, #40]         ; [DPU_V7M3_PIPE] |957| 
        STR       A1, [A2, #36]         ; [DPU_V7M3_PIPE] |957| 
	.dwpsn	file "../OS/tasks.c",line 984,column 3,is_stmt,isa 1
;----------------------------------------------------------------------
; 984 | ( void ) xRegions;                                                     
; 986 | #endif                                                                 
; 988 | #if( configNUM_THREAD_LOCAL_STORAGE_POINTERS != 0 )                    
; 990 | for( x = 0; x < ( UBaseType_t ) configNUM_THREAD_LOCAL_STORAGE_POINTERS
;     | ; x++ )                                                                
; 992 |         pxNewTCB->pvThreadLocalStoragePointers[ x ] = NULL;            
; 995 | #endif                                                                 
; 997 | #if ( configUSE_TASK_NOTIFICATIONS == 1 )                              
;----------------------------------------------------------------------
	.dwpsn	file "../OS/tasks.c",line 999,column 3,is_stmt,isa 1
;----------------------------------------------------------------------
; 999 | pxNewTCB->ulNotifiedValue = 0;                                         
;----------------------------------------------------------------------
        LDR       A1, [SP, #40]         ; [DPU_V7M3_PIPE] |999| 
        MOVS      A2, #0                ; [DPU_V7M3_PIPE] |999| 
        STR       A2, [A1, #80]         ; [DPU_V7M3_PIPE] |999| 
	.dwpsn	file "../OS/tasks.c",line 1000,column 3,is_stmt,isa 1
;----------------------------------------------------------------------
; 1000 | pxNewTCB->ucNotifyState = taskNOT_WAITING_NOTIFICATION;                
; 1002 | #endif                                                                 
; 1004 | #if ( configUSE_NEWLIB_REENTRANT == 1 )                                
; 1007 | _REENT_INIT_PTR( ( &( pxNewTCB->xNewLib_reent ) ) );                   
; 1009 | #endif                                                                 
; 1011 | #if( INCLUDE_xTaskAbortDelay == 1 )                                    
; 1013 | pxNewTCB->ucDelayAborted = pdFALSE;                                    
; 1015 | #endif                                                                 
; 1021 | #if( portUSING_MPU_WRAPPERS == 1 )                                     
; 1023 | pxNewTCB->pxTopOfStack = pxPortInitialiseStack( pxTopOfStack, pxTaskCod
;     | e, pvParameters, xRunPrivileged );                                     
; 1025 | #else /* portUSING_MPU_WRAPPERS */                                     
;----------------------------------------------------------------------
        LDR       A2, [SP, #40]         ; [DPU_V7M3_PIPE] |1000| 
        MOVS      A1, #0                ; [DPU_V7M3_PIPE] |1000| 
        STRB      A1, [A2, #84]         ; [DPU_V7M3_PIPE] |1000| 
	.dwpsn	file "../OS/tasks.c",line 1027,column 3,is_stmt,isa 1
;----------------------------------------------------------------------
; 1027 | pxNewTCB->pxTopOfStack = pxPortInitialiseStack( pxTopOfStack, pxTaskCod
;     | e, pvParameters );                                                     
; 1029 | #endif /* portUSING_MPU_WRAPPERS */                                    
;----------------------------------------------------------------------
        LDR       A1, [SP, #16]         ; [DPU_V7M3_PIPE] |1027| 
        LDR       A3, [SP, #12]         ; [DPU_V7M3_PIPE] |1027| 
        LDR       A2, [SP, #0]          ; [DPU_V7M3_PIPE] |1027| 
$C$DW$87	.dwtag  DW_TAG_TI_branch
	.dwattr $C$DW$87, DW_AT_low_pc(0x00)
	.dwattr $C$DW$87, DW_AT_name("pxPortInitialiseStack")
	.dwattr $C$DW$87, DW_AT_TI_call

        BL        pxPortInitialiseStack ; [DPU_V7M3_PIPE] |1027| 
        ; CALL OCCURS {pxPortInitialiseStack }  ; [] |1027| 
        LDR       A2, [SP, #40]         ; [DPU_V7M3_PIPE] |1027| 
        STR       A1, [A2, #0]          ; [DPU_V7M3_PIPE] |1027| 
	.dwpsn	file "../OS/tasks.c",line 1031,column 2,is_stmt,isa 1
;----------------------------------------------------------------------
; 1031 | if( pxCreatedTask != NULL )                                            
;----------------------------------------------------------------------
        LDR       A1, [SP, #36]         ; [DPU_V7M3_PIPE] |1031| 
        CBZ       A1, ||$C$L21||        ; [] 
        ; BRANCHCC OCCURS {||$C$L21||}   ; [] |1031| 
;* --------------------------------------------------------------------------*
	.dwpsn	file "../OS/tasks.c",line 1035,column 3,is_stmt,isa 1
;----------------------------------------------------------------------
; 1035 | *pxCreatedTask = ( TaskHandle_t ) pxNewTCB;                            
;----------------------------------------------------------------------
        LDR       A1, [SP, #40]         ; [DPU_V7M3_PIPE] |1035| 
        LDR       A2, [SP, #36]         ; [DPU_V7M3_PIPE] |1035| 
        STR       A1, [A2, #0]          ; [DPU_V7M3_PIPE] |1035| 
	.dwpsn	file "../OS/tasks.c",line 1036,column 2,is_stmt,isa 1
;----------------------------------------------------------------------
; 1037 | else                                                                   
; 1039 |         mtCOVERAGE_TEST_MARKER();                                      
;----------------------------------------------------------------------
        B         ||$C$L21||            ; [DPU_V7M3_PIPE] |1036| 
        ; BRANCH OCCURS {||$C$L21||}     ; [] |1036| 
;* --------------------------------------------------------------------------*
;* --------------------------------------------------------------------------*
||$C$L21||:    
        ADD       SP, SP, #28           ; [DPU_V7M3_PIPE] 
	.dwcfi	cfa_offset, 4
$C$DW$88	.dwtag  DW_TAG_TI_branch
	.dwattr $C$DW$88, DW_AT_low_pc(0x00)
	.dwattr $C$DW$88, DW_AT_TI_return

        POP       {PC}                  ; [DPU_V7M3_PIPE] 
	.dwcfi	cfa_offset, 0
        ; BRANCH OCCURS                  ; [] 
	.dwattr $C$DW$69, DW_AT_TI_end_file("../OS/tasks.c")
	.dwattr $C$DW$69, DW_AT_TI_end_line(0x411)
	.dwattr $C$DW$69, DW_AT_TI_end_column(0x01)
	.dwendentry
	.dwendtag $C$DW$69

	.sect	".text"
	.clink
	.thumbfunc prvAddNewTaskToReadyList
	.thumb

$C$DW$89	.dwtag  DW_TAG_subprogram
	.dwattr $C$DW$89, DW_AT_name("prvAddNewTaskToReadyList")
	.dwattr $C$DW$89, DW_AT_low_pc(prvAddNewTaskToReadyList)
	.dwattr $C$DW$89, DW_AT_high_pc(0x00)
	.dwattr $C$DW$89, DW_AT_TI_symbol_name("prvAddNewTaskToReadyList")
	.dwattr $C$DW$89, DW_AT_TI_begin_file("../OS/tasks.c")
	.dwattr $C$DW$89, DW_AT_TI_begin_line(0x414)
	.dwattr $C$DW$89, DW_AT_TI_begin_column(0x0d)
	.dwattr $C$DW$89, DW_AT_decl_file("../OS/tasks.c")
	.dwattr $C$DW$89, DW_AT_decl_line(0x414)
	.dwattr $C$DW$89, DW_AT_decl_column(0x0d)
	.dwattr $C$DW$89, DW_AT_TI_max_frame_size(0x10)
	.dwpsn	file "../OS/tasks.c",line 1045,column 1,is_stmt,address prvAddNewTaskToReadyList,isa 1

	.dwfde $C$DW$CIE, prvAddNewTaskToReadyList
$C$DW$90	.dwtag  DW_TAG_formal_parameter
	.dwattr $C$DW$90, DW_AT_name("pxNewTCB")
	.dwattr $C$DW$90, DW_AT_TI_symbol_name("pxNewTCB")
	.dwattr $C$DW$90, DW_AT_type(*$C$DW$T$134)
	.dwattr $C$DW$90, DW_AT_location[DW_OP_reg0]

;----------------------------------------------------------------------
; 1044 | static void prvAddNewTaskToReadyList( TCB_t *pxNewTCB )                
;----------------------------------------------------------------------

;*****************************************************************************
;* FUNCTION NAME: prvAddNewTaskToReadyList                                   *
;*                                                                           *
;*   Regs Modified     : A1,A2,A3,A4,V1,V9,SP,LR,SR,D0,D0_hi,D1,D1_hi,D2,    *
;*                           D2_hi,D3,D3_hi,D4,D4_hi,D5,D5_hi,D6,D6_hi,D7,   *
;*                           D7_hi,FPEXC,FPSCR                               *
;*   Regs Used         : A1,A2,A3,A4,V1,V9,SP,LR,SR,D0,D0_hi,D1,D1_hi,D2,    *
;*                           D2_hi,D3,D3_hi,D4,D4_hi,D5,D5_hi,D6,D6_hi,D7,   *
;*                           D7_hi,FPEXC,FPSCR                               *
;*   Local Frame Size  : 0 Args + 4 Auto + 8 Save = 12 byte                  *
;*****************************************************************************
prvAddNewTaskToReadyList:
;* --------------------------------------------------------------------------*
	.dwcfi	cfa_offset, 0
        PUSH      {A3, A4, V1, LR}      ; [DPU_V7M3_PIPE] 
	.dwcfi	cfa_offset, 16
	.dwcfi	save_reg_to_mem, 14, -4
	.dwcfi	save_reg_to_mem, 4, -8
	.dwcfi	save_reg_to_mem, 3, -12
	.dwcfi	save_reg_to_mem, 2, -16
$C$DW$91	.dwtag  DW_TAG_variable
	.dwattr $C$DW$91, DW_AT_name("pxNewTCB")
	.dwattr $C$DW$91, DW_AT_TI_symbol_name("pxNewTCB")
	.dwattr $C$DW$91, DW_AT_type(*$C$DW$T$134)
	.dwattr $C$DW$91, DW_AT_location[DW_OP_breg13 0]

        STR       A1, [SP, #0]          ; [DPU_V7M3_PIPE] |1045| 
	.dwpsn	file "../OS/tasks.c",line 1048,column 2,is_stmt,isa 1
;----------------------------------------------------------------------
; 1048 | taskENTER_CRITICAL();                                                  
;----------------------------------------------------------------------
$C$DW$92	.dwtag  DW_TAG_TI_branch
	.dwattr $C$DW$92, DW_AT_low_pc(0x00)
	.dwattr $C$DW$92, DW_AT_name("vPortEnterCritical")
	.dwattr $C$DW$92, DW_AT_TI_call

        BL        vPortEnterCritical    ; [DPU_V7M3_PIPE] |1048| 
        ; CALL OCCURS {vPortEnterCritical }  ; [] |1048| 
	.dwpsn	file "../OS/tasks.c",line 1050,column 3,is_stmt,isa 1
;----------------------------------------------------------------------
; 1050 | uxCurrentNumberOfTasks++;                                              
;----------------------------------------------------------------------
        LDR       A2, $C$CON1           ; [DPU_V7M3_PIPE] |1050| 
        LDR       A1, [A2, #0]          ; [DPU_V7M3_PIPE] |1050| 
        ADDS      A1, A1, #1            ; [DPU_V7M3_PIPE] |1050| 
        STR       A1, [A2, #0]          ; [DPU_V7M3_PIPE] |1050| 
	.dwpsn	file "../OS/tasks.c",line 1051,column 3,is_stmt,isa 1
;----------------------------------------------------------------------
; 1051 | if( pxCurrentTCB == NULL )                                             
;----------------------------------------------------------------------
        LDR       A1, $C$CON2           ; [DPU_V7M3_PIPE] |1051| 
        LDR       A1, [A1, #0]          ; [DPU_V7M3_PIPE] |1051| 
        CBNZ      A1, ||$C$L22||        ; [] 
        ; BRANCHCC OCCURS {||$C$L22||}   ; [] |1051| 
;* --------------------------------------------------------------------------*
	.dwpsn	file "../OS/tasks.c",line 1055,column 4,is_stmt,isa 1
;----------------------------------------------------------------------
; 1055 | pxCurrentTCB = pxNewTCB;                                               
;----------------------------------------------------------------------
        LDR       A1, [SP, #0]          ; [DPU_V7M3_PIPE] |1055| 
        LDR       A2, $C$CON2           ; [DPU_V7M3_PIPE] |1055| 
        STR       A1, [A2, #0]          ; [DPU_V7M3_PIPE] |1055| 
	.dwpsn	file "../OS/tasks.c",line 1057,column 4,is_stmt,isa 1
;----------------------------------------------------------------------
; 1057 | if( uxCurrentNumberOfTasks == ( UBaseType_t ) 1 )                      
;----------------------------------------------------------------------
        LDR       A1, $C$CON1           ; [DPU_V7M3_PIPE] |1057| 
        LDR       A1, [A1, #0]          ; [DPU_V7M3_PIPE] |1057| 
        CMP       A1, #1                ; [DPU_V7M3_PIPE] |1057| 
        BNE       ||$C$L23||            ; [DPU_V7M3_PIPE] |1057| 
        ; BRANCHCC OCCURS {||$C$L23||}   ; [] |1057| 
;* --------------------------------------------------------------------------*
	.dwpsn	file "../OS/tasks.c",line 1062,column 5,is_stmt,isa 1
;----------------------------------------------------------------------
; 1062 | prvInitialiseTaskLists();                                              
;----------------------------------------------------------------------
$C$DW$93	.dwtag  DW_TAG_TI_branch
	.dwattr $C$DW$93, DW_AT_low_pc(0x00)
	.dwattr $C$DW$93, DW_AT_name("prvInitialiseTaskLists")
	.dwattr $C$DW$93, DW_AT_TI_call

        BL        prvInitialiseTaskLists ; [DPU_V7M3_PIPE] |1062| 
        ; CALL OCCURS {prvInitialiseTaskLists }  ; [] |1062| 
	.dwpsn	file "../OS/tasks.c",line 1063,column 4,is_stmt,isa 1
;----------------------------------------------------------------------
; 1064 | else                                                                   
; 1066 |         mtCOVERAGE_TEST_MARKER();                                      
; 1069 | else                                                                   
;----------------------------------------------------------------------
        B         ||$C$L23||            ; [DPU_V7M3_PIPE] |1063| 
        ; BRANCH OCCURS {||$C$L23||}     ; [] |1063| 
;* --------------------------------------------------------------------------*
;* --------------------------------------------------------------------------*
||$C$L22||:    
	.dwpsn	file "../OS/tasks.c",line 1074,column 4,is_stmt,isa 1
;----------------------------------------------------------------------
; 1074 | if( xSchedulerRunning == pdFALSE )                                     
;----------------------------------------------------------------------
        LDR       A1, $C$CON3           ; [DPU_V7M3_PIPE] |1074| 
        LDR       A1, [A1, #0]          ; [DPU_V7M3_PIPE] |1074| 
        CBNZ      A1, ||$C$L23||        ; [] 
        ; BRANCHCC OCCURS {||$C$L23||}   ; [] |1074| 
;* --------------------------------------------------------------------------*
	.dwpsn	file "../OS/tasks.c",line 1076,column 5,is_stmt,isa 1
;----------------------------------------------------------------------
; 1076 | if( pxCurrentTCB->uxPriority <= pxNewTCB->uxPriority )                 
;----------------------------------------------------------------------
        LDR       A2, $C$CON2           ; [DPU_V7M3_PIPE] |1076| 
        LDR       A1, [SP, #0]          ; [DPU_V7M3_PIPE] |1076| 
        LDR       A2, [A2, #0]          ; [DPU_V7M3_PIPE] |1076| 
        LDR       A1, [A1, #44]         ; [DPU_V7M3_PIPE] |1076| 
        LDR       A2, [A2, #44]         ; [DPU_V7M3_PIPE] |1076| 
        CMP       A1, A2                ; [DPU_V7M3_PIPE] |1076| 
        BCC       ||$C$L23||            ; [DPU_V7M3_PIPE] |1076| 
        ; BRANCHCC OCCURS {||$C$L23||}   ; [] |1076| 
;* --------------------------------------------------------------------------*
	.dwpsn	file "../OS/tasks.c",line 1078,column 6,is_stmt,isa 1
;----------------------------------------------------------------------
; 1078 | pxCurrentTCB = pxNewTCB;                                               
;----------------------------------------------------------------------
        LDR       A1, [SP, #0]          ; [DPU_V7M3_PIPE] |1078| 
        LDR       A2, $C$CON2           ; [DPU_V7M3_PIPE] |1078| 
        STR       A1, [A2, #0]          ; [DPU_V7M3_PIPE] |1078| 
	.dwpsn	file "../OS/tasks.c",line 1079,column 5,is_stmt,isa 1
;----------------------------------------------------------------------
; 1080 | else                                                                   
; 1082 |         mtCOVERAGE_TEST_MARKER();                                      
; 1085 | else                                                                   
; 1087 | mtCOVERAGE_TEST_MARKER();                                              
;----------------------------------------------------------------------
        B         ||$C$L23||            ; [DPU_V7M3_PIPE] |1079| 
        ; BRANCH OCCURS {||$C$L23||}     ; [] |1079| 
;* --------------------------------------------------------------------------*
;* --------------------------------------------------------------------------*
||$C$L23||:    
	.dwpsn	file "../OS/tasks.c",line 1091,column 3,is_stmt,isa 1
;----------------------------------------------------------------------
; 1091 | uxTaskNumber++;                                                        
; 1093 | #if ( configUSE_TRACE_FACILITY == 1 )                                  
;----------------------------------------------------------------------
        LDR       A2, $C$CON4           ; [DPU_V7M3_PIPE] |1091| 
        LDR       A1, [A2, #0]          ; [DPU_V7M3_PIPE] |1091| 
        ADDS      A1, A1, #1            ; [DPU_V7M3_PIPE] |1091| 
        STR       A1, [A2, #0]          ; [DPU_V7M3_PIPE] |1091| 
	.dwpsn	file "../OS/tasks.c",line 1096,column 4,is_stmt,isa 1
;----------------------------------------------------------------------
; 1096 | pxNewTCB->uxTCBNumber = uxTaskNumber;                                  
; 1098 | #endif /* configUSE_TRACE_FACILITY */                                  
; 1099 | traceTASK_CREATE( pxNewTCB );                                          
;----------------------------------------------------------------------
        LDR       A1, $C$CON4           ; [DPU_V7M3_PIPE] |1096| 
        LDR       A2, [SP, #0]          ; [DPU_V7M3_PIPE] |1096| 
        LDR       A1, [A1, #0]          ; [DPU_V7M3_PIPE] |1096| 
        STR       A1, [A2, #64]         ; [DPU_V7M3_PIPE] |1096| 
	.dwpsn	file "../OS/tasks.c",line 1101,column 3,is_stmt,isa 1
;----------------------------------------------------------------------
; 1101 | prvAddTaskToReadyList( pxNewTCB );                                     
;----------------------------------------------------------------------
        LDR       A3, $C$CON5           ; [DPU_V7M3_PIPE] |1101| 
        LDR       A1, [SP, #0]          ; [DPU_V7M3_PIPE] |1101| 
        LDR       A4, [A3, #0]          ; [DPU_V7M3_PIPE] |1101| 
        LDR       A2, [SP, #0]          ; [DPU_V7M3_PIPE] |1101| 
        LDR       V1, [A1, #44]         ; [DPU_V7M3_PIPE] |1101| 
        MOVS      A1, #1                ; [DPU_V7M3_PIPE] |1101| 
        LSLS      A1, A1, V1            ; [DPU_V7M3_PIPE] |1101| 
        ORRS      A1, A1, A4            ; [DPU_V7M3_PIPE] |1101| 
        STR       A1, [A3, #0]          ; [DPU_V7M3_PIPE] |1101| 
        LDR       A4, $C$CON6           ; [DPU_V7M3_PIPE] |1101| 
        LDR       A3, [A2, #44]         ; [DPU_V7M3_PIPE] |1101| 
        LDR       A2, [SP, #0]          ; [DPU_V7M3_PIPE] |1101| 
        LSLS      A1, A3, #2            ; [DPU_V7M3_PIPE] |1101| 
        ADD       A1, A1, A3, LSL #4    ; [DPU_V7M3_PIPE] |1101| 
        ADDS      A2, A2, #4            ; [DPU_V7M3_PIPE] |1101| 
        ADDS      A1, A1, A4            ; [DPU_V7M3_PIPE] |1101| 
$C$DW$94	.dwtag  DW_TAG_TI_branch
	.dwattr $C$DW$94, DW_AT_low_pc(0x00)
	.dwattr $C$DW$94, DW_AT_name("vListInsertEnd")
	.dwattr $C$DW$94, DW_AT_TI_call

        BL        vListInsertEnd        ; [DPU_V7M3_PIPE] |1101| 
        ; CALL OCCURS {vListInsertEnd }  ; [] |1101| 
	.dwpsn	file "../OS/tasks.c",line 1103,column 3,is_stmt,isa 1
;----------------------------------------------------------------------
; 1103 | portSETUP_TCB( pxNewTCB );                                             
;----------------------------------------------------------------------
	.dwpsn	file "../OS/tasks.c",line 1105,column 2,is_stmt,isa 1
;----------------------------------------------------------------------
; 1105 | taskEXIT_CRITICAL();                                                   
;----------------------------------------------------------------------
$C$DW$95	.dwtag  DW_TAG_TI_branch
	.dwattr $C$DW$95, DW_AT_low_pc(0x00)
	.dwattr $C$DW$95, DW_AT_name("vPortExitCritical")
	.dwattr $C$DW$95, DW_AT_TI_call

        BL        vPortExitCritical     ; [DPU_V7M3_PIPE] |1105| 
        ; CALL OCCURS {vPortExitCritical }  ; [] |1105| 
	.dwpsn	file "../OS/tasks.c",line 1107,column 2,is_stmt,isa 1
;----------------------------------------------------------------------
; 1107 | if( xSchedulerRunning != pdFALSE )                                     
;----------------------------------------------------------------------
        LDR       A1, $C$CON3           ; [DPU_V7M3_PIPE] |1107| 
        LDR       A1, [A1, #0]          ; [DPU_V7M3_PIPE] |1107| 
        CBZ       A1, ||$C$L24||        ; [] 
        ; BRANCHCC OCCURS {||$C$L24||}   ; [] |1107| 
;* --------------------------------------------------------------------------*
	.dwpsn	file "../OS/tasks.c",line 1111,column 3,is_stmt,isa 1
;----------------------------------------------------------------------
; 1111 | if( pxCurrentTCB->uxPriority < pxNewTCB->uxPriority )                  
;----------------------------------------------------------------------
        LDR       A2, $C$CON2           ; [DPU_V7M3_PIPE] |1111| 
        LDR       A1, [SP, #0]          ; [DPU_V7M3_PIPE] |1111| 
        LDR       A2, [A2, #0]          ; [DPU_V7M3_PIPE] |1111| 
        LDR       A1, [A1, #44]         ; [DPU_V7M3_PIPE] |1111| 
        LDR       A2, [A2, #44]         ; [DPU_V7M3_PIPE] |1111| 
        CMP       A1, A2                ; [DPU_V7M3_PIPE] |1111| 
        BLS       ||$C$L24||            ; [DPU_V7M3_PIPE] |1111| 
        ; BRANCHCC OCCURS {||$C$L24||}   ; [] |1111| 
;* --------------------------------------------------------------------------*
	.dwpsn	file "../OS/tasks.c",line 1113,column 4,is_stmt,isa 1
;----------------------------------------------------------------------
; 1113 | taskYIELD_IF_USING_PREEMPTION();                                       
;----------------------------------------------------------------------
        LDR       A2, $C$CON7           ; [DPU_V7M3_PIPE] |1113| 
        MOV       A1, #268435456        ; [DPU_V7M3_PIPE] |1113| 
        STR       A1, [A2, #0]          ; [DPU_V7M3_PIPE] |1113| 
	dsb
	isb
	.dwpsn	file "../OS/tasks.c",line 1114,column 3,is_stmt,isa 1
;----------------------------------------------------------------------
; 1115 | else                                                                   
; 1117 |         mtCOVERAGE_TEST_MARKER();                                      
; 1120 | else                                                                   
; 1122 | mtCOVERAGE_TEST_MARKER();                                              
;----------------------------------------------------------------------
        B         ||$C$L24||            ; [DPU_V7M3_PIPE] |1114| 
        ; BRANCH OCCURS {||$C$L24||}     ; [] |1114| 
;* --------------------------------------------------------------------------*
;* --------------------------------------------------------------------------*
||$C$L24||:    
$C$DW$96	.dwtag  DW_TAG_TI_branch
	.dwattr $C$DW$96, DW_AT_low_pc(0x00)
	.dwattr $C$DW$96, DW_AT_TI_return

        POP       {A3, A4, V1, PC}      ; [DPU_V7M3_PIPE] 
	.dwcfi	cfa_offset, 0
	.dwcfi	restore_reg, 4
	.dwcfi	restore_reg, 3
	.dwcfi	restore_reg, 2
        ; BRANCH OCCURS                  ; [] 
	.dwattr $C$DW$89, DW_AT_TI_end_file("../OS/tasks.c")
	.dwattr $C$DW$89, DW_AT_TI_end_line(0x464)
	.dwattr $C$DW$89, DW_AT_TI_end_column(0x01)
	.dwendentry
	.dwendtag $C$DW$89

	.sect	".text"
	.clink
	.thumbfunc vTaskDelayUntil
	.thumb
	.global	vTaskDelayUntil

$C$DW$97	.dwtag  DW_TAG_subprogram
	.dwattr $C$DW$97, DW_AT_name("vTaskDelayUntil")
	.dwattr $C$DW$97, DW_AT_low_pc(vTaskDelayUntil)
	.dwattr $C$DW$97, DW_AT_high_pc(0x00)
	.dwattr $C$DW$97, DW_AT_TI_symbol_name("vTaskDelayUntil")
	.dwattr $C$DW$97, DW_AT_external
	.dwattr $C$DW$97, DW_AT_TI_begin_file("../OS/tasks.c")
	.dwattr $C$DW$97, DW_AT_TI_begin_line(0x4c5)
	.dwattr $C$DW$97, DW_AT_TI_begin_column(0x07)
	.dwattr $C$DW$97, DW_AT_decl_file("../OS/tasks.c")
	.dwattr $C$DW$97, DW_AT_decl_line(0x4c5)
	.dwattr $C$DW$97, DW_AT_decl_column(0x07)
	.dwattr $C$DW$97, DW_AT_TI_max_frame_size(0x20)
	.dwpsn	file "../OS/tasks.c",line 1222,column 2,is_stmt,address vTaskDelayUntil,isa 1

	.dwfde $C$DW$CIE, vTaskDelayUntil
$C$DW$98	.dwtag  DW_TAG_formal_parameter
	.dwattr $C$DW$98, DW_AT_name("pxPreviousWakeTime")
	.dwattr $C$DW$98, DW_AT_TI_symbol_name("pxPreviousWakeTime")
	.dwattr $C$DW$98, DW_AT_type(*$C$DW$T$143)
	.dwattr $C$DW$98, DW_AT_location[DW_OP_reg0]

$C$DW$99	.dwtag  DW_TAG_formal_parameter
	.dwattr $C$DW$99, DW_AT_name("xTimeIncrement")
	.dwattr $C$DW$99, DW_AT_TI_symbol_name("xTimeIncrement")
	.dwattr $C$DW$99, DW_AT_type(*$C$DW$T$144)
	.dwattr $C$DW$99, DW_AT_location[DW_OP_reg1]

;----------------------------------------------------------------------
; 1221 | void vTaskDelayUntil( TickType_t * const pxPreviousWakeTime, const Tick
;     | Type_t xTimeIncrement )                                                
;----------------------------------------------------------------------

;*****************************************************************************
;* FUNCTION NAME: vTaskDelayUntil                                            *
;*                                                                           *
;*   Regs Modified     : A1,A2,A3,A4,V9,SP,LR,SR,D0,D0_hi,D1,D1_hi,D2,D2_hi, *
;*                           D3,D3_hi,D4,D4_hi,D5,D5_hi,D6,D6_hi,D7,D7_hi,   *
;*                           FPEXC,FPSCR                                     *
;*   Regs Used         : A1,A2,A3,A4,V9,SP,LR,SR,D0,D0_hi,D1,D1_hi,D2,D2_hi, *
;*                           D3,D3_hi,D4,D4_hi,D5,D5_hi,D6,D6_hi,D7,D7_hi,   *
;*                           FPEXC,FPSCR                                     *
;*   Local Frame Size  : 0 Args + 24 Auto + 4 Save = 28 byte                 *
;*****************************************************************************
vTaskDelayUntil:
;* --------------------------------------------------------------------------*
	.dwcfi	cfa_offset, 0
        PUSH      {LR}                  ; [DPU_V7M3_PIPE] 
	.dwcfi	cfa_offset, 4
	.dwcfi	save_reg_to_mem, 14, -4
        SUB       SP, SP, #28           ; [DPU_V7M3_PIPE] 
	.dwcfi	cfa_offset, 32
$C$DW$100	.dwtag  DW_TAG_variable
	.dwattr $C$DW$100, DW_AT_name("pxPreviousWakeTime")
	.dwattr $C$DW$100, DW_AT_TI_symbol_name("pxPreviousWakeTime")
	.dwattr $C$DW$100, DW_AT_type(*$C$DW$T$143)
	.dwattr $C$DW$100, DW_AT_location[DW_OP_breg13 0]

$C$DW$101	.dwtag  DW_TAG_variable
	.dwattr $C$DW$101, DW_AT_name("xTimeIncrement")
	.dwattr $C$DW$101, DW_AT_TI_symbol_name("xTimeIncrement")
	.dwattr $C$DW$101, DW_AT_type(*$C$DW$T$144)
	.dwattr $C$DW$101, DW_AT_location[DW_OP_breg13 4]

$C$DW$102	.dwtag  DW_TAG_variable
	.dwattr $C$DW$102, DW_AT_name("xTimeToWake")
	.dwattr $C$DW$102, DW_AT_TI_symbol_name("xTimeToWake")
	.dwattr $C$DW$102, DW_AT_type(*$C$DW$T$50)
	.dwattr $C$DW$102, DW_AT_location[DW_OP_breg13 8]

$C$DW$103	.dwtag  DW_TAG_variable
	.dwattr $C$DW$103, DW_AT_name("xAlreadyYielded")
	.dwattr $C$DW$103, DW_AT_TI_symbol_name("xAlreadyYielded")
	.dwattr $C$DW$103, DW_AT_type(*$C$DW$T$93)
	.dwattr $C$DW$103, DW_AT_location[DW_OP_breg13 12]

$C$DW$104	.dwtag  DW_TAG_variable
	.dwattr $C$DW$104, DW_AT_name("xShouldDelay")
	.dwattr $C$DW$104, DW_AT_TI_symbol_name("xShouldDelay")
	.dwattr $C$DW$104, DW_AT_type(*$C$DW$T$93)
	.dwattr $C$DW$104, DW_AT_location[DW_OP_breg13 16]

;----------------------------------------------------------------------
; 1223 | TickType_t xTimeToWake;                                                
;----------------------------------------------------------------------
        STR       A2, [SP, #4]          ; [DPU_V7M3_PIPE] |1222| 
        STR       A1, [SP, #0]          ; [DPU_V7M3_PIPE] |1222| 
	.dwpsn	file "../OS/tasks.c",line 1224,column 43,is_stmt,isa 1
;----------------------------------------------------------------------
; 1224 | BaseType_t xAlreadyYielded, xShouldDelay = pdFALSE;                    
;----------------------------------------------------------------------
        MOVS      A1, #0                ; [DPU_V7M3_PIPE] |1224| 
        STR       A1, [SP, #16]         ; [DPU_V7M3_PIPE] |1224| 
	.dwpsn	file "../OS/tasks.c",line 1226,column 3,is_stmt,isa 1
;----------------------------------------------------------------------
; 1226 | configASSERT( pxPreviousWakeTime );                                    
;----------------------------------------------------------------------
        LDR       A1, [SP, #0]          ; [DPU_V7M3_PIPE] |1226| 
        CBNZ      A1, ||$C$L26||        ; [] 
        ; BRANCHCC OCCURS {||$C$L26||}   ; [] |1226| 
;* --------------------------------------------------------------------------*
        MOVS      A1, #160              ; [DPU_V7M3_PIPE] |1226| 
        MSR       BASEPRI, A1           ; [DPU_V7M3_PIPE] |1226| 
	dsb
	isb
;* --------------------------------------------------------------------------*
;*   BEGIN LOOP ||$C$L25||
;*
;*   Loop source line                : 1226
;*   Loop closing brace source line  : 1226
;*   Known Minimum Trip Count        : 1
;*   Known Maximum Trip Count        : 4294967295
;*   Known Max Trip Count Factor     : 1
;* --------------------------------------------------------------------------*
||$C$L25||:    
        B         ||$C$L25||            ; [DPU_V7M3_PIPE] |1226| 
        ; BRANCH OCCURS {||$C$L25||}     ; [] |1226| 
;* --------------------------------------------------------------------------*
||$C$L26||:    
	.dwpsn	file "../OS/tasks.c",line 1227,column 3,is_stmt,isa 1
;----------------------------------------------------------------------
; 1227 | configASSERT( ( xTimeIncrement > 0U ) );                               
;----------------------------------------------------------------------
        LDR       A2, [SP, #4]          ; [DPU_V7M3_PIPE] |1227| 
        MOVS      A1, #0                ; [DPU_V7M3_PIPE] |1227| 
        CBZ       A2, ||$C$L27||        ; [] 
        ; BRANCHCC OCCURS {||$C$L27||}   ; [] |1227| 
;* --------------------------------------------------------------------------*
        MOVS      A1, #1                ; [DPU_V7M3_PIPE] |1227| 
;* --------------------------------------------------------------------------*
||$C$L27||:    
        CBNZ      A1, ||$C$L29||        ; [] 
        ; BRANCHCC OCCURS {||$C$L29||}   ; [] |1227| 
;* --------------------------------------------------------------------------*
        MOVS      A1, #160              ; [DPU_V7M3_PIPE] |1227| 
        MSR       BASEPRI, A1           ; [DPU_V7M3_PIPE] |1227| 
	dsb
	isb
;* --------------------------------------------------------------------------*
;*   BEGIN LOOP ||$C$L28||
;*
;*   Loop source line                : 1227
;*   Loop closing brace source line  : 1227
;*   Known Minimum Trip Count        : 1
;*   Known Maximum Trip Count        : 4294967295
;*   Known Max Trip Count Factor     : 1
;* --------------------------------------------------------------------------*
||$C$L28||:    
        B         ||$C$L28||            ; [DPU_V7M3_PIPE] |1227| 
        ; BRANCH OCCURS {||$C$L28||}     ; [] |1227| 
;* --------------------------------------------------------------------------*
||$C$L29||:    
	.dwpsn	file "../OS/tasks.c",line 1228,column 3,is_stmt,isa 1
;----------------------------------------------------------------------
; 1228 | configASSERT( uxSchedulerSuspended == 0 );                             
;----------------------------------------------------------------------
        LDR       A1, $C$CON8           ; [DPU_V7M3_PIPE] |1228| 
        LDR       A2, [A1, #0]          ; [DPU_V7M3_PIPE] |1228| 
        MOVS      A1, #0                ; [DPU_V7M3_PIPE] |1228| 
        CBNZ      A2, ||$C$L30||        ; [] 
        ; BRANCHCC OCCURS {||$C$L30||}   ; [] |1228| 
;* --------------------------------------------------------------------------*
        MOVS      A1, #1                ; [DPU_V7M3_PIPE] |1228| 
;* --------------------------------------------------------------------------*
||$C$L30||:    
        CBNZ      A1, ||$C$L32||        ; [] 
        ; BRANCHCC OCCURS {||$C$L32||}   ; [] |1228| 
;* --------------------------------------------------------------------------*
        MOVS      A1, #160              ; [DPU_V7M3_PIPE] |1228| 
        MSR       BASEPRI, A1           ; [DPU_V7M3_PIPE] |1228| 
	dsb
	isb
;* --------------------------------------------------------------------------*
;*   BEGIN LOOP ||$C$L31||
;*
;*   Loop source line                : 1228
;*   Loop closing brace source line  : 1228
;*   Known Minimum Trip Count        : 1
;*   Known Maximum Trip Count        : 4294967295
;*   Known Max Trip Count Factor     : 1
;* --------------------------------------------------------------------------*
||$C$L31||:    
        B         ||$C$L31||            ; [DPU_V7M3_PIPE] |1228| 
        ; BRANCH OCCURS {||$C$L31||}     ; [] |1228| 
;* --------------------------------------------------------------------------*
||$C$L32||:    
	.dwpsn	file "../OS/tasks.c",line 1230,column 3,is_stmt,isa 1
;----------------------------------------------------------------------
; 1230 | vTaskSuspendAll();                                                     
;----------------------------------------------------------------------
$C$DW$105	.dwtag  DW_TAG_TI_branch
	.dwattr $C$DW$105, DW_AT_low_pc(0x00)
	.dwattr $C$DW$105, DW_AT_name("vTaskSuspendAll")
	.dwattr $C$DW$105, DW_AT_TI_call

        BL        vTaskSuspendAll       ; [DPU_V7M3_PIPE] |1230| 
        ; CALL OCCURS {vTaskSuspendAll }  ; [] |1230| 

$C$DW$106	.dwtag  DW_TAG_lexical_block
	.dwattr $C$DW$106, DW_AT_low_pc(0x00)
	.dwattr $C$DW$106, DW_AT_high_pc(0x00)
$C$DW$107	.dwtag  DW_TAG_variable
	.dwattr $C$DW$107, DW_AT_name("xConstTickCount")
	.dwattr $C$DW$107, DW_AT_TI_symbol_name("xConstTickCount")
	.dwattr $C$DW$107, DW_AT_type(*$C$DW$T$144)
	.dwattr $C$DW$107, DW_AT_location[DW_OP_breg13 20]

	.dwpsn	file "../OS/tasks.c",line 1234,column 37,is_stmt,isa 1
;----------------------------------------------------------------------
; 1234 | const TickType_t xConstTickCount = xTickCount;                         
;----------------------------------------------------------------------
        LDR       A1, $C$CON9           ; [DPU_V7M3_PIPE] |1234| 
        LDR       A1, [A1, #0]          ; [DPU_V7M3_PIPE] |1234| 
        STR       A1, [SP, #20]         ; [DPU_V7M3_PIPE] |1234| 
	.dwpsn	file "../OS/tasks.c",line 1237,column 4,is_stmt,isa 1
;----------------------------------------------------------------------
; 1237 | xTimeToWake = *pxPreviousWakeTime + xTimeIncrement;                    
;----------------------------------------------------------------------
        LDR       A1, [SP, #0]          ; [DPU_V7M3_PIPE] |1237| 
        LDR       A2, [SP, #4]          ; [DPU_V7M3_PIPE] |1237| 
        LDR       A1, [A1, #0]          ; [DPU_V7M3_PIPE] |1237| 
        ADDS      A1, A1, A2            ; [DPU_V7M3_PIPE] |1237| 
        STR       A1, [SP, #8]          ; [DPU_V7M3_PIPE] |1237| 
	.dwpsn	file "../OS/tasks.c",line 1239,column 4,is_stmt,isa 1
;----------------------------------------------------------------------
; 1239 | if( xConstTickCount < *pxPreviousWakeTime )                            
;----------------------------------------------------------------------
        LDR       A1, [SP, #0]          ; [DPU_V7M3_PIPE] |1239| 
        LDR       A2, [SP, #20]         ; [DPU_V7M3_PIPE] |1239| 
        LDR       A1, [A1, #0]          ; [DPU_V7M3_PIPE] |1239| 
        CMP       A1, A2                ; [DPU_V7M3_PIPE] |1239| 
        BLS       ||$C$L33||            ; [DPU_V7M3_PIPE] |1239| 
        ; BRANCHCC OCCURS {||$C$L33||}   ; [] |1239| 
;* --------------------------------------------------------------------------*
	.dwpsn	file "../OS/tasks.c",line 1246,column 5,is_stmt,isa 1
;----------------------------------------------------------------------
; 1246 | if( ( xTimeToWake < *pxPreviousWakeTime ) && ( xTimeToWake > xConstTick
;     | Count ) )                                                              
;----------------------------------------------------------------------
        LDR       A1, [SP, #0]          ; [DPU_V7M3_PIPE] |1246| 
        LDR       A2, [SP, #8]          ; [DPU_V7M3_PIPE] |1246| 
        LDR       A1, [A1, #0]          ; [DPU_V7M3_PIPE] |1246| 
        CMP       A1, A2                ; [DPU_V7M3_PIPE] |1246| 
        BLS       ||$C$L35||            ; [DPU_V7M3_PIPE] |1246| 
        ; BRANCHCC OCCURS {||$C$L35||}   ; [] |1246| 
;* --------------------------------------------------------------------------*
        LDR       A1, [SP, #20]         ; [DPU_V7M3_PIPE] |1246| 
        LDR       A2, [SP, #8]          ; [DPU_V7M3_PIPE] |1246| 
        CMP       A1, A2                ; [DPU_V7M3_PIPE] |1246| 
        BCS       ||$C$L35||            ; [DPU_V7M3_PIPE] |1246| 
        ; BRANCHCC OCCURS {||$C$L35||}   ; [] |1246| 
;* --------------------------------------------------------------------------*
	.dwpsn	file "../OS/tasks.c",line 1248,column 6,is_stmt,isa 1
;----------------------------------------------------------------------
; 1248 | xShouldDelay = pdTRUE;                                                 
;----------------------------------------------------------------------
        MOVS      A1, #1                ; [DPU_V7M3_PIPE] |1248| 
        STR       A1, [SP, #16]         ; [DPU_V7M3_PIPE] |1248| 
	.dwpsn	file "../OS/tasks.c",line 1249,column 5,is_stmt,isa 1
;----------------------------------------------------------------------
; 1250 | else                                                                   
; 1252 |         mtCOVERAGE_TEST_MARKER();                                      
; 1255 | else                                                                   
;----------------------------------------------------------------------
        B         ||$C$L35||            ; [DPU_V7M3_PIPE] |1249| 
        ; BRANCH OCCURS {||$C$L35||}     ; [] |1249| 
;* --------------------------------------------------------------------------*
;* --------------------------------------------------------------------------*
||$C$L33||:    
	.dwpsn	file "../OS/tasks.c",line 1260,column 5,is_stmt,isa 1
;----------------------------------------------------------------------
; 1260 | if( ( xTimeToWake < *pxPreviousWakeTime ) || ( xTimeToWake > xConstTick
;     | Count ) )                                                              
;----------------------------------------------------------------------
        LDR       A1, [SP, #0]          ; [DPU_V7M3_PIPE] |1260| 
        LDR       A2, [SP, #8]          ; [DPU_V7M3_PIPE] |1260| 
        LDR       A1, [A1, #0]          ; [DPU_V7M3_PIPE] |1260| 
        CMP       A1, A2                ; [DPU_V7M3_PIPE] |1260| 
        BHI       ||$C$L34||            ; [DPU_V7M3_PIPE] |1260| 
        ; BRANCHCC OCCURS {||$C$L34||}   ; [] |1260| 
;* --------------------------------------------------------------------------*
        LDR       A1, [SP, #20]         ; [DPU_V7M3_PIPE] |1260| 
        LDR       A2, [SP, #8]          ; [DPU_V7M3_PIPE] |1260| 
        CMP       A1, A2                ; [DPU_V7M3_PIPE] |1260| 
        BCS       ||$C$L35||            ; [DPU_V7M3_PIPE] |1260| 
        ; BRANCHCC OCCURS {||$C$L35||}   ; [] |1260| 
;* --------------------------------------------------------------------------*
||$C$L34||:    
	.dwpsn	file "../OS/tasks.c",line 1262,column 6,is_stmt,isa 1
;----------------------------------------------------------------------
; 1262 | xShouldDelay = pdTRUE;                                                 
;----------------------------------------------------------------------
        MOVS      A1, #1                ; [DPU_V7M3_PIPE] |1262| 
        STR       A1, [SP, #16]         ; [DPU_V7M3_PIPE] |1262| 
	.dwpsn	file "../OS/tasks.c",line 1263,column 5,is_stmt,isa 1
;----------------------------------------------------------------------
; 1264 | else                                                                   
; 1266 |         mtCOVERAGE_TEST_MARKER();                                      
;----------------------------------------------------------------------
;* --------------------------------------------------------------------------*
||$C$L35||:    
	.dwpsn	file "../OS/tasks.c",line 1271,column 4,is_stmt,isa 1
;----------------------------------------------------------------------
; 1271 | *pxPreviousWakeTime = xTimeToWake;                                     
;----------------------------------------------------------------------
        LDR       A1, [SP, #8]          ; [DPU_V7M3_PIPE] |1271| 
        LDR       A2, [SP, #0]          ; [DPU_V7M3_PIPE] |1271| 
        STR       A1, [A2, #0]          ; [DPU_V7M3_PIPE] |1271| 
	.dwpsn	file "../OS/tasks.c",line 1273,column 4,is_stmt,isa 1
;----------------------------------------------------------------------
; 1273 | if( xShouldDelay != pdFALSE )                                          
; 1275 |         traceTASK_DELAY_UNTIL( xTimeToWake );                          
;----------------------------------------------------------------------
        LDR       A1, [SP, #16]         ; [DPU_V7M3_PIPE] |1273| 
        CBZ       A1, ||$C$L36||        ; [] 
        ; BRANCHCC OCCURS {||$C$L36||}   ; [] |1273| 
;* --------------------------------------------------------------------------*
	.dwpsn	file "../OS/tasks.c",line 1279,column 5,is_stmt,isa 1
;----------------------------------------------------------------------
; 1279 | prvAddCurrentTaskToDelayedList( xTimeToWake - xConstTickCount, pdFALSE
;     | );                                                                     
;----------------------------------------------------------------------
        LDR       A2, [SP, #20]         ; [DPU_V7M3_PIPE] |1279| 
        LDR       A1, [SP, #8]          ; [DPU_V7M3_PIPE] |1279| 
        SUBS      A1, A1, A2            ; [DPU_V7M3_PIPE] |1279| 
        MOVS      A2, #0                ; [DPU_V7M3_PIPE] |1279| 
$C$DW$108	.dwtag  DW_TAG_TI_branch
	.dwattr $C$DW$108, DW_AT_low_pc(0x00)
	.dwattr $C$DW$108, DW_AT_name("prvAddCurrentTaskToDelayedList")
	.dwattr $C$DW$108, DW_AT_TI_call

        BL        prvAddCurrentTaskToDelayedList ; [DPU_V7M3_PIPE] |1279| 
        ; CALL OCCURS {prvAddCurrentTaskToDelayedList }  ; [] |1279| 
	.dwpsn	file "../OS/tasks.c",line 1280,column 4,is_stmt,isa 1
;----------------------------------------------------------------------
; 1281 | else                                                                   
; 1283 |         mtCOVERAGE_TEST_MARKER();                                      
;----------------------------------------------------------------------
;* --------------------------------------------------------------------------*
||$C$L36||:    
	.dwendtag $C$DW$106

	.dwpsn	file "../OS/tasks.c",line 1286,column 3,is_stmt,isa 1
;----------------------------------------------------------------------
; 1286 | xAlreadyYielded = xTaskResumeAll();                                    
;----------------------------------------------------------------------
$C$DW$109	.dwtag  DW_TAG_TI_branch
	.dwattr $C$DW$109, DW_AT_low_pc(0x00)
	.dwattr $C$DW$109, DW_AT_name("xTaskResumeAll")
	.dwattr $C$DW$109, DW_AT_TI_call

        BL        xTaskResumeAll        ; [DPU_V7M3_PIPE] |1286| 
        ; CALL OCCURS {xTaskResumeAll }  ; [] |1286| 
        STR       A1, [SP, #12]         ; [DPU_V7M3_PIPE] |1286| 
	.dwpsn	file "../OS/tasks.c",line 1290,column 3,is_stmt,isa 1
;----------------------------------------------------------------------
; 1290 | if( xAlreadyYielded == pdFALSE )                                       
;----------------------------------------------------------------------
        LDR       A1, [SP, #12]         ; [DPU_V7M3_PIPE] |1290| 
        CBNZ      A1, ||$C$L37||        ; [] 
        ; BRANCHCC OCCURS {||$C$L37||}   ; [] |1290| 
;* --------------------------------------------------------------------------*
	.dwpsn	file "../OS/tasks.c",line 1292,column 4,is_stmt,isa 1
;----------------------------------------------------------------------
; 1292 | portYIELD_WITHIN_API();                                                
;----------------------------------------------------------------------
        LDR       A2, $C$CON7           ; [DPU_V7M3_PIPE] |1292| 
        MOV       A1, #268435456        ; [DPU_V7M3_PIPE] |1292| 
        STR       A1, [A2, #0]          ; [DPU_V7M3_PIPE] |1292| 
	dsb
	isb
	.dwpsn	file "../OS/tasks.c",line 1293,column 3,is_stmt,isa 1
;----------------------------------------------------------------------
; 1294 | else                                                                   
; 1296 |         mtCOVERAGE_TEST_MARKER();                                      
;----------------------------------------------------------------------
        B         ||$C$L37||            ; [DPU_V7M3_PIPE] |1293| 
        ; BRANCH OCCURS {||$C$L37||}     ; [] |1293| 
;* --------------------------------------------------------------------------*
;* --------------------------------------------------------------------------*
||$C$L37||:    
        ADD       SP, SP, #28           ; [DPU_V7M3_PIPE] 
	.dwcfi	cfa_offset, 4
$C$DW$110	.dwtag  DW_TAG_TI_branch
	.dwattr $C$DW$110, DW_AT_low_pc(0x00)
	.dwattr $C$DW$110, DW_AT_TI_return

        POP       {PC}                  ; [DPU_V7M3_PIPE] 
	.dwcfi	cfa_offset, 0
        ; BRANCH OCCURS                  ; [] 
	.dwattr $C$DW$97, DW_AT_TI_end_file("../OS/tasks.c")
	.dwattr $C$DW$97, DW_AT_TI_end_line(0x512)
	.dwattr $C$DW$97, DW_AT_TI_end_column(0x02)
	.dwendentry
	.dwendtag $C$DW$97

	.sect	".text"
	.clink
	.thumbfunc vTaskDelay
	.thumb
	.global	vTaskDelay

$C$DW$111	.dwtag  DW_TAG_subprogram
	.dwattr $C$DW$111, DW_AT_name("vTaskDelay")
	.dwattr $C$DW$111, DW_AT_low_pc(vTaskDelay)
	.dwattr $C$DW$111, DW_AT_high_pc(0x00)
	.dwattr $C$DW$111, DW_AT_TI_symbol_name("vTaskDelay")
	.dwattr $C$DW$111, DW_AT_external
	.dwattr $C$DW$111, DW_AT_TI_begin_file("../OS/tasks.c")
	.dwattr $C$DW$111, DW_AT_TI_begin_line(0x519)
	.dwattr $C$DW$111, DW_AT_TI_begin_column(0x07)
	.dwattr $C$DW$111, DW_AT_decl_file("../OS/tasks.c")
	.dwattr $C$DW$111, DW_AT_decl_line(0x519)
	.dwattr $C$DW$111, DW_AT_decl_column(0x07)
	.dwattr $C$DW$111, DW_AT_TI_max_frame_size(0x10)
	.dwpsn	file "../OS/tasks.c",line 1306,column 2,is_stmt,address vTaskDelay,isa 1

	.dwfde $C$DW$CIE, vTaskDelay
$C$DW$112	.dwtag  DW_TAG_formal_parameter
	.dwattr $C$DW$112, DW_AT_name("xTicksToDelay")
	.dwattr $C$DW$112, DW_AT_TI_symbol_name("xTicksToDelay")
	.dwattr $C$DW$112, DW_AT_type(*$C$DW$T$144)
	.dwattr $C$DW$112, DW_AT_location[DW_OP_reg0]

;----------------------------------------------------------------------
; 1305 | void vTaskDelay( const TickType_t xTicksToDelay )                      
;----------------------------------------------------------------------

;*****************************************************************************
;* FUNCTION NAME: vTaskDelay                                                 *
;*                                                                           *
;*   Regs Modified     : A1,A2,A3,A4,V9,SP,LR,SR,D0,D0_hi,D1,D1_hi,D2,D2_hi, *
;*                           D3,D3_hi,D4,D4_hi,D5,D5_hi,D6,D6_hi,D7,D7_hi,   *
;*                           FPEXC,FPSCR                                     *
;*   Regs Used         : A1,A2,A3,A4,V9,SP,LR,SR,D0,D0_hi,D1,D1_hi,D2,D2_hi, *
;*                           D3,D3_hi,D4,D4_hi,D5,D5_hi,D6,D6_hi,D7,D7_hi,   *
;*                           FPEXC,FPSCR                                     *
;*   Local Frame Size  : 0 Args + 8 Auto + 4 Save = 12 byte                  *
;*****************************************************************************
vTaskDelay:
;* --------------------------------------------------------------------------*
	.dwcfi	cfa_offset, 0
        PUSH      {A2, A3, A4, LR}      ; [DPU_V7M3_PIPE] 
	.dwcfi	cfa_offset, 16
	.dwcfi	save_reg_to_mem, 14, -4
	.dwcfi	save_reg_to_mem, 3, -8
	.dwcfi	save_reg_to_mem, 2, -12
	.dwcfi	save_reg_to_mem, 1, -16
$C$DW$113	.dwtag  DW_TAG_variable
	.dwattr $C$DW$113, DW_AT_name("xTicksToDelay")
	.dwattr $C$DW$113, DW_AT_TI_symbol_name("xTicksToDelay")
	.dwattr $C$DW$113, DW_AT_type(*$C$DW$T$144)
	.dwattr $C$DW$113, DW_AT_location[DW_OP_breg13 0]

$C$DW$114	.dwtag  DW_TAG_variable
	.dwattr $C$DW$114, DW_AT_name("xAlreadyYielded")
	.dwattr $C$DW$114, DW_AT_TI_symbol_name("xAlreadyYielded")
	.dwattr $C$DW$114, DW_AT_type(*$C$DW$T$93)
	.dwattr $C$DW$114, DW_AT_location[DW_OP_breg13 4]

        STR       A1, [SP, #0]          ; [DPU_V7M3_PIPE] |1306| 
	.dwpsn	file "../OS/tasks.c",line 1307,column 29,is_stmt,isa 1
;----------------------------------------------------------------------
; 1307 | BaseType_t xAlreadyYielded = pdFALSE;                                  
;----------------------------------------------------------------------
        MOVS      A1, #0                ; [DPU_V7M3_PIPE] |1307| 
        STR       A1, [SP, #4]          ; [DPU_V7M3_PIPE] |1307| 
	.dwpsn	file "../OS/tasks.c",line 1310,column 3,is_stmt,isa 1
;----------------------------------------------------------------------
; 1310 | if( xTicksToDelay > ( TickType_t ) 0U )                                
;----------------------------------------------------------------------
        LDR       A1, [SP, #0]          ; [DPU_V7M3_PIPE] |1310| 
        CBZ       A1, ||$C$L41||        ; [] 
        ; BRANCHCC OCCURS {||$C$L41||}   ; [] |1310| 
;* --------------------------------------------------------------------------*
	.dwpsn	file "../OS/tasks.c",line 1312,column 4,is_stmt,isa 1
;----------------------------------------------------------------------
; 1312 | configASSERT( uxSchedulerSuspended == 0 );                             
;----------------------------------------------------------------------
        LDR       A1, $C$CON8           ; [DPU_V7M3_PIPE] |1312| 
        LDR       A2, [A1, #0]          ; [DPU_V7M3_PIPE] |1312| 
        MOVS      A1, #0                ; [DPU_V7M3_PIPE] |1312| 
        CBNZ      A2, ||$C$L38||        ; [] 
        ; BRANCHCC OCCURS {||$C$L38||}   ; [] |1312| 
;* --------------------------------------------------------------------------*
        MOVS      A1, #1                ; [DPU_V7M3_PIPE] |1312| 
;* --------------------------------------------------------------------------*
||$C$L38||:    
        CBNZ      A1, ||$C$L40||        ; [] 
        ; BRANCHCC OCCURS {||$C$L40||}   ; [] |1312| 
;* --------------------------------------------------------------------------*
        MOVS      A1, #160              ; [DPU_V7M3_PIPE] |1312| 
        MSR       BASEPRI, A1           ; [DPU_V7M3_PIPE] |1312| 
	dsb
	isb
;* --------------------------------------------------------------------------*
;*   BEGIN LOOP ||$C$L39||
;*
;*   Loop source line                : 1312
;*   Loop closing brace source line  : 1312
;*   Known Minimum Trip Count        : 1
;*   Known Maximum Trip Count        : 4294967295
;*   Known Max Trip Count Factor     : 1
;* --------------------------------------------------------------------------*
||$C$L39||:    
        B         ||$C$L39||            ; [DPU_V7M3_PIPE] |1312| 
        ; BRANCH OCCURS {||$C$L39||}     ; [] |1312| 
;* --------------------------------------------------------------------------*
||$C$L40||:    
	.dwpsn	file "../OS/tasks.c",line 1313,column 4,is_stmt,isa 1
;----------------------------------------------------------------------
; 1313 | vTaskSuspendAll();                                                     
; 1315 |         traceTASK_DELAY();                                             
;----------------------------------------------------------------------
$C$DW$115	.dwtag  DW_TAG_TI_branch
	.dwattr $C$DW$115, DW_AT_low_pc(0x00)
	.dwattr $C$DW$115, DW_AT_name("vTaskSuspendAll")
	.dwattr $C$DW$115, DW_AT_TI_call

        BL        vTaskSuspendAll       ; [DPU_V7M3_PIPE] |1313| 
        ; CALL OCCURS {vTaskSuspendAll }  ; [] |1313| 
	.dwpsn	file "../OS/tasks.c",line 1324,column 5,is_stmt,isa 1
;----------------------------------------------------------------------
; 1324 | prvAddCurrentTaskToDelayedList( xTicksToDelay, pdFALSE );              
;----------------------------------------------------------------------
        LDR       A1, [SP, #0]          ; [DPU_V7M3_PIPE] |1324| 
        MOVS      A2, #0                ; [DPU_V7M3_PIPE] |1324| 
$C$DW$116	.dwtag  DW_TAG_TI_branch
	.dwattr $C$DW$116, DW_AT_low_pc(0x00)
	.dwattr $C$DW$116, DW_AT_name("prvAddCurrentTaskToDelayedList")
	.dwattr $C$DW$116, DW_AT_TI_call

        BL        prvAddCurrentTaskToDelayedList ; [DPU_V7M3_PIPE] |1324| 
        ; CALL OCCURS {prvAddCurrentTaskToDelayedList }  ; [] |1324| 
	.dwpsn	file "../OS/tasks.c",line 1326,column 4,is_stmt,isa 1
;----------------------------------------------------------------------
; 1326 | xAlreadyYielded = xTaskResumeAll();                                    
;----------------------------------------------------------------------
$C$DW$117	.dwtag  DW_TAG_TI_branch
	.dwattr $C$DW$117, DW_AT_low_pc(0x00)
	.dwattr $C$DW$117, DW_AT_name("xTaskResumeAll")
	.dwattr $C$DW$117, DW_AT_TI_call

        BL        xTaskResumeAll        ; [DPU_V7M3_PIPE] |1326| 
        ; CALL OCCURS {xTaskResumeAll }  ; [] |1326| 
        STR       A1, [SP, #4]          ; [DPU_V7M3_PIPE] |1326| 
	.dwpsn	file "../OS/tasks.c",line 1327,column 3,is_stmt,isa 1
;----------------------------------------------------------------------
; 1328 | else                                                                   
; 1330 |         mtCOVERAGE_TEST_MARKER();                                      
;----------------------------------------------------------------------
;* --------------------------------------------------------------------------*
||$C$L41||:    
	.dwpsn	file "../OS/tasks.c",line 1335,column 3,is_stmt,isa 1
;----------------------------------------------------------------------
; 1335 | if( xAlreadyYielded == pdFALSE )                                       
;----------------------------------------------------------------------
        LDR       A1, [SP, #4]          ; [DPU_V7M3_PIPE] |1335| 
        CBNZ      A1, ||$C$L42||        ; [] 
        ; BRANCHCC OCCURS {||$C$L42||}   ; [] |1335| 
;* --------------------------------------------------------------------------*
	.dwpsn	file "../OS/tasks.c",line 1337,column 4,is_stmt,isa 1
;----------------------------------------------------------------------
; 1337 | portYIELD_WITHIN_API();                                                
;----------------------------------------------------------------------
        LDR       A2, $C$CON7           ; [DPU_V7M3_PIPE] |1337| 
        MOV       A1, #268435456        ; [DPU_V7M3_PIPE] |1337| 
        STR       A1, [A2, #0]          ; [DPU_V7M3_PIPE] |1337| 
	dsb
	isb
	.dwpsn	file "../OS/tasks.c",line 1338,column 3,is_stmt,isa 1
;----------------------------------------------------------------------
; 1339 | else                                                                   
; 1341 |         mtCOVERAGE_TEST_MARKER();                                      
;----------------------------------------------------------------------
        B         ||$C$L42||            ; [DPU_V7M3_PIPE] |1338| 
        ; BRANCH OCCURS {||$C$L42||}     ; [] |1338| 
;* --------------------------------------------------------------------------*
;* --------------------------------------------------------------------------*
||$C$L42||:    
$C$DW$118	.dwtag  DW_TAG_TI_branch
	.dwattr $C$DW$118, DW_AT_low_pc(0x00)
	.dwattr $C$DW$118, DW_AT_TI_return

        POP       {A2, A3, A4, PC}      ; [DPU_V7M3_PIPE] 
	.dwcfi	cfa_offset, 0
	.dwcfi	restore_reg, 3
	.dwcfi	restore_reg, 2
	.dwcfi	restore_reg, 1
        ; BRANCH OCCURS                  ; [] 
	.dwattr $C$DW$111, DW_AT_TI_end_file("../OS/tasks.c")
	.dwattr $C$DW$111, DW_AT_TI_end_line(0x53f)
	.dwattr $C$DW$111, DW_AT_TI_end_column(0x02)
	.dwendentry
	.dwendtag $C$DW$111

	.sect	".text"
	.clink
	.thumbfunc eTaskGetState
	.thumb
	.global	eTaskGetState

$C$DW$119	.dwtag  DW_TAG_subprogram
	.dwattr $C$DW$119, DW_AT_name("eTaskGetState")
	.dwattr $C$DW$119, DW_AT_low_pc(eTaskGetState)
	.dwattr $C$DW$119, DW_AT_high_pc(0x00)
	.dwattr $C$DW$119, DW_AT_TI_symbol_name("eTaskGetState")
	.dwattr $C$DW$119, DW_AT_external
	.dwattr $C$DW$119, DW_AT_type(*$C$DW$T$91)
	.dwattr $C$DW$119, DW_AT_TI_begin_file("../OS/tasks.c")
	.dwattr $C$DW$119, DW_AT_TI_begin_line(0x546)
	.dwattr $C$DW$119, DW_AT_TI_begin_column(0x0d)
	.dwattr $C$DW$119, DW_AT_decl_file("../OS/tasks.c")
	.dwattr $C$DW$119, DW_AT_decl_line(0x546)
	.dwattr $C$DW$119, DW_AT_decl_column(0x0d)
	.dwattr $C$DW$119, DW_AT_TI_max_frame_size(0x20)
	.dwpsn	file "../OS/tasks.c",line 1351,column 2,is_stmt,address eTaskGetState,isa 1

	.dwfde $C$DW$CIE, eTaskGetState
$C$DW$120	.dwtag  DW_TAG_formal_parameter
	.dwattr $C$DW$120, DW_AT_name("xTask")
	.dwattr $C$DW$120, DW_AT_TI_symbol_name("xTask")
	.dwattr $C$DW$120, DW_AT_type(*$C$DW$T$89)
	.dwattr $C$DW$120, DW_AT_location[DW_OP_reg0]

;----------------------------------------------------------------------
; 1350 | eTaskState eTaskGetState( TaskHandle_t xTask )                         
;----------------------------------------------------------------------

;*****************************************************************************
;* FUNCTION NAME: eTaskGetState                                              *
;*                                                                           *
;*   Regs Modified     : A1,A2,A3,A4,V9,SP,LR,SR,D0,D0_hi,D1,D1_hi,D2,D2_hi, *
;*                           D3,D3_hi,D4,D4_hi,D5,D5_hi,D6,D6_hi,D7,D7_hi,   *
;*                           FPEXC,FPSCR                                     *
;*   Regs Used         : A1,A2,A3,A4,V9,SP,LR,SR,D0,D0_hi,D1,D1_hi,D2,D2_hi, *
;*                           D3,D3_hi,D4,D4_hi,D5,D5_hi,D6,D6_hi,D7,D7_hi,   *
;*                           FPEXC,FPSCR                                     *
;*   Local Frame Size  : 0 Args + 24 Auto + 4 Save = 28 byte                 *
;*****************************************************************************
eTaskGetState:
;* --------------------------------------------------------------------------*
	.dwcfi	cfa_offset, 0
        PUSH      {LR}                  ; [DPU_V7M3_PIPE] 
	.dwcfi	cfa_offset, 4
	.dwcfi	save_reg_to_mem, 14, -4
        SUB       SP, SP, #28           ; [DPU_V7M3_PIPE] 
	.dwcfi	cfa_offset, 32
$C$DW$121	.dwtag  DW_TAG_variable
	.dwattr $C$DW$121, DW_AT_name("xTask")
	.dwattr $C$DW$121, DW_AT_TI_symbol_name("xTask")
	.dwattr $C$DW$121, DW_AT_type(*$C$DW$T$89)
	.dwattr $C$DW$121, DW_AT_location[DW_OP_breg13 0]

$C$DW$122	.dwtag  DW_TAG_variable
	.dwattr $C$DW$122, DW_AT_name("pxStateList")
	.dwattr $C$DW$122, DW_AT_TI_symbol_name("pxStateList")
	.dwattr $C$DW$122, DW_AT_type(*$C$DW$T$278)
	.dwattr $C$DW$122, DW_AT_location[DW_OP_breg13 4]

$C$DW$123	.dwtag  DW_TAG_variable
	.dwattr $C$DW$123, DW_AT_name("pxDelayedList")
	.dwattr $C$DW$123, DW_AT_TI_symbol_name("pxDelayedList")
	.dwattr $C$DW$123, DW_AT_type(*$C$DW$T$278)
	.dwattr $C$DW$123, DW_AT_location[DW_OP_breg13 8]

$C$DW$124	.dwtag  DW_TAG_variable
	.dwattr $C$DW$124, DW_AT_name("pxOverflowedDelayedList")
	.dwattr $C$DW$124, DW_AT_TI_symbol_name("pxOverflowedDelayedList")
	.dwattr $C$DW$124, DW_AT_type(*$C$DW$T$278)
	.dwattr $C$DW$124, DW_AT_location[DW_OP_breg13 12]

$C$DW$125	.dwtag  DW_TAG_variable
	.dwattr $C$DW$125, DW_AT_name("pxTCB")
	.dwattr $C$DW$125, DW_AT_TI_symbol_name("pxTCB")
	.dwattr $C$DW$125, DW_AT_type(*$C$DW$T$342)
	.dwattr $C$DW$125, DW_AT_location[DW_OP_breg13 16]

$C$DW$126	.dwtag  DW_TAG_variable
	.dwattr $C$DW$126, DW_AT_name("eReturn")
	.dwattr $C$DW$126, DW_AT_TI_symbol_name("eReturn")
	.dwattr $C$DW$126, DW_AT_type(*$C$DW$T$91)
	.dwattr $C$DW$126, DW_AT_location[DW_OP_breg13 20]

;----------------------------------------------------------------------
; 1352 | eTaskState eReturn;                                                    
; 1353 | List_t const * pxStateList, *pxDelayedList, *pxOverflowedDelayedList;  
;----------------------------------------------------------------------
        STR       A1, [SP, #0]          ; [DPU_V7M3_PIPE] |1351| 
	.dwpsn	file "../OS/tasks.c",line 1354,column 28,is_stmt,isa 1
;----------------------------------------------------------------------
; 1354 | const TCB_t * const pxTCB = xTask;                                     
;----------------------------------------------------------------------
        LDR       A1, [SP, #0]          ; [DPU_V7M3_PIPE] |1354| 
        STR       A1, [SP, #16]         ; [DPU_V7M3_PIPE] |1354| 
	.dwpsn	file "../OS/tasks.c",line 1356,column 3,is_stmt,isa 1
;----------------------------------------------------------------------
; 1356 | configASSERT( pxTCB );                                                 
;----------------------------------------------------------------------
        LDR       A1, [SP, #16]         ; [DPU_V7M3_PIPE] |1356| 
        CBNZ      A1, ||$C$L44||        ; [] 
        ; BRANCHCC OCCURS {||$C$L44||}   ; [] |1356| 
;* --------------------------------------------------------------------------*
        MOVS      A1, #160              ; [DPU_V7M3_PIPE] |1356| 
        MSR       BASEPRI, A1           ; [DPU_V7M3_PIPE] |1356| 
	dsb
	isb
;* --------------------------------------------------------------------------*
;*   BEGIN LOOP ||$C$L43||
;*
;*   Loop source line                : 1356
;*   Loop closing brace source line  : 1356
;*   Known Minimum Trip Count        : 1
;*   Known Maximum Trip Count        : 4294967295
;*   Known Max Trip Count Factor     : 1
;* --------------------------------------------------------------------------*
||$C$L43||:    
        B         ||$C$L43||            ; [DPU_V7M3_PIPE] |1356| 
        ; BRANCH OCCURS {||$C$L43||}     ; [] |1356| 
;* --------------------------------------------------------------------------*
||$C$L44||:    
	.dwpsn	file "../OS/tasks.c",line 1358,column 3,is_stmt,isa 1
;----------------------------------------------------------------------
; 1358 | if( pxTCB == pxCurrentTCB )                                            
;----------------------------------------------------------------------
        LDR       A1, $C$CON2           ; [DPU_V7M3_PIPE] |1358| 
        LDR       A2, [SP, #16]         ; [DPU_V7M3_PIPE] |1358| 
        LDR       A1, [A1, #0]          ; [DPU_V7M3_PIPE] |1358| 
        CMP       A1, A2                ; [DPU_V7M3_PIPE] |1358| 
        BNE       ||$C$L45||            ; [DPU_V7M3_PIPE] |1358| 
        ; BRANCHCC OCCURS {||$C$L45||}   ; [] |1358| 
;* --------------------------------------------------------------------------*
	.dwpsn	file "../OS/tasks.c",line 1361,column 4,is_stmt,isa 1
;----------------------------------------------------------------------
; 1361 | eReturn = eRunning;                                                    
;----------------------------------------------------------------------
        MOVS      A1, #0                ; [DPU_V7M3_PIPE] |1361| 
        STRB      A1, [SP, #20]         ; [DPU_V7M3_PIPE] |1361| 
	.dwpsn	file "../OS/tasks.c",line 1362,column 3,is_stmt,isa 1
;----------------------------------------------------------------------
; 1363 | else                                                                   
;----------------------------------------------------------------------
        B         ||$C$L51||            ; [DPU_V7M3_PIPE] |1362| 
        ; BRANCH OCCURS {||$C$L51||}     ; [] |1362| 
;* --------------------------------------------------------------------------*
||$C$L45||:    
	.dwpsn	file "../OS/tasks.c",line 1365,column 4,is_stmt,isa 1
;----------------------------------------------------------------------
; 1365 | taskENTER_CRITICAL();                                                  
;----------------------------------------------------------------------
$C$DW$127	.dwtag  DW_TAG_TI_branch
	.dwattr $C$DW$127, DW_AT_low_pc(0x00)
	.dwattr $C$DW$127, DW_AT_name("vPortEnterCritical")
	.dwattr $C$DW$127, DW_AT_TI_call

        BL        vPortEnterCritical    ; [DPU_V7M3_PIPE] |1365| 
        ; CALL OCCURS {vPortEnterCritical }  ; [] |1365| 
	.dwpsn	file "../OS/tasks.c",line 1367,column 5,is_stmt,isa 1
;----------------------------------------------------------------------
; 1367 | pxStateList = listLIST_ITEM_CONTAINER( &( pxTCB->xStateListItem ) );   
;----------------------------------------------------------------------
        LDR       A1, [SP, #16]         ; [DPU_V7M3_PIPE] |1367| 
        LDR       A1, [A1, #20]         ; [DPU_V7M3_PIPE] |1367| 
        STR       A1, [SP, #4]          ; [DPU_V7M3_PIPE] |1367| 
	.dwpsn	file "../OS/tasks.c",line 1368,column 5,is_stmt,isa 1
;----------------------------------------------------------------------
; 1368 | pxDelayedList = pxDelayedTaskList;                                     
;----------------------------------------------------------------------
        LDR       A1, $C$CON10          ; [DPU_V7M3_PIPE] |1368| 
        LDR       A1, [A1, #0]          ; [DPU_V7M3_PIPE] |1368| 
        STR       A1, [SP, #8]          ; [DPU_V7M3_PIPE] |1368| 
	.dwpsn	file "../OS/tasks.c",line 1369,column 5,is_stmt,isa 1
;----------------------------------------------------------------------
; 1369 | pxOverflowedDelayedList = pxOverflowDelayedTaskList;                   
;----------------------------------------------------------------------
        LDR       A1, $C$CON11          ; [DPU_V7M3_PIPE] |1369| 
        LDR       A1, [A1, #0]          ; [DPU_V7M3_PIPE] |1369| 
        STR       A1, [SP, #12]         ; [DPU_V7M3_PIPE] |1369| 
	.dwpsn	file "../OS/tasks.c",line 1371,column 4,is_stmt,isa 1
;----------------------------------------------------------------------
; 1371 | taskEXIT_CRITICAL();                                                   
;----------------------------------------------------------------------
$C$DW$128	.dwtag  DW_TAG_TI_branch
	.dwattr $C$DW$128, DW_AT_low_pc(0x00)
	.dwattr $C$DW$128, DW_AT_name("vPortExitCritical")
	.dwattr $C$DW$128, DW_AT_TI_call

        BL        vPortExitCritical     ; [DPU_V7M3_PIPE] |1371| 
        ; CALL OCCURS {vPortExitCritical }  ; [] |1371| 
	.dwpsn	file "../OS/tasks.c",line 1373,column 4,is_stmt,isa 1
;----------------------------------------------------------------------
; 1373 | if( ( pxStateList == pxDelayedList ) || ( pxStateList == pxOverflowedDe
;     | layedList ) )                                                          
;----------------------------------------------------------------------
        LDR       A1, [SP, #8]          ; [DPU_V7M3_PIPE] |1373| 
        LDR       A2, [SP, #4]          ; [DPU_V7M3_PIPE] |1373| 
        CMP       A1, A2                ; [DPU_V7M3_PIPE] |1373| 
        BEQ       ||$C$L46||            ; [DPU_V7M3_PIPE] |1373| 
        ; BRANCHCC OCCURS {||$C$L46||}   ; [] |1373| 
;* --------------------------------------------------------------------------*
        LDR       A1, [SP, #12]         ; [DPU_V7M3_PIPE] |1373| 
        LDR       A2, [SP, #4]          ; [DPU_V7M3_PIPE] |1373| 
        CMP       A1, A2                ; [DPU_V7M3_PIPE] |1373| 
        BNE       ||$C$L47||            ; [DPU_V7M3_PIPE] |1373| 
        ; BRANCHCC OCCURS {||$C$L47||}   ; [] |1373| 
;* --------------------------------------------------------------------------*
||$C$L46||:    
	.dwpsn	file "../OS/tasks.c",line 1377,column 5,is_stmt,isa 1
;----------------------------------------------------------------------
; 1377 | eReturn = eBlocked;                                                    
;----------------------------------------------------------------------
        MOVS      A1, #2                ; [DPU_V7M3_PIPE] |1377| 
        STRB      A1, [SP, #20]         ; [DPU_V7M3_PIPE] |1377| 
	.dwpsn	file "../OS/tasks.c",line 1378,column 4,is_stmt,isa 1
;----------------------------------------------------------------------
; 1380 | #if ( INCLUDE_vTaskSuspend == 1 )                                      
;----------------------------------------------------------------------
        B         ||$C$L51||            ; [DPU_V7M3_PIPE] |1378| 
        ; BRANCH OCCURS {||$C$L51||}     ; [] |1378| 
;* --------------------------------------------------------------------------*
||$C$L47||:    
	.dwpsn	file "../OS/tasks.c",line 1381,column 10,is_stmt,isa 1
;----------------------------------------------------------------------
; 1381 | else if( pxStateList == &xSuspendedTaskList )                          
;----------------------------------------------------------------------
        LDR       A2, $C$CON12          ; [DPU_V7M3_PIPE] |1381| 
        LDR       A1, [SP, #4]          ; [DPU_V7M3_PIPE] |1381| 
        CMP       A2, A1                ; [DPU_V7M3_PIPE] |1381| 
        BNE       ||$C$L50||            ; [DPU_V7M3_PIPE] |1381| 
        ; BRANCHCC OCCURS {||$C$L50||}   ; [] |1381| 
;* --------------------------------------------------------------------------*
	.dwpsn	file "../OS/tasks.c",line 1386,column 6,is_stmt,isa 1
;----------------------------------------------------------------------
; 1386 | if( listLIST_ITEM_CONTAINER( &( pxTCB->xEventListItem ) ) == NULL )    
; 1388 |         #if( configUSE_TASK_NOTIFICATIONS == 1 )                       
;----------------------------------------------------------------------
        LDR       A1, [SP, #16]         ; [DPU_V7M3_PIPE] |1386| 
        LDR       A1, [A1, #40]         ; [DPU_V7M3_PIPE] |1386| 
        CBNZ      A1, ||$C$L49||        ; [] 
        ; BRANCHCC OCCURS {||$C$L49||}   ; [] |1386| 
;* --------------------------------------------------------------------------*
	.dwpsn	file "../OS/tasks.c",line 1394,column 8,is_stmt,isa 1
;----------------------------------------------------------------------
; 1394 | if( pxTCB->ucNotifyState == taskWAITING_NOTIFICATION )                 
;----------------------------------------------------------------------
        LDR       A1, [SP, #16]         ; [DPU_V7M3_PIPE] |1394| 
        LDRB      A1, [A1, #84]         ; [DPU_V7M3_PIPE] |1394| 
        CMP       A1, #1                ; [DPU_V7M3_PIPE] |1394| 
        BNE       ||$C$L48||            ; [DPU_V7M3_PIPE] |1394| 
        ; BRANCHCC OCCURS {||$C$L48||}   ; [] |1394| 
;* --------------------------------------------------------------------------*
	.dwpsn	file "../OS/tasks.c",line 1396,column 9,is_stmt,isa 1
;----------------------------------------------------------------------
; 1396 | eReturn = eBlocked;                                                    
;----------------------------------------------------------------------
        MOVS      A1, #2                ; [DPU_V7M3_PIPE] |1396| 
        STRB      A1, [SP, #20]         ; [DPU_V7M3_PIPE] |1396| 
	.dwpsn	file "../OS/tasks.c",line 1397,column 8,is_stmt,isa 1
;----------------------------------------------------------------------
; 1398 | else                                                                   
;----------------------------------------------------------------------
        B         ||$C$L51||            ; [DPU_V7M3_PIPE] |1397| 
        ; BRANCH OCCURS {||$C$L51||}     ; [] |1397| 
;* --------------------------------------------------------------------------*
||$C$L48||:    
	.dwpsn	file "../OS/tasks.c",line 1400,column 9,is_stmt,isa 1
;----------------------------------------------------------------------
; 1400 | eReturn = eSuspended;                                                  
; 1403 | #else                                                                  
; 1405 | eReturn = eSuspended;                                                  
; 1407 | #endif                                                                 
;----------------------------------------------------------------------
        MOVS      A1, #3                ; [DPU_V7M3_PIPE] |1400| 
        STRB      A1, [SP, #20]         ; [DPU_V7M3_PIPE] |1400| 
	.dwpsn	file "../OS/tasks.c",line 1408,column 6,is_stmt,isa 1
;----------------------------------------------------------------------
; 1409 | else                                                                   
;----------------------------------------------------------------------
        B         ||$C$L51||            ; [DPU_V7M3_PIPE] |1408| 
        ; BRANCH OCCURS {||$C$L51||}     ; [] |1408| 
;* --------------------------------------------------------------------------*
||$C$L49||:    
	.dwpsn	file "../OS/tasks.c",line 1411,column 7,is_stmt,isa 1
;----------------------------------------------------------------------
; 1411 | eReturn = eBlocked;                                                    
;----------------------------------------------------------------------
        MOVS      A1, #2                ; [DPU_V7M3_PIPE] |1411| 
        STRB      A1, [SP, #20]         ; [DPU_V7M3_PIPE] |1411| 
	.dwpsn	file "../OS/tasks.c",line 1413,column 5,is_stmt,isa 1
;----------------------------------------------------------------------
; 1414 | #endif                                                                 
; 1416 | #if ( INCLUDE_vTaskDelete == 1 )                                       
; 1417 |         else if( ( pxStateList == &xTasksWaitingTermination ) || ( pxSt
;     | ateList == NULL ) )                                                    
; 1422 |                 eReturn = eDeleted;                                    
; 1424 | #endif                                                                 
; 1426 | else /*lint !e525 Negative indentation is intended to make use of pre-p
;     | rocessor clearer. */                                                   
;----------------------------------------------------------------------
        B         ||$C$L51||            ; [DPU_V7M3_PIPE] |1413| 
        ; BRANCH OCCURS {||$C$L51||}     ; [] |1413| 
;* --------------------------------------------------------------------------*
||$C$L50||:    
	.dwpsn	file "../OS/tasks.c",line 1430,column 5,is_stmt,isa 1
;----------------------------------------------------------------------
; 1430 | eReturn = eReady;                                                      
;----------------------------------------------------------------------
        MOVS      A1, #1                ; [DPU_V7M3_PIPE] |1430| 
        STRB      A1, [SP, #20]         ; [DPU_V7M3_PIPE] |1430| 
;* --------------------------------------------------------------------------*
||$C$L51||:    
	.dwpsn	file "../OS/tasks.c",line 1434,column 3,is_stmt,isa 1
;----------------------------------------------------------------------
; 1434 | return eReturn;                                                        
;----------------------------------------------------------------------
        LDRB      A1, [SP, #20]         ; [DPU_V7M3_PIPE] |1434| 
	.dwpsn	file "../OS/tasks.c",line 1435,column 2,is_stmt,isa 1
        ADD       SP, SP, #28           ; [DPU_V7M3_PIPE] 
	.dwcfi	cfa_offset, 4
$C$DW$129	.dwtag  DW_TAG_TI_branch
	.dwattr $C$DW$129, DW_AT_low_pc(0x00)
	.dwattr $C$DW$129, DW_AT_TI_return

        POP       {PC}                  ; [DPU_V7M3_PIPE] 
	.dwcfi	cfa_offset, 0
        ; BRANCH OCCURS                  ; [] 
	.dwattr $C$DW$119, DW_AT_TI_end_file("../OS/tasks.c")
	.dwattr $C$DW$119, DW_AT_TI_end_line(0x59b)
	.dwattr $C$DW$119, DW_AT_TI_end_column(0x02)
	.dwendentry
	.dwendtag $C$DW$119

;******************************************************************************
;* CONSTANT TABLE                                                             *
;******************************************************************************
	.sect	".text"
	.align	4
||$C$CON1||:	.bits	uxCurrentNumberOfTasks,32
	.align	4
||$C$CON2||:	.bits	pxCurrentTCB,32
	.align	4
||$C$CON3||:	.bits	xSchedulerRunning,32
	.align	4
||$C$CON4||:	.bits	uxTaskNumber,32
	.align	4
||$C$CON7||:	.bits	-536810236,32
	.sect	".text"
	.clink
	.thumbfunc vTaskSuspend
	.thumb
	.global	vTaskSuspend

$C$DW$130	.dwtag  DW_TAG_subprogram
	.dwattr $C$DW$130, DW_AT_name("vTaskSuspend")
	.dwattr $C$DW$130, DW_AT_low_pc(vTaskSuspend)
	.dwattr $C$DW$130, DW_AT_high_pc(0x00)
	.dwattr $C$DW$130, DW_AT_TI_symbol_name("vTaskSuspend")
	.dwattr $C$DW$130, DW_AT_external
	.dwattr $C$DW$130, DW_AT_TI_begin_file("../OS/tasks.c")
	.dwattr $C$DW$130, DW_AT_TI_begin_line(0x684)
	.dwattr $C$DW$130, DW_AT_TI_begin_column(0x07)
	.dwattr $C$DW$130, DW_AT_decl_file("../OS/tasks.c")
	.dwattr $C$DW$130, DW_AT_decl_line(0x684)
	.dwattr $C$DW$130, DW_AT_decl_column(0x07)
	.dwattr $C$DW$130, DW_AT_TI_max_frame_size(0x10)
	.dwpsn	file "../OS/tasks.c",line 1669,column 2,is_stmt,address vTaskSuspend,isa 1

	.dwfde $C$DW$CIE, vTaskSuspend
$C$DW$131	.dwtag  DW_TAG_formal_parameter
	.dwattr $C$DW$131, DW_AT_name("xTaskToSuspend")
	.dwattr $C$DW$131, DW_AT_TI_symbol_name("xTaskToSuspend")
	.dwattr $C$DW$131, DW_AT_type(*$C$DW$T$89)
	.dwattr $C$DW$131, DW_AT_location[DW_OP_reg0]

;----------------------------------------------------------------------
; 1668 | void vTaskSuspend( TaskHandle_t xTaskToSuspend )                       
;----------------------------------------------------------------------

;*****************************************************************************
;* FUNCTION NAME: vTaskSuspend                                               *
;*                                                                           *
;*   Regs Modified     : A1,A2,A3,A4,V9,SP,LR,SR,D0,D0_hi,D1,D1_hi,D2,D2_hi, *
;*                           D3,D3_hi,D4,D4_hi,D5,D5_hi,D6,D6_hi,D7,D7_hi,   *
;*                           FPEXC,FPSCR                                     *
;*   Regs Used         : A1,A2,A3,A4,V9,SP,LR,SR,D0,D0_hi,D1,D1_hi,D2,D2_hi, *
;*                           D3,D3_hi,D4,D4_hi,D5,D5_hi,D6,D6_hi,D7,D7_hi,   *
;*                           FPEXC,FPSCR                                     *
;*   Local Frame Size  : 0 Args + 8 Auto + 4 Save = 12 byte                  *
;*****************************************************************************
vTaskSuspend:
;* --------------------------------------------------------------------------*
	.dwcfi	cfa_offset, 0
        PUSH      {A2, A3, A4, LR}      ; [DPU_V7M3_PIPE] 
	.dwcfi	cfa_offset, 16
	.dwcfi	save_reg_to_mem, 14, -4
	.dwcfi	save_reg_to_mem, 3, -8
	.dwcfi	save_reg_to_mem, 2, -12
	.dwcfi	save_reg_to_mem, 1, -16
$C$DW$132	.dwtag  DW_TAG_variable
	.dwattr $C$DW$132, DW_AT_name("xTaskToSuspend")
	.dwattr $C$DW$132, DW_AT_TI_symbol_name("xTaskToSuspend")
	.dwattr $C$DW$132, DW_AT_type(*$C$DW$T$89)
	.dwattr $C$DW$132, DW_AT_location[DW_OP_breg13 0]

$C$DW$133	.dwtag  DW_TAG_variable
	.dwattr $C$DW$133, DW_AT_name("pxTCB")
	.dwattr $C$DW$133, DW_AT_TI_symbol_name("pxTCB")
	.dwattr $C$DW$133, DW_AT_type(*$C$DW$T$134)
	.dwattr $C$DW$133, DW_AT_location[DW_OP_breg13 4]

;----------------------------------------------------------------------
; 1670 | TCB_t *pxTCB;                                                          
;----------------------------------------------------------------------
        STR       A1, [SP, #0]          ; [DPU_V7M3_PIPE] |1669| 
	.dwpsn	file "../OS/tasks.c",line 1672,column 3,is_stmt,isa 1
;----------------------------------------------------------------------
; 1672 | taskENTER_CRITICAL();                                                  
;----------------------------------------------------------------------
$C$DW$134	.dwtag  DW_TAG_TI_branch
	.dwattr $C$DW$134, DW_AT_low_pc(0x00)
	.dwattr $C$DW$134, DW_AT_name("vPortEnterCritical")
	.dwattr $C$DW$134, DW_AT_TI_call

        BL        vPortEnterCritical    ; [DPU_V7M3_PIPE] |1672| 
        ; CALL OCCURS {vPortEnterCritical }  ; [] |1672| 
	.dwpsn	file "../OS/tasks.c",line 1676,column 4,is_stmt,isa 1
;----------------------------------------------------------------------
; 1676 | pxTCB = prvGetTCBFromHandle( xTaskToSuspend );                         
; 1678 | traceTASK_SUSPEND( pxTCB );                                            
;----------------------------------------------------------------------
        LDR       A1, [SP, #0]          ; [DPU_V7M3_PIPE] |1676| 
        CBNZ      A1, ||$C$L52||        ; [] 
        ; BRANCHCC OCCURS {||$C$L52||}   ; [] |1676| 
;* --------------------------------------------------------------------------*
        LDR       A1, $C$CON13          ; [DPU_V7M3_PIPE] |1676| 
        LDR       A1, [A1, #0]          ; [DPU_V7M3_PIPE] |1676| 
        B         ||$C$L53||            ; [DPU_V7M3_PIPE] |1676| 
        ; BRANCH OCCURS {||$C$L53||}     ; [] |1676| 
;* --------------------------------------------------------------------------*
||$C$L52||:    
        LDR       A1, [SP, #0]          ; [DPU_V7M3_PIPE] |1676| 
;* --------------------------------------------------------------------------*
||$C$L53||:    
        STR       A1, [SP, #4]          ; [DPU_V7M3_PIPE] |1676| 
	.dwpsn	file "../OS/tasks.c",line 1682,column 4,is_stmt,isa 1
;----------------------------------------------------------------------
; 1682 | if( uxListRemove( &( pxTCB->xStateListItem ) ) == ( UBaseType_t ) 0 )  
;----------------------------------------------------------------------
        LDR       A1, [SP, #4]          ; [DPU_V7M3_PIPE] |1682| 
        ADDS      A1, A1, #4            ; [DPU_V7M3_PIPE] |1682| 
$C$DW$135	.dwtag  DW_TAG_TI_branch
	.dwattr $C$DW$135, DW_AT_low_pc(0x00)
	.dwattr $C$DW$135, DW_AT_name("uxListRemove")
	.dwattr $C$DW$135, DW_AT_TI_call

        BL        uxListRemove          ; [DPU_V7M3_PIPE] |1682| 
        ; CALL OCCURS {uxListRemove }    ; [] |1682| 
        CBNZ      A1, ||$C$L54||        ; [] 
        ; BRANCHCC OCCURS {||$C$L54||}   ; [] |1682| 
;* --------------------------------------------------------------------------*
	.dwpsn	file "../OS/tasks.c",line 1684,column 5,is_stmt,isa 1
;----------------------------------------------------------------------
; 1684 | taskRESET_READY_PRIORITY( pxTCB->uxPriority );                         
;----------------------------------------------------------------------
        LDR       A1, [SP, #4]          ; [DPU_V7M3_PIPE] |1684| 
        LDR       A2, $C$CON6           ; [DPU_V7M3_PIPE] |1684| 
        LDR       A3, [A1, #44]         ; [DPU_V7M3_PIPE] |1684| 
        LSLS      A1, A3, #2            ; [DPU_V7M3_PIPE] |1684| 
        ADD       A1, A1, A3, LSL #4    ; [DPU_V7M3_PIPE] |1684| 
        LDR       A1, [A2, +A1]         ; [DPU_V7M3_PIPE] |1684| 
        CBNZ      A1, ||$C$L54||        ; [] 
        ; BRANCHCC OCCURS {||$C$L54||}   ; [] |1684| 
;* --------------------------------------------------------------------------*
        LDR       A1, [SP, #4]          ; [DPU_V7M3_PIPE] |1684| 
        LDR       A3, $C$CON5           ; [DPU_V7M3_PIPE] |1684| 
        LDR       A4, [A1, #44]         ; [DPU_V7M3_PIPE] |1684| 
        LDR       A2, [A3, #0]          ; [DPU_V7M3_PIPE] |1684| 
        MOVS      A1, #1                ; [DPU_V7M3_PIPE] |1684| 
        LSLS      A1, A1, A4            ; [DPU_V7M3_PIPE] |1684| 
        BICS      A2, A2, A1            ; [DPU_V7M3_PIPE] |1684| 
        STR       A2, [A3, #0]          ; [DPU_V7M3_PIPE] |1684| 
	.dwpsn	file "../OS/tasks.c",line 1685,column 4,is_stmt,isa 1
;----------------------------------------------------------------------
; 1686 | else                                                                   
; 1688 |         mtCOVERAGE_TEST_MARKER();                                      
;----------------------------------------------------------------------
;* --------------------------------------------------------------------------*
||$C$L54||:    
	.dwpsn	file "../OS/tasks.c",line 1692,column 4,is_stmt,isa 1
;----------------------------------------------------------------------
; 1692 | if( listLIST_ITEM_CONTAINER( &( pxTCB->xEventListItem ) ) != NULL )    
;----------------------------------------------------------------------
        LDR       A1, [SP, #4]          ; [DPU_V7M3_PIPE] |1692| 
        LDR       A1, [A1, #40]         ; [DPU_V7M3_PIPE] |1692| 
        CBZ       A1, ||$C$L56||        ; [] 
        ; BRANCHCC OCCURS {||$C$L56||}   ; [] |1692| 
;* --------------------------------------------------------------------------*
        B         ||$C$L55||            ; [] 
        ; BRANCH OCCURS {||$C$L55||}     ; [] 
;******************************************************************************
;* CONSTANT TABLE                                                             *
;******************************************************************************
	.sect	".text"
	.align	4
||$C$CON5||:	.bits	uxTopReadyPriority,32
	.align	4
||$C$CON6||:	.bits	pxReadyTasksLists,32
;* --------------------------------------------------------------------------*
||$C$L55||:    
	.dwpsn	file "../OS/tasks.c",line 1694,column 5,is_stmt,isa 1
;----------------------------------------------------------------------
; 1694 | ( void ) uxListRemove( &( pxTCB->xEventListItem ) );                   
;----------------------------------------------------------------------
        LDR       A1, [SP, #4]          ; [DPU_V7M3_PIPE] |1694| 
        ADDS      A1, A1, #24           ; [DPU_V7M3_PIPE] |1694| 
$C$DW$136	.dwtag  DW_TAG_TI_branch
	.dwattr $C$DW$136, DW_AT_low_pc(0x00)
	.dwattr $C$DW$136, DW_AT_name("uxListRemove")
	.dwattr $C$DW$136, DW_AT_TI_call

        BL        uxListRemove          ; [DPU_V7M3_PIPE] |1694| 
        ; CALL OCCURS {uxListRemove }    ; [] |1694| 
	.dwpsn	file "../OS/tasks.c",line 1695,column 4,is_stmt,isa 1
;----------------------------------------------------------------------
; 1696 | else                                                                   
; 1698 |         mtCOVERAGE_TEST_MARKER();                                      
;----------------------------------------------------------------------
;* --------------------------------------------------------------------------*
||$C$L56||:    
	.dwpsn	file "../OS/tasks.c",line 1701,column 4,is_stmt,isa 1
;----------------------------------------------------------------------
; 1701 | vListInsertEnd( &xSuspendedTaskList, &( pxTCB->xStateListItem ) );     
; 1703 | #if( configUSE_TASK_NOTIFICATIONS == 1 )                               
;----------------------------------------------------------------------
        LDR       A2, [SP, #4]          ; [DPU_V7M3_PIPE] |1701| 
        LDR       A1, $C$CON12          ; [DPU_V7M3_PIPE] |1701| 
        ADDS      A2, A2, #4            ; [DPU_V7M3_PIPE] |1701| 
$C$DW$137	.dwtag  DW_TAG_TI_branch
	.dwattr $C$DW$137, DW_AT_low_pc(0x00)
	.dwattr $C$DW$137, DW_AT_name("vListInsertEnd")
	.dwattr $C$DW$137, DW_AT_TI_call

        BL        vListInsertEnd        ; [DPU_V7M3_PIPE] |1701| 
        ; CALL OCCURS {vListInsertEnd }  ; [] |1701| 
	.dwpsn	file "../OS/tasks.c",line 1705,column 5,is_stmt,isa 1
;----------------------------------------------------------------------
; 1705 | if( pxTCB->ucNotifyState == taskWAITING_NOTIFICATION )                 
;----------------------------------------------------------------------
        LDR       A1, [SP, #4]          ; [DPU_V7M3_PIPE] |1705| 
        LDRB      A1, [A1, #84]         ; [DPU_V7M3_PIPE] |1705| 
        CMP       A1, #1                ; [DPU_V7M3_PIPE] |1705| 
        BNE       ||$C$L57||            ; [DPU_V7M3_PIPE] |1705| 
        ; BRANCHCC OCCURS {||$C$L57||}   ; [] |1705| 
;* --------------------------------------------------------------------------*
	.dwpsn	file "../OS/tasks.c",line 1709,column 6,is_stmt,isa 1
;----------------------------------------------------------------------
; 1709 | pxTCB->ucNotifyState = taskNOT_WAITING_NOTIFICATION;                   
; 1712 | #endif                                                                 
;----------------------------------------------------------------------
        LDR       A2, [SP, #4]          ; [DPU_V7M3_PIPE] |1709| 
        MOVS      A1, #0                ; [DPU_V7M3_PIPE] |1709| 
        STRB      A1, [A2, #84]         ; [DPU_V7M3_PIPE] |1709| 
;* --------------------------------------------------------------------------*
||$C$L57||:    
	.dwpsn	file "../OS/tasks.c",line 1714,column 3,is_stmt,isa 1
;----------------------------------------------------------------------
; 1714 | taskEXIT_CRITICAL();                                                   
;----------------------------------------------------------------------
$C$DW$138	.dwtag  DW_TAG_TI_branch
	.dwattr $C$DW$138, DW_AT_low_pc(0x00)
	.dwattr $C$DW$138, DW_AT_name("vPortExitCritical")
	.dwattr $C$DW$138, DW_AT_TI_call

        BL        vPortExitCritical     ; [DPU_V7M3_PIPE] |1714| 
        ; CALL OCCURS {vPortExitCritical }  ; [] |1714| 
	.dwpsn	file "../OS/tasks.c",line 1716,column 3,is_stmt,isa 1
;----------------------------------------------------------------------
; 1716 | if( xSchedulerRunning != pdFALSE )                                     
;----------------------------------------------------------------------
        LDR       A1, $C$CON14          ; [DPU_V7M3_PIPE] |1716| 
        LDR       A1, [A1, #0]          ; [DPU_V7M3_PIPE] |1716| 
        CBZ       A1, ||$C$L58||        ; [] 
        ; BRANCHCC OCCURS {||$C$L58||}   ; [] |1716| 
;* --------------------------------------------------------------------------*
	.dwpsn	file "../OS/tasks.c",line 1720,column 4,is_stmt,isa 1
;----------------------------------------------------------------------
; 1720 | taskENTER_CRITICAL();                                                  
;----------------------------------------------------------------------
$C$DW$139	.dwtag  DW_TAG_TI_branch
	.dwattr $C$DW$139, DW_AT_low_pc(0x00)
	.dwattr $C$DW$139, DW_AT_name("vPortEnterCritical")
	.dwattr $C$DW$139, DW_AT_TI_call

        BL        vPortEnterCritical    ; [DPU_V7M3_PIPE] |1720| 
        ; CALL OCCURS {vPortEnterCritical }  ; [] |1720| 
	.dwpsn	file "../OS/tasks.c",line 1722,column 5,is_stmt,isa 1
;----------------------------------------------------------------------
; 1722 | prvResetNextTaskUnblockTime();                                         
;----------------------------------------------------------------------
$C$DW$140	.dwtag  DW_TAG_TI_branch
	.dwattr $C$DW$140, DW_AT_low_pc(0x00)
	.dwattr $C$DW$140, DW_AT_name("prvResetNextTaskUnblockTime")
	.dwattr $C$DW$140, DW_AT_TI_call

        BL        prvResetNextTaskUnblockTime ; [DPU_V7M3_PIPE] |1722| 
        ; CALL OCCURS {prvResetNextTaskUnblockTime }  ; [] |1722| 
	.dwpsn	file "../OS/tasks.c",line 1724,column 4,is_stmt,isa 1
;----------------------------------------------------------------------
; 1724 | taskEXIT_CRITICAL();                                                   
;----------------------------------------------------------------------
$C$DW$141	.dwtag  DW_TAG_TI_branch
	.dwattr $C$DW$141, DW_AT_low_pc(0x00)
	.dwattr $C$DW$141, DW_AT_name("vPortExitCritical")
	.dwattr $C$DW$141, DW_AT_TI_call

        BL        vPortExitCritical     ; [DPU_V7M3_PIPE] |1724| 
        ; CALL OCCURS {vPortExitCritical }  ; [] |1724| 
	.dwpsn	file "../OS/tasks.c",line 1725,column 3,is_stmt,isa 1
;----------------------------------------------------------------------
; 1726 | else                                                                   
; 1728 |         mtCOVERAGE_TEST_MARKER();                                      
;----------------------------------------------------------------------
;* --------------------------------------------------------------------------*
||$C$L58||:    
	.dwpsn	file "../OS/tasks.c",line 1731,column 3,is_stmt,isa 1
;----------------------------------------------------------------------
; 1731 | if( pxTCB == pxCurrentTCB )                                            
;----------------------------------------------------------------------
        LDR       A1, $C$CON13          ; [DPU_V7M3_PIPE] |1731| 
        LDR       A2, [SP, #4]          ; [DPU_V7M3_PIPE] |1731| 
        LDR       A1, [A1, #0]          ; [DPU_V7M3_PIPE] |1731| 
        CMP       A1, A2                ; [DPU_V7M3_PIPE] |1731| 
        BNE       ||$C$L64||            ; [DPU_V7M3_PIPE] |1731| 
        ; BRANCHCC OCCURS {||$C$L64||}   ; [] |1731| 
;* --------------------------------------------------------------------------*
	.dwpsn	file "../OS/tasks.c",line 1733,column 4,is_stmt,isa 1
;----------------------------------------------------------------------
; 1733 | if( xSchedulerRunning != pdFALSE )                                     
;----------------------------------------------------------------------
        LDR       A1, $C$CON14          ; [DPU_V7M3_PIPE] |1733| 
        LDR       A1, [A1, #0]          ; [DPU_V7M3_PIPE] |1733| 
        CBZ       A1, ||$C$L62||        ; [] 
        ; BRANCHCC OCCURS {||$C$L62||}   ; [] |1733| 
;* --------------------------------------------------------------------------*
	.dwpsn	file "../OS/tasks.c",line 1736,column 5,is_stmt,isa 1
;----------------------------------------------------------------------
; 1736 | configASSERT( uxSchedulerSuspended == 0 );                             
;----------------------------------------------------------------------
        LDR       A1, $C$CON8           ; [DPU_V7M3_PIPE] |1736| 
        LDR       A2, [A1, #0]          ; [DPU_V7M3_PIPE] |1736| 
        MOVS      A1, #0                ; [DPU_V7M3_PIPE] |1736| 
        CBNZ      A2, ||$C$L59||        ; [] 
        ; BRANCHCC OCCURS {||$C$L59||}   ; [] |1736| 
;* --------------------------------------------------------------------------*
        MOVS      A1, #1                ; [DPU_V7M3_PIPE] |1736| 
;* --------------------------------------------------------------------------*
||$C$L59||:    
        CBNZ      A1, ||$C$L61||        ; [] 
        ; BRANCHCC OCCURS {||$C$L61||}   ; [] |1736| 
;* --------------------------------------------------------------------------*
        MOVS      A1, #160              ; [DPU_V7M3_PIPE] |1736| 
        MSR       BASEPRI, A1           ; [DPU_V7M3_PIPE] |1736| 
	dsb
	isb
;* --------------------------------------------------------------------------*
;*   BEGIN LOOP ||$C$L60||
;*
;*   Loop source line                : 1736
;*   Loop closing brace source line  : 1736
;*   Known Minimum Trip Count        : 1
;*   Known Maximum Trip Count        : 4294967295
;*   Known Max Trip Count Factor     : 1
;* --------------------------------------------------------------------------*
||$C$L60||:    
        B         ||$C$L60||            ; [DPU_V7M3_PIPE] |1736| 
        ; BRANCH OCCURS {||$C$L60||}     ; [] |1736| 
;* --------------------------------------------------------------------------*
||$C$L61||:    
	.dwpsn	file "../OS/tasks.c",line 1737,column 5,is_stmt,isa 1
;----------------------------------------------------------------------
; 1737 | portYIELD_WITHIN_API();                                                
;----------------------------------------------------------------------
        LDR       A2, $C$CON15          ; [DPU_V7M3_PIPE] |1737| 
        MOV       A1, #268435456        ; [DPU_V7M3_PIPE] |1737| 
        STR       A1, [A2, #0]          ; [DPU_V7M3_PIPE] |1737| 
	dsb
	isb
	.dwpsn	file "../OS/tasks.c",line 1738,column 4,is_stmt,isa 1
;----------------------------------------------------------------------
; 1739 | else                                                                   
;----------------------------------------------------------------------
        B         ||$C$L64||            ; [DPU_V7M3_PIPE] |1738| 
        ; BRANCH OCCURS {||$C$L64||}     ; [] |1738| 
;* --------------------------------------------------------------------------*
||$C$L62||:    
	.dwpsn	file "../OS/tasks.c",line 1744,column 5,is_stmt,isa 1
;----------------------------------------------------------------------
; 1744 | if( listCURRENT_LIST_LENGTH( &xSuspendedTaskList ) == uxCurrentNumberOf
;     | Tasks ) /*lint !e931 Right has no side effect, just volatile. */       
;----------------------------------------------------------------------
        LDR       A1, $C$CON16          ; [DPU_V7M3_PIPE] |1744| 
        LDR       A2, $C$CON12          ; [DPU_V7M3_PIPE] |1744| 
        LDR       A1, [A1, #0]          ; [DPU_V7M3_PIPE] |1744| 
        LDR       A2, [A2, #0]          ; [DPU_V7M3_PIPE] |1744| 
        CMP       A1, A2                ; [DPU_V7M3_PIPE] |1744| 
        BNE       ||$C$L63||            ; [DPU_V7M3_PIPE] |1744| 
        ; BRANCHCC OCCURS {||$C$L63||}   ; [] |1744| 
;* --------------------------------------------------------------------------*
	.dwpsn	file "../OS/tasks.c",line 1750,column 6,is_stmt,isa 1
;----------------------------------------------------------------------
; 1750 | pxCurrentTCB = NULL;                                                   
;----------------------------------------------------------------------
        LDR       A2, $C$CON13          ; [DPU_V7M3_PIPE] |1750| 
        MOVS      A1, #0                ; [DPU_V7M3_PIPE] |1750| 
        STR       A1, [A2, #0]          ; [DPU_V7M3_PIPE] |1750| 
	.dwpsn	file "../OS/tasks.c",line 1751,column 5,is_stmt,isa 1
;----------------------------------------------------------------------
; 1752 | else                                                                   
;----------------------------------------------------------------------
        B         ||$C$L64||            ; [DPU_V7M3_PIPE] |1751| 
        ; BRANCH OCCURS {||$C$L64||}     ; [] |1751| 
;* --------------------------------------------------------------------------*
||$C$L63||:    
	.dwpsn	file "../OS/tasks.c",line 1754,column 6,is_stmt,isa 1
;----------------------------------------------------------------------
; 1754 | vTaskSwitchContext();                                                  
;----------------------------------------------------------------------
$C$DW$142	.dwtag  DW_TAG_TI_branch
	.dwattr $C$DW$142, DW_AT_low_pc(0x00)
	.dwattr $C$DW$142, DW_AT_name("vTaskSwitchContext")
	.dwattr $C$DW$142, DW_AT_TI_call

        BL        vTaskSwitchContext    ; [DPU_V7M3_PIPE] |1754| 
        ; CALL OCCURS {vTaskSwitchContext }  ; [] |1754| 
	.dwpsn	file "../OS/tasks.c",line 1757,column 3,is_stmt,isa 1
;----------------------------------------------------------------------
; 1758 | else                                                                   
; 1760 |         mtCOVERAGE_TEST_MARKER();                                      
;----------------------------------------------------------------------
        B         ||$C$L64||            ; [DPU_V7M3_PIPE] |1757| 
        ; BRANCH OCCURS {||$C$L64||}     ; [] |1757| 
;* --------------------------------------------------------------------------*
;* --------------------------------------------------------------------------*
||$C$L64||:    
$C$DW$143	.dwtag  DW_TAG_TI_branch
	.dwattr $C$DW$143, DW_AT_low_pc(0x00)
	.dwattr $C$DW$143, DW_AT_TI_return

        POP       {A2, A3, A4, PC}      ; [DPU_V7M3_PIPE] 
	.dwcfi	cfa_offset, 0
	.dwcfi	restore_reg, 3
	.dwcfi	restore_reg, 2
	.dwcfi	restore_reg, 1
        ; BRANCH OCCURS                  ; [] 
	.dwattr $C$DW$130, DW_AT_TI_end_file("../OS/tasks.c")
	.dwattr $C$DW$130, DW_AT_TI_end_line(0x6e2)
	.dwattr $C$DW$130, DW_AT_TI_end_column(0x02)
	.dwendentry
	.dwendtag $C$DW$130

;******************************************************************************
;* CONSTANT TABLE                                                             *
;******************************************************************************
	.sect	".text"
	.align	4
||$C$CON8||:	.bits	uxSchedulerSuspended,32
	.align	4
||$C$CON9||:	.bits	xTickCount,32
	.sect	".text"
	.clink
	.thumbfunc prvTaskIsTaskSuspended
	.thumb

$C$DW$144	.dwtag  DW_TAG_subprogram
	.dwattr $C$DW$144, DW_AT_name("prvTaskIsTaskSuspended")
	.dwattr $C$DW$144, DW_AT_low_pc(prvTaskIsTaskSuspended)
	.dwattr $C$DW$144, DW_AT_high_pc(0x00)
	.dwattr $C$DW$144, DW_AT_TI_symbol_name("prvTaskIsTaskSuspended")
	.dwattr $C$DW$144, DW_AT_type(*$C$DW$T$93)
	.dwattr $C$DW$144, DW_AT_TI_begin_file("../OS/tasks.c")
	.dwattr $C$DW$144, DW_AT_TI_begin_line(0x6e9)
	.dwattr $C$DW$144, DW_AT_TI_begin_column(0x14)
	.dwattr $C$DW$144, DW_AT_decl_file("../OS/tasks.c")
	.dwattr $C$DW$144, DW_AT_decl_line(0x6e9)
	.dwattr $C$DW$144, DW_AT_decl_column(0x14)
	.dwattr $C$DW$144, DW_AT_TI_max_frame_size(0x10)
	.dwpsn	file "../OS/tasks.c",line 1770,column 2,is_stmt,address prvTaskIsTaskSuspended,isa 1

	.dwfde $C$DW$CIE, prvTaskIsTaskSuspended
$C$DW$145	.dwtag  DW_TAG_formal_parameter
	.dwattr $C$DW$145, DW_AT_name("xTask")
	.dwattr $C$DW$145, DW_AT_TI_symbol_name("xTask")
	.dwattr $C$DW$145, DW_AT_type(*$C$DW$T$164)
	.dwattr $C$DW$145, DW_AT_location[DW_OP_reg0]

;----------------------------------------------------------------------
; 1769 | static BaseType_t prvTaskIsTaskSuspended( const TaskHandle_t xTask )   
;----------------------------------------------------------------------

;*****************************************************************************
;* FUNCTION NAME: prvTaskIsTaskSuspended                                     *
;*                                                                           *
;*   Regs Modified     : A1,A2,SP,SR                                         *
;*   Regs Used         : A1,A2,SP,LR,SR                                      *
;*   Local Frame Size  : 0 Args + 12 Auto + 0 Save = 12 byte                 *
;*****************************************************************************
prvTaskIsTaskSuspended:
;* --------------------------------------------------------------------------*
	.dwcfi	cfa_offset, 0
        SUB       SP, SP, #16           ; [DPU_V7M3_PIPE] 
	.dwcfi	cfa_offset, 16
$C$DW$146	.dwtag  DW_TAG_variable
	.dwattr $C$DW$146, DW_AT_name("xTask")
	.dwattr $C$DW$146, DW_AT_TI_symbol_name("xTask")
	.dwattr $C$DW$146, DW_AT_type(*$C$DW$T$164)
	.dwattr $C$DW$146, DW_AT_location[DW_OP_breg13 0]

$C$DW$147	.dwtag  DW_TAG_variable
	.dwattr $C$DW$147, DW_AT_name("xReturn")
	.dwattr $C$DW$147, DW_AT_TI_symbol_name("xReturn")
	.dwattr $C$DW$147, DW_AT_type(*$C$DW$T$93)
	.dwattr $C$DW$147, DW_AT_location[DW_OP_breg13 4]

$C$DW$148	.dwtag  DW_TAG_variable
	.dwattr $C$DW$148, DW_AT_name("pxTCB")
	.dwattr $C$DW$148, DW_AT_TI_symbol_name("pxTCB")
	.dwattr $C$DW$148, DW_AT_type(*$C$DW$T$342)
	.dwattr $C$DW$148, DW_AT_location[DW_OP_breg13 8]

        STR       A1, [SP, #0]          ; [DPU_V7M3_PIPE] |1770| 
	.dwpsn	file "../OS/tasks.c",line 1771,column 21,is_stmt,isa 1
;----------------------------------------------------------------------
; 1771 | BaseType_t xReturn = pdFALSE;                                          
;----------------------------------------------------------------------
        MOVS      A1, #0                ; [DPU_V7M3_PIPE] |1771| 
        STR       A1, [SP, #4]          ; [DPU_V7M3_PIPE] |1771| 
	.dwpsn	file "../OS/tasks.c",line 1772,column 28,is_stmt,isa 1
;----------------------------------------------------------------------
; 1772 | const TCB_t * const pxTCB = xTask;                                     
;----------------------------------------------------------------------
        LDR       A1, [SP, #0]          ; [DPU_V7M3_PIPE] |1772| 
        STR       A1, [SP, #8]          ; [DPU_V7M3_PIPE] |1772| 
	.dwpsn	file "../OS/tasks.c",line 1778,column 3,is_stmt,isa 1
;----------------------------------------------------------------------
; 1778 | configASSERT( xTask );                                                 
;----------------------------------------------------------------------
        LDR       A1, [SP, #0]          ; [DPU_V7M3_PIPE] |1778| 
        CBNZ      A1, ||$C$L66||        ; [] 
        ; BRANCHCC OCCURS {||$C$L66||}   ; [] |1778| 
;* --------------------------------------------------------------------------*
        MOVS      A1, #160              ; [DPU_V7M3_PIPE] |1778| 
        MSR       BASEPRI, A1           ; [DPU_V7M3_PIPE] |1778| 
	dsb
	isb
;* --------------------------------------------------------------------------*
;*   BEGIN LOOP ||$C$L65||
;*
;*   Loop source line                : 1778
;*   Loop closing brace source line  : 1778
;*   Known Minimum Trip Count        : 1
;*   Known Maximum Trip Count        : 4294967295
;*   Known Max Trip Count Factor     : 1
;* --------------------------------------------------------------------------*
||$C$L65||:    
        B         ||$C$L65||            ; [DPU_V7M3_PIPE] |1778| 
        ; BRANCH OCCURS {||$C$L65||}     ; [] |1778| 
;* --------------------------------------------------------------------------*
||$C$L66||:    
	.dwpsn	file "../OS/tasks.c",line 1781,column 3,is_stmt,isa 1
;----------------------------------------------------------------------
; 1781 | if( listIS_CONTAINED_WITHIN( &xSuspendedTaskList, &( pxTCB->xStateListI
;     | tem ) ) != pdFALSE )                                                   
;----------------------------------------------------------------------
        LDR       A1, [SP, #8]          ; [DPU_V7M3_PIPE] |1781| 
        LDR       A2, $C$CON12          ; [DPU_V7M3_PIPE] |1781| 
        LDR       A1, [A1, #20]         ; [DPU_V7M3_PIPE] |1781| 
        CMP       A2, A1                ; [DPU_V7M3_PIPE] |1781| 
        BNE       ||$C$L67||            ; [DPU_V7M3_PIPE] |1781| 
        ; BRANCHCC OCCURS {||$C$L67||}   ; [] |1781| 
;* --------------------------------------------------------------------------*
        MOVS      A1, #1                ; [DPU_V7M3_PIPE] |1781| 
        B         ||$C$L68||            ; [DPU_V7M3_PIPE] |1781| 
        ; BRANCH OCCURS {||$C$L68||}     ; [] |1781| 
;* --------------------------------------------------------------------------*
||$C$L67||:    
        MOVS      A1, #0                ; [DPU_V7M3_PIPE] |1781| 
;* --------------------------------------------------------------------------*
||$C$L68||:    
        CBZ       A1, ||$C$L73||        ; [] 
        ; BRANCHCC OCCURS {||$C$L73||}   ; [] |1781| 
;* --------------------------------------------------------------------------*
	.dwpsn	file "../OS/tasks.c",line 1784,column 4,is_stmt,isa 1
;----------------------------------------------------------------------
; 1784 | if( listIS_CONTAINED_WITHIN( &xPendingReadyList, &( pxTCB->xEventListIt
;     | em ) ) == pdFALSE )                                                    
;----------------------------------------------------------------------
        LDR       A1, [SP, #8]          ; [DPU_V7M3_PIPE] |1784| 
        LDR       A2, $C$CON17          ; [DPU_V7M3_PIPE] |1784| 
        LDR       A1, [A1, #40]         ; [DPU_V7M3_PIPE] |1784| 
        CMP       A2, A1                ; [DPU_V7M3_PIPE] |1784| 
        BNE       ||$C$L69||            ; [DPU_V7M3_PIPE] |1784| 
        ; BRANCHCC OCCURS {||$C$L69||}   ; [] |1784| 
;* --------------------------------------------------------------------------*
        MOVS      A1, #1                ; [DPU_V7M3_PIPE] |1784| 
        B         ||$C$L70||            ; [DPU_V7M3_PIPE] |1784| 
        ; BRANCH OCCURS {||$C$L70||}     ; [] |1784| 
;* --------------------------------------------------------------------------*
||$C$L69||:    
        MOVS      A1, #0                ; [DPU_V7M3_PIPE] |1784| 
;* --------------------------------------------------------------------------*
||$C$L70||:    
        CBNZ      A1, ||$C$L73||        ; [] 
        ; BRANCHCC OCCURS {||$C$L73||}   ; [] |1784| 
;* --------------------------------------------------------------------------*
	.dwpsn	file "../OS/tasks.c",line 1788,column 5,is_stmt,isa 1
;----------------------------------------------------------------------
; 1788 | if( listIS_CONTAINED_WITHIN( NULL, &( pxTCB->xEventListItem ) ) != pdFA
;     | LSE ) /*lint !e961.  The cast is only redundant when NULL is used. */  
;----------------------------------------------------------------------
        LDR       A1, [SP, #8]          ; [DPU_V7M3_PIPE] |1788| 
        LDR       A1, [A1, #40]         ; [DPU_V7M3_PIPE] |1788| 
        CBNZ      A1, ||$C$L71||        ; [] 
        ; BRANCHCC OCCURS {||$C$L71||}   ; [] |1788| 
;* --------------------------------------------------------------------------*
        MOVS      A1, #1                ; [DPU_V7M3_PIPE] |1788| 
        B         ||$C$L72||            ; [DPU_V7M3_PIPE] |1788| 
        ; BRANCH OCCURS {||$C$L72||}     ; [] |1788| 
;* --------------------------------------------------------------------------*
||$C$L71||:    
        MOVS      A1, #0                ; [DPU_V7M3_PIPE] |1788| 
;* --------------------------------------------------------------------------*
||$C$L72||:    
        CBZ       A1, ||$C$L73||        ; [] 
        ; BRANCHCC OCCURS {||$C$L73||}   ; [] |1788| 
;* --------------------------------------------------------------------------*
	.dwpsn	file "../OS/tasks.c",line 1790,column 6,is_stmt,isa 1
;----------------------------------------------------------------------
; 1790 | xReturn = pdTRUE;                                                      
;----------------------------------------------------------------------
        MOVS      A1, #1                ; [DPU_V7M3_PIPE] |1790| 
        STR       A1, [SP, #4]          ; [DPU_V7M3_PIPE] |1790| 
	.dwpsn	file "../OS/tasks.c",line 1791,column 5,is_stmt,isa 1
;----------------------------------------------------------------------
; 1792 | else                                                                   
; 1794 |         mtCOVERAGE_TEST_MARKER();                                      
; 1797 | else                                                                   
; 1799 | mtCOVERAGE_TEST_MARKER();                                              
; 1802 | else                                                                   
; 1804 | mtCOVERAGE_TEST_MARKER();                                              
;----------------------------------------------------------------------
        B         ||$C$L73||            ; [DPU_V7M3_PIPE] |1791| 
        ; BRANCH OCCURS {||$C$L73||}     ; [] |1791| 
;* --------------------------------------------------------------------------*
;* --------------------------------------------------------------------------*
||$C$L73||:    
	.dwpsn	file "../OS/tasks.c",line 1807,column 3,is_stmt,isa 1
;----------------------------------------------------------------------
; 1807 | return xReturn;                                                        
;----------------------------------------------------------------------
        LDR       A1, [SP, #4]          ; [DPU_V7M3_PIPE] |1807| 
	.dwpsn	file "../OS/tasks.c",line 1808,column 2,is_stmt,isa 1
        ADD       SP, SP, #16           ; [DPU_V7M3_PIPE] 
	.dwcfi	cfa_offset, 0
$C$DW$149	.dwtag  DW_TAG_TI_branch
	.dwattr $C$DW$149, DW_AT_low_pc(0x00)
	.dwattr $C$DW$149, DW_AT_TI_return

        BX        LR                    ; [DPU_V7M3_PIPE] 
        ; BRANCH OCCURS                  ; [] 
	.dwattr $C$DW$144, DW_AT_TI_end_file("../OS/tasks.c")
	.dwattr $C$DW$144, DW_AT_TI_end_line(0x710)
	.dwattr $C$DW$144, DW_AT_TI_end_column(0x02)
	.dwendentry
	.dwendtag $C$DW$144

	.sect	".text"
	.clink
	.thumbfunc vTaskResume
	.thumb
	.global	vTaskResume

$C$DW$150	.dwtag  DW_TAG_subprogram
	.dwattr $C$DW$150, DW_AT_name("vTaskResume")
	.dwattr $C$DW$150, DW_AT_low_pc(vTaskResume)
	.dwattr $C$DW$150, DW_AT_high_pc(0x00)
	.dwattr $C$DW$150, DW_AT_TI_symbol_name("vTaskResume")
	.dwattr $C$DW$150, DW_AT_external
	.dwattr $C$DW$150, DW_AT_TI_begin_file("../OS/tasks.c")
	.dwattr $C$DW$150, DW_AT_TI_begin_line(0x717)
	.dwattr $C$DW$150, DW_AT_TI_begin_column(0x07)
	.dwattr $C$DW$150, DW_AT_decl_file("../OS/tasks.c")
	.dwattr $C$DW$150, DW_AT_decl_line(0x717)
	.dwattr $C$DW$150, DW_AT_decl_column(0x07)
	.dwattr $C$DW$150, DW_AT_TI_max_frame_size(0x10)
	.dwpsn	file "../OS/tasks.c",line 1816,column 2,is_stmt,address vTaskResume,isa 1

	.dwfde $C$DW$CIE, vTaskResume
$C$DW$151	.dwtag  DW_TAG_formal_parameter
	.dwattr $C$DW$151, DW_AT_name("xTaskToResume")
	.dwattr $C$DW$151, DW_AT_TI_symbol_name("xTaskToResume")
	.dwattr $C$DW$151, DW_AT_type(*$C$DW$T$89)
	.dwattr $C$DW$151, DW_AT_location[DW_OP_reg0]

;----------------------------------------------------------------------
; 1815 | void vTaskResume( TaskHandle_t xTaskToResume )                         
;----------------------------------------------------------------------

;*****************************************************************************
;* FUNCTION NAME: vTaskResume                                                *
;*                                                                           *
;*   Regs Modified     : A1,A2,A3,A4,V1,V9,SP,LR,SR,D0,D0_hi,D1,D1_hi,D2,    *
;*                           D2_hi,D3,D3_hi,D4,D4_hi,D5,D5_hi,D6,D6_hi,D7,   *
;*                           D7_hi,FPEXC,FPSCR                               *
;*   Regs Used         : A1,A2,A3,A4,V1,V9,SP,LR,SR,D0,D0_hi,D1,D1_hi,D2,    *
;*                           D2_hi,D3,D3_hi,D4,D4_hi,D5,D5_hi,D6,D6_hi,D7,   *
;*                           D7_hi,FPEXC,FPSCR                               *
;*   Local Frame Size  : 0 Args + 8 Auto + 8 Save = 16 byte                  *
;*****************************************************************************
vTaskResume:
;* --------------------------------------------------------------------------*
	.dwcfi	cfa_offset, 0
        PUSH      {A3, A4, V1, LR}      ; [DPU_V7M3_PIPE] 
	.dwcfi	cfa_offset, 16
	.dwcfi	save_reg_to_mem, 14, -4
	.dwcfi	save_reg_to_mem, 4, -8
	.dwcfi	save_reg_to_mem, 3, -12
	.dwcfi	save_reg_to_mem, 2, -16
$C$DW$152	.dwtag  DW_TAG_variable
	.dwattr $C$DW$152, DW_AT_name("xTaskToResume")
	.dwattr $C$DW$152, DW_AT_TI_symbol_name("xTaskToResume")
	.dwattr $C$DW$152, DW_AT_type(*$C$DW$T$89)
	.dwattr $C$DW$152, DW_AT_location[DW_OP_breg13 0]

$C$DW$153	.dwtag  DW_TAG_variable
	.dwattr $C$DW$153, DW_AT_name("pxTCB")
	.dwattr $C$DW$153, DW_AT_TI_symbol_name("pxTCB")
	.dwattr $C$DW$153, DW_AT_type(*$C$DW$T$344)
	.dwattr $C$DW$153, DW_AT_location[DW_OP_breg13 4]

        STR       A1, [SP, #0]          ; [DPU_V7M3_PIPE] |1816| 
	.dwpsn	file "../OS/tasks.c",line 1817,column 22,is_stmt,isa 1
;----------------------------------------------------------------------
; 1817 | TCB_t * const pxTCB = xTaskToResume;                                   
;----------------------------------------------------------------------
        LDR       A1, [SP, #0]          ; [DPU_V7M3_PIPE] |1817| 
        STR       A1, [SP, #4]          ; [DPU_V7M3_PIPE] |1817| 
	.dwpsn	file "../OS/tasks.c",line 1820,column 3,is_stmt,isa 1
;----------------------------------------------------------------------
; 1820 | configASSERT( xTaskToResume );                                         
;----------------------------------------------------------------------
        LDR       A1, [SP, #0]          ; [DPU_V7M3_PIPE] |1820| 
        CBNZ      A1, ||$C$L75||        ; [] 
        ; BRANCHCC OCCURS {||$C$L75||}   ; [] |1820| 
;* --------------------------------------------------------------------------*
        MOVS      A1, #160              ; [DPU_V7M3_PIPE] |1820| 
        MSR       BASEPRI, A1           ; [DPU_V7M3_PIPE] |1820| 
	dsb
	isb
;* --------------------------------------------------------------------------*
;*   BEGIN LOOP ||$C$L74||
;*
;*   Loop source line                : 1820
;*   Loop closing brace source line  : 1820
;*   Known Minimum Trip Count        : 1
;*   Known Maximum Trip Count        : 4294967295
;*   Known Max Trip Count Factor     : 1
;* --------------------------------------------------------------------------*
||$C$L74||:    
        B         ||$C$L74||            ; [DPU_V7M3_PIPE] |1820| 
        ; BRANCH OCCURS {||$C$L74||}     ; [] |1820| 
;* --------------------------------------------------------------------------*
||$C$L75||:    
	.dwpsn	file "../OS/tasks.c",line 1824,column 3,is_stmt,isa 1
;----------------------------------------------------------------------
; 1824 | if( ( pxTCB != pxCurrentTCB ) && ( pxTCB != NULL ) )                   
;----------------------------------------------------------------------
        LDR       A1, $C$CON13          ; [DPU_V7M3_PIPE] |1824| 
        LDR       A2, [SP, #4]          ; [DPU_V7M3_PIPE] |1824| 
        LDR       A1, [A1, #0]          ; [DPU_V7M3_PIPE] |1824| 
        CMP       A1, A2                ; [DPU_V7M3_PIPE] |1824| 
        BEQ       ||$C$L77||            ; [DPU_V7M3_PIPE] |1824| 
        ; BRANCHCC OCCURS {||$C$L77||}   ; [] |1824| 
;* --------------------------------------------------------------------------*
        LDR       A1, [SP, #4]          ; [DPU_V7M3_PIPE] |1824| 
        CMP       A1, #0                ; [DPU_V7M3_PIPE] |1824| 
        BEQ       ||$C$L77||            ; [DPU_V7M3_PIPE] |1824| 
        ; BRANCHCC OCCURS {||$C$L77||}   ; [] |1824| 
;* --------------------------------------------------------------------------*
	.dwpsn	file "../OS/tasks.c",line 1826,column 4,is_stmt,isa 1
;----------------------------------------------------------------------
; 1826 | taskENTER_CRITICAL();                                                  
;----------------------------------------------------------------------
$C$DW$154	.dwtag  DW_TAG_TI_branch
	.dwattr $C$DW$154, DW_AT_low_pc(0x00)
	.dwattr $C$DW$154, DW_AT_name("vPortEnterCritical")
	.dwattr $C$DW$154, DW_AT_TI_call

        BL        vPortEnterCritical    ; [DPU_V7M3_PIPE] |1826| 
        ; CALL OCCURS {vPortEnterCritical }  ; [] |1826| 
	.dwpsn	file "../OS/tasks.c",line 1828,column 5,is_stmt,isa 1
;----------------------------------------------------------------------
; 1828 | if( prvTaskIsTaskSuspended( pxTCB ) != pdFALSE )                       
; 1830 |         traceTASK_RESUME( pxTCB );                                     
;----------------------------------------------------------------------
        LDR       A1, [SP, #4]          ; [DPU_V7M3_PIPE] |1828| 
$C$DW$155	.dwtag  DW_TAG_TI_branch
	.dwattr $C$DW$155, DW_AT_low_pc(0x00)
	.dwattr $C$DW$155, DW_AT_name("prvTaskIsTaskSuspended")
	.dwattr $C$DW$155, DW_AT_TI_call

        BL        prvTaskIsTaskSuspended ; [DPU_V7M3_PIPE] |1828| 
        ; CALL OCCURS {prvTaskIsTaskSuspended }  ; [] |1828| 
        CBZ       A1, ||$C$L76||        ; [] 
        ; BRANCHCC OCCURS {||$C$L76||}   ; [] |1828| 
;* --------------------------------------------------------------------------*
	.dwpsn	file "../OS/tasks.c",line 1834,column 6,is_stmt,isa 1
;----------------------------------------------------------------------
; 1834 | ( void ) uxListRemove(  &( pxTCB->xStateListItem ) );                  
;----------------------------------------------------------------------
        LDR       A1, [SP, #4]          ; [DPU_V7M3_PIPE] |1834| 
        ADDS      A1, A1, #4            ; [DPU_V7M3_PIPE] |1834| 
$C$DW$156	.dwtag  DW_TAG_TI_branch
	.dwattr $C$DW$156, DW_AT_low_pc(0x00)
	.dwattr $C$DW$156, DW_AT_name("uxListRemove")
	.dwattr $C$DW$156, DW_AT_TI_call

        BL        uxListRemove          ; [DPU_V7M3_PIPE] |1834| 
        ; CALL OCCURS {uxListRemove }    ; [] |1834| 
	.dwpsn	file "../OS/tasks.c",line 1835,column 6,is_stmt,isa 1
;----------------------------------------------------------------------
; 1835 | prvAddTaskToReadyList( pxTCB );                                        
;----------------------------------------------------------------------
        LDR       A1, [SP, #4]          ; [DPU_V7M3_PIPE] |1835| 
        LDR       A3, $C$CON18          ; [DPU_V7M3_PIPE] |1835| 
        LDR       V1, [A1, #44]         ; [DPU_V7M3_PIPE] |1835| 
        LDR       A2, [SP, #4]          ; [DPU_V7M3_PIPE] |1835| 
        LDR       A4, [A3, #0]          ; [DPU_V7M3_PIPE] |1835| 
        MOVS      A1, #1                ; [DPU_V7M3_PIPE] |1835| 
        LSLS      A1, A1, V1            ; [DPU_V7M3_PIPE] |1835| 
        ORRS      A1, A1, A4            ; [DPU_V7M3_PIPE] |1835| 
        STR       A1, [A3, #0]          ; [DPU_V7M3_PIPE] |1835| 
        LDR       A4, $C$CON19          ; [DPU_V7M3_PIPE] |1835| 
        LDR       A3, [A2, #44]         ; [DPU_V7M3_PIPE] |1835| 
        LDR       A2, [SP, #4]          ; [DPU_V7M3_PIPE] |1835| 
        LSLS      A1, A3, #2            ; [DPU_V7M3_PIPE] |1835| 
        ADD       A1, A1, A3, LSL #4    ; [DPU_V7M3_PIPE] |1835| 
        ADDS      A2, A2, #4            ; [DPU_V7M3_PIPE] |1835| 
        ADDS      A1, A1, A4            ; [DPU_V7M3_PIPE] |1835| 
$C$DW$157	.dwtag  DW_TAG_TI_branch
	.dwattr $C$DW$157, DW_AT_low_pc(0x00)
	.dwattr $C$DW$157, DW_AT_name("vListInsertEnd")
	.dwattr $C$DW$157, DW_AT_TI_call

        BL        vListInsertEnd        ; [DPU_V7M3_PIPE] |1835| 
        ; CALL OCCURS {vListInsertEnd }  ; [] |1835| 
	.dwpsn	file "../OS/tasks.c",line 1838,column 6,is_stmt,isa 1
;----------------------------------------------------------------------
; 1838 | if( pxTCB->uxPriority >= pxCurrentTCB->uxPriority )                    
;----------------------------------------------------------------------
        LDR       A1, $C$CON13          ; [DPU_V7M3_PIPE] |1838| 
        LDR       A2, [SP, #4]          ; [DPU_V7M3_PIPE] |1838| 
        LDR       A1, [A1, #0]          ; [DPU_V7M3_PIPE] |1838| 
        LDR       A2, [A2, #44]         ; [DPU_V7M3_PIPE] |1838| 
        LDR       A1, [A1, #44]         ; [DPU_V7M3_PIPE] |1838| 
        CMP       A1, A2                ; [DPU_V7M3_PIPE] |1838| 
        BHI       ||$C$L76||            ; [DPU_V7M3_PIPE] |1838| 
        ; BRANCHCC OCCURS {||$C$L76||}   ; [] |1838| 
;* --------------------------------------------------------------------------*
	.dwpsn	file "../OS/tasks.c",line 1843,column 7,is_stmt,isa 1
;----------------------------------------------------------------------
; 1843 | taskYIELD_IF_USING_PREEMPTION();                                       
;----------------------------------------------------------------------
        LDR       A2, $C$CON15          ; [DPU_V7M3_PIPE] |1843| 
        MOV       A1, #268435456        ; [DPU_V7M3_PIPE] |1843| 
        STR       A1, [A2, #0]          ; [DPU_V7M3_PIPE] |1843| 
	dsb
	isb
	.dwpsn	file "../OS/tasks.c",line 1844,column 6,is_stmt,isa 1
;----------------------------------------------------------------------
; 1845 | else                                                                   
; 1847 |         mtCOVERAGE_TEST_MARKER();                                      
; 1850 | else                                                                   
; 1852 | mtCOVERAGE_TEST_MARKER();                                              
;----------------------------------------------------------------------
        B         ||$C$L76||            ; [DPU_V7M3_PIPE] |1844| 
        ; BRANCH OCCURS {||$C$L76||}     ; [] |1844| 
;* --------------------------------------------------------------------------*
;* --------------------------------------------------------------------------*
||$C$L76||:    
	.dwpsn	file "../OS/tasks.c",line 1855,column 4,is_stmt,isa 1
;----------------------------------------------------------------------
; 1855 | taskEXIT_CRITICAL();                                                   
;----------------------------------------------------------------------
$C$DW$158	.dwtag  DW_TAG_TI_branch
	.dwattr $C$DW$158, DW_AT_low_pc(0x00)
	.dwattr $C$DW$158, DW_AT_name("vPortExitCritical")
	.dwattr $C$DW$158, DW_AT_TI_call

        BL        vPortExitCritical     ; [DPU_V7M3_PIPE] |1855| 
        ; CALL OCCURS {vPortExitCritical }  ; [] |1855| 
	.dwpsn	file "../OS/tasks.c",line 1856,column 3,is_stmt,isa 1
;----------------------------------------------------------------------
; 1857 | else                                                                   
; 1859 |         mtCOVERAGE_TEST_MARKER();                                      
;----------------------------------------------------------------------
        B         ||$C$L77||            ; [DPU_V7M3_PIPE] |1856| 
        ; BRANCH OCCURS {||$C$L77||}     ; [] |1856| 
;* --------------------------------------------------------------------------*
;* --------------------------------------------------------------------------*
||$C$L77||:    
$C$DW$159	.dwtag  DW_TAG_TI_branch
	.dwattr $C$DW$159, DW_AT_low_pc(0x00)
	.dwattr $C$DW$159, DW_AT_TI_return

        POP       {A3, A4, V1, PC}      ; [DPU_V7M3_PIPE] 
	.dwcfi	cfa_offset, 0
	.dwcfi	restore_reg, 4
	.dwcfi	restore_reg, 3
	.dwcfi	restore_reg, 2
        ; BRANCH OCCURS                  ; [] 
	.dwattr $C$DW$150, DW_AT_TI_end_file("../OS/tasks.c")
	.dwattr $C$DW$150, DW_AT_TI_end_line(0x745)
	.dwattr $C$DW$150, DW_AT_TI_end_column(0x02)
	.dwendentry
	.dwendtag $C$DW$150

;******************************************************************************
;* CONSTANT TABLE                                                             *
;******************************************************************************
	.sect	".text"
	.align	4
||$C$CON10||:	.bits	pxDelayedTaskList,32
	.align	4
||$C$CON11||:	.bits	pxOverflowDelayedTaskList,32
	.align	4
||$C$CON12||:	.bits	xSuspendedTaskList,32
	.sect	".text"
	.clink
	.thumbfunc vTaskStartScheduler
	.thumb
	.global	vTaskStartScheduler

$C$DW$160	.dwtag  DW_TAG_subprogram
	.dwattr $C$DW$160, DW_AT_name("vTaskStartScheduler")
	.dwattr $C$DW$160, DW_AT_low_pc(vTaskStartScheduler)
	.dwattr $C$DW$160, DW_AT_high_pc(0x00)
	.dwattr $C$DW$160, DW_AT_TI_symbol_name("vTaskStartScheduler")
	.dwattr $C$DW$160, DW_AT_external
	.dwattr $C$DW$160, DW_AT_TI_begin_file("../OS/tasks.c")
	.dwattr $C$DW$160, DW_AT_TI_begin_line(0x793)
	.dwattr $C$DW$160, DW_AT_TI_begin_column(0x06)
	.dwattr $C$DW$160, DW_AT_decl_file("../OS/tasks.c")
	.dwattr $C$DW$160, DW_AT_decl_line(0x793)
	.dwattr $C$DW$160, DW_AT_decl_column(0x06)
	.dwattr $C$DW$160, DW_AT_TI_max_frame_size(0x20)
	.dwpsn	file "../OS/tasks.c",line 1940,column 1,is_stmt,address vTaskStartScheduler,isa 1

	.dwfde $C$DW$CIE, vTaskStartScheduler
;----------------------------------------------------------------------
; 1939 | void vTaskStartScheduler( void )                                       
; 1941 | BaseType_t xReturn;                                                    
; 1944 | #if( configSUPPORT_STATIC_ALLOCATION == 1 )                            
;----------------------------------------------------------------------

;*****************************************************************************
;* FUNCTION NAME: vTaskStartScheduler                                        *
;*                                                                           *
;*   Regs Modified     : A1,A2,A3,A4,V9,SP,LR,SR,D0,D0_hi,D1,D1_hi,D2,D2_hi, *
;*                           D3,D3_hi,D4,D4_hi,D5,D5_hi,D6,D6_hi,D7,D7_hi,   *
;*                           FPEXC,FPSCR                                     *
;*   Regs Used         : A1,A2,A3,A4,V9,SP,LR,SR,D0,D0_hi,D1,D1_hi,D2,D2_hi, *
;*                           D3,D3_hi,D4,D4_hi,D5,D5_hi,D6,D6_hi,D7,D7_hi,   *
;*                           FPEXC,FPSCR                                     *
;*   Local Frame Size  : 12 Args + 16 Auto + 4 Save = 32 byte                *
;*****************************************************************************
vTaskStartScheduler:
;* --------------------------------------------------------------------------*
	.dwcfi	cfa_offset, 0
        PUSH      {LR}                  ; [DPU_V7M3_PIPE] 
	.dwcfi	cfa_offset, 4
	.dwcfi	save_reg_to_mem, 14, -4
        SUB       SP, SP, #28           ; [DPU_V7M3_PIPE] 
	.dwcfi	cfa_offset, 32
$C$DW$161	.dwtag  DW_TAG_variable
	.dwattr $C$DW$161, DW_AT_name("xReturn")
	.dwattr $C$DW$161, DW_AT_TI_symbol_name("xReturn")
	.dwattr $C$DW$161, DW_AT_type(*$C$DW$T$93)
	.dwattr $C$DW$161, DW_AT_location[DW_OP_breg13 12]


$C$DW$162	.dwtag  DW_TAG_lexical_block
	.dwattr $C$DW$162, DW_AT_low_pc(0x00)
	.dwattr $C$DW$162, DW_AT_high_pc(0x00)
$C$DW$163	.dwtag  DW_TAG_variable
	.dwattr $C$DW$163, DW_AT_name("pxIdleTaskTCBBuffer")
	.dwattr $C$DW$163, DW_AT_TI_symbol_name("pxIdleTaskTCBBuffer")
	.dwattr $C$DW$163, DW_AT_type(*$C$DW$T$123)
	.dwattr $C$DW$163, DW_AT_location[DW_OP_breg13 16]

$C$DW$164	.dwtag  DW_TAG_variable
	.dwattr $C$DW$164, DW_AT_name("pxIdleTaskStackBuffer")
	.dwattr $C$DW$164, DW_AT_TI_symbol_name("pxIdleTaskStackBuffer")
	.dwattr $C$DW$164, DW_AT_type(*$C$DW$T$40)
	.dwattr $C$DW$164, DW_AT_location[DW_OP_breg13 20]

$C$DW$165	.dwtag  DW_TAG_variable
	.dwattr $C$DW$165, DW_AT_name("ulIdleTaskStackSize")
	.dwattr $C$DW$165, DW_AT_TI_symbol_name("ulIdleTaskStackSize")
	.dwattr $C$DW$165, DW_AT_type(*$C$DW$T$35)
	.dwattr $C$DW$165, DW_AT_location[DW_OP_breg13 24]

	.dwpsn	file "../OS/tasks.c",line 1946,column 37,is_stmt,isa 1
;----------------------------------------------------------------------
; 1946 | StaticTask_t *pxIdleTaskTCBBuffer = NULL;                              
;----------------------------------------------------------------------
        MOVS      A1, #0                ; [DPU_V7M3_PIPE] |1946| 
        STR       A1, [SP, #16]         ; [DPU_V7M3_PIPE] |1946| 
	.dwpsn	file "../OS/tasks.c",line 1947,column 38,is_stmt,isa 1
;----------------------------------------------------------------------
; 1947 | StackType_t *pxIdleTaskStackBuffer = NULL;                             
; 1948 | uint32_t ulIdleTaskStackSize;                                          
;----------------------------------------------------------------------
        MOVS      A1, #0                ; [DPU_V7M3_PIPE] |1947| 
        STR       A1, [SP, #20]         ; [DPU_V7M3_PIPE] |1947| 
	.dwpsn	file "../OS/tasks.c",line 1952,column 3,is_stmt,isa 1
;----------------------------------------------------------------------
; 1952 | vApplicationGetIdleTaskMemory( &pxIdleTaskTCBBuffer, &pxIdleTaskStackBu
;     | ffer, &ulIdleTaskStackSize );                                          
;----------------------------------------------------------------------
        ADD       A2, SP, #20           ; [DPU_V7M3_PIPE] |1952| 
        ADD       A3, SP, #24           ; [DPU_V7M3_PIPE] |1952| 
        ADD       A1, SP, #16           ; [DPU_V7M3_PIPE] |1952| 
$C$DW$166	.dwtag  DW_TAG_TI_branch
	.dwattr $C$DW$166, DW_AT_low_pc(0x00)
	.dwattr $C$DW$166, DW_AT_name("vApplicationGetIdleTaskMemory")
	.dwattr $C$DW$166, DW_AT_TI_call

        BL        vApplicationGetIdleTaskMemory ; [DPU_V7M3_PIPE] |1952| 
        ; CALL OCCURS {vApplicationGetIdleTaskMemory }  ; [] |1952| 
	.dwpsn	file "../OS/tasks.c",line 1953,column 3,is_stmt,isa 1
;----------------------------------------------------------------------
; 1953 | xIdleTaskHandle = xTaskCreateStatic(    prvIdleTask,                   
; 1954 | 
;     |          configIDLE_TASK_NAME,                                         
; 1955 | 
;     |          ulIdleTaskStackSize,                                          
; 1956 | 
;     |          ( void * ) NULL, /*lint !e961.  The cast is not redundant for 
;     | all compilers. */                                                      
; 1957 | 
;     |          portPRIVILEGE_BIT, /* In effect ( tskIDLE_PRIORITY | portPRIVI
;     | LEGE_BIT ), but tskIDLE_PRIORITY is zero. */                           
; 1958 | 
;     |          pxIdleTaskStackBuffer,                                        
; 1959 | 
;     |          pxIdleTaskTCBBuffer ); /*lint !e961 MISRA exception, justified
;     |  as it is not a redundant explicit cast to all supported compilers. */ 
;----------------------------------------------------------------------
        MOVS      A1, #0                ; [DPU_V7M3_PIPE] |1953| 
        STR       A1, [SP, #0]          ; [DPU_V7M3_PIPE] |1953| 
        LDR       A1, [SP, #20]         ; [DPU_V7M3_PIPE] |1953| 
        STR       A1, [SP, #4]          ; [DPU_V7M3_PIPE] |1953| 
        LDR       A1, [SP, #16]         ; [DPU_V7M3_PIPE] |1953| 
        STR       A1, [SP, #8]          ; [DPU_V7M3_PIPE] |1953| 
        LDR       A1, $C$CON21          ; [DPU_V7M3_PIPE] |1953| 
        LDR       A3, [SP, #24]         ; [DPU_V7M3_PIPE] |1953| 
        ADR       A2, $C$SL1            ; [DPU_V7M3_PIPE] |1953| 
        MOVS      A4, #0                ; [DPU_V7M3_PIPE] |1953| 
$C$DW$167	.dwtag  DW_TAG_TI_branch
	.dwattr $C$DW$167, DW_AT_low_pc(0x00)
	.dwattr $C$DW$167, DW_AT_name("xTaskCreateStatic")
	.dwattr $C$DW$167, DW_AT_TI_call

        BL        xTaskCreateStatic     ; [DPU_V7M3_PIPE] |1953| 
        ; CALL OCCURS {xTaskCreateStatic }  ; [] |1953| 
        LDR       A2, $C$CON20          ; [DPU_V7M3_PIPE] |1953| 
        STR       A1, [A2, #0]          ; [DPU_V7M3_PIPE] |1953| 
	.dwpsn	file "../OS/tasks.c",line 1961,column 3,is_stmt,isa 1
;----------------------------------------------------------------------
; 1961 | if( xIdleTaskHandle != NULL )                                          
;----------------------------------------------------------------------
        LDR       A1, $C$CON20          ; [DPU_V7M3_PIPE] |1961| 
        LDR       A1, [A1, #0]          ; [DPU_V7M3_PIPE] |1961| 
        CBZ       A1, ||$C$L78||        ; [] 
        ; BRANCHCC OCCURS {||$C$L78||}   ; [] |1961| 
;* --------------------------------------------------------------------------*
	.dwpsn	file "../OS/tasks.c",line 1963,column 4,is_stmt,isa 1
;----------------------------------------------------------------------
; 1963 | xReturn = pdPASS;                                                      
;----------------------------------------------------------------------
        MOVS      A1, #1                ; [DPU_V7M3_PIPE] |1963| 
        STR       A1, [SP, #12]         ; [DPU_V7M3_PIPE] |1963| 
	.dwpsn	file "../OS/tasks.c",line 1964,column 3,is_stmt,isa 1
;----------------------------------------------------------------------
; 1965 | else                                                                   
;----------------------------------------------------------------------
        B         ||$C$L79||            ; [DPU_V7M3_PIPE] |1964| 
        ; BRANCH OCCURS {||$C$L79||}     ; [] |1964| 
;* --------------------------------------------------------------------------*
||$C$L78||:    
	.dwpsn	file "../OS/tasks.c",line 1967,column 4,is_stmt,isa 1
;----------------------------------------------------------------------
; 1967 | xReturn = pdFAIL;                                                      
; 1970 | #else                                                                  
; 1973 | xReturn = xTaskCreate(  prvIdleTask,                                   
; 1974 |                                         configIDLE_TASK_NAME,          
; 1975 |                                         configMINIMAL_STACK_SIZE,      
; 1976 |                                         ( void * ) NULL,               
; 1977 |                                         portPRIVILEGE_BIT, /* In effect
;     |  ( tskIDLE_PRIORITY | portPRIVILEGE_BIT ), but tskIDLE_PRIORITY is zero
;     | . */                                                                   
; 1978 |                                         &xIdleTaskHandle ); /*lint !e96
;     | 1 MISRA exception, justified as it is not a redundant explicit cast to 
;     | all supported compilers. */                                            
; 1980 | #endif /* configSUPPORT_STATIC_ALLOCATION */                           
; 1982 | #if ( configUSE_TIMERS == 1 )                                          
;----------------------------------------------------------------------
        MOVS      A1, #0                ; [DPU_V7M3_PIPE] |1967| 
        STR       A1, [SP, #12]         ; [DPU_V7M3_PIPE] |1967| 
;* --------------------------------------------------------------------------*
||$C$L79||:    
	.dwendtag $C$DW$162

	.dwpsn	file "../OS/tasks.c",line 1984,column 3,is_stmt,isa 1
;----------------------------------------------------------------------
; 1984 | if( xReturn == pdPASS )                                                
;----------------------------------------------------------------------
        LDR       A1, [SP, #12]         ; [DPU_V7M3_PIPE] |1984| 
        CMP       A1, #1                ; [DPU_V7M3_PIPE] |1984| 
        BNE       ||$C$L80||            ; [DPU_V7M3_PIPE] |1984| 
        ; BRANCHCC OCCURS {||$C$L80||}   ; [] |1984| 
;* --------------------------------------------------------------------------*
	.dwpsn	file "../OS/tasks.c",line 1986,column 4,is_stmt,isa 1
;----------------------------------------------------------------------
; 1986 | xReturn = xTimerCreateTimerTask();                                     
;----------------------------------------------------------------------
$C$DW$168	.dwtag  DW_TAG_TI_branch
	.dwattr $C$DW$168, DW_AT_low_pc(0x00)
	.dwattr $C$DW$168, DW_AT_name("xTimerCreateTimerTask")
	.dwattr $C$DW$168, DW_AT_TI_call

        BL        xTimerCreateTimerTask ; [DPU_V7M3_PIPE] |1986| 
        ; CALL OCCURS {xTimerCreateTimerTask }  ; [] |1986| 
        STR       A1, [SP, #12]         ; [DPU_V7M3_PIPE] |1986| 
	.dwpsn	file "../OS/tasks.c",line 1987,column 3,is_stmt,isa 1
;----------------------------------------------------------------------
; 1988 | else                                                                   
; 1990 |         mtCOVERAGE_TEST_MARKER();                                      
; 1993 | #endif /* configUSE_TIMERS */                                          
;----------------------------------------------------------------------
;* --------------------------------------------------------------------------*
||$C$L80||:    
	.dwpsn	file "../OS/tasks.c",line 1995,column 2,is_stmt,isa 1
;----------------------------------------------------------------------
; 1995 | if( xReturn == pdPASS )                                                
; 2000 |         #ifdef FREERTOS_TASKS_C_ADDITIONS_INIT                         
; 2002 |                 freertos_tasks_c_additions_init();                     
; 2004 |         #endif                                                         
;----------------------------------------------------------------------
        LDR       A1, [SP, #12]         ; [DPU_V7M3_PIPE] |1995| 
        CMP       A1, #1                ; [DPU_V7M3_PIPE] |1995| 
        BNE       ||$C$L81||            ; [DPU_V7M3_PIPE] |1995| 
        ; BRANCHCC OCCURS {||$C$L81||}   ; [] |1995| 
;* --------------------------------------------------------------------------*
	.dwpsn	file "../OS/tasks.c",line 2011,column 3,is_stmt,isa 1
;----------------------------------------------------------------------
; 2011 | portDISABLE_INTERRUPTS();                                              
; 2013 | #if ( configUSE_NEWLIB_REENTRANT == 1 )                                
; 2017 |         _impure_ptr = &( pxCurrentTCB->xNewLib_reent );                
; 2019 | #endif /* configUSE_NEWLIB_REENTRANT */                                
;----------------------------------------------------------------------
        MOVS      A1, #160              ; [DPU_V7M3_PIPE] |2011| 
        MSR       BASEPRI, A1           ; [DPU_V7M3_PIPE] |2011| 
	dsb
	isb
	.dwpsn	file "../OS/tasks.c",line 2021,column 3,is_stmt,isa 1
;----------------------------------------------------------------------
; 2021 | xNextTaskUnblockTime = portMAX_DELAY;                                  
;----------------------------------------------------------------------
        LDR       A2, $C$CON22          ; [DPU_V7M3_PIPE] |2021| 
        MOV       A1, #-1               ; [DPU_V7M3_PIPE] |2021| 
        STR       A1, [A2, #0]          ; [DPU_V7M3_PIPE] |2021| 
	.dwpsn	file "../OS/tasks.c",line 2022,column 3,is_stmt,isa 1
;----------------------------------------------------------------------
; 2022 | xSchedulerRunning = pdTRUE;                                            
;----------------------------------------------------------------------
        LDR       A2, $C$CON14          ; [DPU_V7M3_PIPE] |2022| 
        MOVS      A1, #1                ; [DPU_V7M3_PIPE] |2022| 
        STR       A1, [A2, #0]          ; [DPU_V7M3_PIPE] |2022| 
	.dwpsn	file "../OS/tasks.c",line 2023,column 3,is_stmt,isa 1
;----------------------------------------------------------------------
; 2023 | xTickCount = ( TickType_t ) configINITIAL_TICK_COUNT;                  
;----------------------------------------------------------------------
        LDR       A2, $C$CON23          ; [DPU_V7M3_PIPE] |2023| 
        MOVS      A1, #0                ; [DPU_V7M3_PIPE] |2023| 
        STR       A1, [A2, #0]          ; [DPU_V7M3_PIPE] |2023| 
	.dwpsn	file "../OS/tasks.c",line 2031,column 3,is_stmt,isa 1
;----------------------------------------------------------------------
; 2031 | portCONFIGURE_TIMER_FOR_RUN_TIME_STATS();                              
; 2033 | traceTASK_SWITCHED_IN();                                               
;----------------------------------------------------------------------
	.dwpsn	file "../OS/tasks.c",line 2037,column 3,is_stmt,isa 1
;----------------------------------------------------------------------
; 2037 | if( xPortStartScheduler() != pdFALSE )                                 
;----------------------------------------------------------------------
$C$DW$169	.dwtag  DW_TAG_TI_branch
	.dwattr $C$DW$169, DW_AT_low_pc(0x00)
	.dwattr $C$DW$169, DW_AT_name("xPortStartScheduler")
	.dwattr $C$DW$169, DW_AT_TI_call

        BL        xPortStartScheduler   ; [DPU_V7M3_PIPE] |2037| 
        ; CALL OCCURS {xPortStartScheduler }  ; [] |2037| 
        CBNZ      A1, ||$C$L84||        ; [] 
        ; BRANCHCC OCCURS {||$C$L84||}   ; [] |2037| 
;* --------------------------------------------------------------------------*
	.dwpsn	file "../OS/tasks.c",line 2041,column 3,is_stmt,isa 1
;----------------------------------------------------------------------
; 2042 | else                                                                   
;----------------------------------------------------------------------
	.dwpsn	file "../OS/tasks.c",line 2046,column 2,is_stmt,isa 1
;----------------------------------------------------------------------
; 2047 | else                                                                   
;----------------------------------------------------------------------
        B         ||$C$L84||            ; [DPU_V7M3_PIPE] |2046| 
        ; BRANCH OCCURS {||$C$L84||}     ; [] |2046| 
;* --------------------------------------------------------------------------*
||$C$L81||:    
	.dwpsn	file "../OS/tasks.c",line 2052,column 3,is_stmt,isa 1
;----------------------------------------------------------------------
; 2052 | configASSERT( xReturn != errCOULD_NOT_ALLOCATE_REQUIRED_MEMORY );      
; 2057 | ( void ) xIdleTaskHandle;                                              
;----------------------------------------------------------------------
        LDR       A2, [SP, #12]         ; [DPU_V7M3_PIPE] |2052| 
        MOVS      A1, #0                ; [DPU_V7M3_PIPE] |2052| 
        CMP       A2, #-1               ; [DPU_V7M3_PIPE] |2052| 
        BEQ       ||$C$L82||            ; [DPU_V7M3_PIPE] |2052| 
        ; BRANCHCC OCCURS {||$C$L82||}   ; [] |2052| 
;* --------------------------------------------------------------------------*
        MOVS      A1, #1                ; [DPU_V7M3_PIPE] |2052| 
;* --------------------------------------------------------------------------*
||$C$L82||:    
        CBNZ      A1, ||$C$L84||        ; [] 
        ; BRANCHCC OCCURS {||$C$L84||}   ; [] |2052| 
;* --------------------------------------------------------------------------*
        MOVS      A1, #160              ; [DPU_V7M3_PIPE] |2052| 
        MSR       BASEPRI, A1           ; [DPU_V7M3_PIPE] |2052| 
	dsb
	isb
;* --------------------------------------------------------------------------*
;*   BEGIN LOOP ||$C$L83||
;*
;*   Loop source line                : 2052
;*   Loop closing brace source line  : 2052
;*   Known Minimum Trip Count        : 1
;*   Known Maximum Trip Count        : 4294967295
;*   Known Max Trip Count Factor     : 1
;* --------------------------------------------------------------------------*
||$C$L83||:    
        B         ||$C$L83||            ; [DPU_V7M3_PIPE] |2052| 
        ; BRANCH OCCURS {||$C$L83||}     ; [] |2052| 
;* --------------------------------------------------------------------------*
;* --------------------------------------------------------------------------*
||$C$L84||:    
        ADD       SP, SP, #28           ; [DPU_V7M3_PIPE] 
	.dwcfi	cfa_offset, 4
$C$DW$170	.dwtag  DW_TAG_TI_branch
	.dwattr $C$DW$170, DW_AT_low_pc(0x00)
	.dwattr $C$DW$170, DW_AT_TI_return

        POP       {PC}                  ; [DPU_V7M3_PIPE] 
	.dwcfi	cfa_offset, 0
        ; BRANCH OCCURS                  ; [] 
	.dwattr $C$DW$160, DW_AT_TI_end_file("../OS/tasks.c")
	.dwattr $C$DW$160, DW_AT_TI_end_line(0x80a)
	.dwattr $C$DW$160, DW_AT_TI_end_column(0x01)
	.dwendentry
	.dwendtag $C$DW$160

;******************************************************************************
;* CONSTANT TABLE                                                             *
;******************************************************************************
	.sect	".text"
	.align	4
||$C$CON13||:	.bits	pxCurrentTCB,32
	.sect	".text"
	.clink
	.thumbfunc vTaskEndScheduler
	.thumb
	.global	vTaskEndScheduler

$C$DW$171	.dwtag  DW_TAG_subprogram
	.dwattr $C$DW$171, DW_AT_name("vTaskEndScheduler")
	.dwattr $C$DW$171, DW_AT_low_pc(vTaskEndScheduler)
	.dwattr $C$DW$171, DW_AT_high_pc(0x00)
	.dwattr $C$DW$171, DW_AT_TI_symbol_name("vTaskEndScheduler")
	.dwattr $C$DW$171, DW_AT_external
	.dwattr $C$DW$171, DW_AT_TI_begin_file("../OS/tasks.c")
	.dwattr $C$DW$171, DW_AT_TI_begin_line(0x80d)
	.dwattr $C$DW$171, DW_AT_TI_begin_column(0x06)
	.dwattr $C$DW$171, DW_AT_decl_file("../OS/tasks.c")
	.dwattr $C$DW$171, DW_AT_decl_line(0x80d)
	.dwattr $C$DW$171, DW_AT_decl_column(0x06)
	.dwattr $C$DW$171, DW_AT_TI_max_frame_size(0x08)
	.dwpsn	file "../OS/tasks.c",line 2062,column 1,is_stmt,address vTaskEndScheduler,isa 1

	.dwfde $C$DW$CIE, vTaskEndScheduler
;----------------------------------------------------------------------
; 2061 | void vTaskEndScheduler( void )                                         
;----------------------------------------------------------------------

;*****************************************************************************
;* FUNCTION NAME: vTaskEndScheduler                                          *
;*                                                                           *
;*   Regs Modified     : A1,A2,A3,A4,V9,SP,LR,SR,D0,D0_hi,D1,D1_hi,D2,D2_hi, *
;*                           D3,D3_hi,D4,D4_hi,D5,D5_hi,D6,D6_hi,D7,D7_hi,   *
;*                           FPEXC,FPSCR                                     *
;*   Regs Used         : A1,A2,A3,A4,V9,SP,LR,SR,D0,D0_hi,D1,D1_hi,D2,D2_hi, *
;*                           D3,D3_hi,D4,D4_hi,D5,D5_hi,D6,D6_hi,D7,D7_hi,   *
;*                           FPEXC,FPSCR                                     *
;*   Local Frame Size  : 0 Args + 0 Auto + 4 Save = 4 byte                   *
;*****************************************************************************
vTaskEndScheduler:
;* --------------------------------------------------------------------------*
	.dwcfi	cfa_offset, 0
        PUSH      {A4, LR}              ; [DPU_V7M3_PIPE] 
	.dwcfi	cfa_offset, 8
	.dwcfi	save_reg_to_mem, 14, -4
	.dwcfi	save_reg_to_mem, 3, -8
	.dwpsn	file "../OS/tasks.c",line 2066,column 2,is_stmt,isa 1
;----------------------------------------------------------------------
; 2066 | portDISABLE_INTERRUPTS();                                              
;----------------------------------------------------------------------
        MOVS      A1, #160              ; [DPU_V7M3_PIPE] |2066| 
        MSR       BASEPRI, A1           ; [DPU_V7M3_PIPE] |2066| 
	dsb
	isb
	.dwpsn	file "../OS/tasks.c",line 2067,column 2,is_stmt,isa 1
;----------------------------------------------------------------------
; 2067 | xSchedulerRunning = pdFALSE;                                           
;----------------------------------------------------------------------
        LDR       A2, $C$CON14          ; [DPU_V7M3_PIPE] |2067| 
        MOVS      A1, #0                ; [DPU_V7M3_PIPE] |2067| 
        STR       A1, [A2, #0]          ; [DPU_V7M3_PIPE] |2067| 
	.dwpsn	file "../OS/tasks.c",line 2068,column 2,is_stmt,isa 1
;----------------------------------------------------------------------
; 2068 | vPortEndScheduler();                                                   
;----------------------------------------------------------------------
$C$DW$172	.dwtag  DW_TAG_TI_branch
	.dwattr $C$DW$172, DW_AT_low_pc(0x00)
	.dwattr $C$DW$172, DW_AT_name("vPortEndScheduler")
	.dwattr $C$DW$172, DW_AT_TI_call

        BL        vPortEndScheduler     ; [DPU_V7M3_PIPE] |2068| 
        ; CALL OCCURS {vPortEndScheduler }  ; [] |2068| 
	.dwpsn	file "../OS/tasks.c",line 2069,column 1,is_stmt,isa 1
$C$DW$173	.dwtag  DW_TAG_TI_branch
	.dwattr $C$DW$173, DW_AT_low_pc(0x00)
	.dwattr $C$DW$173, DW_AT_TI_return

        POP       {A4, PC}              ; [DPU_V7M3_PIPE] 
	.dwcfi	cfa_offset, 0
	.dwcfi	restore_reg, 3
        ; BRANCH OCCURS                  ; [] 
	.dwattr $C$DW$171, DW_AT_TI_end_file("../OS/tasks.c")
	.dwattr $C$DW$171, DW_AT_TI_end_line(0x815)
	.dwattr $C$DW$171, DW_AT_TI_end_column(0x01)
	.dwendentry
	.dwendtag $C$DW$171

	.sect	".text"
	.clink
	.thumbfunc vTaskSuspendAll
	.thumb
	.global	vTaskSuspendAll

$C$DW$174	.dwtag  DW_TAG_subprogram
	.dwattr $C$DW$174, DW_AT_name("vTaskSuspendAll")
	.dwattr $C$DW$174, DW_AT_low_pc(vTaskSuspendAll)
	.dwattr $C$DW$174, DW_AT_high_pc(0x00)
	.dwattr $C$DW$174, DW_AT_TI_symbol_name("vTaskSuspendAll")
	.dwattr $C$DW$174, DW_AT_external
	.dwattr $C$DW$174, DW_AT_TI_begin_file("../OS/tasks.c")
	.dwattr $C$DW$174, DW_AT_TI_begin_line(0x818)
	.dwattr $C$DW$174, DW_AT_TI_begin_column(0x06)
	.dwattr $C$DW$174, DW_AT_decl_file("../OS/tasks.c")
	.dwattr $C$DW$174, DW_AT_decl_line(0x818)
	.dwattr $C$DW$174, DW_AT_decl_column(0x06)
	.dwattr $C$DW$174, DW_AT_TI_max_frame_size(0x00)
	.dwpsn	file "../OS/tasks.c",line 2073,column 1,is_stmt,address vTaskSuspendAll,isa 1

	.dwfde $C$DW$CIE, vTaskSuspendAll
;----------------------------------------------------------------------
; 2072 | void vTaskSuspendAll( void )                                           
;----------------------------------------------------------------------

;*****************************************************************************
;* FUNCTION NAME: vTaskSuspendAll                                            *
;*                                                                           *
;*   Regs Modified     : A1,A2,SR                                            *
;*   Regs Used         : A1,A2,LR,SR                                         *
;*   Local Frame Size  : 0 Args + 0 Auto + 0 Save = 0 byte                   *
;*****************************************************************************
vTaskSuspendAll:
;* --------------------------------------------------------------------------*
	.dwcfi	cfa_offset, 0
	.dwpsn	file "../OS/tasks.c",line 2078,column 2,is_stmt,isa 1
;----------------------------------------------------------------------
; 2078 | ++uxSchedulerSuspended;                                                
;----------------------------------------------------------------------
        LDR       A2, $C$CON24          ; [DPU_V7M3_PIPE] |2078| 
        LDR       A1, [A2, #0]          ; [DPU_V7M3_PIPE] |2078| 
        ADDS      A1, A1, #1            ; [DPU_V7M3_PIPE] |2078| 
        STR       A1, [A2, #0]          ; [DPU_V7M3_PIPE] |2078| 
	.dwpsn	file "../OS/tasks.c",line 2079,column 1,is_stmt,isa 1
$C$DW$175	.dwtag  DW_TAG_TI_branch
	.dwattr $C$DW$175, DW_AT_low_pc(0x00)
	.dwattr $C$DW$175, DW_AT_TI_return

        BX        LR                    ; [DPU_V7M3_PIPE] 
        ; BRANCH OCCURS                  ; [] 
	.dwattr $C$DW$174, DW_AT_TI_end_file("../OS/tasks.c")
	.dwattr $C$DW$174, DW_AT_TI_end_line(0x81f)
	.dwattr $C$DW$174, DW_AT_TI_end_column(0x01)
	.dwendentry
	.dwendtag $C$DW$174

;******************************************************************************
;* CONSTANT TABLE                                                             *
;******************************************************************************
	.sect	".text"
	.align	4
||$C$CON14||:	.bits	xSchedulerRunning,32
	.align	4
||$C$CON15||:	.bits	-536810236,32
	.sect	".text"
	.clink
	.thumbfunc xTaskResumeAll
	.thumb
	.global	xTaskResumeAll

$C$DW$176	.dwtag  DW_TAG_subprogram
	.dwattr $C$DW$176, DW_AT_name("xTaskResumeAll")
	.dwattr $C$DW$176, DW_AT_low_pc(xTaskResumeAll)
	.dwattr $C$DW$176, DW_AT_high_pc(0x00)
	.dwattr $C$DW$176, DW_AT_TI_symbol_name("xTaskResumeAll")
	.dwattr $C$DW$176, DW_AT_external
	.dwattr $C$DW$176, DW_AT_type(*$C$DW$T$93)
	.dwattr $C$DW$176, DW_AT_TI_begin_file("../OS/tasks.c")
	.dwattr $C$DW$176, DW_AT_TI_begin_line(0x861)
	.dwattr $C$DW$176, DW_AT_TI_begin_column(0x0c)
	.dwattr $C$DW$176, DW_AT_decl_file("../OS/tasks.c")
	.dwattr $C$DW$176, DW_AT_decl_line(0x861)
	.dwattr $C$DW$176, DW_AT_decl_column(0x0c)
	.dwattr $C$DW$176, DW_AT_TI_max_frame_size(0x18)
	.dwpsn	file "../OS/tasks.c",line 2146,column 1,is_stmt,address xTaskResumeAll,isa 1

	.dwfde $C$DW$CIE, xTaskResumeAll
;----------------------------------------------------------------------
; 2145 | BaseType_t xTaskResumeAll( void )                                      
;----------------------------------------------------------------------

;*****************************************************************************
;* FUNCTION NAME: xTaskResumeAll                                             *
;*                                                                           *
;*   Regs Modified     : A1,A2,A3,A4,V1,V9,SP,LR,SR,D0,D0_hi,D1,D1_hi,D2,    *
;*                           D2_hi,D3,D3_hi,D4,D4_hi,D5,D5_hi,D6,D6_hi,D7,   *
;*                           D7_hi,FPEXC,FPSCR                               *
;*   Regs Used         : A1,A2,A3,A4,V1,V9,SP,LR,SR,D0,D0_hi,D1,D1_hi,D2,    *
;*                           D2_hi,D3,D3_hi,D4,D4_hi,D5,D5_hi,D6,D6_hi,D7,   *
;*                           D7_hi,FPEXC,FPSCR                               *
;*   Local Frame Size  : 0 Args + 12 Auto + 8 Save = 20 byte                 *
;*****************************************************************************
xTaskResumeAll:
;* --------------------------------------------------------------------------*
	.dwcfi	cfa_offset, 0
        PUSH      {A1, A2, A3, A4, V1, LR} ; [DPU_V7M3_PIPE] 
	.dwcfi	cfa_offset, 24
	.dwcfi	save_reg_to_mem, 14, -4
	.dwcfi	save_reg_to_mem, 4, -8
	.dwcfi	save_reg_to_mem, 3, -12
	.dwcfi	save_reg_to_mem, 2, -16
	.dwcfi	save_reg_to_mem, 1, -20
	.dwcfi	save_reg_to_mem, 0, -24
$C$DW$177	.dwtag  DW_TAG_variable
	.dwattr $C$DW$177, DW_AT_name("pxTCB")
	.dwattr $C$DW$177, DW_AT_TI_symbol_name("pxTCB")
	.dwattr $C$DW$177, DW_AT_type(*$C$DW$T$134)
	.dwattr $C$DW$177, DW_AT_location[DW_OP_breg13 0]

$C$DW$178	.dwtag  DW_TAG_variable
	.dwattr $C$DW$178, DW_AT_name("xAlreadyYielded")
	.dwattr $C$DW$178, DW_AT_TI_symbol_name("xAlreadyYielded")
	.dwattr $C$DW$178, DW_AT_type(*$C$DW$T$93)
	.dwattr $C$DW$178, DW_AT_location[DW_OP_breg13 4]

	.dwpsn	file "../OS/tasks.c",line 2147,column 14,is_stmt,isa 1
;----------------------------------------------------------------------
; 2147 | TCB_t *pxTCB = NULL;                                                   
;----------------------------------------------------------------------
        MOVS      A1, #0                ; [DPU_V7M3_PIPE] |2147| 
        STR       A1, [SP, #0]          ; [DPU_V7M3_PIPE] |2147| 
	.dwpsn	file "../OS/tasks.c",line 2148,column 28,is_stmt,isa 1
;----------------------------------------------------------------------
; 2148 | BaseType_t xAlreadyYielded = pdFALSE;                                  
;----------------------------------------------------------------------
        MOVS      A1, #0                ; [DPU_V7M3_PIPE] |2148| 
        STR       A1, [SP, #4]          ; [DPU_V7M3_PIPE] |2148| 
	.dwpsn	file "../OS/tasks.c",line 2152,column 2,is_stmt,isa 1
;----------------------------------------------------------------------
; 2152 | configASSERT( uxSchedulerSuspended );                                  
;----------------------------------------------------------------------
        LDR       A1, $C$CON24          ; [DPU_V7M3_PIPE] |2152| 
        LDR       A1, [A1, #0]          ; [DPU_V7M3_PIPE] |2152| 
        CBNZ      A1, ||$C$L86||        ; [] 
        ; BRANCHCC OCCURS {||$C$L86||}   ; [] |2152| 
;* --------------------------------------------------------------------------*
        MOVS      A1, #160              ; [DPU_V7M3_PIPE] |2152| 
        MSR       BASEPRI, A1           ; [DPU_V7M3_PIPE] |2152| 
	dsb
	isb
;* --------------------------------------------------------------------------*
;*   BEGIN LOOP ||$C$L85||
;*
;*   Loop source line                : 2152
;*   Loop closing brace source line  : 2152
;*   Known Minimum Trip Count        : 1
;*   Known Maximum Trip Count        : 4294967295
;*   Known Max Trip Count Factor     : 1
;* --------------------------------------------------------------------------*
||$C$L85||:    
        B         ||$C$L85||            ; [DPU_V7M3_PIPE] |2152| 
        ; BRANCH OCCURS {||$C$L85||}     ; [] |2152| 
;* --------------------------------------------------------------------------*
||$C$L86||:    
	.dwpsn	file "../OS/tasks.c",line 2159,column 2,is_stmt,isa 1
;----------------------------------------------------------------------
; 2159 | taskENTER_CRITICAL();                                                  
;----------------------------------------------------------------------
$C$DW$179	.dwtag  DW_TAG_TI_branch
	.dwattr $C$DW$179, DW_AT_low_pc(0x00)
	.dwattr $C$DW$179, DW_AT_name("vPortEnterCritical")
	.dwattr $C$DW$179, DW_AT_TI_call

        BL        vPortEnterCritical    ; [DPU_V7M3_PIPE] |2159| 
        ; CALL OCCURS {vPortEnterCritical }  ; [] |2159| 

$C$DW$180	.dwtag  DW_TAG_lexical_block
	.dwattr $C$DW$180, DW_AT_low_pc(0x00)
	.dwattr $C$DW$180, DW_AT_high_pc(0x00)
	.dwpsn	file "../OS/tasks.c",line 2161,column 3,is_stmt,isa 1
;----------------------------------------------------------------------
; 2161 | --uxSchedulerSuspended;                                                
;----------------------------------------------------------------------
        LDR       A2, $C$CON24          ; [DPU_V7M3_PIPE] |2161| 
        LDR       A1, [A2, #0]          ; [DPU_V7M3_PIPE] |2161| 
        SUBS      A1, A1, #1            ; [DPU_V7M3_PIPE] |2161| 
        STR       A1, [A2, #0]          ; [DPU_V7M3_PIPE] |2161| 
	.dwpsn	file "../OS/tasks.c",line 2163,column 3,is_stmt,isa 1
;----------------------------------------------------------------------
; 2163 | if( uxSchedulerSuspended == ( UBaseType_t ) pdFALSE )                  
;----------------------------------------------------------------------
        LDR       A1, $C$CON24          ; [DPU_V7M3_PIPE] |2163| 
        LDR       A1, [A1, #0]          ; [DPU_V7M3_PIPE] |2163| 
        CMP       A1, #0                ; [DPU_V7M3_PIPE] |2163| 
        BNE       ||$C$L96||            ; [DPU_V7M3_PIPE] |2163| 
        ; BRANCHCC OCCURS {||$C$L96||}   ; [] |2163| 
;* --------------------------------------------------------------------------*

$C$DW$181	.dwtag  DW_TAG_lexical_block
	.dwattr $C$DW$181, DW_AT_low_pc(0x00)
	.dwattr $C$DW$181, DW_AT_high_pc(0x00)
	.dwpsn	file "../OS/tasks.c",line 2165,column 4,is_stmt,isa 1
;----------------------------------------------------------------------
; 2165 | if( uxCurrentNumberOfTasks > ( UBaseType_t ) 0U )                      
;----------------------------------------------------------------------
        LDR       A1, $C$CON16          ; [DPU_V7M3_PIPE] |2165| 
        LDR       A1, [A1, #0]          ; [DPU_V7M3_PIPE] |2165| 
        CMP       A1, #0                ; [DPU_V7M3_PIPE] |2165| 
        BEQ       ||$C$L96||            ; [DPU_V7M3_PIPE] |2165| 
        ; BRANCHCC OCCURS {||$C$L96||}   ; [] |2165| 
;* --------------------------------------------------------------------------*

$C$DW$182	.dwtag  DW_TAG_lexical_block
	.dwattr $C$DW$182, DW_AT_low_pc(0x00)
	.dwattr $C$DW$182, DW_AT_high_pc(0x00)
	.dwpsn	file "../OS/tasks.c",line 2169,column 5,is_stmt,isa 1
;----------------------------------------------------------------------
; 2169 | while( listLIST_IS_EMPTY( &xPendingReadyList ) == pdFALSE )            
;----------------------------------------------------------------------
        B         ||$C$L88||            ; [DPU_V7M3_PIPE] |2169| 
        ; BRANCH OCCURS {||$C$L88||}     ; [] |2169| 
;* --------------------------------------------------------------------------*
||$C$L87||:    
	.dwpsn	file "../OS/tasks.c",line 2171,column 6,is_stmt,isa 1
;----------------------------------------------------------------------
; 2171 | pxTCB = listGET_OWNER_OF_HEAD_ENTRY( ( &xPendingReadyList ) ); /*lint !
;     | e9079 void * is used as this macro is used with timers and co-routines 
;     | too.  Alignment is known to be fine as the type of the pointer stored a
;     | nd retrieved is the same. */                                           
;----------------------------------------------------------------------
        LDR       A1, $C$CON25          ; [DPU_V7M3_PIPE] |2171| 
        LDR       A1, [A1, #0]          ; [DPU_V7M3_PIPE] |2171| 
        LDR       A1, [A1, #12]         ; [DPU_V7M3_PIPE] |2171| 
        STR       A1, [SP, #0]          ; [DPU_V7M3_PIPE] |2171| 
	.dwpsn	file "../OS/tasks.c",line 2172,column 6,is_stmt,isa 1
;----------------------------------------------------------------------
; 2172 | ( void ) uxListRemove( &( pxTCB->xEventListItem ) );                   
;----------------------------------------------------------------------
        LDR       A1, [SP, #0]          ; [DPU_V7M3_PIPE] |2172| 
        ADDS      A1, A1, #24           ; [DPU_V7M3_PIPE] |2172| 
$C$DW$183	.dwtag  DW_TAG_TI_branch
	.dwattr $C$DW$183, DW_AT_low_pc(0x00)
	.dwattr $C$DW$183, DW_AT_name("uxListRemove")
	.dwattr $C$DW$183, DW_AT_TI_call

        BL        uxListRemove          ; [DPU_V7M3_PIPE] |2172| 
        ; CALL OCCURS {uxListRemove }    ; [] |2172| 
	.dwpsn	file "../OS/tasks.c",line 2173,column 6,is_stmt,isa 1
;----------------------------------------------------------------------
; 2173 | ( void ) uxListRemove( &( pxTCB->xStateListItem ) );                   
;----------------------------------------------------------------------
        LDR       A1, [SP, #0]          ; [DPU_V7M3_PIPE] |2173| 
        ADDS      A1, A1, #4            ; [DPU_V7M3_PIPE] |2173| 
$C$DW$184	.dwtag  DW_TAG_TI_branch
	.dwattr $C$DW$184, DW_AT_low_pc(0x00)
	.dwattr $C$DW$184, DW_AT_name("uxListRemove")
	.dwattr $C$DW$184, DW_AT_TI_call

        BL        uxListRemove          ; [DPU_V7M3_PIPE] |2173| 
        ; CALL OCCURS {uxListRemove }    ; [] |2173| 
	.dwpsn	file "../OS/tasks.c",line 2174,column 6,is_stmt,isa 1
;----------------------------------------------------------------------
; 2174 | prvAddTaskToReadyList( pxTCB );                                        
;----------------------------------------------------------------------
        LDR       A1, [SP, #0]          ; [DPU_V7M3_PIPE] |2174| 
        LDR       A3, $C$CON18          ; [DPU_V7M3_PIPE] |2174| 
        LDR       V1, [A1, #44]         ; [DPU_V7M3_PIPE] |2174| 
        LDR       A2, [SP, #0]          ; [DPU_V7M3_PIPE] |2174| 
        LDR       A4, [A3, #0]          ; [DPU_V7M3_PIPE] |2174| 
        MOVS      A1, #1                ; [DPU_V7M3_PIPE] |2174| 
        LSLS      A1, A1, V1            ; [DPU_V7M3_PIPE] |2174| 
        ORRS      A1, A1, A4            ; [DPU_V7M3_PIPE] |2174| 
        STR       A1, [A3, #0]          ; [DPU_V7M3_PIPE] |2174| 
        LDR       A4, $C$CON19          ; [DPU_V7M3_PIPE] |2174| 
        LDR       A3, [A2, #44]         ; [DPU_V7M3_PIPE] |2174| 
        LDR       A2, [SP, #0]          ; [DPU_V7M3_PIPE] |2174| 
        LSLS      A1, A3, #2            ; [DPU_V7M3_PIPE] |2174| 
        ADD       A1, A1, A3, LSL #4    ; [DPU_V7M3_PIPE] |2174| 
        ADDS      A2, A2, #4            ; [DPU_V7M3_PIPE] |2174| 
        ADDS      A1, A1, A4            ; [DPU_V7M3_PIPE] |2174| 
$C$DW$185	.dwtag  DW_TAG_TI_branch
	.dwattr $C$DW$185, DW_AT_low_pc(0x00)
	.dwattr $C$DW$185, DW_AT_name("vListInsertEnd")
	.dwattr $C$DW$185, DW_AT_TI_call

        BL        vListInsertEnd        ; [DPU_V7M3_PIPE] |2174| 
        ; CALL OCCURS {vListInsertEnd }  ; [] |2174| 
	.dwpsn	file "../OS/tasks.c",line 2178,column 6,is_stmt,isa 1
;----------------------------------------------------------------------
; 2178 | if( pxTCB->uxPriority >= pxCurrentTCB->uxPriority )                    
;----------------------------------------------------------------------
        LDR       A1, $C$CON28          ; [DPU_V7M3_PIPE] |2178| 
        LDR       A2, [SP, #0]          ; [DPU_V7M3_PIPE] |2178| 
        LDR       A1, [A1, #0]          ; [DPU_V7M3_PIPE] |2178| 
        LDR       A2, [A2, #44]         ; [DPU_V7M3_PIPE] |2178| 
        LDR       A1, [A1, #44]         ; [DPU_V7M3_PIPE] |2178| 
        CMP       A1, A2                ; [DPU_V7M3_PIPE] |2178| 
        BHI       ||$C$L88||            ; [DPU_V7M3_PIPE] |2178| 
        ; BRANCHCC OCCURS {||$C$L88||}   ; [] |2178| 
;* --------------------------------------------------------------------------*
	.dwpsn	file "../OS/tasks.c",line 2180,column 7,is_stmt,isa 1
;----------------------------------------------------------------------
; 2180 | xYieldPending = pdTRUE;                                                
;----------------------------------------------------------------------
        LDR       A2, $C$CON26          ; [DPU_V7M3_PIPE] |2180| 
        MOVS      A1, #1                ; [DPU_V7M3_PIPE] |2180| 
        STR       A1, [A2, #0]          ; [DPU_V7M3_PIPE] |2180| 
	.dwpsn	file "../OS/tasks.c",line 2181,column 6,is_stmt,isa 1
;----------------------------------------------------------------------
; 2182 | else                                                                   
; 2184 |         mtCOVERAGE_TEST_MARKER();                                      
;----------------------------------------------------------------------
;* --------------------------------------------------------------------------*
;*   BEGIN LOOP ||$C$L88||
;* --------------------------------------------------------------------------*
||$C$L88||:    
	.dwpsn	file "../OS/tasks.c",line 2169,column 12,is_stmt,isa 1
        LDR       A1, $C$CON17          ; [DPU_V7M3_PIPE] |2169| 
        LDR       A1, [A1, #0]          ; [DPU_V7M3_PIPE] |2169| 
        CBNZ      A1, ||$C$L89||        ; [] 
        ; BRANCHCC OCCURS {||$C$L89||}   ; [] |2169| 
;* --------------------------------------------------------------------------*
        MOVS      A1, #1                ; [DPU_V7M3_PIPE] |2169| 
        B         ||$C$L90||            ; [DPU_V7M3_PIPE] |2169| 
        ; BRANCH OCCURS {||$C$L90||}     ; [] |2169| 
;******************************************************************************
;* CONSTANT TABLE                                                             *
;******************************************************************************
	.sect	".text"
	.align	4
||$C$CON16||:	.bits	uxCurrentNumberOfTasks,32
;* --------------------------------------------------------------------------*
||$C$L89||:    
        MOVS      A1, #0                ; [DPU_V7M3_PIPE] |2169| 
;* --------------------------------------------------------------------------*
||$C$L90||:    
        CMP       A1, #0                ; [DPU_V7M3_PIPE] |2169| 
        BEQ       ||$C$L87||            ; [DPU_V7M3_PIPE] |2169| 
        ; BRANCHCC OCCURS {||$C$L87||}   ; [] |2169| 
;* --------------------------------------------------------------------------*
	.dwpsn	file "../OS/tasks.c",line 2188,column 5,is_stmt,isa 1
;----------------------------------------------------------------------
; 2188 | if( pxTCB != NULL )                                                    
;----------------------------------------------------------------------
        LDR       A1, [SP, #0]          ; [DPU_V7M3_PIPE] |2188| 
        CBZ       A1, ||$C$L91||        ; [] 
        ; BRANCHCC OCCURS {||$C$L91||}   ; [] |2188| 
;* --------------------------------------------------------------------------*
	.dwpsn	file "../OS/tasks.c",line 2196,column 6,is_stmt,isa 1
;----------------------------------------------------------------------
; 2196 | prvResetNextTaskUnblockTime();                                         
;----------------------------------------------------------------------
$C$DW$186	.dwtag  DW_TAG_TI_branch
	.dwattr $C$DW$186, DW_AT_low_pc(0x00)
	.dwattr $C$DW$186, DW_AT_name("prvResetNextTaskUnblockTime")
	.dwattr $C$DW$186, DW_AT_TI_call

        BL        prvResetNextTaskUnblockTime ; [DPU_V7M3_PIPE] |2196| 
        ; CALL OCCURS {prvResetNextTaskUnblockTime }  ; [] |2196| 
;* --------------------------------------------------------------------------*
||$C$L91||:    

$C$DW$187	.dwtag  DW_TAG_lexical_block
	.dwattr $C$DW$187, DW_AT_low_pc(0x00)
	.dwattr $C$DW$187, DW_AT_high_pc(0x00)
$C$DW$188	.dwtag  DW_TAG_variable
	.dwattr $C$DW$188, DW_AT_name("uxPendedCounts")
	.dwattr $C$DW$188, DW_AT_TI_symbol_name("uxPendedCounts")
	.dwattr $C$DW$188, DW_AT_type(*$C$DW$T$26)
	.dwattr $C$DW$188, DW_AT_location[DW_OP_breg13 8]

	.dwpsn	file "../OS/tasks.c",line 2204,column 33,is_stmt,isa 1
;----------------------------------------------------------------------
; 2204 | UBaseType_t uxPendedCounts = uxPendedTicks; /* Non-volatile copy. */   
;----------------------------------------------------------------------
        LDR       A1, $C$CON27          ; [DPU_V7M3_PIPE] |2204| 
        LDR       A1, [A1, #0]          ; [DPU_V7M3_PIPE] |2204| 
        STR       A1, [SP, #8]          ; [DPU_V7M3_PIPE] |2204| 
	.dwpsn	file "../OS/tasks.c",line 2206,column 6,is_stmt,isa 1
;----------------------------------------------------------------------
; 2206 | if( uxPendedCounts > ( UBaseType_t ) 0U )                              
; 2208 |         do                                                             
;----------------------------------------------------------------------
        LDR       A1, [SP, #8]          ; [DPU_V7M3_PIPE] |2206| 
        CBZ       A1, ||$C$L94||        ; [] 
        ; BRANCHCC OCCURS {||$C$L94||}   ; [] |2206| 
;* --------------------------------------------------------------------------*
;*   BEGIN LOOP ||$C$L92||
;*
;*   Loop source line                : 2208
;*   Loop closing brace source line  : 2219
;*   Known Minimum Trip Count        : 1
;*   Known Maximum Trip Count        : 4294967295
;*   Known Max Trip Count Factor     : 1
;* --------------------------------------------------------------------------*
||$C$L92||:    
	.dwpsn	file "../OS/tasks.c",line 2210,column 8,is_stmt,isa 1
;----------------------------------------------------------------------
; 2210 | if( xTaskIncrementTick() != pdFALSE )                                  
;----------------------------------------------------------------------
$C$DW$189	.dwtag  DW_TAG_TI_branch
	.dwattr $C$DW$189, DW_AT_low_pc(0x00)
	.dwattr $C$DW$189, DW_AT_name("xTaskIncrementTick")
	.dwattr $C$DW$189, DW_AT_TI_call

        BL        xTaskIncrementTick    ; [DPU_V7M3_PIPE] |2210| 
        ; CALL OCCURS {xTaskIncrementTick }  ; [] |2210| 
        CBZ       A1, ||$C$L93||        ; [] 
        ; BRANCHCC OCCURS {||$C$L93||}   ; [] |2210| 
;* --------------------------------------------------------------------------*
	.dwpsn	file "../OS/tasks.c",line 2212,column 9,is_stmt,isa 1
;----------------------------------------------------------------------
; 2212 | xYieldPending = pdTRUE;                                                
;----------------------------------------------------------------------
        LDR       A2, $C$CON26          ; [DPU_V7M3_PIPE] |2212| 
        MOVS      A1, #1                ; [DPU_V7M3_PIPE] |2212| 
        STR       A1, [A2, #0]          ; [DPU_V7M3_PIPE] |2212| 
	.dwpsn	file "../OS/tasks.c",line 2213,column 8,is_stmt,isa 1
;----------------------------------------------------------------------
; 2214 | else                                                                   
; 2216 |         mtCOVERAGE_TEST_MARKER();                                      
;----------------------------------------------------------------------
;* --------------------------------------------------------------------------*
||$C$L93||:    
	.dwpsn	file "../OS/tasks.c",line 2218,column 8,is_stmt,isa 1
;----------------------------------------------------------------------
; 2218 | --uxPendedCounts;                                                      
;----------------------------------------------------------------------
        LDR       A1, [SP, #8]          ; [DPU_V7M3_PIPE] |2218| 
        SUBS      A1, A1, #1            ; [DPU_V7M3_PIPE] |2218| 
        STR       A1, [SP, #8]          ; [DPU_V7M3_PIPE] |2218| 
	.dwpsn	file "../OS/tasks.c",line 2219,column 16,is_stmt,isa 1
;----------------------------------------------------------------------
; 2219 | } while( uxPendedCounts > ( UBaseType_t ) 0U );                        
;----------------------------------------------------------------------
        LDR       A1, [SP, #8]          ; [DPU_V7M3_PIPE] |2219| 
        CMP       A1, #0                ; [DPU_V7M3_PIPE] |2219| 
        BNE       ||$C$L92||            ; [DPU_V7M3_PIPE] |2219| 
        ; BRANCHCC OCCURS {||$C$L92||}   ; [] |2219| 
;* --------------------------------------------------------------------------*
	.dwpsn	file "../OS/tasks.c",line 2221,column 7,is_stmt,isa 1
;----------------------------------------------------------------------
; 2221 | uxPendedTicks = 0;                                                     
;----------------------------------------------------------------------
        LDR       A2, $C$CON27          ; [DPU_V7M3_PIPE] |2221| 
        MOVS      A1, #0                ; [DPU_V7M3_PIPE] |2221| 
        STR       A1, [A2, #0]          ; [DPU_V7M3_PIPE] |2221| 
	.dwpsn	file "../OS/tasks.c",line 2222,column 6,is_stmt,isa 1
;----------------------------------------------------------------------
; 2223 | else                                                                   
; 2225 |         mtCOVERAGE_TEST_MARKER();                                      
;----------------------------------------------------------------------
;* --------------------------------------------------------------------------*
||$C$L94||:    
	.dwendtag $C$DW$187

	.dwpsn	file "../OS/tasks.c",line 2229,column 5,is_stmt,isa 1
;----------------------------------------------------------------------
; 2229 | if( xYieldPending != pdFALSE )                                         
; 2231 |         #if( configUSE_PREEMPTION != 0 )                               
;----------------------------------------------------------------------
        LDR       A1, $C$CON26          ; [DPU_V7M3_PIPE] |2229| 
        LDR       A1, [A1, #0]          ; [DPU_V7M3_PIPE] |2229| 
        CBZ       A1, ||$C$L95||        ; [] 
        ; BRANCHCC OCCURS {||$C$L95||}   ; [] |2229| 
;* --------------------------------------------------------------------------*
	.dwpsn	file "../OS/tasks.c",line 2233,column 7,is_stmt,isa 1
;----------------------------------------------------------------------
; 2233 | xAlreadyYielded = pdTRUE;                                              
; 2235 | #endif                                                                 
;----------------------------------------------------------------------
        MOVS      A1, #1                ; [DPU_V7M3_PIPE] |2233| 
        STR       A1, [SP, #4]          ; [DPU_V7M3_PIPE] |2233| 
	.dwpsn	file "../OS/tasks.c",line 2236,column 6,is_stmt,isa 1
;----------------------------------------------------------------------
; 2236 | taskYIELD_IF_USING_PREEMPTION();                                       
;----------------------------------------------------------------------
        LDR       A2, $C$CON29          ; [DPU_V7M3_PIPE] |2236| 
        MOV       A1, #268435456        ; [DPU_V7M3_PIPE] |2236| 
        STR       A1, [A2, #0]          ; [DPU_V7M3_PIPE] |2236| 
	dsb
	isb
	.dwpsn	file "../OS/tasks.c",line 2237,column 5,is_stmt,isa 1
;----------------------------------------------------------------------
; 2238 | else                                                                   
; 2240 |         mtCOVERAGE_TEST_MARKER();                                      
;----------------------------------------------------------------------
;* --------------------------------------------------------------------------*
||$C$L95||:    
	.dwendtag $C$DW$182

	.dwendtag $C$DW$181

	.dwpsn	file "../OS/tasks.c",line 2243,column 3,is_stmt,isa 1
;----------------------------------------------------------------------
; 2244 | else                                                                   
; 2246 |         mtCOVERAGE_TEST_MARKER();                                      
;----------------------------------------------------------------------
;* --------------------------------------------------------------------------*
||$C$L96||:    
	.dwendtag $C$DW$180

	.dwpsn	file "../OS/tasks.c",line 2249,column 2,is_stmt,isa 1
;----------------------------------------------------------------------
; 2249 | taskEXIT_CRITICAL();                                                   
;----------------------------------------------------------------------
$C$DW$190	.dwtag  DW_TAG_TI_branch
	.dwattr $C$DW$190, DW_AT_low_pc(0x00)
	.dwattr $C$DW$190, DW_AT_name("vPortExitCritical")
	.dwattr $C$DW$190, DW_AT_TI_call

        BL        vPortExitCritical     ; [DPU_V7M3_PIPE] |2249| 
        ; CALL OCCURS {vPortExitCritical }  ; [] |2249| 
	.dwpsn	file "../OS/tasks.c",line 2251,column 2,is_stmt,isa 1
;----------------------------------------------------------------------
; 2251 | return xAlreadyYielded;                                                
;----------------------------------------------------------------------
        LDR       A1, [SP, #4]          ; [DPU_V7M3_PIPE] |2251| 
	.dwpsn	file "../OS/tasks.c",line 2252,column 1,is_stmt,isa 1
        STR       A1, [SP, #0]          ; [DPU_V7M3_PIPE] 
$C$DW$191	.dwtag  DW_TAG_TI_branch
	.dwattr $C$DW$191, DW_AT_low_pc(0x00)
	.dwattr $C$DW$191, DW_AT_TI_return

        POP       {A1, A2, A3, A4, V1, PC} ; [DPU_V7M3_PIPE] 
	.dwcfi	cfa_offset, 0
	.dwcfi	restore_reg, 4
	.dwcfi	restore_reg, 3
	.dwcfi	restore_reg, 2
	.dwcfi	restore_reg, 1
	.dwcfi	restore_reg, 0
        ; BRANCH OCCURS                  ; [] 
	.dwattr $C$DW$176, DW_AT_TI_end_file("../OS/tasks.c")
	.dwattr $C$DW$176, DW_AT_TI_end_line(0x8cc)
	.dwattr $C$DW$176, DW_AT_TI_end_column(0x01)
	.dwendentry
	.dwendtag $C$DW$176

;******************************************************************************
;* CONSTANT TABLE                                                             *
;******************************************************************************
	.sect	".text"
	.align	4
||$C$CON17||:	.bits	xPendingReadyList,32
	.sect	".text"
	.clink
	.thumbfunc xTaskGetTickCount
	.thumb
	.global	xTaskGetTickCount

$C$DW$192	.dwtag  DW_TAG_subprogram
	.dwattr $C$DW$192, DW_AT_name("xTaskGetTickCount")
	.dwattr $C$DW$192, DW_AT_low_pc(xTaskGetTickCount)
	.dwattr $C$DW$192, DW_AT_high_pc(0x00)
	.dwattr $C$DW$192, DW_AT_TI_symbol_name("xTaskGetTickCount")
	.dwattr $C$DW$192, DW_AT_external
	.dwattr $C$DW$192, DW_AT_type(*$C$DW$T$50)
	.dwattr $C$DW$192, DW_AT_TI_begin_file("../OS/tasks.c")
	.dwattr $C$DW$192, DW_AT_TI_begin_line(0x8cf)
	.dwattr $C$DW$192, DW_AT_TI_begin_column(0x0c)
	.dwattr $C$DW$192, DW_AT_decl_file("../OS/tasks.c")
	.dwattr $C$DW$192, DW_AT_decl_line(0x8cf)
	.dwattr $C$DW$192, DW_AT_decl_column(0x0c)
	.dwattr $C$DW$192, DW_AT_TI_max_frame_size(0x08)
	.dwpsn	file "../OS/tasks.c",line 2256,column 1,is_stmt,address xTaskGetTickCount,isa 1

	.dwfde $C$DW$CIE, xTaskGetTickCount
;----------------------------------------------------------------------
; 2255 | TickType_t xTaskGetTickCount( void )                                   
; 2257 | TickType_t xTicks;                                                     
; 2260 | portTICK_TYPE_ENTER_CRITICAL();                                        
;----------------------------------------------------------------------

;*****************************************************************************
;* FUNCTION NAME: xTaskGetTickCount                                          *
;*                                                                           *
;*   Regs Modified     : A1,SP                                               *
;*   Regs Used         : A1,SP,LR                                            *
;*   Local Frame Size  : 0 Args + 4 Auto + 0 Save = 4 byte                   *
;*****************************************************************************
xTaskGetTickCount:
;* --------------------------------------------------------------------------*
	.dwcfi	cfa_offset, 0
        SUB       SP, SP, #8            ; [DPU_V7M3_PIPE] 
	.dwcfi	cfa_offset, 8
$C$DW$193	.dwtag  DW_TAG_variable
	.dwattr $C$DW$193, DW_AT_name("xTicks")
	.dwattr $C$DW$193, DW_AT_TI_symbol_name("xTicks")
	.dwattr $C$DW$193, DW_AT_type(*$C$DW$T$50)
	.dwattr $C$DW$193, DW_AT_location[DW_OP_breg13 0]

	.dwpsn	file "../OS/tasks.c",line 2262,column 3,is_stmt,isa 1
;----------------------------------------------------------------------
; 2262 | xTicks = xTickCount;                                                   
; 2264 | portTICK_TYPE_EXIT_CRITICAL();                                         
;----------------------------------------------------------------------
        LDR       A1, $C$CON23          ; [DPU_V7M3_PIPE] |2262| 
        LDR       A1, [A1, #0]          ; [DPU_V7M3_PIPE] |2262| 
        STR       A1, [SP, #0]          ; [DPU_V7M3_PIPE] |2262| 
	.dwpsn	file "../OS/tasks.c",line 2266,column 2,is_stmt,isa 1
;----------------------------------------------------------------------
; 2266 | return xTicks;                                                         
;----------------------------------------------------------------------
        LDR       A1, [SP, #0]          ; [DPU_V7M3_PIPE] |2266| 
	.dwpsn	file "../OS/tasks.c",line 2267,column 1,is_stmt,isa 1
        ADD       SP, SP, #8            ; [DPU_V7M3_PIPE] 
	.dwcfi	cfa_offset, 0
$C$DW$194	.dwtag  DW_TAG_TI_branch
	.dwattr $C$DW$194, DW_AT_low_pc(0x00)
	.dwattr $C$DW$194, DW_AT_TI_return

        BX        LR                    ; [DPU_V7M3_PIPE] 
        ; BRANCH OCCURS                  ; [] 
	.dwattr $C$DW$192, DW_AT_TI_end_file("../OS/tasks.c")
	.dwattr $C$DW$192, DW_AT_TI_end_line(0x8db)
	.dwattr $C$DW$192, DW_AT_TI_end_column(0x01)
	.dwendentry
	.dwendtag $C$DW$192

	.sect	".text"
	.clink
	.thumbfunc xTaskGetTickCountFromISR
	.thumb
	.global	xTaskGetTickCountFromISR

$C$DW$195	.dwtag  DW_TAG_subprogram
	.dwattr $C$DW$195, DW_AT_name("xTaskGetTickCountFromISR")
	.dwattr $C$DW$195, DW_AT_low_pc(xTaskGetTickCountFromISR)
	.dwattr $C$DW$195, DW_AT_high_pc(0x00)
	.dwattr $C$DW$195, DW_AT_TI_symbol_name("xTaskGetTickCountFromISR")
	.dwattr $C$DW$195, DW_AT_external
	.dwattr $C$DW$195, DW_AT_type(*$C$DW$T$50)
	.dwattr $C$DW$195, DW_AT_TI_begin_file("../OS/tasks.c")
	.dwattr $C$DW$195, DW_AT_TI_begin_line(0x8de)
	.dwattr $C$DW$195, DW_AT_TI_begin_column(0x0c)
	.dwattr $C$DW$195, DW_AT_decl_file("../OS/tasks.c")
	.dwattr $C$DW$195, DW_AT_decl_line(0x8de)
	.dwattr $C$DW$195, DW_AT_decl_column(0x0c)
	.dwattr $C$DW$195, DW_AT_TI_max_frame_size(0x10)
	.dwpsn	file "../OS/tasks.c",line 2271,column 1,is_stmt,address xTaskGetTickCountFromISR,isa 1

	.dwfde $C$DW$CIE, xTaskGetTickCountFromISR
;----------------------------------------------------------------------
; 2270 | TickType_t xTaskGetTickCountFromISR( void )                            
; 2272 | TickType_t xReturn;                                                    
; 2273 | UBaseType_t uxSavedInterruptStatus;                                    
;----------------------------------------------------------------------

;*****************************************************************************
;* FUNCTION NAME: xTaskGetTickCountFromISR                                   *
;*                                                                           *
;*   Regs Modified     : A1,A2,A3,A4,V9,SP,LR,SR,D0,D0_hi,D1,D1_hi,D2,D2_hi, *
;*                           D3,D3_hi,D4,D4_hi,D5,D5_hi,D6,D6_hi,D7,D7_hi,   *
;*                           FPEXC,FPSCR                                     *
;*   Regs Used         : A1,A2,A3,A4,V9,SP,LR,SR,D0,D0_hi,D1,D1_hi,D2,D2_hi, *
;*                           D3,D3_hi,D4,D4_hi,D5,D5_hi,D6,D6_hi,D7,D7_hi,   *
;*                           FPEXC,FPSCR                                     *
;*   Local Frame Size  : 0 Args + 8 Auto + 4 Save = 12 byte                  *
;*****************************************************************************
xTaskGetTickCountFromISR:
;* --------------------------------------------------------------------------*
	.dwcfi	cfa_offset, 0
        PUSH      {A2, A3, A4, LR}      ; [DPU_V7M3_PIPE] 
	.dwcfi	cfa_offset, 16
	.dwcfi	save_reg_to_mem, 14, -4
	.dwcfi	save_reg_to_mem, 3, -8
	.dwcfi	save_reg_to_mem, 2, -12
	.dwcfi	save_reg_to_mem, 1, -16
$C$DW$196	.dwtag  DW_TAG_variable
	.dwattr $C$DW$196, DW_AT_name("xReturn")
	.dwattr $C$DW$196, DW_AT_TI_symbol_name("xReturn")
	.dwattr $C$DW$196, DW_AT_type(*$C$DW$T$50)
	.dwattr $C$DW$196, DW_AT_location[DW_OP_breg13 0]

$C$DW$197	.dwtag  DW_TAG_variable
	.dwattr $C$DW$197, DW_AT_name("uxSavedInterruptStatus")
	.dwattr $C$DW$197, DW_AT_TI_symbol_name("uxSavedInterruptStatus")
	.dwattr $C$DW$197, DW_AT_type(*$C$DW$T$26)
	.dwattr $C$DW$197, DW_AT_location[DW_OP_breg13 4]

	.dwpsn	file "../OS/tasks.c",line 2289,column 2,is_stmt,isa 1
;----------------------------------------------------------------------
; 2289 | portASSERT_IF_INTERRUPT_PRIORITY_INVALID();                            
;----------------------------------------------------------------------
$C$DW$198	.dwtag  DW_TAG_TI_branch
	.dwattr $C$DW$198, DW_AT_low_pc(0x00)
	.dwattr $C$DW$198, DW_AT_name("vPortValidateInterruptPriority")
	.dwattr $C$DW$198, DW_AT_TI_call

        BL        vPortValidateInterruptPriority ; [DPU_V7M3_PIPE] |2289| 
        ; CALL OCCURS {vPortValidateInterruptPriority }  ; [] |2289| 
	.dwpsn	file "../OS/tasks.c",line 2291,column 2,is_stmt,isa 1
;----------------------------------------------------------------------
; 2291 | uxSavedInterruptStatus = portTICK_TYPE_SET_INTERRUPT_MASK_FROM_ISR();  
;----------------------------------------------------------------------
        MOVS      A1, #0                ; [DPU_V7M3_PIPE] |2291| 
        STR       A1, [SP, #4]          ; [DPU_V7M3_PIPE] |2291| 
	.dwpsn	file "../OS/tasks.c",line 2293,column 3,is_stmt,isa 1
;----------------------------------------------------------------------
; 2293 | xReturn = xTickCount;                                                  
;----------------------------------------------------------------------
        LDR       A1, $C$CON23          ; [DPU_V7M3_PIPE] |2293| 
        LDR       A1, [A1, #0]          ; [DPU_V7M3_PIPE] |2293| 
        STR       A1, [SP, #0]          ; [DPU_V7M3_PIPE] |2293| 
	.dwpsn	file "../OS/tasks.c",line 2295,column 2,is_stmt,isa 1
;----------------------------------------------------------------------
; 2295 | portTICK_TYPE_CLEAR_INTERRUPT_MASK_FROM_ISR( uxSavedInterruptStatus ); 
;----------------------------------------------------------------------
	.dwpsn	file "../OS/tasks.c",line 2297,column 2,is_stmt,isa 1
;----------------------------------------------------------------------
; 2297 | return xReturn;                                                        
;----------------------------------------------------------------------
        LDR       A1, [SP, #0]          ; [DPU_V7M3_PIPE] |2297| 
	.dwpsn	file "../OS/tasks.c",line 2298,column 1,is_stmt,isa 1
$C$DW$199	.dwtag  DW_TAG_TI_branch
	.dwattr $C$DW$199, DW_AT_low_pc(0x00)
	.dwattr $C$DW$199, DW_AT_TI_return

        POP       {A2, A3, A4, PC}      ; [DPU_V7M3_PIPE] 
	.dwcfi	cfa_offset, 0
	.dwcfi	restore_reg, 3
	.dwcfi	restore_reg, 2
	.dwcfi	restore_reg, 1
