;******************************************************************************
;* TI ARM C/C++ Codegen                                      Unix v18.1.1.LTS *
;* Date/Time created: Fri Jul  3 20:08:22 2020                                *
;******************************************************************************
	.compiler_opts --abi=eabi --arm_vmrs_si_workaround=off --code_state=16 --diag_wrap=off --embedded_constants=on --endian=little --float_support=FPv4SPD16 --hll_source=on --object_format=elf --silicon_version=7M4 --symdebug:dwarf --symdebug:dwarf_version=3 --unaligned_access=on 
	.thumb

$C$DW$CU	.dwtag  DW_TAG_compile_unit
	.dwattr $C$DW$CU, DW_AT_name("../uWave.c")
	.dwattr $C$DW$CU, DW_AT_producer("TI TI ARM C/C++ Codegen Unix v18.1.1.LTS Copyright (c) 1996-2017 Texas Instruments Incorporated")
	.dwattr $C$DW$CU, DW_AT_TI_version(0x01)
	.dwattr $C$DW$CU, DW_AT_comp_dir("/home/pola/workspace_v8/Microwave/Debug")
	.bss	pressed_btn_q_handle,4,4
$C$DW$1	.dwtag  DW_TAG_variable
	.dwattr $C$DW$1, DW_AT_name("pressed_btn_q_handle")
	.dwattr $C$DW$1, DW_AT_TI_symbol_name("pressed_btn_q_handle")
	.dwattr $C$DW$1, DW_AT_type(*$C$DW$T$118)
	.dwattr $C$DW$1, DW_AT_location[DW_OP_addr pressed_btn_q_handle]
	.dwattr $C$DW$1, DW_AT_decl_file("../uWave.c")
	.dwattr $C$DW$1, DW_AT_decl_line(0x1a)
	.dwattr $C$DW$1, DW_AT_decl_column(0x16)

pressed_btn_q_ds:	.usect	".bss:pressed_btn_q_ds",80,4
	.clink ".bss:pressed_btn_q_ds"
$C$DW$2	.dwtag  DW_TAG_variable
	.dwattr $C$DW$2, DW_AT_name("pressed_btn_q_ds")
	.dwattr $C$DW$2, DW_AT_TI_symbol_name("pressed_btn_q_ds")
	.dwattr $C$DW$2, DW_AT_type(*$C$DW$T$120)
	.dwattr $C$DW$2, DW_AT_location[DW_OP_addr pressed_btn_q_ds]
	.dwattr $C$DW$2, DW_AT_decl_file("../uWave.c")
	.dwattr $C$DW$2, DW_AT_decl_line(0x1b)
	.dwattr $C$DW$2, DW_AT_decl_column(0x16)

pressed_btn_q_buffer:	.usect	".bss:pressed_btn_q_buffer",4,1
	.clink ".bss:pressed_btn_q_buffer"
$C$DW$3	.dwtag  DW_TAG_variable
	.dwattr $C$DW$3, DW_AT_name("pressed_btn_q_buffer")
	.dwattr $C$DW$3, DW_AT_TI_symbol_name("pressed_btn_q_buffer")
	.dwattr $C$DW$3, DW_AT_type(*$C$DW$T$163)
	.dwattr $C$DW$3, DW_AT_location[DW_OP_addr pressed_btn_q_buffer]
	.dwattr $C$DW$3, DW_AT_decl_file("../uWave.c")
	.dwattr $C$DW$3, DW_AT_decl_line(0x1c)
	.dwattr $C$DW$3, DW_AT_decl_column(0x10)

	.bss	heating_timer_handle,4,4
$C$DW$4	.dwtag  DW_TAG_variable
	.dwattr $C$DW$4, DW_AT_name("heating_timer_handle")
	.dwattr $C$DW$4, DW_AT_TI_symbol_name("heating_timer_handle")
	.dwattr $C$DW$4, DW_AT_type(*$C$DW$T$132)
	.dwattr $C$DW$4, DW_AT_location[DW_OP_addr heating_timer_handle]
	.dwattr $C$DW$4, DW_AT_decl_file("../uWave.c")
	.dwattr $C$DW$4, DW_AT_decl_line(0x1d)
	.dwattr $C$DW$4, DW_AT_decl_column(0x16)

heating_timer_ds:	.usect	".bss:heating_timer_ds",44,4
	.clink ".bss:heating_timer_ds"
$C$DW$5	.dwtag  DW_TAG_variable
	.dwattr $C$DW$5, DW_AT_name("heating_timer_ds")
	.dwattr $C$DW$5, DW_AT_TI_symbol_name("heating_timer_ds")
	.dwattr $C$DW$5, DW_AT_type(*$C$DW$T$290)
	.dwattr $C$DW$5, DW_AT_location[DW_OP_addr heating_timer_ds]
	.dwattr $C$DW$5, DW_AT_decl_file("../uWave.c")
	.dwattr $C$DW$5, DW_AT_decl_line(0x1e)
	.dwattr $C$DW$5, DW_AT_decl_column(0x16)

UW_TCB:	.usect	".bss:UW_TCB",88,4
	.clink ".bss:UW_TCB"
$C$DW$6	.dwtag  DW_TAG_variable
	.dwattr $C$DW$6, DW_AT_name("UW_TCB")
	.dwattr $C$DW$6, DW_AT_TI_symbol_name("UW_TCB")
	.dwattr $C$DW$6, DW_AT_type(*$C$DW$T$294)
	.dwattr $C$DW$6, DW_AT_location[DW_OP_addr UW_TCB]
	.dwattr $C$DW$6, DW_AT_decl_file("../uWave.c")
	.dwattr $C$DW$6, DW_AT_decl_line(0x1f)
	.dwattr $C$DW$6, DW_AT_decl_column(0x15)

	.sect	".data:UW_Stack_Buffer", RW
	.clink
	.align	4
	.elfsym	UW_Stack_Buffer,SYM_SIZE(512)
UW_Stack_Buffer:
	.bits	0,32			; UW_Stack_Buffer[0] @ 0
	.space	508

$C$DW$7	.dwtag  DW_TAG_variable
	.dwattr $C$DW$7, DW_AT_name("UW_Stack_Buffer")
	.dwattr $C$DW$7, DW_AT_TI_symbol_name("UW_Stack_Buffer")
	.dwattr $C$DW$7, DW_AT_type(*$C$DW$T$235)
	.dwattr $C$DW$7, DW_AT_location[DW_OP_addr UW_Stack_Buffer]
	.dwattr $C$DW$7, DW_AT_decl_file("../uWave.c")
	.dwattr $C$DW$7, DW_AT_decl_line(0x20)
	.dwattr $C$DW$7, DW_AT_decl_column(0x14)

	.data
	.align	1
	.elfsym	UW_State,SYM_SIZE(1)
UW_State:
	.bits	0,8			; UW_State @ 0

$C$DW$8	.dwtag  DW_TAG_variable
	.dwattr $C$DW$8, DW_AT_name("UW_State")
	.dwattr $C$DW$8, DW_AT_TI_symbol_name("UW_State")
	.dwattr $C$DW$8, DW_AT_type(*$C$DW$T$105)
	.dwattr $C$DW$8, DW_AT_location[DW_OP_addr UW_State]
	.dwattr $C$DW$8, DW_AT_decl_file("../uWave.c")
	.dwattr $C$DW$8, DW_AT_decl_line(0x21)
	.dwattr $C$DW$8, DW_AT_decl_column(0x12)

	.data
	.align	1
	.elfsym	UW_SettingTimerCurrSSD,SYM_SIZE(1)
UW_SettingTimerCurrSSD:
	.bits	0,8			; UW_SettingTimerCurrSSD @ 0

$C$DW$9	.dwtag  DW_TAG_variable
	.dwattr $C$DW$9, DW_AT_name("UW_SettingTimerCurrSSD")
	.dwattr $C$DW$9, DW_AT_TI_symbol_name("UW_SettingTimerCurrSSD")
	.dwattr $C$DW$9, DW_AT_type(*$C$DW$T$96)
	.dwattr $C$DW$9, DW_AT_location[DW_OP_addr UW_SettingTimerCurrSSD]
	.dwattr $C$DW$9, DW_AT_decl_file("../uWave.c")
	.dwattr $C$DW$9, DW_AT_decl_line(0x22)
	.dwattr $C$DW$9, DW_AT_decl_column(0x0d)

	.sect	".data:UW_SetTimerDigits", RW
	.clink
	.align	1
	.elfsym	UW_SetTimerDigits,SYM_SIZE(4)
UW_SetTimerDigits:
	.bits	0,8			; UW_SetTimerDigits[0] @ 0
	.bits	0,8			; UW_SetTimerDigits[1] @ 8

$C$DW$10	.dwtag  DW_TAG_variable
	.dwattr $C$DW$10, DW_AT_name("UW_SetTimerDigits")
	.dwattr $C$DW$10, DW_AT_TI_symbol_name("UW_SetTimerDigits")
	.dwattr $C$DW$10, DW_AT_type(*$C$DW$T$99)
	.dwattr $C$DW$10, DW_AT_location[DW_OP_addr UW_SetTimerDigits]
	.dwattr $C$DW$10, DW_AT_decl_file("../uWave.c")
	.dwattr $C$DW$10, DW_AT_decl_line(0x23)
	.dwattr $C$DW$10, DW_AT_decl_column(0x14)

	.sect	".data:UW_CurrTimerDigits", RW
	.clink
	.align	1
	.elfsym	UW_CurrTimerDigits,SYM_SIZE(4)
UW_CurrTimerDigits:
	.bits	0,8			; UW_CurrTimerDigits[0] @ 0
	.bits	0,8			; UW_CurrTimerDigits[1] @ 8

$C$DW$11	.dwtag  DW_TAG_variable
	.dwattr $C$DW$11, DW_AT_name("UW_CurrTimerDigits")
	.dwattr $C$DW$11, DW_AT_TI_symbol_name("UW_CurrTimerDigits")
	.dwattr $C$DW$11, DW_AT_type(*$C$DW$T$99)
	.dwattr $C$DW$11, DW_AT_location[DW_OP_addr UW_CurrTimerDigits]
	.dwattr $C$DW$11, DW_AT_decl_file("../uWave.c")
	.dwattr $C$DW$11, DW_AT_decl_line(0x24)
	.dwattr $C$DW$11, DW_AT_decl_column(0x14)


$C$DW$12	.dwtag  DW_TAG_subprogram
	.dwattr $C$DW$12, DW_AT_name("xTaskCreateStatic")
	.dwattr $C$DW$12, DW_AT_TI_symbol_name("xTaskCreateStatic")
	.dwattr $C$DW$12, DW_AT_type(*$C$DW$T$85)
	.dwattr $C$DW$12, DW_AT_declaration
	.dwattr $C$DW$12, DW_AT_external
	.dwattr $C$DW$12, DW_AT_decl_file("../OS/task.h")
	.dwattr $C$DW$12, DW_AT_decl_line(0x1b6)
	.dwattr $C$DW$12, DW_AT_decl_column(0x0f)
$C$DW$13	.dwtag  DW_TAG_formal_parameter
	.dwattr $C$DW$13, DW_AT_type(*$C$DW$T$71)

$C$DW$14	.dwtag  DW_TAG_formal_parameter
	.dwattr $C$DW$14, DW_AT_type(*$C$DW$T$76)

$C$DW$15	.dwtag  DW_TAG_formal_parameter
	.dwattr $C$DW$15, DW_AT_type(*$C$DW$T$239)

$C$DW$16	.dwtag  DW_TAG_formal_parameter
	.dwattr $C$DW$16, DW_AT_type(*$C$DW$T$127)

$C$DW$17	.dwtag  DW_TAG_formal_parameter
	.dwattr $C$DW$17, DW_AT_type(*$C$DW$T$28)

$C$DW$18	.dwtag  DW_TAG_formal_parameter
	.dwattr $C$DW$18, DW_AT_type(*$C$DW$T$234)

$C$DW$19	.dwtag  DW_TAG_formal_parameter
	.dwattr $C$DW$19, DW_AT_type(*$C$DW$T$296)

	.dwendtag $C$DW$12


$C$DW$20	.dwtag  DW_TAG_subprogram
	.dwattr $C$DW$20, DW_AT_name("xQueueGenericCreateStatic")
	.dwattr $C$DW$20, DW_AT_TI_symbol_name("xQueueGenericCreateStatic")
	.dwattr $C$DW$20, DW_AT_type(*$C$DW$T$118)
	.dwattr $C$DW$20, DW_AT_declaration
	.dwattr $C$DW$20, DW_AT_external
	.dwattr $C$DW$20, DW_AT_decl_file("../OS/queue.h")
	.dwattr $C$DW$20, DW_AT_decl_line(0x5e1)
	.dwattr $C$DW$20, DW_AT_decl_column(0x10)
$C$DW$21	.dwtag  DW_TAG_formal_parameter
	.dwattr $C$DW$21, DW_AT_type(*$C$DW$T$119)

$C$DW$22	.dwtag  DW_TAG_formal_parameter
	.dwattr $C$DW$22, DW_AT_type(*$C$DW$T$119)

$C$DW$23	.dwtag  DW_TAG_formal_parameter
	.dwattr $C$DW$23, DW_AT_type(*$C$DW$T$32)

$C$DW$24	.dwtag  DW_TAG_formal_parameter
	.dwattr $C$DW$24, DW_AT_type(*$C$DW$T$121)

$C$DW$25	.dwtag  DW_TAG_formal_parameter
	.dwattr $C$DW$25, DW_AT_type(*$C$DW$T$122)

	.dwendtag $C$DW$20


$C$DW$26	.dwtag  DW_TAG_subprogram
	.dwattr $C$DW$26, DW_AT_name("xTimerCreateStatic")
	.dwattr $C$DW$26, DW_AT_TI_symbol_name("xTimerCreateStatic")
	.dwattr $C$DW$26, DW_AT_type(*$C$DW$T$132)
	.dwattr $C$DW$26, DW_AT_declaration
	.dwattr $C$DW$26, DW_AT_external
	.dwattr $C$DW$26, DW_AT_decl_file("../OS/timers.h")
	.dwattr $C$DW$26, DW_AT_decl_line(0x166)
	.dwattr $C$DW$26, DW_AT_decl_column(0x10)
$C$DW$27	.dwtag  DW_TAG_formal_parameter
	.dwattr $C$DW$27, DW_AT_type(*$C$DW$T$76)

$C$DW$28	.dwtag  DW_TAG_formal_parameter
	.dwattr $C$DW$28, DW_AT_type(*$C$DW$T$236)

$C$DW$29	.dwtag  DW_TAG_formal_parameter
	.dwattr $C$DW$29, DW_AT_type(*$C$DW$T$119)

$C$DW$30	.dwtag  DW_TAG_formal_parameter
	.dwattr $C$DW$30, DW_AT_type(*$C$DW$T$127)

$C$DW$31	.dwtag  DW_TAG_formal_parameter
	.dwattr $C$DW$31, DW_AT_type(*$C$DW$T$135)

$C$DW$32	.dwtag  DW_TAG_formal_parameter
	.dwattr $C$DW$32, DW_AT_type(*$C$DW$T$291)

	.dwendtag $C$DW$26


$C$DW$33	.dwtag  DW_TAG_subprogram
	.dwattr $C$DW$33, DW_AT_name("xQueueGenericSend")
	.dwattr $C$DW$33, DW_AT_TI_symbol_name("xQueueGenericSend")
	.dwattr $C$DW$33, DW_AT_type(*$C$DW$T$89)
	.dwattr $C$DW$33, DW_AT_declaration
	.dwattr $C$DW$33, DW_AT_external
	.dwattr $C$DW$33, DW_AT_decl_file("../OS/queue.h")
	.dwattr $C$DW$33, DW_AT_decl_line(0x28a)
	.dwattr $C$DW$33, DW_AT_decl_column(0x0c)
$C$DW$34	.dwtag  DW_TAG_formal_parameter
	.dwattr $C$DW$34, DW_AT_type(*$C$DW$T$118)

$C$DW$35	.dwtag  DW_TAG_formal_parameter
	.dwattr $C$DW$35, DW_AT_type(*$C$DW$T$130)

$C$DW$36	.dwtag  DW_TAG_formal_parameter
	.dwattr $C$DW$36, DW_AT_type(*$C$DW$T$43)

$C$DW$37	.dwtag  DW_TAG_formal_parameter
	.dwattr $C$DW$37, DW_AT_type(*$C$DW$T$241)

	.dwendtag $C$DW$33

	.data
	.align	1
	.elfsym	isFinished$1,SYM_SIZE(1)
isFinished$1:
	.bits	0,8			; isFinished$1 @ 0


$C$DW$38	.dwtag  DW_TAG_subprogram
	.dwattr $C$DW$38, DW_AT_name("SSD_SetSymbol")
	.dwattr $C$DW$38, DW_AT_TI_symbol_name("SSD_SetSymbol")
	.dwattr $C$DW$38, DW_AT_declaration
	.dwattr $C$DW$38, DW_AT_external
	.dwattr $C$DW$38, DW_AT_decl_file("../SSD.h")
	.dwattr $C$DW$38, DW_AT_decl_line(0x21)
	.dwattr $C$DW$38, DW_AT_decl_column(0x06)
$C$DW$39	.dwtag  DW_TAG_formal_parameter
	.dwattr $C$DW$39, DW_AT_type(*$C$DW$T$96)

$C$DW$40	.dwtag  DW_TAG_formal_parameter
	.dwattr $C$DW$40, DW_AT_type(*$C$DW$T$98)

	.dwendtag $C$DW$38


$C$DW$41	.dwtag  DW_TAG_subprogram
	.dwattr $C$DW$41, DW_AT_name("Sound_Set")
	.dwattr $C$DW$41, DW_AT_TI_symbol_name("Sound_Set")
	.dwattr $C$DW$41, DW_AT_declaration
	.dwattr $C$DW$41, DW_AT_external
	.dwattr $C$DW$41, DW_AT_decl_file("../Sound.h")
	.dwattr $C$DW$41, DW_AT_decl_line(0x11)
	.dwattr $C$DW$41, DW_AT_decl_column(0x06)
$C$DW$42	.dwtag  DW_TAG_formal_parameter
	.dwattr $C$DW$42, DW_AT_type(*$C$DW$T$94)

	.dwendtag $C$DW$41


$C$DW$43	.dwtag  DW_TAG_subprogram
	.dwattr $C$DW$43, DW_AT_name("Heater_SetState")
	.dwattr $C$DW$43, DW_AT_TI_symbol_name("Heater_SetState")
	.dwattr $C$DW$43, DW_AT_declaration
	.dwattr $C$DW$43, DW_AT_external
	.dwattr $C$DW$43, DW_AT_decl_file("../Heater.h")
	.dwattr $C$DW$43, DW_AT_decl_line(0x11)
	.dwattr $C$DW$43, DW_AT_decl_column(0x06)
$C$DW$44	.dwtag  DW_TAG_formal_parameter
	.dwattr $C$DW$44, DW_AT_type(*$C$DW$T$92)

	.dwendtag $C$DW$43


$C$DW$45	.dwtag  DW_TAG_subprogram
	.dwattr $C$DW$45, DW_AT_name("SSD_SetBlinkable")
	.dwattr $C$DW$45, DW_AT_TI_symbol_name("SSD_SetBlinkable")
	.dwattr $C$DW$45, DW_AT_declaration
	.dwattr $C$DW$45, DW_AT_external
	.dwattr $C$DW$45, DW_AT_decl_file("../SSD.h")
	.dwattr $C$DW$45, DW_AT_decl_line(0x22)
	.dwattr $C$DW$45, DW_AT_decl_column(0x06)
$C$DW$46	.dwtag  DW_TAG_formal_parameter
	.dwattr $C$DW$46, DW_AT_type(*$C$DW$T$96)

$C$DW$47	.dwtag  DW_TAG_formal_parameter
	.dwattr $C$DW$47, DW_AT_type(*$C$DW$T$31)

	.dwendtag $C$DW$45

	.data
	.align	1
	.elfsym	post_scaler_counter$2,SYM_SIZE(1)
post_scaler_counter$2:
	.bits	0,8			; post_scaler_counter$2 @ 0


$C$DW$48	.dwtag  DW_TAG_subprogram
	.dwattr $C$DW$48, DW_AT_name("xTimerGenericCommand")
	.dwattr $C$DW$48, DW_AT_TI_symbol_name("xTimerGenericCommand")
	.dwattr $C$DW$48, DW_AT_type(*$C$DW$T$89)
	.dwattr $C$DW$48, DW_AT_declaration
	.dwattr $C$DW$48, DW_AT_external
	.dwattr $C$DW$48, DW_AT_decl_file("../OS/timers.h")
	.dwattr $C$DW$48, DW_AT_decl_line(0x4f1)
	.dwattr $C$DW$48, DW_AT_decl_column(0x0c)
$C$DW$49	.dwtag  DW_TAG_formal_parameter
	.dwattr $C$DW$49, DW_AT_type(*$C$DW$T$132)

$C$DW$50	.dwtag  DW_TAG_formal_parameter
	.dwattr $C$DW$50, DW_AT_type(*$C$DW$T$241)

$C$DW$51	.dwtag  DW_TAG_formal_parameter
	.dwattr $C$DW$51, DW_AT_type(*$C$DW$T$236)

$C$DW$52	.dwtag  DW_TAG_formal_parameter
	.dwattr $C$DW$52, DW_AT_type(*$C$DW$T$247)

$C$DW$53	.dwtag  DW_TAG_formal_parameter
	.dwattr $C$DW$53, DW_AT_type(*$C$DW$T$236)

	.dwendtag $C$DW$48


$C$DW$54	.dwtag  DW_TAG_subprogram
	.dwattr $C$DW$54, DW_AT_name("Debug_PrintString")
	.dwattr $C$DW$54, DW_AT_TI_symbol_name("Debug_PrintString")
	.dwattr $C$DW$54, DW_AT_declaration
	.dwattr $C$DW$54, DW_AT_external
	.dwattr $C$DW$54, DW_AT_decl_file("../Debug.h")
	.dwattr $C$DW$54, DW_AT_decl_line(0x0e)
	.dwattr $C$DW$54, DW_AT_decl_column(0x06)
$C$DW$55	.dwtag  DW_TAG_formal_parameter
	.dwattr $C$DW$55, DW_AT_type(*$C$DW$T$144)

$C$DW$56	.dwtag  DW_TAG_formal_parameter
	.dwattr $C$DW$56, DW_AT_type(*$C$DW$T$31)

	.dwendtag $C$DW$54


$C$DW$57	.dwtag  DW_TAG_subprogram
	.dwattr $C$DW$57, DW_AT_name("Debug_PrintNumber")
	.dwattr $C$DW$57, DW_AT_TI_symbol_name("Debug_PrintNumber")
	.dwattr $C$DW$57, DW_AT_declaration
	.dwattr $C$DW$57, DW_AT_external
	.dwattr $C$DW$57, DW_AT_decl_file("../Debug.h")
	.dwattr $C$DW$57, DW_AT_decl_line(0x0f)
	.dwattr $C$DW$57, DW_AT_decl_column(0x06)
$C$DW$58	.dwtag  DW_TAG_formal_parameter
	.dwattr $C$DW$58, DW_AT_type(*$C$DW$T$42)

$C$DW$59	.dwtag  DW_TAG_formal_parameter
	.dwattr $C$DW$59, DW_AT_type(*$C$DW$T$31)

	.dwendtag $C$DW$57


$C$DW$60	.dwtag  DW_TAG_subprogram
	.dwattr $C$DW$60, DW_AT_name("xTaskGetTickCount")
	.dwattr $C$DW$60, DW_AT_TI_symbol_name("xTaskGetTickCount")
	.dwattr $C$DW$60, DW_AT_type(*$C$DW$T$43)
	.dwattr $C$DW$60, DW_AT_declaration
	.dwattr $C$DW$60, DW_AT_external
	.dwattr $C$DW$60, DW_AT_decl_file("../OS/task.h")
	.dwattr $C$DW$60, DW_AT_decl_line(0x53f)
	.dwattr $C$DW$60, DW_AT_decl_column(0x0c)
	.dwendtag $C$DW$60


$C$DW$61	.dwtag  DW_TAG_subprogram
	.dwattr $C$DW$61, DW_AT_name("xQueueReceive")
	.dwattr $C$DW$61, DW_AT_TI_symbol_name("xQueueReceive")
	.dwattr $C$DW$61, DW_AT_type(*$C$DW$T$89)
	.dwattr $C$DW$61, DW_AT_declaration
	.dwattr $C$DW$61, DW_AT_external
	.dwattr $C$DW$61, DW_AT_decl_file("../OS/queue.h")
	.dwattr $C$DW$61, DW_AT_decl_line(0x364)
	.dwattr $C$DW$61, DW_AT_decl_column(0x0c)
$C$DW$62	.dwtag  DW_TAG_formal_parameter
	.dwattr $C$DW$62, DW_AT_type(*$C$DW$T$118)

$C$DW$63	.dwtag  DW_TAG_formal_parameter
	.dwattr $C$DW$63, DW_AT_type(*$C$DW$T$127)

$C$DW$64	.dwtag  DW_TAG_formal_parameter
	.dwattr $C$DW$64, DW_AT_type(*$C$DW$T$43)

	.dwendtag $C$DW$61

;	/home/pola/ti/ccsv8/tools/compiler/ti-cgt-arm_18.1.1.LTS/bin/armacpia -@/tmp/TI3LlR7Qhg1 
	.sect	".text"
	.clink
	.thumbfunc UWAVE_Init
	.thumb
	.global	UWAVE_Init

$C$DW$65	.dwtag  DW_TAG_subprogram
	.dwattr $C$DW$65, DW_AT_name("UWAVE_Init")
	.dwattr $C$DW$65, DW_AT_low_pc(UWAVE_Init)
	.dwattr $C$DW$65, DW_AT_high_pc(0x00)
	.dwattr $C$DW$65, DW_AT_TI_symbol_name("UWAVE_Init")
	.dwattr $C$DW$65, DW_AT_external
	.dwattr $C$DW$65, DW_AT_TI_begin_file("../uWave.c")
	.dwattr $C$DW$65, DW_AT_TI_begin_line(0x28)
	.dwattr $C$DW$65, DW_AT_TI_begin_column(0x06)
	.dwattr $C$DW$65, DW_AT_decl_file("../uWave.c")
	.dwattr $C$DW$65, DW_AT_decl_line(0x28)
	.dwattr $C$DW$65, DW_AT_decl_column(0x06)
	.dwattr $C$DW$65, DW_AT_TI_max_frame_size(0x10)
	.dwpsn	file "../uWave.c",line 41,column 1,is_stmt,address UWAVE_Init,isa 1

	.dwfde $C$DW$CIE, UWAVE_Init
;----------------------------------------------------------------------
;  40 | void UWAVE_Init(void)                                                  
;----------------------------------------------------------------------

;*****************************************************************************
;* FUNCTION NAME: UWAVE_Init                                                 *
;*                                                                           *
;*   Regs Modified     : A1,A2,A3,A4,V9,SP,LR,SR,D0,D0_hi,D1,D1_hi,D2,D2_hi, *
;*                           D3,D3_hi,D4,D4_hi,D5,D5_hi,D6,D6_hi,D7,D7_hi,   *
;*                           FPEXC,FPSCR                                     *
;*   Regs Used         : A1,A2,A3,A4,V9,SP,LR,SR,D0,D0_hi,D1,D1_hi,D2,D2_hi, *
;*                           D3,D3_hi,D4,D4_hi,D5,D5_hi,D6,D6_hi,D7,D7_hi,   *
;*                           FPEXC,FPSCR                                     *
;*   Local Frame Size  : 12 Args + 0 Auto + 4 Save = 16 byte                 *
;*****************************************************************************
UWAVE_Init:
;* --------------------------------------------------------------------------*
	.dwcfi	cfa_offset, 0
        PUSH      {A2, A3, A4, LR}      ; [DPU_V7M3_PIPE] 
	.dwcfi	cfa_offset, 16
	.dwcfi	save_reg_to_mem, 14, -4
	.dwcfi	save_reg_to_mem, 3, -8
	.dwcfi	save_reg_to_mem, 2, -12
	.dwcfi	save_reg_to_mem, 1, -16
	.dwpsn	file "../uWave.c",line 42,column 5,is_stmt,isa 1
;----------------------------------------------------------------------
;  42 | xTaskCreateStatic(UWAVE_Task, "UW", 128, 0, 0, UW_Stack_Buffer, &UW_TCB
;     | );                                                                     
;----------------------------------------------------------------------
        MOVS      A1, #0                ; [DPU_V7M3_PIPE] |42| 
        STR       A1, [SP, #0]          ; [DPU_V7M3_PIPE] |42| 
        LDR       A1, $C$CON1           ; [DPU_V7M3_PIPE] |42| 
        STR       A1, [SP, #4]          ; [DPU_V7M3_PIPE] |42| 
        LDR       A1, $C$CON2           ; [DPU_V7M3_PIPE] |42| 
        STR       A1, [SP, #8]          ; [DPU_V7M3_PIPE] |42| 
        LDR       A1, $C$CON3           ; [DPU_V7M3_PIPE] |42| 
        ADR       A2, $C$SL1            ; [DPU_V7M3_PIPE] |42| 
        MOVS      A3, #128              ; [DPU_V7M3_PIPE] |42| 
        MOVS      A4, #0                ; [DPU_V7M3_PIPE] |42| 
$C$DW$66	.dwtag  DW_TAG_TI_branch
	.dwattr $C$DW$66, DW_AT_low_pc(0x00)
	.dwattr $C$DW$66, DW_AT_name("xTaskCreateStatic")
	.dwattr $C$DW$66, DW_AT_TI_call

        BL        xTaskCreateStatic     ; [DPU_V7M3_PIPE] |42| 
        ; CALL OCCURS {xTaskCreateStatic }  ; [] |42| 
	.dwpsn	file "../uWave.c",line 44,column 5,is_stmt,isa 1
;----------------------------------------------------------------------
;  44 | pressed_btn_q_handle = xQueueCreateStatic(1,sizeof(tButton),pressed_btn
;     | _q_buffer,&pressed_btn_q_ds);                                          
;----------------------------------------------------------------------
        MOVS      A1, #0                ; [DPU_V7M3_PIPE] |44| 
        MOVS      A2, #1                ; [DPU_V7M3_PIPE] |44| 
        LDR       A3, $C$CON5           ; [DPU_V7M3_PIPE] |44| 
        LDR       A4, $C$CON6           ; [DPU_V7M3_PIPE] |44| 
        STR       A1, [SP, #0]          ; [DPU_V7M3_PIPE] |44| 
        MOVS      A1, #1                ; [DPU_V7M3_PIPE] |44| 
$C$DW$67	.dwtag  DW_TAG_TI_branch
	.dwattr $C$DW$67, DW_AT_low_pc(0x00)
	.dwattr $C$DW$67, DW_AT_name("xQueueGenericCreateStatic")
	.dwattr $C$DW$67, DW_AT_TI_call

        BL        xQueueGenericCreateStatic ; [DPU_V7M3_PIPE] |44| 
        ; CALL OCCURS {xQueueGenericCreateStatic }  ; [] |44| 
        LDR       A2, $C$CON4           ; [DPU_V7M3_PIPE] |44| 
        STR       A1, [A2, #0]          ; [DPU_V7M3_PIPE] |44| 
	.dwpsn	file "../uWave.c",line 46,column 5,is_stmt,isa 1
;----------------------------------------------------------------------
;  46 | heating_timer_handle = xTimerCreateStatic("heating_timer",1000, pdTRUE,
;     |  ( void * ) 0, heating_timer_callback, &heating_timer_ds);             
;----------------------------------------------------------------------
        LDR       A1, $C$CON8           ; [DPU_V7M3_PIPE] |46| 
        STR       A1, [SP, #0]          ; [DPU_V7M3_PIPE] |46| 
        LDR       A1, $C$CON9           ; [DPU_V7M3_PIPE] |46| 
        MOVS      A3, #1                ; [DPU_V7M3_PIPE] |46| 
        MOVS      A4, #0                ; [DPU_V7M3_PIPE] |46| 
        MOV       A2, #1000             ; [DPU_V7M3_PIPE] |46| 
        STR       A1, [SP, #4]          ; [DPU_V7M3_PIPE] |46| 
        ADR       A1, $C$SL2            ; [DPU_V7M3_PIPE] |46| 
$C$DW$68	.dwtag  DW_TAG_TI_branch
	.dwattr $C$DW$68, DW_AT_low_pc(0x00)
	.dwattr $C$DW$68, DW_AT_name("xTimerCreateStatic")
	.dwattr $C$DW$68, DW_AT_TI_call

        BL        xTimerCreateStatic    ; [DPU_V7M3_PIPE] |46| 
        ; CALL OCCURS {xTimerCreateStatic }  ; [] |46| 
        LDR       A2, $C$CON7           ; [DPU_V7M3_PIPE] |46| 
        STR       A1, [A2, #0]          ; [DPU_V7M3_PIPE] |46| 
	.dwpsn	file "../uWave.c",line 47,column 1,is_stmt,isa 1
$C$DW$69	.dwtag  DW_TAG_TI_branch
	.dwattr $C$DW$69, DW_AT_low_pc(0x00)
	.dwattr $C$DW$69, DW_AT_TI_return

        POP       {A2, A3, A4, PC}      ; [DPU_V7M3_PIPE] 
	.dwcfi	cfa_offset, 0
	.dwcfi	restore_reg, 3
	.dwcfi	restore_reg, 2
	.dwcfi	restore_reg, 1
        ; BRANCH OCCURS                  ; [] 
	.dwattr $C$DW$65, DW_AT_TI_end_file("../uWave.c")
	.dwattr $C$DW$65, DW_AT_TI_end_line(0x2f)
	.dwattr $C$DW$65, DW_AT_TI_end_column(0x01)
	.dwendentry
	.dwendtag $C$DW$65

	.sect	".text"
	.clink
	.thumbfunc UWAVE_SetPressedButton
	.thumb
	.global	UWAVE_SetPressedButton

$C$DW$70	.dwtag  DW_TAG_subprogram
	.dwattr $C$DW$70, DW_AT_name("UWAVE_SetPressedButton")
	.dwattr $C$DW$70, DW_AT_low_pc(UWAVE_SetPressedButton)
	.dwattr $C$DW$70, DW_AT_high_pc(0x00)
	.dwattr $C$DW$70, DW_AT_TI_symbol_name("UWAVE_SetPressedButton")
	.dwattr $C$DW$70, DW_AT_external
	.dwattr $C$DW$70, DW_AT_TI_begin_file("../uWave.c")
	.dwattr $C$DW$70, DW_AT_TI_begin_line(0x31)
	.dwattr $C$DW$70, DW_AT_TI_begin_column(0x06)
	.dwattr $C$DW$70, DW_AT_decl_file("../uWave.c")
	.dwattr $C$DW$70, DW_AT_decl_line(0x31)
	.dwattr $C$DW$70, DW_AT_decl_column(0x06)
	.dwattr $C$DW$70, DW_AT_TI_max_frame_size(0x08)
	.dwpsn	file "../uWave.c",line 50,column 1,is_stmt,address UWAVE_SetPressedButton,isa 1

	.dwfde $C$DW$CIE, UWAVE_SetPressedButton
$C$DW$71	.dwtag  DW_TAG_formal_parameter
	.dwattr $C$DW$71, DW_AT_name("button")
	.dwattr $C$DW$71, DW_AT_TI_symbol_name("button")
	.dwattr $C$DW$71, DW_AT_type(*$C$DW$T$102)
	.dwattr $C$DW$71, DW_AT_location[DW_OP_reg0]

;----------------------------------------------------------------------
;  49 | void UWAVE_SetPressedButton(tButton button)                            
;----------------------------------------------------------------------

;*****************************************************************************
;* FUNCTION NAME: UWAVE_SetPressedButton                                     *
;*                                                                           *
;*   Regs Modified     : A1,A2,A3,A4,V9,SP,LR,SR,D0,D0_hi,D1,D1_hi,D2,D2_hi, *
;*                           D3,D3_hi,D4,D4_hi,D5,D5_hi,D6,D6_hi,D7,D7_hi,   *
;*                           FPEXC,FPSCR                                     *
;*   Regs Used         : A1,A2,A3,A4,V9,SP,LR,SR,D0,D0_hi,D1,D1_hi,D2,D2_hi, *
;*                           D3,D3_hi,D4,D4_hi,D5,D5_hi,D6,D6_hi,D7,D7_hi,   *
;*                           FPEXC,FPSCR                                     *
;*   Local Frame Size  : 0 Args + 4 Auto + 4 Save = 8 byte                   *
;*****************************************************************************
UWAVE_SetPressedButton:
;* --------------------------------------------------------------------------*
	.dwcfi	cfa_offset, 0
        PUSH      {A4, LR}              ; [DPU_V7M3_PIPE] 
	.dwcfi	cfa_offset, 8
	.dwcfi	save_reg_to_mem, 14, -4
	.dwcfi	save_reg_to_mem, 3, -8
$C$DW$72	.dwtag  DW_TAG_variable
	.dwattr $C$DW$72, DW_AT_name("button")
	.dwattr $C$DW$72, DW_AT_TI_symbol_name("button")
	.dwattr $C$DW$72, DW_AT_type(*$C$DW$T$102)
	.dwattr $C$DW$72, DW_AT_location[DW_OP_breg13 0]

        STRB      A1, [SP, #0]          ; [DPU_V7M3_PIPE] |50| 
	.dwpsn	file "../uWave.c",line 51,column 5,is_stmt,isa 1
;----------------------------------------------------------------------
;  51 | xQueueSend(pressed_btn_q_handle,&button,portMAX_DELAY);                
;----------------------------------------------------------------------
        LDR       A1, $C$CON4           ; [DPU_V7M3_PIPE] |51| 
        LDR       A1, [A1, #0]          ; [DPU_V7M3_PIPE] |51| 
        MOV       A3, #-1               ; [DPU_V7M3_PIPE] |51| 
        MOVS      A4, #0                ; [DPU_V7M3_PIPE] |51| 
        MOV       A2, SP                ; [DPU_V7M3_PIPE] |51| 
$C$DW$73	.dwtag  DW_TAG_TI_branch
	.dwattr $C$DW$73, DW_AT_low_pc(0x00)
	.dwattr $C$DW$73, DW_AT_name("xQueueGenericSend")
	.dwattr $C$DW$73, DW_AT_TI_call

        BL        xQueueGenericSend     ; [DPU_V7M3_PIPE] |51| 
        ; CALL OCCURS {xQueueGenericSend }  ; [] |51| 
	.dwpsn	file "../uWave.c",line 52,column 1,is_stmt,isa 1
$C$DW$74	.dwtag  DW_TAG_TI_branch
	.dwattr $C$DW$74, DW_AT_low_pc(0x00)
	.dwattr $C$DW$74, DW_AT_TI_return

        POP       {A4, PC}              ; [DPU_V7M3_PIPE] 
	.dwcfi	cfa_offset, 0
	.dwcfi	restore_reg, 3
        ; BRANCH OCCURS                  ; [] 
	.dwattr $C$DW$70, DW_AT_TI_end_file("../uWave.c")
	.dwattr $C$DW$70, DW_AT_TI_end_line(0x34)
	.dwattr $C$DW$70, DW_AT_TI_end_column(0x01)
	.dwendentry
	.dwendtag $C$DW$70

	.sect	".text"
	.clink
	.thumbfunc heating_timer_callback
	.thumb

$C$DW$75	.dwtag  DW_TAG_subprogram
	.dwattr $C$DW$75, DW_AT_name("heating_timer_callback")
	.dwattr $C$DW$75, DW_AT_low_pc(heating_timer_callback)
	.dwattr $C$DW$75, DW_AT_high_pc(0x00)
	.dwattr $C$DW$75, DW_AT_TI_symbol_name("heating_timer_callback")
	.dwattr $C$DW$75, DW_AT_TI_begin_file("../uWave.c")
	.dwattr $C$DW$75, DW_AT_TI_begin_line(0x36)
	.dwattr $C$DW$75, DW_AT_TI_begin_column(0x0d)
	.dwattr $C$DW$75, DW_AT_decl_file("../uWave.c")
	.dwattr $C$DW$75, DW_AT_decl_line(0x36)
	.dwattr $C$DW$75, DW_AT_decl_column(0x0d)
	.dwattr $C$DW$75, DW_AT_TI_max_frame_size(0x10)
	.dwpsn	file "../uWave.c",line 55,column 1,is_stmt,address heating_timer_callback,isa 1

	.dwfde $C$DW$CIE, heating_timer_callback
$C$DW$76	.dwtag  DW_TAG_variable
	.dwattr $C$DW$76, DW_AT_name("isFinished")
	.dwattr $C$DW$76, DW_AT_TI_symbol_name("isFinished$1")
	.dwattr $C$DW$76, DW_AT_type(*$C$DW$T$31)
	.dwattr $C$DW$76, DW_AT_location[DW_OP_addr isFinished$1]

$C$DW$77	.dwtag  DW_TAG_variable
	.dwattr $C$DW$77, DW_AT_name("post_scaler_counter")
	.dwattr $C$DW$77, DW_AT_TI_symbol_name("post_scaler_counter$2")
	.dwattr $C$DW$77, DW_AT_type(*$C$DW$T$31)
	.dwattr $C$DW$77, DW_AT_location[DW_OP_addr post_scaler_counter$2]

$C$DW$78	.dwtag  DW_TAG_formal_parameter
	.dwattr $C$DW$78, DW_AT_name("xTimer")
	.dwattr $C$DW$78, DW_AT_TI_symbol_name("xTimer")
	.dwattr $C$DW$78, DW_AT_type(*$C$DW$T$132)
	.dwattr $C$DW$78, DW_AT_location[DW_OP_reg0]

;----------------------------------------------------------------------
;  54 | static void heating_timer_callback(TimerHandle_t xTimer)               
;----------------------------------------------------------------------

;*****************************************************************************
;* FUNCTION NAME: heating_timer_callback                                     *
;*                                                                           *
;*   Regs Modified     : A1,A2,A3,A4,V9,SP,LR,SR,D0,D0_hi,D1,D1_hi,D2,D2_hi, *
;*                           D3,D3_hi,D4,D4_hi,D5,D5_hi,D6,D6_hi,D7,D7_hi,   *
;*                           FPEXC,FPSCR                                     *
;*   Regs Used         : A1,A2,A3,A4,V9,SP,LR,SR,D0,D0_hi,D1,D1_hi,D2,D2_hi, *
;*                           D3,D3_hi,D4,D4_hi,D5,D5_hi,D6,D6_hi,D7,D7_hi,   *
;*                           FPEXC,FPSCR                                     *
;*   Local Frame Size  : 4 Args + 4 Auto + 4 Save = 12 byte                  *
;*****************************************************************************
heating_timer_callback:
;* --------------------------------------------------------------------------*
	.dwcfi	cfa_offset, 0
        PUSH      {A2, A3, A4, LR}      ; [DPU_V7M3_PIPE] 
	.dwcfi	cfa_offset, 16
	.dwcfi	save_reg_to_mem, 14, -4
	.dwcfi	save_reg_to_mem, 3, -8
	.dwcfi	save_reg_to_mem, 2, -12
	.dwcfi	save_reg_to_mem, 1, -16
$C$DW$79	.dwtag  DW_TAG_variable
	.dwattr $C$DW$79, DW_AT_name("xTimer")
	.dwattr $C$DW$79, DW_AT_TI_symbol_name("xTimer")
	.dwattr $C$DW$79, DW_AT_type(*$C$DW$T$132)
	.dwattr $C$DW$79, DW_AT_location[DW_OP_breg13 4]

;----------------------------------------------------------------------
;  56 | static uint8_t isFinished = 0;                                         
;----------------------------------------------------------------------
        STR       A1, [SP, #4]          ; [DPU_V7M3_PIPE] |55| 
	.dwpsn	file "../uWave.c",line 58,column 5,is_stmt,isa 1
;----------------------------------------------------------------------
;  58 | if(!isFinished)                                                        
;----------------------------------------------------------------------
        LDR       A1, $C$CON10          ; [DPU_V7M3_PIPE] |58| 
        LDRB      A1, [A1, #0]          ; [DPU_V7M3_PIPE] |58| 
        CMP       A1, #0                ; [DPU_V7M3_PIPE] |58| 
        BNE       ||$C$L3||             ; [DPU_V7M3_PIPE] |58| 
        ; BRANCHCC OCCURS {||$C$L3||}    ; [] |58| 
;* --------------------------------------------------------------------------*
	.dwpsn	file "../uWave.c",line 60,column 9,is_stmt,isa 1
;----------------------------------------------------------------------
;  60 | if(UW_CurrTimerDigits[SSD_ONCE] > SSD_NUMBER_ZERO)                     
;----------------------------------------------------------------------
        LDR       A1, $C$CON11          ; [DPU_V7M3_PIPE] |60| 
        LDRB      A1, [A1, #0]          ; [DPU_V7M3_PIPE] |60| 
        CMP       A1, #0                ; [DPU_V7M3_PIPE] |60| 
        BLE       ||$C$L1||             ; [DPU_V7M3_PIPE] |60| 
        ; BRANCHCC OCCURS {||$C$L1||}    ; [] |60| 
;* --------------------------------------------------------------------------*
	.dwpsn	file "../uWave.c",line 62,column 13,is_stmt,isa 1
;----------------------------------------------------------------------
;  62 | UW_CurrTimerDigits[SSD_ONCE]--;                                        
;----------------------------------------------------------------------
        LDR       A2, $C$CON11          ; [DPU_V7M3_PIPE] |62| 
        LDRB      A1, [A2, #0]          ; [DPU_V7M3_PIPE] |62| 
        SUBS      A1, A1, #1            ; [DPU_V7M3_PIPE] |62| 
        STRB      A1, [A2, #0]          ; [DPU_V7M3_PIPE] |62| 
	.dwpsn	file "../uWave.c",line 63,column 13,is_stmt,isa 1
;----------------------------------------------------------------------
;  63 | SSD_SetSymbol(SSD_ONCE,UW_CurrTimerDigits[SSD_ONCE]);                  
;----------------------------------------------------------------------
        LDR       A1, $C$CON11          ; [DPU_V7M3_PIPE] |63| 
        LDRB      A2, [A1, #0]          ; [DPU_V7M3_PIPE] |63| 
        MOVS      A1, #0                ; [DPU_V7M3_PIPE] |63| 
$C$DW$80	.dwtag  DW_TAG_TI_branch
	.dwattr $C$DW$80, DW_AT_low_pc(0x00)
	.dwattr $C$DW$80, DW_AT_name("SSD_SetSymbol")
	.dwattr $C$DW$80, DW_AT_TI_call

        BL        SSD_SetSymbol         ; [DPU_V7M3_PIPE] |63| 
        ; CALL OCCURS {SSD_SetSymbol }   ; [] |63| 
	.dwpsn	file "../uWave.c",line 64,column 9,is_stmt,isa 1
        B         ||$C$L2||             ; [DPU_V7M3_PIPE] |64| 
        ; BRANCH OCCURS {||$C$L2||}      ; [] |64| 
;* --------------------------------------------------------------------------*
||$C$L1||:    
	.dwpsn	file "../uWave.c",line 65,column 14,is_stmt,isa 1
;----------------------------------------------------------------------
;  65 | else if(UW_CurrTimerDigits[SSD_TENTH] > SSD_NUMBER_ZERO)               
;----------------------------------------------------------------------
        LDR       A1, $C$CON12          ; [DPU_V7M3_PIPE] |65| 
        LDRB      A1, [A1, #0]          ; [DPU_V7M3_PIPE] |65| 
        CMP       A1, #0                ; [DPU_V7M3_PIPE] |65| 
        BLE       ||$C$L2||             ; [DPU_V7M3_PIPE] |65| 
        ; BRANCHCC OCCURS {||$C$L2||}    ; [] |65| 
;* --------------------------------------------------------------------------*
	.dwpsn	file "../uWave.c",line 67,column 13,is_stmt,isa 1
;----------------------------------------------------------------------
;  67 | UW_CurrTimerDigits[SSD_TENTH]--;                                       
;----------------------------------------------------------------------
        LDR       A2, $C$CON11          ; [DPU_V7M3_PIPE] |67| 
        LDRB      A1, [A2, #1]          ; [DPU_V7M3_PIPE] |67| 
        SUBS      A1, A1, #1            ; [DPU_V7M3_PIPE] |67| 
        STRB      A1, [A2, #1]          ; [DPU_V7M3_PIPE] |67| 
	.dwpsn	file "../uWave.c",line 68,column 13,is_stmt,isa 1
;----------------------------------------------------------------------
;  68 | SSD_SetSymbol(SSD_TENTH,UW_CurrTimerDigits[SSD_TENTH]);                
;----------------------------------------------------------------------
        LDR       A1, $C$CON12          ; [DPU_V7M3_PIPE] |68| 
        LDRB      A2, [A1, #0]          ; [DPU_V7M3_PIPE] |68| 
        MOVS      A1, #1                ; [DPU_V7M3_PIPE] |68| 
$C$DW$81	.dwtag  DW_TAG_TI_branch
	.dwattr $C$DW$81, DW_AT_low_pc(0x00)
	.dwattr $C$DW$81, DW_AT_name("SSD_SetSymbol")
	.dwattr $C$DW$81, DW_AT_TI_call

        BL        SSD_SetSymbol         ; [DPU_V7M3_PIPE] |68| 
        ; CALL OCCURS {SSD_SetSymbol }   ; [] |68| 
	.dwpsn	file "../uWave.c",line 70,column 13,is_stmt,isa 1
;----------------------------------------------------------------------
;  70 | UW_CurrTimerDigits[SSD_ONCE] = SSD_NUMBER_NINE;                        
;----------------------------------------------------------------------
        LDR       A2, $C$CON11          ; [DPU_V7M3_PIPE] |70| 
        MOVS      A1, #9                ; [DPU_V7M3_PIPE] |70| 
        STRB      A1, [A2, #0]          ; [DPU_V7M3_PIPE] |70| 
;* --------------------------------------------------------------------------*
||$C$L2||:    
	.dwpsn	file "../uWave.c",line 73,column 9,is_stmt,isa 1
;----------------------------------------------------------------------
;  73 | if(UW_CurrTimerDigits[SSD_ONCE] == SSD_NUMBER_ZERO &&                  
;  74 |         UW_CurrTimerDigits[SSD_TENTH] == SSD_NUMBER_ZERO)              
;----------------------------------------------------------------------
        LDR       A1, $C$CON11          ; [DPU_V7M3_PIPE] |73| 
        LDRB      A1, [A1, #0]          ; [DPU_V7M3_PIPE] |73| 
        CMP       A1, #0                ; [DPU_V7M3_PIPE] |73| 
        BNE       ||$C$L5||             ; [DPU_V7M3_PIPE] |73| 
        ; BRANCHCC OCCURS {||$C$L5||}    ; [] |73| 
;* --------------------------------------------------------------------------*
        LDR       A1, $C$CON12          ; [DPU_V7M3_PIPE] |73| 
        LDRB      A1, [A1, #0]          ; [DPU_V7M3_PIPE] |73| 
        CMP       A1, #0                ; [DPU_V7M3_PIPE] |73| 
        BNE       ||$C$L5||             ; [DPU_V7M3_PIPE] |73| 
        ; BRANCHCC OCCURS {||$C$L5||}    ; [] |73| 
;* --------------------------------------------------------------------------*
	.dwpsn	file "../uWave.c",line 76,column 13,is_stmt,isa 1
;----------------------------------------------------------------------
;  76 | Sound_Set(SOUND_TIMEOUT);                                              
;----------------------------------------------------------------------
        MOVS      A1, #1                ; [DPU_V7M3_PIPE] |76| 
$C$DW$82	.dwtag  DW_TAG_TI_branch
	.dwattr $C$DW$82, DW_AT_low_pc(0x00)
	.dwattr $C$DW$82, DW_AT_name("Sound_Set")
	.dwattr $C$DW$82, DW_AT_TI_call

        BL        Sound_Set             ; [DPU_V7M3_PIPE] |76| 
        ; CALL OCCURS {Sound_Set }       ; [] |76| 
	.dwpsn	file "../uWave.c",line 77,column 13,is_stmt,isa 1
;----------------------------------------------------------------------
;  77 | Heater_SetState(HEATER_OFF);                                           
;----------------------------------------------------------------------
        MOVS      A1, #0                ; [DPU_V7M3_PIPE] |77| 
$C$DW$83	.dwtag  DW_TAG_TI_branch
	.dwattr $C$DW$83, DW_AT_low_pc(0x00)
	.dwattr $C$DW$83, DW_AT_name("Heater_SetState")
	.dwattr $C$DW$83, DW_AT_TI_call

        BL        Heater_SetState       ; [DPU_V7M3_PIPE] |77| 
        ; CALL OCCURS {Heater_SetState }  ; [] |77| 
	.dwpsn	file "../uWave.c",line 78,column 13,is_stmt,isa 1
;----------------------------------------------------------------------
;  78 | SSD_SetBlinkable(SSD_ONCE,1);                                          
;----------------------------------------------------------------------
        MOVS      A1, #0                ; [DPU_V7M3_PIPE] |78| 
        MOVS      A2, #1                ; [DPU_V7M3_PIPE] |78| 
$C$DW$84	.dwtag  DW_TAG_TI_branch
	.dwattr $C$DW$84, DW_AT_low_pc(0x00)
	.dwattr $C$DW$84, DW_AT_name("SSD_SetBlinkable")
	.dwattr $C$DW$84, DW_AT_TI_call

        BL        SSD_SetBlinkable      ; [DPU_V7M3_PIPE] |78| 
        ; CALL OCCURS {SSD_SetBlinkable }  ; [] |78| 
	.dwpsn	file "../uWave.c",line 79,column 13,is_stmt,isa 1
;----------------------------------------------------------------------
;  79 | SSD_SetBlinkable(SSD_TENTH,1);                                         
;----------------------------------------------------------------------
        MOVS      A1, #1                ; [DPU_V7M3_PIPE] |79| 
        MOVS      A2, #1                ; [DPU_V7M3_PIPE] |79| 
$C$DW$85	.dwtag  DW_TAG_TI_branch
	.dwattr $C$DW$85, DW_AT_low_pc(0x00)
	.dwattr $C$DW$85, DW_AT_name("SSD_SetBlinkable")
	.dwattr $C$DW$85, DW_AT_TI_call

        BL        SSD_SetBlinkable      ; [DPU_V7M3_PIPE] |79| 
        ; CALL OCCURS {SSD_SetBlinkable }  ; [] |79| 
	.dwpsn	file "../uWave.c",line 80,column 13,is_stmt,isa 1
;----------------------------------------------------------------------
;  80 | isFinished = 1;                                                        
;----------------------------------------------------------------------
        LDR       A2, $C$CON10          ; [DPU_V7M3_PIPE] |80| 
        MOVS      A1, #1                ; [DPU_V7M3_PIPE] |80| 
        STRB      A1, [A2, #0]          ; [DPU_V7M3_PIPE] |80| 
	.dwpsn	file "../uWave.c",line 82,column 5,is_stmt,isa 1
;----------------------------------------------------------------------
;  83 | else                                                                   
;  85 |     static uint8_t post_scaler_counter = 0;                            
;----------------------------------------------------------------------
        B         ||$C$L5||             ; [DPU_V7M3_PIPE] |82| 
        ; BRANCH OCCURS {||$C$L5||}      ; [] |82| 
;* --------------------------------------------------------------------------*
||$C$L3||:    

$C$DW$86	.dwtag  DW_TAG_lexical_block
	.dwattr $C$DW$86, DW_AT_low_pc(0x00)
	.dwattr $C$DW$86, DW_AT_high_pc(0x00)
	.dwpsn	file "../uWave.c",line 87,column 9,is_stmt,isa 1
;----------------------------------------------------------------------
;  87 | post_scaler_counter++;                                                 
;----------------------------------------------------------------------
        LDR       A2, $C$CON13          ; [DPU_V7M3_PIPE] |87| 
        LDRB      A1, [A2, #0]          ; [DPU_V7M3_PIPE] |87| 
        ADDS      A1, A1, #1            ; [DPU_V7M3_PIPE] |87| 
        STRB      A1, [A2, #0]          ; [DPU_V7M3_PIPE] |87| 
	.dwpsn	file "../uWave.c",line 89,column 9,is_stmt,isa 1
;----------------------------------------------------------------------
;  89 | if(post_scaler_counter >= 5)                                           
;----------------------------------------------------------------------
        LDR       A1, $C$CON13          ; [DPU_V7M3_PIPE] |89| 
        LDRB      A1, [A1, #0]          ; [DPU_V7M3_PIPE] |89| 
        CMP       A1, #5                ; [DPU_V7M3_PIPE] |89| 
        BLT       ||$C$L4||             ; [DPU_V7M3_PIPE] |89| 
        ; BRANCHCC OCCURS {||$C$L4||}    ; [] |89| 
;* --------------------------------------------------------------------------*
	.dwpsn	file "../uWave.c",line 91,column 13,is_stmt,isa 1
;----------------------------------------------------------------------
;  91 | post_scaler_counter = 0;                                               
;----------------------------------------------------------------------
        LDR       A2, $C$CON13          ; [DPU_V7M3_PIPE] |91| 
        MOVS      A1, #0                ; [DPU_V7M3_PIPE] |91| 
        STRB      A1, [A2, #0]          ; [DPU_V7M3_PIPE] |91| 
	.dwpsn	file "../uWave.c",line 93,column 13,is_stmt,isa 1
;----------------------------------------------------------------------
;  93 | UW_State = UW_STATE_IDLE;                                              
;----------------------------------------------------------------------
        LDR       A2, $C$CON14          ; [DPU_V7M3_PIPE] |93| 
        MOVS      A1, #0                ; [DPU_V7M3_PIPE] |93| 
        STRB      A1, [A2, #0]          ; [DPU_V7M3_PIPE] |93| 
	.dwpsn	file "../uWave.c",line 95,column 13,is_stmt,isa 1
;----------------------------------------------------------------------
;  95 | SSD_SetBlinkable(SSD_ONCE,0);                                          
;----------------------------------------------------------------------
        MOVS      A1, #0                ; [DPU_V7M3_PIPE] |95| 
        MOVS      A2, #0                ; [DPU_V7M3_PIPE] |95| 
$C$DW$87	.dwtag  DW_TAG_TI_branch
	.dwattr $C$DW$87, DW_AT_low_pc(0x00)
	.dwattr $C$DW$87, DW_AT_name("SSD_SetBlinkable")
	.dwattr $C$DW$87, DW_AT_TI_call

        BL        SSD_SetBlinkable      ; [DPU_V7M3_PIPE] |95| 
        ; CALL OCCURS {SSD_SetBlinkable }  ; [] |95| 
	.dwpsn	file "../uWave.c",line 96,column 13,is_stmt,isa 1
;----------------------------------------------------------------------
;  96 | SSD_SetBlinkable(SSD_TENTH,0);                                         
;----------------------------------------------------------------------
        MOVS      A1, #1                ; [DPU_V7M3_PIPE] |96| 
        MOVS      A2, #0                ; [DPU_V7M3_PIPE] |96| 
$C$DW$88	.dwtag  DW_TAG_TI_branch
	.dwattr $C$DW$88, DW_AT_low_pc(0x00)
	.dwattr $C$DW$88, DW_AT_name("SSD_SetBlinkable")
	.dwattr $C$DW$88, DW_AT_TI_call

        BL        SSD_SetBlinkable      ; [DPU_V7M3_PIPE] |96| 
        ; CALL OCCURS {SSD_SetBlinkable }  ; [] |96| 
	.dwpsn	file "../uWave.c",line 97,column 13,is_stmt,isa 1
;----------------------------------------------------------------------
;  97 | SSD_SetSymbol(SSD_ONCE,UW_SetTimerDigits[SSD_ONCE]);                   
;----------------------------------------------------------------------
        LDR       A1, $C$CON15          ; [DPU_V7M3_PIPE] |97| 
        LDRB      A2, [A1, #0]          ; [DPU_V7M3_PIPE] |97| 
        MOVS      A1, #0                ; [DPU_V7M3_PIPE] |97| 
$C$DW$89	.dwtag  DW_TAG_TI_branch
	.dwattr $C$DW$89, DW_AT_low_pc(0x00)
	.dwattr $C$DW$89, DW_AT_name("SSD_SetSymbol")
	.dwattr $C$DW$89, DW_AT_TI_call

        BL        SSD_SetSymbol         ; [DPU_V7M3_PIPE] |97| 
        ; CALL OCCURS {SSD_SetSymbol }   ; [] |97| 
	.dwpsn	file "../uWave.c",line 98,column 13,is_stmt,isa 1
;----------------------------------------------------------------------
;  98 | SSD_SetSymbol(SSD_TENTH,UW_SetTimerDigits[SSD_TENTH]);                 
;----------------------------------------------------------------------
        LDR       A1, $C$CON16          ; [DPU_V7M3_PIPE] |98| 
        LDRB      A2, [A1, #0]          ; [DPU_V7M3_PIPE] |98| 
        MOVS      A1, #1                ; [DPU_V7M3_PIPE] |98| 
$C$DW$90	.dwtag  DW_TAG_TI_branch
	.dwattr $C$DW$90, DW_AT_low_pc(0x00)
	.dwattr $C$DW$90, DW_AT_name("SSD_SetSymbol")
	.dwattr $C$DW$90, DW_AT_TI_call

        BL        SSD_SetSymbol         ; [DPU_V7M3_PIPE] |98| 
        ; CALL OCCURS {SSD_SetSymbol }   ; [] |98| 
	.dwpsn	file "../uWave.c",line 100,column 13,is_stmt,isa 1
;----------------------------------------------------------------------
; 100 | isFinished = 0;                                                        
;----------------------------------------------------------------------
        LDR       A2, $C$CON10          ; [DPU_V7M3_PIPE] |100| 
        MOVS      A1, #0                ; [DPU_V7M3_PIPE] |100| 
        STRB      A1, [A2, #0]          ; [DPU_V7M3_PIPE] |100| 
	.dwpsn	file "../uWave.c",line 102,column 13,is_stmt,isa 1
;----------------------------------------------------------------------
; 102 | xTimerStop(heating_timer_handle,portMAX_DELAY);                        
;----------------------------------------------------------------------
        MOV       A2, #-1               ; [DPU_V7M3_PIPE] |102| 
        LDR       A1, $C$CON7           ; [DPU_V7M3_PIPE] |102| 
        STR       A2, [SP, #0]          ; [DPU_V7M3_PIPE] |102| 
        LDR       A1, [A1, #0]          ; [DPU_V7M3_PIPE] |102| 
        MOVS      A3, #0                ; [DPU_V7M3_PIPE] |102| 
        MOVS      A4, #0                ; [DPU_V7M3_PIPE] |102| 
        MOVS      A2, #3                ; [DPU_V7M3_PIPE] |102| 
$C$DW$91	.dwtag  DW_TAG_TI_branch
	.dwattr $C$DW$91, DW_AT_low_pc(0x00)
	.dwattr $C$DW$91, DW_AT_name("xTimerGenericCommand")
	.dwattr $C$DW$91, DW_AT_TI_call

        BL        xTimerGenericCommand  ; [DPU_V7M3_PIPE] |102| 
        ; CALL OCCURS {xTimerGenericCommand }  ; [] |102| 
;* --------------------------------------------------------------------------*
||$C$L4||:    
	.dwendtag $C$DW$86

	.dwpsn	file "../uWave.c",line 105,column 1,is_stmt,isa 1
;* --------------------------------------------------------------------------*
||$C$L5||:    
$C$DW$92	.dwtag  DW_TAG_TI_branch
	.dwattr $C$DW$92, DW_AT_low_pc(0x00)
	.dwattr $C$DW$92, DW_AT_TI_return

        POP       {A2, A3, A4, PC}      ; [DPU_V7M3_PIPE] 
	.dwcfi	cfa_offset, 0
	.dwcfi	restore_reg, 3
	.dwcfi	restore_reg, 2
	.dwcfi	restore_reg, 1
        ; BRANCH OCCURS                  ; [] 
	.dwattr $C$DW$75, DW_AT_TI_end_file("../uWave.c")
	.dwattr $C$DW$75, DW_AT_TI_end_line(0x69)
	.dwattr $C$DW$75, DW_AT_TI_end_column(0x01)
	.dwendentry
	.dwendtag $C$DW$75

;******************************************************************************
;* CONSTANT TABLE                                                             *
;******************************************************************************
	.sect	".text"
	.align	4
||$C$CON1||:	.bits	UW_Stack_Buffer,32
	.align	4
||$C$CON2||:	.bits	UW_TCB,32
	.align	4
||$C$CON3||:	.bits	UWAVE_Task,32
	.sect	".text"
	.clink
	.thumbfunc UWAVE_Task
	.thumb
	.global	UWAVE_Task

$C$DW$93	.dwtag  DW_TAG_subprogram
	.dwattr $C$DW$93, DW_AT_name("UWAVE_Task")
	.dwattr $C$DW$93, DW_AT_low_pc(UWAVE_Task)
	.dwattr $C$DW$93, DW_AT_high_pc(0x00)
	.dwattr $C$DW$93, DW_AT_TI_symbol_name("UWAVE_Task")
	.dwattr $C$DW$93, DW_AT_external
	.dwattr $C$DW$93, DW_AT_TI_begin_file("../uWave.c")
	.dwattr $C$DW$93, DW_AT_TI_begin_line(0x6b)
	.dwattr $C$DW$93, DW_AT_TI_begin_column(0x06)
	.dwattr $C$DW$93, DW_AT_decl_file("../uWave.c")
	.dwattr $C$DW$93, DW_AT_decl_line(0x6b)
	.dwattr $C$DW$93, DW_AT_decl_column(0x06)
	.dwattr $C$DW$93, DW_AT_TI_max_frame_size(0x10)
	.dwpsn	file "../uWave.c",line 108,column 1,is_stmt,address UWAVE_Task,isa 1

	.dwfde $C$DW$CIE, UWAVE_Task
$C$DW$94	.dwtag  DW_TAG_formal_parameter
	.dwattr $C$DW$94, DW_AT_name("param")
	.dwattr $C$DW$94, DW_AT_TI_symbol_name("param")
	.dwattr $C$DW$94, DW_AT_type(*$C$DW$T$3)
	.dwattr $C$DW$94, DW_AT_location[DW_OP_reg0]

;----------------------------------------------------------------------
; 107 | void UWAVE_Task(void* param)                                           
;----------------------------------------------------------------------

;*****************************************************************************
;* FUNCTION NAME: UWAVE_Task                                                 *
;*                                                                           *
;*   Regs Modified     : A1,A2,A3,A4,V9,SP,LR,SR,D0,D0_hi,D1,D1_hi,D2,D2_hi, *
;*                           D3,D3_hi,D4,D4_hi,D5,D5_hi,D6,D6_hi,D7,D7_hi,   *
;*                           FPEXC,FPSCR                                     *
;*   Regs Used         : A1,A2,A3,A4,V9,SP,LR,SR,D0,D0_hi,D1,D1_hi,D2,D2_hi, *
;*                           D3,D3_hi,D4,D4_hi,D5,D5_hi,D6,D6_hi,D7,D7_hi,   *
;*                           FPEXC,FPSCR                                     *
;*   Local Frame Size  : 4 Args + 8 Auto + 4 Save = 16 byte                  *
;*****************************************************************************
UWAVE_Task:
;* --------------------------------------------------------------------------*
	.dwcfi	cfa_offset, 0
        PUSH      {A2, A3, A4, LR}      ; [DPU_V7M3_PIPE] 
	.dwcfi	cfa_offset, 16
	.dwcfi	save_reg_to_mem, 14, -4
	.dwcfi	save_reg_to_mem, 3, -8
	.dwcfi	save_reg_to_mem, 2, -12
	.dwcfi	save_reg_to_mem, 1, -16
$C$DW$95	.dwtag  DW_TAG_variable
	.dwattr $C$DW$95, DW_AT_name("param")
	.dwattr $C$DW$95, DW_AT_TI_symbol_name("param")
	.dwattr $C$DW$95, DW_AT_type(*$C$DW$T$3)
	.dwattr $C$DW$95, DW_AT_location[DW_OP_breg13 4]

$C$DW$96	.dwtag  DW_TAG_variable
	.dwattr $C$DW$96, DW_AT_name("button")
	.dwattr $C$DW$96, DW_AT_TI_symbol_name("button")
	.dwattr $C$DW$96, DW_AT_type(*$C$DW$T$102)
	.dwattr $C$DW$96, DW_AT_location[DW_OP_breg13 8]

;----------------------------------------------------------------------
; 109 | tButton button;                                                        
;----------------------------------------------------------------------
        STR       A1, [SP, #4]          ; [DPU_V7M3_PIPE] |108| 
	.dwpsn	file "../uWave.c",line 111,column 11,is_stmt,isa 1
;----------------------------------------------------------------------
; 111 | while(1)                                                               
;----------------------------------------------------------------------
;* --------------------------------------------------------------------------*
;*   BEGIN LOOP ||$C$L6||
;*
;*   Loop source line                : 111
;*   Loop closing brace source line  : 197
;*   Known Minimum Trip Count        : 1
;*   Known Maximum Trip Count        : 4294967295
;*   Known Max Trip Count Factor     : 1
;* --------------------------------------------------------------------------*
||$C$L6||:    
	.dwpsn	file "../uWave.c",line 113,column 9,is_stmt,isa 1
;----------------------------------------------------------------------
; 113 | Debug_PrintString("uWave Task Enter:",0);                              
;----------------------------------------------------------------------
        ADR       A1, $C$SL3            ; [DPU_V7M3_PIPE] |113| 
        MOVS      A2, #0                ; [DPU_V7M3_PIPE] |113| 
$C$DW$97	.dwtag  DW_TAG_TI_branch
	.dwattr $C$DW$97, DW_AT_low_pc(0x00)
	.dwattr $C$DW$97, DW_AT_name("Debug_PrintString")
	.dwattr $C$DW$97, DW_AT_TI_call

        BL        Debug_PrintString     ; [DPU_V7M3_PIPE] |113| 
        ; CALL OCCURS {Debug_PrintString }  ; [] |113| 
	.dwpsn	file "../uWave.c",line 114,column 9,is_stmt,isa 1
;----------------------------------------------------------------------
; 114 | Debug_PrintNumber(xTaskGetTickCount(),1);                              
;----------------------------------------------------------------------
$C$DW$98	.dwtag  DW_TAG_TI_branch
	.dwattr $C$DW$98, DW_AT_low_pc(0x00)
	.dwattr $C$DW$98, DW_AT_name("xTaskGetTickCount")
	.dwattr $C$DW$98, DW_AT_TI_call

        BL        xTaskGetTickCount     ; [DPU_V7M3_PIPE] |114| 
        ; CALL OCCURS {xTaskGetTickCount }  ; [] |114| 
        MOVS      A2, #1                ; [DPU_V7M3_PIPE] |114| 
$C$DW$99	.dwtag  DW_TAG_TI_branch
	.dwattr $C$DW$99, DW_AT_low_pc(0x00)
	.dwattr $C$DW$99, DW_AT_name("Debug_PrintNumber")
	.dwattr $C$DW$99, DW_AT_TI_call

        BL        Debug_PrintNumber     ; [DPU_V7M3_PIPE] |114| 
        ; CALL OCCURS {Debug_PrintNumber }  ; [] |114| 
	.dwpsn	file "../uWave.c",line 116,column 9,is_stmt,isa 1
;----------------------------------------------------------------------
; 116 | xQueueReceive(pressed_btn_q_handle, &button, portMAX_DELAY);           
;----------------------------------------------------------------------
        LDR       A1, $C$CON4           ; [DPU_V7M3_PIPE] |116| 
        LDR       A1, [A1, #0]          ; [DPU_V7M3_PIPE] |116| 
        ADD       A2, SP, #8            ; [DPU_V7M3_PIPE] |116| 
        MOV       A3, #-1               ; [DPU_V7M3_PIPE] |116| 
$C$DW$100	.dwtag  DW_TAG_TI_branch
	.dwattr $C$DW$100, DW_AT_low_pc(0x00)
	.dwattr $C$DW$100, DW_AT_name("xQueueReceive")
	.dwattr $C$DW$100, DW_AT_TI_call

        BL        xQueueReceive         ; [DPU_V7M3_PIPE] |116| 
        ; CALL OCCURS {xQueueReceive }   ; [] |116| 
	.dwpsn	file "../uWave.c",line 118,column 9,is_stmt,isa 1
;----------------------------------------------------------------------
; 118 | switch(UW_State)                                                       
; 120 | case UW_STATE_IDLE:                                                    
;----------------------------------------------------------------------
        B         ||$C$L16||            ; [DPU_V7M3_PIPE] |118| 
        ; BRANCH OCCURS {||$C$L16||}     ; [] |118| 
;* --------------------------------------------------------------------------*
||$C$L7||:    
	.dwpsn	file "../uWave.c",line 121,column 13,is_stmt,isa 1
;----------------------------------------------------------------------
; 121 | if(BUTTON_OK == button)                                                
;----------------------------------------------------------------------
        LDRB      A1, [SP, #8]          ; [DPU_V7M3_PIPE] |121| 
        CMP       A1, #2                ; [DPU_V7M3_PIPE] |121| 
        BNE       ||$C$L17||            ; [DPU_V7M3_PIPE] |121| 
        ; BRANCHCC OCCURS {||$C$L17||}   ; [] |121| 
;* --------------------------------------------------------------------------*
	.dwpsn	file "../uWave.c",line 123,column 17,is_stmt,isa 1
;----------------------------------------------------------------------
; 123 | UW_State = UW_STATE_SET_TIMER;                                         
;----------------------------------------------------------------------
        LDR       A2, $C$CON14          ; [DPU_V7M3_PIPE] |123| 
        MOVS      A1, #1                ; [DPU_V7M3_PIPE] |123| 
        STRB      A1, [A2, #0]          ; [DPU_V7M3_PIPE] |123| 
	.dwpsn	file "../uWave.c",line 124,column 17,is_stmt,isa 1
;----------------------------------------------------------------------
; 124 | UW_SettingTimerCurrSSD = SSD_ONCE;                                     
;----------------------------------------------------------------------
        LDR       A2, $C$CON17          ; [DPU_V7M3_PIPE] |124| 
        MOVS      A1, #0                ; [DPU_V7M3_PIPE] |124| 
        STRB      A1, [A2, #0]          ; [DPU_V7M3_PIPE] |124| 
	.dwpsn	file "../uWave.c",line 125,column 17,is_stmt,isa 1
;----------------------------------------------------------------------
; 125 | SSD_SetBlinkable(UW_SettingTimerCurrSSD,1);                            
;----------------------------------------------------------------------
        LDR       A1, $C$CON17          ; [DPU_V7M3_PIPE] |125| 
        LDRB      A1, [A1, #0]          ; [DPU_V7M3_PIPE] |125| 
        MOVS      A2, #1                ; [DPU_V7M3_PIPE] |125| 
$C$DW$101	.dwtag  DW_TAG_TI_branch
	.dwattr $C$DW$101, DW_AT_low_pc(0x00)
	.dwattr $C$DW$101, DW_AT_name("SSD_SetBlinkable")
	.dwattr $C$DW$101, DW_AT_TI_call

        BL        SSD_SetBlinkable      ; [DPU_V7M3_PIPE] |125| 
        ; CALL OCCURS {SSD_SetBlinkable }  ; [] |125| 
	.dwpsn	file "../uWave.c",line 126,column 17,is_stmt,isa 1
;----------------------------------------------------------------------
; 126 | Sound_Set(SOUND_BEEP);                                                 
;----------------------------------------------------------------------
        MOVS      A1, #0                ; [DPU_V7M3_PIPE] |126| 
$C$DW$102	.dwtag  DW_TAG_TI_branch
	.dwattr $C$DW$102, DW_AT_low_pc(0x00)
	.dwattr $C$DW$102, DW_AT_name("Sound_Set")
	.dwattr $C$DW$102, DW_AT_TI_call

        BL        Sound_Set             ; [DPU_V7M3_PIPE] |126| 
        ; CALL OCCURS {Sound_Set }       ; [] |126| 
	.dwpsn	file "../uWave.c",line 128,column 13,is_stmt,isa 1
;----------------------------------------------------------------------
; 128 | break;                                                                 
; 129 | case UW_STATE_SET_TIMER:                                               
;----------------------------------------------------------------------
        B         ||$C$L17||            ; [DPU_V7M3_PIPE] |128| 
        ; BRANCH OCCURS {||$C$L17||}     ; [] |128| 
;* --------------------------------------------------------------------------*
||$C$L8||:    
	.dwpsn	file "../uWave.c",line 130,column 13,is_stmt,isa 1
;----------------------------------------------------------------------
; 130 | if(BUTTON_UP == button)                                                
;----------------------------------------------------------------------
        LDRB      A1, [SP, #8]          ; [DPU_V7M3_PIPE] |130| 
        CBNZ      A1, ||$C$L10||        ; [] 
        ; BRANCHCC OCCURS {||$C$L10||}   ; [] |130| 
;* --------------------------------------------------------------------------*
	.dwpsn	file "../uWave.c",line 132,column 17,is_stmt,isa 1
;----------------------------------------------------------------------
; 132 | if(UW_SetTimerDigits[UW_SettingTimerCurrSSD] < SSD_NUMBER_NINE)        
;----------------------------------------------------------------------
        LDR       A1, $C$CON17          ; [DPU_V7M3_PIPE] |132| 
        LDR       A2, $C$CON15          ; [DPU_V7M3_PIPE] |132| 
        LDRB      A1, [A1, #0]          ; [DPU_V7M3_PIPE] |132| 
        LDRB      A1, [A2, +A1]         ; [DPU_V7M3_PIPE] |132| 
        CMP       A1, #9                ; [DPU_V7M3_PIPE] |132| 
        BGE       ||$C$L9||             ; [DPU_V7M3_PIPE] |132| 
        ; BRANCHCC OCCURS {||$C$L9||}    ; [] |132| 
;* --------------------------------------------------------------------------*
	.dwpsn	file "../uWave.c",line 134,column 21,is_stmt,isa 1
;----------------------------------------------------------------------
; 134 | UW_SetTimerDigits[UW_SettingTimerCurrSSD]++;                           
;----------------------------------------------------------------------
        LDR       A1, $C$CON17          ; [DPU_V7M3_PIPE] |134| 
        LDR       A3, $C$CON15          ; [DPU_V7M3_PIPE] |134| 
        LDRB      A2, [A1, #0]          ; [DPU_V7M3_PIPE] |134| 
        LDRB      A1, [A2, +A3]         ; [DPU_V7M3_PIPE] |134| 
        ADDS      A1, A1, #1            ; [DPU_V7M3_PIPE] |134| 
        STRB      A1, [A2, +A3]         ; [DPU_V7M3_PIPE] |134| 
	.dwpsn	file "../uWave.c",line 136,column 21,is_stmt,isa 1
;----------------------------------------------------------------------
; 136 | SSD_SetSymbol(UW_SettingTimerCurrSSD,UW_SetTimerDigits[UW_SettingTimerC
;     | urrSSD]);                                                              
;----------------------------------------------------------------------
        LDR       A1, $C$CON17          ; [DPU_V7M3_PIPE] |136| 
        LDR       A2, $C$CON17          ; [DPU_V7M3_PIPE] |136| 
        LDR       A3, $C$CON15          ; [DPU_V7M3_PIPE] |136| 
        LDRB      A2, [A2, #0]          ; [DPU_V7M3_PIPE] |136| 
        LDRB      A1, [A1, #0]          ; [DPU_V7M3_PIPE] |136| 
        LDRB      A2, [A3, +A2]         ; [DPU_V7M3_PIPE] |136| 
$C$DW$103	.dwtag  DW_TAG_TI_branch
	.dwattr $C$DW$103, DW_AT_low_pc(0x00)
	.dwattr $C$DW$103, DW_AT_name("SSD_SetSymbol")
	.dwattr $C$DW$103, DW_AT_TI_call

        BL        SSD_SetSymbol         ; [DPU_V7M3_PIPE] |136| 
        ; CALL OCCURS {SSD_SetSymbol }   ; [] |136| 
;* --------------------------------------------------------------------------*
||$C$L9||:    
	.dwpsn	file "../uWave.c",line 139,column 17,is_stmt,isa 1
;----------------------------------------------------------------------
; 139 | Sound_Set(SOUND_BEEP);                                                 
;----------------------------------------------------------------------
        MOVS      A1, #0                ; [DPU_V7M3_PIPE] |139| 
$C$DW$104	.dwtag  DW_TAG_TI_branch
	.dwattr $C$DW$104, DW_AT_low_pc(0x00)
	.dwattr $C$DW$104, DW_AT_name("Sound_Set")
	.dwattr $C$DW$104, DW_AT_TI_call

        BL        Sound_Set             ; [DPU_V7M3_PIPE] |139| 
        ; CALL OCCURS {Sound_Set }       ; [] |139| 
	.dwpsn	file "../uWave.c",line 140,column 13,is_stmt,isa 1
        B         ||$C$L17||            ; [DPU_V7M3_PIPE] |140| 
        ; BRANCH OCCURS {||$C$L17||}     ; [] |140| 
;* --------------------------------------------------------------------------*
||$C$L10||:    
	.dwpsn	file "../uWave.c",line 141,column 18,is_stmt,isa 1
;----------------------------------------------------------------------
; 141 | else if(BUTTON_DOWN == button)                                         
;----------------------------------------------------------------------
        LDRB      A1, [SP, #8]          ; [DPU_V7M3_PIPE] |141| 
        CMP       A1, #1                ; [DPU_V7M3_PIPE] |141| 
        BNE       ||$C$L12||            ; [DPU_V7M3_PIPE] |141| 
        ; BRANCHCC OCCURS {||$C$L12||}   ; [] |141| 
;* --------------------------------------------------------------------------*
	.dwpsn	file "../uWave.c",line 143,column 17,is_stmt,isa 1
;----------------------------------------------------------------------
; 143 | if(UW_SetTimerDigits[UW_SettingTimerCurrSSD] > SSD_NUMBER_ZERO)        
;----------------------------------------------------------------------
        LDR       A1, $C$CON17          ; [DPU_V7M3_PIPE] |143| 
        LDR       A2, $C$CON15          ; [DPU_V7M3_PIPE] |143| 
        LDRB      A1, [A1, #0]          ; [DPU_V7M3_PIPE] |143| 
        LDRB      A1, [A2, +A1]         ; [DPU_V7M3_PIPE] |143| 
        CMP       A1, #0                ; [DPU_V7M3_PIPE] |143| 
        BLE       ||$C$L11||            ; [DPU_V7M3_PIPE] |143| 
        ; BRANCHCC OCCURS {||$C$L11||}   ; [] |143| 
;* --------------------------------------------------------------------------*
	.dwpsn	file "../uWave.c",line 145,column 21,is_stmt,isa 1
;----------------------------------------------------------------------
; 145 | UW_SetTimerDigits[UW_SettingTimerCurrSSD]--;                           
;----------------------------------------------------------------------
        LDR       A1, $C$CON17          ; [DPU_V7M3_PIPE] |145| 
        LDR       A3, $C$CON15          ; [DPU_V7M3_PIPE] |145| 
        LDRB      A2, [A1, #0]          ; [DPU_V7M3_PIPE] |145| 
        LDRB      A1, [A2, +A3]         ; [DPU_V7M3_PIPE] |145| 
        SUBS      A1, A1, #1            ; [DPU_V7M3_PIPE] |145| 
        STRB      A1, [A2, +A3]         ; [DPU_V7M3_PIPE] |145| 
	.dwpsn	file "../uWave.c",line 147,column 21,is_stmt,isa 1
;----------------------------------------------------------------------
; 147 | SSD_SetSymbol(UW_SettingTimerCurrSSD,UW_SetTimerDigits[UW_SettingTimerC
;     | urrSSD]);                                                              
;----------------------------------------------------------------------
        LDR       A1, $C$CON17          ; [DPU_V7M3_PIPE] |147| 
        LDR       A2, $C$CON17          ; [DPU_V7M3_PIPE] |147| 
        LDR       A3, $C$CON15          ; [DPU_V7M3_PIPE] |147| 
        LDRB      A2, [A2, #0]          ; [DPU_V7M3_PIPE] |147| 
        LDRB      A1, [A1, #0]          ; [DPU_V7M3_PIPE] |147| 
        LDRB      A2, [A3, +A2]         ; [DPU_V7M3_PIPE] |147| 
$C$DW$105	.dwtag  DW_TAG_TI_branch
	.dwattr $C$DW$105, DW_AT_low_pc(0x00)
	.dwattr $C$DW$105, DW_AT_name("SSD_SetSymbol")
	.dwattr $C$DW$105, DW_AT_TI_call

        BL        SSD_SetSymbol         ; [DPU_V7M3_PIPE] |147| 
        ; CALL OCCURS {SSD_SetSymbol }   ; [] |147| 
;* --------------------------------------------------------------------------*
||$C$L11||:    
	.dwpsn	file "../uWave.c",line 150,column 17,is_stmt,isa 1
;----------------------------------------------------------------------
; 150 | Sound_Set(SOUND_BEEP);                                                 
;----------------------------------------------------------------------
        MOVS      A1, #0                ; [DPU_V7M3_PIPE] |150| 
$C$DW$106	.dwtag  DW_TAG_TI_branch
	.dwattr $C$DW$106, DW_AT_low_pc(0x00)
	.dwattr $C$DW$106, DW_AT_name("Sound_Set")
	.dwattr $C$DW$106, DW_AT_TI_call

        BL        Sound_Set             ; [DPU_V7M3_PIPE] |150| 
        ; CALL OCCURS {Sound_Set }       ; [] |150| 
	.dwpsn	file "../uWave.c",line 151,column 13,is_stmt,isa 1
        B         ||$C$L17||            ; [DPU_V7M3_PIPE] |151| 
        ; BRANCH OCCURS {||$C$L17||}     ; [] |151| 
;* --------------------------------------------------------------------------*
||$C$L12||:    
	.dwpsn	file "../uWave.c",line 152,column 18,is_stmt,isa 1
;----------------------------------------------------------------------
; 152 | else if(BUTTON_OK == button)                                           
;----------------------------------------------------------------------
        LDRB      A1, [SP, #8]          ; [DPU_V7M3_PIPE] |152| 
        CMP       A1, #2                ; [DPU_V7M3_PIPE] |152| 
        BNE       ||$C$L17||            ; [DPU_V7M3_PIPE] |152| 
        ; BRANCHCC OCCURS {||$C$L17||}   ; [] |152| 
;* --------------------------------------------------------------------------*
	.dwpsn	file "../uWave.c",line 154,column 17,is_stmt,isa 1
;----------------------------------------------------------------------
; 154 | SSD_SetBlinkable(UW_SettingTimerCurrSSD,0);                            
;----------------------------------------------------------------------
        LDR       A1, $C$CON17          ; [DPU_V7M3_PIPE] |154| 
        LDRB      A1, [A1, #0]          ; [DPU_V7M3_PIPE] |154| 
        MOVS      A2, #0                ; [DPU_V7M3_PIPE] |154| 
$C$DW$107	.dwtag  DW_TAG_TI_branch
	.dwattr $C$DW$107, DW_AT_low_pc(0x00)
	.dwattr $C$DW$107, DW_AT_name("SSD_SetBlinkable")
	.dwattr $C$DW$107, DW_AT_TI_call

        BL        SSD_SetBlinkable      ; [DPU_V7M3_PIPE] |154| 
        ; CALL OCCURS {SSD_SetBlinkable }  ; [] |154| 
	.dwpsn	file "../uWave.c",line 156,column 17,is_stmt,isa 1
;----------------------------------------------------------------------
; 156 | UW_SettingTimerCurrSSD++;                                              
;----------------------------------------------------------------------
        LDR       A2, $C$CON17          ; [DPU_V7M3_PIPE] |156| 
        LDRB      A1, [A2, #0]          ; [DPU_V7M3_PIPE] |156| 
        ADDS      A1, A1, #1            ; [DPU_V7M3_PIPE] |156| 
        STRB      A1, [A2, #0]          ; [DPU_V7M3_PIPE] |156| 
	.dwpsn	file "../uWave.c",line 158,column 17,is_stmt,isa 1
;----------------------------------------------------------------------
; 158 | if(UW_SettingTimerCurrSSD > SSD_TENTH)                                 
;----------------------------------------------------------------------
        LDR       A1, $C$CON17          ; [DPU_V7M3_PIPE] |158| 
        LDRB      A1, [A1, #0]          ; [DPU_V7M3_PIPE] |158| 
        CMP       A1, #1                ; [DPU_V7M3_PIPE] |158| 
        BLE       ||$C$L13||            ; [DPU_V7M3_PIPE] |158| 
        ; BRANCHCC OCCURS {||$C$L13||}   ; [] |158| 
;* --------------------------------------------------------------------------*
	.dwpsn	file "../uWave.c",line 160,column 21,is_stmt,isa 1
;----------------------------------------------------------------------
; 160 | UW_State = UW_STATE_HEATING;                                           
;----------------------------------------------------------------------
        LDR       A2, $C$CON14          ; [DPU_V7M3_PIPE] |160| 
        MOVS      A1, #2                ; [DPU_V7M3_PIPE] |160| 
        STRB      A1, [A2, #0]          ; [DPU_V7M3_PIPE] |160| 
	.dwpsn	file "../uWave.c",line 161,column 21,is_stmt,isa 1
;----------------------------------------------------------------------
; 161 | SSD_SetBlinkable(UW_SettingTimerCurrSSD,0);                            
;----------------------------------------------------------------------
        LDR       A1, $C$CON17          ; [DPU_V7M3_PIPE] |161| 
        LDRB      A1, [A1, #0]          ; [DPU_V7M3_PIPE] |161| 
        MOVS      A2, #0                ; [DPU_V7M3_PIPE] |161| 
$C$DW$108	.dwtag  DW_TAG_TI_branch
	.dwattr $C$DW$108, DW_AT_low_pc(0x00)
	.dwattr $C$DW$108, DW_AT_name("SSD_SetBlinkable")
	.dwattr $C$DW$108, DW_AT_TI_call

        BL        SSD_SetBlinkable      ; [DPU_V7M3_PIPE] |161| 
        ; CALL OCCURS {SSD_SetBlinkable }  ; [] |161| 
	.dwpsn	file "../uWave.c",line 162,column 21,is_stmt,isa 1
;----------------------------------------------------------------------
; 162 | Heater_SetState(HEATER_ON);                                            
;----------------------------------------------------------------------
        MOVS      A1, #1                ; [DPU_V7M3_PIPE] |162| 
$C$DW$109	.dwtag  DW_TAG_TI_branch
	.dwattr $C$DW$109, DW_AT_low_pc(0x00)
	.dwattr $C$DW$109, DW_AT_name("Heater_SetState")
	.dwattr $C$DW$109, DW_AT_TI_call

        BL        Heater_SetState       ; [DPU_V7M3_PIPE] |162| 
        ; CALL OCCURS {Heater_SetState }  ; [] |162| 
	.dwpsn	file "../uWave.c",line 164,column 21,is_stmt,isa 1
;----------------------------------------------------------------------
; 164 | UW_CurrTimerDigits[SSD_ONCE] = UW_SetTimerDigits[SSD_ONCE];            
;----------------------------------------------------------------------
        LDR       A1, $C$CON15          ; [DPU_V7M3_PIPE] |164| 
        LDR       A2, $C$CON11          ; [DPU_V7M3_PIPE] |164| 
        LDRB      A1, [A1, #0]          ; [DPU_V7M3_PIPE] |164| 
        STRB      A1, [A2, #0]          ; [DPU_V7M3_PIPE] |164| 
	.dwpsn	file "../uWave.c",line 165,column 21,is_stmt,isa 1
;----------------------------------------------------------------------
; 165 | UW_CurrTimerDigits[SSD_TENTH] = UW_SetTimerDigits[SSD_TENTH];          
;----------------------------------------------------------------------
        LDR       A1, $C$CON16          ; [DPU_V7M3_PIPE] |165| 
        LDR       A2, $C$CON12          ; [DPU_V7M3_PIPE] |165| 
        LDRB      A1, [A1, #0]          ; [DPU_V7M3_PIPE] |165| 
        STRB      A1, [A2, #0]          ; [DPU_V7M3_PIPE] |165| 
	.dwpsn	file "../uWave.c",line 168,column 21,is_stmt,isa 1
;----------------------------------------------------------------------
; 168 | xTimerStart(heating_timer_handle,portMAX_DELAY);                       
;----------------------------------------------------------------------
$C$DW$110	.dwtag  DW_TAG_TI_branch
	.dwattr $C$DW$110, DW_AT_low_pc(0x00)
	.dwattr $C$DW$110, DW_AT_name("xTaskGetTickCount")
	.dwattr $C$DW$110, DW_AT_TI_call

        BL        xTaskGetTickCount     ; [DPU_V7M3_PIPE] |168| 
        ; CALL OCCURS {xTaskGetTickCount }  ; [] |168| 
        MOV       A2, #-1               ; [DPU_V7M3_PIPE] |168| 
        MOV       A3, A1                ; [DPU_V7M3_PIPE] |168| 
        LDR       A1, $C$CON7           ; [DPU_V7M3_PIPE] |168| 
        STR       A2, [SP, #0]          ; [DPU_V7M3_PIPE] |168| 
        LDR       A1, [A1, #0]          ; [DPU_V7M3_PIPE] |168| 
        MOVS      A4, #0                ; [DPU_V7M3_PIPE] |168| 
        MOVS      A2, #1                ; [DPU_V7M3_PIPE] |168| 
$C$DW$111	.dwtag  DW_TAG_TI_branch
	.dwattr $C$DW$111, DW_AT_low_pc(0x00)
	.dwattr $C$DW$111, DW_AT_name("xTimerGenericCommand")
	.dwattr $C$DW$111, DW_AT_TI_call

        BL        xTimerGenericCommand  ; [DPU_V7M3_PIPE] |168| 
        ; CALL OCCURS {xTimerGenericCommand }  ; [] |168| 
	.dwpsn	file "../uWave.c",line 169,column 17,is_stmt,isa 1
;----------------------------------------------------------------------
; 170 | else                                                                   
;----------------------------------------------------------------------
        B         ||$C$L14||            ; [DPU_V7M3_PIPE] |169| 
        ; BRANCH OCCURS {||$C$L14||}     ; [] |169| 
;* --------------------------------------------------------------------------*
||$C$L13||:    
	.dwpsn	file "../uWave.c",line 172,column 21,is_stmt,isa 1
;----------------------------------------------------------------------
; 172 | SSD_SetBlinkable(UW_SettingTimerCurrSSD,1);                            
;----------------------------------------------------------------------
        LDR       A1, $C$CON17          ; [DPU_V7M3_PIPE] |172| 
        LDRB      A1, [A1, #0]          ; [DPU_V7M3_PIPE] |172| 
        MOVS      A2, #1                ; [DPU_V7M3_PIPE] |172| 
$C$DW$112	.dwtag  DW_TAG_TI_branch
	.dwattr $C$DW$112, DW_AT_low_pc(0x00)
	.dwattr $C$DW$112, DW_AT_name("SSD_SetBlinkable")
	.dwattr $C$DW$112, DW_AT_TI_call

        BL        SSD_SetBlinkable      ; [DPU_V7M3_PIPE] |172| 
        ; CALL OCCURS {SSD_SetBlinkable }  ; [] |172| 
;* --------------------------------------------------------------------------*
||$C$L14||:    
	.dwpsn	file "../uWave.c",line 175,column 17,is_stmt,isa 1
;----------------------------------------------------------------------
; 175 | Sound_Set(SOUND_BEEP);                                                 
;----------------------------------------------------------------------
        MOVS      A1, #0                ; [DPU_V7M3_PIPE] |175| 
$C$DW$113	.dwtag  DW_TAG_TI_branch
	.dwattr $C$DW$113, DW_AT_low_pc(0x00)
	.dwattr $C$DW$113, DW_AT_name("Sound_Set")
	.dwattr $C$DW$113, DW_AT_TI_call

        BL        Sound_Set             ; [DPU_V7M3_PIPE] |175| 
        ; CALL OCCURS {Sound_Set }       ; [] |175| 
	.dwpsn	file "../uWave.c",line 177,column 13,is_stmt,isa 1
;----------------------------------------------------------------------
; 177 | break;                                                                 
; 178 | case UW_STATE_HEATING:                                                 
;----------------------------------------------------------------------
        B         ||$C$L17||            ; [DPU_V7M3_PIPE] |177| 
        ; BRANCH OCCURS {||$C$L17||}     ; [] |177| 
;* --------------------------------------------------------------------------*
||$C$L15||:    
	.dwpsn	file "../uWave.c",line 179,column 13,is_stmt,isa 1
;----------------------------------------------------------------------
; 179 | if(BUTTON_OK == button)                                                
;----------------------------------------------------------------------
        LDRB      A1, [SP, #8]          ; [DPU_V7M3_PIPE] |179| 
        CMP       A1, #2                ; [DPU_V7M3_PIPE] |179| 
        BNE       ||$C$L17||            ; [DPU_V7M3_PIPE] |179| 
        ; BRANCHCC OCCURS {||$C$L17||}   ; [] |179| 
;* --------------------------------------------------------------------------*
	.dwpsn	file "../uWave.c",line 181,column 17,is_stmt,isa 1
;----------------------------------------------------------------------
; 181 | UW_State = UW_STATE_IDLE;                                              
;----------------------------------------------------------------------
        LDR       A2, $C$CON14          ; [DPU_V7M3_PIPE] |181| 
        MOVS      A1, #0                ; [DPU_V7M3_PIPE] |181| 
        STRB      A1, [A2, #0]          ; [DPU_V7M3_PIPE] |181| 
	.dwpsn	file "../uWave.c",line 183,column 17,is_stmt,isa 1
;----------------------------------------------------------------------
; 183 | SSD_SetSymbol(SSD_ONCE,UW_SetTimerDigits[SSD_ONCE]);                   
;----------------------------------------------------------------------
        LDR       A1, $C$CON15          ; [DPU_V7M3_PIPE] |183| 
        LDRB      A2, [A1, #0]          ; [DPU_V7M3_PIPE] |183| 
        MOVS      A1, #0                ; [DPU_V7M3_PIPE] |183| 
$C$DW$114	.dwtag  DW_TAG_TI_branch
	.dwattr $C$DW$114, DW_AT_low_pc(0x00)
	.dwattr $C$DW$114, DW_AT_name("SSD_SetSymbol")
	.dwattr $C$DW$114, DW_AT_TI_call

        BL        SSD_SetSymbol         ; [DPU_V7M3_PIPE] |183| 
        ; CALL OCCURS {SSD_SetSymbol }   ; [] |183| 
	.dwpsn	file "../uWave.c",line 184,column 17,is_stmt,isa 1
;----------------------------------------------------------------------
; 184 | SSD_SetSymbol(SSD_TENTH,UW_SetTimerDigits[SSD_TENTH]);                 
;----------------------------------------------------------------------
        LDR       A1, $C$CON16          ; [DPU_V7M3_PIPE] |184| 
        LDRB      A2, [A1, #0]          ; [DPU_V7M3_PIPE] |184| 
        MOVS      A1, #1                ; [DPU_V7M3_PIPE] |184| 
$C$DW$115	.dwtag  DW_TAG_TI_branch
	.dwattr $C$DW$115, DW_AT_low_pc(0x00)
	.dwattr $C$DW$115, DW_AT_name("SSD_SetSymbol")
	.dwattr $C$DW$115, DW_AT_TI_call

        BL        SSD_SetSymbol         ; [DPU_V7M3_PIPE] |184| 
        ; CALL OCCURS {SSD_SetSymbol }   ; [] |184| 
	.dwpsn	file "../uWave.c",line 186,column 17,is_stmt,isa 1
;----------------------------------------------------------------------
; 186 | Heater_SetState(HEATER_OFF);                                           
;----------------------------------------------------------------------
        MOVS      A1, #0                ; [DPU_V7M3_PIPE] |186| 
$C$DW$116	.dwtag  DW_TAG_TI_branch
	.dwattr $C$DW$116, DW_AT_low_pc(0x00)
	.dwattr $C$DW$116, DW_AT_name("Heater_SetState")
	.dwattr $C$DW$116, DW_AT_TI_call

        BL        Heater_SetState       ; [DPU_V7M3_PIPE] |186| 
        ; CALL OCCURS {Heater_SetState }  ; [] |186| 
	.dwpsn	file "../uWave.c",line 188,column 17,is_stmt,isa 1
;----------------------------------------------------------------------
; 188 | Sound_Set(SOUND_BEEP);                                                 
;----------------------------------------------------------------------
        MOVS      A1, #0                ; [DPU_V7M3_PIPE] |188| 
$C$DW$117	.dwtag  DW_TAG_TI_branch
	.dwattr $C$DW$117, DW_AT_low_pc(0x00)
	.dwattr $C$DW$117, DW_AT_name("Sound_Set")
	.dwattr $C$DW$117, DW_AT_TI_call

        BL        Sound_Set             ; [DPU_V7M3_PIPE] |188| 
        ; CALL OCCURS {Sound_Set }       ; [] |188| 
	.dwpsn	file "../uWave.c",line 190,column 17,is_stmt,isa 1
;----------------------------------------------------------------------
; 190 | xTimerStop(heating_timer_handle,portMAX_DELAY);                        
;----------------------------------------------------------------------
        MOV       A2, #-1               ; [DPU_V7M3_PIPE] |190| 
        LDR       A1, $C$CON7           ; [DPU_V7M3_PIPE] |190| 
        STR       A2, [SP, #0]          ; [DPU_V7M3_PIPE] |190| 
        LDR       A1, [A1, #0]          ; [DPU_V7M3_PIPE] |190| 
        MOVS      A3, #0                ; [DPU_V7M3_PIPE] |190| 
        MOVS      A4, #0                ; [DPU_V7M3_PIPE] |190| 
        MOVS      A2, #3                ; [DPU_V7M3_PIPE] |190| 
$C$DW$118	.dwtag  DW_TAG_TI_branch
	.dwattr $C$DW$118, DW_AT_low_pc(0x00)
	.dwattr $C$DW$118, DW_AT_name("xTimerGenericCommand")
	.dwattr $C$DW$118, DW_AT_TI_call

        BL        xTimerGenericCommand  ; [DPU_V7M3_PIPE] |190| 
        ; CALL OCCURS {xTimerGenericCommand }  ; [] |190| 
	.dwpsn	file "../uWave.c",line 192,column 13,is_stmt,isa 1
;----------------------------------------------------------------------
; 192 | break;                                                                 
;----------------------------------------------------------------------
        B         ||$C$L17||            ; [DPU_V7M3_PIPE] |192| 
        ; BRANCH OCCURS {||$C$L17||}     ; [] |192| 
;* --------------------------------------------------------------------------*
;* --------------------------------------------------------------------------*
||$C$L16||:    
	.dwpsn	file "../uWave.c",line 118,column 9,is_stmt,isa 1
        LDR       A1, $C$CON14          ; [DPU_V7M3_PIPE] |118| 
        LDRB      A1, [A1, #0]          ; [DPU_V7M3_PIPE] |118| 
        CMP       A1, #0                ; [DPU_V7M3_PIPE] |118| 
        BEQ       ||$C$L7||             ; [DPU_V7M3_PIPE] |118| 
        ; BRANCHCC OCCURS {||$C$L7||}    ; [] |118| 
;* --------------------------------------------------------------------------*
        SUBS      A1, A1, #1            ; [DPU_V7M3_PIPE] |118| 
        BEQ       ||$C$L8||             ; [DPU_V7M3_PIPE] |118| 
        ; BRANCHCC OCCURS {||$C$L8||}    ; [] |118| 
;* --------------------------------------------------------------------------*
        SUBS      A1, A1, #1            ; [DPU_V7M3_PIPE] |118| 
        BEQ       ||$C$L15||            ; [DPU_V7M3_PIPE] |118| 
        ; BRANCHCC OCCURS {||$C$L15||}   ; [] |118| 
;* --------------------------------------------------------------------------*
||$C$L17||:    
	.dwpsn	file "../uWave.c",line 195,column 9,is_stmt,isa 1
;----------------------------------------------------------------------
; 195 | Debug_PrintString("uWave Task Exit:",0);                               
;----------------------------------------------------------------------
        ADR       A1, $C$SL4            ; [DPU_V7M3_PIPE] |195| 
        MOVS      A2, #0                ; [DPU_V7M3_PIPE] |195| 
$C$DW$119	.dwtag  DW_TAG_TI_branch
	.dwattr $C$DW$119, DW_AT_low_pc(0x00)
	.dwattr $C$DW$119, DW_AT_name("Debug_PrintString")
	.dwattr $C$DW$119, DW_AT_TI_call

        BL        Debug_PrintString     ; [DPU_V7M3_PIPE] |195| 
        ; CALL OCCURS {Debug_PrintString }  ; [] |195| 
	.dwpsn	file "../uWave.c",line 196,column 9,is_stmt,isa 1
;----------------------------------------------------------------------
; 196 | Debug_PrintNumber(xTaskGetTickCount(),1);                              
;----------------------------------------------------------------------
$C$DW$120	.dwtag  DW_TAG_TI_branch
	.dwattr $C$DW$120, DW_AT_low_pc(0x00)
	.dwattr $C$DW$120, DW_AT_name("xTaskGetTickCount")
	.dwattr $C$DW$120, DW_AT_TI_call

        BL        xTaskGetTickCount     ; [DPU_V7M3_PIPE] |196| 
        ; CALL OCCURS {xTaskGetTickCount }  ; [] |196| 
        MOVS      A2, #1                ; [DPU_V7M3_PIPE] |196| 
$C$DW$121	.dwtag  DW_TAG_TI_branch
	.dwattr $C$DW$121, DW_AT_low_pc(0x00)
	.dwattr $C$DW$121, DW_AT_name("Debug_PrintNumber")
	.dwattr $C$DW$121, DW_AT_TI_call

        BL        Debug_PrintNumber     ; [DPU_V7M3_PIPE] |196| 
        ; CALL OCCURS {Debug_PrintNumber }  ; [] |196| 
	.dwpsn	file "../uWave.c",line 111,column 11,is_stmt,isa 1
        B         ||$C$L6||             ; [DPU_V7M3_PIPE] |111| 
        ; BRANCH OCCURS {||$C$L6||}      ; [] |111| 
;* --------------------------------------------------------------------------*
	.dwattr $C$DW$93, DW_AT_TI_end_file("../uWave.c")
	.dwattr $C$DW$93, DW_AT_TI_end_line(0xc6)
	.dwattr $C$DW$93, DW_AT_TI_end_column(0x01)
	.dwendentry
	.dwendtag $C$DW$93

;******************************************************************************
;* STRINGS                                                                    *
;******************************************************************************
	.sect	".text"
	.align	4
||$C$SL1||:	.string	"UW",0
	.align	4
||$C$SL2||:	.string	"heating_timer",0
	.align	4
||$C$SL3||:	.string	"uWave Task Enter:",0
	.align	4
||$C$SL4||:	.string	"uWave Task Exit:",0
;******************************************************************************
;* CONSTANT TABLE                                                             *
;******************************************************************************
	.sect	".text"
	.align	4
||$C$CON4||:	.bits	pressed_btn_q_handle,32
	.align	4
||$C$CON5||:	.bits	pressed_btn_q_buffer,32
	.align	4
||$C$CON6||:	.bits	pressed_btn_q_ds,32
	.align	4
||$C$CON7||:	.bits	heating_timer_handle,32
	.align	4
||$C$CON8||:	.bits	heating_timer_callback,32
	.align	4
||$C$CON9||:	.bits	heating_timer_ds,32
	.align	4
||$C$CON10||:	.bits	isFinished$1,32
	.align	4
||$C$CON11||:	.bits	UW_CurrTimerDigits,32
	.align	4
||$C$CON12||:	.bits	UW_CurrTimerDigits+1,32
	.align	4
||$C$CON13||:	.bits	post_scaler_counter$2,32
	.align	4
||$C$CON14||:	.bits	UW_State,32
	.align	4
||$C$CON15||:	.bits	UW_SetTimerDigits,32
	.align	4
||$C$CON16||:	.bits	UW_SetTimerDigits+1,32
	.align	4
||$C$CON17||:	.bits	UW_SettingTimerCurrSSD,32
;*****************************************************************************
;* UNDEFINED EXTERNAL REFERENCES                                             *
;*****************************************************************************
	.global	xTaskCreateStatic
	.global	xQueueGenericCreateStatic
	.global	xTimerCreateStatic
	.global	xQueueGenericSend
	.global	SSD_SetSymbol
	.global	Sound_Set
	.global	Heater_SetState
	.global	SSD_SetBlinkable
	.global	xTimerGenericCommand
	.global	Debug_PrintString
	.global	Debug_PrintNumber
	.global	xTaskGetTickCount
	.global	xQueueReceive

;******************************************************************************
;* BUILD ATTRIBUTES                                                           *
;******************************************************************************
	.battr "aeabi", Tag_File, 1, Tag_ABI_PCS_wchar_t(2)
	.battr "aeabi", Tag_File, 1, Tag_ABI_FP_rounding(0)
	.battr "aeabi", Tag_File, 1, Tag_ABI_FP_denormal(0)
	.battr "aeabi", Tag_File, 1, Tag_ABI_FP_exceptions(0)
	.battr "aeabi", Tag_File, 1, Tag_ABI_FP_number_model(1)
	.battr "aeabi", Tag_File, 1, Tag_ABI_enum_size(1)
	.battr "aeabi", Tag_File, 1, Tag_ABI_optimization_goals(5)
	.battr "aeabi", Tag_File, 1, Tag_ABI_FP_optimization_goals(0)
	.battr "TI", Tag_File, 1, Tag_Bitfield_layout(2)
	.battr "aeabi", Tag_File, 1, Tag_ABI_VFP_args(3)
	.battr "TI", Tag_File, 1, Tag_FP_interface(1)

;******************************************************************************
;* TYPE INFORMATION                                                           *
;******************************************************************************

$C$DW$T$86	.dwtag  DW_TAG_enumeration_type
	.dwattr $C$DW$T$86, DW_AT_byte_size(0x01)
$C$DW$122	.dwtag  DW_TAG_enumerator
	.dwattr $C$DW$122, DW_AT_name("eRunning")
	.dwattr $C$DW$122, DW_AT_const_value(0x00)
	.dwattr $C$DW$122, DW_AT_decl_file("../OS/task.h")
	.dwattr $C$DW$122, DW_AT_decl_line(0x49)
	.dwattr $C$DW$122, DW_AT_decl_column(0x02)

$C$DW$123	.dwtag  DW_TAG_enumerator
	.dwattr $C$DW$123, DW_AT_name("eReady")
	.dwattr $C$DW$123, DW_AT_const_value(0x01)
	.dwattr $C$DW$123, DW_AT_decl_file("../OS/task.h")
	.dwattr $C$DW$123, DW_AT_decl_line(0x4a)
	.dwattr $C$DW$123, DW_AT_decl_column(0x02)

$C$DW$124	.dwtag  DW_TAG_enumerator
	.dwattr $C$DW$124, DW_AT_name("eBlocked")
	.dwattr $C$DW$124, DW_AT_const_value(0x02)
	.dwattr $C$DW$124, DW_AT_decl_file("../OS/task.h")
	.dwattr $C$DW$124, DW_AT_decl_line(0x4b)
	.dwattr $C$DW$124, DW_AT_decl_column(0x02)

$C$DW$125	.dwtag  DW_TAG_enumerator
	.dwattr $C$DW$125, DW_AT_name("eSuspended")
	.dwattr $C$DW$125, DW_AT_const_value(0x03)
	.dwattr $C$DW$125, DW_AT_decl_file("../OS/task.h")
	.dwattr $C$DW$125, DW_AT_decl_line(0x4c)
	.dwattr $C$DW$125, DW_AT_decl_column(0x02)

$C$DW$126	.dwtag  DW_TAG_enumerator
	.dwattr $C$DW$126, DW_AT_name("eDeleted")
	.dwattr $C$DW$126, DW_AT_const_value(0x04)
	.dwattr $C$DW$126, DW_AT_decl_file("../OS/task.h")
	.dwattr $C$DW$126, DW_AT_decl_line(0x4d)
	.dwattr $C$DW$126, DW_AT_decl_column(0x02)

$C$DW$127	.dwtag  DW_TAG_enumerator
	.dwattr $C$DW$127, DW_AT_name("eInvalid")
	.dwattr $C$DW$127, DW_AT_const_value(0x05)
	.dwattr $C$DW$127, DW_AT_decl_file("../OS/task.h")
	.dwattr $C$DW$127, DW_AT_decl_line(0x4e)
	.dwattr $C$DW$127, DW_AT_decl_column(0x02)

	.dwattr $C$DW$T$86, DW_AT_decl_file("../OS/task.h")
	.dwattr $C$DW$T$86, DW_AT_decl_line(0x48)
	.dwattr $C$DW$T$86, DW_AT_decl_column(0x01)
	.dwendtag $C$DW$T$86

$C$DW$T$87	.dwtag  DW_TAG_typedef
	.dwattr $C$DW$T$87, DW_AT_name("eTaskState")
	.dwattr $C$DW$T$87, DW_AT_type(*$C$DW$T$86)
	.dwattr $C$DW$T$87, DW_AT_language(DW_LANG_C)
	.dwattr $C$DW$T$87, DW_AT_decl_file("../OS/task.h")
	.dwattr $C$DW$T$87, DW_AT_decl_line(0x4f)
	.dwattr $C$DW$T$87, DW_AT_decl_column(0x03)


$C$DW$T$91	.dwtag  DW_TAG_enumeration_type
	.dwattr $C$DW$T$91, DW_AT_byte_size(0x01)
$C$DW$128	.dwtag  DW_TAG_enumerator
	.dwattr $C$DW$128, DW_AT_name("HEATER_OFF")
	.dwattr $C$DW$128, DW_AT_const_value(0x00)
	.dwattr $C$DW$128, DW_AT_decl_file("../Heater.h")
	.dwattr $C$DW$128, DW_AT_decl_line(0x0c)
	.dwattr $C$DW$128, DW_AT_decl_column(0x05)

$C$DW$129	.dwtag  DW_TAG_enumerator
	.dwattr $C$DW$129, DW_AT_name("HEATER_ON")
	.dwattr $C$DW$129, DW_AT_const_value(0x01)
	.dwattr $C$DW$129, DW_AT_decl_file("../Heater.h")
	.dwattr $C$DW$129, DW_AT_decl_line(0x0d)
	.dwattr $C$DW$129, DW_AT_decl_column(0x05)

	.dwattr $C$DW$T$91, DW_AT_decl_file("../Heater.h")
	.dwattr $C$DW$T$91, DW_AT_decl_line(0x0b)
	.dwattr $C$DW$T$91, DW_AT_decl_column(0x0d)
	.dwendtag $C$DW$T$91

$C$DW$T$92	.dwtag  DW_TAG_typedef
	.dwattr $C$DW$T$92, DW_AT_name("tHeater_State")
	.dwattr $C$DW$T$92, DW_AT_type(*$C$DW$T$91)
	.dwattr $C$DW$T$92, DW_AT_language(DW_LANG_C)
	.dwattr $C$DW$T$92, DW_AT_decl_file("../Heater.h")
	.dwattr $C$DW$T$92, DW_AT_decl_line(0x0e)
	.dwattr $C$DW$T$92, DW_AT_decl_column(0x02)


$C$DW$T$93	.dwtag  DW_TAG_enumeration_type
	.dwattr $C$DW$T$93, DW_AT_byte_size(0x01)
$C$DW$130	.dwtag  DW_TAG_enumerator
	.dwattr $C$DW$130, DW_AT_name("SOUND_BEEP")
	.dwattr $C$DW$130, DW_AT_const_value(0x00)
	.dwattr $C$DW$130, DW_AT_decl_file("../Sound.h")
	.dwattr $C$DW$130, DW_AT_decl_line(0x0c)
	.dwattr $C$DW$130, DW_AT_decl_column(0x05)

$C$DW$131	.dwtag  DW_TAG_enumerator
	.dwattr $C$DW$131, DW_AT_name("SOUND_TIMEOUT")
	.dwattr $C$DW$131, DW_AT_const_value(0x01)
	.dwattr $C$DW$131, DW_AT_decl_file("../Sound.h")
	.dwattr $C$DW$131, DW_AT_decl_line(0x0d)
	.dwattr $C$DW$131, DW_AT_decl_column(0x05)

	.dwattr $C$DW$T$93, DW_AT_decl_file("../Sound.h")
	.dwattr $C$DW$T$93, DW_AT_decl_line(0x0b)
	.dwattr $C$DW$T$93, DW_AT_decl_column(0x0d)
	.dwendtag $C$DW$T$93

$C$DW$T$94	.dwtag  DW_TAG_typedef
	.dwattr $C$DW$T$94, DW_AT_name("tSound")
	.dwattr $C$DW$T$94, DW_AT_type(*$C$DW$T$93)
	.dwattr $C$DW$T$94, DW_AT_language(DW_LANG_C)
	.dwattr $C$DW$T$94, DW_AT_decl_file("../Sound.h")
	.dwattr $C$DW$T$94, DW_AT_decl_line(0x0e)
	.dwattr $C$DW$T$94, DW_AT_decl_column(0x02)


$C$DW$T$95	.dwtag  DW_TAG_enumeration_type
	.dwattr $C$DW$T$95, DW_AT_byte_size(0x01)
$C$DW$132	.dwtag  DW_TAG_enumerator
	.dwattr $C$DW$132, DW_AT_name("SSD_ONCE")
	.dwattr $C$DW$132, DW_AT_const_value(0x00)
	.dwattr $C$DW$132, DW_AT_decl_file("../SSD.h")
	.dwattr $C$DW$132, DW_AT_decl_line(0x0e)
	.dwattr $C$DW$132, DW_AT_decl_column(0x05)

$C$DW$133	.dwtag  DW_TAG_enumerator
	.dwattr $C$DW$133, DW_AT_name("SSD_TENTH")
	.dwattr $C$DW$133, DW_AT_const_value(0x01)
	.dwattr $C$DW$133, DW_AT_decl_file("../SSD.h")
	.dwattr $C$DW$133, DW_AT_decl_line(0x0f)
	.dwattr $C$DW$133, DW_AT_decl_column(0x05)

	.dwattr $C$DW$T$95, DW_AT_decl_file("../SSD.h")
	.dwattr $C$DW$T$95, DW_AT_decl_line(0x0d)
	.dwattr $C$DW$T$95, DW_AT_decl_column(0x0d)
	.dwendtag $C$DW$T$95

$C$DW$T$96	.dwtag  DW_TAG_typedef
	.dwattr $C$DW$T$96, DW_AT_name("tSSD")
	.dwattr $C$DW$T$96, DW_AT_type(*$C$DW$T$95)
	.dwattr $C$DW$T$96, DW_AT_language(DW_LANG_C)
	.dwattr $C$DW$T$96, DW_AT_decl_file("../SSD.h")
	.dwattr $C$DW$T$96, DW_AT_decl_line(0x10)
	.dwattr $C$DW$T$96, DW_AT_decl_column(0x02)


$C$DW$T$97	.dwtag  DW_TAG_enumeration_type
	.dwattr $C$DW$T$97, DW_AT_byte_size(0x01)
$C$DW$134	.dwtag  DW_TAG_enumerator
	.dwattr $C$DW$134, DW_AT_name("SSD_NUMBER_ZERO")
	.dwattr $C$DW$134, DW_AT_const_value(0x00)
	.dwattr $C$DW$134, DW_AT_decl_file("../SSD.h")
	.dwattr $C$DW$134, DW_AT_decl_line(0x13)
	.dwattr $C$DW$134, DW_AT_decl_column(0x05)

$C$DW$135	.dwtag  DW_TAG_enumerator
	.dwattr $C$DW$135, DW_AT_name("SSD_NUMBER_ONE")
	.dwattr $C$DW$135, DW_AT_const_value(0x01)
	.dwattr $C$DW$135, DW_AT_decl_file("../SSD.h")
	.dwattr $C$DW$135, DW_AT_decl_line(0x14)
	.dwattr $C$DW$135, DW_AT_decl_column(0x05)

$C$DW$136	.dwtag  DW_TAG_enumerator
	.dwattr $C$DW$136, DW_AT_name("SSD_NUMBER_TWO")
	.dwattr $C$DW$136, DW_AT_const_value(0x02)
	.dwattr $C$DW$136, DW_AT_decl_file("../SSD.h")
	.dwattr $C$DW$136, DW_AT_decl_line(0x15)
	.dwattr $C$DW$136, DW_AT_decl_column(0x05)

$C$DW$137	.dwtag  DW_TAG_enumerator
	.dwattr $C$DW$137, DW_AT_name("SSD_NUMBER_THREE")
	.dwattr $C$DW$137, DW_AT_const_value(0x03)
	.dwattr $C$DW$137, DW_AT_decl_file("../SSD.h")
	.dwattr $C$DW$137, DW_AT_decl_line(0x16)
	.dwattr $C$DW$137, DW_AT_decl_column(0x05)

$C$DW$138	.dwtag  DW_TAG_enumerator
	.dwattr $C$DW$138, DW_AT_name("SSD_NUMBER_FOUR")
	.dwattr $C$DW$138, DW_AT_const_value(0x04)
	.dwattr $C$DW$138, DW_AT_decl_file("../SSD.h")
	.dwattr $C$DW$138, DW_AT_decl_line(0x17)
	.dwattr $C$DW$138, DW_AT_decl_column(0x05)

$C$DW$139	.dwtag  DW_TAG_enumerator
	.dwattr $C$DW$139, DW_AT_name("SSD_NUMBER_FIVE")
	.dwattr $C$DW$139, DW_AT_const_value(0x05)
	.dwattr $C$DW$139, DW_AT_decl_file("../SSD.h")
	.dwattr $C$DW$139, DW_AT_decl_line(0x18)
	.dwattr $C$DW$139, DW_AT_decl_column(0x05)

$C$DW$140	.dwtag  DW_TAG_enumerator
	.dwattr $C$DW$140, DW_AT_name("SSD_NUMBER_SIX")
	.dwattr $C$DW$140, DW_AT_const_value(0x06)
	.dwattr $C$DW$140, DW_AT_decl_file("../SSD.h")
	.dwattr $C$DW$140, DW_AT_decl_line(0x19)
	.dwattr $C$DW$140, DW_AT_decl_column(0x05)

$C$DW$141	.dwtag  DW_TAG_enumerator
	.dwattr $C$DW$141, DW_AT_name("SSD_NUMBER_SEVEN")
	.dwattr $C$DW$141, DW_AT_const_value(0x07)
	.dwattr $C$DW$141, DW_AT_decl_file("../SSD.h")
	.dwattr $C$DW$141, DW_AT_decl_line(0x1a)
	.dwattr $C$DW$141, DW_AT_decl_column(0x05)

$C$DW$142	.dwtag  DW_TAG_enumerator
	.dwattr $C$DW$142, DW_AT_name("SSD_NUMBER_EIGHT")
	.dwattr $C$DW$142, DW_AT_const_value(0x08)
	.dwattr $C$DW$142, DW_AT_decl_file("../SSD.h")
	.dwattr $C$DW$142, DW_AT_decl_line(0x1b)
	.dwattr $C$DW$142, DW_AT_decl_column(0x05)

$C$DW$143	.dwtag  DW_TAG_enumerator
	.dwattr $C$DW$143, DW_AT_name("SSD_NUMBER_NINE")
	.dwattr $C$DW$143, DW_AT_const_value(0x09)
	.dwattr $C$DW$143, DW_AT_decl_file("../SSD.h")
	.dwattr $C$DW$143, DW_AT_decl_line(0x1c)
	.dwattr $C$DW$143, DW_AT_decl_column(0x05)

$C$DW$144	.dwtag  DW_TAG_enumerator
	.dwattr $C$DW$144, DW_AT_name("SSD_NUMBER_NULL")
	.dwattr $C$DW$144, DW_AT_const_value(0x0a)
	.dwattr $C$DW$144, DW_AT_decl_file("../SSD.h")
	.dwattr $C$DW$144, DW_AT_decl_line(0x1d)
	.dwattr $C$DW$144, DW_AT_decl_column(0x05)

	.dwattr $C$DW$T$97, DW_AT_decl_file("../SSD.h")
	.dwattr $C$DW$T$97, DW_AT_decl_line(0x12)
	.dwattr $C$DW$T$97, DW_AT_decl_column(0x0d)
	.dwendtag $C$DW$T$97

$C$DW$T$98	.dwtag  DW_TAG_typedef
	.dwattr $C$DW$T$98, DW_AT_name("tSSD_Symbol")
	.dwattr $C$DW$T$98, DW_AT_type(*$C$DW$T$97)
	.dwattr $C$DW$T$98, DW_AT_language(DW_LANG_C)
	.dwattr $C$DW$T$98, DW_AT_decl_file("../SSD.h")
	.dwattr $C$DW$T$98, DW_AT_decl_line(0x1e)
	.dwattr $C$DW$T$98, DW_AT_decl_column(0x02)


$C$DW$T$99	.dwtag  DW_TAG_array_type
	.dwattr $C$DW$T$99, DW_AT_type(*$C$DW$T$98)
	.dwattr $C$DW$T$99, DW_AT_language(DW_LANG_C)
	.dwattr $C$DW$T$99, DW_AT_byte_size(0x02)
$C$DW$145	.dwtag  DW_TAG_subrange_type
	.dwattr $C$DW$145, DW_AT_upper_bound(0x01)

	.dwendtag $C$DW$T$99


$C$DW$T$101	.dwtag  DW_TAG_enumeration_type
	.dwattr $C$DW$T$101, DW_AT_byte_size(0x01)
$C$DW$146	.dwtag  DW_TAG_enumerator
	.dwattr $C$DW$146, DW_AT_name("BUTTON_UP")
	.dwattr $C$DW$146, DW_AT_const_value(0x00)
	.dwattr $C$DW$146, DW_AT_decl_file("../Button.h")
	.dwattr $C$DW$146, DW_AT_decl_line(0x0c)
	.dwattr $C$DW$146, DW_AT_decl_column(0x05)

$C$DW$147	.dwtag  DW_TAG_enumerator
	.dwattr $C$DW$147, DW_AT_name("BUTTON_DOWN")
	.dwattr $C$DW$147, DW_AT_const_value(0x01)
	.dwattr $C$DW$147, DW_AT_decl_file("../Button.h")
	.dwattr $C$DW$147, DW_AT_decl_line(0x0d)
	.dwattr $C$DW$147, DW_AT_decl_column(0x05)

$C$DW$148	.dwtag  DW_TAG_enumerator
	.dwattr $C$DW$148, DW_AT_name("BUTTON_OK")
	.dwattr $C$DW$148, DW_AT_const_value(0x02)
	.dwattr $C$DW$148, DW_AT_decl_file("../Button.h")
	.dwattr $C$DW$148, DW_AT_decl_line(0x0e)
	.dwattr $C$DW$148, DW_AT_decl_column(0x05)

$C$DW$149	.dwtag  DW_TAG_enumerator
	.dwattr $C$DW$149, DW_AT_name("BUTTON_COUNT")
	.dwattr $C$DW$149, DW_AT_const_value(0x03)
	.dwattr $C$DW$149, DW_AT_decl_file("../Button.h")
	.dwattr $C$DW$149, DW_AT_decl_line(0x0f)
	.dwattr $C$DW$149, DW_AT_decl_column(0x05)

	.dwattr $C$DW$T$101, DW_AT_decl_file("../Button.h")
	.dwattr $C$DW$T$101, DW_AT_decl_line(0x0b)
	.dwattr $C$DW$T$101, DW_AT_decl_column(0x0d)
	.dwendtag $C$DW$T$101

$C$DW$T$102	.dwtag  DW_TAG_typedef
	.dwattr $C$DW$T$102, DW_AT_name("tButton")
	.dwattr $C$DW$T$102, DW_AT_type(*$C$DW$T$101)
	.dwattr $C$DW$T$102, DW_AT_language(DW_LANG_C)
	.dwattr $C$DW$T$102, DW_AT_decl_file("../Button.h")
	.dwattr $C$DW$T$102, DW_AT_decl_line(0x10)
	.dwattr $C$DW$T$102, DW_AT_decl_column(0x02)


$C$DW$T$104	.dwtag  DW_TAG_enumeration_type
	.dwattr $C$DW$T$104, DW_AT_byte_size(0x01)
$C$DW$150	.dwtag  DW_TAG_enumerator
	.dwattr $C$DW$150, DW_AT_name("UW_STATE_IDLE")
	.dwattr $C$DW$150, DW_AT_const_value(0x00)
	.dwattr $C$DW$150, DW_AT_decl_file("../uWave.c")
	.dwattr $C$DW$150, DW_AT_decl_line(0x15)
	.dwattr $C$DW$150, DW_AT_decl_column(0x05)

$C$DW$151	.dwtag  DW_TAG_enumerator
	.dwattr $C$DW$151, DW_AT_name("UW_STATE_SET_TIMER")
	.dwattr $C$DW$151, DW_AT_const_value(0x01)
	.dwattr $C$DW$151, DW_AT_decl_file("../uWave.c")
	.dwattr $C$DW$151, DW_AT_decl_line(0x16)
	.dwattr $C$DW$151, DW_AT_decl_column(0x05)

$C$DW$152	.dwtag  DW_TAG_enumerator
	.dwattr $C$DW$152, DW_AT_name("UW_STATE_HEATING")
	.dwattr $C$DW$152, DW_AT_const_value(0x02)
	.dwattr $C$DW$152, DW_AT_decl_file("../uWave.c")
	.dwattr $C$DW$152, DW_AT_decl_line(0x17)
	.dwattr $C$DW$152, DW_AT_decl_column(0x05)

	.dwattr $C$DW$T$104, DW_AT_decl_file("../uWave.c")
	.dwattr $C$DW$T$104, DW_AT_decl_line(0x14)
	.dwattr $C$DW$T$104, DW_AT_decl_column(0x0d)
	.dwendtag $C$DW$T$104

$C$DW$T$105	.dwtag  DW_TAG_typedef
	.dwattr $C$DW$T$105, DW_AT_name("tUW_State")
	.dwattr $C$DW$T$105, DW_AT_type(*$C$DW$T$104)
	.dwattr $C$DW$T$105, DW_AT_language(DW_LANG_C)
	.dwattr $C$DW$T$105, DW_AT_decl_file("../uWave.c")
	.dwattr $C$DW$T$105, DW_AT_decl_line(0x18)
	.dwattr $C$DW$T$105, DW_AT_decl_column(0x02)


$C$DW$T$106	.dwtag  DW_TAG_enumeration_type
	.dwattr $C$DW$T$106, DW_AT_byte_size(0x01)
$C$DW$153	.dwtag  DW_TAG_enumerator
	.dwattr $C$DW$153, DW_AT_name("eNoAction")
	.dwattr $C$DW$153, DW_AT_const_value(0x00)
	.dwattr $C$DW$153, DW_AT_decl_file("../OS/task.h")
	.dwattr $C$DW$153, DW_AT_decl_line(0x54)
	.dwattr $C$DW$153, DW_AT_decl_column(0x02)

$C$DW$154	.dwtag  DW_TAG_enumerator
	.dwattr $C$DW$154, DW_AT_name("eSetBits")
	.dwattr $C$DW$154, DW_AT_const_value(0x01)
	.dwattr $C$DW$154, DW_AT_decl_file("../OS/task.h")
	.dwattr $C$DW$154, DW_AT_decl_line(0x55)
	.dwattr $C$DW$154, DW_AT_decl_column(0x02)

$C$DW$155	.dwtag  DW_TAG_enumerator
	.dwattr $C$DW$155, DW_AT_name("eIncrement")
	.dwattr $C$DW$155, DW_AT_const_value(0x02)
	.dwattr $C$DW$155, DW_AT_decl_file("../OS/task.h")
	.dwattr $C$DW$155, DW_AT_decl_line(0x56)
	.dwattr $C$DW$155, DW_AT_decl_column(0x02)

$C$DW$156	.dwtag  DW_TAG_enumerator
	.dwattr $C$DW$156, DW_AT_name("eSetValueWithOverwrite")
	.dwattr $C$DW$156, DW_AT_const_value(0x03)
	.dwattr $C$DW$156, DW_AT_decl_file("../OS/task.h")
	.dwattr $C$DW$156, DW_AT_decl_line(0x57)
	.dwattr $C$DW$156, DW_AT_decl_column(0x02)

$C$DW$157	.dwtag  DW_TAG_enumerator
	.dwattr $C$DW$157, DW_AT_name("eSetValueWithoutOverwrite")
	.dwattr $C$DW$157, DW_AT_const_value(0x04)
	.dwattr $C$DW$157, DW_AT_decl_file("../OS/task.h")
	.dwattr $C$DW$157, DW_AT_decl_line(0x58)
	.dwattr $C$DW$157, DW_AT_decl_column(0x02)

	.dwattr $C$DW$T$106, DW_AT_decl_file("../OS/task.h")
	.dwattr $C$DW$T$106, DW_AT_decl_line(0x53)
	.dwattr $C$DW$T$106, DW_AT_decl_column(0x01)
	.dwendtag $C$DW$T$106

$C$DW$T$107	.dwtag  DW_TAG_typedef
	.dwattr $C$DW$T$107, DW_AT_name("eNotifyAction")
	.dwattr $C$DW$T$107, DW_AT_type(*$C$DW$T$106)
	.dwattr $C$DW$T$107, DW_AT_language(DW_LANG_C)
	.dwattr $C$DW$T$107, DW_AT_decl_file("../OS/task.h")
	.dwattr $C$DW$T$107, DW_AT_decl_line(0x59)
	.dwattr $C$DW$T$107, DW_AT_decl_column(0x03)


$C$DW$T$108	.dwtag  DW_TAG_enumeration_type
	.dwattr $C$DW$T$108, DW_AT_byte_size(0x01)
$C$DW$158	.dwtag  DW_TAG_enumerator
	.dwattr $C$DW$158, DW_AT_name("eAbortSleep")
	.dwattr $C$DW$158, DW_AT_const_value(0x00)
	.dwattr $C$DW$158, DW_AT_decl_file("../OS/task.h")
	.dwattr $C$DW$158, DW_AT_decl_line(0x91)
	.dwattr $C$DW$158, DW_AT_decl_column(0x02)

$C$DW$159	.dwtag  DW_TAG_enumerator
	.dwattr $C$DW$159, DW_AT_name("eStandardSleep")
	.dwattr $C$DW$159, DW_AT_const_value(0x01)
	.dwattr $C$DW$159, DW_AT_decl_file("../OS/task.h")
	.dwattr $C$DW$159, DW_AT_decl_line(0x92)
	.dwattr $C$DW$159, DW_AT_decl_column(0x02)

$C$DW$160	.dwtag  DW_TAG_enumerator
	.dwattr $C$DW$160, DW_AT_name("eNoTasksWaitingTimeout")
	.dwattr $C$DW$160, DW_AT_const_value(0x02)
	.dwattr $C$DW$160, DW_AT_decl_file("../OS/task.h")
	.dwattr $C$DW$160, DW_AT_decl_line(0x93)
	.dwattr $C$DW$160, DW_AT_decl_column(0x02)

	.dwattr $C$DW$T$108, DW_AT_decl_file("../OS/task.h")
	.dwattr $C$DW$T$108, DW_AT_decl_line(0x90)
	.dwattr $C$DW$T$108, DW_AT_decl_column(0x01)
	.dwendtag $C$DW$T$108

$C$DW$T$109	.dwtag  DW_TAG_typedef
	.dwattr $C$DW$T$109, DW_AT_name("eSleepModeStatus")
	.dwattr $C$DW$T$109, DW_AT_type(*$C$DW$T$108)
	.dwattr $C$DW$T$109, DW_AT_language(DW_LANG_C)
	.dwattr $C$DW$T$109, DW_AT_decl_file("../OS/task.h")
	.dwattr $C$DW$T$109, DW_AT_decl_line(0x94)
	.dwattr $C$DW$T$109, DW_AT_decl_column(0x03)


$C$DW$T$110	.dwtag  DW_TAG_enumeration_type
	.dwattr $C$DW$T$110, DW_AT_byte_size(0x01)
$C$DW$161	.dwtag  DW_TAG_enumerator
	.dwattr $C$DW$161, DW_AT_name("BUTTON_RELEASED")
	.dwattr $C$DW$161, DW_AT_const_value(0x00)
	.dwattr $C$DW$161, DW_AT_decl_file("../Button.h")
	.dwattr $C$DW$161, DW_AT_decl_line(0x13)
	.dwattr $C$DW$161, DW_AT_decl_column(0x05)

$C$DW$162	.dwtag  DW_TAG_enumerator
	.dwattr $C$DW$162, DW_AT_name("BUTTON_PRESSED")
	.dwattr $C$DW$162, DW_AT_const_value(0x01)
	.dwattr $C$DW$162, DW_AT_decl_file("../Button.h")
	.dwattr $C$DW$162, DW_AT_decl_line(0x14)
	.dwattr $C$DW$162, DW_AT_decl_column(0x05)

	.dwattr $C$DW$T$110, DW_AT_decl_file("../Button.h")
	.dwattr $C$DW$T$110, DW_AT_decl_line(0x12)
	.dwattr $C$DW$T$110, DW_AT_decl_column(0x0d)
	.dwendtag $C$DW$T$110

$C$DW$T$111	.dwtag  DW_TAG_typedef
	.dwattr $C$DW$T$111, DW_AT_name("tButton_State")
	.dwattr $C$DW$T$111, DW_AT_type(*$C$DW$T$110)
	.dwattr $C$DW$T$111, DW_AT_language(DW_LANG_C)
	.dwattr $C$DW$T$111, DW_AT_decl_file("../Button.h")
	.dwattr $C$DW$T$111, DW_AT_decl_line(0x15)
	.dwattr $C$DW$T$111, DW_AT_decl_column(0x02)


$C$DW$T$24	.dwtag  DW_TAG_structure_type
	.dwattr $C$DW$T$24, DW_AT_byte_size(0x10)
$C$DW$163	.dwtag  DW_TAG_member
	.dwattr $C$DW$163, DW_AT_type(*$C$DW$T$14)
	.dwattr $C$DW$163, DW_AT_name("__max_align1")
	.dwattr $C$DW$163, DW_AT_TI_symbol_name("__max_align1")
	.dwattr $C$DW$163, DW_AT_data_member_location[DW_OP_plus_uconst 0x0]
	.dwattr $C$DW$163, DW_AT_accessibility(DW_ACCESS_public)
	.dwattr $C$DW$163, DW_AT_decl_file("/home/pola/ti/ccsv8/tools/compiler/ti-cgt-arm_18.1.1.LTS/include/sys/_types.h")
	.dwattr $C$DW$163, DW_AT_decl_line(0x70)
	.dwattr $C$DW$163, DW_AT_decl_column(0x0c)

$C$DW$164	.dwtag  DW_TAG_member
	.dwattr $C$DW$164, DW_AT_type(*$C$DW$T$18)
	.dwattr $C$DW$164, DW_AT_name("__max_align2")
	.dwattr $C$DW$164, DW_AT_TI_symbol_name("__max_align2")
	.dwattr $C$DW$164, DW_AT_data_member_location[DW_OP_plus_uconst 0x8]
	.dwattr $C$DW$164, DW_AT_accessibility(DW_ACCESS_public)
	.dwattr $C$DW$164, DW_AT_decl_file("/home/pola/ti/ccsv8/tools/compiler/ti-cgt-arm_18.1.1.LTS/include/sys/_types.h")
	.dwattr $C$DW$164, DW_AT_decl_line(0x71)
	.dwattr $C$DW$164, DW_AT_decl_column(0x0e)

	.dwattr $C$DW$T$24, DW_AT_decl_file("/home/pola/ti/ccsv8/tools/compiler/ti-cgt-arm_18.1.1.LTS/include/sys/_types.h")
	.dwattr $C$DW$T$24, DW_AT_decl_line(0x6f)
	.dwattr $C$DW$T$24, DW_AT_decl_column(0x10)
	.dwendtag $C$DW$T$24

$C$DW$T$112	.dwtag  DW_TAG_typedef
	.dwattr $C$DW$T$112, DW_AT_name("__max_align_t")
	.dwattr $C$DW$T$112, DW_AT_type(*$C$DW$T$24)
	.dwattr $C$DW$T$112, DW_AT_language(DW_LANG_C)
	.dwattr $C$DW$T$112, DW_AT_decl_file("/home/pola/ti/ccsv8/tools/compiler/ti-cgt-arm_18.1.1.LTS/include/sys/_types.h")
	.dwattr $C$DW$T$112, DW_AT_decl_line(0x72)
	.dwattr $C$DW$T$112, DW_AT_decl_column(0x03)


$C$DW$T$25	.dwtag  DW_TAG_structure_type
	.dwattr $C$DW$T$25, DW_AT_byte_size(0x08)
$C$DW$165	.dwtag  DW_TAG_member
	.dwattr $C$DW$165, DW_AT_type(*$C$DW$T$10)
	.dwattr $C$DW$165, DW_AT_name("quot")
	.dwattr $C$DW$165, DW_AT_TI_symbol_name("quot")
	.dwattr $C$DW$165, DW_AT_data_member_location[DW_OP_plus_uconst 0x0]
	.dwattr $C$DW$165, DW_AT_accessibility(DW_ACCESS_public)
	.dwattr $C$DW$165, DW_AT_decl_file("/home/pola/ti/ccsv8/tools/compiler/ti-cgt-arm_18.1.1.LTS/include/stdlib.h")
	.dwattr $C$DW$165, DW_AT_decl_line(0x49)
	.dwattr $C$DW$165, DW_AT_decl_column(0x16)

$C$DW$166	.dwtag  DW_TAG_member
	.dwattr $C$DW$166, DW_AT_type(*$C$DW$T$10)
	.dwattr $C$DW$166, DW_AT_name("rem")
	.dwattr $C$DW$166, DW_AT_TI_symbol_name("rem")
	.dwattr $C$DW$166, DW_AT_data_member_location[DW_OP_plus_uconst 0x4]
	.dwattr $C$DW$166, DW_AT_accessibility(DW_ACCESS_public)
	.dwattr $C$DW$166, DW_AT_decl_file("/home/pola/ti/ccsv8/tools/compiler/ti-cgt-arm_18.1.1.LTS/include/stdlib.h")
	.dwattr $C$DW$166, DW_AT_decl_line(0x49)
	.dwattr $C$DW$166, DW_AT_decl_column(0x1c)

	.dwattr $C$DW$T$25, DW_AT_decl_file("/home/pola/ti/ccsv8/tools/compiler/ti-cgt-arm_18.1.1.LTS/include/stdlib.h")
	.dwattr $C$DW$T$25, DW_AT_decl_line(0x49)
	.dwattr $C$DW$T$25, DW_AT_decl_column(0x10)
	.dwendtag $C$DW$T$25

$C$DW$T$113	.dwtag  DW_TAG_typedef
	.dwattr $C$DW$T$113, DW_AT_name("div_t")
	.dwattr $C$DW$T$113, DW_AT_type(*$C$DW$T$25)
	.dwattr $C$DW$T$113, DW_AT_language(DW_LANG_C)
	.dwattr $C$DW$T$113, DW_AT_decl_file("/home/pola/ti/ccsv8/tools/compiler/ti-cgt-arm_18.1.1.LTS/include/stdlib.h")
	.dwattr $C$DW$T$113, DW_AT_decl_line(0x49)
	.dwattr $C$DW$T$113, DW_AT_decl_column(0x23)


$C$DW$T$26	.dwtag  DW_TAG_structure_type
	.dwattr $C$DW$T$26, DW_AT_byte_size(0x08)
$C$DW$167	.dwtag  DW_TAG_member
	.dwattr $C$DW$167, DW_AT_type(*$C$DW$T$10)
	.dwattr $C$DW$167, DW_AT_name("quot")
	.dwattr $C$DW$167, DW_AT_TI_symbol_name("quot")
	.dwattr $C$DW$167, DW_AT_data_member_location[DW_OP_plus_uconst 0x0]
	.dwattr $C$DW$167, DW_AT_accessibility(DW_ACCESS_public)
	.dwattr $C$DW$167, DW_AT_decl_file("/home/pola/ti/ccsv8/tools/compiler/ti-cgt-arm_18.1.1.LTS/include/stdlib.h")
	.dwattr $C$DW$167, DW_AT_decl_line(0x4e)
	.dwattr $C$DW$167, DW_AT_decl_column(0x16)

$C$DW$168	.dwtag  DW_TAG_member
	.dwattr $C$DW$168, DW_AT_type(*$C$DW$T$10)
	.dwattr $C$DW$168, DW_AT_name("rem")
	.dwattr $C$DW$168, DW_AT_TI_symbol_name("rem")
	.dwattr $C$DW$168, DW_AT_data_member_location[DW_OP_plus_uconst 0x4]
	.dwattr $C$DW$168, DW_AT_accessibility(DW_ACCESS_public)
	.dwattr $C$DW$168, DW_AT_decl_file("/home/pola/ti/ccsv8/tools/compiler/ti-cgt-arm_18.1.1.LTS/include/stdlib.h")
	.dwattr $C$DW$168, DW_AT_decl_line(0x4e)
	.dwattr $C$DW$168, DW_AT_decl_column(0x1c)

	.dwattr $C$DW$T$26, DW_AT_decl_file("/home/pola/ti/ccsv8/tools/compiler/ti-cgt-arm_18.1.1.LTS/include/stdlib.h")
	.dwattr $C$DW$T$26, DW_AT_decl_line(0x4e)
	.dwattr $C$DW$T$26, DW_AT_decl_column(0x10)
	.dwendtag $C$DW$T$26

$C$DW$T$114	.dwtag  DW_TAG_typedef
	.dwattr $C$DW$T$114, DW_AT_name("ldiv_t")
	.dwattr $C$DW$T$114, DW_AT_type(*$C$DW$T$26)
	.dwattr $C$DW$T$114, DW_AT_language(DW_LANG_C)
	.dwattr $C$DW$T$114, DW_AT_decl_file("/home/pola/ti/ccsv8/tools/compiler/ti-cgt-arm_18.1.1.LTS/include/stdlib.h")
	.dwattr $C$DW$T$114, DW_AT_decl_line(0x4e)
	.dwattr $C$DW$T$114, DW_AT_decl_column(0x23)


$C$DW$T$27	.dwtag  DW_TAG_structure_type
	.dwattr $C$DW$T$27, DW_AT_byte_size(0x10)
$C$DW$169	.dwtag  DW_TAG_member
	.dwattr $C$DW$169, DW_AT_type(*$C$DW$T$14)
	.dwattr $C$DW$169, DW_AT_name("quot")
	.dwattr $C$DW$169, DW_AT_TI_symbol_name("quot")
	.dwattr $C$DW$169, DW_AT_data_member_location[DW_OP_plus_uconst 0x0]
	.dwattr $C$DW$169, DW_AT_accessibility(DW_ACCESS_public)
	.dwattr $C$DW$169, DW_AT_decl_file("/home/pola/ti/ccsv8/tools/compiler/ti-cgt-arm_18.1.1.LTS/include/stdlib.h")
	.dwattr $C$DW$169, DW_AT_decl_line(0x56)
	.dwattr $C$DW$169, DW_AT_decl_column(0x1c)

$C$DW$170	.dwtag  DW_TAG_member
	.dwattr $C$DW$170, DW_AT_type(*$C$DW$T$14)
	.dwattr $C$DW$170, DW_AT_name("rem")
	.dwattr $C$DW$170, DW_AT_TI_symbol_name("rem")
	.dwattr $C$DW$170, DW_AT_data_member_location[DW_OP_plus_uconst 0x8]
	.dwattr $C$DW$170, DW_AT_accessibility(DW_ACCESS_public)
	.dwattr $C$DW$170, DW_AT_decl_file("/home/pola/ti/ccsv8/tools/compiler/ti-cgt-arm_18.1.1.LTS/include/stdlib.h")
	.dwattr $C$DW$170, DW_AT_decl_line(0x56)
	.dwattr $C$DW$170, DW_AT_decl_column(0x22)

	.dwattr $C$DW$T$27, DW_AT_decl_file("/home/pola/ti/ccsv8/tools/compiler/ti-cgt-arm_18.1.1.LTS/include/stdlib.h")
	.dwattr $C$DW$T$27, DW_AT_decl_line(0x56)
	.dwattr $C$DW$T$27, DW_AT_decl_column(0x10)
	.dwendtag $C$DW$T$27

$C$DW$T$115	.dwtag  DW_TAG_typedef
	.dwattr $C$DW$T$115, DW_AT_name("lldiv_t")
	.dwattr $C$DW$T$115, DW_AT_type(*$C$DW$T$27)
	.dwattr $C$DW$T$115, DW_AT_language(DW_LANG_C)
	.dwattr $C$DW$T$115, DW_AT_decl_file("/home/pola/ti/ccsv8/tools/compiler/ti-cgt-arm_18.1.1.LTS/include/stdlib.h")
	.dwattr $C$DW$T$115, DW_AT_decl_line(0x56)
	.dwattr $C$DW$T$115, DW_AT_decl_column(0x29)


$C$DW$T$29	.dwtag  DW_TAG_union_type
	.dwattr $C$DW$T$29, DW_AT_byte_size(0x04)
$C$DW$171	.dwtag  DW_TAG_member
	.dwattr $C$DW$171, DW_AT_type(*$C$DW$T$3)
	.dwattr $C$DW$171, DW_AT_name("pvDummy2")
	.dwattr $C$DW$171, DW_AT_TI_symbol_name("pvDummy2")
	.dwattr $C$DW$171, DW_AT_data_member_location[DW_OP_plus_uconst 0x0]
	.dwattr $C$DW$171, DW_AT_accessibility(DW_ACCESS_public)
	.dwattr $C$DW$171, DW_AT_decl_file("../OS/FreeRTOS.h")
	.dwattr $C$DW$171, DW_AT_decl_line(0x42d)
	.dwattr $C$DW$171, DW_AT_decl_column(0x09)

$C$DW$172	.dwtag  DW_TAG_member
	.dwattr $C$DW$172, DW_AT_type(*$C$DW$T$28)
	.dwattr $C$DW$172, DW_AT_name("uxDummy2")
	.dwattr $C$DW$172, DW_AT_TI_symbol_name("uxDummy2")
	.dwattr $C$DW$172, DW_AT_data_member_location[DW_OP_plus_uconst 0x0]
	.dwattr $C$DW$172, DW_AT_accessibility(DW_ACCESS_public)
	.dwattr $C$DW$172, DW_AT_decl_file("../OS/FreeRTOS.h")
	.dwattr $C$DW$172, DW_AT_decl_line(0x42e)
	.dwattr $C$DW$172, DW_AT_decl_column(0x0f)

	.dwattr $C$DW$T$29, DW_AT_decl_file("../OS/FreeRTOS.h")
	.dwattr $C$DW$T$29, DW_AT_decl_line(0x42c)
	.dwattr $C$DW$T$29, DW_AT_decl_column(0x02)
	.dwendtag $C$DW$T$29


$C$DW$T$34	.dwtag  DW_TAG_structure_type
	.dwattr $C$DW$T$34, DW_AT_name("HeapRegion")
	.dwattr $C$DW$T$34, DW_AT_byte_size(0x08)
$C$DW$173	.dwtag  DW_TAG_member
	.dwattr $C$DW$173, DW_AT_type(*$C$DW$T$32)
	.dwattr $C$DW$173, DW_AT_name("pucStartAddress")
	.dwattr $C$DW$173, DW_AT_TI_symbol_name("pucStartAddress")
	.dwattr $C$DW$173, DW_AT_data_member_location[DW_OP_plus_uconst 0x0]
	.dwattr $C$DW$173, DW_AT_accessibility(DW_ACCESS_public)
	.dwattr $C$DW$173, DW_AT_decl_file("../OS/portable.h")
	.dwattr $C$DW$173, DW_AT_decl_line(0x6e)
	.dwattr $C$DW$173, DW_AT_decl_column(0x0b)

$C$DW$174	.dwtag  DW_TAG_member
	.dwattr $C$DW$174, DW_AT_type(*$C$DW$T$33)
	.dwattr $C$DW$174, DW_AT_name("xSizeInBytes")
	.dwattr $C$DW$174, DW_AT_TI_symbol_name("xSizeInBytes")
	.dwattr $C$DW$174, DW_AT_data_member_location[DW_OP_plus_uconst 0x4]
	.dwattr $C$DW$174, DW_AT_accessibility(DW_ACCESS_public)
	.dwattr $C$DW$174, DW_AT_decl_file("../OS/portable.h")
	.dwattr $C$DW$174, DW_AT_decl_line(0x6f)
	.dwattr $C$DW$174, DW_AT_decl_column(0x09)

	.dwattr $C$DW$T$34, DW_AT_decl_file("../OS/portable.h")
	.dwattr $C$DW$T$34, DW_AT_decl_line(0x6c)
	.dwattr $C$DW$T$34, DW_AT_decl_column(0x10)
	.dwendtag $C$DW$T$34

$C$DW$T$116	.dwtag  DW_TAG_typedef
	.dwattr $C$DW$T$116, DW_AT_name("HeapRegion_t")
	.dwattr $C$DW$T$116, DW_AT_type(*$C$DW$T$34)
	.dwattr $C$DW$T$116, DW_AT_language(DW_LANG_C)
	.dwattr $C$DW$T$116, DW_AT_decl_file("../OS/portable.h")
	.dwattr $C$DW$T$116, DW_AT_decl_line(0x70)
	.dwattr $C$DW$T$116, DW_AT_decl_column(0x03)


$C$DW$T$19	.dwtag  DW_TAG_structure_type
	.dwattr $C$DW$T$19, DW_AT_name("QueueDefinition")
	.dwattr $C$DW$T$19, DW_AT_declaration
	.dwattr $C$DW$T$19, DW_AT_decl_file("../OS/queue.h")
	.dwattr $C$DW$T$19, DW_AT_decl_line(0x2f)
	.dwattr $C$DW$T$19, DW_AT_decl_column(0x08)
	.dwendtag $C$DW$T$19

$C$DW$T$117	.dwtag  DW_TAG_pointer_type
	.dwattr $C$DW$T$117, DW_AT_type(*$C$DW$T$19)
	.dwattr $C$DW$T$117, DW_AT_address_class(0x20)

$C$DW$T$118	.dwtag  DW_TAG_typedef
	.dwattr $C$DW$T$118, DW_AT_name("QueueHandle_t")
	.dwattr $C$DW$T$118, DW_AT_type(*$C$DW$T$117)
	.dwattr $C$DW$T$118, DW_AT_language(DW_LANG_C)
	.dwattr $C$DW$T$118, DW_AT_decl_file("../OS/queue.h")
	.dwattr $C$DW$T$118, DW_AT_decl_line(0x30)
	.dwattr $C$DW$T$118, DW_AT_decl_column(0x22)

$C$DW$T$125	.dwtag  DW_TAG_typedef
	.dwattr $C$DW$T$125, DW_AT_name("QueueSetHandle_t")
	.dwattr $C$DW$T$125, DW_AT_type(*$C$DW$T$117)
	.dwattr $C$DW$T$125, DW_AT_language(DW_LANG_C)
	.dwattr $C$DW$T$125, DW_AT_decl_file("../OS/queue.h")
	.dwattr $C$DW$T$125, DW_AT_decl_line(0x37)
	.dwattr $C$DW$T$125, DW_AT_decl_column(0x22)

$C$DW$T$126	.dwtag  DW_TAG_typedef
	.dwattr $C$DW$T$126, DW_AT_name("QueueSetMemberHandle_t")
	.dwattr $C$DW$T$126, DW_AT_type(*$C$DW$T$117)
	.dwattr $C$DW$T$126, DW_AT_language(DW_LANG_C)
	.dwattr $C$DW$T$126, DW_AT_decl_file("../OS/queue.h")
	.dwattr $C$DW$T$126, DW_AT_decl_line(0x3e)
	.dwattr $C$DW$T$126, DW_AT_decl_column(0x22)

$C$DW$T$2	.dwtag  DW_TAG_unspecified_type
	.dwattr $C$DW$T$2, DW_AT_name("void")

$C$DW$T$3	.dwtag  DW_TAG_pointer_type
	.dwattr $C$DW$T$3, DW_AT_type(*$C$DW$T$2)
	.dwattr $C$DW$T$3, DW_AT_address_class(0x20)


$C$DW$T$53	.dwtag  DW_TAG_array_type
	.dwattr $C$DW$T$53, DW_AT_type(*$C$DW$T$3)
	.dwattr $C$DW$T$53, DW_AT_language(DW_LANG_C)
	.dwattr $C$DW$T$53, DW_AT_byte_size(0x10)
$C$DW$175	.dwtag  DW_TAG_subrange_type
	.dwattr $C$DW$175, DW_AT_upper_bound(0x03)

	.dwendtag $C$DW$T$53


$C$DW$T$55	.dwtag  DW_TAG_array_type
	.dwattr $C$DW$T$55, DW_AT_type(*$C$DW$T$3)
	.dwattr $C$DW$T$55, DW_AT_language(DW_LANG_C)
	.dwattr $C$DW$T$55, DW_AT_byte_size(0x08)
$C$DW$176	.dwtag  DW_TAG_subrange_type
	.dwattr $C$DW$176, DW_AT_upper_bound(0x01)

	.dwendtag $C$DW$T$55


$C$DW$T$57	.dwtag  DW_TAG_array_type
	.dwattr $C$DW$T$57, DW_AT_type(*$C$DW$T$3)
	.dwattr $C$DW$T$57, DW_AT_language(DW_LANG_C)
	.dwattr $C$DW$T$57, DW_AT_byte_size(0x0c)
$C$DW$177	.dwtag  DW_TAG_subrange_type
	.dwattr $C$DW$177, DW_AT_upper_bound(0x02)

	.dwendtag $C$DW$T$57

$C$DW$T$127	.dwtag  DW_TAG_const_type
	.dwattr $C$DW$T$127, DW_AT_type(*$C$DW$T$3)


$C$DW$T$69	.dwtag  DW_TAG_subroutine_type
	.dwattr $C$DW$T$69, DW_AT_language(DW_LANG_C)
$C$DW$178	.dwtag  DW_TAG_formal_parameter
	.dwattr $C$DW$178, DW_AT_type(*$C$DW$T$3)

	.dwendtag $C$DW$T$69

$C$DW$T$70	.dwtag  DW_TAG_pointer_type
	.dwattr $C$DW$T$70, DW_AT_type(*$C$DW$T$69)
	.dwattr $C$DW$T$70, DW_AT_address_class(0x20)

$C$DW$T$71	.dwtag  DW_TAG_typedef
	.dwattr $C$DW$T$71, DW_AT_name("TaskFunction_t")
	.dwattr $C$DW$T$71, DW_AT_type(*$C$DW$T$70)
	.dwattr $C$DW$T$71, DW_AT_language(DW_LANG_C)
	.dwattr $C$DW$T$71, DW_AT_decl_file("../OS/projdefs.h")
	.dwattr $C$DW$T$71, DW_AT_decl_line(0x23)
	.dwattr $C$DW$T$71, DW_AT_decl_column(0x10)

$C$DW$T$128	.dwtag  DW_TAG_const_type
	.dwattr $C$DW$T$128, DW_AT_type(*$C$DW$T$2)

$C$DW$T$129	.dwtag  DW_TAG_pointer_type
	.dwattr $C$DW$T$129, DW_AT_type(*$C$DW$T$128)
	.dwattr $C$DW$T$129, DW_AT_address_class(0x20)

$C$DW$T$130	.dwtag  DW_TAG_const_type
	.dwattr $C$DW$T$130, DW_AT_type(*$C$DW$T$129)


$C$DW$T$133	.dwtag  DW_TAG_subroutine_type
	.dwattr $C$DW$T$133, DW_AT_language(DW_LANG_C)
$C$DW$179	.dwtag  DW_TAG_formal_parameter
	.dwattr $C$DW$179, DW_AT_type(*$C$DW$T$132)

	.dwendtag $C$DW$T$133

$C$DW$T$134	.dwtag  DW_TAG_pointer_type
	.dwattr $C$DW$T$134, DW_AT_type(*$C$DW$T$133)
	.dwattr $C$DW$T$134, DW_AT_address_class(0x20)

$C$DW$T$135	.dwtag  DW_TAG_typedef
	.dwattr $C$DW$T$135, DW_AT_name("TimerCallbackFunction_t")
	.dwattr $C$DW$T$135, DW_AT_type(*$C$DW$T$134)
	.dwattr $C$DW$T$135, DW_AT_language(DW_LANG_C)
	.dwattr $C$DW$T$135, DW_AT_decl_file("../OS/timers.h")
	.dwattr $C$DW$T$135, DW_AT_decl_line(0x52)
	.dwattr $C$DW$T$135, DW_AT_decl_column(0x10)


$C$DW$T$149	.dwtag  DW_TAG_subroutine_type
	.dwattr $C$DW$T$149, DW_AT_language(DW_LANG_C)
	.dwendtag $C$DW$T$149

$C$DW$T$150	.dwtag  DW_TAG_pointer_type
	.dwattr $C$DW$T$150, DW_AT_type(*$C$DW$T$149)
	.dwattr $C$DW$T$150, DW_AT_address_class(0x20)

$C$DW$T$151	.dwtag  DW_TAG_typedef
	.dwattr $C$DW$T$151, DW_AT_name("__TI_atexit_fn")
	.dwattr $C$DW$T$151, DW_AT_type(*$C$DW$T$150)
	.dwattr $C$DW$T$151, DW_AT_language(DW_LANG_C)
	.dwattr $C$DW$T$151, DW_AT_decl_file("/home/pola/ti/ccsv8/tools/compiler/ti-cgt-arm_18.1.1.LTS/include/stdlib.h")
	.dwattr $C$DW$T$151, DW_AT_decl_line(0xb2)
	.dwattr $C$DW$T$151, DW_AT_decl_column(0x14)


$C$DW$T$153	.dwtag  DW_TAG_subroutine_type
	.dwattr $C$DW$T$153, DW_AT_language(DW_LANG_C)
$C$DW$180	.dwtag  DW_TAG_formal_parameter
	.dwattr $C$DW$180, DW_AT_type(*$C$DW$T$3)

$C$DW$181	.dwtag  DW_TAG_formal_parameter
	.dwattr $C$DW$181, DW_AT_type(*$C$DW$T$42)

	.dwendtag $C$DW$T$153

$C$DW$T$154	.dwtag  DW_TAG_pointer_type
	.dwattr $C$DW$T$154, DW_AT_type(*$C$DW$T$153)
	.dwattr $C$DW$T$154, DW_AT_address_class(0x20)

$C$DW$T$155	.dwtag  DW_TAG_typedef
	.dwattr $C$DW$T$155, DW_AT_name("PendedFunction_t")
	.dwattr $C$DW$T$155, DW_AT_type(*$C$DW$T$154)
	.dwattr $C$DW$T$155, DW_AT_language(DW_LANG_C)
	.dwattr $C$DW$T$155, DW_AT_decl_file("../OS/timers.h")
	.dwattr $C$DW$T$155, DW_AT_decl_line(0x58)
	.dwattr $C$DW$T$155, DW_AT_decl_column(0x10)

$C$DW$T$4	.dwtag  DW_TAG_base_type
	.dwattr $C$DW$T$4, DW_AT_encoding(DW_ATE_boolean)
	.dwattr $C$DW$T$4, DW_AT_name("bool")
	.dwattr $C$DW$T$4, DW_AT_byte_size(0x01)

$C$DW$T$5	.dwtag  DW_TAG_base_type
	.dwattr $C$DW$T$5, DW_AT_encoding(DW_ATE_signed_char)
	.dwattr $C$DW$T$5, DW_AT_name("signed char")
	.dwattr $C$DW$T$5, DW_AT_byte_size(0x01)

$C$DW$T$156	.dwtag  DW_TAG_typedef
	.dwattr $C$DW$T$156, DW_AT_name("__int8_t")
	.dwattr $C$DW$T$156, DW_AT_type(*$C$DW$T$5)
	.dwattr $C$DW$T$156, DW_AT_language(DW_LANG_C)
	.dwattr $C$DW$T$156, DW_AT_decl_file("/home/pola/ti/ccsv8/tools/compiler/ti-cgt-arm_18.1.1.LTS/include/machine/_types.h")
	.dwattr $C$DW$T$156, DW_AT_decl_line(0x39)
	.dwattr $C$DW$T$156, DW_AT_decl_column(0x16)

$C$DW$T$157	.dwtag  DW_TAG_typedef
	.dwattr $C$DW$T$157, DW_AT_name("__int_least8_t")
	.dwattr $C$DW$T$157, DW_AT_type(*$C$DW$T$156)
	.dwattr $C$DW$T$157, DW_AT_language(DW_LANG_C)
	.dwattr $C$DW$T$157, DW_AT_decl_file("/home/pola/ti/ccsv8/tools/compiler/ti-cgt-arm_18.1.1.LTS/include/machine/_types.h")
	.dwattr $C$DW$T$157, DW_AT_decl_line(0x58)
	.dwattr $C$DW$T$157, DW_AT_decl_column(0x12)

$C$DW$T$158	.dwtag  DW_TAG_typedef
	.dwattr $C$DW$T$158, DW_AT_name("int_least8_t")
	.dwattr $C$DW$T$158, DW_AT_type(*$C$DW$T$157)
	.dwattr $C$DW$T$158, DW_AT_language(DW_LANG_C)
	.dwattr $C$DW$T$158, DW_AT_decl_file("/home/pola/ti/ccsv8/tools/compiler/ti-cgt-arm_18.1.1.LTS/include/sys/stdint.h")
	.dwattr $C$DW$T$158, DW_AT_decl_line(0x28)
	.dwattr $C$DW$T$158, DW_AT_decl_column(0x19)

$C$DW$T$159	.dwtag  DW_TAG_typedef
	.dwattr $C$DW$T$159, DW_AT_name("int8_t")
	.dwattr $C$DW$T$159, DW_AT_type(*$C$DW$T$156)
	.dwattr $C$DW$T$159, DW_AT_language(DW_LANG_C)
	.dwattr $C$DW$T$159, DW_AT_decl_file("/home/pola/ti/ccsv8/tools/compiler/ti-cgt-arm_18.1.1.LTS/include/sys/_stdint.h")
	.dwattr $C$DW$T$159, DW_AT_decl_line(0x24)
	.dwattr $C$DW$T$159, DW_AT_decl_column(0x13)

$C$DW$T$6	.dwtag  DW_TAG_base_type
	.dwattr $C$DW$T$6, DW_AT_encoding(DW_ATE_unsigned_char)
	.dwattr $C$DW$T$6, DW_AT_name("unsigned char")
	.dwattr $C$DW$T$6, DW_AT_byte_size(0x01)

$C$DW$T$30	.dwtag  DW_TAG_typedef
	.dwattr $C$DW$T$30, DW_AT_name("__uint8_t")
	.dwattr $C$DW$T$30, DW_AT_type(*$C$DW$T$6)
	.dwattr $C$DW$T$30, DW_AT_language(DW_LANG_C)
	.dwattr $C$DW$T$30, DW_AT_decl_file("/home/pola/ti/ccsv8/tools/compiler/ti-cgt-arm_18.1.1.LTS/include/machine/_types.h")
	.dwattr $C$DW$T$30, DW_AT_decl_line(0x3a)
	.dwattr $C$DW$T$30, DW_AT_decl_column(0x18)

$C$DW$T$160	.dwtag  DW_TAG_typedef
	.dwattr $C$DW$T$160, DW_AT_name("__sa_family_t")
	.dwattr $C$DW$T$160, DW_AT_type(*$C$DW$T$30)
	.dwattr $C$DW$T$160, DW_AT_language(DW_LANG_C)
	.dwattr $C$DW$T$160, DW_AT_decl_file("/home/pola/ti/ccsv8/tools/compiler/ti-cgt-arm_18.1.1.LTS/include/sys/_types.h")
	.dwattr $C$DW$T$160, DW_AT_decl_line(0x43)
	.dwattr $C$DW$T$160, DW_AT_decl_column(0x13)

$C$DW$T$161	.dwtag  DW_TAG_typedef
	.dwattr $C$DW$T$161, DW_AT_name("__uint_least8_t")
	.dwattr $C$DW$T$161, DW_AT_type(*$C$DW$T$30)
	.dwattr $C$DW$T$161, DW_AT_language(DW_LANG_C)
	.dwattr $C$DW$T$161, DW_AT_decl_file("/home/pola/ti/ccsv8/tools/compiler/ti-cgt-arm_18.1.1.LTS/include/machine/_types.h")
	.dwattr $C$DW$T$161, DW_AT_decl_line(0x6d)
	.dwattr $C$DW$T$161, DW_AT_decl_column(0x13)

$C$DW$T$162	.dwtag  DW_TAG_typedef
	.dwattr $C$DW$T$162, DW_AT_name("uint_least8_t")
	.dwattr $C$DW$T$162, DW_AT_type(*$C$DW$T$161)
	.dwattr $C$DW$T$162, DW_AT_language(DW_LANG_C)
	.dwattr $C$DW$T$162, DW_AT_decl_file("/home/pola/ti/ccsv8/tools/compiler/ti-cgt-arm_18.1.1.LTS/include/sys/stdint.h")
	.dwattr $C$DW$T$162, DW_AT_decl_line(0x2d)
	.dwattr $C$DW$T$162, DW_AT_decl_column(0x1a)

$C$DW$T$31	.dwtag  DW_TAG_typedef
	.dwattr $C$DW$T$31, DW_AT_name("uint8_t")
	.dwattr $C$DW$T$31, DW_AT_type(*$C$DW$T$30)
	.dwattr $C$DW$T$31, DW_AT_language(DW_LANG_C)
	.dwattr $C$DW$T$31, DW_AT_decl_file("/home/pola/ti/ccsv8/tools/compiler/ti-cgt-arm_18.1.1.LTS/include/sys/_stdint.h")
	.dwattr $C$DW$T$31, DW_AT_decl_line(0x38)
	.dwattr $C$DW$T$31, DW_AT_decl_column(0x14)

$C$DW$T$32	.dwtag  DW_TAG_pointer_type
	.dwattr $C$DW$T$32, DW_AT_type(*$C$DW$T$31)
	.dwattr $C$DW$T$32, DW_AT_address_class(0x20)


$C$DW$T$60	.dwtag  DW_TAG_array_type
	.dwattr $C$DW$T$60, DW_AT_type(*$C$DW$T$31)
	.dwattr $C$DW$T$60, DW_AT_language(DW_LANG_C)
	.dwattr $C$DW$T$60, DW_AT_byte_size(0x02)
$C$DW$182	.dwtag  DW_TAG_subrange_type
	.dwattr $C$DW$182, DW_AT_upper_bound(0x01)

	.dwendtag $C$DW$T$60


$C$DW$T$66	.dwtag  DW_TAG_array_type
	.dwattr $C$DW$T$66, DW_AT_type(*$C$DW$T$31)
	.dwattr $C$DW$T$66, DW_AT_language(DW_LANG_C)
	.dwattr $C$DW$T$66, DW_AT_byte_size(0x0c)
$C$DW$183	.dwtag  DW_TAG_subrange_type
	.dwattr $C$DW$183, DW_AT_upper_bound(0x0b)

	.dwendtag $C$DW$T$66


$C$DW$T$163	.dwtag  DW_TAG_array_type
	.dwattr $C$DW$T$163, DW_AT_type(*$C$DW$T$31)
	.dwattr $C$DW$T$163, DW_AT_language(DW_LANG_C)
	.dwattr $C$DW$T$163, DW_AT_byte_size(0x01)
$C$DW$184	.dwtag  DW_TAG_subrange_type
	.dwattr $C$DW$184, DW_AT_upper_bound(0x00)

	.dwendtag $C$DW$T$163

$C$DW$T$122	.dwtag  DW_TAG_const_type
	.dwattr $C$DW$T$122, DW_AT_type(*$C$DW$T$31)

$C$DW$T$7	.dwtag  DW_TAG_base_type
	.dwattr $C$DW$T$7, DW_AT_encoding(DW_ATE_signed_char)
	.dwattr $C$DW$T$7, DW_AT_name("wchar_t")
	.dwattr $C$DW$T$7, DW_AT_byte_size(0x02)

$C$DW$T$8	.dwtag  DW_TAG_base_type
	.dwattr $C$DW$T$8, DW_AT_encoding(DW_ATE_signed)
	.dwattr $C$DW$T$8, DW_AT_name("short")
	.dwattr $C$DW$T$8, DW_AT_byte_size(0x02)

$C$DW$T$164	.dwtag  DW_TAG_typedef
	.dwattr $C$DW$T$164, DW_AT_name("__int16_t")
	.dwattr $C$DW$T$164, DW_AT_type(*$C$DW$T$8)
	.dwattr $C$DW$T$164, DW_AT_language(DW_LANG_C)
	.dwattr $C$DW$T$164, DW_AT_decl_file("/home/pola/ti/ccsv8/tools/compiler/ti-cgt-arm_18.1.1.LTS/include/machine/_types.h")
	.dwattr $C$DW$T$164, DW_AT_decl_line(0x3b)
	.dwattr $C$DW$T$164, DW_AT_decl_column(0x11)

$C$DW$T$165	.dwtag  DW_TAG_typedef
	.dwattr $C$DW$T$165, DW_AT_name("__int_least16_t")
	.dwattr $C$DW$T$165, DW_AT_type(*$C$DW$T$164)
	.dwattr $C$DW$T$165, DW_AT_language(DW_LANG_C)
	.dwattr $C$DW$T$165, DW_AT_decl_file("/home/pola/ti/ccsv8/tools/compiler/ti-cgt-arm_18.1.1.LTS/include/machine/_types.h")
	.dwattr $C$DW$T$165, DW_AT_decl_line(0x59)
	.dwattr $C$DW$T$165, DW_AT_decl_column(0x13)

$C$DW$T$166	.dwtag  DW_TAG_typedef
	.dwattr $C$DW$T$166, DW_AT_name("int_least16_t")
	.dwattr $C$DW$T$166, DW_AT_type(*$C$DW$T$165)
	.dwattr $C$DW$T$166, DW_AT_language(DW_LANG_C)
	.dwattr $C$DW$T$166, DW_AT_decl_file("/home/pola/ti/ccsv8/tools/compiler/ti-cgt-arm_18.1.1.LTS/include/sys/stdint.h")
	.dwattr $C$DW$T$166, DW_AT_decl_line(0x29)
	.dwattr $C$DW$T$166, DW_AT_decl_column(0x1a)

$C$DW$T$167	.dwtag  DW_TAG_typedef
	.dwattr $C$DW$T$167, DW_AT_name("int16_t")
	.dwattr $C$DW$T$167, DW_AT_type(*$C$DW$T$164)
	.dwattr $C$DW$T$167, DW_AT_language(DW_LANG_C)
	.dwattr $C$DW$T$167, DW_AT_decl_file("/home/pola/ti/ccsv8/tools/compiler/ti-cgt-arm_18.1.1.LTS/include/sys/_stdint.h")
	.dwattr $C$DW$T$167, DW_AT_decl_line(0x29)
	.dwattr $C$DW$T$167, DW_AT_decl_column(0x14)

$C$DW$T$9	.dwtag  DW_TAG_base_type
	.dwattr $C$DW$T$9, DW_AT_encoding(DW_ATE_unsigned)
	.dwattr $C$DW$T$9, DW_AT_name("unsigned short")
	.dwattr $C$DW$T$9, DW_AT_byte_size(0x02)

$C$DW$T$168	.dwtag  DW_TAG_typedef
	.dwattr $C$DW$T$168, DW_AT_name("___wchar_t")
	.dwattr $C$DW$T$168, DW_AT_type(*$C$DW$T$9)
	.dwattr $C$DW$T$168, DW_AT_language(DW_LANG_C)
	.dwattr $C$DW$T$168, DW_AT_decl_file("/home/pola/ti/ccsv8/tools/compiler/ti-cgt-arm_18.1.1.LTS/include/machine/_types.h")
	.dwattr $C$DW$T$168, DW_AT_decl_line(0x76)
	.dwattr $C$DW$T$168, DW_AT_decl_column(0x1a)

$C$DW$T$77	.dwtag  DW_TAG_typedef
	.dwattr $C$DW$T$77, DW_AT_name("__uint16_t")
	.dwattr $C$DW$T$77, DW_AT_type(*$C$DW$T$9)
	.dwattr $C$DW$T$77, DW_AT_language(DW_LANG_C)
	.dwattr $C$DW$T$77, DW_AT_decl_file("/home/pola/ti/ccsv8/tools/compiler/ti-cgt-arm_18.1.1.LTS/include/machine/_types.h")
	.dwattr $C$DW$T$77, DW_AT_decl_line(0x3c)
	.dwattr $C$DW$T$77, DW_AT_decl_column(0x19)

$C$DW$T$169	.dwtag  DW_TAG_typedef
	.dwattr $C$DW$T$169, DW_AT_name("__mode_t")
	.dwattr $C$DW$T$169, DW_AT_type(*$C$DW$T$77)
	.dwattr $C$DW$T$169, DW_AT_language(DW_LANG_C)
	.dwattr $C$DW$T$169, DW_AT_decl_file("/home/pola/ti/ccsv8/tools/compiler/ti-cgt-arm_18.1.1.LTS/include/sys/_types.h")
	.dwattr $C$DW$T$169, DW_AT_decl_line(0x39)
	.dwattr $C$DW$T$169, DW_AT_decl_column(0x14)

$C$DW$T$170	.dwtag  DW_TAG_typedef
	.dwattr $C$DW$T$170, DW_AT_name("__uint_least16_t")
	.dwattr $C$DW$T$170, DW_AT_type(*$C$DW$T$77)
	.dwattr $C$DW$T$170, DW_AT_language(DW_LANG_C)
	.dwattr $C$DW$T$170, DW_AT_decl_file("/home/pola/ti/ccsv8/tools/compiler/ti-cgt-arm_18.1.1.LTS/include/machine/_types.h")
	.dwattr $C$DW$T$170, DW_AT_decl_line(0x6e)
	.dwattr $C$DW$T$170, DW_AT_decl_column(0x14)

$C$DW$T$171	.dwtag  DW_TAG_typedef
	.dwattr $C$DW$T$171, DW_AT_name("__char16_t")
	.dwattr $C$DW$T$171, DW_AT_type(*$C$DW$T$170)
	.dwattr $C$DW$T$171, DW_AT_language(DW_LANG_C)
	.dwattr $C$DW$T$171, DW_AT_decl_file("/home/pola/ti/ccsv8/tools/compiler/ti-cgt-arm_18.1.1.LTS/include/sys/_types.h")
	.dwattr $C$DW$T$171, DW_AT_decl_line(0x66)
	.dwattr $C$DW$T$171, DW_AT_decl_column(0x1a)

$C$DW$T$172	.dwtag  DW_TAG_typedef
	.dwattr $C$DW$T$172, DW_AT_name("uint_least16_t")
	.dwattr $C$DW$T$172, DW_AT_type(*$C$DW$T$170)
	.dwattr $C$DW$T$172, DW_AT_language(DW_LANG_C)
	.dwattr $C$DW$T$172, DW_AT_decl_file("/home/pola/ti/ccsv8/tools/compiler/ti-cgt-arm_18.1.1.LTS/include/sys/stdint.h")
	.dwattr $C$DW$T$172, DW_AT_decl_line(0x2e)
	.dwattr $C$DW$T$172, DW_AT_decl_column(0x1a)

$C$DW$T$78	.dwtag  DW_TAG_typedef
	.dwattr $C$DW$T$78, DW_AT_name("uint16_t")
	.dwattr $C$DW$T$78, DW_AT_type(*$C$DW$T$77)
	.dwattr $C$DW$T$78, DW_AT_language(DW_LANG_C)
	.dwattr $C$DW$T$78, DW_AT_decl_file("/home/pola/ti/ccsv8/tools/compiler/ti-cgt-arm_18.1.1.LTS/include/sys/_stdint.h")
	.dwattr $C$DW$T$78, DW_AT_decl_line(0x3d)
	.dwattr $C$DW$T$78, DW_AT_decl_column(0x15)

$C$DW$T$173	.dwtag  DW_TAG_typedef
	.dwattr $C$DW$T$173, DW_AT_name("wchar_t")
	.dwattr $C$DW$T$173, DW_AT_type(*$C$DW$T$9)
	.dwattr $C$DW$T$173, DW_AT_language(DW_LANG_C)
	.dwattr $C$DW$T$173, DW_AT_decl_file("/home/pola/ti/ccsv8/tools/compiler/ti-cgt-arm_18.1.1.LTS/include/stddef.h")
	.dwattr $C$DW$T$173, DW_AT_decl_line(0x41)
	.dwattr $C$DW$T$173, DW_AT_decl_column(0x1a)

$C$DW$T$10	.dwtag  DW_TAG_base_type
	.dwattr $C$DW$T$10, DW_AT_encoding(DW_ATE_signed)
	.dwattr $C$DW$T$10, DW_AT_name("int")
	.dwattr $C$DW$T$10, DW_AT_byte_size(0x04)

$C$DW$T$174	.dwtag  DW_TAG_typedef
	.dwattr $C$DW$T$174, DW_AT_name("_Mbstatet")
	.dwattr $C$DW$T$174, DW_AT_type(*$C$DW$T$10)
	.dwattr $C$DW$T$174, DW_AT_language(DW_LANG_C)
	.dwattr $C$DW$T$174, DW_AT_decl_file("/home/pola/ti/ccsv8/tools/compiler/ti-cgt-arm_18.1.1.LTS/include/sys/_types.h")
	.dwattr $C$DW$T$174, DW_AT_decl_line(0x84)
	.dwattr $C$DW$T$174, DW_AT_decl_column(0x0d)

$C$DW$T$175	.dwtag  DW_TAG_typedef
	.dwattr $C$DW$T$175, DW_AT_name("__mbstate_t")
	.dwattr $C$DW$T$175, DW_AT_type(*$C$DW$T$174)
	.dwattr $C$DW$T$175, DW_AT_language(DW_LANG_C)
	.dwattr $C$DW$T$175, DW_AT_decl_file("/home/pola/ti/ccsv8/tools/compiler/ti-cgt-arm_18.1.1.LTS/include/sys/_types.h")
	.dwattr $C$DW$T$175, DW_AT_decl_line(0x87)
	.dwattr $C$DW$T$175, DW_AT_decl_column(0x13)

$C$DW$T$176	.dwtag  DW_TAG_typedef
	.dwattr $C$DW$T$176, DW_AT_name("__accmode_t")
	.dwattr $C$DW$T$176, DW_AT_type(*$C$DW$T$10)
	.dwattr $C$DW$T$176, DW_AT_language(DW_LANG_C)
	.dwattr $C$DW$T$176, DW_AT_decl_file("/home/pola/ti/ccsv8/tools/compiler/ti-cgt-arm_18.1.1.LTS/include/sys/_types.h")
	.dwattr $C$DW$T$176, DW_AT_decl_line(0x3a)
	.dwattr $C$DW$T$176, DW_AT_decl_column(0x0e)


$C$DW$T$177	.dwtag  DW_TAG_subroutine_type
	.dwattr $C$DW$T$177, DW_AT_type(*$C$DW$T$10)
	.dwattr $C$DW$T$177, DW_AT_language(DW_LANG_C)
$C$DW$185	.dwtag  DW_TAG_formal_parameter
	.dwattr $C$DW$185, DW_AT_type(*$C$DW$T$129)

$C$DW$186	.dwtag  DW_TAG_formal_parameter
	.dwattr $C$DW$186, DW_AT_type(*$C$DW$T$129)

	.dwendtag $C$DW$T$177

$C$DW$T$178	.dwtag  DW_TAG_pointer_type
	.dwattr $C$DW$T$178, DW_AT_type(*$C$DW$T$177)
	.dwattr $C$DW$T$178, DW_AT_address_class(0x20)

$C$DW$T$179	.dwtag  DW_TAG_typedef
	.dwattr $C$DW$T$179, DW_AT_name("__TI_compar_fn")
	.dwattr $C$DW$T$179, DW_AT_type(*$C$DW$T$178)
	.dwattr $C$DW$T$179, DW_AT_language(DW_LANG_C)
	.dwattr $C$DW$T$179, DW_AT_decl_file("/home/pola/ti/ccsv8/tools/compiler/ti-cgt-arm_18.1.1.LTS/include/stdlib.h")
	.dwattr $C$DW$T$179, DW_AT_decl_line(0xb5)
	.dwattr $C$DW$T$179, DW_AT_decl_column(0x13)

$C$DW$T$180	.dwtag  DW_TAG_typedef
	.dwattr $C$DW$T$180, DW_AT_name("__cpulevel_t")
	.dwattr $C$DW$T$180, DW_AT_type(*$C$DW$T$10)
	.dwattr $C$DW$T$180, DW_AT_language(DW_LANG_C)
	.dwattr $C$DW$T$180, DW_AT_decl_file("/home/pola/ti/ccsv8/tools/compiler/ti-cgt-arm_18.1.1.LTS/include/sys/_types.h")
	.dwattr $C$DW$T$180, DW_AT_decl_line(0x4b)
	.dwattr $C$DW$T$180, DW_AT_decl_column(0x0e)

$C$DW$T$181	.dwtag  DW_TAG_typedef
	.dwattr $C$DW$T$181, DW_AT_name("__cpusetid_t")
	.dwattr $C$DW$T$181, DW_AT_type(*$C$DW$T$10)
	.dwattr $C$DW$T$181, DW_AT_language(DW_LANG_C)
	.dwattr $C$DW$T$181, DW_AT_decl_file("/home/pola/ti/ccsv8/tools/compiler/ti-cgt-arm_18.1.1.LTS/include/sys/_types.h")
	.dwattr $C$DW$T$181, DW_AT_decl_line(0x4c)
	.dwattr $C$DW$T$181, DW_AT_decl_column(0x0e)

$C$DW$T$182	.dwtag  DW_TAG_typedef
	.dwattr $C$DW$T$182, DW_AT_name("__cpuwhich_t")
	.dwattr $C$DW$T$182, DW_AT_type(*$C$DW$T$10)
	.dwattr $C$DW$T$182, DW_AT_language(DW_LANG_C)
	.dwattr $C$DW$T$182, DW_AT_decl_file("/home/pola/ti/ccsv8/tools/compiler/ti-cgt-arm_18.1.1.LTS/include/sys/_types.h")
	.dwattr $C$DW$T$182, DW_AT_decl_line(0x4a)
	.dwattr $C$DW$T$182, DW_AT_decl_column(0x0e)

$C$DW$T$183	.dwtag  DW_TAG_typedef
	.dwattr $C$DW$T$183, DW_AT_name("__ct_rune_t")
	.dwattr $C$DW$T$183, DW_AT_type(*$C$DW$T$10)
	.dwattr $C$DW$T$183, DW_AT_language(DW_LANG_C)
	.dwattr $C$DW$T$183, DW_AT_decl_file("/home/pola/ti/ccsv8/tools/compiler/ti-cgt-arm_18.1.1.LTS/include/sys/_types.h")
	.dwattr $C$DW$T$183, DW_AT_decl_line(0x60)
	.dwattr $C$DW$T$183, DW_AT_decl_column(0x0e)

$C$DW$T$184	.dwtag  DW_TAG_typedef
	.dwattr $C$DW$T$184, DW_AT_name("__rune_t")
	.dwattr $C$DW$T$184, DW_AT_type(*$C$DW$T$183)
	.dwattr $C$DW$T$184, DW_AT_language(DW_LANG_C)
	.dwattr $C$DW$T$184, DW_AT_decl_file("/home/pola/ti/ccsv8/tools/compiler/ti-cgt-arm_18.1.1.LTS/include/sys/_types.h")
	.dwattr $C$DW$T$184, DW_AT_decl_line(0x61)
	.dwattr $C$DW$T$184, DW_AT_decl_column(0x15)

$C$DW$T$185	.dwtag  DW_TAG_typedef
	.dwattr $C$DW$T$185, DW_AT_name("__wint_t")
	.dwattr $C$DW$T$185, DW_AT_type(*$C$DW$T$183)
	.dwattr $C$DW$T$185, DW_AT_language(DW_LANG_C)
	.dwattr $C$DW$T$185, DW_AT_decl_file("/home/pola/ti/ccsv8/tools/compiler/ti-cgt-arm_18.1.1.LTS/include/sys/_types.h")
	.dwattr $C$DW$T$185, DW_AT_decl_line(0x62)
	.dwattr $C$DW$T$185, DW_AT_decl_column(0x15)

$C$DW$T$186	.dwtag  DW_TAG_typedef
	.dwattr $C$DW$T$186, DW_AT_name("__int32_t")
	.dwattr $C$DW$T$186, DW_AT_type(*$C$DW$T$10)
	.dwattr $C$DW$T$186, DW_AT_language(DW_LANG_C)
	.dwattr $C$DW$T$186, DW_AT_decl_file("/home/pola/ti/ccsv8/tools/compiler/ti-cgt-arm_18.1.1.LTS/include/machine/_types.h")
	.dwattr $C$DW$T$186, DW_AT_decl_line(0x3d)
	.dwattr $C$DW$T$186, DW_AT_decl_column(0x0f)

$C$DW$T$187	.dwtag  DW_TAG_typedef
	.dwattr $C$DW$T$187, DW_AT_name("__blksize_t")
	.dwattr $C$DW$T$187, DW_AT_type(*$C$DW$T$186)
	.dwattr $C$DW$T$187, DW_AT_language(DW_LANG_C)
	.dwattr $C$DW$T$187, DW_AT_decl_file("/home/pola/ti/ccsv8/tools/compiler/ti-cgt-arm_18.1.1.LTS/include/sys/_types.h")
	.dwattr $C$DW$T$187, DW_AT_decl_line(0x2e)
	.dwattr $C$DW$T$187, DW_AT_decl_column(0x13)

$C$DW$T$188	.dwtag  DW_TAG_typedef
	.dwattr $C$DW$T$188, DW_AT_name("__clockid_t")
	.dwattr $C$DW$T$188, DW_AT_type(*$C$DW$T$186)
	.dwattr $C$DW$T$188, DW_AT_language(DW_LANG_C)
	.dwattr $C$DW$T$188, DW_AT_decl_file("/home/pola/ti/ccsv8/tools/compiler/ti-cgt-arm_18.1.1.LTS/include/sys/_types.h")
	.dwattr $C$DW$T$188, DW_AT_decl_line(0x30)
	.dwattr $C$DW$T$188, DW_AT_decl_column(0x13)

$C$DW$T$189	.dwtag  DW_TAG_typedef
	.dwattr $C$DW$T$189, DW_AT_name("__critical_t")
	.dwattr $C$DW$T$189, DW_AT_type(*$C$DW$T$186)
	.dwattr $C$DW$T$189, DW_AT_language(DW_LANG_C)
	.dwattr $C$DW$T$189, DW_AT_decl_file("/home/pola/ti/ccsv8/tools/compiler/ti-cgt-arm_18.1.1.LTS/include/machine/_types.h")
	.dwattr $C$DW$T$189, DW_AT_decl_line(0x4e)
	.dwattr $C$DW$T$189, DW_AT_decl_column(0x13)

$C$DW$T$190	.dwtag  DW_TAG_typedef
	.dwattr $C$DW$T$190, DW_AT_name("__int_fast16_t")
	.dwattr $C$DW$T$190, DW_AT_type(*$C$DW$T$186)
	.dwattr $C$DW$T$190, DW_AT_language(DW_LANG_C)
	.dwattr $C$DW$T$190, DW_AT_decl_file("/home/pola/ti/ccsv8/tools/compiler/ti-cgt-arm_18.1.1.LTS/include/machine/_types.h")
	.dwattr $C$DW$T$190, DW_AT_decl_line(0x55)
	.dwattr $C$DW$T$190, DW_AT_decl_column(0x13)

$C$DW$T$191	.dwtag  DW_TAG_typedef
	.dwattr $C$DW$T$191, DW_AT_name("int_fast16_t")
	.dwattr $C$DW$T$191, DW_AT_type(*$C$DW$T$190)
	.dwattr $C$DW$T$191, DW_AT_language(DW_LANG_C)
	.dwattr $C$DW$T$191, DW_AT_decl_file("/home/pola/ti/ccsv8/tools/compiler/ti-cgt-arm_18.1.1.LTS/include/sys/stdint.h")
	.dwattr $C$DW$T$191, DW_AT_decl_line(0x33)
	.dwattr $C$DW$T$191, DW_AT_decl_column(0x19)

$C$DW$T$192	.dwtag  DW_TAG_typedef
	.dwattr $C$DW$T$192, DW_AT_name("__int_fast32_t")
	.dwattr $C$DW$T$192, DW_AT_type(*$C$DW$T$186)
	.dwattr $C$DW$T$192, DW_AT_language(DW_LANG_C)
	.dwattr $C$DW$T$192, DW_AT_decl_file("/home/pola/ti/ccsv8/tools/compiler/ti-cgt-arm_18.1.1.LTS/include/machine/_types.h")
	.dwattr $C$DW$T$192, DW_AT_decl_line(0x56)
	.dwattr $C$DW$T$192, DW_AT_decl_column(0x13)

$C$DW$T$193	.dwtag  DW_TAG_typedef
	.dwattr $C$DW$T$193, DW_AT_name("int_fast32_t")
	.dwattr $C$DW$T$193, DW_AT_type(*$C$DW$T$192)
	.dwattr $C$DW$T$193, DW_AT_language(DW_LANG_C)
	.dwattr $C$DW$T$193, DW_AT_decl_file("/home/pola/ti/ccsv8/tools/compiler/ti-cgt-arm_18.1.1.LTS/include/sys/stdint.h")
	.dwattr $C$DW$T$193, DW_AT_decl_line(0x34)
	.dwattr $C$DW$T$193, DW_AT_decl_column(0x19)

$C$DW$T$194	.dwtag  DW_TAG_typedef
	.dwattr $C$DW$T$194, DW_AT_name("__int_fast8_t")
	.dwattr $C$DW$T$194, DW_AT_type(*$C$DW$T$186)
	.dwattr $C$DW$T$194, DW_AT_language(DW_LANG_C)
	.dwattr $C$DW$T$194, DW_AT_decl_file("/home/pola/ti/ccsv8/tools/compiler/ti-cgt-arm_18.1.1.LTS/include/machine/_types.h")
	.dwattr $C$DW$T$194, DW_AT_decl_line(0x54)
	.dwattr $C$DW$T$194, DW_AT_decl_column(0x13)

$C$DW$T$195	.dwtag  DW_TAG_typedef
	.dwattr $C$DW$T$195, DW_AT_name("int_fast8_t")
	.dwattr $C$DW$T$195, DW_AT_type(*$C$DW$T$194)
	.dwattr $C$DW$T$195, DW_AT_language(DW_LANG_C)
	.dwattr $C$DW$T$195, DW_AT_decl_file("/home/pola/ti/ccsv8/tools/compiler/ti-cgt-arm_18.1.1.LTS/include/sys/stdint.h")
	.dwattr $C$DW$T$195, DW_AT_decl_line(0x32)
	.dwattr $C$DW$T$195, DW_AT_decl_column(0x18)

$C$DW$T$196	.dwtag  DW_TAG_typedef
	.dwattr $C$DW$T$196, DW_AT_name("__int_least32_t")
	.dwattr $C$DW$T$196, DW_AT_type(*$C$DW$T$186)
	.dwattr $C$DW$T$196, DW_AT_language(DW_LANG_C)
	.dwattr $C$DW$T$196, DW_AT_decl_file("/home/pola/ti/ccsv8/tools/compiler/ti-cgt-arm_18.1.1.LTS/include/machine/_types.h")
	.dwattr $C$DW$T$196, DW_AT_decl_line(0x5a)
	.dwattr $C$DW$T$196, DW_AT_decl_column(0x13)

$C$DW$T$197	.dwtag  DW_TAG_typedef
	.dwattr $C$DW$T$197, DW_AT_name("int_least32_t")
	.dwattr $C$DW$T$197, DW_AT_type(*$C$DW$T$196)
	.dwattr $C$DW$T$197, DW_AT_language(DW_LANG_C)
	.dwattr $C$DW$T$197, DW_AT_decl_file("/home/pola/ti/ccsv8/tools/compiler/ti-cgt-arm_18.1.1.LTS/include/sys/stdint.h")
	.dwattr $C$DW$T$197, DW_AT_decl_line(0x2a)
	.dwattr $C$DW$T$197, DW_AT_decl_column(0x1a)

$C$DW$T$198	.dwtag  DW_TAG_typedef
	.dwattr $C$DW$T$198, DW_AT_name("__intfptr_t")
	.dwattr $C$DW$T$198, DW_AT_type(*$C$DW$T$186)
	.dwattr $C$DW$T$198, DW_AT_language(DW_LANG_C)
	.dwattr $C$DW$T$198, DW_AT_decl_file("/home/pola/ti/ccsv8/tools/compiler/ti-cgt-arm_18.1.1.LTS/include/machine/_types.h")
	.dwattr $C$DW$T$198, DW_AT_decl_line(0x51)
	.dwattr $C$DW$T$198, DW_AT_decl_column(0x13)

$C$DW$T$199	.dwtag  DW_TAG_typedef
	.dwattr $C$DW$T$199, DW_AT_name("__intptr_t")
	.dwattr $C$DW$T$199, DW_AT_type(*$C$DW$T$186)
	.dwattr $C$DW$T$199, DW_AT_language(DW_LANG_C)
	.dwattr $C$DW$T$199, DW_AT_decl_file("/home/pola/ti/ccsv8/tools/compiler/ti-cgt-arm_18.1.1.LTS/include/machine/_types.h")
	.dwattr $C$DW$T$199, DW_AT_decl_line(0x53)
	.dwattr $C$DW$T$199, DW_AT_decl_column(0x13)

$C$DW$T$200	.dwtag  DW_TAG_typedef
	.dwattr $C$DW$T$200, DW_AT_name("intptr_t")
	.dwattr $C$DW$T$200, DW_AT_type(*$C$DW$T$199)
	.dwattr $C$DW$T$200, DW_AT_language(DW_LANG_C)
	.dwattr $C$DW$T$200, DW_AT_decl_file("/home/pola/ti/ccsv8/tools/compiler/ti-cgt-arm_18.1.1.LTS/include/sys/_stdint.h")
	.dwattr $C$DW$T$200, DW_AT_decl_line(0x4c)
	.dwattr $C$DW$T$200, DW_AT_decl_column(0x15)

$C$DW$T$201	.dwtag  DW_TAG_typedef
	.dwattr $C$DW$T$201, DW_AT_name("__lwpid_t")
	.dwattr $C$DW$T$201, DW_AT_type(*$C$DW$T$186)
	.dwattr $C$DW$T$201, DW_AT_language(DW_LANG_C)
	.dwattr $C$DW$T$201, DW_AT_decl_file("/home/pola/ti/ccsv8/tools/compiler/ti-cgt-arm_18.1.1.LTS/include/sys/_types.h")
	.dwattr $C$DW$T$201, DW_AT_decl_line(0x38)
	.dwattr $C$DW$T$201, DW_AT_decl_column(0x13)

$C$DW$T$202	.dwtag  DW_TAG_typedef
	.dwattr $C$DW$T$202, DW_AT_name("__pid_t")
	.dwattr $C$DW$T$202, DW_AT_type(*$C$DW$T$186)
	.dwattr $C$DW$T$202, DW_AT_language(DW_LANG_C)
	.dwattr $C$DW$T$202, DW_AT_decl_file("/home/pola/ti/ccsv8/tools/compiler/ti-cgt-arm_18.1.1.LTS/include/sys/_types.h")
	.dwattr $C$DW$T$202, DW_AT_decl_line(0x3f)
	.dwattr $C$DW$T$202, DW_AT_decl_column(0x13)

$C$DW$T$203	.dwtag  DW_TAG_typedef
	.dwattr $C$DW$T$203, DW_AT_name("__ptrdiff_t")
	.dwattr $C$DW$T$203, DW_AT_type(*$C$DW$T$186)
	.dwattr $C$DW$T$203, DW_AT_language(DW_LANG_C)
	.dwattr $C$DW$T$203, DW_AT_decl_file("/home/pola/ti/ccsv8/tools/compiler/ti-cgt-arm_18.1.1.LTS/include/machine/_types.h")
	.dwattr $C$DW$T$203, DW_AT_decl_line(0x5c)
	.dwattr $C$DW$T$203, DW_AT_decl_column(0x13)

$C$DW$T$204	.dwtag  DW_TAG_typedef
	.dwattr $C$DW$T$204, DW_AT_name("__register_t")
	.dwattr $C$DW$T$204, DW_AT_type(*$C$DW$T$186)
	.dwattr $C$DW$T$204, DW_AT_language(DW_LANG_C)
	.dwattr $C$DW$T$204, DW_AT_decl_file("/home/pola/ti/ccsv8/tools/compiler/ti-cgt-arm_18.1.1.LTS/include/machine/_types.h")
	.dwattr $C$DW$T$204, DW_AT_decl_line(0x5d)
	.dwattr $C$DW$T$204, DW_AT_decl_column(0x13)

$C$DW$T$205	.dwtag  DW_TAG_typedef
	.dwattr $C$DW$T$205, DW_AT_name("__segsz_t")
	.dwattr $C$DW$T$205, DW_AT_type(*$C$DW$T$186)
	.dwattr $C$DW$T$205, DW_AT_language(DW_LANG_C)
	.dwattr $C$DW$T$205, DW_AT_decl_file("/home/pola/ti/ccsv8/tools/compiler/ti-cgt-arm_18.1.1.LTS/include/machine/_types.h")
	.dwattr $C$DW$T$205, DW_AT_decl_line(0x5e)
	.dwattr $C$DW$T$205, DW_AT_decl_column(0x13)

$C$DW$T$206	.dwtag  DW_TAG_typedef
	.dwattr $C$DW$T$206, DW_AT_name("__ssize_t")
	.dwattr $C$DW$T$206, DW_AT_type(*$C$DW$T$186)
	.dwattr $C$DW$T$206, DW_AT_language(DW_LANG_C)
	.dwattr $C$DW$T$206, DW_AT_decl_file("/home/pola/ti/ccsv8/tools/compiler/ti-cgt-arm_18.1.1.LTS/include/machine/_types.h")
	.dwattr $C$DW$T$206, DW_AT_decl_line(0x60)
	.dwattr $C$DW$T$206, DW_AT_decl_column(0x13)

$C$DW$T$207	.dwtag  DW_TAG_typedef
	.dwattr $C$DW$T$207, DW_AT_name("int32_t")
	.dwattr $C$DW$T$207, DW_AT_type(*$C$DW$T$186)
	.dwattr $C$DW$T$207, DW_AT_language(DW_LANG_C)
	.dwattr $C$DW$T$207, DW_AT_decl_file("/home/pola/ti/ccsv8/tools/compiler/ti-cgt-arm_18.1.1.LTS/include/sys/_stdint.h")
	.dwattr $C$DW$T$207, DW_AT_decl_line(0x2e)
	.dwattr $C$DW$T$207, DW_AT_decl_column(0x14)

$C$DW$T$208	.dwtag  DW_TAG_typedef
	.dwattr $C$DW$T$208, DW_AT_name("__nl_item")
	.dwattr $C$DW$T$208, DW_AT_type(*$C$DW$T$10)
	.dwattr $C$DW$T$208, DW_AT_language(DW_LANG_C)
	.dwattr $C$DW$T$208, DW_AT_decl_file("/home/pola/ti/ccsv8/tools/compiler/ti-cgt-arm_18.1.1.LTS/include/sys/_types.h")
	.dwattr $C$DW$T$208, DW_AT_decl_line(0x3b)
	.dwattr $C$DW$T$208, DW_AT_decl_column(0x0e)

$C$DW$T$209	.dwtag  DW_TAG_typedef
	.dwattr $C$DW$T$209, DW_AT_name("ptrdiff_t")
	.dwattr $C$DW$T$209, DW_AT_type(*$C$DW$T$10)
	.dwattr $C$DW$T$209, DW_AT_language(DW_LANG_C)
	.dwattr $C$DW$T$209, DW_AT_decl_file("/home/pola/ti/ccsv8/tools/compiler/ti-cgt-arm_18.1.1.LTS/include/stddef.h")
	.dwattr $C$DW$T$209, DW_AT_decl_line(0x36)
	.dwattr $C$DW$T$209, DW_AT_decl_column(0x1c)

$C$DW$T$11	.dwtag  DW_TAG_base_type
	.dwattr $C$DW$T$11, DW_AT_encoding(DW_ATE_unsigned)
	.dwattr $C$DW$T$11, DW_AT_name("unsigned int")
	.dwattr $C$DW$T$11, DW_AT_byte_size(0x04)

$C$DW$T$41	.dwtag  DW_TAG_typedef
	.dwattr $C$DW$T$41, DW_AT_name("__uint32_t")
	.dwattr $C$DW$T$41, DW_AT_type(*$C$DW$T$11)
	.dwattr $C$DW$T$41, DW_AT_language(DW_LANG_C)
	.dwattr $C$DW$T$41, DW_AT_decl_file("/home/pola/ti/ccsv8/tools/compiler/ti-cgt-arm_18.1.1.LTS/include/machine/_types.h")
	.dwattr $C$DW$T$41, DW_AT_decl_line(0x3e)
	.dwattr $C$DW$T$41, DW_AT_decl_column(0x17)

$C$DW$T$210	.dwtag  DW_TAG_typedef
	.dwattr $C$DW$T$210, DW_AT_name("__clock_t")
	.dwattr $C$DW$T$210, DW_AT_type(*$C$DW$T$41)
	.dwattr $C$DW$T$210, DW_AT_language(DW_LANG_C)
	.dwattr $C$DW$T$210, DW_AT_decl_file("/home/pola/ti/ccsv8/tools/compiler/ti-cgt-arm_18.1.1.LTS/include/machine/_types.h")
	.dwattr $C$DW$T$210, DW_AT_decl_line(0x4d)
	.dwattr $C$DW$T$210, DW_AT_decl_column(0x14)

$C$DW$T$211	.dwtag  DW_TAG_typedef
	.dwattr $C$DW$T$211, DW_AT_name("__fflags_t")
	.dwattr $C$DW$T$211, DW_AT_type(*$C$DW$T$41)
	.dwattr $C$DW$T$211, DW_AT_language(DW_LANG_C)
	.dwattr $C$DW$T$211, DW_AT_decl_file("/home/pola/ti/ccsv8/tools/compiler/ti-cgt-arm_18.1.1.LTS/include/sys/_types.h")
	.dwattr $C$DW$T$211, DW_AT_decl_line(0x31)
	.dwattr $C$DW$T$211, DW_AT_decl_column(0x14)

$C$DW$T$212	.dwtag  DW_TAG_typedef
	.dwattr $C$DW$T$212, DW_AT_name("__fixpt_t")
	.dwattr $C$DW$T$212, DW_AT_type(*$C$DW$T$41)
	.dwattr $C$DW$T$212, DW_AT_language(DW_LANG_C)
	.dwattr $C$DW$T$212, DW_AT_decl_file("/home/pola/ti/ccsv8/tools/compiler/ti-cgt-arm_18.1.1.LTS/include/sys/_types.h")
	.dwattr $C$DW$T$212, DW_AT_decl_line(0x76)
	.dwattr $C$DW$T$212, DW_AT_decl_column(0x14)

$C$DW$T$213	.dwtag  DW_TAG_typedef
	.dwattr $C$DW$T$213, DW_AT_name("__gid_t")
	.dwattr $C$DW$T$213, DW_AT_type(*$C$DW$T$41)
	.dwattr $C$DW$T$213, DW_AT_language(DW_LANG_C)
	.dwattr $C$DW$T$213, DW_AT_decl_file("/home/pola/ti/ccsv8/tools/compiler/ti-cgt-arm_18.1.1.LTS/include/sys/_types.h")
	.dwattr $C$DW$T$213, DW_AT_decl_line(0x34)
	.dwattr $C$DW$T$213, DW_AT_decl_column(0x14)

$C$DW$T$214	.dwtag  DW_TAG_typedef
	.dwattr $C$DW$T$214, DW_AT_name("__size_t")
	.dwattr $C$DW$T$214, DW_AT_type(*$C$DW$T$41)
	.dwattr $C$DW$T$214, DW_AT_language(DW_LANG_C)
	.dwattr $C$DW$T$214, DW_AT_decl_file("/home/pola/ti/ccsv8/tools/compiler/ti-cgt-arm_18.1.1.LTS/include/machine/_types.h")
	.dwattr $C$DW$T$214, DW_AT_decl_line(0x5f)
	.dwattr $C$DW$T$214, DW_AT_decl_column(0x14)

$C$DW$T$215	.dwtag  DW_TAG_typedef
	.dwattr $C$DW$T$215, DW_AT_name("__socklen_t")
	.dwattr $C$DW$T$215, DW_AT_type(*$C$DW$T$41)
	.dwattr $C$DW$T$215, DW_AT_language(DW_LANG_C)
	.dwattr $C$DW$T$215, DW_AT_decl_file("/home/pola/ti/ccsv8/tools/compiler/ti-cgt-arm_18.1.1.LTS/include/sys/_types.h")
	.dwattr $C$DW$T$215, DW_AT_decl_line(0x44)
	.dwattr $C$DW$T$215, DW_AT_decl_column(0x14)

$C$DW$T$216	.dwtag  DW_TAG_typedef
	.dwattr $C$DW$T$216, DW_AT_name("__time_t")
	.dwattr $C$DW$T$216, DW_AT_type(*$C$DW$T$41)
	.dwattr $C$DW$T$216, DW_AT_language(DW_LANG_C)
	.dwattr $C$DW$T$216, DW_AT_decl_file("/home/pola/ti/ccsv8/tools/compiler/ti-cgt-arm_18.1.1.LTS/include/machine/_types.h")
	.dwattr $C$DW$T$216, DW_AT_decl_line(0x64)
	.dwattr $C$DW$T$216, DW_AT_decl_column(0x19)

$C$DW$T$217	.dwtag  DW_TAG_typedef
	.dwattr $C$DW$T$217, DW_AT_name("__u_register_t")
	.dwattr $C$DW$T$217, DW_AT_type(*$C$DW$T$41)
	.dwattr $C$DW$T$217, DW_AT_language(DW_LANG_C)
	.dwattr $C$DW$T$217, DW_AT_decl_file("/home/pola/ti/ccsv8/tools/compiler/ti-cgt-arm_18.1.1.LTS/include/machine/_types.h")
	.dwattr $C$DW$T$217, DW_AT_decl_line(0x71)
	.dwattr $C$DW$T$217, DW_AT_decl_column(0x14)

$C$DW$T$218	.dwtag  DW_TAG_typedef
	.dwattr $C$DW$T$218, DW_AT_name("__uid_t")
	.dwattr $C$DW$T$218, DW_AT_type(*$C$DW$T$41)
	.dwattr $C$DW$T$218, DW_AT_language(DW_LANG_C)
	.dwattr $C$DW$T$218, DW_AT_decl_file("/home/pola/ti/ccsv8/tools/compiler/ti-cgt-arm_18.1.1.LTS/include/sys/_types.h")
	.dwattr $C$DW$T$218, DW_AT_decl_line(0x48)
	.dwattr $C$DW$T$218, DW_AT_decl_column(0x14)

$C$DW$T$219	.dwtag  DW_TAG_typedef
	.dwattr $C$DW$T$219, DW_AT_name("__uint_fast16_t")
	.dwattr $C$DW$T$219, DW_AT_type(*$C$DW$T$41)
	.dwattr $C$DW$T$219, DW_AT_language(DW_LANG_C)
	.dwattr $C$DW$T$219, DW_AT_decl_file("/home/pola/ti/ccsv8/tools/compiler/ti-cgt-arm_18.1.1.LTS/include/machine/_types.h")
	.dwattr $C$DW$T$219, DW_AT_decl_line(0x6a)
	.dwattr $C$DW$T$219, DW_AT_decl_column(0x14)

$C$DW$T$220	.dwtag  DW_TAG_typedef
	.dwattr $C$DW$T$220, DW_AT_name("uint_fast16_t")
	.dwattr $C$DW$T$220, DW_AT_type(*$C$DW$T$219)
	.dwattr $C$DW$T$220, DW_AT_language(DW_LANG_C)
	.dwattr $C$DW$T$220, DW_AT_decl_file("/home/pola/ti/ccsv8/tools/compiler/ti-cgt-arm_18.1.1.LTS/include/sys/stdint.h")
	.dwattr $C$DW$T$220, DW_AT_decl_line(0x38)
	.dwattr $C$DW$T$220, DW_AT_decl_column(0x1a)

$C$DW$T$221	.dwtag  DW_TAG_typedef
	.dwattr $C$DW$T$221, DW_AT_name("__uint_fast32_t")
	.dwattr $C$DW$T$221, DW_AT_type(*$C$DW$T$41)
	.dwattr $C$DW$T$221, DW_AT_language(DW_LANG_C)
	.dwattr $C$DW$T$221, DW_AT_decl_file("/home/pola/ti/ccsv8/tools/compiler/ti-cgt-arm_18.1.1.LTS/include/machine/_types.h")
	.dwattr $C$DW$T$221, DW_AT_decl_line(0x6b)
	.dwattr $C$DW$T$221, DW_AT_decl_column(0x14)

$C$DW$T$222	.dwtag  DW_TAG_typedef
	.dwattr $C$DW$T$222, DW_AT_name("uint_fast32_t")
	.dwattr $C$DW$T$222, DW_AT_type(*$C$DW$T$221)
	.dwattr $C$DW$T$222, DW_AT_language(DW_LANG_C)
	.dwattr $C$DW$T$222, DW_AT_decl_file("/home/pola/ti/ccsv8/tools/compiler/ti-cgt-arm_18.1.1.LTS/include/sys/stdint.h")
	.dwattr $C$DW$T$222, DW_AT_decl_line(0x39)
	.dwattr $C$DW$T$222, DW_AT_decl_column(0x1a)

$C$DW$T$223	.dwtag  DW_TAG_typedef
	.dwattr $C$DW$T$223, DW_AT_name("__uint_fast8_t")
	.dwattr $C$DW$T$223, DW_AT_type(*$C$DW$T$41)
	.dwattr $C$DW$T$223, DW_AT_language(DW_LANG_C)
	.dwattr $C$DW$T$223, DW_AT_decl_file("/home/pola/ti/ccsv8/tools/compiler/ti-cgt-arm_18.1.1.LTS/include/machine/_types.h")
	.dwattr $C$DW$T$223, DW_AT_decl_line(0x69)
	.dwattr $C$DW$T$223, DW_AT_decl_column(0x14)

$C$DW$T$224	.dwtag  DW_TAG_typedef
	.dwattr $C$DW$T$224, DW_AT_name("uint_fast8_t")
	.dwattr $C$DW$T$224, DW_AT_type(*$C$DW$T$223)
	.dwattr $C$DW$T$224, DW_AT_language(DW_LANG_C)
	.dwattr $C$DW$T$224, DW_AT_decl_file("/home/pola/ti/ccsv8/tools/compiler/ti-cgt-arm_18.1.1.LTS/include/sys/stdint.h")
	.dwattr $C$DW$T$224, DW_AT_decl_line(0x37)
	.dwattr $C$DW$T$224, DW_AT_decl_column(0x19)

$C$DW$T$225	.dwtag  DW_TAG_typedef
	.dwattr $C$DW$T$225, DW_AT_name("__uint_least32_t")
	.dwattr $C$DW$T$225, DW_AT_type(*$C$DW$T$41)
	.dwattr $C$DW$T$225, DW_AT_language(DW_LANG_C)
	.dwattr $C$DW$T$225, DW_AT_decl_file("/home/pola/ti/ccsv8/tools/compiler/ti-cgt-arm_18.1.1.LTS/include/machine/_types.h")
	.dwattr $C$DW$T$225, DW_AT_decl_line(0x6f)
	.dwattr $C$DW$T$225, DW_AT_decl_column(0x14)

$C$DW$T$226	.dwtag  DW_TAG_typedef
	.dwattr $C$DW$T$226, DW_AT_name("__char32_t")
	.dwattr $C$DW$T$226, DW_AT_type(*$C$DW$T$225)
	.dwattr $C$DW$T$226, DW_AT_language(DW_LANG_C)
	.dwattr $C$DW$T$226, DW_AT_decl_file("/home/pola/ti/ccsv8/tools/compiler/ti-cgt-arm_18.1.1.LTS/include/sys/_types.h")
	.dwattr $C$DW$T$226, DW_AT_decl_line(0x67)
	.dwattr $C$DW$T$226, DW_AT_decl_column(0x1a)

$C$DW$T$227	.dwtag  DW_TAG_typedef
	.dwattr $C$DW$T$227, DW_AT_name("uint_least32_t")
	.dwattr $C$DW$T$227, DW_AT_type(*$C$DW$T$225)
	.dwattr $C$DW$T$227, DW_AT_language(DW_LANG_C)
	.dwattr $C$DW$T$227, DW_AT_decl_file("/home/pola/ti/ccsv8/tools/compiler/ti-cgt-arm_18.1.1.LTS/include/sys/stdint.h")
	.dwattr $C$DW$T$227, DW_AT_decl_line(0x2f)
	.dwattr $C$DW$T$227, DW_AT_decl_column(0x1a)

$C$DW$T$228	.dwtag  DW_TAG_typedef
	.dwattr $C$DW$T$228, DW_AT_name("__uintfptr_t")
	.dwattr $C$DW$T$228, DW_AT_type(*$C$DW$T$41)
	.dwattr $C$DW$T$228, DW_AT_language(DW_LANG_C)
	.dwattr $C$DW$T$228, DW_AT_decl_file("/home/pola/ti/ccsv8/tools/compiler/ti-cgt-arm_18.1.1.LTS/include/machine/_types.h")
	.dwattr $C$DW$T$228, DW_AT_decl_line(0x66)
	.dwattr $C$DW$T$228, DW_AT_decl_column(0x14)

$C$DW$T$229	.dwtag  DW_TAG_typedef
	.dwattr $C$DW$T$229, DW_AT_name("__uintptr_t")
	.dwattr $C$DW$T$229, DW_AT_type(*$C$DW$T$41)
	.dwattr $C$DW$T$229, DW_AT_language(DW_LANG_C)
	.dwattr $C$DW$T$229, DW_AT_decl_file("/home/pola/ti/ccsv8/tools/compiler/ti-cgt-arm_18.1.1.LTS/include/machine/_types.h")
	.dwattr $C$DW$T$229, DW_AT_decl_line(0x68)
	.dwattr $C$DW$T$229, DW_AT_decl_column(0x14)

$C$DW$T$230	.dwtag  DW_TAG_typedef
	.dwattr $C$DW$T$230, DW_AT_name("uintptr_t")
	.dwattr $C$DW$T$230, DW_AT_type(*$C$DW$T$229)
	.dwattr $C$DW$T$230, DW_AT_language(DW_LANG_C)
	.dwattr $C$DW$T$230, DW_AT_decl_file("/home/pola/ti/ccsv8/tools/compiler/ti-cgt-arm_18.1.1.LTS/include/sys/_stdint.h")
	.dwattr $C$DW$T$230, DW_AT_decl_line(0x50)
	.dwattr $C$DW$T$230, DW_AT_decl_column(0x16)

$C$DW$T$231	.dwtag  DW_TAG_typedef
	.dwattr $C$DW$T$231, DW_AT_name("__vm_offset_t")
	.dwattr $C$DW$T$231, DW_AT_type(*$C$DW$T$41)
	.dwattr $C$DW$T$231, DW_AT_language(DW_LANG_C)
	.dwattr $C$DW$T$231, DW_AT_decl_file("/home/pola/ti/ccsv8/tools/compiler/ti-cgt-arm_18.1.1.LTS/include/machine/_types.h")
	.dwattr $C$DW$T$231, DW_AT_decl_line(0x72)
	.dwattr $C$DW$T$231, DW_AT_decl_column(0x14)

$C$DW$T$232	.dwtag  DW_TAG_typedef
	.dwattr $C$DW$T$232, DW_AT_name("__vm_paddr_t")
	.dwattr $C$DW$T$232, DW_AT_type(*$C$DW$T$41)
	.dwattr $C$DW$T$232, DW_AT_language(DW_LANG_C)
	.dwattr $C$DW$T$232, DW_AT_decl_file("/home/pola/ti/ccsv8/tools/compiler/ti-cgt-arm_18.1.1.LTS/include/machine/_types.h")
	.dwattr $C$DW$T$232, DW_AT_decl_line(0x73)
	.dwattr $C$DW$T$232, DW_AT_decl_column(0x14)

$C$DW$T$233	.dwtag  DW_TAG_typedef
	.dwattr $C$DW$T$233, DW_AT_name("__vm_size_t")
	.dwattr $C$DW$T$233, DW_AT_type(*$C$DW$T$41)
	.dwattr $C$DW$T$233, DW_AT_language(DW_LANG_C)
	.dwattr $C$DW$T$233, DW_AT_decl_file("/home/pola/ti/ccsv8/tools/compiler/ti-cgt-arm_18.1.1.LTS/include/machine/_types.h")
	.dwattr $C$DW$T$233, DW_AT_decl_line(0x74)
	.dwattr $C$DW$T$233, DW_AT_decl_column(0x14)

$C$DW$T$42	.dwtag  DW_TAG_typedef
	.dwattr $C$DW$T$42, DW_AT_name("uint32_t")
	.dwattr $C$DW$T$42, DW_AT_type(*$C$DW$T$41)
	.dwattr $C$DW$T$42, DW_AT_language(DW_LANG_C)
	.dwattr $C$DW$T$42, DW_AT_decl_file("/home/pola/ti/ccsv8/tools/compiler/ti-cgt-arm_18.1.1.LTS/include/sys/_stdint.h")
	.dwattr $C$DW$T$42, DW_AT_decl_line(0x42)
	.dwattr $C$DW$T$42, DW_AT_decl_column(0x15)

$C$DW$T$79	.dwtag  DW_TAG_typedef
	.dwattr $C$DW$T$79, DW_AT_name("StackType_t")
	.dwattr $C$DW$T$79, DW_AT_type(*$C$DW$T$42)
	.dwattr $C$DW$T$79, DW_AT_language(DW_LANG_C)
	.dwattr $C$DW$T$79, DW_AT_decl_file("../OS/portmacro.h")
	.dwattr $C$DW$T$79, DW_AT_decl_line(0x37)
	.dwattr $C$DW$T$79, DW_AT_decl_column(0x18)

$C$DW$T$80	.dwtag  DW_TAG_pointer_type
	.dwattr $C$DW$T$80, DW_AT_type(*$C$DW$T$79)
	.dwattr $C$DW$T$80, DW_AT_address_class(0x20)

$C$DW$T$234	.dwtag  DW_TAG_const_type
	.dwattr $C$DW$T$234, DW_AT_type(*$C$DW$T$80)


$C$DW$T$235	.dwtag  DW_TAG_array_type
	.dwattr $C$DW$T$235, DW_AT_type(*$C$DW$T$79)
	.dwattr $C$DW$T$235, DW_AT_language(DW_LANG_C)
	.dwattr $C$DW$T$235, DW_AT_byte_size(0x200)
$C$DW$187	.dwtag  DW_TAG_subrange_type
	.dwattr $C$DW$187, DW_AT_upper_bound(0x7f)

	.dwendtag $C$DW$T$235

$C$DW$T$43	.dwtag  DW_TAG_typedef
	.dwattr $C$DW$T$43, DW_AT_name("TickType_t")
	.dwattr $C$DW$T$43, DW_AT_type(*$C$DW$T$42)
	.dwattr $C$DW$T$43, DW_AT_language(DW_LANG_C)
	.dwattr $C$DW$T$43, DW_AT_decl_file("../OS/portmacro.h")
	.dwattr $C$DW$T$43, DW_AT_decl_line(0x3f)
	.dwattr $C$DW$T$43, DW_AT_decl_column(0x13)

$C$DW$T$236	.dwtag  DW_TAG_const_type
	.dwattr $C$DW$T$236, DW_AT_type(*$C$DW$T$43)

$C$DW$T$239	.dwtag  DW_TAG_const_type
	.dwattr $C$DW$T$239, DW_AT_type(*$C$DW$T$42)

$C$DW$T$240	.dwtag  DW_TAG_typedef
	.dwattr $C$DW$T$240, DW_AT_name("__useconds_t")
	.dwattr $C$DW$T$240, DW_AT_type(*$C$DW$T$11)
	.dwattr $C$DW$T$240, DW_AT_language(DW_LANG_C)
	.dwattr $C$DW$T$240, DW_AT_decl_file("/home/pola/ti/ccsv8/tools/compiler/ti-cgt-arm_18.1.1.LTS/include/sys/_types.h")
	.dwattr $C$DW$T$240, DW_AT_decl_line(0x49)
	.dwattr $C$DW$T$240, DW_AT_decl_column(0x16)

$C$DW$T$33	.dwtag  DW_TAG_typedef
	.dwattr $C$DW$T$33, DW_AT_name("size_t")
	.dwattr $C$DW$T$33, DW_AT_type(*$C$DW$T$11)
	.dwattr $C$DW$T$33, DW_AT_language(DW_LANG_C)
	.dwattr $C$DW$T$33, DW_AT_decl_file("/home/pola/ti/ccsv8/tools/compiler/ti-cgt-arm_18.1.1.LTS/include/stddef.h")
	.dwattr $C$DW$T$33, DW_AT_decl_line(0x3a)
	.dwattr $C$DW$T$33, DW_AT_decl_column(0x19)


$C$DW$T$62	.dwtag  DW_TAG_array_type
	.dwattr $C$DW$T$62, DW_AT_type(*$C$DW$T$33)
	.dwattr $C$DW$T$62, DW_AT_language(DW_LANG_C)
	.dwattr $C$DW$T$62, DW_AT_byte_size(0x10)
$C$DW$188	.dwtag  DW_TAG_subrange_type
	.dwattr $C$DW$188, DW_AT_upper_bound(0x03)

	.dwendtag $C$DW$T$62

$C$DW$T$12	.dwtag  DW_TAG_base_type
	.dwattr $C$DW$T$12, DW_AT_encoding(DW_ATE_signed)
	.dwattr $C$DW$T$12, DW_AT_name("long")
	.dwattr $C$DW$T$12, DW_AT_byte_size(0x04)

$C$DW$T$89	.dwtag  DW_TAG_typedef
	.dwattr $C$DW$T$89, DW_AT_name("BaseType_t")
	.dwattr $C$DW$T$89, DW_AT_type(*$C$DW$T$12)
	.dwattr $C$DW$T$89, DW_AT_language(DW_LANG_C)
	.dwattr $C$DW$T$89, DW_AT_decl_file("../OS/portmacro.h")
	.dwattr $C$DW$T$89, DW_AT_decl_line(0x38)
	.dwattr $C$DW$T$89, DW_AT_decl_column(0x0e)

$C$DW$T$241	.dwtag  DW_TAG_const_type
	.dwattr $C$DW$T$241, DW_AT_type(*$C$DW$T$89)

$C$DW$T$246	.dwtag  DW_TAG_pointer_type
	.dwattr $C$DW$T$246, DW_AT_type(*$C$DW$T$89)
	.dwattr $C$DW$T$246, DW_AT_address_class(0x20)

$C$DW$T$247	.dwtag  DW_TAG_const_type
	.dwattr $C$DW$T$247, DW_AT_type(*$C$DW$T$246)


$C$DW$T$250	.dwtag  DW_TAG_subroutine_type
	.dwattr $C$DW$T$250, DW_AT_type(*$C$DW$T$89)
	.dwattr $C$DW$T$250, DW_AT_language(DW_LANG_C)
$C$DW$189	.dwtag  DW_TAG_formal_parameter
	.dwattr $C$DW$189, DW_AT_type(*$C$DW$T$3)

	.dwendtag $C$DW$T$250

$C$DW$T$251	.dwtag  DW_TAG_pointer_type
	.dwattr $C$DW$T$251, DW_AT_type(*$C$DW$T$250)
	.dwattr $C$DW$T$251, DW_AT_address_class(0x20)

$C$DW$T$252	.dwtag  DW_TAG_typedef
	.dwattr $C$DW$T$252, DW_AT_name("TaskHookFunction_t")
	.dwattr $C$DW$T$252, DW_AT_type(*$C$DW$T$251)
	.dwattr $C$DW$T$252, DW_AT_language(DW_LANG_C)
	.dwattr $C$DW$T$252, DW_AT_decl_file("../OS/task.h")
	.dwattr $C$DW$T$252, DW_AT_decl_line(0x44)
	.dwattr $C$DW$T$252, DW_AT_decl_column(0x16)

$C$DW$T$253	.dwtag  DW_TAG_typedef
	.dwattr $C$DW$T$253, DW_AT_name("__key_t")
	.dwattr $C$DW$T$253, DW_AT_type(*$C$DW$T$12)
	.dwattr $C$DW$T$253, DW_AT_language(DW_LANG_C)
	.dwattr $C$DW$T$253, DW_AT_decl_file("/home/pola/ti/ccsv8/tools/compiler/ti-cgt-arm_18.1.1.LTS/include/sys/_types.h")
	.dwattr $C$DW$T$253, DW_AT_decl_line(0x37)
	.dwattr $C$DW$T$253, DW_AT_decl_column(0x0f)

$C$DW$T$254	.dwtag  DW_TAG_typedef
	.dwattr $C$DW$T$254, DW_AT_name("__suseconds_t")
	.dwattr $C$DW$T$254, DW_AT_type(*$C$DW$T$12)
	.dwattr $C$DW$T$254, DW_AT_language(DW_LANG_C)
	.dwattr $C$DW$T$254, DW_AT_decl_file("/home/pola/ti/ccsv8/tools/compiler/ti-cgt-arm_18.1.1.LTS/include/sys/_types.h")
	.dwattr $C$DW$T$254, DW_AT_decl_line(0x45)
	.dwattr $C$DW$T$254, DW_AT_decl_column(0x0f)

$C$DW$T$13	.dwtag  DW_TAG_base_type
	.dwattr $C$DW$T$13, DW_AT_encoding(DW_ATE_unsigned)
	.dwattr $C$DW$T$13, DW_AT_name("unsigned long")
	.dwattr $C$DW$T$13, DW_AT_byte_size(0x04)

$C$DW$T$28	.dwtag  DW_TAG_typedef
	.dwattr $C$DW$T$28, DW_AT_name("UBaseType_t")
	.dwattr $C$DW$T$28, DW_AT_type(*$C$DW$T$13)
	.dwattr $C$DW$T$28, DW_AT_language(DW_LANG_C)
	.dwattr $C$DW$T$28, DW_AT_decl_file("../OS/portmacro.h")
	.dwattr $C$DW$T$28, DW_AT_decl_line(0x39)
	.dwattr $C$DW$T$28, DW_AT_decl_column(0x17)

$C$DW$T$36	.dwtag  DW_TAG_volatile_type
	.dwattr $C$DW$T$36, DW_AT_type(*$C$DW$T$28)

$C$DW$T$119	.dwtag  DW_TAG_const_type
	.dwattr $C$DW$T$119, DW_AT_type(*$C$DW$T$28)


$C$DW$T$59	.dwtag  DW_TAG_array_type
	.dwattr $C$DW$T$59, DW_AT_type(*$C$DW$T$28)
	.dwattr $C$DW$T$59, DW_AT_language(DW_LANG_C)
	.dwattr $C$DW$T$59, DW_AT_byte_size(0x0c)
$C$DW$190	.dwtag  DW_TAG_subrange_type
	.dwattr $C$DW$190, DW_AT_upper_bound(0x02)

	.dwendtag $C$DW$T$59


$C$DW$T$67	.dwtag  DW_TAG_array_type
	.dwattr $C$DW$T$67, DW_AT_type(*$C$DW$T$28)
	.dwattr $C$DW$T$67, DW_AT_language(DW_LANG_C)
	.dwattr $C$DW$T$67, DW_AT_byte_size(0x08)
$C$DW$191	.dwtag  DW_TAG_subrange_type
	.dwattr $C$DW$191, DW_AT_upper_bound(0x01)

	.dwendtag $C$DW$T$67

$C$DW$T$14	.dwtag  DW_TAG_base_type
	.dwattr $C$DW$T$14, DW_AT_encoding(DW_ATE_signed)
	.dwattr $C$DW$T$14, DW_AT_name("long long")
	.dwattr $C$DW$T$14, DW_AT_byte_size(0x08)

$C$DW$T$255	.dwtag  DW_TAG_typedef
	.dwattr $C$DW$T$255, DW_AT_name("__int64_t")
	.dwattr $C$DW$T$255, DW_AT_type(*$C$DW$T$14)
	.dwattr $C$DW$T$255, DW_AT_language(DW_LANG_C)
	.dwattr $C$DW$T$255, DW_AT_decl_file("/home/pola/ti/ccsv8/tools/compiler/ti-cgt-arm_18.1.1.LTS/include/machine/_types.h")
	.dwattr $C$DW$T$255, DW_AT_decl_line(0x43)
	.dwattr $C$DW$T$255, DW_AT_decl_column(0x14)

$C$DW$T$256	.dwtag  DW_TAG_typedef
	.dwattr $C$DW$T$256, DW_AT_name("__blkcnt_t")
	.dwattr $C$DW$T$256, DW_AT_type(*$C$DW$T$255)
	.dwattr $C$DW$T$256, DW_AT_language(DW_LANG_C)
	.dwattr $C$DW$T$256, DW_AT_decl_file("/home/pola/ti/ccsv8/tools/compiler/ti-cgt-arm_18.1.1.LTS/include/sys/_types.h")
	.dwattr $C$DW$T$256, DW_AT_decl_line(0x2f)
	.dwattr $C$DW$T$256, DW_AT_decl_column(0x13)

$C$DW$T$257	.dwtag  DW_TAG_typedef
	.dwattr $C$DW$T$257, DW_AT_name("__id_t")
	.dwattr $C$DW$T$257, DW_AT_type(*$C$DW$T$255)
	.dwattr $C$DW$T$257, DW_AT_language(DW_LANG_C)
	.dwattr $C$DW$T$257, DW_AT_decl_file("/home/pola/ti/ccsv8/tools/compiler/ti-cgt-arm_18.1.1.LTS/include/sys/_types.h")
	.dwattr $C$DW$T$257, DW_AT_decl_line(0x35)
	.dwattr $C$DW$T$257, DW_AT_decl_column(0x13)

$C$DW$T$258	.dwtag  DW_TAG_typedef
	.dwattr $C$DW$T$258, DW_AT_name("__int_fast64_t")
	.dwattr $C$DW$T$258, DW_AT_type(*$C$DW$T$255)
	.dwattr $C$DW$T$258, DW_AT_language(DW_LANG_C)
	.dwattr $C$DW$T$258, DW_AT_decl_file("/home/pola/ti/ccsv8/tools/compiler/ti-cgt-arm_18.1.1.LTS/include/machine/_types.h")
	.dwattr $C$DW$T$258, DW_AT_decl_line(0x57)
	.dwattr $C$DW$T$258, DW_AT_decl_column(0x13)

$C$DW$T$259	.dwtag  DW_TAG_typedef
	.dwattr $C$DW$T$259, DW_AT_name("int_fast64_t")
	.dwattr $C$DW$T$259, DW_AT_type(*$C$DW$T$258)
	.dwattr $C$DW$T$259, DW_AT_language(DW_LANG_C)
	.dwattr $C$DW$T$259, DW_AT_decl_file("/home/pola/ti/ccsv8/tools/compiler/ti-cgt-arm_18.1.1.LTS/include/sys/stdint.h")
	.dwattr $C$DW$T$259, DW_AT_decl_line(0x35)
	.dwattr $C$DW$T$259, DW_AT_decl_column(0x19)

$C$DW$T$260	.dwtag  DW_TAG_typedef
	.dwattr $C$DW$T$260, DW_AT_name("__int_least64_t")
	.dwattr $C$DW$T$260, DW_AT_type(*$C$DW$T$255)
	.dwattr $C$DW$T$260, DW_AT_language(DW_LANG_C)
	.dwattr $C$DW$T$260, DW_AT_decl_file("/home/pola/ti/ccsv8/tools/compiler/ti-cgt-arm_18.1.1.LTS/include/machine/_types.h")
	.dwattr $C$DW$T$260, DW_AT_decl_line(0x5b)
	.dwattr $C$DW$T$260, DW_AT_decl_column(0x13)

$C$DW$T$261	.dwtag  DW_TAG_typedef
	.dwattr $C$DW$T$261, DW_AT_name("int_least64_t")
	.dwattr $C$DW$T$261, DW_AT_type(*$C$DW$T$260)
	.dwattr $C$DW$T$261, DW_AT_language(DW_LANG_C)
	.dwattr $C$DW$T$261, DW_AT_decl_file("/home/pola/ti/ccsv8/tools/compiler/ti-cgt-arm_18.1.1.LTS/include/sys/stdint.h")
	.dwattr $C$DW$T$261, DW_AT_decl_line(0x2b)
	.dwattr $C$DW$T$261, DW_AT_decl_column(0x1a)

$C$DW$T$262	.dwtag  DW_TAG_typedef
	.dwattr $C$DW$T$262, DW_AT_name("__intmax_t")
	.dwattr $C$DW$T$262, DW_AT_type(*$C$DW$T$255)
	.dwattr $C$DW$T$262, DW_AT_language(DW_LANG_C)
	.dwattr $C$DW$T$262, DW_AT_decl_file("/home/pola/ti/ccsv8/tools/compiler/ti-cgt-arm_18.1.1.LTS/include/machine/_types.h")
	.dwattr $C$DW$T$262, DW_AT_decl_line(0x52)
	.dwattr $C$DW$T$262, DW_AT_decl_column(0x13)

$C$DW$T$263	.dwtag  DW_TAG_typedef
	.dwattr $C$DW$T$263, DW_AT_name("intmax_t")
	.dwattr $C$DW$T$263, DW_AT_type(*$C$DW$T$262)
	.dwattr $C$DW$T$263, DW_AT_language(DW_LANG_C)
	.dwattr $C$DW$T$263, DW_AT_decl_file("/home/pola/ti/ccsv8/tools/compiler/ti-cgt-arm_18.1.1.LTS/include/sys/_stdint.h")
	.dwattr $C$DW$T$263, DW_AT_decl_line(0x54)
	.dwattr $C$DW$T$263, DW_AT_decl_column(0x15)

$C$DW$T$264	.dwtag  DW_TAG_typedef
	.dwattr $C$DW$T$264, DW_AT_name("__off64_t")
	.dwattr $C$DW$T$264, DW_AT_type(*$C$DW$T$255)
	.dwattr $C$DW$T$264, DW_AT_language(DW_LANG_C)
	.dwattr $C$DW$T$264, DW_AT_decl_file("/home/pola/ti/ccsv8/tools/compiler/ti-cgt-arm_18.1.1.LTS/include/sys/_types.h")
	.dwattr $C$DW$T$264, DW_AT_decl_line(0x3e)
	.dwattr $C$DW$T$264, DW_AT_decl_column(0x13)

$C$DW$T$265	.dwtag  DW_TAG_typedef
	.dwattr $C$DW$T$265, DW_AT_name("__off_t")
	.dwattr $C$DW$T$265, DW_AT_type(*$C$DW$T$255)
	.dwattr $C$DW$T$265, DW_AT_language(DW_LANG_C)
	.dwattr $C$DW$T$265, DW_AT_decl_file("/home/pola/ti/ccsv8/tools/compiler/ti-cgt-arm_18.1.1.LTS/include/sys/_types.h")
	.dwattr $C$DW$T$265, DW_AT_decl_line(0x3d)
	.dwattr $C$DW$T$265, DW_AT_decl_column(0x13)

$C$DW$T$266	.dwtag  DW_TAG_typedef
	.dwattr $C$DW$T$266, DW_AT_name("__rlim_t")
	.dwattr $C$DW$T$266, DW_AT_type(*$C$DW$T$255)
	.dwattr $C$DW$T$266, DW_AT_language(DW_LANG_C)
	.dwattr $C$DW$T$266, DW_AT_decl_file("/home/pola/ti/ccsv8/tools/compiler/ti-cgt-arm_18.1.1.LTS/include/sys/_types.h")
	.dwattr $C$DW$T$266, DW_AT_decl_line(0x40)
	.dwattr $C$DW$T$266, DW_AT_decl_column(0x13)

$C$DW$T$267	.dwtag  DW_TAG_typedef
	.dwattr $C$DW$T$267, DW_AT_name("int64_t")
	.dwattr $C$DW$T$267, DW_AT_type(*$C$DW$T$255)
	.dwattr $C$DW$T$267, DW_AT_language(DW_LANG_C)
	.dwattr $C$DW$T$267, DW_AT_decl_file("/home/pola/ti/ccsv8/tools/compiler/ti-cgt-arm_18.1.1.LTS/include/sys/_stdint.h")
	.dwattr $C$DW$T$267, DW_AT_decl_line(0x33)
	.dwattr $C$DW$T$267, DW_AT_decl_column(0x14)

$C$DW$T$15	.dwtag  DW_TAG_base_type
	.dwattr $C$DW$T$15, DW_AT_encoding(DW_ATE_unsigned)
	.dwattr $C$DW$T$15, DW_AT_name("unsigned long long")
	.dwattr $C$DW$T$15, DW_AT_byte_size(0x08)

$C$DW$T$268	.dwtag  DW_TAG_typedef
	.dwattr $C$DW$T$268, DW_AT_name("__uint64_t")
	.dwattr $C$DW$T$268, DW_AT_type(*$C$DW$T$15)
	.dwattr $C$DW$T$268, DW_AT_language(DW_LANG_C)
	.dwattr $C$DW$T$268, DW_AT_decl_file("/home/pola/ti/ccsv8/tools/compiler/ti-cgt-arm_18.1.1.LTS/include/machine/_types.h")
	.dwattr $C$DW$T$268, DW_AT_decl_line(0x48)
	.dwattr $C$DW$T$268, DW_AT_decl_column(0x1c)

$C$DW$T$269	.dwtag  DW_TAG_typedef
	.dwattr $C$DW$T$269, DW_AT_name("__dev_t")
	.dwattr $C$DW$T$269, DW_AT_type(*$C$DW$T$268)
	.dwattr $C$DW$T$269, DW_AT_language(DW_LANG_C)
	.dwattr $C$DW$T$269, DW_AT_decl_file("/home/pola/ti/ccsv8/tools/compiler/ti-cgt-arm_18.1.1.LTS/include/sys/_types.h")
	.dwattr $C$DW$T$269, DW_AT_decl_line(0x74)
	.dwattr $C$DW$T$269, DW_AT_decl_column(0x14)

$C$DW$T$270	.dwtag  DW_TAG_typedef
	.dwattr $C$DW$T$270, DW_AT_name("__fsblkcnt_t")
	.dwattr $C$DW$T$270, DW_AT_type(*$C$DW$T$268)
	.dwattr $C$DW$T$270, DW_AT_language(DW_LANG_C)
	.dwattr $C$DW$T$270, DW_AT_decl_file("/home/pola/ti/ccsv8/tools/compiler/ti-cgt-arm_18.1.1.LTS/include/sys/_types.h")
	.dwattr $C$DW$T$270, DW_AT_decl_line(0x32)
	.dwattr $C$DW$T$270, DW_AT_decl_column(0x14)

$C$DW$T$271	.dwtag  DW_TAG_typedef
	.dwattr $C$DW$T$271, DW_AT_name("__fsfilcnt_t")
	.dwattr $C$DW$T$271, DW_AT_type(*$C$DW$T$268)
	.dwattr $C$DW$T$271, DW_AT_language(DW_LANG_C)
	.dwattr $C$DW$T$271, DW_AT_decl_file("/home/pola/ti/ccsv8/tools/compiler/ti-cgt-arm_18.1.1.LTS/include/sys/_types.h")
	.dwattr $C$DW$T$271, DW_AT_decl_line(0x33)
	.dwattr $C$DW$T$271, DW_AT_decl_column(0x14)

$C$DW$T$272	.dwtag  DW_TAG_typedef
	.dwattr $C$DW$T$272, DW_AT_name("__ino_t")
	.dwattr $C$DW$T$272, DW_AT_type(*$C$DW$T$268)
	.dwattr $C$DW$T$272, DW_AT_language(DW_LANG_C)
	.dwattr $C$DW$T$272, DW_AT_decl_file("/home/pola/ti/ccsv8/tools/compiler/ti-cgt-arm_18.1.1.LTS/include/sys/_types.h")
	.dwattr $C$DW$T$272, DW_AT_decl_line(0x36)
	.dwattr $C$DW$T$272, DW_AT_decl_column(0x14)

$C$DW$T$273	.dwtag  DW_TAG_typedef
	.dwattr $C$DW$T$273, DW_AT_name("__nlink_t")
	.dwattr $C$DW$T$273, DW_AT_type(*$C$DW$T$268)
	.dwattr $C$DW$T$273, DW_AT_language(DW_LANG_C)
	.dwattr $C$DW$T$273, DW_AT_decl_file("/home/pola/ti/ccsv8/tools/compiler/ti-cgt-arm_18.1.1.LTS/include/sys/_types.h")
	.dwattr $C$DW$T$273, DW_AT_decl_line(0x3c)
	.dwattr $C$DW$T$273, DW_AT_decl_column(0x14)

$C$DW$T$274	.dwtag  DW_TAG_typedef
	.dwattr $C$DW$T$274, DW_AT_name("__uint_fast64_t")
	.dwattr $C$DW$T$274, DW_AT_type(*$C$DW$T$268)
	.dwattr $C$DW$T$274, DW_AT_language(DW_LANG_C)
	.dwattr $C$DW$T$274, DW_AT_decl_file("/home/pola/ti/ccsv8/tools/compiler/ti-cgt-arm_18.1.1.LTS/include/machine/_types.h")
	.dwattr $C$DW$T$274, DW_AT_decl_line(0x6c)
	.dwattr $C$DW$T$274, DW_AT_decl_column(0x14)

$C$DW$T$275	.dwtag  DW_TAG_typedef
	.dwattr $C$DW$T$275, DW_AT_name("uint_fast64_t")
	.dwattr $C$DW$T$275, DW_AT_type(*$C$DW$T$274)
	.dwattr $C$DW$T$275, DW_AT_language(DW_LANG_C)
	.dwattr $C$DW$T$275, DW_AT_decl_file("/home/pola/ti/ccsv8/tools/compiler/ti-cgt-arm_18.1.1.LTS/include/sys/stdint.h")
	.dwattr $C$DW$T$275, DW_AT_decl_line(0x3a)
	.dwattr $C$DW$T$275, DW_AT_decl_column(0x1a)

$C$DW$T$276	.dwtag  DW_TAG_typedef
	.dwattr $C$DW$T$276, DW_AT_name("__uint_least64_t")
	.dwattr $C$DW$T$276, DW_AT_type(*$C$DW$T$268)
	.dwattr $C$DW$T$276, DW_AT_language(DW_LANG_C)
	.dwattr $C$DW$T$276, DW_AT_decl_file("/home/pola/ti/ccsv8/tools/compiler/ti-cgt-arm_18.1.1.LTS/include/machine/_types.h")
	.dwattr $C$DW$T$276, DW_AT_decl_line(0x70)
	.dwattr $C$DW$T$276, DW_AT_decl_column(0x14)

$C$DW$T$277	.dwtag  DW_TAG_typedef
	.dwattr $C$DW$T$277, DW_AT_name("uint_least64_t")
	.dwattr $C$DW$T$277, DW_AT_type(*$C$DW$T$276)
	.dwattr $C$DW$T$277, DW_AT_language(DW_LANG_C)
	.dwattr $C$DW$T$277, DW_AT_decl_file("/home/pola/ti/ccsv8/tools/compiler/ti-cgt-arm_18.1.1.LTS/include/sys/stdint.h")
	.dwattr $C$DW$T$277, DW_AT_decl_line(0x30)
	.dwattr $C$DW$T$277, DW_AT_decl_column(0x1a)

$C$DW$T$278	.dwtag  DW_TAG_typedef
	.dwattr $C$DW$T$278, DW_AT_name("__uintmax_t")
	.dwattr $C$DW$T$278, DW_AT_type(*$C$DW$T$268)
	.dwattr $C$DW$T$278, DW_AT_language(DW_LANG_C)
	.dwattr $C$DW$T$278, DW_AT_decl_file("/home/pola/ti/ccsv8/tools/compiler/ti-cgt-arm_18.1.1.LTS/include/machine/_types.h")
	.dwattr $C$DW$T$278, DW_AT_decl_line(0x67)
	.dwattr $C$DW$T$278, DW_AT_decl_column(0x14)

$C$DW$T$279	.dwtag  DW_TAG_typedef
	.dwattr $C$DW$T$279, DW_AT_name("__rman_res_t")
	.dwattr $C$DW$T$279, DW_AT_type(*$C$DW$T$278)
	.dwattr $C$DW$T$279, DW_AT_language(DW_LANG_C)
	.dwattr $C$DW$T$279, DW_AT_decl_file("/home/pola/ti/ccsv8/tools/compiler/ti-cgt-arm_18.1.1.LTS/include/sys/_types.h")
	.dwattr $C$DW$T$279, DW_AT_decl_line(0x8f)
	.dwattr $C$DW$T$279, DW_AT_decl_column(0x19)

$C$DW$T$280	.dwtag  DW_TAG_typedef
	.dwattr $C$DW$T$280, DW_AT_name("uintmax_t")
	.dwattr $C$DW$T$280, DW_AT_type(*$C$DW$T$278)
	.dwattr $C$DW$T$280, DW_AT_language(DW_LANG_C)
	.dwattr $C$DW$T$280, DW_AT_decl_file("/home/pola/ti/ccsv8/tools/compiler/ti-cgt-arm_18.1.1.LTS/include/sys/_stdint.h")
	.dwattr $C$DW$T$280, DW_AT_decl_line(0x58)
	.dwattr $C$DW$T$280, DW_AT_decl_column(0x16)

$C$DW$T$281	.dwtag  DW_TAG_typedef
	.dwattr $C$DW$T$281, DW_AT_name("uint64_t")
	.dwattr $C$DW$T$281, DW_AT_type(*$C$DW$T$268)
	.dwattr $C$DW$T$281, DW_AT_language(DW_LANG_C)
	.dwattr $C$DW$T$281, DW_AT_decl_file("/home/pola/ti/ccsv8/tools/compiler/ti-cgt-arm_18.1.1.LTS/include/sys/_stdint.h")
	.dwattr $C$DW$T$281, DW_AT_decl_line(0x47)
	.dwattr $C$DW$T$281, DW_AT_decl_column(0x15)

$C$DW$T$16	.dwtag  DW_TAG_base_type
	.dwattr $C$DW$T$16, DW_AT_encoding(DW_ATE_float)
	.dwattr $C$DW$T$16, DW_AT_name("float")
	.dwattr $C$DW$T$16, DW_AT_byte_size(0x04)

$C$DW$T$282	.dwtag  DW_TAG_typedef
	.dwattr $C$DW$T$282, DW_AT_name("__float_t")
	.dwattr $C$DW$T$282, DW_AT_type(*$C$DW$T$16)
	.dwattr $C$DW$T$282, DW_AT_language(DW_LANG_C)
	.dwattr $C$DW$T$282, DW_AT_decl_file("/home/pola/ti/ccsv8/tools/compiler/ti-cgt-arm_18.1.1.LTS/include/machine/_types.h")
	.dwattr $C$DW$T$282, DW_AT_decl_line(0x50)
	.dwattr $C$DW$T$282, DW_AT_decl_column(0x10)

$C$DW$T$17	.dwtag  DW_TAG_base_type
	.dwattr $C$DW$T$17, DW_AT_encoding(DW_ATE_float)
	.dwattr $C$DW$T$17, DW_AT_name("double")
	.dwattr $C$DW$T$17, DW_AT_byte_size(0x08)

$C$DW$T$283	.dwtag  DW_TAG_typedef
	.dwattr $C$DW$T$283, DW_AT_name("__double_t")
	.dwattr $C$DW$T$283, DW_AT_type(*$C$DW$T$17)
	.dwattr $C$DW$T$283, DW_AT_language(DW_LANG_C)
	.dwattr $C$DW$T$283, DW_AT_decl_file("/home/pola/ti/ccsv8/tools/compiler/ti-cgt-arm_18.1.1.LTS/include/machine/_types.h")
	.dwattr $C$DW$T$283, DW_AT_decl_line(0x4f)
	.dwattr $C$DW$T$283, DW_AT_decl_column(0x11)

$C$DW$T$18	.dwtag  DW_TAG_base_type
	.dwattr $C$DW$T$18, DW_AT_encoding(DW_ATE_float)
	.dwattr $C$DW$T$18, DW_AT_name("long double")
	.dwattr $C$DW$T$18, DW_AT_byte_size(0x08)

$C$DW$T$284	.dwtag  DW_TAG_typedef
	.dwattr $C$DW$T$284, DW_AT_name("max_align_t")
	.dwattr $C$DW$T$284, DW_AT_type(*$C$DW$T$18)
	.dwattr $C$DW$T$284, DW_AT_language(DW_LANG_C)
	.dwattr $C$DW$T$284, DW_AT_decl_file("/home/pola/ti/ccsv8/tools/compiler/ti-cgt-arm_18.1.1.LTS/include/stddef.h")
	.dwattr $C$DW$T$284, DW_AT_decl_line(0x4f)
	.dwattr $C$DW$T$284, DW_AT_decl_column(0x15)

$C$DW$T$74	.dwtag  DW_TAG_const_type
	.dwattr $C$DW$T$74, DW_AT_type(*$C$DW$T$6)

$C$DW$T$75	.dwtag  DW_TAG_pointer_type
	.dwattr $C$DW$T$75, DW_AT_type(*$C$DW$T$74)
	.dwattr $C$DW$T$75, DW_AT_address_class(0x20)

$C$DW$T$76	.dwtag  DW_TAG_const_type
	.dwattr $C$DW$T$76, DW_AT_type(*$C$DW$T$75)

$C$DW$T$144	.dwtag  DW_TAG_pointer_type
	.dwattr $C$DW$T$144, DW_AT_type(*$C$DW$T$6)
	.dwattr $C$DW$T$144, DW_AT_address_class(0x20)


$C$DW$T$20	.dwtag  DW_TAG_structure_type
	.dwattr $C$DW$T$20, DW_AT_name("__mq")
	.dwattr $C$DW$T$20, DW_AT_declaration
	.dwattr $C$DW$T$20, DW_AT_decl_file("/home/pola/ti/ccsv8/tools/compiler/ti-cgt-arm_18.1.1.LTS/include/sys/_types.h")
	.dwattr $C$DW$T$20, DW_AT_decl_line(0x47)
	.dwattr $C$DW$T$20, DW_AT_decl_column(0x10)
	.dwendtag $C$DW$T$20

$C$DW$T$285	.dwtag  DW_TAG_pointer_type
	.dwattr $C$DW$T$285, DW_AT_type(*$C$DW$T$20)
	.dwattr $C$DW$T$285, DW_AT_address_class(0x20)

$C$DW$T$286	.dwtag  DW_TAG_typedef
	.dwattr $C$DW$T$286, DW_AT_name("__mqd_t")
	.dwattr $C$DW$T$286, DW_AT_type(*$C$DW$T$285)
	.dwattr $C$DW$T$286, DW_AT_language(DW_LANG_C)
	.dwattr $C$DW$T$286, DW_AT_decl_file("/home/pola/ti/ccsv8/tools/compiler/ti-cgt-arm_18.1.1.LTS/include/sys/_types.h")
	.dwattr $C$DW$T$286, DW_AT_decl_line(0x47)
	.dwattr $C$DW$T$286, DW_AT_decl_column(0x16)


$C$DW$T$21	.dwtag  DW_TAG_structure_type
	.dwattr $C$DW$T$21, DW_AT_name("__timer")
	.dwattr $C$DW$T$21, DW_AT_declaration
	.dwattr $C$DW$T$21, DW_AT_decl_file("/home/pola/ti/ccsv8/tools/compiler/ti-cgt-arm_18.1.1.LTS/include/sys/_types.h")
	.dwattr $C$DW$T$21, DW_AT_decl_line(0x46)
	.dwattr $C$DW$T$21, DW_AT_decl_column(0x10)
	.dwendtag $C$DW$T$21

$C$DW$T$287	.dwtag  DW_TAG_pointer_type
	.dwattr $C$DW$T$287, DW_AT_type(*$C$DW$T$21)
	.dwattr $C$DW$T$287, DW_AT_address_class(0x20)

$C$DW$T$288	.dwtag  DW_TAG_typedef
	.dwattr $C$DW$T$288, DW_AT_name("__timer_t")
	.dwattr $C$DW$T$288, DW_AT_type(*$C$DW$T$287)
	.dwattr $C$DW$T$288, DW_AT_language(DW_LANG_C)
	.dwattr $C$DW$T$288, DW_AT_decl_file("/home/pola/ti/ccsv8/tools/compiler/ti-cgt-arm_18.1.1.LTS/include/sys/_types.h")
	.dwattr $C$DW$T$288, DW_AT_decl_line(0x46)
	.dwattr $C$DW$T$288, DW_AT_decl_column(0x19)


$C$DW$T$35	.dwtag  DW_TAG_structure_type
	.dwattr $C$DW$T$35, DW_AT_name("__va_list_t")
	.dwattr $C$DW$T$35, DW_AT_byte_size(0x04)
$C$DW$192	.dwtag  DW_TAG_member
	.dwattr $C$DW$192, DW_AT_type(*$C$DW$T$3)
	.dwattr $C$DW$192, DW_AT_name("__ap")
	.dwattr $C$DW$192, DW_AT_TI_symbol_name("__ap")
	.dwattr $C$DW$192, DW_AT_data_member_location[DW_OP_plus_uconst 0x0]
	.dwattr $C$DW$192, DW_AT_accessibility(DW_ACCESS_public)
	.dwattr $C$DW$192, DW_AT_decl_file("/home/pola/ti/ccsv8/tools/compiler/ti-cgt-arm_18.1.1.LTS/include/machine/_types.h")
	.dwattr $C$DW$192, DW_AT_decl_line(0x88)
	.dwattr $C$DW$192, DW_AT_decl_column(0x0c)

	.dwattr $C$DW$T$35, DW_AT_decl_file("/home/pola/ti/ccsv8/tools/compiler/ti-cgt-arm_18.1.1.LTS/include/machine/_types.h")
	.dwattr $C$DW$T$35, DW_AT_decl_line(0x87)
	.dwattr $C$DW$T$35, DW_AT_decl_column(0x10)
	.dwendtag $C$DW$T$35

$C$DW$T$289	.dwtag  DW_TAG_typedef
	.dwattr $C$DW$T$289, DW_AT_name("__va_list")
	.dwattr $C$DW$T$289, DW_AT_type(*$C$DW$T$35)
	.dwattr $C$DW$T$289, DW_AT_language(DW_LANG_C)
	.dwattr $C$DW$T$289, DW_AT_decl_file("/home/pola/ti/ccsv8/tools/compiler/ti-cgt-arm_18.1.1.LTS/include/machine/_types.h")
	.dwattr $C$DW$T$289, DW_AT_decl_line(0x89)
	.dwattr $C$DW$T$289, DW_AT_decl_column(0x03)


$C$DW$T$22	.dwtag  DW_TAG_structure_type
	.dwattr $C$DW$T$22, DW_AT_name("tmrTimerControl")
	.dwattr $C$DW$T$22, DW_AT_declaration
	.dwattr $C$DW$T$22, DW_AT_decl_file("../OS/timers.h")
	.dwattr $C$DW$T$22, DW_AT_decl_line(0x4c)
	.dwattr $C$DW$T$22, DW_AT_decl_column(0x08)
	.dwendtag $C$DW$T$22

$C$DW$T$131	.dwtag  DW_TAG_pointer_type
	.dwattr $C$DW$T$131, DW_AT_type(*$C$DW$T$22)
	.dwattr $C$DW$T$131, DW_AT_address_class(0x20)

$C$DW$T$132	.dwtag  DW_TAG_typedef
	.dwattr $C$DW$T$132, DW_AT_name("TimerHandle_t")
	.dwattr $C$DW$T$132, DW_AT_type(*$C$DW$T$131)
	.dwattr $C$DW$T$132, DW_AT_language(DW_LANG_C)
	.dwattr $C$DW$T$132, DW_AT_decl_file("../OS/timers.h")
	.dwattr $C$DW$T$132, DW_AT_decl_line(0x4d)
	.dwattr $C$DW$T$132, DW_AT_decl_column(0x22)


$C$DW$T$23	.dwtag  DW_TAG_structure_type
	.dwattr $C$DW$T$23, DW_AT_name("tskTaskControlBlock")
	.dwattr $C$DW$T$23, DW_AT_declaration
	.dwattr $C$DW$T$23, DW_AT_decl_file("../OS/task.h")
	.dwattr $C$DW$T$23, DW_AT_decl_line(0x3d)
	.dwattr $C$DW$T$23, DW_AT_decl_column(0x08)
	.dwendtag $C$DW$T$23

$C$DW$T$84	.dwtag  DW_TAG_pointer_type
	.dwattr $C$DW$T$84, DW_AT_type(*$C$DW$T$23)
	.dwattr $C$DW$T$84, DW_AT_address_class(0x20)

$C$DW$T$85	.dwtag  DW_TAG_typedef
	.dwattr $C$DW$T$85, DW_AT_name("TaskHandle_t")
	.dwattr $C$DW$T$85, DW_AT_type(*$C$DW$T$84)
	.dwattr $C$DW$T$85, DW_AT_language(DW_LANG_C)
	.dwattr $C$DW$T$85, DW_AT_decl_file("../OS/task.h")
	.dwattr $C$DW$T$85, DW_AT_decl_line(0x3e)
	.dwattr $C$DW$T$85, DW_AT_decl_column(0x25)


$C$DW$T$40	.dwtag  DW_TAG_structure_type
	.dwattr $C$DW$T$40, DW_AT_name("xLIST")
	.dwattr $C$DW$T$40, DW_AT_byte_size(0x14)
$C$DW$193	.dwtag  DW_TAG_member
	.dwattr $C$DW$193, DW_AT_type(*$C$DW$T$36)
	.dwattr $C$DW$193, DW_AT_name("uxNumberOfItems")
	.dwattr $C$DW$193, DW_AT_TI_symbol_name("uxNumberOfItems")
	.dwattr $C$DW$193, DW_AT_data_member_location[DW_OP_plus_uconst 0x0]
	.dwattr $C$DW$193, DW_AT_accessibility(DW_ACCESS_public)
	.dwattr $C$DW$193, DW_AT_decl_file("../OS/list.h")
	.dwattr $C$DW$193, DW_AT_decl_line(0xa7)
	.dwattr $C$DW$193, DW_AT_decl_column(0x17)

$C$DW$194	.dwtag  DW_TAG_member
	.dwattr $C$DW$194, DW_AT_type(*$C$DW$T$38)
	.dwattr $C$DW$194, DW_AT_name("pxIndex")
	.dwattr $C$DW$194, DW_AT_TI_symbol_name("pxIndex")
	.dwattr $C$DW$194, DW_AT_data_member_location[DW_OP_plus_uconst 0x4]
	.dwattr $C$DW$194, DW_AT_accessibility(DW_ACCESS_public)
	.dwattr $C$DW$194, DW_AT_decl_file("../OS/list.h")
	.dwattr $C$DW$194, DW_AT_decl_line(0xa8)
	.dwattr $C$DW$194, DW_AT_decl_column(0x23)

$C$DW$195	.dwtag  DW_TAG_member
	.dwattr $C$DW$195, DW_AT_type(*$C$DW$T$39)
	.dwattr $C$DW$195, DW_AT_name("xListEnd")
	.dwattr $C$DW$195, DW_AT_TI_symbol_name("xListEnd")
	.dwattr $C$DW$195, DW_AT_data_member_location[DW_OP_plus_uconst 0x8]
	.dwattr $C$DW$195, DW_AT_accessibility(DW_ACCESS_public)
	.dwattr $C$DW$195, DW_AT_decl_file("../OS/list.h")
	.dwattr $C$DW$195, DW_AT_decl_line(0xa9)
	.dwattr $C$DW$195, DW_AT_decl_column(0x11)

	.dwattr $C$DW$T$40, DW_AT_decl_file("../OS/list.h")
	.dwattr $C$DW$T$40, DW_AT_decl_line(0xa4)
	.dwattr $C$DW$T$40, DW_AT_decl_column(0x10)
	.dwendtag $C$DW$T$40

$C$DW$T$299	.dwtag  DW_TAG_typedef
	.dwattr $C$DW$T$299, DW_AT_name("List_t")
	.dwattr $C$DW$T$299, DW_AT_type(*$C$DW$T$40)
	.dwattr $C$DW$T$299, DW_AT_language(DW_LANG_C)
	.dwattr $C$DW$T$299, DW_AT_decl_file("../OS/list.h")
	.dwattr $C$DW$T$299, DW_AT_decl_line(0xab)
	.dwattr $C$DW$T$299, DW_AT_decl_column(0x03)

$C$DW$T$45	.dwtag  DW_TAG_pointer_type
	.dwattr $C$DW$T$45, DW_AT_type(*$C$DW$T$40)
	.dwattr $C$DW$T$45, DW_AT_address_class(0x20)


$C$DW$T$46	.dwtag  DW_TAG_structure_type
	.dwattr $C$DW$T$46, DW_AT_name("xLIST_ITEM")
	.dwattr $C$DW$T$46, DW_AT_byte_size(0x14)
$C$DW$196	.dwtag  DW_TAG_member
	.dwattr $C$DW$196, DW_AT_type(*$C$DW$T$43)
	.dwattr $C$DW$196, DW_AT_name("xItemValue")
	.dwattr $C$DW$196, DW_AT_TI_symbol_name("xItemValue")
	.dwattr $C$DW$196, DW_AT_data_member_location[DW_OP_plus_uconst 0x0]
	.dwattr $C$DW$196, DW_AT_accessibility(DW_ACCESS_public)
	.dwattr $C$DW$196, DW_AT_decl_file("../OS/list.h")
	.dwattr $C$DW$196, DW_AT_decl_line(0x8f)
	.dwattr $C$DW$196, DW_AT_decl_column(0x21)

$C$DW$197	.dwtag  DW_TAG_member
	.dwattr $C$DW$197, DW_AT_type(*$C$DW$T$44)
	.dwattr $C$DW$197, DW_AT_name("pxNext")
	.dwattr $C$DW$197, DW_AT_TI_symbol_name("pxNext")
	.dwattr $C$DW$197, DW_AT_data_member_location[DW_OP_plus_uconst 0x4]
	.dwattr $C$DW$197, DW_AT_accessibility(DW_ACCESS_public)
	.dwattr $C$DW$197, DW_AT_decl_file("../OS/list.h")
	.dwattr $C$DW$197, DW_AT_decl_line(0x90)
	.dwattr $C$DW$197, DW_AT_decl_column(0x2a)

$C$DW$198	.dwtag  DW_TAG_member
	.dwattr $C$DW$198, DW_AT_type(*$C$DW$T$44)
	.dwattr $C$DW$198, DW_AT_name("pxPrevious")
	.dwattr $C$DW$198, DW_AT_TI_symbol_name("pxPrevious")
	.dwattr $C$DW$198, DW_AT_data_member_location[DW_OP_plus_uconst 0x8]
	.dwattr $C$DW$198, DW_AT_accessibility(DW_ACCESS_public)
	.dwattr $C$DW$198, DW_AT_decl_file("../OS/list.h")
	.dwattr $C$DW$198, DW_AT_decl_line(0x91)
	.dwattr $C$DW$198, DW_AT_decl_column(0x2a)

$C$DW$199	.dwtag  DW_TAG_member
	.dwattr $C$DW$199, DW_AT_type(*$C$DW$T$3)
	.dwattr $C$DW$199, DW_AT_name("pvOwner")
	.dwattr $C$DW$199, DW_AT_TI_symbol_name("pvOwner")
	.dwattr $C$DW$199, DW_AT_data_member_location[DW_OP_plus_uconst 0xc]
	.dwattr $C$DW$199, DW_AT_accessibility(DW_ACCESS_public)
	.dwattr $C$DW$199, DW_AT_decl_file("../OS/list.h")
	.dwattr $C$DW$199, DW_AT_decl_line(0x92)
	.dwattr $C$DW$199, DW_AT_decl_column(0x09)

$C$DW$200	.dwtag  DW_TAG_member
	.dwattr $C$DW$200, DW_AT_type(*$C$DW$T$45)
	.dwattr $C$DW$200, DW_AT_name("pvContainer")
	.dwattr $C$DW$200, DW_AT_TI_symbol_name("pvContainer")
	.dwattr $C$DW$200, DW_AT_data_member_location[DW_OP_plus_uconst 0x10]
	.dwattr $C$DW$200, DW_AT_accessibility(DW_ACCESS_public)
	.dwattr $C$DW$200, DW_AT_decl_file("../OS/list.h")
	.dwattr $C$DW$200, DW_AT_decl_line(0x93)
	.dwattr $C$DW$200, DW_AT_decl_column(0x25)

	.dwattr $C$DW$T$46, DW_AT_decl_file("../OS/list.h")
	.dwattr $C$DW$T$46, DW_AT_decl_line(0x8c)
	.dwattr $C$DW$T$46, DW_AT_decl_column(0x08)
	.dwendtag $C$DW$T$46

$C$DW$T$37	.dwtag  DW_TAG_typedef
	.dwattr $C$DW$T$37, DW_AT_name("ListItem_t")
	.dwattr $C$DW$T$37, DW_AT_type(*$C$DW$T$46)
	.dwattr $C$DW$T$37, DW_AT_language(DW_LANG_C)
	.dwattr $C$DW$T$37, DW_AT_decl_file("../OS/list.h")
	.dwattr $C$DW$T$37, DW_AT_decl_line(0x96)
	.dwattr $C$DW$T$37, DW_AT_decl_column(0x1b)

$C$DW$T$38	.dwtag  DW_TAG_pointer_type
	.dwattr $C$DW$T$38, DW_AT_type(*$C$DW$T$37)
	.dwattr $C$DW$T$38, DW_AT_address_class(0x20)

$C$DW$T$44	.dwtag  DW_TAG_pointer_type
	.dwattr $C$DW$T$44, DW_AT_type(*$C$DW$T$46)
	.dwattr $C$DW$T$44, DW_AT_address_class(0x20)


$C$DW$T$47	.dwtag  DW_TAG_structure_type
	.dwattr $C$DW$T$47, DW_AT_name("xMEMORY_REGION")
	.dwattr $C$DW$T$47, DW_AT_byte_size(0x0c)
$C$DW$201	.dwtag  DW_TAG_member
	.dwattr $C$DW$201, DW_AT_type(*$C$DW$T$3)
	.dwattr $C$DW$201, DW_AT_name("pvBaseAddress")
	.dwattr $C$DW$201, DW_AT_TI_symbol_name("pvBaseAddress")
	.dwattr $C$DW$201, DW_AT_data_member_location[DW_OP_plus_uconst 0x0]
	.dwattr $C$DW$201, DW_AT_accessibility(DW_ACCESS_public)
	.dwattr $C$DW$201, DW_AT_decl_file("../OS/task.h")
	.dwattr $C$DW$201, DW_AT_decl_line(0x69)
	.dwattr $C$DW$201, DW_AT_decl_column(0x08)

$C$DW$202	.dwtag  DW_TAG_member
	.dwattr $C$DW$202, DW_AT_type(*$C$DW$T$42)
	.dwattr $C$DW$202, DW_AT_name("ulLengthInBytes")
	.dwattr $C$DW$202, DW_AT_TI_symbol_name("ulLengthInBytes")
	.dwattr $C$DW$202, DW_AT_data_member_location[DW_OP_plus_uconst 0x4]
	.dwattr $C$DW$202, DW_AT_accessibility(DW_ACCESS_public)
	.dwattr $C$DW$202, DW_AT_decl_file("../OS/task.h")
	.dwattr $C$DW$202, DW_AT_decl_line(0x6a)
	.dwattr $C$DW$202, DW_AT_decl_column(0x0b)

$C$DW$203	.dwtag  DW_TAG_member
	.dwattr $C$DW$203, DW_AT_type(*$C$DW$T$42)
	.dwattr $C$DW$203, DW_AT_name("ulParameters")
	.dwattr $C$DW$203, DW_AT_TI_symbol_name("ulParameters")
	.dwattr $C$DW$203, DW_AT_data_member_location[DW_OP_plus_uconst 0x8]
	.dwattr $C$DW$203, DW_AT_accessibility(DW_ACCESS_public)
	.dwattr $C$DW$203, DW_AT_decl_file("../OS/task.h")
	.dwattr $C$DW$203, DW_AT_decl_line(0x6b)
	.dwattr $C$DW$203, DW_AT_decl_column(0x0b)

	.dwattr $C$DW$T$47, DW_AT_decl_file("../OS/task.h")
	.dwattr $C$DW$T$47, DW_AT_decl_line(0x67)
	.dwattr $C$DW$T$47, DW_AT_decl_column(0x10)
	.dwendtag $C$DW$T$47

$C$DW$T$81	.dwtag  DW_TAG_typedef
	.dwattr $C$DW$T$81, DW_AT_name("MemoryRegion_t")
	.dwattr $C$DW$T$81, DW_AT_type(*$C$DW$T$47)
	.dwattr $C$DW$T$81, DW_AT_language(DW_LANG_C)
	.dwattr $C$DW$T$81, DW_AT_decl_file("../OS/task.h")
	.dwattr $C$DW$T$81, DW_AT_decl_line(0x6c)
	.dwattr $C$DW$T$81, DW_AT_decl_column(0x03)


$C$DW$T$82	.dwtag  DW_TAG_array_type
	.dwattr $C$DW$T$82, DW_AT_type(*$C$DW$T$81)
	.dwattr $C$DW$T$82, DW_AT_language(DW_LANG_C)
	.dwattr $C$DW$T$82, DW_AT_byte_size(0x0c)
$C$DW$204	.dwtag  DW_TAG_subrange_type
	.dwattr $C$DW$204, DW_AT_upper_bound(0x00)

	.dwendtag $C$DW$T$82


$C$DW$T$48	.dwtag  DW_TAG_structure_type
	.dwattr $C$DW$T$48, DW_AT_name("xMINI_LIST_ITEM")
	.dwattr $C$DW$T$48, DW_AT_byte_size(0x0c)
$C$DW$205	.dwtag  DW_TAG_member
	.dwattr $C$DW$205, DW_AT_type(*$C$DW$T$43)
	.dwattr $C$DW$205, DW_AT_name("xItemValue")
	.dwattr $C$DW$205, DW_AT_TI_symbol_name("xItemValue")
	.dwattr $C$DW$205, DW_AT_data_member_location[DW_OP_plus_uconst 0x0]
	.dwattr $C$DW$205, DW_AT_accessibility(DW_ACCESS_public)
	.dwattr $C$DW$205, DW_AT_decl_file("../OS/list.h")
	.dwattr $C$DW$205, DW_AT_decl_line(0x9b)
	.dwattr $C$DW$205, DW_AT_decl_column(0x21)

$C$DW$206	.dwtag  DW_TAG_member
	.dwattr $C$DW$206, DW_AT_type(*$C$DW$T$44)
	.dwattr $C$DW$206, DW_AT_name("pxNext")
	.dwattr $C$DW$206, DW_AT_TI_symbol_name("pxNext")
	.dwattr $C$DW$206, DW_AT_data_member_location[DW_OP_plus_uconst 0x4]
	.dwattr $C$DW$206, DW_AT_accessibility(DW_ACCESS_public)
	.dwattr $C$DW$206, DW_AT_decl_file("../OS/list.h")
	.dwattr $C$DW$206, DW_AT_decl_line(0x9c)
	.dwattr $C$DW$206, DW_AT_decl_column(0x2a)

$C$DW$207	.dwtag  DW_TAG_member
	.dwattr $C$DW$207, DW_AT_type(*$C$DW$T$44)
	.dwattr $C$DW$207, DW_AT_name("pxPrevious")
	.dwattr $C$DW$207, DW_AT_TI_symbol_name("pxPrevious")
	.dwattr $C$DW$207, DW_AT_data_member_location[DW_OP_plus_uconst 0x8]
	.dwattr $C$DW$207, DW_AT_accessibility(DW_ACCESS_public)
	.dwattr $C$DW$207, DW_AT_decl_file("../OS/list.h")
	.dwattr $C$DW$207, DW_AT_decl_line(0x9d)
	.dwattr $C$DW$207, DW_AT_decl_column(0x2a)

	.dwattr $C$DW$T$48, DW_AT_decl_file("../OS/list.h")
	.dwattr $C$DW$T$48, DW_AT_decl_line(0x98)
	.dwattr $C$DW$T$48, DW_AT_decl_column(0x08)
	.dwendtag $C$DW$T$48

$C$DW$T$39	.dwtag  DW_TAG_typedef
	.dwattr $C$DW$T$39, DW_AT_name("MiniListItem_t")
	.dwattr $C$DW$T$39, DW_AT_type(*$C$DW$T$48)
	.dwattr $C$DW$T$39, DW_AT_language(DW_LANG_C)
	.dwattr $C$DW$T$39, DW_AT_decl_file("../OS/list.h")
	.dwattr $C$DW$T$39, DW_AT_decl_line(0x9f)
	.dwattr $C$DW$T$39, DW_AT_decl_column(0x20)


$C$DW$T$50	.dwtag  DW_TAG_structure_type
	.dwattr $C$DW$T$50, DW_AT_name("xSTATIC_EVENT_GROUP")
	.dwattr $C$DW$T$50, DW_AT_byte_size(0x1c)
$C$DW$208	.dwtag  DW_TAG_member
	.dwattr $C$DW$208, DW_AT_type(*$C$DW$T$43)
	.dwattr $C$DW$208, DW_AT_name("xDummy1")
	.dwattr $C$DW$208, DW_AT_TI_symbol_name("xDummy1")
	.dwattr $C$DW$208, DW_AT_data_member_location[DW_OP_plus_uconst 0x0]
	.dwattr $C$DW$208, DW_AT_accessibility(DW_ACCESS_public)
	.dwattr $C$DW$208, DW_AT_decl_file("../OS/FreeRTOS.h")
	.dwattr $C$DW$208, DW_AT_decl_line(0x455)
	.dwattr $C$DW$208, DW_AT_decl_column(0x0d)

$C$DW$209	.dwtag  DW_TAG_member
	.dwattr $C$DW$209, DW_AT_type(*$C$DW$T$49)
	.dwattr $C$DW$209, DW_AT_name("xDummy2")
	.dwattr $C$DW$209, DW_AT_TI_symbol_name("xDummy2")
	.dwattr $C$DW$209, DW_AT_data_member_location[DW_OP_plus_uconst 0x4]
	.dwattr $C$DW$209, DW_AT_accessibility(DW_ACCESS_public)
	.dwattr $C$DW$209, DW_AT_decl_file("../OS/FreeRTOS.h")
	.dwattr $C$DW$209, DW_AT_decl_line(0x456)
	.dwattr $C$DW$209, DW_AT_decl_column(0x0f)

$C$DW$210	.dwtag  DW_TAG_member
	.dwattr $C$DW$210, DW_AT_type(*$C$DW$T$28)
	.dwattr $C$DW$210, DW_AT_name("uxDummy3")
	.dwattr $C$DW$210, DW_AT_TI_symbol_name("uxDummy3")
	.dwattr $C$DW$210, DW_AT_data_member_location[DW_OP_plus_uconst 0x18]
	.dwattr $C$DW$210, DW_AT_accessibility(DW_ACCESS_public)
	.dwattr $C$DW$210, DW_AT_decl_file("../OS/FreeRTOS.h")
	.dwattr $C$DW$210, DW_AT_decl_line(0x459)
	.dwattr $C$DW$210, DW_AT_decl_column(0x0f)

	.dwattr $C$DW$T$50, DW_AT_decl_file("../OS/FreeRTOS.h")
	.dwattr $C$DW$T$50, DW_AT_decl_line(0x453)
	.dwattr $C$DW$T$50, DW_AT_decl_column(0x10)
	.dwendtag $C$DW$T$50

$C$DW$T$300	.dwtag  DW_TAG_typedef
	.dwattr $C$DW$T$300, DW_AT_name("StaticEventGroup_t")
	.dwattr $C$DW$T$300, DW_AT_type(*$C$DW$T$50)
	.dwattr $C$DW$T$300, DW_AT_language(DW_LANG_C)
	.dwattr $C$DW$T$300, DW_AT_decl_file("../OS/FreeRTOS.h")
	.dwattr $C$DW$T$300, DW_AT_decl_line(0x460)
	.dwattr $C$DW$T$300, DW_AT_decl_column(0x03)


$C$DW$T$52	.dwtag  DW_TAG_structure_type
	.dwattr $C$DW$T$52, DW_AT_name("xSTATIC_LIST")
	.dwattr $C$DW$T$52, DW_AT_byte_size(0x14)
$C$DW$211	.dwtag  DW_TAG_member
	.dwattr $C$DW$211, DW_AT_type(*$C$DW$T$28)
	.dwattr $C$DW$211, DW_AT_name("uxDummy1")
	.dwattr $C$DW$211, DW_AT_TI_symbol_name("uxDummy1")
	.dwattr $C$DW$211, DW_AT_data_member_location[DW_OP_plus_uconst 0x0]
	.dwattr $C$DW$211, DW_AT_accessibility(DW_ACCESS_public)
	.dwattr $C$DW$211, DW_AT_decl_file("../OS/FreeRTOS.h")
	.dwattr $C$DW$211, DW_AT_decl_line(0x3d5)
	.dwattr $C$DW$211, DW_AT_decl_column(0x0e)

$C$DW$212	.dwtag  DW_TAG_member
	.dwattr $C$DW$212, DW_AT_type(*$C$DW$T$3)
	.dwattr $C$DW$212, DW_AT_name("pvDummy2")
	.dwattr $C$DW$212, DW_AT_TI_symbol_name("pvDummy2")
	.dwattr $C$DW$212, DW_AT_data_member_location[DW_OP_plus_uconst 0x4]
	.dwattr $C$DW$212, DW_AT_accessibility(DW_ACCESS_public)
	.dwattr $C$DW$212, DW_AT_decl_file("../OS/FreeRTOS.h")
	.dwattr $C$DW$212, DW_AT_decl_line(0x3d6)
	.dwattr $C$DW$212, DW_AT_decl_column(0x08)

$C$DW$213	.dwtag  DW_TAG_member
	.dwattr $C$DW$213, DW_AT_type(*$C$DW$T$51)
	.dwattr $C$DW$213, DW_AT_name("xDummy3")
	.dwattr $C$DW$213, DW_AT_TI_symbol_name("xDummy3")
	.dwattr $C$DW$213, DW_AT_data_member_location[DW_OP_plus_uconst 0x8]
	.dwattr $C$DW$213, DW_AT_accessibility(DW_ACCESS_public)
	.dwattr $C$DW$213, DW_AT_decl_file("../OS/FreeRTOS.h")
	.dwattr $C$DW$213, DW_AT_decl_line(0x3d7)
	.dwattr $C$DW$213, DW_AT_decl_column(0x17)

	.dwattr $C$DW$T$52, DW_AT_decl_file("../OS/FreeRTOS.h")
	.dwattr $C$DW$T$52, DW_AT_decl_line(0x3d3)
	.dwattr $C$DW$T$52, DW_AT_decl_column(0x10)
	.dwendtag $C$DW$T$52

$C$DW$T$49	.dwtag  DW_TAG_typedef
	.dwattr $C$DW$T$49, DW_AT_name("StaticList_t")
	.dwattr $C$DW$T$49, DW_AT_type(*$C$DW$T$52)
	.dwattr $C$DW$T$49, DW_AT_language(DW_LANG_C)
	.dwattr $C$DW$T$49, DW_AT_decl_file("../OS/FreeRTOS.h")
	.dwattr $C$DW$T$49, DW_AT_decl_line(0x3d8)
	.dwattr $C$DW$T$49, DW_AT_decl_column(0x03)


$C$DW$T$58	.dwtag  DW_TAG_array_type
	.dwattr $C$DW$T$58, DW_AT_type(*$C$DW$T$49)
	.dwattr $C$DW$T$58, DW_AT_language(DW_LANG_C)
	.dwattr $C$DW$T$58, DW_AT_byte_size(0x28)
$C$DW$214	.dwtag  DW_TAG_subrange_type
	.dwattr $C$DW$214, DW_AT_upper_bound(0x01)

	.dwendtag $C$DW$T$58


$C$DW$T$54	.dwtag  DW_TAG_structure_type
	.dwattr $C$DW$T$54, DW_AT_name("xSTATIC_LIST_ITEM")
	.dwattr $C$DW$T$54, DW_AT_byte_size(0x14)
$C$DW$215	.dwtag  DW_TAG_member
	.dwattr $C$DW$215, DW_AT_type(*$C$DW$T$43)
	.dwattr $C$DW$215, DW_AT_name("xDummy1")
	.dwattr $C$DW$215, DW_AT_TI_symbol_name("xDummy1")
	.dwattr $C$DW$215, DW_AT_data_member_location[DW_OP_plus_uconst 0x0]
	.dwattr $C$DW$215, DW_AT_accessibility(DW_ACCESS_public)
	.dwattr $C$DW$215, DW_AT_decl_file("../OS/FreeRTOS.h")
	.dwattr $C$DW$215, DW_AT_decl_line(0x3c5)
	.dwattr $C$DW$215, DW_AT_decl_column(0x0d)

$C$DW$216	.dwtag  DW_TAG_member
	.dwattr $C$DW$216, DW_AT_type(*$C$DW$T$53)
	.dwattr $C$DW$216, DW_AT_name("pvDummy2")
	.dwattr $C$DW$216, DW_AT_TI_symbol_name("pvDummy2")
	.dwattr $C$DW$216, DW_AT_data_member_location[DW_OP_plus_uconst 0x4]
	.dwattr $C$DW$216, DW_AT_accessibility(DW_ACCESS_public)
	.dwattr $C$DW$216, DW_AT_decl_file("../OS/FreeRTOS.h")
	.dwattr $C$DW$216, DW_AT_decl_line(0x3c6)
	.dwattr $C$DW$216, DW_AT_decl_column(0x08)

	.dwattr $C$DW$T$54, DW_AT_decl_file("../OS/FreeRTOS.h")
	.dwattr $C$DW$T$54, DW_AT_decl_line(0x3c3)
	.dwattr $C$DW$T$54, DW_AT_decl_column(0x08)
	.dwendtag $C$DW$T$54

$C$DW$T$64	.dwtag  DW_TAG_typedef
	.dwattr $C$DW$T$64, DW_AT_name("StaticListItem_t")
	.dwattr $C$DW$T$64, DW_AT_type(*$C$DW$T$54)
	.dwattr $C$DW$T$64, DW_AT_language(DW_LANG_C)
	.dwattr $C$DW$T$64, DW_AT_decl_file("../OS/FreeRTOS.h")
	.dwattr $C$DW$T$64, DW_AT_decl_line(0x3c8)
	.dwattr $C$DW$T$64, DW_AT_decl_column(0x22)


$C$DW$T$65	.dwtag  DW_TAG_array_type
	.dwattr $C$DW$T$65, DW_AT_type(*$C$DW$T$64)
	.dwattr $C$DW$T$65, DW_AT_language(DW_LANG_C)
	.dwattr $C$DW$T$65, DW_AT_byte_size(0x28)
$C$DW$217	.dwtag  DW_TAG_subrange_type
	.dwattr $C$DW$217, DW_AT_upper_bound(0x01)

	.dwendtag $C$DW$T$65


$C$DW$T$56	.dwtag  DW_TAG_structure_type
	.dwattr $C$DW$T$56, DW_AT_name("xSTATIC_MINI_LIST_ITEM")
	.dwattr $C$DW$T$56, DW_AT_byte_size(0x0c)
$C$DW$218	.dwtag  DW_TAG_member
	.dwattr $C$DW$218, DW_AT_type(*$C$DW$T$43)
	.dwattr $C$DW$218, DW_AT_name("xDummy1")
	.dwattr $C$DW$218, DW_AT_TI_symbol_name("xDummy1")
	.dwattr $C$DW$218, DW_AT_data_member_location[DW_OP_plus_uconst 0x0]
	.dwattr $C$DW$218, DW_AT_accessibility(DW_ACCESS_public)
	.dwattr $C$DW$218, DW_AT_decl_file("../OS/FreeRTOS.h")
	.dwattr $C$DW$218, DW_AT_decl_line(0x3cd)
	.dwattr $C$DW$218, DW_AT_decl_column(0x0d)

$C$DW$219	.dwtag  DW_TAG_member
	.dwattr $C$DW$219, DW_AT_type(*$C$DW$T$55)
	.dwattr $C$DW$219, DW_AT_name("pvDummy2")
	.dwattr $C$DW$219, DW_AT_TI_symbol_name("pvDummy2")
	.dwattr $C$DW$219, DW_AT_data_member_location[DW_OP_plus_uconst 0x4]
	.dwattr $C$DW$219, DW_AT_accessibility(DW_ACCESS_public)
	.dwattr $C$DW$219, DW_AT_decl_file("../OS/FreeRTOS.h")
	.dwattr $C$DW$219, DW_AT_decl_line(0x3ce)
	.dwattr $C$DW$219, DW_AT_decl_column(0x08)

	.dwattr $C$DW$T$56, DW_AT_decl_file("../OS/FreeRTOS.h")
	.dwattr $C$DW$T$56, DW_AT_decl_line(0x3cb)
	.dwattr $C$DW$T$56, DW_AT_decl_column(0x08)
	.dwendtag $C$DW$T$56

$C$DW$T$51	.dwtag  DW_TAG_typedef
	.dwattr $C$DW$T$51, DW_AT_name("StaticMiniListItem_t")
	.dwattr $C$DW$T$51, DW_AT_type(*$C$DW$T$56)
	.dwattr $C$DW$T$51, DW_AT_language(DW_LANG_C)
	.dwattr $C$DW$T$51, DW_AT_decl_file("../OS/FreeRTOS.h")
	.dwattr $C$DW$T$51, DW_AT_decl_line(0x3d0)
	.dwattr $C$DW$T$51, DW_AT_decl_column(0x27)


$C$DW$T$61	.dwtag  DW_TAG_structure_type
	.dwattr $C$DW$T$61, DW_AT_name("xSTATIC_QUEUE")
	.dwattr $C$DW$T$61, DW_AT_byte_size(0x50)
$C$DW$220	.dwtag  DW_TAG_member
	.dwattr $C$DW$220, DW_AT_type(*$C$DW$T$57)
	.dwattr $C$DW$220, DW_AT_name("pvDummy1")
	.dwattr $C$DW$220, DW_AT_TI_symbol_name("pvDummy1")
	.dwattr $C$DW$220, DW_AT_data_member_location[DW_OP_plus_uconst 0x0]
	.dwattr $C$DW$220, DW_AT_accessibility(DW_ACCESS_public)
	.dwattr $C$DW$220, DW_AT_decl_file("../OS/FreeRTOS.h")
	.dwattr $C$DW$220, DW_AT_decl_line(0x429)
	.dwattr $C$DW$220, DW_AT_decl_column(0x08)

$C$DW$221	.dwtag  DW_TAG_member
	.dwattr $C$DW$221, DW_AT_type(*$C$DW$T$29)
	.dwattr $C$DW$221, DW_AT_name("u")
	.dwattr $C$DW$221, DW_AT_TI_symbol_name("u")
	.dwattr $C$DW$221, DW_AT_data_member_location[DW_OP_plus_uconst 0xc]
	.dwattr $C$DW$221, DW_AT_accessibility(DW_ACCESS_public)
	.dwattr $C$DW$221, DW_AT_decl_file("../OS/FreeRTOS.h")
	.dwattr $C$DW$221, DW_AT_decl_line(0x42f)
	.dwattr $C$DW$221, DW_AT_decl_column(0x04)

$C$DW$222	.dwtag  DW_TAG_member
	.dwattr $C$DW$222, DW_AT_type(*$C$DW$T$58)
	.dwattr $C$DW$222, DW_AT_name("xDummy3")
	.dwattr $C$DW$222, DW_AT_TI_symbol_name("xDummy3")
	.dwattr $C$DW$222, DW_AT_data_member_location[DW_OP_plus_uconst 0x10]
	.dwattr $C$DW$222, DW_AT_accessibility(DW_ACCESS_public)
	.dwattr $C$DW$222, DW_AT_decl_file("../OS/FreeRTOS.h")
	.dwattr $C$DW$222, DW_AT_decl_line(0x431)
	.dwattr $C$DW$222, DW_AT_decl_column(0x0f)

$C$DW$223	.dwtag  DW_TAG_member
	.dwattr $C$DW$223, DW_AT_type(*$C$DW$T$59)
	.dwattr $C$DW$223, DW_AT_name("uxDummy4")
	.dwattr $C$DW$223, DW_AT_TI_symbol_name("uxDummy4")
	.dwattr $C$DW$223, DW_AT_data_member_location[DW_OP_plus_uconst 0x38]
	.dwattr $C$DW$223, DW_AT_accessibility(DW_ACCESS_public)
	.dwattr $C$DW$223, DW_AT_decl_file("../OS/FreeRTOS.h")
	.dwattr $C$DW$223, DW_AT_decl_line(0x432)
	.dwattr $C$DW$223, DW_AT_decl_column(0x0e)

$C$DW$224	.dwtag  DW_TAG_member
	.dwattr $C$DW$224, DW_AT_type(*$C$DW$T$60)
	.dwattr $C$DW$224, DW_AT_name("ucDummy5")
	.dwattr $C$DW$224, DW_AT_TI_symbol_name("ucDummy5")
	.dwattr $C$DW$224, DW_AT_data_member_location[DW_OP_plus_uconst 0x44]
	.dwattr $C$DW$224, DW_AT_accessibility(DW_ACCESS_public)
	.dwattr $C$DW$224, DW_AT_decl_file("../OS/FreeRTOS.h")
	.dwattr $C$DW$224, DW_AT_decl_line(0x433)
	.dwattr $C$DW$224, DW_AT_decl_column(0x0a)

$C$DW$225	.dwtag  DW_TAG_member
	.dwattr $C$DW$225, DW_AT_type(*$C$DW$T$28)
	.dwattr $C$DW$225, DW_AT_name("uxDummy8")
	.dwattr $C$DW$225, DW_AT_TI_symbol_name("uxDummy8")
	.dwattr $C$DW$225, DW_AT_data_member_location[DW_OP_plus_uconst 0x48]
	.dwattr $C$DW$225, DW_AT_accessibility(DW_ACCESS_public)
	.dwattr $C$DW$225, DW_AT_decl_file("../OS/FreeRTOS.h")
	.dwattr $C$DW$225, DW_AT_decl_line(0x43e)
	.dwattr $C$DW$225, DW_AT_decl_column(0x0f)

$C$DW$226	.dwtag  DW_TAG_member
	.dwattr $C$DW$226, DW_AT_type(*$C$DW$T$31)
	.dwattr $C$DW$226, DW_AT_name("ucDummy9")
	.dwattr $C$DW$226, DW_AT_TI_symbol_name("ucDummy9")
	.dwattr $C$DW$226, DW_AT_data_member_location[DW_OP_plus_uconst 0x4c]
	.dwattr $C$DW$226, DW_AT_accessibility(DW_ACCESS_public)
	.dwattr $C$DW$226, DW_AT_decl_file("../OS/FreeRTOS.h")
	.dwattr $C$DW$226, DW_AT_decl_line(0x43f)
	.dwattr $C$DW$226, DW_AT_decl_column(0x0b)

	.dwattr $C$DW$T$61, DW_AT_decl_file("../OS/FreeRTOS.h")
	.dwattr $C$DW$T$61, DW_AT_decl_line(0x427)
	.dwattr $C$DW$T$61, DW_AT_decl_column(0x10)
	.dwendtag $C$DW$T$61

$C$DW$T$120	.dwtag  DW_TAG_typedef
	.dwattr $C$DW$T$120, DW_AT_name("StaticQueue_t")
	.dwattr $C$DW$T$120, DW_AT_type(*$C$DW$T$61)
	.dwattr $C$DW$T$120, DW_AT_language(DW_LANG_C)
	.dwattr $C$DW$T$120, DW_AT_decl_file("../OS/FreeRTOS.h")
	.dwattr $C$DW$T$120, DW_AT_decl_line(0x442)
	.dwattr $C$DW$T$120, DW_AT_decl_column(0x03)

$C$DW$T$301	.dwtag  DW_TAG_typedef
	.dwattr $C$DW$T$301, DW_AT_name("StaticSemaphore_t")
	.dwattr $C$DW$T$301, DW_AT_type(*$C$DW$T$120)
	.dwattr $C$DW$T$301, DW_AT_language(DW_LANG_C)
	.dwattr $C$DW$T$301, DW_AT_decl_file("../OS/FreeRTOS.h")
	.dwattr $C$DW$T$301, DW_AT_decl_line(0x443)
	.dwattr $C$DW$T$301, DW_AT_decl_column(0x17)

$C$DW$T$121	.dwtag  DW_TAG_pointer_type
	.dwattr $C$DW$T$121, DW_AT_type(*$C$DW$T$120)
	.dwattr $C$DW$T$121, DW_AT_address_class(0x20)


$C$DW$T$63	.dwtag  DW_TAG_structure_type
	.dwattr $C$DW$T$63, DW_AT_name("xSTATIC_STREAM_BUFFER")
	.dwattr $C$DW$T$63, DW_AT_byte_size(0x24)
$C$DW$227	.dwtag  DW_TAG_member
	.dwattr $C$DW$227, DW_AT_type(*$C$DW$T$62)
	.dwattr $C$DW$227, DW_AT_name("uxDummy1")
	.dwattr $C$DW$227, DW_AT_TI_symbol_name("uxDummy1")
	.dwattr $C$DW$227, DW_AT_data_member_location[DW_OP_plus_uconst 0x0]
	.dwattr $C$DW$227, DW_AT_accessibility(DW_ACCESS_public)
	.dwattr $C$DW$227, DW_AT_decl_file("../OS/FreeRTOS.h")
	.dwattr $C$DW$227, DW_AT_decl_line(0x492)
	.dwattr $C$DW$227, DW_AT_decl_column(0x09)

$C$DW$228	.dwtag  DW_TAG_member
	.dwattr $C$DW$228, DW_AT_type(*$C$DW$T$57)
	.dwattr $C$DW$228, DW_AT_name("pvDummy2")
	.dwattr $C$DW$228, DW_AT_TI_symbol_name("pvDummy2")
	.dwattr $C$DW$228, DW_AT_data_member_location[DW_OP_plus_uconst 0x10]
	.dwattr $C$DW$228, DW_AT_accessibility(DW_ACCESS_public)
	.dwattr $C$DW$228, DW_AT_decl_file("../OS/FreeRTOS.h")
	.dwattr $C$DW$228, DW_AT_decl_line(0x493)
	.dwattr $C$DW$228, DW_AT_decl_column(0x09)

$C$DW$229	.dwtag  DW_TAG_member
	.dwattr $C$DW$229, DW_AT_type(*$C$DW$T$31)
	.dwattr $C$DW$229, DW_AT_name("ucDummy3")
	.dwattr $C$DW$229, DW_AT_TI_symbol_name("ucDummy3")
	.dwattr $C$DW$229, DW_AT_data_member_location[DW_OP_plus_uconst 0x1c]
	.dwattr $C$DW$229, DW_AT_accessibility(DW_ACCESS_public)
	.dwattr $C$DW$229, DW_AT_decl_file("../OS/FreeRTOS.h")
	.dwattr $C$DW$229, DW_AT_decl_line(0x494)
	.dwattr $C$DW$229, DW_AT_decl_column(0x0a)

$C$DW$230	.dwtag  DW_TAG_member
	.dwattr $C$DW$230, DW_AT_type(*$C$DW$T$28)
	.dwattr $C$DW$230, DW_AT_name("uxDummy4")
	.dwattr $C$DW$230, DW_AT_TI_symbol_name("uxDummy4")
	.dwattr $C$DW$230, DW_AT_data_member_location[DW_OP_plus_uconst 0x20]
	.dwattr $C$DW$230, DW_AT_accessibility(DW_ACCESS_public)
	.dwattr $C$DW$230, DW_AT_decl_file("../OS/FreeRTOS.h")
	.dwattr $C$DW$230, DW_AT_decl_line(0x496)
	.dwattr $C$DW$230, DW_AT_decl_column(0x0f)

	.dwattr $C$DW$T$63, DW_AT_decl_file("../OS/FreeRTOS.h")
	.dwattr $C$DW$T$63, DW_AT_decl_line(0x490)
	.dwattr $C$DW$T$63, DW_AT_decl_column(0x10)
	.dwendtag $C$DW$T$63

$C$DW$T$302	.dwtag  DW_TAG_typedef
	.dwattr $C$DW$T$302, DW_AT_name("StaticStreamBuffer_t")
	.dwattr $C$DW$T$302, DW_AT_type(*$C$DW$T$63)
	.dwattr $C$DW$T$302, DW_AT_language(DW_LANG_C)
	.dwattr $C$DW$T$302, DW_AT_decl_file("../OS/FreeRTOS.h")
	.dwattr $C$DW$T$302, DW_AT_decl_line(0x498)
	.dwattr $C$DW$T$302, DW_AT_decl_column(0x03)

$C$DW$T$303	.dwtag  DW_TAG_typedef
	.dwattr $C$DW$T$303, DW_AT_name("StaticMessageBuffer_t")
	.dwattr $C$DW$T$303, DW_AT_type(*$C$DW$T$302)
	.dwattr $C$DW$T$303, DW_AT_language(DW_LANG_C)
	.dwattr $C$DW$T$303, DW_AT_decl_file("../OS/FreeRTOS.h")
	.dwattr $C$DW$T$303, DW_AT_decl_line(0x49b)
	.dwattr $C$DW$T$303, DW_AT_decl_column(0x1e)


$C$DW$T$68	.dwtag  DW_TAG_structure_type
	.dwattr $C$DW$T$68, DW_AT_name("xSTATIC_TCB")
	.dwattr $C$DW$T$68, DW_AT_byte_size(0x58)
$C$DW$231	.dwtag  DW_TAG_member
	.dwattr $C$DW$231, DW_AT_type(*$C$DW$T$3)
	.dwattr $C$DW$231, DW_AT_name("pxDummy1")
	.dwattr $C$DW$231, DW_AT_TI_symbol_name("pxDummy1")
	.dwattr $C$DW$231, DW_AT_data_member_location[DW_OP_plus_uconst 0x0]
	.dwattr $C$DW$231, DW_AT_accessibility(DW_ACCESS_public)
	.dwattr $C$DW$231, DW_AT_decl_file("../OS/FreeRTOS.h")
	.dwattr $C$DW$231, DW_AT_decl_line(0x3e9)
	.dwattr $C$DW$231, DW_AT_decl_column(0x0b)

$C$DW$232	.dwtag  DW_TAG_member
	.dwattr $C$DW$232, DW_AT_type(*$C$DW$T$65)
	.dwattr $C$DW$232, DW_AT_name("xDummy3")
	.dwattr $C$DW$232, DW_AT_TI_symbol_name("xDummy3")
	.dwattr $C$DW$232, DW_AT_data_member_location[DW_OP_plus_uconst 0x4]
	.dwattr $C$DW$232, DW_AT_accessibility(DW_ACCESS_public)
	.dwattr $C$DW$232, DW_AT_decl_file("../OS/FreeRTOS.h")
	.dwattr $C$DW$232, DW_AT_decl_line(0x3ed)
	.dwattr $C$DW$232, DW_AT_decl_column(0x13)

$C$DW$233	.dwtag  DW_TAG_member
	.dwattr $C$DW$233, DW_AT_type(*$C$DW$T$28)
	.dwattr $C$DW$233, DW_AT_name("uxDummy5")
	.dwattr $C$DW$233, DW_AT_TI_symbol_name("uxDummy5")
	.dwattr $C$DW$233, DW_AT_data_member_location[DW_OP_plus_uconst 0x2c]
	.dwattr $C$DW$233, DW_AT_accessibility(DW_ACCESS_public)
	.dwattr $C$DW$233, DW_AT_decl_file("../OS/FreeRTOS.h")
	.dwattr $C$DW$233, DW_AT_decl_line(0x3ee)
	.dwattr $C$DW$233, DW_AT_decl_column(0x10)

$C$DW$234	.dwtag  DW_TAG_member
	.dwattr $C$DW$234, DW_AT_type(*$C$DW$T$3)
	.dwattr $C$DW$234, DW_AT_name("pxDummy6")
	.dwattr $C$DW$234, DW_AT_TI_symbol_name("pxDummy6")
	.dwattr $C$DW$234, DW_AT_data_member_location[DW_OP_plus_uconst 0x30]
	.dwattr $C$DW$234, DW_AT_accessibility(DW_ACCESS_public)
	.dwattr $C$DW$234, DW_AT_decl_file("../OS/FreeRTOS.h")
	.dwattr $C$DW$234, DW_AT_decl_line(0x3ef)
	.dwattr $C$DW$234, DW_AT_decl_column(0x0b)

$C$DW$235	.dwtag  DW_TAG_member
	.dwattr $C$DW$235, DW_AT_type(*$C$DW$T$66)
	.dwattr $C$DW$235, DW_AT_name("ucDummy7")
	.dwattr $C$DW$235, DW_AT_TI_symbol_name("ucDummy7")
	.dwattr $C$DW$235, DW_AT_data_member_location[DW_OP_plus_uconst 0x34]
	.dwattr $C$DW$235, DW_AT_accessibility(DW_ACCESS_public)
	.dwattr $C$DW$235, DW_AT_decl_file("../OS/FreeRTOS.h")
	.dwattr $C$DW$235, DW_AT_decl_line(0x3f0)
	.dwattr $C$DW$235, DW_AT_decl_column(0x0d)

$C$DW$236	.dwtag  DW_TAG_member
	.dwattr $C$DW$236, DW_AT_type(*$C$DW$T$67)
	.dwattr $C$DW$236, DW_AT_name("uxDummy10")
	.dwattr $C$DW$236, DW_AT_TI_symbol_name("uxDummy10")
	.dwattr $C$DW$236, DW_AT_data_member_location[DW_OP_plus_uconst 0x40]
	.dwattr $C$DW$236, DW_AT_accessibility(DW_ACCESS_public)
	.dwattr $C$DW$236, DW_AT_decl_file("../OS/FreeRTOS.h")
	.dwattr $C$DW$236, DW_AT_decl_line(0x3f8)
	.dwattr $C$DW$236, DW_AT_decl_column(0x10)

$C$DW$237	.dwtag  DW_TAG_member
	.dwattr $C$DW$237, DW_AT_type(*$C$DW$T$67)
	.dwattr $C$DW$237, DW_AT_name("uxDummy12")
	.dwattr $C$DW$237, DW_AT_TI_symbol_name("uxDummy12")
	.dwattr $C$DW$237, DW_AT_data_member_location[DW_OP_plus_uconst 0x48]
	.dwattr $C$DW$237, DW_AT_accessibility(DW_ACCESS_public)
	.dwattr $C$DW$237, DW_AT_decl_file("../OS/FreeRTOS.h")
	.dwattr $C$DW$237, DW_AT_decl_line(0x3fb)
	.dwattr $C$DW$237, DW_AT_decl_column(0x10)

$C$DW$238	.dwtag  DW_TAG_member
	.dwattr $C$DW$238, DW_AT_type(*$C$DW$T$42)
	.dwattr $C$DW$238, DW_AT_name("ulDummy18")
	.dwattr $C$DW$238, DW_AT_TI_symbol_name("ulDummy18")
	.dwattr $C$DW$238, DW_AT_data_member_location[DW_OP_plus_uconst 0x50]
	.dwattr $C$DW$238, DW_AT_accessibility(DW_ACCESS_public)
	.dwattr $C$DW$238, DW_AT_decl_file("../OS/FreeRTOS.h")
	.dwattr $C$DW$238, DW_AT_decl_line(0x40a)
	.dwattr $C$DW$238, DW_AT_decl_column(0x0e)

$C$DW$239	.dwtag  DW_TAG_member
	.dwattr $C$DW$239, DW_AT_type(*$C$DW$T$31)
	.dwattr $C$DW$239, DW_AT_name("ucDummy19")
	.dwattr $C$DW$239, DW_AT_TI_symbol_name("ucDummy19")
	.dwattr $C$DW$239, DW_AT_data_member_location[DW_OP_plus_uconst 0x54]
	.dwattr $C$DW$239, DW_AT_accessibility(DW_ACCESS_public)
	.dwattr $C$DW$239, DW_AT_decl_file("../OS/FreeRTOS.h")
	.dwattr $C$DW$239, DW_AT_decl_line(0x40b)
	.dwattr $C$DW$239, DW_AT_decl_column(0x0d)

	.dwattr $C$DW$T$68, DW_AT_decl_file("../OS/FreeRTOS.h")
	.dwattr $C$DW$T$68, DW_AT_decl_line(0x3e7)
	.dwattr $C$DW$T$68, DW_AT_decl_column(0x10)
	.dwendtag $C$DW$T$68

$C$DW$T$294	.dwtag  DW_TAG_typedef
	.dwattr $C$DW$T$294, DW_AT_name("StaticTask_t")
	.dwattr $C$DW$T$294, DW_AT_type(*$C$DW$T$68)
	.dwattr $C$DW$T$294, DW_AT_language(DW_LANG_C)
	.dwattr $C$DW$T$294, DW_AT_decl_file("../OS/FreeRTOS.h")
	.dwattr $C$DW$T$294, DW_AT_decl_line(0x417)
	.dwattr $C$DW$T$294, DW_AT_decl_column(0x03)

$C$DW$T$295	.dwtag  DW_TAG_pointer_type
	.dwattr $C$DW$T$295, DW_AT_type(*$C$DW$T$294)
	.dwattr $C$DW$T$295, DW_AT_address_class(0x20)

$C$DW$T$296	.dwtag  DW_TAG_const_type
	.dwattr $C$DW$T$296, DW_AT_type(*$C$DW$T$295)


$C$DW$T$72	.dwtag  DW_TAG_structure_type
	.dwattr $C$DW$T$72, DW_AT_name("xSTATIC_TIMER")
	.dwattr $C$DW$T$72, DW_AT_byte_size(0x2c)
$C$DW$240	.dwtag  DW_TAG_member
	.dwattr $C$DW$240, DW_AT_type(*$C$DW$T$3)
	.dwattr $C$DW$240, DW_AT_name("pvDummy1")
	.dwattr $C$DW$240, DW_AT_TI_symbol_name("pvDummy1")
	.dwattr $C$DW$240, DW_AT_data_member_location[DW_OP_plus_uconst 0x0]
	.dwattr $C$DW$240, DW_AT_accessibility(DW_ACCESS_public)
	.dwattr $C$DW$240, DW_AT_decl_file("../OS/FreeRTOS.h")
	.dwattr $C$DW$240, DW_AT_decl_line(0x472)
	.dwattr $C$DW$240, DW_AT_decl_column(0x0b)

$C$DW$241	.dwtag  DW_TAG_member
	.dwattr $C$DW$241, DW_AT_type(*$C$DW$T$64)
	.dwattr $C$DW$241, DW_AT_name("xDummy2")
	.dwattr $C$DW$241, DW_AT_TI_symbol_name("xDummy2")
	.dwattr $C$DW$241, DW_AT_data_member_location[DW_OP_plus_uconst 0x4]
	.dwattr $C$DW$241, DW_AT_accessibility(DW_ACCESS_public)
	.dwattr $C$DW$241, DW_AT_decl_file("../OS/FreeRTOS.h")
	.dwattr $C$DW$241, DW_AT_decl_line(0x473)
	.dwattr $C$DW$241, DW_AT_decl_column(0x13)

$C$DW$242	.dwtag  DW_TAG_member
	.dwattr $C$DW$242, DW_AT_type(*$C$DW$T$43)
	.dwattr $C$DW$242, DW_AT_name("xDummy3")
	.dwattr $C$DW$242, DW_AT_TI_symbol_name("xDummy3")
	.dwattr $C$DW$242, DW_AT_data_member_location[DW_OP_plus_uconst 0x18]
	.dwattr $C$DW$242, DW_AT_accessibility(DW_ACCESS_public)
	.dwattr $C$DW$242, DW_AT_decl_file("../OS/FreeRTOS.h")
	.dwattr $C$DW$242, DW_AT_decl_line(0x474)
	.dwattr $C$DW$242, DW_AT_decl_column(0x0f)

$C$DW$243	.dwtag  DW_TAG_member
	.dwattr $C$DW$243, DW_AT_type(*$C$DW$T$28)
	.dwattr $C$DW$243, DW_AT_name("uxDummy4")
	.dwattr $C$DW$243, DW_AT_TI_symbol_name("uxDummy4")
	.dwattr $C$DW$243, DW_AT_data_member_location[DW_OP_plus_uconst 0x1c]
	.dwattr $C$DW$243, DW_AT_accessibility(DW_ACCESS_public)
	.dwattr $C$DW$243, DW_AT_decl_file("../OS/FreeRTOS.h")
	.dwattr $C$DW$243, DW_AT_decl_line(0x475)
	.dwattr $C$DW$243, DW_AT_decl_column(0x10)

$C$DW$244	.dwtag  DW_TAG_member
	.dwattr $C$DW$244, DW_AT_type(*$C$DW$T$3)
	.dwattr $C$DW$244, DW_AT_name("pvDummy5")
	.dwattr $C$DW$244, DW_AT_TI_symbol_name("pvDummy5")
	.dwattr $C$DW$244, DW_AT_data_member_location[DW_OP_plus_uconst 0x20]
	.dwattr $C$DW$244, DW_AT_accessibility(DW_ACCESS_public)
	.dwattr $C$DW$244, DW_AT_decl_file("../OS/FreeRTOS.h")
	.dwattr $C$DW$244, DW_AT_decl_line(0x476)
	.dwattr $C$DW$244, DW_AT_decl_column(0x0c)

$C$DW$245	.dwtag  DW_TAG_member
	.dwattr $C$DW$245, DW_AT_type(*$C$DW$T$71)
	.dwattr $C$DW$245, DW_AT_name("pvDummy6")
	.dwattr $C$DW$245, DW_AT_TI_symbol_name("pvDummy6")
	.dwattr $C$DW$245, DW_AT_data_member_location[DW_OP_plus_uconst 0x24]
	.dwattr $C$DW$245, DW_AT_accessibility(DW_ACCESS_public)
	.dwattr $C$DW$245, DW_AT_decl_file("../OS/FreeRTOS.h")
	.dwattr $C$DW$245, DW_AT_decl_line(0x477)
	.dwattr $C$DW$245, DW_AT_decl_column(0x12)

$C$DW$246	.dwtag  DW_TAG_member
	.dwattr $C$DW$246, DW_AT_type(*$C$DW$T$28)
	.dwattr $C$DW$246, DW_AT_name("uxDummy7")
	.dwattr $C$DW$246, DW_AT_TI_symbol_name("uxDummy7")
	.dwattr $C$DW$246, DW_AT_data_member_location[DW_OP_plus_uconst 0x28]
	.dwattr $C$DW$246, DW_AT_accessibility(DW_ACCESS_public)
	.dwattr $C$DW$246, DW_AT_decl_file("../OS/FreeRTOS.h")
	.dwattr $C$DW$246, DW_AT_decl_line(0x479)
	.dwattr $C$DW$246, DW_AT_decl_column(0x10)

	.dwattr $C$DW$T$72, DW_AT_decl_file("../OS/FreeRTOS.h")
	.dwattr $C$DW$T$72, DW_AT_decl_line(0x470)
	.dwattr $C$DW$T$72, DW_AT_decl_column(0x10)
	.dwendtag $C$DW$T$72

$C$DW$T$290	.dwtag  DW_TAG_typedef
	.dwattr $C$DW$T$290, DW_AT_name("StaticTimer_t")
	.dwattr $C$DW$T$290, DW_AT_type(*$C$DW$T$72)
	.dwattr $C$DW$T$290, DW_AT_language(DW_LANG_C)
	.dwattr $C$DW$T$290, DW_AT_decl_file("../OS/FreeRTOS.h")
	.dwattr $C$DW$T$290, DW_AT_decl_line(0x480)
	.dwattr $C$DW$T$290, DW_AT_decl_column(0x03)

$C$DW$T$291	.dwtag  DW_TAG_pointer_type
	.dwattr $C$DW$T$291, DW_AT_type(*$C$DW$T$290)
	.dwattr $C$DW$T$291, DW_AT_address_class(0x20)


$C$DW$T$83	.dwtag  DW_TAG_structure_type
	.dwattr $C$DW$T$83, DW_AT_name("xTASK_PARAMETERS")
	.dwattr $C$DW$T$83, DW_AT_byte_size(0x24)
$C$DW$247	.dwtag  DW_TAG_member
	.dwattr $C$DW$247, DW_AT_type(*$C$DW$T$71)
	.dwattr $C$DW$247, DW_AT_name("pvTaskCode")
	.dwattr $C$DW$247, DW_AT_TI_symbol_name("pvTaskCode")
	.dwattr $C$DW$247, DW_AT_data_member_location[DW_OP_plus_uconst 0x0]
	.dwattr $C$DW$247, DW_AT_accessibility(DW_ACCESS_public)
	.dwattr $C$DW$247, DW_AT_decl_file("../OS/task.h")
	.dwattr $C$DW$247, DW_AT_decl_line(0x73)
	.dwattr $C$DW$247, DW_AT_decl_column(0x11)

$C$DW$248	.dwtag  DW_TAG_member
	.dwattr $C$DW$248, DW_AT_type(*$C$DW$T$76)
	.dwattr $C$DW$248, DW_AT_name("pcName")
	.dwattr $C$DW$248, DW_AT_TI_symbol_name("pcName")
	.dwattr $C$DW$248, DW_AT_data_member_location[DW_OP_plus_uconst 0x4]
	.dwattr $C$DW$248, DW_AT_accessibility(DW_ACCESS_public)
	.dwattr $C$DW$248, DW_AT_decl_file("../OS/task.h")
	.dwattr $C$DW$248, DW_AT_decl_line(0x74)
	.dwattr $C$DW$248, DW_AT_decl_column(0x15)

$C$DW$249	.dwtag  DW_TAG_member
	.dwattr $C$DW$249, DW_AT_type(*$C$DW$T$78)
	.dwattr $C$DW$249, DW_AT_name("usStackDepth")
	.dwattr $C$DW$249, DW_AT_TI_symbol_name("usStackDepth")
	.dwattr $C$DW$249, DW_AT_data_member_location[DW_OP_plus_uconst 0x8]
	.dwattr $C$DW$249, DW_AT_accessibility(DW_ACCESS_public)
	.dwattr $C$DW$249, DW_AT_decl_file("../OS/task.h")
	.dwattr $C$DW$249, DW_AT_decl_line(0x75)
	.dwattr $C$DW$249, DW_AT_decl_column(0x0b)

$C$DW$250	.dwtag  DW_TAG_member
	.dwattr $C$DW$250, DW_AT_type(*$C$DW$T$3)
	.dwattr $C$DW$250, DW_AT_name("pvParameters")
	.dwattr $C$DW$250, DW_AT_TI_symbol_name("pvParameters")
	.dwattr $C$DW$250, DW_AT_data_member_location[DW_OP_plus_uconst 0xc]
	.dwattr $C$DW$250, DW_AT_accessibility(DW_ACCESS_public)
	.dwattr $C$DW$250, DW_AT_decl_file("../OS/task.h")
	.dwattr $C$DW$250, DW_AT_decl_line(0x76)
	.dwattr $C$DW$250, DW_AT_decl_column(0x08)

$C$DW$251	.dwtag  DW_TAG_member
	.dwattr $C$DW$251, DW_AT_type(*$C$DW$T$28)
	.dwattr $C$DW$251, DW_AT_name("uxPriority")
	.dwattr $C$DW$251, DW_AT_TI_symbol_name("uxPriority")
	.dwattr $C$DW$251, DW_AT_data_member_location[DW_OP_plus_uconst 0x10]
	.dwattr $C$DW$251, DW_AT_accessibility(DW_ACCESS_public)
	.dwattr $C$DW$251, DW_AT_decl_file("../OS/task.h")
	.dwattr $C$DW$251, DW_AT_decl_line(0x77)
	.dwattr $C$DW$251, DW_AT_decl_column(0x0e)

$C$DW$252	.dwtag  DW_TAG_member
	.dwattr $C$DW$252, DW_AT_type(*$C$DW$T$80)
	.dwattr $C$DW$252, DW_AT_name("puxStackBuffer")
	.dwattr $C$DW$252, DW_AT_TI_symbol_name("puxStackBuffer")
	.dwattr $C$DW$252, DW_AT_data_member_location[DW_OP_plus_uconst 0x14]
	.dwattr $C$DW$252, DW_AT_accessibility(DW_ACCESS_public)
	.dwattr $C$DW$252, DW_AT_decl_file("../OS/task.h")
	.dwattr $C$DW$252, DW_AT_decl_line(0x78)
	.dwattr $C$DW$252, DW_AT_decl_column(0x0f)

$C$DW$253	.dwtag  DW_TAG_member
	.dwattr $C$DW$253, DW_AT_type(*$C$DW$T$82)
	.dwattr $C$DW$253, DW_AT_name("xRegions")
	.dwattr $C$DW$253, DW_AT_TI_symbol_name("xRegions")
	.dwattr $C$DW$253, DW_AT_data_member_location[DW_OP_plus_uconst 0x18]
	.dwattr $C$DW$253, DW_AT_accessibility(DW_ACCESS_public)
	.dwattr $C$DW$253, DW_AT_decl_file("../OS/task.h")
	.dwattr $C$DW$253, DW_AT_decl_line(0x79)
	.dwattr $C$DW$253, DW_AT_decl_column(0x11)

	.dwattr $C$DW$T$83, DW_AT_decl_file("../OS/task.h")
	.dwattr $C$DW$T$83, DW_AT_decl_line(0x71)
	.dwattr $C$DW$T$83, DW_AT_decl_column(0x10)
	.dwendtag $C$DW$T$83

$C$DW$T$304	.dwtag  DW_TAG_typedef
	.dwattr $C$DW$T$304, DW_AT_name("TaskParameters_t")
	.dwattr $C$DW$T$304, DW_AT_type(*$C$DW$T$83)
	.dwattr $C$DW$T$304, DW_AT_language(DW_LANG_C)
	.dwattr $C$DW$T$304, DW_AT_decl_file("../OS/task.h")
	.dwattr $C$DW$T$304, DW_AT_decl_line(0x7d)
	.dwattr $C$DW$T$304, DW_AT_decl_column(0x03)


$C$DW$T$88	.dwtag  DW_TAG_structure_type
	.dwattr $C$DW$T$88, DW_AT_name("xTASK_STATUS")
	.dwattr $C$DW$T$88, DW_AT_byte_size(0x24)
$C$DW$254	.dwtag  DW_TAG_member
	.dwattr $C$DW$254, DW_AT_type(*$C$DW$T$85)
	.dwattr $C$DW$254, DW_AT_name("xHandle")
	.dwattr $C$DW$254, DW_AT_TI_symbol_name("xHandle")
	.dwattr $C$DW$254, DW_AT_data_member_location[DW_OP_plus_uconst 0x0]
	.dwattr $C$DW$254, DW_AT_accessibility(DW_ACCESS_public)
	.dwattr $C$DW$254, DW_AT_decl_file("../OS/task.h")
	.dwattr $C$DW$254, DW_AT_decl_line(0x83)
	.dwattr $C$DW$254, DW_AT_decl_column(0x0f)

$C$DW$255	.dwtag  DW_TAG_member
	.dwattr $C$DW$255, DW_AT_type(*$C$DW$T$75)
	.dwattr $C$DW$255, DW_AT_name("pcTaskName")
	.dwattr $C$DW$255, DW_AT_TI_symbol_name("pcTaskName")
	.dwattr $C$DW$255, DW_AT_data_member_location[DW_OP_plus_uconst 0x4]
	.dwattr $C$DW$255, DW_AT_accessibility(DW_ACCESS_public)
	.dwattr $C$DW$255, DW_AT_decl_file("../OS/task.h")
	.dwattr $C$DW$255, DW_AT_decl_line(0x84)
	.dwattr $C$DW$255, DW_AT_decl_column(0x0e)

$C$DW$256	.dwtag  DW_TAG_member
	.dwattr $C$DW$256, DW_AT_type(*$C$DW$T$28)
	.dwattr $C$DW$256, DW_AT_name("xTaskNumber")
	.dwattr $C$DW$256, DW_AT_TI_symbol_name("xTaskNumber")
	.dwattr $C$DW$256, DW_AT_data_member_location[DW_OP_plus_uconst 0x8]
	.dwattr $C$DW$256, DW_AT_accessibility(DW_ACCESS_public)
	.dwattr $C$DW$256, DW_AT_decl_file("../OS/task.h")
	.dwattr $C$DW$256, DW_AT_decl_line(0x85)
	.dwattr $C$DW$256, DW_AT_decl_column(0x0e)

$C$DW$257	.dwtag  DW_TAG_member
	.dwattr $C$DW$257, DW_AT_type(*$C$DW$T$87)
	.dwattr $C$DW$257, DW_AT_name("eCurrentState")
	.dwattr $C$DW$257, DW_AT_TI_symbol_name("eCurrentState")
	.dwattr $C$DW$257, DW_AT_data_member_location[DW_OP_plus_uconst 0xc]
	.dwattr $C$DW$257, DW_AT_accessibility(DW_ACCESS_public)
	.dwattr $C$DW$257, DW_AT_decl_file("../OS/task.h")
	.dwattr $C$DW$257, DW_AT_decl_line(0x86)
	.dwattr $C$DW$257, DW_AT_decl_column(0x0d)

$C$DW$258	.dwtag  DW_TAG_member
	.dwattr $C$DW$258, DW_AT_type(*$C$DW$T$28)
	.dwattr $C$DW$258, DW_AT_name("uxCurrentPriority")
	.dwattr $C$DW$258, DW_AT_TI_symbol_name("uxCurrentPriority")
	.dwattr $C$DW$258, DW_AT_data_member_location[DW_OP_plus_uconst 0x10]
	.dwattr $C$DW$258, DW_AT_accessibility(DW_ACCESS_public)
	.dwattr $C$DW$258, DW_AT_decl_file("../OS/task.h")
	.dwattr $C$DW$258, DW_AT_decl_line(0x87)
	.dwattr $C$DW$258, DW_AT_decl_column(0x0e)

$C$DW$259	.dwtag  DW_TAG_member
	.dwattr $C$DW$259, DW_AT_type(*$C$DW$T$28)
	.dwattr $C$DW$259, DW_AT_name("uxBasePriority")
	.dwattr $C$DW$259, DW_AT_TI_symbol_name("uxBasePriority")
	.dwattr $C$DW$259, DW_AT_data_member_location[DW_OP_plus_uconst 0x14]
	.dwattr $C$DW$259, DW_AT_accessibility(DW_ACCESS_public)
	.dwattr $C$DW$259, DW_AT_decl_file("../OS/task.h")
	.dwattr $C$DW$259, DW_AT_decl_line(0x88)
	.dwattr $C$DW$259, DW_AT_decl_column(0x0e)

$C$DW$260	.dwtag  DW_TAG_member
	.dwattr $C$DW$260, DW_AT_type(*$C$DW$T$42)
	.dwattr $C$DW$260, DW_AT_name("ulRunTimeCounter")
	.dwattr $C$DW$260, DW_AT_TI_symbol_name("ulRunTimeCounter")
	.dwattr $C$DW$260, DW_AT_data_member_location[DW_OP_plus_uconst 0x18]
	.dwattr $C$DW$260, DW_AT_accessibility(DW_ACCESS_public)
	.dwattr $C$DW$260, DW_AT_decl_file("../OS/task.h")
	.dwattr $C$DW$260, DW_AT_decl_line(0x89)
	.dwattr $C$DW$260, DW_AT_decl_column(0x0b)

$C$DW$261	.dwtag  DW_TAG_member
	.dwattr $C$DW$261, DW_AT_type(*$C$DW$T$80)
	.dwattr $C$DW$261, DW_AT_name("pxStackBase")
	.dwattr $C$DW$261, DW_AT_TI_symbol_name("pxStackBase")
	.dwattr $C$DW$261, DW_AT_data_member_location[DW_OP_plus_uconst 0x1c]
	.dwattr $C$DW$261, DW_AT_accessibility(DW_ACCESS_public)
	.dwattr $C$DW$261, DW_AT_decl_file("../OS/task.h")
	.dwattr $C$DW$261, DW_AT_decl_line(0x8a)
	.dwattr $C$DW$261, DW_AT_decl_column(0x0f)

$C$DW$262	.dwtag  DW_TAG_member
	.dwattr $C$DW$262, DW_AT_type(*$C$DW$T$78)
	.dwattr $C$DW$262, DW_AT_name("usStackHighWaterMark")
	.dwattr $C$DW$262, DW_AT_TI_symbol_name("usStackHighWaterMark")
	.dwattr $C$DW$262, DW_AT_data_member_location[DW_OP_plus_uconst 0x20]
	.dwattr $C$DW$262, DW_AT_accessibility(DW_ACCESS_public)
	.dwattr $C$DW$262, DW_AT_decl_file("../OS/task.h")
	.dwattr $C$DW$262, DW_AT_decl_line(0x8b)
	.dwattr $C$DW$262, DW_AT_decl_column(0x19)

	.dwattr $C$DW$T$88, DW_AT_decl_file("../OS/task.h")
	.dwattr $C$DW$T$88, DW_AT_decl_line(0x81)
	.dwattr $C$DW$T$88, DW_AT_decl_column(0x10)
	.dwendtag $C$DW$T$88

$C$DW$T$305	.dwtag  DW_TAG_typedef
	.dwattr $C$DW$T$305, DW_AT_name("TaskStatus_t")
	.dwattr $C$DW$T$305, DW_AT_type(*$C$DW$T$88)
	.dwattr $C$DW$T$305, DW_AT_language(DW_LANG_C)
	.dwattr $C$DW$T$305, DW_AT_decl_file("../OS/task.h")
	.dwattr $C$DW$T$305, DW_AT_decl_line(0x8c)
	.dwattr $C$DW$T$305, DW_AT_decl_column(0x03)


$C$DW$T$90	.dwtag  DW_TAG_structure_type
	.dwattr $C$DW$T$90, DW_AT_name("xTIME_OUT")
	.dwattr $C$DW$T$90, DW_AT_byte_size(0x08)
$C$DW$263	.dwtag  DW_TAG_member
	.dwattr $C$DW$263, DW_AT_type(*$C$DW$T$89)
	.dwattr $C$DW$263, DW_AT_name("xOverflowCount")
	.dwattr $C$DW$263, DW_AT_TI_symbol_name("xOverflowCount")
	.dwattr $C$DW$263, DW_AT_data_member_location[DW_OP_plus_uconst 0x0]
	.dwattr $C$DW$263, DW_AT_accessibility(DW_ACCESS_public)
	.dwattr $C$DW$263, DW_AT_decl_file("../OS/task.h")
	.dwattr $C$DW$263, DW_AT_decl_line(0x60)
	.dwattr $C$DW$263, DW_AT_decl_column(0x0d)

$C$DW$264	.dwtag  DW_TAG_member
	.dwattr $C$DW$264, DW_AT_type(*$C$DW$T$43)
	.dwattr $C$DW$264, DW_AT_name("xTimeOnEntering")
	.dwattr $C$DW$264, DW_AT_TI_symbol_name("xTimeOnEntering")
	.dwattr $C$DW$264, DW_AT_data_member_location[DW_OP_plus_uconst 0x4]
	.dwattr $C$DW$264, DW_AT_accessibility(DW_ACCESS_public)
	.dwattr $C$DW$264, DW_AT_decl_file("../OS/task.h")
	.dwattr $C$DW$264, DW_AT_decl_line(0x61)
	.dwattr $C$DW$264, DW_AT_decl_column(0x0d)

	.dwattr $C$DW$T$90, DW_AT_decl_file("../OS/task.h")
	.dwattr $C$DW$T$90, DW_AT_decl_line(0x5e)
	.dwattr $C$DW$T$90, DW_AT_decl_column(0x10)
	.dwendtag $C$DW$T$90

$C$DW$T$306	.dwtag  DW_TAG_typedef
	.dwattr $C$DW$T$306, DW_AT_name("TimeOut_t")
	.dwattr $C$DW$T$306, DW_AT_type(*$C$DW$T$90)
	.dwattr $C$DW$T$306, DW_AT_language(DW_LANG_C)
	.dwattr $C$DW$T$306, DW_AT_decl_file("../OS/task.h")
	.dwattr $C$DW$T$306, DW_AT_decl_line(0x62)
	.dwattr $C$DW$T$306, DW_AT_decl_column(0x03)

	.dwattr $C$DW$CU, DW_AT_language(DW_LANG_C)

;***************************************************************
;* DWARF CIE ENTRIES                                           *
;***************************************************************

$C$DW$CIE	.dwcie 14
	.dwcfi	cfa_register, 13
	.dwcfi	cfa_offset, 0
	.dwcfi	same_value, 4
	.dwcfi	same_value, 5
	.dwcfi	same_value, 6
	.dwcfi	same_value, 7
	.dwcfi	same_value, 8
	.dwcfi	same_value, 9
	.dwcfi	same_value, 10
	.dwcfi	same_value, 11
	.dwcfi	same_value, 80
	.dwcfi	same_value, 81
	.dwcfi	same_value, 82
	.dwcfi	same_value, 83
	.dwcfi	same_value, 84
	.dwcfi	same_value, 85
	.dwcfi	same_value, 86
	.dwcfi	same_value, 87
	.dwcfi	same_value, 88
	.dwcfi	same_value, 89
	.dwcfi	same_value, 90
	.dwcfi	same_value, 91
	.dwcfi	same_value, 92
	.dwcfi	same_value, 93
	.dwcfi	same_value, 94
	.dwcfi	same_value, 95
	.dwendentry

;***************************************************************
;* DWARF REGISTER MAP                                          *
;***************************************************************

$C$DW$265	.dwtag  DW_TAG_TI_assign_register
	.dwattr $C$DW$265, DW_AT_name("A1")
	.dwattr $C$DW$265, DW_AT_location[DW_OP_reg0]

$C$DW$266	.dwtag  DW_TAG_TI_assign_register
	.dwattr $C$DW$266, DW_AT_name("A2")
	.dwattr $C$DW$266, DW_AT_location[DW_OP_reg1]

$C$DW$267	.dwtag  DW_TAG_TI_assign_register
	.dwattr $C$DW$267, DW_AT_name("A3")
	.dwattr $C$DW$267, DW_AT_location[DW_OP_reg2]

$C$DW$268	.dwtag  DW_TAG_TI_assign_register
	.dwattr $C$DW$268, DW_AT_name("A4")
	.dwattr $C$DW$268, DW_AT_location[DW_OP_reg3]

$C$DW$269	.dwtag  DW_TAG_TI_assign_register
	.dwattr $C$DW$269, DW_AT_name("V1")
	.dwattr $C$DW$269, DW_AT_location[DW_OP_reg4]

$C$DW$270	.dwtag  DW_TAG_TI_assign_register
	.dwattr $C$DW$270, DW_AT_name("V2")
	.dwattr $C$DW$270, DW_AT_location[DW_OP_reg5]

$C$DW$271	.dwtag  DW_TAG_TI_assign_register
	.dwattr $C$DW$271, DW_AT_name("V3")
	.dwattr $C$DW$271, DW_AT_location[DW_OP_reg6]

$C$DW$272	.dwtag  DW_TAG_TI_assign_register
	.dwattr $C$DW$272, DW_AT_name("V4")
	.dwattr $C$DW$272, DW_AT_location[DW_OP_reg7]

$C$DW$273	.dwtag  DW_TAG_TI_assign_register
	.dwattr $C$DW$273, DW_AT_name("V5")
	.dwattr $C$DW$273, DW_AT_location[DW_OP_reg8]

$C$DW$274	.dwtag  DW_TAG_TI_assign_register
	.dwattr $C$DW$274, DW_AT_name("V6")
	.dwattr $C$DW$274, DW_AT_location[DW_OP_reg9]

$C$DW$275	.dwtag  DW_TAG_TI_assign_register
	.dwattr $C$DW$275, DW_AT_name("V7")
	.dwattr $C$DW$275, DW_AT_location[DW_OP_reg10]

$C$DW$276	.dwtag  DW_TAG_TI_assign_register
	.dwattr $C$DW$276, DW_AT_name("V8")
	.dwattr $C$DW$276, DW_AT_location[DW_OP_reg11]

$C$DW$277	.dwtag  DW_TAG_TI_assign_register
	.dwattr $C$DW$277, DW_AT_name("V9")
	.dwattr $C$DW$277, DW_AT_location[DW_OP_reg12]

$C$DW$278	.dwtag  DW_TAG_TI_assign_register
	.dwattr $C$DW$278, DW_AT_name("SP")
	.dwattr $C$DW$278, DW_AT_location[DW_OP_reg13]

$C$DW$279	.dwtag  DW_TAG_TI_assign_register
	.dwattr $C$DW$279, DW_AT_name("LR")
	.dwattr $C$DW$279, DW_AT_location[DW_OP_reg14]

$C$DW$280	.dwtag  DW_TAG_TI_assign_register
	.dwattr $C$DW$280, DW_AT_name("PC")
	.dwattr $C$DW$280, DW_AT_location[DW_OP_reg15]

$C$DW$281	.dwtag  DW_TAG_TI_assign_register
	.dwattr $C$DW$281, DW_AT_name("SR")
	.dwattr $C$DW$281, DW_AT_location[DW_OP_reg17]

$C$DW$282	.dwtag  DW_TAG_TI_assign_register
	.dwattr $C$DW$282, DW_AT_name("AP")
	.dwattr $C$DW$282, DW_AT_location[DW_OP_reg7]

$C$DW$283	.dwtag  DW_TAG_TI_assign_register
	.dwattr $C$DW$283, DW_AT_name("D0")
	.dwattr $C$DW$283, DW_AT_location[DW_OP_regx 0x40]

$C$DW$284	.dwtag  DW_TAG_TI_assign_register
	.dwattr $C$DW$284, DW_AT_name("D0_hi")
	.dwattr $C$DW$284, DW_AT_location[DW_OP_regx 0x41]

$C$DW$285	.dwtag  DW_TAG_TI_assign_register
	.dwattr $C$DW$285, DW_AT_name("D1")
	.dwattr $C$DW$285, DW_AT_location[DW_OP_regx 0x42]

$C$DW$286	.dwtag  DW_TAG_TI_assign_register
	.dwattr $C$DW$286, DW_AT_name("D1_hi")
	.dwattr $C$DW$286, DW_AT_location[DW_OP_regx 0x43]

$C$DW$287	.dwtag  DW_TAG_TI_assign_register
	.dwattr $C$DW$287, DW_AT_name("D2")
	.dwattr $C$DW$287, DW_AT_location[DW_OP_regx 0x44]

$C$DW$288	.dwtag  DW_TAG_TI_assign_register
	.dwattr $C$DW$288, DW_AT_name("D2_hi")
	.dwattr $C$DW$288, DW_AT_location[DW_OP_regx 0x45]

$C$DW$289	.dwtag  DW_TAG_TI_assign_register
	.dwattr $C$DW$289, DW_AT_name("D3")
	.dwattr $C$DW$289, DW_AT_location[DW_OP_regx 0x46]

$C$DW$290	.dwtag  DW_TAG_TI_assign_register
	.dwattr $C$DW$290, DW_AT_name("D3_hi")
	.dwattr $C$DW$290, DW_AT_location[DW_OP_regx 0x47]

$C$DW$291	.dwtag  DW_TAG_TI_assign_register
	.dwattr $C$DW$291, DW_AT_name("D4")
	.dwattr $C$DW$291, DW_AT_location[DW_OP_regx 0x48]

$C$DW$292	.dwtag  DW_TAG_TI_assign_register
	.dwattr $C$DW$292, DW_AT_name("D4_hi")
	.dwattr $C$DW$292, DW_AT_location[DW_OP_regx 0x49]

$C$DW$293	.dwtag  DW_TAG_TI_assign_register
	.dwattr $C$DW$293, DW_AT_name("D5")
	.dwattr $C$DW$293, DW_AT_location[DW_OP_regx 0x4a]

$C$DW$294	.dwtag  DW_TAG_TI_assign_register
	.dwattr $C$DW$294, DW_AT_name("D5_hi")
	.dwattr $C$DW$294, DW_AT_location[DW_OP_regx 0x4b]

$C$DW$295	.dwtag  DW_TAG_TI_assign_register
	.dwattr $C$DW$295, DW_AT_name("D6")
	.dwattr $C$DW$295, DW_AT_location[DW_OP_regx 0x4c]

$C$DW$296	.dwtag  DW_TAG_TI_assign_register
	.dwattr $C$DW$296, DW_AT_name("D6_hi")
	.dwattr $C$DW$296, DW_AT_location[DW_OP_regx 0x4d]

$C$DW$297	.dwtag  DW_TAG_TI_assign_register
	.dwattr $C$DW$297, DW_AT_name("D7")
	.dwattr $C$DW$297, DW_AT_location[DW_OP_regx 0x4e]

$C$DW$298	.dwtag  DW_TAG_TI_assign_register
	.dwattr $C$DW$298, DW_AT_name("D7_hi")
	.dwattr $C$DW$298, DW_AT_location[DW_OP_regx 0x4f]

$C$DW$299	.dwtag  DW_TAG_TI_assign_register
	.dwattr $C$DW$299, DW_AT_name("D8")
	.dwattr $C$DW$299, DW_AT_location[DW_OP_regx 0x50]

$C$DW$300	.dwtag  DW_TAG_TI_assign_register
	.dwattr $C$DW$300, DW_AT_name("D8_hi")
	.dwattr $C$DW$300, DW_AT_location[DW_OP_regx 0x51]

$C$DW$301	.dwtag  DW_TAG_TI_assign_register
	.dwattr $C$DW$301, DW_AT_name("D9")
	.dwattr $C$DW$301, DW_AT_location[DW_OP_regx 0x52]

$C$DW$302	.dwtag  DW_TAG_TI_assign_register
	.dwattr $C$DW$302, DW_AT_name("D9_hi")
	.dwattr $C$DW$302, DW_AT_location[DW_OP_regx 0x53]

$C$DW$303	.dwtag  DW_TAG_TI_assign_register
	.dwattr $C$DW$303, DW_AT_name("D10")
	.dwattr $C$DW$303, DW_AT_location[DW_OP_regx 0x54]

$C$DW$304	.dwtag  DW_TAG_TI_assign_register
	.dwattr $C$DW$304, DW_AT_name("D10_hi")
	.dwattr $C$DW$304, DW_AT_location[DW_OP_regx 0x55]

$C$DW$305	.dwtag  DW_TAG_TI_assign_register
	.dwattr $C$DW$305, DW_AT_name("D11")
	.dwattr $C$DW$305, DW_AT_location[DW_OP_regx 0x56]

$C$DW$306	.dwtag  DW_TAG_TI_assign_register
	.dwattr $C$DW$306, DW_AT_name("D11_hi")
	.dwattr $C$DW$306, DW_AT_location[DW_OP_regx 0x57]

$C$DW$307	.dwtag  DW_TAG_TI_assign_register
	.dwattr $C$DW$307, DW_AT_name("D12")
	.dwattr $C$DW$307, DW_AT_location[DW_OP_regx 0x58]

$C$DW$308	.dwtag  DW_TAG_TI_assign_register
	.dwattr $C$DW$308, DW_AT_name("D12_hi")
	.dwattr $C$DW$308, DW_AT_location[DW_OP_regx 0x59]

$C$DW$309	.dwtag  DW_TAG_TI_assign_register
	.dwattr $C$DW$309, DW_AT_name("D13")
	.dwattr $C$DW$309, DW_AT_location[DW_OP_regx 0x5a]

$C$DW$310	.dwtag  DW_TAG_TI_assign_register
	.dwattr $C$DW$310, DW_AT_name("D13_hi")
	.dwattr $C$DW$310, DW_AT_location[DW_OP_regx 0x5b]

$C$DW$311	.dwtag  DW_TAG_TI_assign_register
	.dwattr $C$DW$311, DW_AT_name("D14")
	.dwattr $C$DW$311, DW_AT_location[DW_OP_regx 0x5c]

$C$DW$312	.dwtag  DW_TAG_TI_assign_register
	.dwattr $C$DW$312, DW_AT_name("D14_hi")
	.dwattr $C$DW$312, DW_AT_location[DW_OP_regx 0x5d]

$C$DW$313	.dwtag  DW_TAG_TI_assign_register
	.dwattr $C$DW$313, DW_AT_name("D15")
	.dwattr $C$DW$313, DW_AT_location[DW_OP_regx 0x5e]

$C$DW$314	.dwtag  DW_TAG_TI_assign_register
	.dwattr $C$DW$314, DW_AT_name("D15_hi")
	.dwattr $C$DW$314, DW_AT_location[DW_OP_regx 0x5f]

$C$DW$315	.dwtag  DW_TAG_TI_assign_register
	.dwattr $C$DW$315, DW_AT_name("FPEXC")
	.dwattr $C$DW$315, DW_AT_location[DW_OP_reg18]

$C$DW$316	.dwtag  DW_TAG_TI_assign_register
	.dwattr $C$DW$316, DW_AT_name("FPSCR")
	.dwattr $C$DW$316, DW_AT_location[DW_OP_reg19]

	.dwendtag $C$DW$CU

