TI ARM Assembler Unix v18.1.1 Fri Jul  3 20:08:23 2020

Tools Copyright (c) 1996-2017 Texas Instruments Incorporated
adc.asm                                                              PAGE    1

       1                    ;******************************************************************************
       2                    ;* TI ARM C/C++ Codegen                                      Unix v18.1.1.LTS *
       3                    ;* Date/Time created: Fri Jul  3 20:08:23 2020                                *
       4                    ;******************************************************************************
       5                            .compiler_opts --abi=eabi --arm_vmrs_si_workaround=off --code_state=16 --diag_wrap=off --embed
       6 00000000                   .thumb
       7                    
       8                    $C$DW$CU        .dwtag  DW_TAG_compile_unit
       9                            .dwattr $C$DW$CU, DW_AT_name("../driverlib/adc.c")
      10                            .dwattr $C$DW$CU, DW_AT_producer("TI TI ARM C/C++ Codegen Unix v18.1.1.LTS Copyright (c) 1996-
      11                            .dwattr $C$DW$CU, DW_AT_TI_version(0x01)
      12                            .dwattr $C$DW$CU, DW_AT_comp_dir("/home/pola/workspace_v8/Microwave/Debug")
      13 00000000           g_pui8OversampleFactor: .usect  ".bss:g_pui8OversampleFactor",8,1
      14                            .clink ".bss:g_pui8OversampleFactor"
      15                    $C$DW$1 .dwtag  DW_TAG_variable
      16                            .dwattr $C$DW$1, DW_AT_name("g_pui8OversampleFactor")
      17                            .dwattr $C$DW$1, DW_AT_TI_symbol_name("g_pui8OversampleFactor")
      18                            .dwattr $C$DW$1, DW_AT_type(*$C$DW$T$50)
      19                            .dwattr $C$DW$1, DW_AT_location[DW_OP_addr g_pui8OversampleFactor]
      20                            .dwattr $C$DW$1, DW_AT_decl_file("../driverlib/adc.c")
      21                            .dwattr $C$DW$1, DW_AT_decl_line(0x51)
      22                            .dwattr $C$DW$1, DW_AT_decl_column(0x10)
      23                    
      24                    
      25                    $C$DW$2 .dwtag  DW_TAG_subprogram
      26                            .dwattr $C$DW$2, DW_AT_name("IntRegister")
      27                            .dwattr $C$DW$2, DW_AT_TI_symbol_name("IntRegister")
      28                            .dwattr $C$DW$2, DW_AT_declaration
      29                            .dwattr $C$DW$2, DW_AT_external
      30                            .dwattr $C$DW$2, DW_AT_decl_file("/home/pola/workspace_v8/Microwave/driverlib/interrupt.h")
      31                            .dwattr $C$DW$2, DW_AT_decl_line(0x45)
      32                            .dwattr $C$DW$2, DW_AT_decl_column(0x0d)
      33                    $C$DW$3 .dwtag  DW_TAG_formal_parameter
      34                            .dwattr $C$DW$3, DW_AT_type(*$C$DW$T$27)
      35                    
      36                    $C$DW$4 .dwtag  DW_TAG_formal_parameter
      37                            .dwattr $C$DW$4, DW_AT_type(*$C$DW$T$25)
      38                    
      39                            .dwendtag $C$DW$2
      40                    
      41                    
      42                    $C$DW$5 .dwtag  DW_TAG_subprogram
      43                            .dwattr $C$DW$5, DW_AT_name("IntEnable")
      44                            .dwattr $C$DW$5, DW_AT_TI_symbol_name("IntEnable")
      45                            .dwattr $C$DW$5, DW_AT_declaration
      46                            .dwattr $C$DW$5, DW_AT_external
      47                            .dwattr $C$DW$5, DW_AT_decl_file("/home/pola/workspace_v8/Microwave/driverlib/interrupt.h")
      48                            .dwattr $C$DW$5, DW_AT_decl_line(0x4c)
      49                            .dwattr $C$DW$5, DW_AT_decl_column(0x0d)
      50                    $C$DW$6 .dwtag  DW_TAG_formal_parameter
      51                            .dwattr $C$DW$6, DW_AT_type(*$C$DW$T$27)
      52                    
      53                            .dwendtag $C$DW$5
      54                    
      55                    
TI ARM Assembler Unix v18.1.1 Fri Jul  3 20:08:23 2020

Tools Copyright (c) 1996-2017 Texas Instruments Incorporated
adc.asm                                                              PAGE    2

      56                    $C$DW$7 .dwtag  DW_TAG_subprogram
      57                            .dwattr $C$DW$7, DW_AT_name("IntDisable")
      58                            .dwattr $C$DW$7, DW_AT_TI_symbol_name("IntDisable")
      59                            .dwattr $C$DW$7, DW_AT_declaration
      60                            .dwattr $C$DW$7, DW_AT_external
      61                            .dwattr $C$DW$7, DW_AT_decl_file("/home/pola/workspace_v8/Microwave/driverlib/interrupt.h")
      62                            .dwattr $C$DW$7, DW_AT_decl_line(0x4d)
      63                            .dwattr $C$DW$7, DW_AT_decl_column(0x0d)
      64                    $C$DW$8 .dwtag  DW_TAG_formal_parameter
      65                            .dwattr $C$DW$8, DW_AT_type(*$C$DW$T$27)
      66                    
      67                            .dwendtag $C$DW$7
      68                    
      69                    
      70                    $C$DW$9 .dwtag  DW_TAG_subprogram
      71                            .dwattr $C$DW$9, DW_AT_name("IntUnregister")
      72                            .dwattr $C$DW$9, DW_AT_TI_symbol_name("IntUnregister")
      73                            .dwattr $C$DW$9, DW_AT_declaration
      74                            .dwattr $C$DW$9, DW_AT_external
      75                            .dwattr $C$DW$9, DW_AT_decl_file("/home/pola/workspace_v8/Microwave/driverlib/interrupt.h")
      76                            .dwattr $C$DW$9, DW_AT_decl_line(0x46)
      77                            .dwattr $C$DW$9, DW_AT_decl_column(0x0d)
      78                    $C$DW$10        .dwtag  DW_TAG_formal_parameter
      79                            .dwattr $C$DW$10, DW_AT_type(*$C$DW$T$27)
      80                    
      81                            .dwendtag $C$DW$9
      82                    
      83                    ;       /home/pola/ti/ccsv8/tools/compiler/ti-cgt-arm_18.1.1.LTS/bin/armacpia -@/tmp/TI3Nrgr4lxq 
      84 00000000                   .sect   ".text"
      85                            .clink
      86                            .thumbfunc _ADCIntNumberGet
      87 00000000                   .thumb
      88                    
      89                    $C$DW$11        .dwtag  DW_TAG_subprogram
      90                            .dwattr $C$DW$11, DW_AT_name("_ADCIntNumberGet")
      91                            .dwattr $C$DW$11, DW_AT_low_pc(_ADCIntNumberGet)
      92                            .dwattr $C$DW$11, DW_AT_high_pc(0x00)
      93                            .dwattr $C$DW$11, DW_AT_TI_symbol_name("_ADCIntNumberGet")
      94                            .dwattr $C$DW$11, DW_AT_type(*$C$DW$T$112)
      95                            .dwattr $C$DW$11, DW_AT_TI_begin_file("../driverlib/adc.c")
      96                            .dwattr $C$DW$11, DW_AT_TI_begin_line(0x63)
      97                            .dwattr $C$DW$11, DW_AT_TI_begin_column(0x01)
      98                            .dwattr $C$DW$11, DW_AT_decl_file("../driverlib/adc.c")
      99                            .dwattr $C$DW$11, DW_AT_decl_line(0x63)
     100                            .dwattr $C$DW$11, DW_AT_decl_column(0x01)
     101                            .dwattr $C$DW$11, DW_AT_TI_max_frame_size(0x10)
     102                            .dwpsn  file "../driverlib/adc.c",line 100,column 1,is_stmt,address _ADCIntNumberGet,isa 1
     103                    
     104                            .dwfde $C$DW$CIE, _ADCIntNumberGet
     105                    $C$DW$12        .dwtag  DW_TAG_formal_parameter
     106                            .dwattr $C$DW$12, DW_AT_name("ui32Base")
     107                            .dwattr $C$DW$12, DW_AT_TI_symbol_name("ui32Base")
     108                            .dwattr $C$DW$12, DW_AT_type(*$C$DW$T$27)
     109                            .dwattr $C$DW$12, DW_AT_location[DW_OP_reg0]
     110                    
TI ARM Assembler Unix v18.1.1 Fri Jul  3 20:08:23 2020

Tools Copyright (c) 1996-2017 Texas Instruments Incorporated
adc.asm                                                              PAGE    3

     111                    $C$DW$13        .dwtag  DW_TAG_formal_parameter
     112                            .dwattr $C$DW$13, DW_AT_name("ui32SequenceNum")
     113                            .dwattr $C$DW$13, DW_AT_TI_symbol_name("ui32SequenceNum")
     114                            .dwattr $C$DW$13, DW_AT_type(*$C$DW$T$27)
     115                            .dwattr $C$DW$13, DW_AT_location[DW_OP_reg1]
     116                    
     117                    ;----------------------------------------------------------------------
     118                    ;  99 | _ADCIntNumberGet(uint32_t ui32Base, uint32_t ui32SequenceNum)          
     119                    ;----------------------------------------------------------------------
     120                    
     121                    ;*****************************************************************************
     122                    ;* FUNCTION NAME: _ADCIntNumberGet                                           *
     123                    ;*                                                                           *
     124                    ;*   Regs Modified     : A1,A2,A3,SP,SR                                      *
     125                    ;*   Regs Used         : A1,A2,A3,SP,LR,SR                                   *
     126                    ;*   Local Frame Size  : 0 Args + 12 Auto + 0 Save = 12 byte                 *
     127                    ;*****************************************************************************
     128 00000000           _ADCIntNumberGet:
     129                    ;* --------------------------------------------------------------------------*
     130                            .dwcfi  cfa_offset, 0
     131 00000000 0D10F1AD          SUB       SP, SP, #16           ; [DPU_V7M3_PIPE]  ; [KEEP 32-BIT INS]
     132                            .dwcfi  cfa_offset, 16
     133                    $C$DW$14        .dwtag  DW_TAG_variable
     134                            .dwattr $C$DW$14, DW_AT_name("ui32Base")
     135                            .dwattr $C$DW$14, DW_AT_TI_symbol_name("ui32Base")
     136                            .dwattr $C$DW$14, DW_AT_type(*$C$DW$T$27)
     137                            .dwattr $C$DW$14, DW_AT_location[DW_OP_breg13 0]
     138                    
     139                    $C$DW$15        .dwtag  DW_TAG_variable
     140                            .dwattr $C$DW$15, DW_AT_name("ui32SequenceNum")
     141                            .dwattr $C$DW$15, DW_AT_TI_symbol_name("ui32SequenceNum")
     142                            .dwattr $C$DW$15, DW_AT_type(*$C$DW$T$27)
     143                            .dwattr $C$DW$15, DW_AT_location[DW_OP_breg13 4]
     144                    
     145                    $C$DW$16        .dwtag  DW_TAG_variable
     146                            .dwattr $C$DW$16, DW_AT_name("ui8Int")
     147                            .dwattr $C$DW$16, DW_AT_TI_symbol_name("ui8Int")
     148                            .dwattr $C$DW$16, DW_AT_type(*$C$DW$T$112)
     149                            .dwattr $C$DW$16, DW_AT_location[DW_OP_breg13 8]
     150                    
     151                    ;----------------------------------------------------------------------
     152                    ; 101 | uint_fast8_t ui8Int;                                                   
     153                    ; 103 | //                                                                     
     154                    ; 104 | // Determine the interrupt to register based on the sequence number.   
     155                    ; 105 | //                                                                     
     156                    ;----------------------------------------------------------------------
     157 00000004 9101              STR       A2, [SP, #4]          ; [DPU_V7M3_PIPE] |100|  ; [ORIG 16-BIT INS]
     158 00000006 9000              STR       A1, [SP, #0]          ; [DPU_V7M3_PIPE] |100|  ; [ORIG 16-BIT INS]
     159                            .dwpsn  file "../driverlib/adc.c",line 106,column 5,is_stmt,isa 1
     160                    ;----------------------------------------------------------------------
     161                    ; 106 | if(CLASS_IS_TM4C123)                                                   
     162                    ;----------------------------------------------------------------------
     163 00000008 4981              LDR       A2, $C$CON2           ; [DPU_V7M3_PIPE] |106|  ; [ORIG 16-BIT INS]
     164 0000000a 4880              LDR       A1, $C$CON1           ; [DPU_V7M3_PIPE] |106|  ; [ORIG 16-BIT INS]
     165 0000000c 680A              LDR       A3, [A2, #0]          ; [DPU_V7M3_PIPE] |106|  ; [ORIG 16-BIT INS]
TI ARM Assembler Unix v18.1.1 Fri Jul  3 20:08:23 2020

Tools Copyright (c) 1996-2017 Texas Instruments Incorporated
adc.asm                                                              PAGE    4

     166 0000000e 4981              LDR       A2, $C$CON3           ; [DPU_V7M3_PIPE] |106|  ; [ORIG 16-BIT INS]
     167 00000010 4010              ANDS      A1, A1, A3            ; [DPU_V7M3_PIPE] |106|  ; [ORIG 16-BIT INS]
     168 00000012 4281              CMP       A2, A1                ; [DPU_V7M3_PIPE] |106|  ; [ORIG 16-BIT INS]
     169 00000014 D10A              BNE       ||$C$L3||             ; [DPU_V7M3_PIPE] |106|  ; [ORIG 16-BIT INS]
     170                            ; BRANCHCC OCCURS {||$C$L3||}    ; [] |106| 
     171                    ;* --------------------------------------------------------------------------*
     172                            .dwpsn  file "../driverlib/adc.c",line 108,column 9,is_stmt,isa 1
     173                    ;----------------------------------------------------------------------
     174                    ; 108 | ui8Int = ((ui32Base == ADC0_BASE) ?                                    
     175                    ; 109 |           (INT_ADC0SS0_TM4C123 + ui32SequenceNum) :                    
     176                    ; 110 |           (INT_ADC1SS0_TM4C123 + ui32SequenceNum));                    
     177                    ;----------------------------------------------------------------------
     178 00000016 4980              LDR       A2, $C$CON4           ; [DPU_V7M3_PIPE] |108|  ; [ORIG 16-BIT INS]
     179 00000018 9800              LDR       A1, [SP, #0]          ; [DPU_V7M3_PIPE] |108|  ; [ORIG 16-BIT INS]
     180 0000001a 4281              CMP       A2, A1                ; [DPU_V7M3_PIPE] |108|  ; [ORIG 16-BIT INS]
     181 0000001c D102              BNE       ||$C$L1||             ; [DPU_V7M3_PIPE] |108|  ; [ORIG 16-BIT INS]
     182                            ; BRANCHCC OCCURS {||$C$L1||}    ; [] |108| 
     183                    ;* --------------------------------------------------------------------------*
     184 0000001e 9801              LDR       A1, [SP, #4]          ; [DPU_V7M3_PIPE] |108|  ; [ORIG 16-BIT INS]
     185 00000020 301E              ADDS      A1, A1, #30           ; [DPU_V7M3_PIPE] |108|  ; [ORIG 16-BIT INS]
     186 00000022 E001              B         ||$C$L2||             ; [DPU_V7M3_PIPE] |108|  ; [ORIG 16-BIT INS]
     187                            ; BRANCH OCCURS {||$C$L2||}      ; [] |108| 
     188                    ;* --------------------------------------------------------------------------*
     189 00000024           ||$C$L1||:    
     190 00000024 9801              LDR       A1, [SP, #4]          ; [DPU_V7M3_PIPE] |108|  ; [ORIG 16-BIT INS]
     191 00000026 3040              ADDS      A1, A1, #64           ; [DPU_V7M3_PIPE] |108|  ; [ORIG 16-BIT INS]
     192                    ;* --------------------------------------------------------------------------*
     193 00000028           ||$C$L2||:    
     194 00000028 9002              STR       A1, [SP, #8]          ; [DPU_V7M3_PIPE] |108|  ; [ORIG 16-BIT INS]
     195                            .dwpsn  file "../driverlib/adc.c",line 111,column 5,is_stmt,isa 1
     196 0000002a E013              B         ||$C$L7||             ; [DPU_V7M3_PIPE] |111|  ; [ORIG 16-BIT INS]
     197                            ; BRANCH OCCURS {||$C$L7||}      ; [] |111| 
     198                    ;* --------------------------------------------------------------------------*
     199 0000002c           ||$C$L3||:    
     200                            .dwpsn  file "../driverlib/adc.c",line 112,column 10,is_stmt,isa 1
     201                    ;----------------------------------------------------------------------
     202                    ; 112 | else if(CLASS_IS_TM4C129)                                              
     203                    ;----------------------------------------------------------------------
     204 0000002c 4978              LDR       A2, $C$CON2           ; [DPU_V7M3_PIPE] |112|  ; [ORIG 16-BIT INS]
     205 0000002e 4877              LDR       A1, $C$CON1           ; [DPU_V7M3_PIPE] |112|  ; [ORIG 16-BIT INS]
     206 00000030 680A              LDR       A3, [A2, #0]          ; [DPU_V7M3_PIPE] |112|  ; [ORIG 16-BIT INS]
     207 00000032 497A              LDR       A2, $C$CON5           ; [DPU_V7M3_PIPE] |112|  ; [ORIG 16-BIT INS]
     208 00000034 4010              ANDS      A1, A1, A3            ; [DPU_V7M3_PIPE] |112|  ; [ORIG 16-BIT INS]
     209 00000036 4281              CMP       A2, A1                ; [DPU_V7M3_PIPE] |112|  ; [ORIG 16-BIT INS]
     210 00000038 D10A              BNE       ||$C$L6||             ; [DPU_V7M3_PIPE] |112|  ; [ORIG 16-BIT INS]
     211                            ; BRANCHCC OCCURS {||$C$L6||}    ; [] |112| 
     212                    ;* --------------------------------------------------------------------------*
     213                            .dwpsn  file "../driverlib/adc.c",line 114,column 9,is_stmt,isa 1
     214                    ;----------------------------------------------------------------------
     215                    ; 114 | ui8Int = ((ui32Base == ADC0_BASE) ?                                    
     216                    ; 115 |           (INT_ADC0SS0_TM4C129 + ui32SequenceNum) :                    
     217                    ; 116 |           (INT_ADC1SS0_TM4C129 + ui32SequenceNum));                    
     218                    ;----------------------------------------------------------------------
     219 0000003a 4977              LDR       A2, $C$CON4           ; [DPU_V7M3_PIPE] |114|  ; [ORIG 16-BIT INS]
     220 0000003c 9800              LDR       A1, [SP, #0]          ; [DPU_V7M3_PIPE] |114|  ; [ORIG 16-BIT INS]
TI ARM Assembler Unix v18.1.1 Fri Jul  3 20:08:23 2020

Tools Copyright (c) 1996-2017 Texas Instruments Incorporated
adc.asm                                                              PAGE    5

     221 0000003e 4281              CMP       A2, A1                ; [DPU_V7M3_PIPE] |114|  ; [ORIG 16-BIT INS]
     222 00000040 D102              BNE       ||$C$L4||             ; [DPU_V7M3_PIPE] |114|  ; [ORIG 16-BIT INS]
     223                            ; BRANCHCC OCCURS {||$C$L4||}    ; [] |114| 
     224                    ;* --------------------------------------------------------------------------*
     225 00000042 9801              LDR       A1, [SP, #4]          ; [DPU_V7M3_PIPE] |114|  ; [ORIG 16-BIT INS]
     226 00000044 301E              ADDS      A1, A1, #30           ; [DPU_V7M3_PIPE] |114|  ; [ORIG 16-BIT INS]
     227 00000046 E001              B         ||$C$L5||             ; [DPU_V7M3_PIPE] |114|  ; [ORIG 16-BIT INS]
     228                            ; BRANCH OCCURS {||$C$L5||}      ; [] |114| 
     229                    ;* --------------------------------------------------------------------------*
     230 00000048           ||$C$L4||:    
     231 00000048 9801              LDR       A1, [SP, #4]          ; [DPU_V7M3_PIPE] |114|  ; [ORIG 16-BIT INS]
     232 0000004a 303E              ADDS      A1, A1, #62           ; [DPU_V7M3_PIPE] |114|  ; [ORIG 16-BIT INS]
     233                    ;* --------------------------------------------------------------------------*
     234 0000004c           ||$C$L5||:    
     235 0000004c 9002              STR       A1, [SP, #8]          ; [DPU_V7M3_PIPE] |114|  ; [ORIG 16-BIT INS]
     236                            .dwpsn  file "../driverlib/adc.c",line 117,column 5,is_stmt,isa 1
     237                    ;----------------------------------------------------------------------
     238                    ; 118 | else                                                                   
     239                    ;----------------------------------------------------------------------
     240 0000004e E001              B         ||$C$L7||             ; [DPU_V7M3_PIPE] |117|  ; [ORIG 16-BIT INS]
     241                            ; BRANCH OCCURS {||$C$L7||}      ; [] |117| 
     242                    ;* --------------------------------------------------------------------------*
     243 00000050           ||$C$L6||:    
     244                            .dwpsn  file "../driverlib/adc.c",line 120,column 9,is_stmt,isa 1
     245                    ;----------------------------------------------------------------------
     246                    ; 120 | ui8Int = 0;                                                            
     247                    ;----------------------------------------------------------------------
     248 00000050 2000              MOVS      A1, #0                ; [DPU_V7M3_PIPE] |120|  ; [ORIG 16-BIT INS]
     249 00000052 9002              STR       A1, [SP, #8]          ; [DPU_V7M3_PIPE] |120|  ; [ORIG 16-BIT INS]
     250                    ;* --------------------------------------------------------------------------*
     251 00000054           ||$C$L7||:    
     252                            .dwpsn  file "../driverlib/adc.c",line 123,column 5,is_stmt,isa 1
     253                    ;----------------------------------------------------------------------
     254                    ; 123 | return(ui8Int);                                                        
     255                    ;----------------------------------------------------------------------
     256 00000054 9802              LDR       A1, [SP, #8]          ; [DPU_V7M3_PIPE] |123|  ; [ORIG 16-BIT INS]
     257                            .dwpsn  file "../driverlib/adc.c",line 124,column 1,is_stmt,isa 1
     258 00000056 B004              ADD       SP, SP, #16           ; [DPU_V7M3_PIPE]  ; [ORIG 16-BIT INS]
     259                            .dwcfi  cfa_offset, 0
     260                    $C$DW$17        .dwtag  DW_TAG_TI_branch
     261                            .dwattr $C$DW$17, DW_AT_low_pc(0x00)
     262                            .dwattr $C$DW$17, DW_AT_TI_return
     263                    
     264 00000058 4770              BX        LR                    ; [DPU_V7M3_PIPE]  ; [ORIG 16-BIT INS]
     265                            ; BRANCH OCCURS                  ; [] 
     266                            .dwattr $C$DW$11, DW_AT_TI_end_file("../driverlib/adc.c")
     267                            .dwattr $C$DW$11, DW_AT_TI_end_line(0x7c)
     268                            .dwattr $C$DW$11, DW_AT_TI_end_column(0x01)
     269                            .dwendentry
     270                            .dwendtag $C$DW$11
     271                    
     272 0000005a                   .sect   ".text"
     273                            .clink
     274                            .thumbfunc ADCIntRegister
     275 0000005a                   .thumb
TI ARM Assembler Unix v18.1.1 Fri Jul  3 20:08:23 2020

Tools Copyright (c) 1996-2017 Texas Instruments Incorporated
adc.asm                                                              PAGE    6

     276                            .global ADCIntRegister
     277                    
     278                    $C$DW$18        .dwtag  DW_TAG_subprogram
     279                            .dwattr $C$DW$18, DW_AT_name("ADCIntRegister")
     280                            .dwattr $C$DW$18, DW_AT_low_pc(ADCIntRegister)
     281                            .dwattr $C$DW$18, DW_AT_high_pc(0x00)
     282                            .dwattr $C$DW$18, DW_AT_TI_symbol_name("ADCIntRegister")
     283                            .dwattr $C$DW$18, DW_AT_external
     284                            .dwattr $C$DW$18, DW_AT_TI_begin_file("../driverlib/adc.c")
     285                            .dwattr $C$DW$18, DW_AT_TI_begin_line(0x94)
     286                            .dwattr $C$DW$18, DW_AT_TI_begin_column(0x01)
     287                            .dwattr $C$DW$18, DW_AT_decl_file("../driverlib/adc.c")
     288                            .dwattr $C$DW$18, DW_AT_decl_line(0x94)
     289                            .dwattr $C$DW$18, DW_AT_decl_column(0x01)
     290                            .dwattr $C$DW$18, DW_AT_TI_max_frame_size(0x18)
     291                            .dwpsn  file "../driverlib/adc.c",line 150,column 1,is_stmt,address ADCIntRegister,isa 1
     292                    
     293                            .dwfde $C$DW$CIE, ADCIntRegister
     294                    $C$DW$19        .dwtag  DW_TAG_formal_parameter
     295                            .dwattr $C$DW$19, DW_AT_name("ui32Base")
     296                            .dwattr $C$DW$19, DW_AT_TI_symbol_name("ui32Base")
     297                            .dwattr $C$DW$19, DW_AT_type(*$C$DW$T$27)
     298                            .dwattr $C$DW$19, DW_AT_location[DW_OP_reg0]
     299                    
     300                    $C$DW$20        .dwtag  DW_TAG_formal_parameter
     301                            .dwattr $C$DW$20, DW_AT_name("ui32SequenceNum")
     302                            .dwattr $C$DW$20, DW_AT_TI_symbol_name("ui32SequenceNum")
     303                            .dwattr $C$DW$20, DW_AT_type(*$C$DW$T$27)
     304                            .dwattr $C$DW$20, DW_AT_location[DW_OP_reg1]
     305                    
     306                    $C$DW$21        .dwtag  DW_TAG_formal_parameter
     307                            .dwattr $C$DW$21, DW_AT_name("pfnHandler")
     308                            .dwattr $C$DW$21, DW_AT_TI_symbol_name("pfnHandler")
     309                            .dwattr $C$DW$21, DW_AT_type(*$C$DW$T$25)
     310                            .dwattr $C$DW$21, DW_AT_location[DW_OP_reg2]
     311                    
     312                    ;----------------------------------------------------------------------
     313                    ; 148 | ADCIntRegister(uint32_t ui32Base, uint32_t ui32SequenceNum,            
     314                    ; 149 | void (*pfnHandler)(void))                                              
     315                    ;----------------------------------------------------------------------
     316                    
     317                    ;*****************************************************************************
     318                    ;* FUNCTION NAME: ADCIntRegister                                             *
     319                    ;*                                                                           *
     320                    ;*   Regs Modified     : A1,A2,A3,A4,V9,SP,LR,SR,D0,D0_hi,D1,D1_hi,D2,D2_hi, *
     321                    ;*                           D3,D3_hi,D4,D4_hi,D5,D5_hi,D6,D6_hi,D7,D7_hi,   *
     322                    ;*                           FPEXC,FPSCR                                     *
     323                    ;*   Regs Used         : A1,A2,A3,A4,V9,SP,LR,SR,D0,D0_hi,D1,D1_hi,D2,D2_hi, *
     324                    ;*                           D3,D3_hi,D4,D4_hi,D5,D5_hi,D6,D6_hi,D7,D7_hi,   *
     325                    ;*                           FPEXC,FPSCR                                     *
     326                    ;*   Local Frame Size  : 0 Args + 16 Auto + 4 Save = 20 byte                 *
     327                    ;*****************************************************************************
     328 0000005a           ADCIntRegister:
     329                    ;* --------------------------------------------------------------------------*
     330                            .dwcfi  cfa_offset, 0
TI ARM Assembler Unix v18.1.1 Fri Jul  3 20:08:23 2020

Tools Copyright (c) 1996-2017 Texas Instruments Incorporated
adc.asm                                                              PAGE    7

     331 0000005a B500              PUSH      {LR}                  ; [DPU_V7M3_PIPE]  ; [ORIG 16-BIT INS]
     332                            .dwcfi  cfa_offset, 4
     333                            .dwcfi  save_reg_to_mem, 14, -4
     334 0000005c 0D14F1AD          SUB       SP, SP, #20           ; [DPU_V7M3_PIPE]  ; [KEEP 32-BIT INS]
     335                            .dwcfi  cfa_offset, 24
     336                    $C$DW$22        .dwtag  DW_TAG_variable
     337                            .dwattr $C$DW$22, DW_AT_name("ui32Base")
     338                            .dwattr $C$DW$22, DW_AT_TI_symbol_name("ui32Base")
     339                            .dwattr $C$DW$22, DW_AT_type(*$C$DW$T$27)
     340                            .dwattr $C$DW$22, DW_AT_location[DW_OP_breg13 0]
     341                    
     342                    $C$DW$23        .dwtag  DW_TAG_variable
     343                            .dwattr $C$DW$23, DW_AT_name("ui32SequenceNum")
     344                            .dwattr $C$DW$23, DW_AT_TI_symbol_name("ui32SequenceNum")
     345                            .dwattr $C$DW$23, DW_AT_type(*$C$DW$T$27)
     346                            .dwattr $C$DW$23, DW_AT_location[DW_OP_breg13 4]
     347                    
     348                    $C$DW$24        .dwtag  DW_TAG_variable
     349                            .dwattr $C$DW$24, DW_AT_name("pfnHandler")
     350                            .dwattr $C$DW$24, DW_AT_TI_symbol_name("pfnHandler")
     351                            .dwattr $C$DW$24, DW_AT_type(*$C$DW$T$25)
     352                            .dwattr $C$DW$24, DW_AT_location[DW_OP_breg13 8]
     353                    
     354                    $C$DW$25        .dwtag  DW_TAG_variable
     355                            .dwattr $C$DW$25, DW_AT_name("ui8Int")
     356                            .dwattr $C$DW$25, DW_AT_TI_symbol_name("ui8Int")
     357                            .dwattr $C$DW$25, DW_AT_type(*$C$DW$T$112)
     358                            .dwattr $C$DW$25, DW_AT_location[DW_OP_breg13 12]
     359                    
     360                    ;----------------------------------------------------------------------
     361                    ; 151 | uint_fast8_t ui8Int;                                                   
     362                    ; 153 | //                                                                     
     363                    ; 154 | // Check the arguments.                                                
     364                    ; 155 | //                                                                     
     365                    ; 156 | ASSERT((ui32Base == ADC0_BASE) || (ui32Base == ADC1_BASE));            
     366                    ; 157 | ASSERT(ui32SequenceNum < 4);                                           
     367                    ; 159 | //                                                                     
     368                    ; 160 | // Determine the interrupt to register based on the sequence number.   
     369                    ; 161 | //                                                                     
     370                    ;----------------------------------------------------------------------
     371 00000060 9202              STR       A3, [SP, #8]          ; [DPU_V7M3_PIPE] |150|  ; [ORIG 16-BIT INS]
     372 00000062 9101              STR       A2, [SP, #4]          ; [DPU_V7M3_PIPE] |150|  ; [ORIG 16-BIT INS]
     373 00000064 9000              STR       A1, [SP, #0]          ; [DPU_V7M3_PIPE] |150|  ; [ORIG 16-BIT INS]
     374                            .dwpsn  file "../driverlib/adc.c",line 162,column 5,is_stmt,isa 1
     375                    ;----------------------------------------------------------------------
     376                    ; 162 | ui8Int = _ADCIntNumberGet(ui32Base, ui32SequenceNum);                  
     377                    ; 163 | ASSERT(ui8Int != 0);                                                   
     378                    ; 165 | //                                                                     
     379                    ; 166 | // Register the interrupt handler.                                     
     380                    ; 167 | //                                                                     
     381                    ;----------------------------------------------------------------------
     382 00000066 9800              LDR       A1, [SP, #0]          ; [DPU_V7M3_PIPE] |162|  ; [ORIG 16-BIT INS]
     383 00000068 9901              LDR       A2, [SP, #4]          ; [DPU_V7M3_PIPE] |162|  ; [ORIG 16-BIT INS]
     384                    $C$DW$26        .dwtag  DW_TAG_TI_branch
     385                            .dwattr $C$DW$26, DW_AT_low_pc(0x00)
TI ARM Assembler Unix v18.1.1 Fri Jul  3 20:08:23 2020

Tools Copyright (c) 1996-2017 Texas Instruments Incorporated
adc.asm                                                              PAGE    8

     386                            .dwattr $C$DW$26, DW_AT_name("_ADCIntNumberGet")
     387                            .dwattr $C$DW$26, DW_AT_TI_call
     388                    
     389 0000006a FFFEF7FF!         BL        _ADCIntNumberGet      ; [DPU_V7M3_PIPE] |162|  ; [KEEP 32-BIT INS]
     390                            ; CALL OCCURS {_ADCIntNumberGet }  ; [] |162| 
     391 0000006e 9003              STR       A1, [SP, #12]         ; [DPU_V7M3_PIPE] |162|  ; [ORIG 16-BIT INS]
     392                            .dwpsn  file "../driverlib/adc.c",line 168,column 5,is_stmt,isa 1
     393                    ;----------------------------------------------------------------------
     394                    ; 168 | IntRegister(ui8Int, pfnHandler);                                       
     395                    ; 170 | //                                                                     
     396                    ; 171 | // Enable the timer interrupt.                                         
     397                    ; 172 | //                                                                     
     398                    ;----------------------------------------------------------------------
     399 00000070 9902              LDR       A2, [SP, #8]          ; [DPU_V7M3_PIPE] |168|  ; [ORIG 16-BIT INS]
     400 00000072 9803              LDR       A1, [SP, #12]         ; [DPU_V7M3_PIPE] |168|  ; [ORIG 16-BIT INS]
     401                    $C$DW$27        .dwtag  DW_TAG_TI_branch
     402                            .dwattr $C$DW$27, DW_AT_low_pc(0x00)
     403                            .dwattr $C$DW$27, DW_AT_name("IntRegister")
     404                            .dwattr $C$DW$27, DW_AT_TI_call
     405                    
     406 00000074 FFFEF7FF!         BL        IntRegister           ; [DPU_V7M3_PIPE] |168|  ; [KEEP 32-BIT INS]
     407                            ; CALL OCCURS {IntRegister }     ; [] |168| 
     408                            .dwpsn  file "../driverlib/adc.c",line 173,column 5,is_stmt,isa 1
     409                    ;----------------------------------------------------------------------
     410                    ; 173 | IntEnable(ui8Int);                                                     
     411                    ;----------------------------------------------------------------------
     412 00000078 9803              LDR       A1, [SP, #12]         ; [DPU_V7M3_PIPE] |173|  ; [ORIG 16-BIT INS]
     413                    $C$DW$28        .dwtag  DW_TAG_TI_branch
     414                            .dwattr $C$DW$28, DW_AT_low_pc(0x00)
     415                            .dwattr $C$DW$28, DW_AT_name("IntEnable")
     416                            .dwattr $C$DW$28, DW_AT_TI_call
     417                    
     418 0000007a FFFEF7FF!         BL        IntEnable             ; [DPU_V7M3_PIPE] |173|  ; [KEEP 32-BIT INS]
     419                            ; CALL OCCURS {IntEnable }       ; [] |173| 
     420                            .dwpsn  file "../driverlib/adc.c",line 174,column 1,is_stmt,isa 1
     421 0000007e B005              ADD       SP, SP, #20           ; [DPU_V7M3_PIPE]  ; [ORIG 16-BIT INS]
     422                            .dwcfi  cfa_offset, 4
     423                    $C$DW$29        .dwtag  DW_TAG_TI_branch
     424                            .dwattr $C$DW$29, DW_AT_low_pc(0x00)
     425                            .dwattr $C$DW$29, DW_AT_TI_return
     426                    
     427 00000080 BD00              POP       {PC}                  ; [DPU_V7M3_PIPE]  ; [ORIG 16-BIT INS]
     428                            .dwcfi  cfa_offset, 0
     429                            ; BRANCH OCCURS                  ; [] 
     430                            .dwattr $C$DW$18, DW_AT_TI_end_file("../driverlib/adc.c")
     431                            .dwattr $C$DW$18, DW_AT_TI_end_line(0xae)
     432                            .dwattr $C$DW$18, DW_AT_TI_end_column(0x01)
     433                            .dwendentry
     434                            .dwendtag $C$DW$18
     435                    
     436 00000082                   .sect   ".text"
     437                            .clink
     438                            .thumbfunc ADCIntUnregister
     439 00000082                   .thumb
     440                            .global ADCIntUnregister
TI ARM Assembler Unix v18.1.1 Fri Jul  3 20:08:23 2020

Tools Copyright (c) 1996-2017 Texas Instruments Incorporated
adc.asm                                                              PAGE    9

     441                    
     442                    $C$DW$30        .dwtag  DW_TAG_subprogram
     443                            .dwattr $C$DW$30, DW_AT_name("ADCIntUnregister")
     444                            .dwattr $C$DW$30, DW_AT_low_pc(ADCIntUnregister)
     445                            .dwattr $C$DW$30, DW_AT_high_pc(0x00)
     446                            .dwattr $C$DW$30, DW_AT_TI_symbol_name("ADCIntUnregister")
     447                            .dwattr $C$DW$30, DW_AT_external
     448                            .dwattr $C$DW$30, DW_AT_TI_begin_file("../driverlib/adc.c")
     449                            .dwattr $C$DW$30, DW_AT_TI_begin_line(0xc2)
     450                            .dwattr $C$DW$30, DW_AT_TI_begin_column(0x01)
     451                            .dwattr $C$DW$30, DW_AT_decl_file("../driverlib/adc.c")
     452                            .dwattr $C$DW$30, DW_AT_decl_line(0xc2)
     453                            .dwattr $C$DW$30, DW_AT_decl_column(0x01)
     454                            .dwattr $C$DW$30, DW_AT_TI_max_frame_size(0x10)
     455                            .dwpsn  file "../driverlib/adc.c",line 195,column 1,is_stmt,address ADCIntUnregister,isa 1
     456                    
     457                            .dwfde $C$DW$CIE, ADCIntUnregister
     458                    $C$DW$31        .dwtag  DW_TAG_formal_parameter
     459                            .dwattr $C$DW$31, DW_AT_name("ui32Base")
     460                            .dwattr $C$DW$31, DW_AT_TI_symbol_name("ui32Base")
     461                            .dwattr $C$DW$31, DW_AT_type(*$C$DW$T$27)
     462                            .dwattr $C$DW$31, DW_AT_location[DW_OP_reg0]
     463                    
     464                    $C$DW$32        .dwtag  DW_TAG_formal_parameter
     465                            .dwattr $C$DW$32, DW_AT_name("ui32SequenceNum")
     466                            .dwattr $C$DW$32, DW_AT_TI_symbol_name("ui32SequenceNum")
     467                            .dwattr $C$DW$32, DW_AT_type(*$C$DW$T$27)
     468                            .dwattr $C$DW$32, DW_AT_location[DW_OP_reg1]
     469                    
     470                    ;----------------------------------------------------------------------
     471                    ; 194 | ADCIntUnregister(uint32_t ui32Base, uint32_t ui32SequenceNum)          
     472                    ;----------------------------------------------------------------------
     473                    
     474                    ;*****************************************************************************
     475                    ;* FUNCTION NAME: ADCIntUnregister                                           *
     476                    ;*                                                                           *
     477                    ;*   Regs Modified     : A1,A2,A3,A4,V9,SP,LR,SR,D0,D0_hi,D1,D1_hi,D2,D2_hi, *
     478                    ;*                           D3,D3_hi,D4,D4_hi,D5,D5_hi,D6,D6_hi,D7,D7_hi,   *
     479                    ;*                           FPEXC,FPSCR                                     *
     480                    ;*   Regs Used         : A1,A2,A3,A4,V9,SP,LR,SR,D0,D0_hi,D1,D1_hi,D2,D2_hi, *
     481                    ;*                           D3,D3_hi,D4,D4_hi,D5,D5_hi,D6,D6_hi,D7,D7_hi,   *
     482                    ;*                           FPEXC,FPSCR                                     *
     483                    ;*   Local Frame Size  : 0 Args + 12 Auto + 4 Save = 16 byte                 *
     484                    ;*****************************************************************************
     485 00000082           ADCIntUnregister:
     486                    ;* --------------------------------------------------------------------------*
     487                            .dwcfi  cfa_offset, 0
     488 00000082 B50E              PUSH      {A2, A3, A4, LR}      ; [DPU_V7M3_PIPE]  ; [ORIG 16-BIT INS]
     489                            .dwcfi  cfa_offset, 16
     490                            .dwcfi  save_reg_to_mem, 14, -4
     491                            .dwcfi  save_reg_to_mem, 3, -8
     492                            .dwcfi  save_reg_to_mem, 2, -12
     493                            .dwcfi  save_reg_to_mem, 1, -16
     494                    $C$DW$33        .dwtag  DW_TAG_variable
     495                            .dwattr $C$DW$33, DW_AT_name("ui32Base")
TI ARM Assembler Unix v18.1.1 Fri Jul  3 20:08:23 2020

Tools Copyright (c) 1996-2017 Texas Instruments Incorporated
adc.asm                                                              PAGE   10

     496                            .dwattr $C$DW$33, DW_AT_TI_symbol_name("ui32Base")
     497                            .dwattr $C$DW$33, DW_AT_type(*$C$DW$T$27)
     498                            .dwattr $C$DW$33, DW_AT_location[DW_OP_breg13 0]
     499                    
     500                    $C$DW$34        .dwtag  DW_TAG_variable
     501                            .dwattr $C$DW$34, DW_AT_name("ui32SequenceNum")
     502                            .dwattr $C$DW$34, DW_AT_TI_symbol_name("ui32SequenceNum")
     503                            .dwattr $C$DW$34, DW_AT_type(*$C$DW$T$27)
     504                            .dwattr $C$DW$34, DW_AT_location[DW_OP_breg13 4]
     505                    
     506                    $C$DW$35        .dwtag  DW_TAG_variable
     507                            .dwattr $C$DW$35, DW_AT_name("ui8Int")
     508                            .dwattr $C$DW$35, DW_AT_TI_symbol_name("ui8Int")
     509                            .dwattr $C$DW$35, DW_AT_type(*$C$DW$T$112)
     510                            .dwattr $C$DW$35, DW_AT_location[DW_OP_breg13 8]
     511                    
     512                    ;----------------------------------------------------------------------
     513                    ; 196 | uint_fast8_t ui8Int;                                                   
     514                    ; 198 | //                                                                     
     515                    ; 199 | // Check the arguments.                                                
     516                    ; 200 | //                                                                     
     517                    ; 201 | ASSERT((ui32Base == ADC0_BASE) || (ui32Base == ADC1_BASE));            
     518                    ; 202 | ASSERT(ui32SequenceNum < 4);                                           
     519                    ; 204 | //                                                                     
     520                    ; 205 | // Determine the interrupt to unregister based on the sequence number. 
     521                    ; 206 | //                                                                     
     522                    ;----------------------------------------------------------------------
     523 00000084 9101              STR       A2, [SP, #4]          ; [DPU_V7M3_PIPE] |195|  ; [ORIG 16-BIT INS]
     524 00000086 9000              STR       A1, [SP, #0]          ; [DPU_V7M3_PIPE] |195|  ; [ORIG 16-BIT INS]
     525                            .dwpsn  file "../driverlib/adc.c",line 207,column 5,is_stmt,isa 1
     526                    ;----------------------------------------------------------------------
     527                    ; 207 | ui8Int = _ADCIntNumberGet(ui32Base, ui32SequenceNum);                  
     528                    ; 208 | ASSERT(ui8Int != 0);                                                   
     529                    ; 210 | //                                                                     
     530                    ; 211 | // Disable the interrupt.                                              
     531                    ; 212 | //                                                                     
     532                    ;----------------------------------------------------------------------
     533 00000088 9800              LDR       A1, [SP, #0]          ; [DPU_V7M3_PIPE] |207|  ; [ORIG 16-BIT INS]
     534 0000008a 9901              LDR       A2, [SP, #4]          ; [DPU_V7M3_PIPE] |207|  ; [ORIG 16-BIT INS]
     535                    $C$DW$36        .dwtag  DW_TAG_TI_branch
     536                            .dwattr $C$DW$36, DW_AT_low_pc(0x00)
     537                            .dwattr $C$DW$36, DW_AT_name("_ADCIntNumberGet")
     538                            .dwattr $C$DW$36, DW_AT_TI_call
     539                    
     540 0000008c FFFEF7FF!         BL        _ADCIntNumberGet      ; [DPU_V7M3_PIPE] |207|  ; [KEEP 32-BIT INS]
     541                            ; CALL OCCURS {_ADCIntNumberGet }  ; [] |207| 
     542 00000090 9002              STR       A1, [SP, #8]          ; [DPU_V7M3_PIPE] |207|  ; [ORIG 16-BIT INS]
     543                            .dwpsn  file "../driverlib/adc.c",line 213,column 5,is_stmt,isa 1
     544                    ;----------------------------------------------------------------------
     545                    ; 213 | IntDisable(ui8Int);                                                    
     546                    ; 215 | //                                                                     
     547                    ; 216 | // Unregister the interrupt handler.                                   
     548                    ; 217 | //                                                                     
     549                    ;----------------------------------------------------------------------
     550 00000092 9802              LDR       A1, [SP, #8]          ; [DPU_V7M3_PIPE] |213|  ; [ORIG 16-BIT INS]
TI ARM Assembler Unix v18.1.1 Fri Jul  3 20:08:23 2020

Tools Copyright (c) 1996-2017 Texas Instruments Incorporated
adc.asm                                                              PAGE   11

     551                    $C$DW$37        .dwtag  DW_TAG_TI_branch
     552                            .dwattr $C$DW$37, DW_AT_low_pc(0x00)
     553                            .dwattr $C$DW$37, DW_AT_name("IntDisable")
     554                            .dwattr $C$DW$37, DW_AT_TI_call
     555                    
     556 00000094 FFFEF7FF!         BL        IntDisable            ; [DPU_V7M3_PIPE] |213|  ; [KEEP 32-BIT INS]
     557                            ; CALL OCCURS {IntDisable }      ; [] |213| 
     558                            .dwpsn  file "../driverlib/adc.c",line 218,column 5,is_stmt,isa 1
     559                    ;----------------------------------------------------------------------
     560                    ; 218 | IntUnregister(ui8Int);                                                 
     561                    ;----------------------------------------------------------------------
     562 00000098 9802              LDR       A1, [SP, #8]          ; [DPU_V7M3_PIPE] |218|  ; [ORIG 16-BIT INS]
     563                    $C$DW$38        .dwtag  DW_TAG_TI_branch
     564                            .dwattr $C$DW$38, DW_AT_low_pc(0x00)
     565                            .dwattr $C$DW$38, DW_AT_name("IntUnregister")
     566                            .dwattr $C$DW$38, DW_AT_TI_call
     567                    
     568 0000009a FFFEF7FF!         BL        IntUnregister         ; [DPU_V7M3_PIPE] |218|  ; [KEEP 32-BIT INS]
     569                            ; CALL OCCURS {IntUnregister }   ; [] |218| 
     570                            .dwpsn  file "../driverlib/adc.c",line 219,column 1,is_stmt,isa 1
     571                    $C$DW$39        .dwtag  DW_TAG_TI_branch
     572                            .dwattr $C$DW$39, DW_AT_low_pc(0x00)
     573                            .dwattr $C$DW$39, DW_AT_TI_return
     574                    
     575 0000009e BD0E              POP       {A2, A3, A4, PC}      ; [DPU_V7M3_PIPE]  ; [ORIG 16-BIT INS]
     576                            .dwcfi  cfa_offset, 0
     577                            .dwcfi  restore_reg, 3
     578                            .dwcfi  restore_reg, 2
     579                            .dwcfi  restore_reg, 1
     580                            ; BRANCH OCCURS                  ; [] 
     581                            .dwattr $C$DW$30, DW_AT_TI_end_file("../driverlib/adc.c")
     582                            .dwattr $C$DW$30, DW_AT_TI_end_line(0xdb)
     583                            .dwattr $C$DW$30, DW_AT_TI_end_column(0x01)
     584                            .dwendentry
     585                            .dwendtag $C$DW$30
     586                    
     587 000000a0                   .sect   ".text"
     588                            .clink
     589                            .thumbfunc ADCIntDisable
     590 000000a0                   .thumb
     591                            .global ADCIntDisable
     592                    
     593                    $C$DW$40        .dwtag  DW_TAG_subprogram
     594                            .dwattr $C$DW$40, DW_AT_name("ADCIntDisable")
     595                            .dwattr $C$DW$40, DW_AT_low_pc(ADCIntDisable)
     596                            .dwattr $C$DW$40, DW_AT_high_pc(0x00)
     597                            .dwattr $C$DW$40, DW_AT_TI_symbol_name("ADCIntDisable")
     598                            .dwattr $C$DW$40, DW_AT_external
     599                            .dwattr $C$DW$40, DW_AT_TI_begin_file("../driverlib/adc.c")
     600                            .dwattr $C$DW$40, DW_AT_TI_begin_line(0xea)
     601                            .dwattr $C$DW$40, DW_AT_TI_begin_column(0x01)
     602                            .dwattr $C$DW$40, DW_AT_decl_file("../driverlib/adc.c")
     603                            .dwattr $C$DW$40, DW_AT_decl_line(0xea)
     604                            .dwattr $C$DW$40, DW_AT_decl_column(0x01)
     605                            .dwattr $C$DW$40, DW_AT_TI_max_frame_size(0x08)
TI ARM Assembler Unix v18.1.1 Fri Jul  3 20:08:23 2020

Tools Copyright (c) 1996-2017 Texas Instruments Incorporated
adc.asm                                                              PAGE   12

     606                            .dwpsn  file "../driverlib/adc.c",line 235,column 1,is_stmt,address ADCIntDisable,isa 1
     607                    
     608                            .dwfde $C$DW$CIE, ADCIntDisable
     609                    $C$DW$41        .dwtag  DW_TAG_formal_parameter
     610                            .dwattr $C$DW$41, DW_AT_name("ui32Base")
     611                            .dwattr $C$DW$41, DW_AT_TI_symbol_name("ui32Base")
     612                            .dwattr $C$DW$41, DW_AT_type(*$C$DW$T$27)
     613                            .dwattr $C$DW$41, DW_AT_location[DW_OP_reg0]
     614                    
     615                    $C$DW$42        .dwtag  DW_TAG_formal_parameter
     616                            .dwattr $C$DW$42, DW_AT_name("ui32SequenceNum")
     617                            .dwattr $C$DW$42, DW_AT_TI_symbol_name("ui32SequenceNum")
     618                            .dwattr $C$DW$42, DW_AT_type(*$C$DW$T$27)
     619                            .dwattr $C$DW$42, DW_AT_location[DW_OP_reg1]
     620                    
     621                    ;----------------------------------------------------------------------
     622                    ; 234 | ADCIntDisable(uint32_t ui32Base, uint32_t ui32SequenceNum)             
     623                    ;----------------------------------------------------------------------
     624                    
     625                    ;*****************************************************************************
     626                    ;* FUNCTION NAME: ADCIntDisable                                              *
     627                    ;*                                                                           *
     628                    ;*   Regs Modified     : A1,A2,A3,A4,SP,SR                                   *
     629                    ;*   Regs Used         : A1,A2,A3,A4,SP,LR,SR                                *
     630                    ;*   Local Frame Size  : 0 Args + 8 Auto + 0 Save = 8 byte                   *
     631                    ;*****************************************************************************
     632 000000a0           ADCIntDisable:
     633                    ;* --------------------------------------------------------------------------*
     634                            .dwcfi  cfa_offset, 0
     635 000000a0 0D08F1AD          SUB       SP, SP, #8            ; [DPU_V7M3_PIPE]  ; [KEEP 32-BIT INS]
     636                            .dwcfi  cfa_offset, 8
     637                    $C$DW$43        .dwtag  DW_TAG_variable
     638                            .dwattr $C$DW$43, DW_AT_name("ui32Base")
     639                            .dwattr $C$DW$43, DW_AT_TI_symbol_name("ui32Base")
     640                            .dwattr $C$DW$43, DW_AT_type(*$C$DW$T$27)
     641                            .dwattr $C$DW$43, DW_AT_location[DW_OP_breg13 0]
     642                    
     643                    $C$DW$44        .dwtag  DW_TAG_variable
     644                            .dwattr $C$DW$44, DW_AT_name("ui32SequenceNum")
     645                            .dwattr $C$DW$44, DW_AT_TI_symbol_name("ui32SequenceNum")
     646                            .dwattr $C$DW$44, DW_AT_type(*$C$DW$T$27)
     647                            .dwattr $C$DW$44, DW_AT_location[DW_OP_breg13 4]
     648                    
     649                    ;----------------------------------------------------------------------
     650                    ; 236 | //                                                                     
     651                    ; 237 | // Check the arguments.                                                
     652                    ; 238 | //                                                                     
     653                    ; 239 | ASSERT((ui32Base == ADC0_BASE) || (ui32Base == ADC1_BASE));            
     654                    ; 240 | ASSERT(ui32SequenceNum < 4);                                           
     655                    ; 242 | //                                                                     
     656                    ; 243 | // Disable this sample sequence interrupt.                             
     657                    ; 244 | //                                                                     
     658                    ;----------------------------------------------------------------------
     659 000000a4 9101              STR       A2, [SP, #4]          ; [DPU_V7M3_PIPE] |235|  ; [ORIG 16-BIT INS]
     660 000000a6 9000              STR       A1, [SP, #0]          ; [DPU_V7M3_PIPE] |235|  ; [ORIG 16-BIT INS]
TI ARM Assembler Unix v18.1.1 Fri Jul  3 20:08:23 2020

Tools Copyright (c) 1996-2017 Texas Instruments Incorporated
adc.asm                                                              PAGE   13

     661                            .dwpsn  file "../driverlib/adc.c",line 245,column 5,is_stmt,isa 1
     662                    ;----------------------------------------------------------------------
     663                    ; 245 | HWREG(ui32Base + ADC_O_IM) &= ~(1 << ui32SequenceNum);                 
     664                    ;----------------------------------------------------------------------
     665 000000a8 9800              LDR       A1, [SP, #0]          ; [DPU_V7M3_PIPE] |245|  ; [ORIG 16-BIT INS]
     666 000000aa 9B01              LDR       A4, [SP, #4]          ; [DPU_V7M3_PIPE] |245|  ; [ORIG 16-BIT INS]
     667 000000ac 3008              ADDS      A1, A1, #8            ; [DPU_V7M3_PIPE] |245|  ; [ORIG 16-BIT INS]
     668 000000ae 6802              LDR       A3, [A1, #0]          ; [DPU_V7M3_PIPE] |245|  ; [ORIG 16-BIT INS]
     669 000000b0 2101              MOVS      A2, #1                ; [DPU_V7M3_PIPE] |245|  ; [ORIG 16-BIT INS]
     670 000000b2 4099              LSLS      A2, A2, A4            ; [DPU_V7M3_PIPE] |245|  ; [ORIG 16-BIT INS]
     671 000000b4 438A              BICS      A3, A3, A2            ; [DPU_V7M3_PIPE] |245|  ; [ORIG 16-BIT INS]
     672 000000b6 6002              STR       A3, [A1, #0]          ; [DPU_V7M3_PIPE] |245|  ; [ORIG 16-BIT INS]
     673                            .dwpsn  file "../driverlib/adc.c",line 246,column 1,is_stmt,isa 1
     674 000000b8 B002              ADD       SP, SP, #8            ; [DPU_V7M3_PIPE]  ; [ORIG 16-BIT INS]
     675                            .dwcfi  cfa_offset, 0
     676                    $C$DW$45        .dwtag  DW_TAG_TI_branch
     677                            .dwattr $C$DW$45, DW_AT_low_pc(0x00)
     678                            .dwattr $C$DW$45, DW_AT_TI_return
     679                    
     680 000000ba 4770              BX        LR                    ; [DPU_V7M3_PIPE]  ; [ORIG 16-BIT INS]
     681                            ; BRANCH OCCURS                  ; [] 
     682                            .dwattr $C$DW$40, DW_AT_TI_end_file("../driverlib/adc.c")
     683                            .dwattr $C$DW$40, DW_AT_TI_end_line(0xf6)
     684                            .dwattr $C$DW$40, DW_AT_TI_end_column(0x01)
     685                            .dwendentry
     686                            .dwendtag $C$DW$40
     687                    
     688 000000bc                   .sect   ".text"
     689                            .clink
     690                            .thumbfunc ADCIntEnable
     691 000000bc                   .thumb
     692                            .global ADCIntEnable
     693                    
     694                    $C$DW$46        .dwtag  DW_TAG_subprogram
     695                            .dwattr $C$DW$46, DW_AT_name("ADCIntEnable")
     696                            .dwattr $C$DW$46, DW_AT_low_pc(ADCIntEnable)
     697                            .dwattr $C$DW$46, DW_AT_high_pc(0x00)
     698                            .dwattr $C$DW$46, DW_AT_TI_symbol_name("ADCIntEnable")
     699                            .dwattr $C$DW$46, DW_AT_external
     700                            .dwattr $C$DW$46, DW_AT_TI_begin_file("../driverlib/adc.c")
     701                            .dwattr $C$DW$46, DW_AT_TI_begin_line(0x107)
     702                            .dwattr $C$DW$46, DW_AT_TI_begin_column(0x01)
     703                            .dwattr $C$DW$46, DW_AT_decl_file("../driverlib/adc.c")
     704                            .dwattr $C$DW$46, DW_AT_decl_line(0x107)
     705                            .dwattr $C$DW$46, DW_AT_decl_column(0x01)
     706                            .dwattr $C$DW$46, DW_AT_TI_max_frame_size(0x08)
     707                            .dwpsn  file "../driverlib/adc.c",line 264,column 1,is_stmt,address ADCIntEnable,isa 1
     708                    
     709                            .dwfde $C$DW$CIE, ADCIntEnable
     710                    $C$DW$47        .dwtag  DW_TAG_formal_parameter
     711                            .dwattr $C$DW$47, DW_AT_name("ui32Base")
     712                            .dwattr $C$DW$47, DW_AT_TI_symbol_name("ui32Base")
     713                            .dwattr $C$DW$47, DW_AT_type(*$C$DW$T$27)
     714                            .dwattr $C$DW$47, DW_AT_location[DW_OP_reg0]
     715                    
TI ARM Assembler Unix v18.1.1 Fri Jul  3 20:08:23 2020

Tools Copyright (c) 1996-2017 Texas Instruments Incorporated
adc.asm                                                              PAGE   14

     716                    $C$DW$48        .dwtag  DW_TAG_formal_parameter
     717                            .dwattr $C$DW$48, DW_AT_name("ui32SequenceNum")
     718                            .dwattr $C$DW$48, DW_AT_TI_symbol_name("ui32SequenceNum")
     719                            .dwattr $C$DW$48, DW_AT_type(*$C$DW$T$27)
     720                            .dwattr $C$DW$48, DW_AT_location[DW_OP_reg1]
     721                    
     722                    ;----------------------------------------------------------------------
     723                    ; 263 | ADCIntEnable(uint32_t ui32Base, uint32_t ui32SequenceNum)              
     724                    ;----------------------------------------------------------------------
     725                    
     726                    ;*****************************************************************************
     727                    ;* FUNCTION NAME: ADCIntEnable                                               *
     728                    ;*                                                                           *
     729                    ;*   Regs Modified     : A1,A2,A3,A4,SP,SR                                   *
     730                    ;*   Regs Used         : A1,A2,A3,A4,SP,LR,SR                                *
     731                    ;*   Local Frame Size  : 0 Args + 8 Auto + 0 Save = 8 byte                   *
     732                    ;*****************************************************************************
     733 000000bc           ADCIntEnable:
     734                    ;* --------------------------------------------------------------------------*
     735                            .dwcfi  cfa_offset, 0
     736 000000bc 0D08F1AD          SUB       SP, SP, #8            ; [DPU_V7M3_PIPE]  ; [KEEP 32-BIT INS]
     737                            .dwcfi  cfa_offset, 8
     738                    $C$DW$49        .dwtag  DW_TAG_variable
     739                            .dwattr $C$DW$49, DW_AT_name("ui32Base")
     740                            .dwattr $C$DW$49, DW_AT_TI_symbol_name("ui32Base")
     741                            .dwattr $C$DW$49, DW_AT_type(*$C$DW$T$27)
     742                            .dwattr $C$DW$49, DW_AT_location[DW_OP_breg13 0]
     743                    
     744                    $C$DW$50        .dwtag  DW_TAG_variable
     745                            .dwattr $C$DW$50, DW_AT_name("ui32SequenceNum")
     746                            .dwattr $C$DW$50, DW_AT_TI_symbol_name("ui32SequenceNum")
     747                            .dwattr $C$DW$50, DW_AT_type(*$C$DW$T$27)
     748                            .dwattr $C$DW$50, DW_AT_location[DW_OP_breg13 4]
     749                    
     750                    ;----------------------------------------------------------------------
     751                    ; 265 | //                                                                     
     752                    ; 266 | // Check the arguments.                                                
     753                    ; 267 | //                                                                     
     754                    ; 268 | ASSERT((ui32Base == ADC0_BASE) || (ui32Base == ADC1_BASE));            
     755                    ; 269 | ASSERT(ui32SequenceNum < 4);                                           
     756                    ; 271 | //                                                                     
     757                    ; 272 | // Clear any outstanding interrupts on this sample sequence.           
     758                    ; 273 | //                                                                     
     759                    ;----------------------------------------------------------------------
     760 000000c0 9101              STR       A2, [SP, #4]          ; [DPU_V7M3_PIPE] |264|  ; [ORIG 16-BIT INS]
     761 000000c2 9000              STR       A1, [SP, #0]          ; [DPU_V7M3_PIPE] |264|  ; [ORIG 16-BIT INS]
     762                            .dwpsn  file "../driverlib/adc.c",line 274,column 5,is_stmt,isa 1
     763                    ;----------------------------------------------------------------------
     764                    ; 274 | HWREG(ui32Base + ADC_O_ISC) = 1 << ui32SequenceNum;                    
     765                    ; 276 | //                                                                     
     766                    ; 277 | // Enable this sample sequence interrupt.                              
     767                    ; 278 | //                                                                     
     768                    ;----------------------------------------------------------------------
     769 000000c4 9A01              LDR       A3, [SP, #4]          ; [DPU_V7M3_PIPE] |274|  ; [ORIG 16-BIT INS]
     770 000000c6 9900              LDR       A2, [SP, #0]          ; [DPU_V7M3_PIPE] |274|  ; [ORIG 16-BIT INS]
TI ARM Assembler Unix v18.1.1 Fri Jul  3 20:08:23 2020

Tools Copyright (c) 1996-2017 Texas Instruments Incorporated
adc.asm                                                              PAGE   15

     771 000000c8 2001              MOVS      A1, #1                ; [DPU_V7M3_PIPE] |274|  ; [ORIG 16-BIT INS]
     772 000000ca 4090              LSLS      A1, A1, A3            ; [DPU_V7M3_PIPE] |274|  ; [ORIG 16-BIT INS]
     773 000000cc 60C8              STR       A1, [A2, #12]         ; [DPU_V7M3_PIPE] |274|  ; [ORIG 16-BIT INS]
     774                            .dwpsn  file "../driverlib/adc.c",line 279,column 5,is_stmt,isa 1
     775                    ;----------------------------------------------------------------------
     776                    ; 279 | HWREG(ui32Base + ADC_O_IM) |= 1 << ui32SequenceNum;                    
     777                    ;----------------------------------------------------------------------
     778 000000ce 9800              LDR       A1, [SP, #0]          ; [DPU_V7M3_PIPE] |279|  ; [ORIG 16-BIT INS]
     779 000000d0 9B01              LDR       A4, [SP, #4]          ; [DPU_V7M3_PIPE] |279|  ; [ORIG 16-BIT INS]
     780 000000d2 3008              ADDS      A1, A1, #8            ; [DPU_V7M3_PIPE] |279|  ; [ORIG 16-BIT INS]
     781 000000d4 6802              LDR       A3, [A1, #0]          ; [DPU_V7M3_PIPE] |279|  ; [ORIG 16-BIT INS]
     782 000000d6 2101              MOVS      A2, #1                ; [DPU_V7M3_PIPE] |279|  ; [ORIG 16-BIT INS]
     783 000000d8 4099              LSLS      A2, A2, A4            ; [DPU_V7M3_PIPE] |279|  ; [ORIG 16-BIT INS]
     784 000000da 4311              ORRS      A2, A2, A3            ; [DPU_V7M3_PIPE] |279|  ; [ORIG 16-BIT INS]
     785 000000dc 6001              STR       A2, [A1, #0]          ; [DPU_V7M3_PIPE] |279|  ; [ORIG 16-BIT INS]
     786                            .dwpsn  file "../driverlib/adc.c",line 280,column 1,is_stmt,isa 1
     787 000000de B002              ADD       SP, SP, #8            ; [DPU_V7M3_PIPE]  ; [ORIG 16-BIT INS]
     788                            .dwcfi  cfa_offset, 0
     789                    $C$DW$51        .dwtag  DW_TAG_TI_branch
     790                            .dwattr $C$DW$51, DW_AT_low_pc(0x00)
     791                            .dwattr $C$DW$51, DW_AT_TI_return
     792                    
     793 000000e0 4770              BX        LR                    ; [DPU_V7M3_PIPE]  ; [ORIG 16-BIT INS]
     794                            ; BRANCH OCCURS                  ; [] 
     795                            .dwattr $C$DW$46, DW_AT_TI_end_file("../driverlib/adc.c")
     796                            .dwattr $C$DW$46, DW_AT_TI_end_line(0x118)
     797                            .dwattr $C$DW$46, DW_AT_TI_end_column(0x01)
     798                            .dwendentry
     799                            .dwendtag $C$DW$46
     800                    
     801 000000e2                   .sect   ".text"
     802                            .clink
     803                            .thumbfunc ADCIntStatus
     804 000000e2                   .thumb
     805                            .global ADCIntStatus
     806                    
     807                    $C$DW$52        .dwtag  DW_TAG_subprogram
     808                            .dwattr $C$DW$52, DW_AT_name("ADCIntStatus")
     809                            .dwattr $C$DW$52, DW_AT_low_pc(ADCIntStatus)
     810                            .dwattr $C$DW$52, DW_AT_high_pc(0x00)
     811                            .dwattr $C$DW$52, DW_AT_TI_symbol_name("ADCIntStatus")
     812                            .dwattr $C$DW$52, DW_AT_external
     813                            .dwattr $C$DW$52, DW_AT_type(*$C$DW$T$27)
     814                            .dwattr $C$DW$52, DW_AT_TI_begin_file("../driverlib/adc.c")
     815                            .dwattr $C$DW$52, DW_AT_TI_begin_line(0x12b)
     816                            .dwattr $C$DW$52, DW_AT_TI_begin_column(0x01)
     817                            .dwattr $C$DW$52, DW_AT_decl_file("../driverlib/adc.c")
     818                            .dwattr $C$DW$52, DW_AT_decl_line(0x12b)
     819                            .dwattr $C$DW$52, DW_AT_decl_column(0x01)
     820                            .dwattr $C$DW$52, DW_AT_TI_max_frame_size(0x10)
     821                            .dwpsn  file "../driverlib/adc.c",line 300,column 1,is_stmt,address ADCIntStatus,isa 1
     822                    
     823                            .dwfde $C$DW$CIE, ADCIntStatus
     824                    $C$DW$53        .dwtag  DW_TAG_formal_parameter
     825                            .dwattr $C$DW$53, DW_AT_name("ui32Base")
TI ARM Assembler Unix v18.1.1 Fri Jul  3 20:08:23 2020

Tools Copyright (c) 1996-2017 Texas Instruments Incorporated
adc.asm                                                              PAGE   16

     826                            .dwattr $C$DW$53, DW_AT_TI_symbol_name("ui32Base")
     827                            .dwattr $C$DW$53, DW_AT_type(*$C$DW$T$27)
     828                            .dwattr $C$DW$53, DW_AT_location[DW_OP_reg0]
     829                    
     830                    $C$DW$54        .dwtag  DW_TAG_formal_parameter
     831                            .dwattr $C$DW$54, DW_AT_name("ui32SequenceNum")
     832                            .dwattr $C$DW$54, DW_AT_TI_symbol_name("ui32SequenceNum")
     833                            .dwattr $C$DW$54, DW_AT_type(*$C$DW$T$27)
     834                            .dwattr $C$DW$54, DW_AT_location[DW_OP_reg1]
     835                    
     836                    $C$DW$55        .dwtag  DW_TAG_formal_parameter
     837                            .dwattr $C$DW$55, DW_AT_name("bMasked")
     838                            .dwattr $C$DW$55, DW_AT_TI_symbol_name("bMasked")
     839                            .dwattr $C$DW$55, DW_AT_type(*$C$DW$T$38)
     840                            .dwattr $C$DW$55, DW_AT_location[DW_OP_reg2]
     841                    
     842                    ;----------------------------------------------------------------------
     843                    ; 299 | ADCIntStatus(uint32_t ui32Base, uint32_t ui32SequenceNum, bool bMasked)
     844                    ;----------------------------------------------------------------------
     845                    
     846                    ;*****************************************************************************
     847                    ;* FUNCTION NAME: ADCIntStatus                                               *
     848                    ;*                                                                           *
     849                    ;*   Regs Modified     : A1,A2,A3,SP,SR                                      *
     850                    ;*   Regs Used         : A1,A2,A3,SP,LR,SR                                   *
     851                    ;*   Local Frame Size  : 0 Args + 16 Auto + 0 Save = 16 byte                 *
     852                    ;*****************************************************************************
     853 000000e2           ADCIntStatus:
     854                    ;* --------------------------------------------------------------------------*
     855                            .dwcfi  cfa_offset, 0
     856 000000e2 0D10F1AD          SUB       SP, SP, #16           ; [DPU_V7M3_PIPE]  ; [KEEP 32-BIT INS]
     857                            .dwcfi  cfa_offset, 16
     858                    $C$DW$56        .dwtag  DW_TAG_variable
     859                            .dwattr $C$DW$56, DW_AT_name("ui32Base")
     860                            .dwattr $C$DW$56, DW_AT_TI_symbol_name("ui32Base")
     861                            .dwattr $C$DW$56, DW_AT_type(*$C$DW$T$27)
     862                            .dwattr $C$DW$56, DW_AT_location[DW_OP_breg13 0]
     863                    
     864                    $C$DW$57        .dwtag  DW_TAG_variable
     865                            .dwattr $C$DW$57, DW_AT_name("ui32SequenceNum")
     866                            .dwattr $C$DW$57, DW_AT_TI_symbol_name("ui32SequenceNum")
     867                            .dwattr $C$DW$57, DW_AT_type(*$C$DW$T$27)
     868                            .dwattr $C$DW$57, DW_AT_location[DW_OP_breg13 4]
     869                    
     870                    $C$DW$58        .dwtag  DW_TAG_variable
     871                            .dwattr $C$DW$58, DW_AT_name("ui32Temp")
     872                            .dwattr $C$DW$58, DW_AT_TI_symbol_name("ui32Temp")
     873                            .dwattr $C$DW$58, DW_AT_type(*$C$DW$T$27)
     874                            .dwattr $C$DW$58, DW_AT_location[DW_OP_breg13 8]
     875                    
     876                    $C$DW$59        .dwtag  DW_TAG_variable
     877                            .dwattr $C$DW$59, DW_AT_name("bMasked")
     878                            .dwattr $C$DW$59, DW_AT_TI_symbol_name("bMasked")
     879                            .dwattr $C$DW$59, DW_AT_type(*$C$DW$T$38)
     880                            .dwattr $C$DW$59, DW_AT_location[DW_OP_breg13 12]
TI ARM Assembler Unix v18.1.1 Fri Jul  3 20:08:23 2020

Tools Copyright (c) 1996-2017 Texas Instruments Incorporated
adc.asm                                                              PAGE   17

     881                    
     882                    ;----------------------------------------------------------------------
     883                    ; 301 | uint32_t ui32Temp;                                                     
     884                    ; 303 | //                                                                     
     885                    ; 304 | // Check the arguments.                                                
     886                    ; 305 | //                                                                     
     887                    ; 306 | ASSERT((ui32Base == ADC0_BASE) || (ui32Base == ADC1_BASE));            
     888                    ; 307 | ASSERT(ui32SequenceNum < 4);                                           
     889                    ; 309 | //                                                                     
     890                    ; 310 | // Return either the interrupt status or the raw interrupt status as   
     891                    ; 311 | // requested.                                                          
     892                    ; 312 | //                                                                     
     893                    ;----------------------------------------------------------------------
     894 000000e6 200CF88D          STRB      A3, [SP, #12]         ; [DPU_V7M3_PIPE] |300|  ; [KEEP 32-BIT INS]
     895 000000ea 9101              STR       A2, [SP, #4]          ; [DPU_V7M3_PIPE] |300|  ; [ORIG 16-BIT INS]
     896 000000ec 9000              STR       A1, [SP, #0]          ; [DPU_V7M3_PIPE] |300|  ; [ORIG 16-BIT INS]
     897                            .dwpsn  file "../driverlib/adc.c",line 313,column 5,is_stmt,isa 1
     898                    ;----------------------------------------------------------------------
     899                    ; 313 | if(bMasked)                                                            
     900                    ;----------------------------------------------------------------------
     901 000000ee 000CF89D          LDRB      A1, [SP, #12]         ; [DPU_V7M3_PIPE] |313|  ; [KEEP 32-BIT INS]
     902 000000f2 B140              CBZ       A1, ||$C$L8||         ; []  ; [ORIG 16-BIT INS]
     903                            ; BRANCHCC OCCURS {||$C$L8||}    ; [] |313| 
     904                    ;* --------------------------------------------------------------------------*
     905                            .dwpsn  file "../driverlib/adc.c",line 315,column 9,is_stmt,isa 1
     906                    ;----------------------------------------------------------------------
     907                    ; 315 | ui32Temp = HWREG(ui32Base + ADC_O_ISC) & (0x10001 << ui32SequenceNum); 
     908                    ;----------------------------------------------------------------------
     909 000000f4 9800              LDR       A1, [SP, #0]          ; [DPU_V7M3_PIPE] |315|  ; [ORIG 16-BIT INS]
     910 000000f6 9A01              LDR       A3, [SP, #4]          ; [DPU_V7M3_PIPE] |315|  ; [ORIG 16-BIT INS]
     911 000000f8 68C1              LDR       A2, [A1, #12]         ; [DPU_V7M3_PIPE] |315|  ; [ORIG 16-BIT INS]
     912 000000fa 1001F04F          MOV       A1, #65537            ; [DPU_V7M3_PIPE] |315|  ; [KEEP 32-BIT INS]
     913 000000fe 4090              LSLS      A1, A1, A3            ; [DPU_V7M3_PIPE] |315|  ; [ORIG 16-BIT INS]
     914 00000100 4008              ANDS      A1, A1, A2            ; [DPU_V7M3_PIPE] |315|  ; [ORIG 16-BIT INS]
     915 00000102 9002              STR       A1, [SP, #8]          ; [DPU_V7M3_PIPE] |315|  ; [ORIG 16-BIT INS]
     916                            .dwpsn  file "../driverlib/adc.c",line 316,column 5,is_stmt,isa 1
     917                    ;----------------------------------------------------------------------
     918                    ; 317 | else                                                                   
     919                    ;----------------------------------------------------------------------
     920 00000104 E016              B         ||$C$L9||             ; [DPU_V7M3_PIPE] |316|  ; [ORIG 16-BIT INS]
     921                            ; BRANCH OCCURS {||$C$L9||}      ; [] |316| 
     922                    ;* --------------------------------------------------------------------------*
     923 00000106           ||$C$L8||:    
     924                            .dwpsn  file "../driverlib/adc.c",line 319,column 9,is_stmt,isa 1
     925                    ;----------------------------------------------------------------------
     926                    ; 319 | ui32Temp = (HWREG(ui32Base + ADC_O_RIS) &                              
     927                    ; 320 |             (0x10000 | (1 << ui32SequenceNum)));                       
     928                    ; 322 | //                                                                     
     929                    ; 323 | // If the digital comparator status bit is set, reflect it to the      
     930                    ; 324 | // appropriate sequence bit.                                           
     931                    ; 325 | //                                                                     
     932                    ;----------------------------------------------------------------------
     933 00000106 9800              LDR       A1, [SP, #0]          ; [DPU_V7M3_PIPE] |319|  ; [ORIG 16-BIT INS]
     934 00000108 9A01              LDR       A3, [SP, #4]          ; [DPU_V7M3_PIPE] |319|  ; [ORIG 16-BIT INS]
     935 0000010a 6841              LDR       A2, [A1, #4]          ; [DPU_V7M3_PIPE] |319|  ; [ORIG 16-BIT INS]
TI ARM Assembler Unix v18.1.1 Fri Jul  3 20:08:23 2020

Tools Copyright (c) 1996-2017 Texas Instruments Incorporated
adc.asm                                                              PAGE   18

     936 0000010c 2001              MOVS      A1, #1                ; [DPU_V7M3_PIPE] |319|  ; [ORIG 16-BIT INS]
     937 0000010e 4090              LSLS      A1, A1, A3            ; [DPU_V7M3_PIPE] |319|  ; [ORIG 16-BIT INS]
     938 00000110 3080F440          ORR       A1, A1, #65536        ; [DPU_V7M3_PIPE] |319|  ; [KEEP 32-BIT INS]
     939 00000114 4008              ANDS      A1, A1, A2            ; [DPU_V7M3_PIPE] |319|  ; [ORIG 16-BIT INS]
     940 00000116 9002              STR       A1, [SP, #8]          ; [DPU_V7M3_PIPE] |319|  ; [ORIG 16-BIT INS]
     941                            .dwpsn  file "../driverlib/adc.c",line 326,column 9,is_stmt,isa 1
     942                    ;----------------------------------------------------------------------
     943                    ; 326 | if(ui32Temp & 0x10000)                                                 
     944                    ;----------------------------------------------------------------------
     945 00000118 9802              LDR       A1, [SP, #8]          ; [DPU_V7M3_PIPE] |326|  ; [ORIG 16-BIT INS]
     946 0000011a 0C40              LSRS      A1, A1, #17           ; [DPU_V7M3_PIPE] |326|  ; [ORIG 16-BIT INS]
     947 0000011c D30A              BCC       ||$C$L9||             ; [DPU_V7M3_PIPE] |326|  ; [ORIG 16-BIT INS]
     948                            ; BRANCHCC OCCURS {||$C$L9||}    ; [] |326| 
     949                    ;* --------------------------------------------------------------------------*
     950                            .dwpsn  file "../driverlib/adc.c",line 328,column 13,is_stmt,isa 1
     951                    ;----------------------------------------------------------------------
     952                    ; 328 | ui32Temp |= 0xF0000;                                                   
     953                    ;----------------------------------------------------------------------
     954 0000011e 9802              LDR       A1, [SP, #8]          ; [DPU_V7M3_PIPE] |328|  ; [ORIG 16-BIT INS]
     955 00000120 2070F440          ORR       A1, A1, #983040       ; [DPU_V7M3_PIPE] |328|  ; [KEEP 32-BIT INS]
     956 00000124 9002              STR       A1, [SP, #8]          ; [DPU_V7M3_PIPE] |328|  ; [ORIG 16-BIT INS]
     957                            .dwpsn  file "../driverlib/adc.c",line 329,column 13,is_stmt,isa 1
     958                    ;----------------------------------------------------------------------
     959                    ; 329 | ui32Temp &= ~(0x10000 << ui32SequenceNum);                             
     960                    ; 333 | //                                                                     
     961                    ; 334 | // Return the interrupt status                                         
     962                    ; 335 | //                                                                     
     963                    ;----------------------------------------------------------------------
     964 00000126 9A01              LDR       A3, [SP, #4]          ; [DPU_V7M3_PIPE] |329|  ; [ORIG 16-BIT INS]
     965 00000128 9902              LDR       A2, [SP, #8]          ; [DPU_V7M3_PIPE] |329|  ; [ORIG 16-BIT INS]
     966 0000012a 3080F44F          MOV       A1, #65536            ; [DPU_V7M3_PIPE] |329|  ; [KEEP 32-BIT INS]
     967 0000012e 4090              LSLS      A1, A1, A3            ; [DPU_V7M3_PIPE] |329|  ; [ORIG 16-BIT INS]
     968 00000130 4381              BICS      A2, A2, A1            ; [DPU_V7M3_PIPE] |329|  ; [ORIG 16-BIT INS]
     969 00000132 9102              STR       A2, [SP, #8]          ; [DPU_V7M3_PIPE] |329|  ; [ORIG 16-BIT INS]
     970                    ;* --------------------------------------------------------------------------*
     971 00000134           ||$C$L9||:    
     972                            .dwpsn  file "../driverlib/adc.c",line 336,column 5,is_stmt,isa 1
     973                    ;----------------------------------------------------------------------
     974                    ; 336 | return(ui32Temp);                                                      
     975                    ;----------------------------------------------------------------------
     976 00000134 9802              LDR       A1, [SP, #8]          ; [DPU_V7M3_PIPE] |336|  ; [ORIG 16-BIT INS]
     977                            .dwpsn  file "../driverlib/adc.c",line 337,column 1,is_stmt,isa 1
     978 00000136 B004              ADD       SP, SP, #16           ; [DPU_V7M3_PIPE]  ; [ORIG 16-BIT INS]
     979                            .dwcfi  cfa_offset, 0
     980                    $C$DW$60        .dwtag  DW_TAG_TI_branch
     981                            .dwattr $C$DW$60, DW_AT_low_pc(0x00)
     982                            .dwattr $C$DW$60, DW_AT_TI_return
     983                    
     984 00000138 4770              BX        LR                    ; [DPU_V7M3_PIPE]  ; [ORIG 16-BIT INS]
     985                            ; BRANCH OCCURS                  ; [] 
     986                            .dwattr $C$DW$52, DW_AT_TI_end_file("../driverlib/adc.c")
     987                            .dwattr $C$DW$52, DW_AT_TI_end_line(0x151)
     988                            .dwattr $C$DW$52, DW_AT_TI_end_column(0x01)
     989                            .dwendentry
     990                            .dwendtag $C$DW$52
TI ARM Assembler Unix v18.1.1 Fri Jul  3 20:08:23 2020

Tools Copyright (c) 1996-2017 Texas Instruments Incorporated
adc.asm                                                              PAGE   19

     991                    
     992 0000013a                   .sect   ".text"
     993                            .clink
     994                            .thumbfunc ADCIntClear
     995 0000013a                   .thumb
     996                            .global ADCIntClear
     997                    
     998                    $C$DW$61        .dwtag  DW_TAG_subprogram
     999                            .dwattr $C$DW$61, DW_AT_name("ADCIntClear")
    1000                            .dwattr $C$DW$61, DW_AT_low_pc(ADCIntClear)
    1001                            .dwattr $C$DW$61, DW_AT_high_pc(0x00)
    1002                            .dwattr $C$DW$61, DW_AT_TI_symbol_name("ADCIntClear")
    1003                            .dwattr $C$DW$61, DW_AT_external
    1004                            .dwattr $C$DW$61, DW_AT_TI_begin_file("../driverlib/adc.c")
    1005                            .dwattr $C$DW$61, DW_AT_TI_begin_line(0x16b)
    1006                            .dwattr $C$DW$61, DW_AT_TI_begin_column(0x01)
    1007                            .dwattr $C$DW$61, DW_AT_decl_file("../driverlib/adc.c")
    1008                            .dwattr $C$DW$61, DW_AT_decl_line(0x16b)
    1009                            .dwattr $C$DW$61, DW_AT_decl_column(0x01)
    1010                            .dwattr $C$DW$61, DW_AT_TI_max_frame_size(0x08)
    1011                            .dwpsn  file "../driverlib/adc.c",line 364,column 1,is_stmt,address ADCIntClear,isa 1
    1012                    
    1013                            .dwfde $C$DW$CIE, ADCIntClear
    1014                    $C$DW$62        .dwtag  DW_TAG_formal_parameter
    1015                            .dwattr $C$DW$62, DW_AT_name("ui32Base")
    1016                            .dwattr $C$DW$62, DW_AT_TI_symbol_name("ui32Base")
    1017                            .dwattr $C$DW$62, DW_AT_type(*$C$DW$T$27)
    1018                            .dwattr $C$DW$62, DW_AT_location[DW_OP_reg0]
    1019                    
    1020                    $C$DW$63        .dwtag  DW_TAG_formal_parameter
    1021                            .dwattr $C$DW$63, DW_AT_name("ui32SequenceNum")
    1022                            .dwattr $C$DW$63, DW_AT_TI_symbol_name("ui32SequenceNum")
    1023                            .dwattr $C$DW$63, DW_AT_type(*$C$DW$T$27)
    1024                            .dwattr $C$DW$63, DW_AT_location[DW_OP_reg1]
    1025                    
    1026                    ;----------------------------------------------------------------------
    1027                    ; 363 | ADCIntClear(uint32_t ui32Base, uint32_t ui32SequenceNum)               
    1028                    ;----------------------------------------------------------------------
    1029                    
    1030                    ;*****************************************************************************
    1031                    ;* FUNCTION NAME: ADCIntClear                                                *
    1032                    ;*                                                                           *
    1033                    ;*   Regs Modified     : A1,A2,A3,SP,SR                                      *
    1034                    ;*   Regs Used         : A1,A2,A3,SP,LR,SR                                   *
    1035                    ;*   Local Frame Size  : 0 Args + 8 Auto + 0 Save = 8 byte                   *
    1036                    ;*****************************************************************************
    1037 0000013a           ADCIntClear:
    1038                    ;* --------------------------------------------------------------------------*
    1039                            .dwcfi  cfa_offset, 0
    1040 0000013a 0D08F1AD          SUB       SP, SP, #8            ; [DPU_V7M3_PIPE]  ; [KEEP 32-BIT INS]
    1041                            .dwcfi  cfa_offset, 8
    1042                    $C$DW$64        .dwtag  DW_TAG_variable
    1043                            .dwattr $C$DW$64, DW_AT_name("ui32Base")
    1044                            .dwattr $C$DW$64, DW_AT_TI_symbol_name("ui32Base")
    1045                            .dwattr $C$DW$64, DW_AT_type(*$C$DW$T$27)
TI ARM Assembler Unix v18.1.1 Fri Jul  3 20:08:23 2020

Tools Copyright (c) 1996-2017 Texas Instruments Incorporated
adc.asm                                                              PAGE   20

    1046                            .dwattr $C$DW$64, DW_AT_location[DW_OP_breg13 0]
    1047                    
    1048                    $C$DW$65        .dwtag  DW_TAG_variable
    1049                            .dwattr $C$DW$65, DW_AT_name("ui32SequenceNum")
    1050                            .dwattr $C$DW$65, DW_AT_TI_symbol_name("ui32SequenceNum")
    1051                            .dwattr $C$DW$65, DW_AT_type(*$C$DW$T$27)
    1052                            .dwattr $C$DW$65, DW_AT_location[DW_OP_breg13 4]
    1053                    
    1054                    ;----------------------------------------------------------------------
    1055                    ; 365 | //                                                                     
    1056                    ; 366 | // Check the arguments.                                                
    1057                    ; 367 | //                                                                     
    1058                    ; 368 | ASSERT((ui32Base == ADC0_BASE) || (ui32Base == ADC1_BASE));            
    1059                    ; 369 | ASSERT(ui32SequenceNum < 4);                                           
    1060                    ; 371 | //                                                                     
    1061                    ; 372 | // Clear the interrupt.                                                
    1062                    ; 373 | //                                                                     
    1063                    ;----------------------------------------------------------------------
    1064 0000013e 9101              STR       A2, [SP, #4]          ; [DPU_V7M3_PIPE] |364|  ; [ORIG 16-BIT INS]
    1065 00000140 9000              STR       A1, [SP, #0]          ; [DPU_V7M3_PIPE] |364|  ; [ORIG 16-BIT INS]
    1066                            .dwpsn  file "../driverlib/adc.c",line 374,column 5,is_stmt,isa 1
    1067                    ;----------------------------------------------------------------------
    1068                    ; 374 | HWREG(ui32Base + ADC_O_ISC) = 1 << ui32SequenceNum;                    
    1069                    ;----------------------------------------------------------------------
    1070 00000142 9A01              LDR       A3, [SP, #4]          ; [DPU_V7M3_PIPE] |374|  ; [ORIG 16-BIT INS]
    1071 00000144 9900              LDR       A2, [SP, #0]          ; [DPU_V7M3_PIPE] |374|  ; [ORIG 16-BIT INS]
    1072 00000146 2001              MOVS      A1, #1                ; [DPU_V7M3_PIPE] |374|  ; [ORIG 16-BIT INS]
    1073 00000148 4090              LSLS      A1, A1, A3            ; [DPU_V7M3_PIPE] |374|  ; [ORIG 16-BIT INS]
    1074 0000014a 60C8              STR       A1, [A2, #12]         ; [DPU_V7M3_PIPE] |374|  ; [ORIG 16-BIT INS]
    1075                            .dwpsn  file "../driverlib/adc.c",line 375,column 1,is_stmt,isa 1
    1076 0000014c B002              ADD       SP, SP, #8            ; [DPU_V7M3_PIPE]  ; [ORIG 16-BIT INS]
    1077                            .dwcfi  cfa_offset, 0
    1078                    $C$DW$66        .dwtag  DW_TAG_TI_branch
    1079                            .dwattr $C$DW$66, DW_AT_low_pc(0x00)
    1080                            .dwattr $C$DW$66, DW_AT_TI_return
    1081                    
    1082 0000014e 4770              BX        LR                    ; [DPU_V7M3_PIPE]  ; [ORIG 16-BIT INS]
    1083                            ; BRANCH OCCURS                  ; [] 
    1084                            .dwattr $C$DW$61, DW_AT_TI_end_file("../driverlib/adc.c")
    1085                            .dwattr $C$DW$61, DW_AT_TI_end_line(0x177)
    1086                            .dwattr $C$DW$61, DW_AT_TI_end_column(0x01)
    1087                            .dwendentry
    1088                            .dwendtag $C$DW$61
    1089                    
    1090 00000150                   .sect   ".text"
    1091                            .clink
    1092                            .thumbfunc ADCSequenceEnable
    1093 00000150                   .thumb
    1094                            .global ADCSequenceEnable
    1095                    
    1096                    $C$DW$67        .dwtag  DW_TAG_subprogram
    1097                            .dwattr $C$DW$67, DW_AT_name("ADCSequenceEnable")
    1098                            .dwattr $C$DW$67, DW_AT_low_pc(ADCSequenceEnable)
    1099                            .dwattr $C$DW$67, DW_AT_high_pc(0x00)
    1100                            .dwattr $C$DW$67, DW_AT_TI_symbol_name("ADCSequenceEnable")
TI ARM Assembler Unix v18.1.1 Fri Jul  3 20:08:23 2020

Tools Copyright (c) 1996-2017 Texas Instruments Incorporated
adc.asm                                                              PAGE   21

    1101                            .dwattr $C$DW$67, DW_AT_external
    1102                            .dwattr $C$DW$67, DW_AT_TI_begin_file("../driverlib/adc.c")
    1103                            .dwattr $C$DW$67, DW_AT_TI_begin_line(0x187)
    1104                            .dwattr $C$DW$67, DW_AT_TI_begin_column(0x01)
    1105                            .dwattr $C$DW$67, DW_AT_decl_file("../driverlib/adc.c")
    1106                            .dwattr $C$DW$67, DW_AT_decl_line(0x187)
    1107                            .dwattr $C$DW$67, DW_AT_decl_column(0x01)
    1108                            .dwattr $C$DW$67, DW_AT_TI_max_frame_size(0x08)
    1109                            .dwpsn  file "../driverlib/adc.c",line 392,column 1,is_stmt,address ADCSequenceEnable,isa 1
    1110                    
    1111                            .dwfde $C$DW$CIE, ADCSequenceEnable
    1112                    $C$DW$68        .dwtag  DW_TAG_formal_parameter
    1113                            .dwattr $C$DW$68, DW_AT_name("ui32Base")
    1114                            .dwattr $C$DW$68, DW_AT_TI_symbol_name("ui32Base")
    1115                            .dwattr $C$DW$68, DW_AT_type(*$C$DW$T$27)
    1116                            .dwattr $C$DW$68, DW_AT_location[DW_OP_reg0]
    1117                    
    1118                    $C$DW$69        .dwtag  DW_TAG_formal_parameter
    1119                            .dwattr $C$DW$69, DW_AT_name("ui32SequenceNum")
    1120                            .dwattr $C$DW$69, DW_AT_TI_symbol_name("ui32SequenceNum")
    1121                            .dwattr $C$DW$69, DW_AT_type(*$C$DW$T$27)
    1122                            .dwattr $C$DW$69, DW_AT_location[DW_OP_reg1]
    1123                    
    1124                    ;----------------------------------------------------------------------
    1125                    ; 391 | ADCSequenceEnable(uint32_t ui32Base, uint32_t ui32SequenceNum)         
    1126                    ;----------------------------------------------------------------------
    1127                    
    1128                    ;*****************************************************************************
    1129                    ;* FUNCTION NAME: ADCSequenceEnable                                          *
    1130                    ;*                                                                           *
    1131                    ;*   Regs Modified     : A1,A2,A3,A4,SP,SR                                   *
    1132                    ;*   Regs Used         : A1,A2,A3,A4,SP,LR,SR                                *
    1133                    ;*   Local Frame Size  : 0 Args + 8 Auto + 0 Save = 8 byte                   *
    1134                    ;*****************************************************************************
    1135 00000150           ADCSequenceEnable:
    1136                    ;* --------------------------------------------------------------------------*
    1137                            .dwcfi  cfa_offset, 0
    1138 00000150 0D08F1AD          SUB       SP, SP, #8            ; [DPU_V7M3_PIPE]  ; [KEEP 32-BIT INS]
    1139                            .dwcfi  cfa_offset, 8
    1140                    $C$DW$70        .dwtag  DW_TAG_variable
    1141                            .dwattr $C$DW$70, DW_AT_name("ui32Base")
    1142                            .dwattr $C$DW$70, DW_AT_TI_symbol_name("ui32Base")
    1143                            .dwattr $C$DW$70, DW_AT_type(*$C$DW$T$27)
    1144                            .dwattr $C$DW$70, DW_AT_location[DW_OP_breg13 0]
    1145                    
    1146                    $C$DW$71        .dwtag  DW_TAG_variable
    1147                            .dwattr $C$DW$71, DW_AT_name("ui32SequenceNum")
    1148                            .dwattr $C$DW$71, DW_AT_TI_symbol_name("ui32SequenceNum")
    1149                            .dwattr $C$DW$71, DW_AT_type(*$C$DW$T$27)
    1150                            .dwattr $C$DW$71, DW_AT_location[DW_OP_breg13 4]
    1151                    
    1152                    ;----------------------------------------------------------------------
    1153                    ; 393 | //                                                                     
    1154                    ; 394 | // Check the arguments.                                                
    1155                    ; 395 | //                                                                     
TI ARM Assembler Unix v18.1.1 Fri Jul  3 20:08:23 2020

Tools Copyright (c) 1996-2017 Texas Instruments Incorporated
adc.asm                                                              PAGE   22

    1156                    ; 396 | ASSERT((ui32Base == ADC0_BASE) || (ui32Base == ADC1_BASE));            
    1157                    ; 397 | ASSERT(ui32SequenceNum < 4);                                           
    1158                    ; 399 | //                                                                     
    1159                    ; 400 | // Enable the specified sequence.                                      
    1160                    ; 401 | //                                                                     
    1161                    ;----------------------------------------------------------------------
    1162 00000154 9101              STR       A2, [SP, #4]          ; [DPU_V7M3_PIPE] |392|  ; [ORIG 16-BIT INS]
    1163 00000156 9000              STR       A1, [SP, #0]          ; [DPU_V7M3_PIPE] |392|  ; [ORIG 16-BIT INS]
    1164                            .dwpsn  file "../driverlib/adc.c",line 402,column 5,is_stmt,isa 1
    1165                    ;----------------------------------------------------------------------
    1166                    ; 402 | HWREG(ui32Base + ADC_O_ACTSS) |= 1 << ui32SequenceNum;                 
    1167                    ;----------------------------------------------------------------------
    1168 00000158 9900              LDR       A2, [SP, #0]          ; [DPU_V7M3_PIPE] |402|  ; [ORIG 16-BIT INS]
    1169 0000015a 9B01              LDR       A4, [SP, #4]          ; [DPU_V7M3_PIPE] |402|  ; [ORIG 16-BIT INS]
    1170 0000015c 680A              LDR       A3, [A2, #0]          ; [DPU_V7M3_PIPE] |402|  ; [ORIG 16-BIT INS]
    1171 0000015e 2001              MOVS      A1, #1                ; [DPU_V7M3_PIPE] |402|  ; [ORIG 16-BIT INS]
    1172 00000160 4098              LSLS      A1, A1, A4            ; [DPU_V7M3_PIPE] |402|  ; [ORIG 16-BIT INS]
    1173 00000162 4310              ORRS      A1, A1, A3            ; [DPU_V7M3_PIPE] |402|  ; [ORIG 16-BIT INS]
    1174 00000164 6008              STR       A1, [A2, #0]          ; [DPU_V7M3_PIPE] |402|  ; [ORIG 16-BIT INS]
    1175                            .dwpsn  file "../driverlib/adc.c",line 403,column 1,is_stmt,isa 1
    1176 00000166 B002              ADD       SP, SP, #8            ; [DPU_V7M3_PIPE]  ; [ORIG 16-BIT INS]
    1177                            .dwcfi  cfa_offset, 0
    1178                    $C$DW$72        .dwtag  DW_TAG_TI_branch
    1179                            .dwattr $C$DW$72, DW_AT_low_pc(0x00)
    1180                            .dwattr $C$DW$72, DW_AT_TI_return
    1181                    
    1182 00000168 4770              BX        LR                    ; [DPU_V7M3_PIPE]  ; [ORIG 16-BIT INS]
    1183                            ; BRANCH OCCURS                  ; [] 
    1184                            .dwattr $C$DW$67, DW_AT_TI_end_file("../driverlib/adc.c")
    1185                            .dwattr $C$DW$67, DW_AT_TI_end_line(0x193)
    1186                            .dwattr $C$DW$67, DW_AT_TI_end_column(0x01)
    1187                            .dwendentry
    1188                            .dwendtag $C$DW$67
    1189                    
    1190 0000016a                   .sect   ".text"
    1191                            .clink
    1192                            .thumbfunc ADCSequenceDisable
    1193 0000016a                   .thumb
    1194                            .global ADCSequenceDisable
    1195                    
    1196                    $C$DW$73        .dwtag  DW_TAG_subprogram
    1197                            .dwattr $C$DW$73, DW_AT_name("ADCSequenceDisable")
    1198                            .dwattr $C$DW$73, DW_AT_low_pc(ADCSequenceDisable)
    1199                            .dwattr $C$DW$73, DW_AT_high_pc(0x00)
    1200                            .dwattr $C$DW$73, DW_AT_TI_symbol_name("ADCSequenceDisable")
    1201                            .dwattr $C$DW$73, DW_AT_external
    1202                            .dwattr $C$DW$73, DW_AT_TI_begin_file("../driverlib/adc.c")
    1203                            .dwattr $C$DW$73, DW_AT_TI_begin_line(0x1a3)
    1204                            .dwattr $C$DW$73, DW_AT_TI_begin_column(0x01)
    1205                            .dwattr $C$DW$73, DW_AT_decl_file("../driverlib/adc.c")
    1206                            .dwattr $C$DW$73, DW_AT_decl_line(0x1a3)
    1207                            .dwattr $C$DW$73, DW_AT_decl_column(0x01)
    1208                            .dwattr $C$DW$73, DW_AT_TI_max_frame_size(0x08)
    1209                            .dwpsn  file "../driverlib/adc.c",line 420,column 1,is_stmt,address ADCSequenceDisable,isa 1
    1210                    
TI ARM Assembler Unix v18.1.1 Fri Jul  3 20:08:23 2020

Tools Copyright (c) 1996-2017 Texas Instruments Incorporated
adc.asm                                                              PAGE   23

    1211                            .dwfde $C$DW$CIE, ADCSequenceDisable
    1212                    $C$DW$74        .dwtag  DW_TAG_formal_parameter
    1213                            .dwattr $C$DW$74, DW_AT_name("ui32Base")
    1214                            .dwattr $C$DW$74, DW_AT_TI_symbol_name("ui32Base")
    1215                            .dwattr $C$DW$74, DW_AT_type(*$C$DW$T$27)
    1216                            .dwattr $C$DW$74, DW_AT_location[DW_OP_reg0]
    1217                    
    1218                    $C$DW$75        .dwtag  DW_TAG_formal_parameter
    1219                            .dwattr $C$DW$75, DW_AT_name("ui32SequenceNum")
    1220                            .dwattr $C$DW$75, DW_AT_TI_symbol_name("ui32SequenceNum")
    1221                            .dwattr $C$DW$75, DW_AT_type(*$C$DW$T$27)
    1222                            .dwattr $C$DW$75, DW_AT_location[DW_OP_reg1]
    1223                    
    1224                    ;----------------------------------------------------------------------
    1225                    ; 419 | ADCSequenceDisable(uint32_t ui32Base, uint32_t ui32SequenceNum)        
    1226                    ;----------------------------------------------------------------------
    1227                    
    1228                    ;*****************************************************************************
    1229                    ;* FUNCTION NAME: ADCSequenceDisable                                         *
    1230                    ;*                                                                           *
    1231                    ;*   Regs Modified     : A1,A2,A3,A4,SP,SR                                   *
    1232                    ;*   Regs Used         : A1,A2,A3,A4,SP,LR,SR                                *
    1233                    ;*   Local Frame Size  : 0 Args + 8 Auto + 0 Save = 8 byte                   *
    1234                    ;*****************************************************************************
    1235 0000016a           ADCSequenceDisable:
    1236                    ;* --------------------------------------------------------------------------*
    1237                            .dwcfi  cfa_offset, 0
    1238 0000016a 0D08F1AD          SUB       SP, SP, #8            ; [DPU_V7M3_PIPE]  ; [KEEP 32-BIT INS]
    1239                            .dwcfi  cfa_offset, 8
    1240                    $C$DW$76        .dwtag  DW_TAG_variable
    1241                            .dwattr $C$DW$76, DW_AT_name("ui32Base")
    1242                            .dwattr $C$DW$76, DW_AT_TI_symbol_name("ui32Base")
    1243                            .dwattr $C$DW$76, DW_AT_type(*$C$DW$T$27)
    1244                            .dwattr $C$DW$76, DW_AT_location[DW_OP_breg13 0]
    1245                    
    1246                    $C$DW$77        .dwtag  DW_TAG_variable
    1247                            .dwattr $C$DW$77, DW_AT_name("ui32SequenceNum")
    1248                            .dwattr $C$DW$77, DW_AT_TI_symbol_name("ui32SequenceNum")
    1249                            .dwattr $C$DW$77, DW_AT_type(*$C$DW$T$27)
    1250                            .dwattr $C$DW$77, DW_AT_location[DW_OP_breg13 4]
    1251                    
    1252                    ;----------------------------------------------------------------------
    1253                    ; 421 | //                                                                     
    1254                    ; 422 | // Check the arguments.                                                
    1255                    ; 423 | //                                                                     
    1256                    ; 424 | ASSERT((ui32Base == ADC0_BASE) || (ui32Base == ADC1_BASE));            
    1257                    ; 425 | ASSERT(ui32SequenceNum < 4);                                           
    1258                    ; 427 | //                                                                     
    1259                    ; 428 | // Disable the specified sequences.                                    
    1260                    ; 429 | //                                                                     
    1261                    ;----------------------------------------------------------------------
    1262 0000016e 9101              STR       A2, [SP, #4]          ; [DPU_V7M3_PIPE] |420|  ; [ORIG 16-BIT INS]
    1263 00000170 9000              STR       A1, [SP, #0]          ; [DPU_V7M3_PIPE] |420|  ; [ORIG 16-BIT INS]
    1264                            .dwpsn  file "../driverlib/adc.c",line 430,column 5,is_stmt,isa 1
    1265                    ;----------------------------------------------------------------------
TI ARM Assembler Unix v18.1.1 Fri Jul  3 20:08:23 2020

Tools Copyright (c) 1996-2017 Texas Instruments Incorporated
adc.asm                                                              PAGE   24

    1266                    ; 430 | HWREG(ui32Base + ADC_O_ACTSS) &= ~(1 << ui32SequenceNum);              
    1267                    ;----------------------------------------------------------------------
    1268 00000172 9A00              LDR       A3, [SP, #0]          ; [DPU_V7M3_PIPE] |430|  ; [ORIG 16-BIT INS]
    1269 00000174 9B01              LDR       A4, [SP, #4]          ; [DPU_V7M3_PIPE] |430|  ; [ORIG 16-BIT INS]
    1270 00000176 6811              LDR       A2, [A3, #0]          ; [DPU_V7M3_PIPE] |430|  ; [ORIG 16-BIT INS]
    1271 00000178 2001              MOVS      A1, #1                ; [DPU_V7M3_PIPE] |430|  ; [ORIG 16-BIT INS]
    1272 0000017a 4098              LSLS      A1, A1, A4            ; [DPU_V7M3_PIPE] |430|  ; [ORIG 16-BIT INS]
    1273 0000017c 4381              BICS      A2, A2, A1            ; [DPU_V7M3_PIPE] |430|  ; [ORIG 16-BIT INS]
    1274 0000017e 6011              STR       A2, [A3, #0]          ; [DPU_V7M3_PIPE] |430|  ; [ORIG 16-BIT INS]
    1275                            .dwpsn  file "../driverlib/adc.c",line 431,column 1,is_stmt,isa 1
    1276 00000180 B002              ADD       SP, SP, #8            ; [DPU_V7M3_PIPE]  ; [ORIG 16-BIT INS]
    1277                            .dwcfi  cfa_offset, 0
    1278                    $C$DW$78        .dwtag  DW_TAG_TI_branch
    1279                            .dwattr $C$DW$78, DW_AT_low_pc(0x00)
    1280                            .dwattr $C$DW$78, DW_AT_TI_return
    1281                    
    1282 00000182 4770              BX        LR                    ; [DPU_V7M3_PIPE]  ; [ORIG 16-BIT INS]
    1283                            ; BRANCH OCCURS                  ; [] 
    1284                            .dwattr $C$DW$73, DW_AT_TI_end_file("../driverlib/adc.c")
    1285                            .dwattr $C$DW$73, DW_AT_TI_end_line(0x1af)
    1286                            .dwattr $C$DW$73, DW_AT_TI_end_column(0x01)
    1287                            .dwendentry
    1288                            .dwendtag $C$DW$73
    1289                    
    1290 00000184                   .sect   ".text"
    1291                            .clink
    1292                            .thumbfunc ADCSequenceConfigure
    1293 00000184                   .thumb
    1294                            .global ADCSequenceConfigure
    1295                    
    1296                    $C$DW$79        .dwtag  DW_TAG_subprogram
    1297                            .dwattr $C$DW$79, DW_AT_name("ADCSequenceConfigure")
    1298                            .dwattr $C$DW$79, DW_AT_low_pc(ADCSequenceConfigure)
    1299                            .dwattr $C$DW$79, DW_AT_high_pc(0x00)
    1300                            .dwattr $C$DW$79, DW_AT_TI_symbol_name("ADCSequenceConfigure")
    1301                            .dwattr $C$DW$79, DW_AT_external
    1302                            .dwattr $C$DW$79, DW_AT_TI_begin_file("../driverlib/adc.c")
    1303                            .dwattr $C$DW$79, DW_AT_TI_begin_line(0x1f6)
    1304                            .dwattr $C$DW$79, DW_AT_TI_begin_column(0x01)
    1305                            .dwattr $C$DW$79, DW_AT_decl_file("../driverlib/adc.c")
    1306                            .dwattr $C$DW$79, DW_AT_decl_line(0x1f6)
    1307                            .dwattr $C$DW$79, DW_AT_decl_column(0x01)
    1308                            .dwattr $C$DW$79, DW_AT_TI_max_frame_size(0x20)
    1309                            .dwpsn  file "../driverlib/adc.c",line 504,column 1,is_stmt,address ADCSequenceConfigure,isa 1
    1310                    
    1311                            .dwfde $C$DW$CIE, ADCSequenceConfigure
    1312                    $C$DW$80        .dwtag  DW_TAG_formal_parameter
    1313                            .dwattr $C$DW$80, DW_AT_name("ui32Base")
    1314                            .dwattr $C$DW$80, DW_AT_TI_symbol_name("ui32Base")
    1315                            .dwattr $C$DW$80, DW_AT_type(*$C$DW$T$27)
    1316                            .dwattr $C$DW$80, DW_AT_location[DW_OP_reg0]
    1317                    
    1318                    $C$DW$81        .dwtag  DW_TAG_formal_parameter
    1319                            .dwattr $C$DW$81, DW_AT_name("ui32SequenceNum")
    1320                            .dwattr $C$DW$81, DW_AT_TI_symbol_name("ui32SequenceNum")
TI ARM Assembler Unix v18.1.1 Fri Jul  3 20:08:23 2020

Tools Copyright (c) 1996-2017 Texas Instruments Incorporated
adc.asm                                                              PAGE   25

    1321                            .dwattr $C$DW$81, DW_AT_type(*$C$DW$T$27)
    1322                            .dwattr $C$DW$81, DW_AT_location[DW_OP_reg1]
    1323                    
    1324                    $C$DW$82        .dwtag  DW_TAG_formal_parameter
    1325                            .dwattr $C$DW$82, DW_AT_name("ui32Trigger")
    1326                            .dwattr $C$DW$82, DW_AT_TI_symbol_name("ui32Trigger")
    1327                            .dwattr $C$DW$82, DW_AT_type(*$C$DW$T$27)
    1328                            .dwattr $C$DW$82, DW_AT_location[DW_OP_reg2]
    1329                    
    1330                    $C$DW$83        .dwtag  DW_TAG_formal_parameter
    1331                            .dwattr $C$DW$83, DW_AT_name("ui32Priority")
    1332                            .dwattr $C$DW$83, DW_AT_TI_symbol_name("ui32Priority")
    1333                            .dwattr $C$DW$83, DW_AT_type(*$C$DW$T$27)
    1334                            .dwattr $C$DW$83, DW_AT_location[DW_OP_reg3]
    1335                    
    1336                    ;----------------------------------------------------------------------
    1337                    ; 502 | ADCSequenceConfigure(uint32_t ui32Base, uint32_t ui32SequenceNum,      
    1338                    ; 503 | uint32_t ui32Trigger, uint32_t ui32Priority)                           
    1339                    ;----------------------------------------------------------------------
    1340                    
    1341                    ;*****************************************************************************
    1342                    ;* FUNCTION NAME: ADCSequenceConfigure                                       *
    1343                    ;*                                                                           *
    1344                    ;*   Regs Modified     : A1,A2,A3,A4,V1,V2,SP,SR                             *
    1345                    ;*   Regs Used         : A1,A2,A3,A4,V1,V2,SP,LR,SR                          *
    1346                    ;*   Local Frame Size  : 0 Args + 20 Auto + 12 Save = 32 byte                *
    1347                    ;*****************************************************************************
    1348 00000184           ADCSequenceConfigure:
    1349                    ;* --------------------------------------------------------------------------*
    1350                            .dwcfi  cfa_offset, 0
    1351 00000184 B530              PUSH      {V1, V2, LR}          ; [DPU_V7M3_PIPE]  ; [ORIG 16-BIT INS]
    1352                            .dwcfi  cfa_offset, 12
    1353                            .dwcfi  save_reg_to_mem, 14, -4
    1354                            .dwcfi  save_reg_to_mem, 5, -8
    1355                            .dwcfi  save_reg_to_mem, 4, -12
    1356 00000186 0D14F1AD          SUB       SP, SP, #20           ; [DPU_V7M3_PIPE]  ; [KEEP 32-BIT INS]
    1357                            .dwcfi  cfa_offset, 32
    1358                    $C$DW$84        .dwtag  DW_TAG_variable
    1359                            .dwattr $C$DW$84, DW_AT_name("ui32Base")
    1360                            .dwattr $C$DW$84, DW_AT_TI_symbol_name("ui32Base")
    1361                            .dwattr $C$DW$84, DW_AT_type(*$C$DW$T$27)
    1362                            .dwattr $C$DW$84, DW_AT_location[DW_OP_breg13 0]
    1363                    
    1364                    $C$DW$85        .dwtag  DW_TAG_variable
    1365                            .dwattr $C$DW$85, DW_AT_name("ui32SequenceNum")
    1366                            .dwattr $C$DW$85, DW_AT_TI_symbol_name("ui32SequenceNum")
    1367                            .dwattr $C$DW$85, DW_AT_type(*$C$DW$T$27)
    1368                            .dwattr $C$DW$85, DW_AT_location[DW_OP_breg13 4]
    1369                    
    1370                    $C$DW$86        .dwtag  DW_TAG_variable
    1371                            .dwattr $C$DW$86, DW_AT_name("ui32Trigger")
    1372                            .dwattr $C$DW$86, DW_AT_TI_symbol_name("ui32Trigger")
    1373                            .dwattr $C$DW$86, DW_AT_type(*$C$DW$T$27)
    1374                            .dwattr $C$DW$86, DW_AT_location[DW_OP_breg13 8]
    1375                    
TI ARM Assembler Unix v18.1.1 Fri Jul  3 20:08:23 2020

Tools Copyright (c) 1996-2017 Texas Instruments Incorporated
adc.asm                                                              PAGE   26

    1376                    $C$DW$87        .dwtag  DW_TAG_variable
    1377                            .dwattr $C$DW$87, DW_AT_name("ui32Priority")
    1378                            .dwattr $C$DW$87, DW_AT_TI_symbol_name("ui32Priority")
    1379                            .dwattr $C$DW$87, DW_AT_type(*$C$DW$T$27)
    1380                            .dwattr $C$DW$87, DW_AT_location[DW_OP_breg13 12]
    1381                    
    1382                    $C$DW$88        .dwtag  DW_TAG_variable
    1383                            .dwattr $C$DW$88, DW_AT_name("ui32Gen")
    1384                            .dwattr $C$DW$88, DW_AT_TI_symbol_name("ui32Gen")
    1385                            .dwattr $C$DW$88, DW_AT_type(*$C$DW$T$27)
    1386                            .dwattr $C$DW$88, DW_AT_location[DW_OP_breg13 16]
    1387                    
    1388                    ;----------------------------------------------------------------------
    1389                    ; 505 | uint32_t ui32Gen;                                                      
    1390                    ; 507 | //                                                                     
    1391                    ; 508 | // Check the arugments.                                                
    1392                    ; 509 | //                                                                     
    1393                    ; 510 | ASSERT((ui32Base == ADC0_BASE) || (ui32Base == ADC1_BASE));            
    1394                    ; 511 | ASSERT(ui32SequenceNum < 4);                                           
    1395                    ; 512 | ASSERT(((ui32Trigger & 0xF) == ADC_TRIGGER_PROCESSOR) ||               
    1396                    ; 513 |        ((ui32Trigger & 0xF) == ADC_TRIGGER_COMP0) ||                   
    1397                    ; 514 |        ((ui32Trigger & 0xF) == ADC_TRIGGER_COMP1) ||                   
    1398                    ; 515 |        ((ui32Trigger & 0xF) == ADC_TRIGGER_COMP2) ||                   
    1399                    ; 516 |        ((ui32Trigger & 0xF) == ADC_TRIGGER_EXTERNAL) ||                
    1400                    ; 517 |        ((ui32Trigger & 0xF) == ADC_TRIGGER_TIMER) ||                   
    1401                    ; 518 |        ((ui32Trigger & 0xF) == ADC_TRIGGER_PWM0) ||                    
    1402                    ; 519 |        ((ui32Trigger & 0xF) == ADC_TRIGGER_PWM1) ||                    
    1403                    ; 520 |        ((ui32Trigger & 0xF) == ADC_TRIGGER_PWM2) ||                    
    1404                    ; 521 |        ((ui32Trigger & 0xF) == ADC_TRIGGER_PWM3) ||                    
    1405                    ; 522 |        ((ui32Trigger & 0xF) == ADC_TRIGGER_ALWAYS) ||                  
    1406                    ; 523 |        ((ui32Trigger & 0x30) == ADC_TRIGGER_PWM_MOD0) ||               
    1407                    ; 524 |        ((ui32Trigger & 0x30) == ADC_TRIGGER_PWM_MOD1));                
    1408                    ; 525 | ASSERT(ui32Priority < 4);                                              
    1409                    ; 527 | //                                                                     
    1410                    ; 528 | // Compute the shift for the bits that control this sample sequence.   
    1411                    ; 529 | //                                                                     
    1412                    ;----------------------------------------------------------------------
    1413 0000018a 9303              STR       A4, [SP, #12]         ; [DPU_V7M3_PIPE] |504|  ; [ORIG 16-BIT INS]
    1414 0000018c 9202              STR       A3, [SP, #8]          ; [DPU_V7M3_PIPE] |504|  ; [ORIG 16-BIT INS]
    1415 0000018e 9101              STR       A2, [SP, #4]          ; [DPU_V7M3_PIPE] |504|  ; [ORIG 16-BIT INS]
    1416 00000190 9000              STR       A1, [SP, #0]          ; [DPU_V7M3_PIPE] |504|  ; [ORIG 16-BIT INS]
    1417                            .dwpsn  file "../driverlib/adc.c",line 530,column 5,is_stmt,isa 1
    1418                    ;----------------------------------------------------------------------
    1419                    ; 530 | ui32SequenceNum *= 4;                                                  
    1420                    ; 532 | //                                                                     
    1421                    ; 533 | // Set the trigger event for this sample sequence.                     
    1422                    ; 534 | //                                                                     
    1423                    ;----------------------------------------------------------------------
    1424 00000192 9801              LDR       A1, [SP, #4]          ; [DPU_V7M3_PIPE] |530|  ; [ORIG 16-BIT INS]
    1425 00000194 0080              LSLS      A1, A1, #2            ; [DPU_V7M3_PIPE] |530|  ; [ORIG 16-BIT INS]
    1426 00000196 9001              STR       A1, [SP, #4]          ; [DPU_V7M3_PIPE] |530|  ; [ORIG 16-BIT INS]
    1427                            .dwpsn  file "../driverlib/adc.c",line 535,column 5,is_stmt,isa 1
    1428                    ;----------------------------------------------------------------------
    1429                    ; 535 | HWREG(ui32Base + ADC_O_EMUX) = ((HWREG(ui32Base + ADC_O_EMUX) &        
    1430                    ; 536 |                                  ~(0xf << ui32SequenceNum)) |          
TI ARM Assembler Unix v18.1.1 Fri Jul  3 20:08:23 2020

Tools Copyright (c) 1996-2017 Texas Instruments Incorporated
adc.asm                                                              PAGE   27

    1431                    ; 537 |                                 ((ui32Trigger & 0xf) << ui32SequenceNum
    1432                    ;     | ));                                                                    
    1433                    ; 539 | //                                                                     
    1434                    ; 540 | // Set the priority for this sample sequence.                          
    1435                    ; 541 | //                                                                     
    1436                    ;----------------------------------------------------------------------
    1437 00000198 9800              LDR       A1, [SP, #0]          ; [DPU_V7M3_PIPE] |535|  ; [ORIG 16-BIT INS]
    1438 0000019a 9A02              LDR       A3, [SP, #8]          ; [DPU_V7M3_PIPE] |535|  ; [ORIG 16-BIT INS]
    1439 0000019c 9C01              LDR       V1, [SP, #4]          ; [DPU_V7M3_PIPE] |535|  ; [ORIG 16-BIT INS]
    1440 0000019e 9D01              LDR       V2, [SP, #4]          ; [DPU_V7M3_PIPE] |535|  ; [ORIG 16-BIT INS]
    1441 000001a0 9B00              LDR       A4, [SP, #0]          ; [DPU_V7M3_PIPE] |535|  ; [ORIG 16-BIT INS]
    1442 000001a2 6941              LDR       A2, [A1, #20]         ; [DPU_V7M3_PIPE] |535|  ; [ORIG 16-BIT INS]
    1443 000001a4 020FF002          AND       A3, A3, #15           ; [DPU_V7M3_PIPE] |535|  ; [KEEP 32-BIT INS]
    1444 000001a8 40A2              LSLS      A3, A3, V1            ; [DPU_V7M3_PIPE] |535|  ; [ORIG 16-BIT INS]
    1445 000001aa 200F              MOVS      A1, #15               ; [DPU_V7M3_PIPE] |535|  ; [ORIG 16-BIT INS]
    1446 000001ac 40A8              LSLS      A1, A1, V2            ; [DPU_V7M3_PIPE] |535|  ; [ORIG 16-BIT INS]
    1447 000001ae 4381              BICS      A2, A2, A1            ; [DPU_V7M3_PIPE] |535|  ; [ORIG 16-BIT INS]
    1448 000001b0 430A              ORRS      A3, A3, A2            ; [DPU_V7M3_PIPE] |535|  ; [ORIG 16-BIT INS]
    1449 000001b2 615A              STR       A3, [A4, #20]         ; [DPU_V7M3_PIPE] |535|  ; [ORIG 16-BIT INS]
    1450                            .dwpsn  file "../driverlib/adc.c",line 542,column 5,is_stmt,isa 1
    1451                    ;----------------------------------------------------------------------
    1452                    ; 542 | HWREG(ui32Base + ADC_O_SSPRI) = ((HWREG(ui32Base + ADC_O_SSPRI) &      
    1453                    ; 543 |                                   ~(0xf << ui32SequenceNum)) |         
    1454                    ; 544 |                                  ((ui32Priority & 0x3) <<              
    1455                    ; 545 |                                   ui32SequenceNum));                   
    1456                    ; 547 | //                                                                     
    1457                    ; 548 | // Set the source PWM module for this sequence's PWM triggers.         
    1458                    ; 549 | //                                                                     
    1459                    ;----------------------------------------------------------------------
    1460 000001b4 9800              LDR       A1, [SP, #0]          ; [DPU_V7M3_PIPE] |542|  ; [ORIG 16-BIT INS]
    1461 000001b6 9A03              LDR       A3, [SP, #12]         ; [DPU_V7M3_PIPE] |542|  ; [ORIG 16-BIT INS]
    1462 000001b8 9C01              LDR       V1, [SP, #4]          ; [DPU_V7M3_PIPE] |542|  ; [ORIG 16-BIT INS]
    1463 000001ba 9D01              LDR       V2, [SP, #4]          ; [DPU_V7M3_PIPE] |542|  ; [ORIG 16-BIT INS]
    1464 000001bc 9B00              LDR       A4, [SP, #0]          ; [DPU_V7M3_PIPE] |542|  ; [ORIG 16-BIT INS]
    1465 000001be 6A01              LDR       A2, [A1, #32]         ; [DPU_V7M3_PIPE] |542|  ; [ORIG 16-BIT INS]
    1466 000001c0 0203F002          AND       A3, A3, #3            ; [DPU_V7M3_PIPE] |542|  ; [KEEP 32-BIT INS]
    1467 000001c4 40A2              LSLS      A3, A3, V1            ; [DPU_V7M3_PIPE] |542|  ; [ORIG 16-BIT INS]
    1468 000001c6 200F              MOVS      A1, #15               ; [DPU_V7M3_PIPE] |542|  ; [ORIG 16-BIT INS]
    1469 000001c8 40A8              LSLS      A1, A1, V2            ; [DPU_V7M3_PIPE] |542|  ; [ORIG 16-BIT INS]
    1470 000001ca 4381              BICS      A2, A2, A1            ; [DPU_V7M3_PIPE] |542|  ; [ORIG 16-BIT INS]
    1471 000001cc 430A              ORRS      A3, A3, A2            ; [DPU_V7M3_PIPE] |542|  ; [ORIG 16-BIT INS]
    1472 000001ce 621A              STR       A3, [A4, #32]         ; [DPU_V7M3_PIPE] |542|  ; [ORIG 16-BIT INS]
    1473                            .dwpsn  file "../driverlib/adc.c",line 550,column 5,is_stmt,isa 1
    1474                    ;----------------------------------------------------------------------
    1475                    ; 550 | ui32Gen = ui32Trigger & 0x0f;                                          
    1476                    ;----------------------------------------------------------------------
    1477 000001d0 9802              LDR       A1, [SP, #8]          ; [DPU_V7M3_PIPE] |550|  ; [ORIG 16-BIT INS]
    1478 000001d2 000FF000          AND       A1, A1, #15           ; [DPU_V7M3_PIPE] |550|  ; [KEEP 32-BIT INS]
    1479 000001d6 9004              STR       A1, [SP, #16]         ; [DPU_V7M3_PIPE] |550|  ; [ORIG 16-BIT INS]
    1480                            .dwpsn  file "../driverlib/adc.c",line 551,column 5,is_stmt,isa 1
    1481                    ;----------------------------------------------------------------------
    1482                    ; 551 | if(ui32Gen >= ADC_TRIGGER_PWM0 && ui32Gen <= ADC_TRIGGER_PWM3)         
    1483                    ; 553 |     //                                                                 
    1484                    ; 554 |     // Set the shift for the module and generator                      
    1485                    ; 555 |     //                                                                 
TI ARM Assembler Unix v18.1.1 Fri Jul  3 20:08:23 2020

Tools Copyright (c) 1996-2017 Texas Instruments Incorporated
adc.asm                                                              PAGE   28

    1486                    ;----------------------------------------------------------------------
    1487 000001d8 9804              LDR       A1, [SP, #16]         ; [DPU_V7M3_PIPE] |551|  ; [ORIG 16-BIT INS]
    1488 000001da 2806              CMP       A1, #6                ; [DPU_V7M3_PIPE] |551|  ; [ORIG 16-BIT INS]
    1489 000001dc D314              BCC       ||$C$L10||            ; [DPU_V7M3_PIPE] |551|  ; [ORIG 16-BIT INS]
    1490                            ; BRANCHCC OCCURS {||$C$L10||}   ; [] |551| 
    1491                    ;* --------------------------------------------------------------------------*
    1492 000001de 9804              LDR       A1, [SP, #16]         ; [DPU_V7M3_PIPE] |551|  ; [ORIG 16-BIT INS]
    1493 000001e0 2809              CMP       A1, #9                ; [DPU_V7M3_PIPE] |551|  ; [ORIG 16-BIT INS]
    1494 000001e2 D811              BHI       ||$C$L10||            ; [DPU_V7M3_PIPE] |551|  ; [ORIG 16-BIT INS]
    1495                            ; BRANCHCC OCCURS {||$C$L10||}   ; [] |551| 
    1496                    ;* --------------------------------------------------------------------------*
    1497                            .dwpsn  file "../driverlib/adc.c",line 556,column 9,is_stmt,isa 1
    1498                    ;----------------------------------------------------------------------
    1499                    ; 556 | ui32Gen = (ui32Gen - ADC_TRIGGER_PWM0) * 8;                            
    1500                    ;----------------------------------------------------------------------
    1501 000001e4 9804              LDR       A1, [SP, #16]         ; [DPU_V7M3_PIPE] |556|  ; [ORIG 16-BIT INS]
    1502 000001e6 1F80              SUBS      A1, A1, #6            ; [DPU_V7M3_PIPE] |556|  ; [ORIG 16-BIT INS]
    1503 000001e8 00C0              LSLS      A1, A1, #3            ; [DPU_V7M3_PIPE] |556|  ; [ORIG 16-BIT INS]
    1504 000001ea 9004              STR       A1, [SP, #16]         ; [DPU_V7M3_PIPE] |556|  ; [ORIG 16-BIT INS]
    1505                            .dwpsn  file "../driverlib/adc.c",line 558,column 9,is_stmt,isa 1
    1506                    ;----------------------------------------------------------------------
    1507                    ; 558 | HWREG(ui32Base + ADC_O_TSSEL) = ((HWREG(ui32Base + ADC_O_TSSEL) &      
    1508                    ; 559 |                                  ~(0x30 << ui32Gen)) |                 
    1509                    ; 560 |                                  ((ui32Trigger & 0x30) << ui32Gen));   
    1510                    ;----------------------------------------------------------------------
    1511 000001ec 9800              LDR       A1, [SP, #0]          ; [DPU_V7M3_PIPE] |558|  ; [ORIG 16-BIT INS]
    1512 000001ee 9A02              LDR       A3, [SP, #8]          ; [DPU_V7M3_PIPE] |558|  ; [ORIG 16-BIT INS]
    1513 000001f0 9C04              LDR       V1, [SP, #16]         ; [DPU_V7M3_PIPE] |558|  ; [ORIG 16-BIT INS]
    1514 000001f2 9D04              LDR       V2, [SP, #16]         ; [DPU_V7M3_PIPE] |558|  ; [ORIG 16-BIT INS]
    1515 000001f4 9B00              LDR       A4, [SP, #0]          ; [DPU_V7M3_PIPE] |558|  ; [ORIG 16-BIT INS]
    1516 000001f6 69C1              LDR       A2, [A1, #28]         ; [DPU_V7M3_PIPE] |558|  ; [ORIG 16-BIT INS]
    1517 000001f8 0230F002          AND       A3, A3, #48           ; [DPU_V7M3_PIPE] |558|  ; [KEEP 32-BIT INS]
    1518 000001fc 2030              MOVS      A1, #48               ; [DPU_V7M3_PIPE] |558|  ; [ORIG 16-BIT INS]
    1519 000001fe 40A2              LSLS      A3, A3, V1            ; [DPU_V7M3_PIPE] |558|  ; [ORIG 16-BIT INS]
    1520 00000200 40A8              LSLS      A1, A1, V2            ; [DPU_V7M3_PIPE] |558|  ; [ORIG 16-BIT INS]
    1521 00000202 4381              BICS      A2, A2, A1            ; [DPU_V7M3_PIPE] |558|  ; [ORIG 16-BIT INS]
    1522 00000204 430A              ORRS      A3, A3, A2            ; [DPU_V7M3_PIPE] |558|  ; [ORIG 16-BIT INS]
    1523 00000206 61DA              STR       A3, [A4, #28]         ; [DPU_V7M3_PIPE] |558|  ; [ORIG 16-BIT INS]
    1524                            .dwpsn  file "../driverlib/adc.c",line 562,column 1,is_stmt,isa 1
    1525                    ;* --------------------------------------------------------------------------*
    1526 00000208           ||$C$L10||:    
    1527 00000208 B005              ADD       SP, SP, #20           ; [DPU_V7M3_PIPE]  ; [ORIG 16-BIT INS]
    1528                            .dwcfi  cfa_offset, 12
    1529                    $C$DW$89        .dwtag  DW_TAG_TI_branch
    1530                            .dwattr $C$DW$89, DW_AT_low_pc(0x00)
    1531                            .dwattr $C$DW$89, DW_AT_TI_return
    1532                    
    1533 0000020a BD30              POP       {V1, V2, PC}          ; [DPU_V7M3_PIPE]  ; [ORIG 16-BIT INS]
    1534                            .dwcfi  cfa_offset, 0
    1535                            .dwcfi  restore_reg, 5
    1536                            .dwcfi  restore_reg, 4
    1537                            ; BRANCH OCCURS                  ; [] 
    1538                            .dwattr $C$DW$79, DW_AT_TI_end_file("../driverlib/adc.c")
    1539                            .dwattr $C$DW$79, DW_AT_TI_end_line(0x232)
    1540                            .dwattr $C$DW$79, DW_AT_TI_end_column(0x01)
TI ARM Assembler Unix v18.1.1 Fri Jul  3 20:08:23 2020

Tools Copyright (c) 1996-2017 Texas Instruments Incorporated
adc.asm                                                              PAGE   29

    1541                            .dwendentry
    1542                            .dwendtag $C$DW$79
    1543                    
    1544                    ;******************************************************************************
    1545                    ;* CONSTANT TABLE                                                             *
    1546                    ;******************************************************************************
    1547 0000020c                   .sect   ".text"
    1548                            .align  4
    1549 0000020c 70FF0000  ||$C$CON1||:    .bits   1895759872,32
    1550                            .align  4
    1551 00000210 400FE000  ||$C$CON2||:    .bits   1074782208,32
    1552                            .align  4
    1553 00000214 10050000  ||$C$CON3||:    .bits   268763136,32
    1554                            .align  4
    1555 00000218 40038000  ||$C$CON4||:    .bits   1073971200,32
    1556                            .align  4
    1557 0000021c 100A0000  ||$C$CON5||:    .bits   269090816,32
    1558 00000220                   .sect   ".text"
    1559                            .clink
    1560                            .thumbfunc ADCSequenceStepConfigure
    1561 00000220                   .thumb
    1562                            .global ADCSequenceStepConfigure
    1563                    
    1564                    $C$DW$90        .dwtag  DW_TAG_subprogram
    1565                            .dwattr $C$DW$90, DW_AT_name("ADCSequenceStepConfigure")
    1566                            .dwattr $C$DW$90, DW_AT_low_pc(ADCSequenceStepConfigure)
    1567                            .dwattr $C$DW$90, DW_AT_high_pc(0x00)
    1568                            .dwattr $C$DW$90, DW_AT_TI_symbol_name("ADCSequenceStepConfigure")
    1569                            .dwattr $C$DW$90, DW_AT_external
    1570                            .dwattr $C$DW$90, DW_AT_TI_begin_file("../driverlib/adc.c")
    1571                            .dwattr $C$DW$90, DW_AT_TI_begin_line(0x26b)
    1572                            .dwattr $C$DW$90, DW_AT_TI_begin_column(0x01)
    1573                            .dwattr $C$DW$90, DW_AT_decl_file("../driverlib/adc.c")
    1574                            .dwattr $C$DW$90, DW_AT_decl_line(0x26b)
    1575                            .dwattr $C$DW$90, DW_AT_decl_column(0x01)
    1576                            .dwattr $C$DW$90, DW_AT_TI_max_frame_size(0x20)
    1577                            .dwpsn  file "../driverlib/adc.c",line 621,column 1,is_stmt,address ADCSequenceStepConfigure,i
    1578                    
    1579                            .dwfde $C$DW$CIE, ADCSequenceStepConfigure
    1580                    $C$DW$91        .dwtag  DW_TAG_formal_parameter
    1581                            .dwattr $C$DW$91, DW_AT_name("ui32Base")
    1582                            .dwattr $C$DW$91, DW_AT_TI_symbol_name("ui32Base")
    1583                            .dwattr $C$DW$91, DW_AT_type(*$C$DW$T$27)
    1584                            .dwattr $C$DW$91, DW_AT_location[DW_OP_reg0]
    1585                    
    1586                    $C$DW$92        .dwtag  DW_TAG_formal_parameter
    1587                            .dwattr $C$DW$92, DW_AT_name("ui32SequenceNum")
    1588                            .dwattr $C$DW$92, DW_AT_TI_symbol_name("ui32SequenceNum")
    1589                            .dwattr $C$DW$92, DW_AT_type(*$C$DW$T$27)
    1590                            .dwattr $C$DW$92, DW_AT_location[DW_OP_reg1]
    1591                    
    1592                    $C$DW$93        .dwtag  DW_TAG_formal_parameter
    1593                            .dwattr $C$DW$93, DW_AT_name("ui32Step")
    1594                            .dwattr $C$DW$93, DW_AT_TI_symbol_name("ui32Step")
    1595                            .dwattr $C$DW$93, DW_AT_type(*$C$DW$T$27)
TI ARM Assembler Unix v18.1.1 Fri Jul  3 20:08:23 2020

Tools Copyright (c) 1996-2017 Texas Instruments Incorporated
adc.asm                                                              PAGE   30

    1596                            .dwattr $C$DW$93, DW_AT_location[DW_OP_reg2]
    1597                    
    1598                    $C$DW$94        .dwtag  DW_TAG_formal_parameter
    1599                            .dwattr $C$DW$94, DW_AT_name("ui32Config")
    1600                            .dwattr $C$DW$94, DW_AT_TI_symbol_name("ui32Config")
    1601                            .dwattr $C$DW$94, DW_AT_type(*$C$DW$T$27)
    1602                            .dwattr $C$DW$94, DW_AT_location[DW_OP_reg3]
    1603                    
    1604                    ;----------------------------------------------------------------------
    1605                    ; 619 | ADCSequenceStepConfigure(uint32_t ui32Base, uint32_t ui32SequenceNum,  
    1606                    ; 620 | uint32_t ui32Step, uint32_t ui32Config)                                
    1607                    ;----------------------------------------------------------------------
    1608                    
    1609                    ;*****************************************************************************
    1610                    ;* FUNCTION NAME: ADCSequenceStepConfigure                                   *
    1611                    ;*                                                                           *
    1612                    ;*   Regs Modified     : A1,A2,A3,A4,V1,V2,SP,SR                             *
    1613                    ;*   Regs Used         : A1,A2,A3,A4,V1,V2,SP,LR,SR                          *
    1614                    ;*   Local Frame Size  : 0 Args + 20 Auto + 12 Save = 32 byte                *
    1615                    ;*****************************************************************************
    1616 00000220           ADCSequenceStepConfigure:
    1617                    ;* --------------------------------------------------------------------------*
    1618                            .dwcfi  cfa_offset, 0
    1619 00000220 B530              PUSH      {V1, V2, LR}          ; [DPU_V7M3_PIPE]  ; [ORIG 16-BIT INS]
    1620                            .dwcfi  cfa_offset, 12
    1621                            .dwcfi  save_reg_to_mem, 14, -4
    1622                            .dwcfi  save_reg_to_mem, 5, -8
    1623                            .dwcfi  save_reg_to_mem, 4, -12
    1624 00000222 0D14F1AD          SUB       SP, SP, #20           ; [DPU_V7M3_PIPE]  ; [KEEP 32-BIT INS]
    1625                            .dwcfi  cfa_offset, 32
    1626                    $C$DW$95        .dwtag  DW_TAG_variable
    1627                            .dwattr $C$DW$95, DW_AT_name("ui32Base")
    1628                            .dwattr $C$DW$95, DW_AT_TI_symbol_name("ui32Base")
    1629                            .dwattr $C$DW$95, DW_AT_type(*$C$DW$T$27)
    1630                            .dwattr $C$DW$95, DW_AT_location[DW_OP_breg13 0]
    1631                    
    1632                    $C$DW$96        .dwtag  DW_TAG_variable
    1633                            .dwattr $C$DW$96, DW_AT_name("ui32SequenceNum")
    1634                            .dwattr $C$DW$96, DW_AT_TI_symbol_name("ui32SequenceNum")
    1635                            .dwattr $C$DW$96, DW_AT_type(*$C$DW$T$27)
    1636                            .dwattr $C$DW$96, DW_AT_location[DW_OP_breg13 4]
    1637                    
    1638                    $C$DW$97        .dwtag  DW_TAG_variable
    1639                            .dwattr $C$DW$97, DW_AT_name("ui32Step")
    1640                            .dwattr $C$DW$97, DW_AT_TI_symbol_name("ui32Step")
    1641                            .dwattr $C$DW$97, DW_AT_type(*$C$DW$T$27)
    1642                            .dwattr $C$DW$97, DW_AT_location[DW_OP_breg13 8]
    1643                    
    1644                    $C$DW$98        .dwtag  DW_TAG_variable
    1645                            .dwattr $C$DW$98, DW_AT_name("ui32Config")
    1646                            .dwattr $C$DW$98, DW_AT_TI_symbol_name("ui32Config")
    1647                            .dwattr $C$DW$98, DW_AT_type(*$C$DW$T$27)
    1648                            .dwattr $C$DW$98, DW_AT_location[DW_OP_breg13 12]
    1649                    
    1650                    $C$DW$99        .dwtag  DW_TAG_variable
TI ARM Assembler Unix v18.1.1 Fri Jul  3 20:08:23 2020

Tools Copyright (c) 1996-2017 Texas Instruments Incorporated
adc.asm                                                              PAGE   31

    1651                            .dwattr $C$DW$99, DW_AT_name("ui32Temp")
    1652                            .dwattr $C$DW$99, DW_AT_TI_symbol_name("ui32Temp")
    1653                            .dwattr $C$DW$99, DW_AT_type(*$C$DW$T$27)
    1654                            .dwattr $C$DW$99, DW_AT_location[DW_OP_breg13 16]
    1655                    
    1656                    ;----------------------------------------------------------------------
    1657                    ; 622 | uint32_t ui32Temp;                                                     
    1658                    ; 624 | //                                                                     
    1659                    ; 625 | // Check the arguments.                                                
    1660                    ; 626 | //                                                                     
    1661                    ; 627 | ASSERT((ui32Base == ADC0_BASE) || (ui32Base == ADC1_BASE));            
    1662                    ; 628 | ASSERT(ui32SequenceNum < 4);                                           
    1663                    ; 629 | ASSERT(((ui32SequenceNum == 0) && (ui32Step < 8)) ||                   
    1664                    ; 630 |        ((ui32SequenceNum == 1) && (ui32Step < 4)) ||                   
    1665                    ; 631 |        ((ui32SequenceNum == 2) && (ui32Step < 4)) ||                   
    1666                    ; 632 |        ((ui32SequenceNum == 3) && (ui32Step < 1)));                    
    1667                    ; 634 | //                                                                     
    1668                    ; 635 | // Get the offset of the sequence to be configured.                    
    1669                    ; 636 | //                                                                     
    1670                    ;----------------------------------------------------------------------
    1671 00000226 9303              STR       A4, [SP, #12]         ; [DPU_V7M3_PIPE] |621|  ; [ORIG 16-BIT INS]
    1672 00000228 9202              STR       A3, [SP, #8]          ; [DPU_V7M3_PIPE] |621|  ; [ORIG 16-BIT INS]
    1673 0000022a 9101              STR       A2, [SP, #4]          ; [DPU_V7M3_PIPE] |621|  ; [ORIG 16-BIT INS]
    1674 0000022c 9000              STR       A1, [SP, #0]          ; [DPU_V7M3_PIPE] |621|  ; [ORIG 16-BIT INS]
    1675                            .dwpsn  file "../driverlib/adc.c",line 637,column 5,is_stmt,isa 1
    1676                    ;----------------------------------------------------------------------
    1677                    ; 637 | ui32Base += ADC_SEQ + (ADC_SEQ_STEP * ui32SequenceNum);                
    1678                    ; 639 | //                                                                     
    1679                    ; 640 | // Compute the shift for the bits that control this step.              
    1680                    ; 641 | //                                                                     
    1681                    ;----------------------------------------------------------------------
    1682 0000022e 9901              LDR       A2, [SP, #4]          ; [DPU_V7M3_PIPE] |637|  ; [ORIG 16-BIT INS]
    1683 00000230 9800              LDR       A1, [SP, #0]          ; [DPU_V7M3_PIPE] |637|  ; [ORIG 16-BIT INS]
    1684 00000232 1041EB00          ADD       A1, A1, A2, LSL #5    ; [DPU_V7M3_PIPE] |637|  ; [KEEP 32-BIT INS]
    1685 00000236 3040              ADDS      A1, A1, #64           ; [DPU_V7M3_PIPE] |637|  ; [ORIG 16-BIT INS]
    1686 00000238 9000              STR       A1, [SP, #0]          ; [DPU_V7M3_PIPE] |637|  ; [ORIG 16-BIT INS]
    1687                            .dwpsn  file "../driverlib/adc.c",line 642,column 5,is_stmt,isa 1
    1688                    ;----------------------------------------------------------------------
    1689                    ; 642 | ui32Step *= 4;                                                         
    1690                    ; 644 | //                                                                     
    1691                    ; 645 | // Set the analog mux value for this step.                             
    1692                    ; 646 | //                                                                     
    1693                    ;----------------------------------------------------------------------
    1694 0000023a 9802              LDR       A1, [SP, #8]          ; [DPU_V7M3_PIPE] |642|  ; [ORIG 16-BIT INS]
    1695 0000023c 0080              LSLS      A1, A1, #2            ; [DPU_V7M3_PIPE] |642|  ; [ORIG 16-BIT INS]
    1696 0000023e 9002              STR       A1, [SP, #8]          ; [DPU_V7M3_PIPE] |642|  ; [ORIG 16-BIT INS]
    1697                            .dwpsn  file "../driverlib/adc.c",line 647,column 5,is_stmt,isa 1
    1698                    ;----------------------------------------------------------------------
    1699                    ; 647 | HWREG(ui32Base + ADC_SSMUX) = ((HWREG(ui32Base + ADC_SSMUX) &          
    1700                    ; 648 |                                 ~(0x0000000f << ui32Step)) |           
    1701                    ; 649 |                                ((ui32Config & 0x0f) << ui32Step));     
    1702                    ; 651 | //                                                                     
    1703                    ; 652 | // Set the upper bits of the analog mux value for this step.           
    1704                    ; 653 | //                                                                     
    1705                    ;----------------------------------------------------------------------
TI ARM Assembler Unix v18.1.1 Fri Jul  3 20:08:23 2020

Tools Copyright (c) 1996-2017 Texas Instruments Incorporated
adc.asm                                                              PAGE   32

    1706 00000240 9A03              LDR       A3, [SP, #12]         ; [DPU_V7M3_PIPE] |647|  ; [ORIG 16-BIT INS]
    1707 00000242 9800              LDR       A1, [SP, #0]          ; [DPU_V7M3_PIPE] |647|  ; [ORIG 16-BIT INS]
    1708 00000244 9C02              LDR       V1, [SP, #8]          ; [DPU_V7M3_PIPE] |647|  ; [ORIG 16-BIT INS]
    1709 00000246 9D02              LDR       V2, [SP, #8]          ; [DPU_V7M3_PIPE] |647|  ; [ORIG 16-BIT INS]
    1710 00000248 9B00              LDR       A4, [SP, #0]          ; [DPU_V7M3_PIPE] |647|  ; [ORIG 16-BIT INS]
    1711 0000024a 6801              LDR       A2, [A1, #0]          ; [DPU_V7M3_PIPE] |647|  ; [ORIG 16-BIT INS]
    1712 0000024c 020FF002          AND       A3, A3, #15           ; [DPU_V7M3_PIPE] |647|  ; [KEEP 32-BIT INS]
    1713 00000250 40A2              LSLS      A3, A3, V1            ; [DPU_V7M3_PIPE] |647|  ; [ORIG 16-BIT INS]
    1714 00000252 200F              MOVS      A1, #15               ; [DPU_V7M3_PIPE] |647|  ; [ORIG 16-BIT INS]
    1715 00000254 40A8              LSLS      A1, A1, V2            ; [DPU_V7M3_PIPE] |647|  ; [ORIG 16-BIT INS]
    1716 00000256 4381              BICS      A2, A2, A1            ; [DPU_V7M3_PIPE] |647|  ; [ORIG 16-BIT INS]
    1717 00000258 430A              ORRS      A3, A3, A2            ; [DPU_V7M3_PIPE] |647|  ; [ORIG 16-BIT INS]
    1718 0000025a 601A              STR       A3, [A4, #0]          ; [DPU_V7M3_PIPE] |647|  ; [ORIG 16-BIT INS]
    1719                            .dwpsn  file "../driverlib/adc.c",line 654,column 5,is_stmt,isa 1
    1720                    ;----------------------------------------------------------------------
    1721                    ; 654 | HWREG(ui32Base + ADC_SSEMUX) = ((HWREG(ui32Base + ADC_SSEMUX) &        
    1722                    ; 655 |                                  ~(0x0000000f << ui32Step)) |          
    1723                    ; 656 |                                 (((ui32Config & 0xf00) >> 8) << ui32Ste
    1724                    ;     | p));                                                                   
    1725                    ; 658 | //                                                                     
    1726                    ; 659 | // Set the control value for this step.                                
    1727                    ; 660 | //                                                                     
    1728                    ;----------------------------------------------------------------------
    1729 0000025c 9800              LDR       A1, [SP, #0]          ; [DPU_V7M3_PIPE] |654|  ; [ORIG 16-BIT INS]
    1730 0000025e 9A03              LDR       A3, [SP, #12]         ; [DPU_V7M3_PIPE] |654|  ; [ORIG 16-BIT INS]
    1731 00000260 9C02              LDR       V1, [SP, #8]          ; [DPU_V7M3_PIPE] |654|  ; [ORIG 16-BIT INS]
    1732 00000262 9D02              LDR       V2, [SP, #8]          ; [DPU_V7M3_PIPE] |654|  ; [ORIG 16-BIT INS]
    1733 00000264 9B00              LDR       A4, [SP, #0]          ; [DPU_V7M3_PIPE] |654|  ; [ORIG 16-BIT INS]
    1734 00000266 6981              LDR       A2, [A1, #24]         ; [DPU_V7M3_PIPE] |654|  ; [ORIG 16-BIT INS]
    1735 00000268 6270F402          AND       A3, A3, #3840         ; [DPU_V7M3_PIPE] |654|  ; [KEEP 32-BIT INS]
    1736 0000026c 0A12              LSRS      A3, A3, #8            ; [DPU_V7M3_PIPE] |654|  ; [ORIG 16-BIT INS]
    1737 0000026e 40A2              LSLS      A3, A3, V1            ; [DPU_V7M3_PIPE] |654|  ; [ORIG 16-BIT INS]
    1738 00000270 200F              MOVS      A1, #15               ; [DPU_V7M3_PIPE] |654|  ; [ORIG 16-BIT INS]
    1739 00000272 40A8              LSLS      A1, A1, V2            ; [DPU_V7M3_PIPE] |654|  ; [ORIG 16-BIT INS]
    1740 00000274 4381              BICS      A2, A2, A1            ; [DPU_V7M3_PIPE] |654|  ; [ORIG 16-BIT INS]
    1741 00000276 430A              ORRS      A3, A3, A2            ; [DPU_V7M3_PIPE] |654|  ; [ORIG 16-BIT INS]
    1742 00000278 619A              STR       A3, [A4, #24]         ; [DPU_V7M3_PIPE] |654|  ; [ORIG 16-BIT INS]
    1743                            .dwpsn  file "../driverlib/adc.c",line 661,column 5,is_stmt,isa 1
    1744                    ;----------------------------------------------------------------------
    1745                    ; 661 | HWREG(ui32Base + ADC_SSCTL) = ((HWREG(ui32Base + ADC_SSCTL) &          
    1746                    ; 662 |                                 ~(0x0000000f << ui32Step)) |           
    1747                    ; 663 |                                (((ui32Config & 0xf0) >> 4) << ui32Step)
    1748                    ;     | );                                                                     
    1749                    ; 665 | //                                                                     
    1750                    ; 666 | // Set the sample and hold time for this step.  This is not available o
    1751                    ;     | n                                                                      
    1752                    ; 667 | // all devices, however on devices that do not support this feature the
    1753                    ;     | se                                                                     
    1754                    ; 668 | // reserved bits are ignored on write access.                          
    1755                    ; 669 | //                                                                     
    1756                    ;----------------------------------------------------------------------
    1757 0000027a 9800              LDR       A1, [SP, #0]          ; [DPU_V7M3_PIPE] |661|  ; [ORIG 16-BIT INS]
    1758 0000027c 9A03              LDR       A3, [SP, #12]         ; [DPU_V7M3_PIPE] |661|  ; [ORIG 16-BIT INS]
    1759 0000027e 9C02              LDR       V1, [SP, #8]          ; [DPU_V7M3_PIPE] |661|  ; [ORIG 16-BIT INS]
    1760 00000280 9D02              LDR       V2, [SP, #8]          ; [DPU_V7M3_PIPE] |661|  ; [ORIG 16-BIT INS]
TI ARM Assembler Unix v18.1.1 Fri Jul  3 20:08:23 2020

Tools Copyright (c) 1996-2017 Texas Instruments Incorporated
adc.asm                                                              PAGE   33

    1761 00000282 9B00              LDR       A4, [SP, #0]          ; [DPU_V7M3_PIPE] |661|  ; [ORIG 16-BIT INS]
    1762 00000284 6841              LDR       A2, [A1, #4]          ; [DPU_V7M3_PIPE] |661|  ; [ORIG 16-BIT INS]
    1763 00000286 02F0F002          AND       A3, A3, #240          ; [DPU_V7M3_PIPE] |661|  ; [KEEP 32-BIT INS]
    1764 0000028a 0912              LSRS      A3, A3, #4            ; [DPU_V7M3_PIPE] |661|  ; [ORIG 16-BIT INS]
    1765 0000028c 40A2              LSLS      A3, A3, V1            ; [DPU_V7M3_PIPE] |661|  ; [ORIG 16-BIT INS]
    1766 0000028e 200F              MOVS      A1, #15               ; [DPU_V7M3_PIPE] |661|  ; [ORIG 16-BIT INS]
    1767 00000290 40A8              LSLS      A1, A1, V2            ; [DPU_V7M3_PIPE] |661|  ; [ORIG 16-BIT INS]
    1768 00000292 4381              BICS      A2, A2, A1            ; [DPU_V7M3_PIPE] |661|  ; [ORIG 16-BIT INS]
    1769 00000294 430A              ORRS      A3, A3, A2            ; [DPU_V7M3_PIPE] |661|  ; [ORIG 16-BIT INS]
    1770 00000296 605A              STR       A3, [A4, #4]          ; [DPU_V7M3_PIPE] |661|  ; [ORIG 16-BIT INS]
    1771                            .dwpsn  file "../driverlib/adc.c",line 670,column 5,is_stmt,isa 1
    1772                    ;----------------------------------------------------------------------
    1773                    ; 670 | HWREG(ui32Base + ADC_SSTSH) = ((HWREG(ui32Base + ADC_SSTSH) &          
    1774                    ; 671 |                                 ~(0x0000000f << ui32Step)) |           
    1775                    ; 672 |                             (((ui32Config & 0xf00000) >> 20) << ui32Ste
    1776                    ;     | p));                                                                   
    1777                    ; 674 | //                                                                     
    1778                    ; 675 | // Enable digital comparator if specified in the ui32Config bit-fields.
    1779                    ; 676 | //                                                                     
    1780                    ;----------------------------------------------------------------------
    1781 00000298 9800              LDR       A1, [SP, #0]          ; [DPU_V7M3_PIPE] |670|  ; [ORIG 16-BIT INS]
    1782 0000029a 9A03              LDR       A3, [SP, #12]         ; [DPU_V7M3_PIPE] |670|  ; [ORIG 16-BIT INS]
    1783 0000029c 9C02              LDR       V1, [SP, #8]          ; [DPU_V7M3_PIPE] |670|  ; [ORIG 16-BIT INS]
    1784 0000029e 9D02              LDR       V2, [SP, #8]          ; [DPU_V7M3_PIPE] |670|  ; [ORIG 16-BIT INS]
    1785 000002a0 9B00              LDR       A4, [SP, #0]          ; [DPU_V7M3_PIPE] |670|  ; [ORIG 16-BIT INS]
    1786 000002a2 69C1              LDR       A2, [A1, #28]         ; [DPU_V7M3_PIPE] |670|  ; [ORIG 16-BIT INS]
    1787 000002a4 0270F402          AND       A3, A3, #15728640     ; [DPU_V7M3_PIPE] |670|  ; [KEEP 32-BIT INS]
    1788 000002a8 0D12              LSRS      A3, A3, #20           ; [DPU_V7M3_PIPE] |670|  ; [ORIG 16-BIT INS]
    1789 000002aa 40A2              LSLS      A3, A3, V1            ; [DPU_V7M3_PIPE] |670|  ; [ORIG 16-BIT INS]
    1790 000002ac 200F              MOVS      A1, #15               ; [DPU_V7M3_PIPE] |670|  ; [ORIG 16-BIT INS]
    1791 000002ae 40A8              LSLS      A1, A1, V2            ; [DPU_V7M3_PIPE] |670|  ; [ORIG 16-BIT INS]
    1792 000002b0 4381              BICS      A2, A2, A1            ; [DPU_V7M3_PIPE] |670|  ; [ORIG 16-BIT INS]
    1793 000002b2 430A              ORRS      A3, A3, A2            ; [DPU_V7M3_PIPE] |670|  ; [ORIG 16-BIT INS]
    1794 000002b4 61DA              STR       A3, [A4, #28]         ; [DPU_V7M3_PIPE] |670|  ; [ORIG 16-BIT INS]
    1795                            .dwpsn  file "../driverlib/adc.c",line 677,column 5,is_stmt,isa 1
    1796                    ;----------------------------------------------------------------------
    1797                    ; 677 | if(ui32Config & 0x000F0000)                                            
    1798                    ; 679 |     //                                                                 
    1799                    ; 680 |     // Program the comparator for the specified step.                  
    1800                    ; 681 |     //                                                                 
    1801                    ;----------------------------------------------------------------------
    1802 000002b6 9803              LDR       A1, [SP, #12]         ; [DPU_V7M3_PIPE] |677|  ; [ORIG 16-BIT INS]
    1803 000002b8 2F70F410          TST       A1, #983040           ; [DPU_V7M3_PIPE] |677|  ; [KEEP 32-BIT INS]
    1804 000002bc D01D              BEQ       ||$C$L11||            ; [DPU_V7M3_PIPE] |677|  ; [ORIG 16-BIT INS]
    1805                            ; BRANCHCC OCCURS {||$C$L11||}   ; [] |677| 
    1806                    ;* --------------------------------------------------------------------------*
    1807                            .dwpsn  file "../driverlib/adc.c",line 682,column 9,is_stmt,isa 1
    1808                    ;----------------------------------------------------------------------
    1809                    ; 682 | ui32Temp = HWREG(ui32Base + ADC_SSDC);                                 
    1810                    ;----------------------------------------------------------------------
    1811 000002be 9800              LDR       A1, [SP, #0]          ; [DPU_V7M3_PIPE] |682|  ; [ORIG 16-BIT INS]
    1812 000002c0 6940              LDR       A1, [A1, #20]         ; [DPU_V7M3_PIPE] |682|  ; [ORIG 16-BIT INS]
    1813 000002c2 9004              STR       A1, [SP, #16]         ; [DPU_V7M3_PIPE] |682|  ; [ORIG 16-BIT INS]
    1814                            .dwpsn  file "../driverlib/adc.c",line 683,column 9,is_stmt,isa 1
    1815                    ;----------------------------------------------------------------------
TI ARM Assembler Unix v18.1.1 Fri Jul  3 20:08:23 2020

Tools Copyright (c) 1996-2017 Texas Instruments Incorporated
adc.asm                                                              PAGE   34

    1816                    ; 683 | ui32Temp &= ~(0xF << ui32Step);                                        
    1817                    ;----------------------------------------------------------------------
    1818 000002c4 9A02              LDR       A3, [SP, #8]          ; [DPU_V7M3_PIPE] |683|  ; [ORIG 16-BIT INS]
    1819 000002c6 9904              LDR       A2, [SP, #16]         ; [DPU_V7M3_PIPE] |683|  ; [ORIG 16-BIT INS]
    1820 000002c8 200F              MOVS      A1, #15               ; [DPU_V7M3_PIPE] |683|  ; [ORIG 16-BIT INS]
    1821 000002ca 4090              LSLS      A1, A1, A3            ; [DPU_V7M3_PIPE] |683|  ; [ORIG 16-BIT INS]
    1822 000002cc 4381              BICS      A2, A2, A1            ; [DPU_V7M3_PIPE] |683|  ; [ORIG 16-BIT INS]
    1823 000002ce 9104              STR       A2, [SP, #16]         ; [DPU_V7M3_PIPE] |683|  ; [ORIG 16-BIT INS]
    1824                            .dwpsn  file "../driverlib/adc.c",line 684,column 9,is_stmt,isa 1
    1825                    ;----------------------------------------------------------------------
    1826                    ; 684 | ui32Temp |= (((ui32Config & 0x00070000) >> 16) << ui32Step);           
    1827                    ;----------------------------------------------------------------------
    1828 000002d0 9803              LDR       A1, [SP, #12]         ; [DPU_V7M3_PIPE] |684|  ; [ORIG 16-BIT INS]
    1829 000002d2 9A02              LDR       A3, [SP, #8]          ; [DPU_V7M3_PIPE] |684|  ; [ORIG 16-BIT INS]
    1830 000002d4 9904              LDR       A2, [SP, #16]         ; [DPU_V7M3_PIPE] |684|  ; [ORIG 16-BIT INS]
    1831 000002d6 20E0F400          AND       A1, A1, #458752       ; [DPU_V7M3_PIPE] |684|  ; [KEEP 32-BIT INS]
    1832 000002da 0C00              LSRS      A1, A1, #16           ; [DPU_V7M3_PIPE] |684|  ; [ORIG 16-BIT INS]
    1833 000002dc 4090              LSLS      A1, A1, A3            ; [DPU_V7M3_PIPE] |684|  ; [ORIG 16-BIT INS]
    1834 000002de 4308              ORRS      A1, A1, A2            ; [DPU_V7M3_PIPE] |684|  ; [ORIG 16-BIT INS]
    1835 000002e0 9004              STR       A1, [SP, #16]         ; [DPU_V7M3_PIPE] |684|  ; [ORIG 16-BIT INS]
    1836                            .dwpsn  file "../driverlib/adc.c",line 685,column 9,is_stmt,isa 1
    1837                    ;----------------------------------------------------------------------
    1838                    ; 685 | HWREG(ui32Base + ADC_SSDC) = ui32Temp;                                 
    1839                    ; 687 | //                                                                     
    1840                    ; 688 | // Enable the comparator.                                              
    1841                    ; 689 | //                                                                     
    1842                    ;----------------------------------------------------------------------
    1843 000002e2 9900              LDR       A2, [SP, #0]          ; [DPU_V7M3_PIPE] |685|  ; [ORIG 16-BIT INS]
    1844 000002e4 9804              LDR       A1, [SP, #16]         ; [DPU_V7M3_PIPE] |685|  ; [ORIG 16-BIT INS]
    1845 000002e6 6148              STR       A1, [A2, #20]         ; [DPU_V7M3_PIPE] |685|  ; [ORIG 16-BIT INS]
    1846                            .dwpsn  file "../driverlib/adc.c",line 690,column 9,is_stmt,isa 1
    1847                    ;----------------------------------------------------------------------
    1848                    ; 690 | HWREG(ui32Base + ADC_SSOP) |= (1 << ui32Step);                         
    1849                    ;----------------------------------------------------------------------
    1850 000002e8 9800              LDR       A1, [SP, #0]          ; [DPU_V7M3_PIPE] |690|  ; [ORIG 16-BIT INS]
    1851 000002ea 9B02              LDR       A4, [SP, #8]          ; [DPU_V7M3_PIPE] |690|  ; [ORIG 16-BIT INS]
    1852 000002ec 3010              ADDS      A1, A1, #16           ; [DPU_V7M3_PIPE] |690|  ; [ORIG 16-BIT INS]
    1853 000002ee 6802              LDR       A3, [A1, #0]          ; [DPU_V7M3_PIPE] |690|  ; [ORIG 16-BIT INS]
    1854 000002f0 2101              MOVS      A2, #1                ; [DPU_V7M3_PIPE] |690|  ; [ORIG 16-BIT INS]
    1855 000002f2 4099              LSLS      A2, A2, A4            ; [DPU_V7M3_PIPE] |690|  ; [ORIG 16-BIT INS]
    1856 000002f4 4311              ORRS      A2, A2, A3            ; [DPU_V7M3_PIPE] |690|  ; [ORIG 16-BIT INS]
    1857 000002f6 6001              STR       A2, [A1, #0]          ; [DPU_V7M3_PIPE] |690|  ; [ORIG 16-BIT INS]
    1858                            .dwpsn  file "../driverlib/adc.c",line 691,column 5,is_stmt,isa 1
    1859                    ;----------------------------------------------------------------------
    1860                    ; 693 | //                                                                     
    1861                    ; 694 | // Disable digital comparator if not specified.                        
    1862                    ; 695 | //                                                                     
    1863                    ; 696 | else                                                                   
    1864                    ;----------------------------------------------------------------------
    1865 000002f8 E007              B         ||$C$L12||            ; [DPU_V7M3_PIPE] |691|  ; [ORIG 16-BIT INS]
    1866                            ; BRANCH OCCURS {||$C$L12||}     ; [] |691| 
    1867                    ;* --------------------------------------------------------------------------*
    1868 000002fa           ||$C$L11||:    
    1869                            .dwpsn  file "../driverlib/adc.c",line 698,column 9,is_stmt,isa 1
    1870                    ;----------------------------------------------------------------------
TI ARM Assembler Unix v18.1.1 Fri Jul  3 20:08:23 2020

Tools Copyright (c) 1996-2017 Texas Instruments Incorporated
adc.asm                                                              PAGE   35

    1871                    ; 698 | HWREG(ui32Base + ADC_SSOP) &= ~(1 << ui32Step);                        
    1872                    ;----------------------------------------------------------------------
    1873 000002fa 9800              LDR       A1, [SP, #0]          ; [DPU_V7M3_PIPE] |698|  ; [ORIG 16-BIT INS]
    1874 000002fc 9B02              LDR       A4, [SP, #8]          ; [DPU_V7M3_PIPE] |698|  ; [ORIG 16-BIT INS]
    1875 000002fe 3010              ADDS      A1, A1, #16           ; [DPU_V7M3_PIPE] |698|  ; [ORIG 16-BIT INS]
    1876 00000300 6802              LDR       A3, [A1, #0]          ; [DPU_V7M3_PIPE] |698|  ; [ORIG 16-BIT INS]
    1877 00000302 2101              MOVS      A2, #1                ; [DPU_V7M3_PIPE] |698|  ; [ORIG 16-BIT INS]
    1878 00000304 4099              LSLS      A2, A2, A4            ; [DPU_V7M3_PIPE] |698|  ; [ORIG 16-BIT INS]
    1879 00000306 438A              BICS      A3, A3, A2            ; [DPU_V7M3_PIPE] |698|  ; [ORIG 16-BIT INS]
    1880 00000308 6002              STR       A3, [A1, #0]          ; [DPU_V7M3_PIPE] |698|  ; [ORIG 16-BIT INS]
    1881                            .dwpsn  file "../driverlib/adc.c",line 700,column 1,is_stmt,isa 1
    1882                    ;* --------------------------------------------------------------------------*
    1883 0000030a           ||$C$L12||:    
    1884 0000030a B005              ADD       SP, SP, #20           ; [DPU_V7M3_PIPE]  ; [ORIG 16-BIT INS]
    1885                            .dwcfi  cfa_offset, 12
    1886                    $C$DW$100       .dwtag  DW_TAG_TI_branch
    1887                            .dwattr $C$DW$100, DW_AT_low_pc(0x00)
    1888                            .dwattr $C$DW$100, DW_AT_TI_return
    1889                    
    1890 0000030c BD30              POP       {V1, V2, PC}          ; [DPU_V7M3_PIPE]  ; [ORIG 16-BIT INS]
    1891                            .dwcfi  cfa_offset, 0
    1892                            .dwcfi  restore_reg, 5
    1893                            .dwcfi  restore_reg, 4
    1894                            ; BRANCH OCCURS                  ; [] 
    1895                            .dwattr $C$DW$90, DW_AT_TI_end_file("../driverlib/adc.c")
    1896                            .dwattr $C$DW$90, DW_AT_TI_end_line(0x2bc)
    1897                            .dwattr $C$DW$90, DW_AT_TI_end_column(0x01)
    1898                            .dwendentry
    1899                            .dwendtag $C$DW$90
    1900                    
    1901 0000030e                   .sect   ".text"
    1902                            .clink
    1903                            .thumbfunc ADCSequenceOverflow
    1904 0000030e                   .thumb
    1905                            .global ADCSequenceOverflow
    1906                    
    1907                    $C$DW$101       .dwtag  DW_TAG_subprogram
    1908                            .dwattr $C$DW$101, DW_AT_name("ADCSequenceOverflow")
    1909                            .dwattr $C$DW$101, DW_AT_low_pc(ADCSequenceOverflow)
    1910                            .dwattr $C$DW$101, DW_AT_high_pc(0x00)
    1911                            .dwattr $C$DW$101, DW_AT_TI_symbol_name("ADCSequenceOverflow")
    1912                            .dwattr $C$DW$101, DW_AT_external
    1913                            .dwattr $C$DW$101, DW_AT_type(*$C$DW$T$94)
    1914                            .dwattr $C$DW$101, DW_AT_TI_begin_file("../driverlib/adc.c")
    1915                            .dwattr $C$DW$101, DW_AT_TI_begin_line(0x2ce)
    1916                            .dwattr $C$DW$101, DW_AT_TI_begin_column(0x01)
    1917                            .dwattr $C$DW$101, DW_AT_decl_file("../driverlib/adc.c")
    1918                            .dwattr $C$DW$101, DW_AT_decl_line(0x2ce)
    1919                            .dwattr $C$DW$101, DW_AT_decl_column(0x01)
    1920                            .dwattr $C$DW$101, DW_AT_TI_max_frame_size(0x08)
    1921                            .dwpsn  file "../driverlib/adc.c",line 719,column 1,is_stmt,address ADCSequenceOverflow,isa 1
    1922                    
    1923                            .dwfde $C$DW$CIE, ADCSequenceOverflow
    1924                    $C$DW$102       .dwtag  DW_TAG_formal_parameter
    1925                            .dwattr $C$DW$102, DW_AT_name("ui32Base")
TI ARM Assembler Unix v18.1.1 Fri Jul  3 20:08:23 2020

Tools Copyright (c) 1996-2017 Texas Instruments Incorporated
adc.asm                                                              PAGE   36

    1926                            .dwattr $C$DW$102, DW_AT_TI_symbol_name("ui32Base")
    1927                            .dwattr $C$DW$102, DW_AT_type(*$C$DW$T$27)
    1928                            .dwattr $C$DW$102, DW_AT_location[DW_OP_reg0]
    1929                    
    1930                    $C$DW$103       .dwtag  DW_TAG_formal_parameter
    1931                            .dwattr $C$DW$103, DW_AT_name("ui32SequenceNum")
    1932                            .dwattr $C$DW$103, DW_AT_TI_symbol_name("ui32SequenceNum")
    1933                            .dwattr $C$DW$103, DW_AT_type(*$C$DW$T$27)
    1934                            .dwattr $C$DW$103, DW_AT_location[DW_OP_reg1]
    1935                    
    1936                    ;----------------------------------------------------------------------
    1937                    ; 718 | ADCSequenceOverflow(uint32_t ui32Base, uint32_t ui32SequenceNum)       
    1938                    ;----------------------------------------------------------------------
    1939                    
    1940                    ;*****************************************************************************
    1941                    ;* FUNCTION NAME: ADCSequenceOverflow                                        *
    1942                    ;*                                                                           *
    1943                    ;*   Regs Modified     : A1,A2,A3,SP,SR                                      *
    1944                    ;*   Regs Used         : A1,A2,A3,SP,LR,SR                                   *
    1945                    ;*   Local Frame Size  : 0 Args + 8 Auto + 0 Save = 8 byte                   *
    1946                    ;*****************************************************************************
    1947 0000030e           ADCSequenceOverflow:
    1948                    ;* --------------------------------------------------------------------------*
    1949                            .dwcfi  cfa_offset, 0
    1950 0000030e 0D08F1AD          SUB       SP, SP, #8            ; [DPU_V7M3_PIPE]  ; [KEEP 32-BIT INS]
    1951                            .dwcfi  cfa_offset, 8
    1952                    $C$DW$104       .dwtag  DW_TAG_variable
    1953                            .dwattr $C$DW$104, DW_AT_name("ui32Base")
    1954                            .dwattr $C$DW$104, DW_AT_TI_symbol_name("ui32Base")
    1955                            .dwattr $C$DW$104, DW_AT_type(*$C$DW$T$27)
    1956                            .dwattr $C$DW$104, DW_AT_location[DW_OP_breg13 0]
    1957                    
    1958                    $C$DW$105       .dwtag  DW_TAG_variable
    1959                            .dwattr $C$DW$105, DW_AT_name("ui32SequenceNum")
    1960                            .dwattr $C$DW$105, DW_AT_TI_symbol_name("ui32SequenceNum")
    1961                            .dwattr $C$DW$105, DW_AT_type(*$C$DW$T$27)
    1962                            .dwattr $C$DW$105, DW_AT_location[DW_OP_breg13 4]
    1963                    
    1964                    ;----------------------------------------------------------------------
    1965                    ; 720 | //                                                                     
    1966                    ; 721 | // Check the arguments.                                                
    1967                    ; 722 | //                                                                     
    1968                    ; 723 | ASSERT((ui32Base == ADC0_BASE) || (ui32Base == ADC1_BASE));            
    1969                    ; 724 | ASSERT(ui32SequenceNum < 4);                                           
    1970                    ; 726 | //                                                                     
    1971                    ; 727 | // Determine if there was an overflow on this sequence.                
    1972                    ; 728 | //                                                                     
    1973                    ;----------------------------------------------------------------------
    1974 00000312 9101              STR       A2, [SP, #4]          ; [DPU_V7M3_PIPE] |719|  ; [ORIG 16-BIT INS]
    1975 00000314 9000              STR       A1, [SP, #0]          ; [DPU_V7M3_PIPE] |719|  ; [ORIG 16-BIT INS]
    1976                            .dwpsn  file "../driverlib/adc.c",line 729,column 5,is_stmt,isa 1
    1977                    ;----------------------------------------------------------------------
    1978                    ; 729 | return(HWREG(ui32Base + ADC_O_OSTAT) & (1 << ui32SequenceNum));        
    1979                    ;----------------------------------------------------------------------
    1980 00000316 9800              LDR       A1, [SP, #0]          ; [DPU_V7M3_PIPE] |729|  ; [ORIG 16-BIT INS]
TI ARM Assembler Unix v18.1.1 Fri Jul  3 20:08:23 2020

Tools Copyright (c) 1996-2017 Texas Instruments Incorporated
adc.asm                                                              PAGE   37

    1981 00000318 9A01              LDR       A3, [SP, #4]          ; [DPU_V7M3_PIPE] |729|  ; [ORIG 16-BIT INS]
    1982 0000031a 6901              LDR       A2, [A1, #16]         ; [DPU_V7M3_PIPE] |729|  ; [ORIG 16-BIT INS]
    1983 0000031c 2001              MOVS      A1, #1                ; [DPU_V7M3_PIPE] |729|  ; [ORIG 16-BIT INS]
    1984 0000031e 4090              LSLS      A1, A1, A3            ; [DPU_V7M3_PIPE] |729|  ; [ORIG 16-BIT INS]
    1985 00000320 4008              ANDS      A1, A1, A2            ; [DPU_V7M3_PIPE] |729|  ; [ORIG 16-BIT INS]
    1986                            .dwpsn  file "../driverlib/adc.c",line 730,column 1,is_stmt,isa 1
    1987 00000322 B002              ADD       SP, SP, #8            ; [DPU_V7M3_PIPE]  ; [ORIG 16-BIT INS]
    1988                            .dwcfi  cfa_offset, 0
    1989                    $C$DW$106       .dwtag  DW_TAG_TI_branch
    1990                            .dwattr $C$DW$106, DW_AT_low_pc(0x00)
    1991                            .dwattr $C$DW$106, DW_AT_TI_return
    1992                    
    1993 00000324 4770              BX        LR                    ; [DPU_V7M3_PIPE]  ; [ORIG 16-BIT INS]
    1994                            ; BRANCH OCCURS                  ; [] 
    1995                            .dwattr $C$DW$101, DW_AT_TI_end_file("../driverlib/adc.c")
    1996                            .dwattr $C$DW$101, DW_AT_TI_end_line(0x2da)
    1997                            .dwattr $C$DW$101, DW_AT_TI_end_column(0x01)
    1998                            .dwendentry
    1999                            .dwendtag $C$DW$101
    2000                    
    2001 00000326                   .sect   ".text"
    2002                            .clink
    2003                            .thumbfunc ADCSequenceOverflowClear
    2004 00000326                   .thumb
    2005                            .global ADCSequenceOverflowClear
    2006                    
    2007                    $C$DW$107       .dwtag  DW_TAG_subprogram
    2008                            .dwattr $C$DW$107, DW_AT_name("ADCSequenceOverflowClear")
    2009                            .dwattr $C$DW$107, DW_AT_low_pc(ADCSequenceOverflowClear)
    2010                            .dwattr $C$DW$107, DW_AT_high_pc(0x00)
    2011                            .dwattr $C$DW$107, DW_AT_TI_symbol_name("ADCSequenceOverflowClear")
    2012                            .dwattr $C$DW$107, DW_AT_external
    2013                            .dwattr $C$DW$107, DW_AT_TI_begin_file("../driverlib/adc.c")
    2014                            .dwattr $C$DW$107, DW_AT_TI_begin_line(0x2eb)
    2015                            .dwattr $C$DW$107, DW_AT_TI_begin_column(0x01)
    2016                            .dwattr $C$DW$107, DW_AT_decl_file("../driverlib/adc.c")
    2017                            .dwattr $C$DW$107, DW_AT_decl_line(0x2eb)
    2018                            .dwattr $C$DW$107, DW_AT_decl_column(0x01)
    2019                            .dwattr $C$DW$107, DW_AT_TI_max_frame_size(0x08)
    2020                            .dwpsn  file "../driverlib/adc.c",line 748,column 1,is_stmt,address ADCSequenceOverflowClear,i
    2021                    
    2022                            .dwfde $C$DW$CIE, ADCSequenceOverflowClear
    2023                    $C$DW$108       .dwtag  DW_TAG_formal_parameter
    2024                            .dwattr $C$DW$108, DW_AT_name("ui32Base")
    2025                            .dwattr $C$DW$108, DW_AT_TI_symbol_name("ui32Base")
    2026                            .dwattr $C$DW$108, DW_AT_type(*$C$DW$T$27)
    2027                            .dwattr $C$DW$108, DW_AT_location[DW_OP_reg0]
    2028                    
    2029                    $C$DW$109       .dwtag  DW_TAG_formal_parameter
    2030                            .dwattr $C$DW$109, DW_AT_name("ui32SequenceNum")
    2031                            .dwattr $C$DW$109, DW_AT_TI_symbol_name("ui32SequenceNum")
    2032                            .dwattr $C$DW$109, DW_AT_type(*$C$DW$T$27)
    2033                            .dwattr $C$DW$109, DW_AT_location[DW_OP_reg1]
    2034                    
    2035                    ;----------------------------------------------------------------------
TI ARM Assembler Unix v18.1.1 Fri Jul  3 20:08:23 2020

Tools Copyright (c) 1996-2017 Texas Instruments Incorporated
adc.asm                                                              PAGE   38

    2036                    ; 747 | ADCSequenceOverflowClear(uint32_t ui32Base, uint32_t ui32SequenceNum)  
    2037                    ;----------------------------------------------------------------------
    2038                    
    2039                    ;*****************************************************************************
    2040                    ;* FUNCTION NAME: ADCSequenceOverflowClear                                   *
    2041                    ;*                                                                           *
    2042                    ;*   Regs Modified     : A1,A2,A3,SP,SR                                      *
    2043                    ;*   Regs Used         : A1,A2,A3,SP,LR,SR                                   *
    2044                    ;*   Local Frame Size  : 0 Args + 8 Auto + 0 Save = 8 byte                   *
    2045                    ;*****************************************************************************
    2046 00000326           ADCSequenceOverflowClear:
    2047                    ;* --------------------------------------------------------------------------*
    2048                            .dwcfi  cfa_offset, 0
    2049 00000326 0D08F1AD          SUB       SP, SP, #8            ; [DPU_V7M3_PIPE]  ; [KEEP 32-BIT INS]
    2050                            .dwcfi  cfa_offset, 8
    2051                    $C$DW$110       .dwtag  DW_TAG_variable
    2052                            .dwattr $C$DW$110, DW_AT_name("ui32Base")
    2053                            .dwattr $C$DW$110, DW_AT_TI_symbol_name("ui32Base")
    2054                            .dwattr $C$DW$110, DW_AT_type(*$C$DW$T$27)
    2055                            .dwattr $C$DW$110, DW_AT_location[DW_OP_breg13 0]
    2056                    
    2057                    $C$DW$111       .dwtag  DW_TAG_variable
    2058                            .dwattr $C$DW$111, DW_AT_name("ui32SequenceNum")
    2059                            .dwattr $C$DW$111, DW_AT_TI_symbol_name("ui32SequenceNum")
    2060                            .dwattr $C$DW$111, DW_AT_type(*$C$DW$T$27)
    2061                            .dwattr $C$DW$111, DW_AT_location[DW_OP_breg13 4]
    2062                    
    2063                    ;----------------------------------------------------------------------
    2064                    ; 749 | //                                                                     
    2065                    ; 750 | // Check the arguments.                                                
    2066                    ; 751 | //                                                                     
    2067                    ; 752 | ASSERT((ui32Base == ADC0_BASE) || (ui32Base == ADC1_BASE));            
    2068                    ; 753 | ASSERT(ui32SequenceNum < 4);                                           
    2069                    ; 755 | //                                                                     
    2070                    ; 756 | // Clear the overflow condition for this sequence.                     
    2071                    ; 757 | //                                                                     
    2072                    ;----------------------------------------------------------------------
    2073 0000032a 9101              STR       A2, [SP, #4]          ; [DPU_V7M3_PIPE] |748|  ; [ORIG 16-BIT INS]
    2074 0000032c 9000              STR       A1, [SP, #0]          ; [DPU_V7M3_PIPE] |748|  ; [ORIG 16-BIT INS]
    2075                            .dwpsn  file "../driverlib/adc.c",line 758,column 5,is_stmt,isa 1
    2076                    ;----------------------------------------------------------------------
    2077                    ; 758 | HWREG(ui32Base + ADC_O_OSTAT) = 1 << ui32SequenceNum;                  
    2078                    ;----------------------------------------------------------------------
    2079 0000032e 9A01              LDR       A3, [SP, #4]          ; [DPU_V7M3_PIPE] |758|  ; [ORIG 16-BIT INS]
    2080 00000330 9900              LDR       A2, [SP, #0]          ; [DPU_V7M3_PIPE] |758|  ; [ORIG 16-BIT INS]
    2081 00000332 2001              MOVS      A1, #1                ; [DPU_V7M3_PIPE] |758|  ; [ORIG 16-BIT INS]
    2082 00000334 4090              LSLS      A1, A1, A3            ; [DPU_V7M3_PIPE] |758|  ; [ORIG 16-BIT INS]
    2083 00000336 6108              STR       A1, [A2, #16]         ; [DPU_V7M3_PIPE] |758|  ; [ORIG 16-BIT INS]
    2084                            .dwpsn  file "../driverlib/adc.c",line 759,column 1,is_stmt,isa 1
    2085 00000338 B002              ADD       SP, SP, #8            ; [DPU_V7M3_PIPE]  ; [ORIG 16-BIT INS]
    2086                            .dwcfi  cfa_offset, 0
    2087                    $C$DW$112       .dwtag  DW_TAG_TI_branch
    2088                            .dwattr $C$DW$112, DW_AT_low_pc(0x00)
    2089                            .dwattr $C$DW$112, DW_AT_TI_return
    2090                    
TI ARM Assembler Unix v18.1.1 Fri Jul  3 20:08:23 2020

Tools Copyright (c) 1996-2017 Texas Instruments Incorporated
adc.asm                                                              PAGE   39

    2091 0000033a 4770              BX        LR                    ; [DPU_V7M3_PIPE]  ; [ORIG 16-BIT INS]
    2092                            ; BRANCH OCCURS                  ; [] 
    2093                            .dwattr $C$DW$107, DW_AT_TI_end_file("../driverlib/adc.c")
    2094                            .dwattr $C$DW$107, DW_AT_TI_end_line(0x2f7)
    2095                            .dwattr $C$DW$107, DW_AT_TI_end_column(0x01)
    2096                            .dwendentry
    2097                            .dwendtag $C$DW$107
    2098                    
    2099 0000033c                   .sect   ".text"
    2100                            .clink
    2101                            .thumbfunc ADCSequenceUnderflow
    2102 0000033c                   .thumb
    2103                            .global ADCSequenceUnderflow
    2104                    
    2105                    $C$DW$113       .dwtag  DW_TAG_subprogram
    2106                            .dwattr $C$DW$113, DW_AT_name("ADCSequenceUnderflow")
    2107                            .dwattr $C$DW$113, DW_AT_low_pc(ADCSequenceUnderflow)
    2108                            .dwattr $C$DW$113, DW_AT_high_pc(0x00)
    2109                            .dwattr $C$DW$113, DW_AT_TI_symbol_name("ADCSequenceUnderflow")
    2110                            .dwattr $C$DW$113, DW_AT_external
    2111                            .dwattr $C$DW$113, DW_AT_type(*$C$DW$T$94)
    2112                            .dwattr $C$DW$113, DW_AT_TI_begin_file("../driverlib/adc.c")
    2113                            .dwattr $C$DW$113, DW_AT_TI_begin_line(0x308)
    2114                            .dwattr $C$DW$113, DW_AT_TI_begin_column(0x01)
    2115                            .dwattr $C$DW$113, DW_AT_decl_file("../driverlib/adc.c")
    2116                            .dwattr $C$DW$113, DW_AT_decl_line(0x308)
    2117                            .dwattr $C$DW$113, DW_AT_decl_column(0x01)
    2118                            .dwattr $C$DW$113, DW_AT_TI_max_frame_size(0x08)
    2119                            .dwpsn  file "../driverlib/adc.c",line 777,column 1,is_stmt,address ADCSequenceUnderflow,isa 1
    2120                    
    2121                            .dwfde $C$DW$CIE, ADCSequenceUnderflow
    2122                    $C$DW$114       .dwtag  DW_TAG_formal_parameter
    2123                            .dwattr $C$DW$114, DW_AT_name("ui32Base")
    2124                            .dwattr $C$DW$114, DW_AT_TI_symbol_name("ui32Base")
    2125                            .dwattr $C$DW$114, DW_AT_type(*$C$DW$T$27)
    2126                            .dwattr $C$DW$114, DW_AT_location[DW_OP_reg0]
    2127                    
    2128                    $C$DW$115       .dwtag  DW_TAG_formal_parameter
    2129                            .dwattr $C$DW$115, DW_AT_name("ui32SequenceNum")
    2130                            .dwattr $C$DW$115, DW_AT_TI_symbol_name("ui32SequenceNum")
    2131                            .dwattr $C$DW$115, DW_AT_type(*$C$DW$T$27)
    2132                            .dwattr $C$DW$115, DW_AT_location[DW_OP_reg1]
    2133                    
    2134                    ;----------------------------------------------------------------------
    2135                    ; 776 | ADCSequenceUnderflow(uint32_t ui32Base, uint32_t ui32SequenceNum)      
    2136                    ;----------------------------------------------------------------------
    2137                    
    2138                    ;*****************************************************************************
    2139                    ;* FUNCTION NAME: ADCSequenceUnderflow                                       *
    2140                    ;*                                                                           *
    2141                    ;*   Regs Modified     : A1,A2,A3,SP,SR                                      *
    2142                    ;*   Regs Used         : A1,A2,A3,SP,LR,SR                                   *
    2143                    ;*   Local Frame Size  : 0 Args + 8 Auto + 0 Save = 8 byte                   *
    2144                    ;*****************************************************************************
    2145 0000033c           ADCSequenceUnderflow:
TI ARM Assembler Unix v18.1.1 Fri Jul  3 20:08:23 2020

Tools Copyright (c) 1996-2017 Texas Instruments Incorporated
adc.asm                                                              PAGE   40

    2146                    ;* --------------------------------------------------------------------------*
    2147                            .dwcfi  cfa_offset, 0
    2148 0000033c 0D08F1AD          SUB       SP, SP, #8            ; [DPU_V7M3_PIPE]  ; [KEEP 32-BIT INS]
    2149                            .dwcfi  cfa_offset, 8
    2150                    $C$DW$116       .dwtag  DW_TAG_variable
    2151                            .dwattr $C$DW$116, DW_AT_name("ui32Base")
    2152                            .dwattr $C$DW$116, DW_AT_TI_symbol_name("ui32Base")
    2153                            .dwattr $C$DW$116, DW_AT_type(*$C$DW$T$27)
    2154                            .dwattr $C$DW$116, DW_AT_location[DW_OP_breg13 0]
    2155                    
    2156                    $C$DW$117       .dwtag  DW_TAG_variable
    2157                            .dwattr $C$DW$117, DW_AT_name("ui32SequenceNum")
    2158                            .dwattr $C$DW$117, DW_AT_TI_symbol_name("ui32SequenceNum")
    2159                            .dwattr $C$DW$117, DW_AT_type(*$C$DW$T$27)
    2160                            .dwattr $C$DW$117, DW_AT_location[DW_OP_breg13 4]
    2161                    
    2162                    ;----------------------------------------------------------------------
    2163                    ; 778 | //                                                                     
    2164                    ; 779 | // Check the arguments.                                                
    2165                    ; 780 | //                                                                     
    2166                    ; 781 | ASSERT((ui32Base == ADC0_BASE) || (ui32Base == ADC1_BASE));            
    2167                    ; 782 | ASSERT(ui32SequenceNum < 4);                                           
    2168                    ; 784 | //                                                                     
    2169                    ; 785 | // Determine if there was an underflow on this sequence.               
    2170                    ; 786 | //                                                                     
    2171                    ;----------------------------------------------------------------------
    2172 00000340 9101              STR       A2, [SP, #4]          ; [DPU_V7M3_PIPE] |777|  ; [ORIG 16-BIT INS]
    2173 00000342 9000              STR       A1, [SP, #0]          ; [DPU_V7M3_PIPE] |777|  ; [ORIG 16-BIT INS]
    2174                            .dwpsn  file "../driverlib/adc.c",line 787,column 5,is_stmt,isa 1
    2175                    ;----------------------------------------------------------------------
    2176                    ; 787 | return(HWREG(ui32Base + ADC_O_USTAT) & (1 << ui32SequenceNum));        
    2177                    ;----------------------------------------------------------------------
    2178 00000344 9800              LDR       A1, [SP, #0]          ; [DPU_V7M3_PIPE] |787|  ; [ORIG 16-BIT INS]
    2179 00000346 9A01              LDR       A3, [SP, #4]          ; [DPU_V7M3_PIPE] |787|  ; [ORIG 16-BIT INS]
    2180 00000348 6981              LDR       A2, [A1, #24]         ; [DPU_V7M3_PIPE] |787|  ; [ORIG 16-BIT INS]
    2181 0000034a 2001              MOVS      A1, #1                ; [DPU_V7M3_PIPE] |787|  ; [ORIG 16-BIT INS]
    2182 0000034c 4090              LSLS      A1, A1, A3            ; [DPU_V7M3_PIPE] |787|  ; [ORIG 16-BIT INS]
    2183 0000034e 4008              ANDS      A1, A1, A2            ; [DPU_V7M3_PIPE] |787|  ; [ORIG 16-BIT INS]
    2184                            .dwpsn  file "../driverlib/adc.c",line 788,column 1,is_stmt,isa 1
    2185 00000350 B002              ADD       SP, SP, #8            ; [DPU_V7M3_PIPE]  ; [ORIG 16-BIT INS]
    2186                            .dwcfi  cfa_offset, 0
    2187                    $C$DW$118       .dwtag  DW_TAG_TI_branch
    2188                            .dwattr $C$DW$118, DW_AT_low_pc(0x00)
    2189                            .dwattr $C$DW$118, DW_AT_TI_return
    2190                    
    2191 00000352 4770              BX        LR                    ; [DPU_V7M3_PIPE]  ; [ORIG 16-BIT INS]
    2192                            ; BRANCH OCCURS                  ; [] 
    2193                            .dwattr $C$DW$113, DW_AT_TI_end_file("../driverlib/adc.c")
    2194                            .dwattr $C$DW$113, DW_AT_TI_end_line(0x314)
    2195                            .dwattr $C$DW$113, DW_AT_TI_end_column(0x01)
    2196                            .dwendentry
    2197                            .dwendtag $C$DW$113
    2198                    
    2199 00000354                   .sect   ".text"
    2200                            .clink
TI ARM Assembler Unix v18.1.1 Fri Jul  3 20:08:23 2020

Tools Copyright (c) 1996-2017 Texas Instruments Incorporated
adc.asm                                                              PAGE   41

    2201                            .thumbfunc ADCSequenceUnderflowClear
    2202 00000354                   .thumb
    2203                            .global ADCSequenceUnderflowClear
    2204                    
    2205                    $C$DW$119       .dwtag  DW_TAG_subprogram
    2206                            .dwattr $C$DW$119, DW_AT_name("ADCSequenceUnderflowClear")
    2207                            .dwattr $C$DW$119, DW_AT_low_pc(ADCSequenceUnderflowClear)
    2208                            .dwattr $C$DW$119, DW_AT_high_pc(0x00)
    2209                            .dwattr $C$DW$119, DW_AT_TI_symbol_name("ADCSequenceUnderflowClear")
    2210                            .dwattr $C$DW$119, DW_AT_external
    2211                            .dwattr $C$DW$119, DW_AT_TI_begin_file("../driverlib/adc.c")
    2212                            .dwattr $C$DW$119, DW_AT_TI_begin_line(0x325)
    2213                            .dwattr $C$DW$119, DW_AT_TI_begin_column(0x01)
    2214                            .dwattr $C$DW$119, DW_AT_decl_file("../driverlib/adc.c")
    2215                            .dwattr $C$DW$119, DW_AT_decl_line(0x325)
    2216                            .dwattr $C$DW$119, DW_AT_decl_column(0x01)
    2217                            .dwattr $C$DW$119, DW_AT_TI_max_frame_size(0x08)
    2218                            .dwpsn  file "../driverlib/adc.c",line 806,column 1,is_stmt,address ADCSequenceUnderflowClear,
    2219                    
    2220                            .dwfde $C$DW$CIE, ADCSequenceUnderflowClear
    2221                    $C$DW$120       .dwtag  DW_TAG_formal_parameter
    2222                            .dwattr $C$DW$120, DW_AT_name("ui32Base")
    2223                            .dwattr $C$DW$120, DW_AT_TI_symbol_name("ui32Base")
    2224                            .dwattr $C$DW$120, DW_AT_type(*$C$DW$T$27)
    2225                            .dwattr $C$DW$120, DW_AT_location[DW_OP_reg0]
    2226                    
    2227                    $C$DW$121       .dwtag  DW_TAG_formal_parameter
    2228                            .dwattr $C$DW$121, DW_AT_name("ui32SequenceNum")
    2229                            .dwattr $C$DW$121, DW_AT_TI_symbol_name("ui32SequenceNum")
    2230                            .dwattr $C$DW$121, DW_AT_type(*$C$DW$T$27)
    2231                            .dwattr $C$DW$121, DW_AT_location[DW_OP_reg1]
    2232                    
    2233                    ;----------------------------------------------------------------------
    2234                    ; 805 | ADCSequenceUnderflowClear(uint32_t ui32Base, uint32_t ui32SequenceNum) 
    2235                    ;----------------------------------------------------------------------
    2236                    
    2237                    ;*****************************************************************************
    2238                    ;* FUNCTION NAME: ADCSequenceUnderflowClear                                  *
    2239                    ;*                                                                           *
    2240                    ;*   Regs Modified     : A1,A2,A3,SP,SR                                      *
    2241                    ;*   Regs Used         : A1,A2,A3,SP,LR,SR                                   *
    2242                    ;*   Local Frame Size  : 0 Args + 8 Auto + 0 Save = 8 byte                   *
    2243                    ;*****************************************************************************
    2244 00000354           ADCSequenceUnderflowClear:
    2245                    ;* --------------------------------------------------------------------------*
    2246                            .dwcfi  cfa_offset, 0
    2247 00000354 0D08F1AD          SUB       SP, SP, #8            ; [DPU_V7M3_PIPE]  ; [KEEP 32-BIT INS]
    2248                            .dwcfi  cfa_offset, 8
    2249                    $C$DW$122       .dwtag  DW_TAG_variable
    2250                            .dwattr $C$DW$122, DW_AT_name("ui32Base")
    2251                            .dwattr $C$DW$122, DW_AT_TI_symbol_name("ui32Base")
    2252                            .dwattr $C$DW$122, DW_AT_type(*$C$DW$T$27)
    2253                            .dwattr $C$DW$122, DW_AT_location[DW_OP_breg13 0]
    2254                    
    2255                    $C$DW$123       .dwtag  DW_TAG_variable
TI ARM Assembler Unix v18.1.1 Fri Jul  3 20:08:23 2020

Tools Copyright (c) 1996-2017 Texas Instruments Incorporated
adc.asm                                                              PAGE   42

    2256                            .dwattr $C$DW$123, DW_AT_name("ui32SequenceNum")
    2257                            .dwattr $C$DW$123, DW_AT_TI_symbol_name("ui32SequenceNum")
    2258                            .dwattr $C$DW$123, DW_AT_type(*$C$DW$T$27)
    2259                            .dwattr $C$DW$123, DW_AT_location[DW_OP_breg13 4]
    2260                    
    2261                    ;----------------------------------------------------------------------
    2262                    ; 807 | //                                                                     
    2263                    ; 808 | // Check the arguments.                                                
    2264                    ; 809 | //                                                                     
    2265                    ; 810 | ASSERT((ui32Base == ADC0_BASE) || (ui32Base == ADC1_BASE));            
    2266                    ; 811 | ASSERT(ui32SequenceNum < 4);                                           
    2267                    ; 813 | //                                                                     
    2268                    ; 814 | // Clear the underflow condition for this sequence.                    
    2269                    ; 815 | //                                                                     
    2270                    ;----------------------------------------------------------------------
    2271 00000358 9101              STR       A2, [SP, #4]          ; [DPU_V7M3_PIPE] |806|  ; [ORIG 16-BIT INS]
    2272 0000035a 9000              STR       A1, [SP, #0]          ; [DPU_V7M3_PIPE] |806|  ; [ORIG 16-BIT INS]
    2273                            .dwpsn  file "../driverlib/adc.c",line 816,column 5,is_stmt,isa 1
    2274                    ;----------------------------------------------------------------------
    2275                    ; 816 | HWREG(ui32Base + ADC_O_USTAT) = 1 << ui32SequenceNum;                  
    2276                    ;----------------------------------------------------------------------
    2277 0000035c 9A01              LDR       A3, [SP, #4]          ; [DPU_V7M3_PIPE] |816|  ; [ORIG 16-BIT INS]
    2278 0000035e 9900              LDR       A2, [SP, #0]          ; [DPU_V7M3_PIPE] |816|  ; [ORIG 16-BIT INS]
    2279 00000360 2001              MOVS      A1, #1                ; [DPU_V7M3_PIPE] |816|  ; [ORIG 16-BIT INS]
    2280 00000362 4090              LSLS      A1, A1, A3            ; [DPU_V7M3_PIPE] |816|  ; [ORIG 16-BIT INS]
    2281 00000364 6188              STR       A1, [A2, #24]         ; [DPU_V7M3_PIPE] |816|  ; [ORIG 16-BIT INS]
    2282                            .dwpsn  file "../driverlib/adc.c",line 817,column 1,is_stmt,isa 1
    2283 00000366 B002              ADD       SP, SP, #8            ; [DPU_V7M3_PIPE]  ; [ORIG 16-BIT INS]
    2284                            .dwcfi  cfa_offset, 0
    2285                    $C$DW$124       .dwtag  DW_TAG_TI_branch
    2286                            .dwattr $C$DW$124, DW_AT_low_pc(0x00)
    2287                            .dwattr $C$DW$124, DW_AT_TI_return
    2288                    
    2289 00000368 4770              BX        LR                    ; [DPU_V7M3_PIPE]  ; [ORIG 16-BIT INS]
    2290                            ; BRANCH OCCURS                  ; [] 
    2291                            .dwattr $C$DW$119, DW_AT_TI_end_file("../driverlib/adc.c")
    2292                            .dwattr $C$DW$119, DW_AT_TI_end_line(0x331)
    2293                            .dwattr $C$DW$119, DW_AT_TI_end_column(0x01)
    2294                            .dwendentry
    2295                            .dwendtag $C$DW$119
    2296                    
    2297 0000036a                   .sect   ".text"
    2298                            .clink
    2299                            .thumbfunc ADCSequenceDataGet
    2300 0000036a                   .thumb
    2301                            .global ADCSequenceDataGet
    2302                    
    2303                    $C$DW$125       .dwtag  DW_TAG_subprogram
    2304                            .dwattr $C$DW$125, DW_AT_name("ADCSequenceDataGet")
    2305                            .dwattr $C$DW$125, DW_AT_low_pc(ADCSequenceDataGet)
    2306                            .dwattr $C$DW$125, DW_AT_high_pc(0x00)
    2307                            .dwattr $C$DW$125, DW_AT_TI_symbol_name("ADCSequenceDataGet")
    2308                            .dwattr $C$DW$125, DW_AT_external
    2309                            .dwattr $C$DW$125, DW_AT_type(*$C$DW$T$94)
    2310                            .dwattr $C$DW$125, DW_AT_TI_begin_file("../driverlib/adc.c")
TI ARM Assembler Unix v18.1.1 Fri Jul  3 20:08:23 2020

Tools Copyright (c) 1996-2017 Texas Instruments Incorporated
adc.asm                                                              PAGE   43

    2311                            .dwattr $C$DW$125, DW_AT_TI_begin_line(0x346)
    2312                            .dwattr $C$DW$125, DW_AT_TI_begin_column(0x01)
    2313                            .dwattr $C$DW$125, DW_AT_decl_file("../driverlib/adc.c")
    2314                            .dwattr $C$DW$125, DW_AT_decl_line(0x346)
    2315                            .dwattr $C$DW$125, DW_AT_decl_column(0x01)
    2316                            .dwattr $C$DW$125, DW_AT_TI_max_frame_size(0x10)
    2317                            .dwpsn  file "../driverlib/adc.c",line 840,column 1,is_stmt,address ADCSequenceDataGet,isa 1
    2318                    
    2319                            .dwfde $C$DW$CIE, ADCSequenceDataGet
    2320                    $C$DW$126       .dwtag  DW_TAG_formal_parameter
    2321                            .dwattr $C$DW$126, DW_AT_name("ui32Base")
    2322                            .dwattr $C$DW$126, DW_AT_TI_symbol_name("ui32Base")
    2323                            .dwattr $C$DW$126, DW_AT_type(*$C$DW$T$27)
    2324                            .dwattr $C$DW$126, DW_AT_location[DW_OP_reg0]
    2325                    
    2326                    $C$DW$127       .dwtag  DW_TAG_formal_parameter
    2327                            .dwattr $C$DW$127, DW_AT_name("ui32SequenceNum")
    2328                            .dwattr $C$DW$127, DW_AT_TI_symbol_name("ui32SequenceNum")
    2329                            .dwattr $C$DW$127, DW_AT_type(*$C$DW$T$27)
    2330                            .dwattr $C$DW$127, DW_AT_location[DW_OP_reg1]
    2331                    
    2332                    $C$DW$128       .dwtag  DW_TAG_formal_parameter
    2333                            .dwattr $C$DW$128, DW_AT_name("pui32Buffer")
    2334                            .dwattr $C$DW$128, DW_AT_TI_symbol_name("pui32Buffer")
    2335                            .dwattr $C$DW$128, DW_AT_type(*$C$DW$T$36)
    2336                            .dwattr $C$DW$128, DW_AT_location[DW_OP_reg2]
    2337                    
    2338                    ;----------------------------------------------------------------------
    2339                    ; 838 | ADCSequenceDataGet(uint32_t ui32Base, uint32_t ui32SequenceNum,        
    2340                    ; 839 | uint32_t *pui32Buffer)                                                 
    2341                    ;----------------------------------------------------------------------
    2342                    
    2343                    ;*****************************************************************************
    2344                    ;* FUNCTION NAME: ADCSequenceDataGet                                         *
    2345                    ;*                                                                           *
    2346                    ;*   Regs Modified     : A1,A2,A3,SP,SR                                      *
    2347                    ;*   Regs Used         : A1,A2,A3,SP,LR,SR                                   *
    2348                    ;*   Local Frame Size  : 0 Args + 16 Auto + 0 Save = 16 byte                 *
    2349                    ;*****************************************************************************
    2350 0000036a           ADCSequenceDataGet:
    2351                    ;* --------------------------------------------------------------------------*
    2352                            .dwcfi  cfa_offset, 0
    2353 0000036a 0D10F1AD          SUB       SP, SP, #16           ; [DPU_V7M3_PIPE]  ; [KEEP 32-BIT INS]
    2354                            .dwcfi  cfa_offset, 16
    2355                    $C$DW$129       .dwtag  DW_TAG_variable
    2356                            .dwattr $C$DW$129, DW_AT_name("ui32Base")
    2357                            .dwattr $C$DW$129, DW_AT_TI_symbol_name("ui32Base")
    2358                            .dwattr $C$DW$129, DW_AT_type(*$C$DW$T$27)
    2359                            .dwattr $C$DW$129, DW_AT_location[DW_OP_breg13 0]
    2360                    
    2361                    $C$DW$130       .dwtag  DW_TAG_variable
    2362                            .dwattr $C$DW$130, DW_AT_name("ui32SequenceNum")
    2363                            .dwattr $C$DW$130, DW_AT_TI_symbol_name("ui32SequenceNum")
    2364                            .dwattr $C$DW$130, DW_AT_type(*$C$DW$T$27)
    2365                            .dwattr $C$DW$130, DW_AT_location[DW_OP_breg13 4]
TI ARM Assembler Unix v18.1.1 Fri Jul  3 20:08:23 2020

Tools Copyright (c) 1996-2017 Texas Instruments Incorporated
adc.asm                                                              PAGE   44

    2366                    
    2367                    $C$DW$131       .dwtag  DW_TAG_variable
    2368                            .dwattr $C$DW$131, DW_AT_name("pui32Buffer")
    2369                            .dwattr $C$DW$131, DW_AT_TI_symbol_name("pui32Buffer")
    2370                            .dwattr $C$DW$131, DW_AT_type(*$C$DW$T$36)
    2371                            .dwattr $C$DW$131, DW_AT_location[DW_OP_breg13 8]
    2372                    
    2373                    $C$DW$132       .dwtag  DW_TAG_variable
    2374                            .dwattr $C$DW$132, DW_AT_name("ui32Count")
    2375                            .dwattr $C$DW$132, DW_AT_TI_symbol_name("ui32Count")
    2376                            .dwattr $C$DW$132, DW_AT_type(*$C$DW$T$27)
    2377                            .dwattr $C$DW$132, DW_AT_location[DW_OP_breg13 12]
    2378                    
    2379                    ;----------------------------------------------------------------------
    2380                    ; 841 | uint32_t ui32Count;                                                    
    2381                    ; 843 | //                                                                     
    2382                    ; 844 | // Check the arguments.                                                
    2383                    ; 845 | //                                                                     
    2384                    ; 846 | ASSERT((ui32Base == ADC0_BASE) || (ui32Base == ADC1_BASE));            
    2385                    ; 847 | ASSERT(ui32SequenceNum < 4);                                           
    2386                    ; 849 | //                                                                     
    2387                    ; 850 | // Get the offset of the sequence to be read.                          
    2388                    ; 851 | //                                                                     
    2389                    ;----------------------------------------------------------------------
    2390 0000036e 9202              STR       A3, [SP, #8]          ; [DPU_V7M3_PIPE] |840|  ; [ORIG 16-BIT INS]
    2391 00000370 9101              STR       A2, [SP, #4]          ; [DPU_V7M3_PIPE] |840|  ; [ORIG 16-BIT INS]
    2392 00000372 9000              STR       A1, [SP, #0]          ; [DPU_V7M3_PIPE] |840|  ; [ORIG 16-BIT INS]
    2393                            .dwpsn  file "../driverlib/adc.c",line 852,column 5,is_stmt,isa 1
    2394                    ;----------------------------------------------------------------------
    2395                    ; 852 | ui32Base += ADC_SEQ + (ADC_SEQ_STEP * ui32SequenceNum);                
    2396                    ; 854 | //                                                                     
    2397                    ; 855 | // Read samples from the FIFO until it is empty.                       
    2398                    ; 856 | //                                                                     
    2399                    ;----------------------------------------------------------------------
    2400 00000374 9901              LDR       A2, [SP, #4]          ; [DPU_V7M3_PIPE] |852|  ; [ORIG 16-BIT INS]
    2401 00000376 9800              LDR       A1, [SP, #0]          ; [DPU_V7M3_PIPE] |852|  ; [ORIG 16-BIT INS]
    2402 00000378 1041EB00          ADD       A1, A1, A2, LSL #5    ; [DPU_V7M3_PIPE] |852|  ; [KEEP 32-BIT INS]
    2403 0000037c 3040              ADDS      A1, A1, #64           ; [DPU_V7M3_PIPE] |852|  ; [ORIG 16-BIT INS]
    2404 0000037e 9000              STR       A1, [SP, #0]          ; [DPU_V7M3_PIPE] |852|  ; [ORIG 16-BIT INS]
    2405                            .dwpsn  file "../driverlib/adc.c",line 857,column 5,is_stmt,isa 1
    2406                    ;----------------------------------------------------------------------
    2407                    ; 857 | ui32Count = 0;                                                         
    2408                    ;----------------------------------------------------------------------
    2409 00000380 2000              MOVS      A1, #0                ; [DPU_V7M3_PIPE] |857|  ; [ORIG 16-BIT INS]
    2410 00000382 9003              STR       A1, [SP, #12]         ; [DPU_V7M3_PIPE] |857|  ; [ORIG 16-BIT INS]
    2411                            .dwpsn  file "../driverlib/adc.c",line 858,column 5,is_stmt,isa 1
    2412                    ;----------------------------------------------------------------------
    2413                    ; 858 | while(!(HWREG(ui32Base + ADC_SSFSTAT) & ADC_SSFSTAT0_EMPTY) &&         
    2414                    ; 859 |       (ui32Count < 8))                                                 
    2415                    ; 861 |     //                                                                 
    2416                    ; 862 |     // Read the FIFO and copy it to the destination.                   
    2417                    ; 863 |     //                                                                 
    2418                    ;----------------------------------------------------------------------
    2419 00000384 E008              B         ||$C$L14||            ; [DPU_V7M3_PIPE] |858|  ; [ORIG 16-BIT INS]
    2420                            ; BRANCH OCCURS {||$C$L14||}     ; [] |858| 
TI ARM Assembler Unix v18.1.1 Fri Jul  3 20:08:23 2020

Tools Copyright (c) 1996-2017 Texas Instruments Incorporated
adc.asm                                                              PAGE   45

    2421                    ;* --------------------------------------------------------------------------*
    2422 00000386           ||$C$L13||:    
    2423                            .dwpsn  file "../driverlib/adc.c",line 864,column 9,is_stmt,isa 1
    2424                    ;----------------------------------------------------------------------
    2425                    ; 864 | *pui32Buffer++ = HWREG(ui32Base + ADC_SSFIFO);                         
    2426                    ; 866 | //                                                                     
    2427                    ; 867 | // Increment the count of samples read.                                
    2428                    ; 868 | //                                                                     
    2429                    ;----------------------------------------------------------------------
    2430 00000386 9802              LDR       A1, [SP, #8]          ; [DPU_V7M3_PIPE] |864|  ; [ORIG 16-BIT INS]
    2431 00000388 9900              LDR       A2, [SP, #0]          ; [DPU_V7M3_PIPE] |864|  ; [ORIG 16-BIT INS]
    2432 0000038a 1D02              ADDS      A3, A1, #4            ; [DPU_V7M3_PIPE] |864|  ; [ORIG 16-BIT INS]
    2433 0000038c 9202              STR       A3, [SP, #8]          ; [DPU_V7M3_PIPE] |864|  ; [ORIG 16-BIT INS]
    2434 0000038e 6889              LDR       A2, [A2, #8]          ; [DPU_V7M3_PIPE] |864|  ; [ORIG 16-BIT INS]
    2435 00000390 6001              STR       A2, [A1, #0]          ; [DPU_V7M3_PIPE] |864|  ; [ORIG 16-BIT INS]
    2436                            .dwpsn  file "../driverlib/adc.c",line 869,column 9,is_stmt,isa 1
    2437                    ;----------------------------------------------------------------------
    2438                    ; 869 | ui32Count++;                                                           
    2439                    ; 872 | //                                                                     
    2440                    ; 873 | // Return the number of samples read.                                  
    2441                    ; 874 | //                                                                     
    2442                    ;----------------------------------------------------------------------
    2443 00000392 9803              LDR       A1, [SP, #12]         ; [DPU_V7M3_PIPE] |869|  ; [ORIG 16-BIT INS]
    2444 00000394 1C40              ADDS      A1, A1, #1            ; [DPU_V7M3_PIPE] |869|  ; [ORIG 16-BIT INS]
    2445 00000396 9003              STR       A1, [SP, #12]         ; [DPU_V7M3_PIPE] |869|  ; [ORIG 16-BIT INS]
    2446                    ;* --------------------------------------------------------------------------*
    2447                    ;*   BEGIN LOOP ||$C$L14||
    2448                    ;* --------------------------------------------------------------------------*
    2449 00000398           ||$C$L14||:    
    2450                            .dwpsn  file "../driverlib/adc.c",line 858,column 11,is_stmt,isa 1
    2451 00000398 9800              LDR       A1, [SP, #0]          ; [DPU_V7M3_PIPE] |858|  ; [ORIG 16-BIT INS]
    2452 0000039a 68C0              LDR       A1, [A1, #12]         ; [DPU_V7M3_PIPE] |858|  ; [ORIG 16-BIT INS]
    2453 0000039c 0A40              LSRS      A1, A1, #9            ; [DPU_V7M3_PIPE] |858|  ; [ORIG 16-BIT INS]
    2454 0000039e D202              BCS       ||$C$L15||            ; [DPU_V7M3_PIPE] |858|  ; [ORIG 16-BIT INS]
    2455                            ; BRANCHCC OCCURS {||$C$L15||}   ; [] |858| 
    2456                    ;* --------------------------------------------------------------------------*
    2457 000003a0 9803              LDR       A1, [SP, #12]         ; [DPU_V7M3_PIPE] |858|  ; [ORIG 16-BIT INS]
    2458 000003a2 2808              CMP       A1, #8                ; [DPU_V7M3_PIPE] |858|  ; [ORIG 16-BIT INS]
    2459 000003a4 D3EF              BCC       ||$C$L13||            ; [DPU_V7M3_PIPE] |858|  ; [ORIG 16-BIT INS]
    2460                            ; BRANCHCC OCCURS {||$C$L13||}   ; [] |858| 
    2461                    ;* --------------------------------------------------------------------------*
    2462 000003a6           ||$C$L15||:    
    2463                            .dwpsn  file "../driverlib/adc.c",line 875,column 5,is_stmt,isa 1
    2464                    ;----------------------------------------------------------------------
    2465                    ; 875 | return(ui32Count);                                                     
    2466                    ;----------------------------------------------------------------------
    2467 000003a6 9803              LDR       A1, [SP, #12]         ; [DPU_V7M3_PIPE] |875|  ; [ORIG 16-BIT INS]
    2468                            .dwpsn  file "../driverlib/adc.c",line 876,column 1,is_stmt,isa 1
    2469 000003a8 B004              ADD       SP, SP, #16           ; [DPU_V7M3_PIPE]  ; [ORIG 16-BIT INS]
    2470                            .dwcfi  cfa_offset, 0
    2471                    $C$DW$133       .dwtag  DW_TAG_TI_branch
    2472                            .dwattr $C$DW$133, DW_AT_low_pc(0x00)
    2473                            .dwattr $C$DW$133, DW_AT_TI_return
    2474                    
    2475 000003aa 4770              BX        LR                    ; [DPU_V7M3_PIPE]  ; [ORIG 16-BIT INS]
TI ARM Assembler Unix v18.1.1 Fri Jul  3 20:08:23 2020

Tools Copyright (c) 1996-2017 Texas Instruments Incorporated
adc.asm                                                              PAGE   46

    2476                            ; BRANCH OCCURS                  ; [] 
    2477                            .dwattr $C$DW$125, DW_AT_TI_end_file("../driverlib/adc.c")
    2478                            .dwattr $C$DW$125, DW_AT_TI_end_line(0x36c)
    2479                            .dwattr $C$DW$125, DW_AT_TI_end_column(0x01)
    2480                            .dwendentry
    2481                            .dwendtag $C$DW$125
    2482                    
    2483 000003ac                   .sect   ".text"
    2484                            .clink
    2485                            .thumbfunc ADCProcessorTrigger
    2486 000003ac                   .thumb
    2487                            .global ADCProcessorTrigger
    2488                    
    2489                    $C$DW$134       .dwtag  DW_TAG_subprogram
    2490                            .dwattr $C$DW$134, DW_AT_name("ADCProcessorTrigger")
    2491                            .dwattr $C$DW$134, DW_AT_low_pc(ADCProcessorTrigger)
    2492                            .dwattr $C$DW$134, DW_AT_high_pc(0x00)
    2493                            .dwattr $C$DW$134, DW_AT_TI_symbol_name("ADCProcessorTrigger")
    2494                            .dwattr $C$DW$134, DW_AT_external
    2495                            .dwattr $C$DW$134, DW_AT_TI_begin_file("../driverlib/adc.c")
    2496                            .dwattr $C$DW$134, DW_AT_TI_begin_line(0x382)
    2497                            .dwattr $C$DW$134, DW_AT_TI_begin_column(0x01)
    2498                            .dwattr $C$DW$134, DW_AT_decl_file("../driverlib/adc.c")
    2499                            .dwattr $C$DW$134, DW_AT_decl_line(0x382)
    2500                            .dwattr $C$DW$134, DW_AT_decl_column(0x01)
    2501                            .dwattr $C$DW$134, DW_AT_TI_max_frame_size(0x10)
    2502                            .dwpsn  file "../driverlib/adc.c",line 899,column 1,is_stmt,address ADCProcessorTrigger,isa 1
    2503                    
    2504                            .dwfde $C$DW$CIE, ADCProcessorTrigger
    2505                    $C$DW$135       .dwtag  DW_TAG_formal_parameter
    2506                            .dwattr $C$DW$135, DW_AT_name("ui32Base")
    2507                            .dwattr $C$DW$135, DW_AT_TI_symbol_name("ui32Base")
    2508                            .dwattr $C$DW$135, DW_AT_type(*$C$DW$T$27)
    2509                            .dwattr $C$DW$135, DW_AT_location[DW_OP_reg0]
    2510                    
    2511                    $C$DW$136       .dwtag  DW_TAG_formal_parameter
    2512                            .dwattr $C$DW$136, DW_AT_name("ui32SequenceNum")
    2513                            .dwattr $C$DW$136, DW_AT_TI_symbol_name("ui32SequenceNum")
    2514                            .dwattr $C$DW$136, DW_AT_type(*$C$DW$T$27)
    2515                            .dwattr $C$DW$136, DW_AT_location[DW_OP_reg1]
    2516                    
    2517                    ;----------------------------------------------------------------------
    2518                    ; 898 | ADCProcessorTrigger(uint32_t ui32Base, uint32_t ui32SequenceNum)       
    2519                    ;----------------------------------------------------------------------
    2520                    
    2521                    ;*****************************************************************************
    2522                    ;* FUNCTION NAME: ADCProcessorTrigger                                        *
    2523                    ;*                                                                           *
    2524                    ;*   Regs Modified     : A1,A2,A3,A4,V1,SP,SR                                *
    2525                    ;*   Regs Used         : A1,A2,A3,A4,V1,SP,LR,SR                             *
    2526                    ;*   Local Frame Size  : 0 Args + 8 Auto + 8 Save = 16 byte                  *
    2527                    ;*****************************************************************************
    2528 000003ac           ADCProcessorTrigger:
    2529                    ;* --------------------------------------------------------------------------*
    2530                            .dwcfi  cfa_offset, 0
TI ARM Assembler Unix v18.1.1 Fri Jul  3 20:08:23 2020

Tools Copyright (c) 1996-2017 Texas Instruments Incorporated
adc.asm                                                              PAGE   47

    2531 000003ac B51C              PUSH      {A3, A4, V1, LR}      ; [DPU_V7M3_PIPE]  ; [ORIG 16-BIT INS]
    2532                            .dwcfi  cfa_offset, 16
    2533                            .dwcfi  save_reg_to_mem, 14, -4
    2534                            .dwcfi  save_reg_to_mem, 4, -8
    2535                            .dwcfi  save_reg_to_mem, 3, -12
    2536                            .dwcfi  save_reg_to_mem, 2, -16
    2537                    $C$DW$137       .dwtag  DW_TAG_variable
    2538                            .dwattr $C$DW$137, DW_AT_name("ui32Base")
    2539                            .dwattr $C$DW$137, DW_AT_TI_symbol_name("ui32Base")
    2540                            .dwattr $C$DW$137, DW_AT_type(*$C$DW$T$27)
    2541                            .dwattr $C$DW$137, DW_AT_location[DW_OP_breg13 0]
    2542                    
    2543                    $C$DW$138       .dwtag  DW_TAG_variable
    2544                            .dwattr $C$DW$138, DW_AT_name("ui32SequenceNum")
    2545                            .dwattr $C$DW$138, DW_AT_TI_symbol_name("ui32SequenceNum")
    2546                            .dwattr $C$DW$138, DW_AT_type(*$C$DW$T$27)
    2547                            .dwattr $C$DW$138, DW_AT_location[DW_OP_breg13 4]
    2548                    
    2549                    ;----------------------------------------------------------------------
    2550                    ; 900 | //                                                                     
    2551                    ; 901 | // Check the arguments.                                                
    2552                    ; 902 | //                                                                     
    2553                    ; 903 | ASSERT((ui32Base == ADC0_BASE) || (ui32Base == ADC1_BASE));            
    2554                    ; 904 | ASSERT(ui32SequenceNum < 4);                                           
    2555                    ; 906 | //                                                                     
    2556                    ; 907 | // Generate a processor trigger for this sample sequence.              
    2557                    ; 908 | //                                                                     
    2558                    ;----------------------------------------------------------------------
    2559 000003ae 9101              STR       A2, [SP, #4]          ; [DPU_V7M3_PIPE] |899|  ; [ORIG 16-BIT INS]
    2560 000003b0 9000              STR       A1, [SP, #0]          ; [DPU_V7M3_PIPE] |899|  ; [ORIG 16-BIT INS]
    2561                            .dwpsn  file "../driverlib/adc.c",line 909,column 5,is_stmt,isa 1
    2562                    ;----------------------------------------------------------------------
    2563                    ; 909 | HWREG(ui32Base + ADC_O_PSSI) |= ((ui32SequenceNum & 0xffff0000) |      
    2564                    ; 910 |                                  (1 << (ui32SequenceNum & 0xf)));      
    2565                    ;----------------------------------------------------------------------
    2566 000003b2 9900              LDR       A2, [SP, #0]          ; [DPU_V7M3_PIPE] |909|  ; [ORIG 16-BIT INS]
    2567 000003b4 9A01              LDR       A3, [SP, #4]          ; [DPU_V7M3_PIPE] |909|  ; [ORIG 16-BIT INS]
    2568 000003b6 9801              LDR       A1, [SP, #4]          ; [DPU_V7M3_PIPE] |909|  ; [ORIG 16-BIT INS]
    2569 000003b8 3128              ADDS      A2, A2, #40           ; [DPU_V7M3_PIPE] |909|  ; [ORIG 16-BIT INS]
    2570 000003ba 680C              LDR       V1, [A2, #0]          ; [DPU_V7M3_PIPE] |909|  ; [ORIG 16-BIT INS]
    2571 000003bc 2301              MOVS      A4, #1                ; [DPU_V7M3_PIPE] |909|  ; [ORIG 16-BIT INS]
    2572 000003be 020FF002          AND       A3, A3, #15           ; [DPU_V7M3_PIPE] |909|  ; [KEEP 32-BIT INS]
    2573 000003c2 000FF36F          BFC       A1, #0, #16           ; [DPU_V7M3_PIPE] |909|  ; [KEEP 32-BIT INS]
    2574 000003c6 4093              LSLS      A4, A4, A3            ; [DPU_V7M3_PIPE] |909|  ; [ORIG 16-BIT INS]
    2575 000003c8 4320              ORRS      A1, A1, V1            ; [DPU_V7M3_PIPE] |909|  ; [ORIG 16-BIT INS]
    2576 000003ca 4303              ORRS      A4, A4, A1            ; [DPU_V7M3_PIPE] |909|  ; [ORIG 16-BIT INS]
    2577 000003cc 600B              STR       A4, [A2, #0]          ; [DPU_V7M3_PIPE] |909|  ; [ORIG 16-BIT INS]
    2578                            .dwpsn  file "../driverlib/adc.c",line 911,column 1,is_stmt,isa 1
    2579                    $C$DW$139       .dwtag  DW_TAG_TI_branch
    2580                            .dwattr $C$DW$139, DW_AT_low_pc(0x00)
    2581                            .dwattr $C$DW$139, DW_AT_TI_return
    2582                    
    2583 000003ce BD1C              POP       {A3, A4, V1, PC}      ; [DPU_V7M3_PIPE]  ; [ORIG 16-BIT INS]
    2584                            .dwcfi  cfa_offset, 0
    2585                            .dwcfi  restore_reg, 4
TI ARM Assembler Unix v18.1.1 Fri Jul  3 20:08:23 2020

Tools Copyright (c) 1996-2017 Texas Instruments Incorporated
adc.asm                                                              PAGE   48

    2586                            .dwcfi  restore_reg, 3
    2587                            .dwcfi  restore_reg, 2
    2588                            ; BRANCH OCCURS                  ; [] 
    2589                            .dwattr $C$DW$134, DW_AT_TI_end_file("../driverlib/adc.c")
    2590                            .dwattr $C$DW$134, DW_AT_TI_end_line(0x38f)
    2591                            .dwattr $C$DW$134, DW_AT_TI_end_column(0x01)
    2592                            .dwendentry
    2593                            .dwendtag $C$DW$134
    2594                    
    2595 000003d0                   .sect   ".text"
    2596                            .clink
    2597                            .thumbfunc ADCSoftwareOversampleConfigure
    2598 000003d0                   .thumb
    2599                            .global ADCSoftwareOversampleConfigure
    2600                    
    2601                    $C$DW$140       .dwtag  DW_TAG_subprogram
    2602                            .dwattr $C$DW$140, DW_AT_name("ADCSoftwareOversampleConfigure")
    2603                            .dwattr $C$DW$140, DW_AT_low_pc(ADCSoftwareOversampleConfigure)
    2604                            .dwattr $C$DW$140, DW_AT_high_pc(0x00)
    2605                            .dwattr $C$DW$140, DW_AT_TI_symbol_name("ADCSoftwareOversampleConfigure")
    2606                            .dwattr $C$DW$140, DW_AT_external
    2607                            .dwattr $C$DW$140, DW_AT_TI_begin_file("../driverlib/adc.c")
    2608                            .dwattr $C$DW$140, DW_AT_TI_begin_line(0x3a9)
    2609                            .dwattr $C$DW$140, DW_AT_TI_begin_column(0x01)
    2610                            .dwattr $C$DW$140, DW_AT_decl_file("../driverlib/adc.c")
    2611                            .dwattr $C$DW$140, DW_AT_decl_line(0x3a9)
    2612                            .dwattr $C$DW$140, DW_AT_decl_column(0x01)
    2613                            .dwattr $C$DW$140, DW_AT_TI_max_frame_size(0x18)
    2614                            .dwpsn  file "../driverlib/adc.c",line 939,column 1,is_stmt,address ADCSoftwareOversampleConfi
    2615                    
    2616                            .dwfde $C$DW$CIE, ADCSoftwareOversampleConfigure
    2617                    $C$DW$141       .dwtag  DW_TAG_formal_parameter
    2618                            .dwattr $C$DW$141, DW_AT_name("ui32Base")
    2619                            .dwattr $C$DW$141, DW_AT_TI_symbol_name("ui32Base")
    2620                            .dwattr $C$DW$141, DW_AT_type(*$C$DW$T$27)
    2621                            .dwattr $C$DW$141, DW_AT_location[DW_OP_reg0]
    2622                    
    2623                    $C$DW$142       .dwtag  DW_TAG_formal_parameter
    2624                            .dwattr $C$DW$142, DW_AT_name("ui32SequenceNum")
    2625                            .dwattr $C$DW$142, DW_AT_TI_symbol_name("ui32SequenceNum")
    2626                            .dwattr $C$DW$142, DW_AT_type(*$C$DW$T$27)
    2627                            .dwattr $C$DW$142, DW_AT_location[DW_OP_reg1]
    2628                    
    2629                    $C$DW$143       .dwtag  DW_TAG_formal_parameter
    2630                            .dwattr $C$DW$143, DW_AT_name("ui32Factor")
    2631                            .dwattr $C$DW$143, DW_AT_TI_symbol_name("ui32Factor")
    2632                            .dwattr $C$DW$143, DW_AT_type(*$C$DW$T$27)
    2633                            .dwattr $C$DW$143, DW_AT_location[DW_OP_reg2]
    2634                    
    2635                    ;----------------------------------------------------------------------
    2636                    ; 937 | ADCSoftwareOversampleConfigure(uint32_t ui32Base, uint32_t ui32Sequence
    2637                    ;     | Num,                                                                   
    2638                    ; 938 | uint32_t ui32Factor)                                                   
    2639                    ;----------------------------------------------------------------------
    2640                    
TI ARM Assembler Unix v18.1.1 Fri Jul  3 20:08:23 2020

Tools Copyright (c) 1996-2017 Texas Instruments Incorporated
adc.asm                                                              PAGE   49

    2641                    ;*****************************************************************************
    2642                    ;* FUNCTION NAME: ADCSoftwareOversampleConfigure                             *
    2643                    ;*                                                                           *
    2644                    ;*   Regs Modified     : A1,A2,A3,A4,SP,SR                                   *
    2645                    ;*   Regs Used         : A1,A2,A3,A4,SP,LR,SR                                *
    2646                    ;*   Local Frame Size  : 0 Args + 20 Auto + 0 Save = 20 byte                 *
    2647                    ;*****************************************************************************
    2648 000003d0           ADCSoftwareOversampleConfigure:
    2649                    ;* --------------------------------------------------------------------------*
    2650                            .dwcfi  cfa_offset, 0
    2651 000003d0 0D18F1AD          SUB       SP, SP, #24           ; [DPU_V7M3_PIPE]  ; [KEEP 32-BIT INS]
    2652                            .dwcfi  cfa_offset, 24
    2653                    $C$DW$144       .dwtag  DW_TAG_variable
    2654                            .dwattr $C$DW$144, DW_AT_name("ui32Base")
    2655                            .dwattr $C$DW$144, DW_AT_TI_symbol_name("ui32Base")
    2656                            .dwattr $C$DW$144, DW_AT_type(*$C$DW$T$27)
    2657                            .dwattr $C$DW$144, DW_AT_location[DW_OP_breg13 0]
    2658                    
    2659                    $C$DW$145       .dwtag  DW_TAG_variable
    2660                            .dwattr $C$DW$145, DW_AT_name("ui32SequenceNum")
    2661                            .dwattr $C$DW$145, DW_AT_TI_symbol_name("ui32SequenceNum")
    2662                            .dwattr $C$DW$145, DW_AT_type(*$C$DW$T$27)
    2663                            .dwattr $C$DW$145, DW_AT_location[DW_OP_breg13 4]
    2664                    
    2665                    $C$DW$146       .dwtag  DW_TAG_variable
    2666                            .dwattr $C$DW$146, DW_AT_name("ui32Factor")
    2667                            .dwattr $C$DW$146, DW_AT_TI_symbol_name("ui32Factor")
    2668                            .dwattr $C$DW$146, DW_AT_type(*$C$DW$T$27)
    2669                            .dwattr $C$DW$146, DW_AT_location[DW_OP_breg13 8]
    2670                    
    2671                    $C$DW$147       .dwtag  DW_TAG_variable
    2672                            .dwattr $C$DW$147, DW_AT_name("ui32Value")
    2673                            .dwattr $C$DW$147, DW_AT_TI_symbol_name("ui32Value")
    2674                            .dwattr $C$DW$147, DW_AT_type(*$C$DW$T$27)
    2675                            .dwattr $C$DW$147, DW_AT_location[DW_OP_breg13 12]
    2676                    
    2677                    $C$DW$148       .dwtag  DW_TAG_variable
    2678                            .dwattr $C$DW$148, DW_AT_name("ui32ADCInst")
    2679                            .dwattr $C$DW$148, DW_AT_TI_symbol_name("ui32ADCInst")
    2680                            .dwattr $C$DW$148, DW_AT_type(*$C$DW$T$27)
    2681                            .dwattr $C$DW$148, DW_AT_location[DW_OP_breg13 16]
    2682                    
    2683                    ;----------------------------------------------------------------------
    2684                    ; 940 | uint32_t ui32Value;                                                    
    2685                    ; 941 | uint32_t ui32ADCInst;                                                  
    2686                    ; 943 | //                                                                     
    2687                    ; 944 | // Check the arguments.                                                
    2688                    ; 945 | //                                                                     
    2689                    ; 946 | ASSERT((ui32Base == ADC0_BASE) || (ui32Base == ADC1_BASE));            
    2690                    ; 947 | ASSERT(ui32SequenceNum < 3);                                           
    2691                    ; 948 | ASSERT(((ui32Factor == 2) || (ui32Factor == 4) || (ui32Factor == 8)) &&
    2692                    ; 949 |        ((ui32SequenceNum == 0) || (ui32Factor != 8)));                 
    2693                    ; 951 | //                                                                     
    2694                    ; 952 | // Convert the oversampling factor to a shift factor.                  
    2695                    ; 953 | //                                                                     
TI ARM Assembler Unix v18.1.1 Fri Jul  3 20:08:23 2020

Tools Copyright (c) 1996-2017 Texas Instruments Incorporated
adc.asm                                                              PAGE   50

    2696                    ;----------------------------------------------------------------------
    2697 000003d4 9202              STR       A3, [SP, #8]          ; [DPU_V7M3_PIPE] |939|  ; [ORIG 16-BIT INS]
    2698 000003d6 9101              STR       A2, [SP, #4]          ; [DPU_V7M3_PIPE] |939|  ; [ORIG 16-BIT INS]
    2699 000003d8 9000              STR       A1, [SP, #0]          ; [DPU_V7M3_PIPE] |939|  ; [ORIG 16-BIT INS]
    2700                            .dwpsn  file "../driverlib/adc.c",line 954,column 9,is_stmt,isa 1
    2701                    ;----------------------------------------------------------------------
    2702                    ; 954 | for(ui32Value = 0, ui32Factor >>= 1; ui32Factor;                       
    2703                    ;----------------------------------------------------------------------
    2704 000003da 2100              MOVS      A2, #0                ; [DPU_V7M3_PIPE] |954|  ; [ORIG 16-BIT INS]
    2705 000003dc 9802              LDR       A1, [SP, #8]          ; [DPU_V7M3_PIPE] |954|  ; [ORIG 16-BIT INS]
    2706 000003de 9103              STR       A2, [SP, #12]         ; [DPU_V7M3_PIPE] |954|  ; [ORIG 16-BIT INS]
    2707 000003e0 0840              LSRS      A1, A1, #1            ; [DPU_V7M3_PIPE] |954|  ; [ORIG 16-BIT INS]
    2708 000003e2 9002              STR       A1, [SP, #8]          ; [DPU_V7M3_PIPE] |954|  ; [ORIG 16-BIT INS]
    2709                            .dwpsn  file "../driverlib/adc.c",line 954,column 5,is_stmt,isa 1
    2710 000003e4 9802              LDR       A1, [SP, #8]          ; [DPU_V7M3_PIPE] |954|  ; [ORIG 16-BIT INS]
    2711 000003e6 B140              CBZ       A1, ||$C$L17||        ; []  ; [ORIG 16-BIT INS]
    2712                            ; BRANCHCC OCCURS {||$C$L17||}   ; [] |954| 
    2713                    ;* --------------------------------------------------------------------------*
    2714                    ;*   BEGIN LOOP ||$C$L16||
    2715                    ;*
    2716                    ;*   Loop source line                : 954
    2717                    ;*   Loop closing brace source line  : 957
    2718                    ;*   Known Minimum Trip Count        : 1
    2719                    ;*   Known Maximum Trip Count        : 4294967295
    2720                    ;*   Known Max Trip Count Factor     : 1
    2721                    ;* --------------------------------------------------------------------------*
    2722 000003e8           ||$C$L16||:    
    2723                            .dwpsn  file "../driverlib/adc.c",line 955,column 9,is_stmt,isa 1
    2724                    ;----------------------------------------------------------------------
    2725                    ; 955 | ui32Value++, ui32Factor >>= 1)                                         
    2726                    ; 959 | //                                                                     
    2727                    ; 960 | // Evaluate the ADC Instance.                                          
    2728                    ; 961 | //                                                                     
    2729                    ;----------------------------------------------------------------------
    2730 000003e8 9803              LDR       A1, [SP, #12]         ; [DPU_V7M3_PIPE] |955|  ; [ORIG 16-BIT INS]
    2731 000003ea 9902              LDR       A2, [SP, #8]          ; [DPU_V7M3_PIPE] |955|  ; [ORIG 16-BIT INS]
    2732 000003ec 1C40              ADDS      A1, A1, #1            ; [DPU_V7M3_PIPE] |955|  ; [ORIG 16-BIT INS]
    2733 000003ee 9003              STR       A1, [SP, #12]         ; [DPU_V7M3_PIPE] |955|  ; [ORIG 16-BIT INS]
    2734 000003f0 0848              LSRS      A1, A2, #1            ; [DPU_V7M3_PIPE] |955|  ; [ORIG 16-BIT INS]
    2735 000003f2 9002              STR       A1, [SP, #8]          ; [DPU_V7M3_PIPE] |955|  ; [ORIG 16-BIT INS]
    2736                            .dwpsn  file "../driverlib/adc.c",line 954,column 5,is_stmt,isa 1
    2737 000003f4 9802              LDR       A1, [SP, #8]          ; [DPU_V7M3_PIPE] |954|  ; [ORIG 16-BIT INS]
    2738 000003f6 2800              CMP       A1, #0                ; [DPU_V7M3_PIPE] |954|  ; [ORIG 16-BIT INS]
    2739 000003f8 D1F6              BNE       ||$C$L16||            ; [DPU_V7M3_PIPE] |954|  ; [ORIG 16-BIT INS]
    2740                            ; BRANCHCC OCCURS {||$C$L16||}   ; [] |954| 
    2741                    ;* --------------------------------------------------------------------------*
    2742 000003fa           ||$C$L17||:    
    2743                            .dwpsn  file "../driverlib/adc.c",line 962,column 5,is_stmt,isa 1
    2744                    ;----------------------------------------------------------------------
    2745                    ; 962 | if(ui32Base == ADC0_BASE)                                              
    2746                    ;----------------------------------------------------------------------
    2747 000003fa 49A4              LDR       A2, $C$CON7           ; [DPU_V7M3_PIPE] |962|  ; [ORIG 16-BIT INS]
    2748 000003fc 9800              LDR       A1, [SP, #0]          ; [DPU_V7M3_PIPE] |962|  ; [ORIG 16-BIT INS]
    2749 000003fe 4281              CMP       A2, A1                ; [DPU_V7M3_PIPE] |962|  ; [ORIG 16-BIT INS]
