TI ARM Assembler Unix v18.1.1 Fri Jul  3 20:08:23 2020

Tools Copyright (c) 1996-2017 Texas Instruments Incorporated
aes.asm                                                              PAGE    1

       1                    ;******************************************************************************
       2                    ;* TI ARM C/C++ Codegen                                      Unix v18.1.1.LTS *
       3                    ;* Date/Time created: Fri Jul  3 20:08:23 2020                                *
       4                    ;******************************************************************************
       5                            .compiler_opts --abi=eabi --arm_vmrs_si_workaround=off --code_state=16 --diag_wrap=off --embed
       6 00000000                   .thumb
       7                    
       8                    $C$DW$CU        .dwtag  DW_TAG_compile_unit
       9                            .dwattr $C$DW$CU, DW_AT_name("../driverlib/aes.c")
      10                            .dwattr $C$DW$CU, DW_AT_producer("TI TI ARM C/C++ Codegen Unix v18.1.1.LTS Copyright (c) 1996-
      11                            .dwattr $C$DW$CU, DW_AT_TI_version(0x01)
      12                            .dwattr $C$DW$CU, DW_AT_comp_dir("/home/pola/workspace_v8/Microwave/Debug")
      13                    
      14                    $C$DW$1 .dwtag  DW_TAG_subprogram
      15                            .dwattr $C$DW$1, DW_AT_name("IntRegister")
      16                            .dwattr $C$DW$1, DW_AT_TI_symbol_name("IntRegister")
      17                            .dwattr $C$DW$1, DW_AT_declaration
      18                            .dwattr $C$DW$1, DW_AT_external
      19                            .dwattr $C$DW$1, DW_AT_decl_file("/home/pola/workspace_v8/Microwave/driverlib/interrupt.h")
      20                            .dwattr $C$DW$1, DW_AT_decl_line(0x45)
      21                            .dwattr $C$DW$1, DW_AT_decl_column(0x0d)
      22                    $C$DW$2 .dwtag  DW_TAG_formal_parameter
      23                            .dwattr $C$DW$2, DW_AT_type(*$C$DW$T$27)
      24                    
      25                    $C$DW$3 .dwtag  DW_TAG_formal_parameter
      26                            .dwattr $C$DW$3, DW_AT_type(*$C$DW$T$25)
      27                    
      28                            .dwendtag $C$DW$1
      29                    
      30                    
      31                    $C$DW$4 .dwtag  DW_TAG_subprogram
      32                            .dwattr $C$DW$4, DW_AT_name("IntEnable")
      33                            .dwattr $C$DW$4, DW_AT_TI_symbol_name("IntEnable")
      34                            .dwattr $C$DW$4, DW_AT_declaration
      35                            .dwattr $C$DW$4, DW_AT_external
      36                            .dwattr $C$DW$4, DW_AT_decl_file("/home/pola/workspace_v8/Microwave/driverlib/interrupt.h")
      37                            .dwattr $C$DW$4, DW_AT_decl_line(0x4c)
      38                            .dwattr $C$DW$4, DW_AT_decl_column(0x0d)
      39                    $C$DW$5 .dwtag  DW_TAG_formal_parameter
      40                            .dwattr $C$DW$5, DW_AT_type(*$C$DW$T$27)
      41                    
      42                            .dwendtag $C$DW$4
      43                    
      44                    
      45                    $C$DW$6 .dwtag  DW_TAG_subprogram
      46                            .dwattr $C$DW$6, DW_AT_name("IntDisable")
      47                            .dwattr $C$DW$6, DW_AT_TI_symbol_name("IntDisable")
      48                            .dwattr $C$DW$6, DW_AT_declaration
      49                            .dwattr $C$DW$6, DW_AT_external
      50                            .dwattr $C$DW$6, DW_AT_decl_file("/home/pola/workspace_v8/Microwave/driverlib/interrupt.h")
      51                            .dwattr $C$DW$6, DW_AT_decl_line(0x4d)
      52                            .dwattr $C$DW$6, DW_AT_decl_column(0x0d)
      53                    $C$DW$7 .dwtag  DW_TAG_formal_parameter
      54                            .dwattr $C$DW$7, DW_AT_type(*$C$DW$T$27)
      55                    
TI ARM Assembler Unix v18.1.1 Fri Jul  3 20:08:23 2020

Tools Copyright (c) 1996-2017 Texas Instruments Incorporated
aes.asm                                                              PAGE    2

      56                            .dwendtag $C$DW$6
      57                    
      58                    
      59                    $C$DW$8 .dwtag  DW_TAG_subprogram
      60                            .dwattr $C$DW$8, DW_AT_name("IntUnregister")
      61                            .dwattr $C$DW$8, DW_AT_TI_symbol_name("IntUnregister")
      62                            .dwattr $C$DW$8, DW_AT_declaration
      63                            .dwattr $C$DW$8, DW_AT_external
      64                            .dwattr $C$DW$8, DW_AT_decl_file("/home/pola/workspace_v8/Microwave/driverlib/interrupt.h")
      65                            .dwattr $C$DW$8, DW_AT_decl_line(0x46)
      66                            .dwattr $C$DW$8, DW_AT_decl_column(0x0d)
      67                    $C$DW$9 .dwtag  DW_TAG_formal_parameter
      68                            .dwattr $C$DW$9, DW_AT_type(*$C$DW$T$27)
      69                    
      70                            .dwendtag $C$DW$8
      71                    
      72                    ;       /home/pola/ti/ccsv8/tools/compiler/ti-cgt-arm_18.1.1.LTS/bin/armacpia -@/tmp/TI3NBccqOiC 
      73 00000000                   .sect   ".text"
      74                            .clink
      75                            .thumbfunc AESReset
      76 00000000                   .thumb
      77                            .global AESReset
      78                    
      79                    $C$DW$10        .dwtag  DW_TAG_subprogram
      80                            .dwattr $C$DW$10, DW_AT_name("AESReset")
      81                            .dwattr $C$DW$10, DW_AT_low_pc(AESReset)
      82                            .dwattr $C$DW$10, DW_AT_high_pc(0x00)
      83                            .dwattr $C$DW$10, DW_AT_TI_symbol_name("AESReset")
      84                            .dwattr $C$DW$10, DW_AT_external
      85                            .dwattr $C$DW$10, DW_AT_TI_begin_file("../driverlib/aes.c")
      86                            .dwattr $C$DW$10, DW_AT_TI_begin_line(0x48)
      87                            .dwattr $C$DW$10, DW_AT_TI_begin_column(0x01)
      88                            .dwattr $C$DW$10, DW_AT_decl_file("../driverlib/aes.c")
      89                            .dwattr $C$DW$10, DW_AT_decl_line(0x48)
      90                            .dwattr $C$DW$10, DW_AT_decl_column(0x01)
      91                            .dwattr $C$DW$10, DW_AT_TI_max_frame_size(0x08)
      92                            .dwpsn  file "../driverlib/aes.c",line 73,column 1,is_stmt,address AESReset,isa 1
      93                    
      94                            .dwfde $C$DW$CIE, AESReset
      95                    $C$DW$11        .dwtag  DW_TAG_formal_parameter
      96                            .dwattr $C$DW$11, DW_AT_name("ui32Base")
      97                            .dwattr $C$DW$11, DW_AT_TI_symbol_name("ui32Base")
      98                            .dwattr $C$DW$11, DW_AT_type(*$C$DW$T$27)
      99                            .dwattr $C$DW$11, DW_AT_location[DW_OP_reg0]
     100                    
     101                    ;----------------------------------------------------------------------
     102                    ;  72 | AESReset(uint32_t ui32Base)                                            
     103                    ;----------------------------------------------------------------------
     104                    
     105                    ;*****************************************************************************
     106                    ;* FUNCTION NAME: AESReset                                                   *
     107                    ;*                                                                           *
     108                    ;*   Regs Modified     : A1,A2,SP,SR                                         *
     109                    ;*   Regs Used         : A1,A2,SP,LR,SR                                      *
     110                    ;*   Local Frame Size  : 0 Args + 4 Auto + 0 Save = 4 byte                   *
TI ARM Assembler Unix v18.1.1 Fri Jul  3 20:08:23 2020

Tools Copyright (c) 1996-2017 Texas Instruments Incorporated
aes.asm                                                              PAGE    3

     111                    ;*****************************************************************************
     112 00000000           AESReset:
     113                    ;* --------------------------------------------------------------------------*
     114                            .dwcfi  cfa_offset, 0
     115 00000000 0D08F1AD          SUB       SP, SP, #8            ; [DPU_V7M3_PIPE]  ; [KEEP 32-BIT INS]
     116                            .dwcfi  cfa_offset, 8
     117                    $C$DW$12        .dwtag  DW_TAG_variable
     118                            .dwattr $C$DW$12, DW_AT_name("ui32Base")
     119                            .dwattr $C$DW$12, DW_AT_TI_symbol_name("ui32Base")
     120                            .dwattr $C$DW$12, DW_AT_type(*$C$DW$T$27)
     121                            .dwattr $C$DW$12, DW_AT_location[DW_OP_breg13 0]
     122                    
     123                    ;----------------------------------------------------------------------
     124                    ;  74 | //                                                                     
     125                    ;  75 | // Check the arguments.                                                
     126                    ;  76 | //                                                                     
     127                    ;  77 | ASSERT(ui32Base == AES_BASE);                                          
     128                    ;  79 | //                                                                     
     129                    ;  80 | // Trigger the reset.                                                  
     130                    ;  81 | //                                                                     
     131                    ;----------------------------------------------------------------------
     132 00000004 9000              STR       A1, [SP, #0]          ; [DPU_V7M3_PIPE] |73|  ; [ORIG 16-BIT INS]
     133                            .dwpsn  file "../driverlib/aes.c",line 82,column 5,is_stmt,isa 1
     134                    ;----------------------------------------------------------------------
     135                    ;  82 | HWREG(ui32Base + AES_O_SYSCONFIG) |= AES_SYSCONFIG_SOFTRESET;          
     136                    ;  84 | //                                                                     
     137                    ;  85 | // Wait for the reset to finish.                                       
     138                    ;  86 | //                                                                     
     139                    ;----------------------------------------------------------------------
     140 00000006 9800              LDR       A1, [SP, #0]          ; [DPU_V7M3_PIPE] |82|  ; [ORIG 16-BIT INS]
     141 00000008 3084              ADDS      A1, A1, #132          ; [DPU_V7M3_PIPE] |82|  ; [ORIG 16-BIT INS]
     142 0000000a 6801              LDR       A2, [A1, #0]          ; [DPU_V7M3_PIPE] |82|  ; [ORIG 16-BIT INS]
     143 0000000c 0102F041          ORR       A2, A2, #2            ; [DPU_V7M3_PIPE] |82|  ; [KEEP 32-BIT INS]
     144 00000010 6001              STR       A2, [A1, #0]          ; [DPU_V7M3_PIPE] |82|  ; [ORIG 16-BIT INS]
     145                            .dwpsn  file "../driverlib/aes.c",line 87,column 5,is_stmt,isa 1
     146                    ;----------------------------------------------------------------------
     147                    ;  87 | while((HWREG(ui32Base + AES_O_SYSSTATUS) &                             
     148                    ;----------------------------------------------------------------------
     149                    ;* --------------------------------------------------------------------------*
     150                    ;*   BEGIN LOOP ||$C$L1||
     151                    ;*
     152                    ;*   Loop source line                : 87
     153                    ;*   Loop closing brace source line  : 90
     154                    ;*   Known Minimum Trip Count        : 1
     155                    ;*   Known Maximum Trip Count        : 4294967295
     156                    ;*   Known Max Trip Count Factor     : 1
     157                    ;* --------------------------------------------------------------------------*
     158 00000012           ||$C$L1||:    
     159                            .dwpsn  file "../driverlib/aes.c",line 87,column 11,is_stmt,isa 1
     160                    ;----------------------------------------------------------------------
     161                    ;  88 | AES_SYSSTATUS_RESETDONE) == 0)                                         
     162                    ;----------------------------------------------------------------------
     163 00000012 9800              LDR       A1, [SP, #0]          ; [DPU_V7M3_PIPE] |87|  ; [ORIG 16-BIT INS]
     164 00000014 0088F8D0          LDR       A1, [A1, #136]        ; [DPU_V7M3_PIPE] |87|  ; [KEEP 32-BIT INS]
     165 00000018 0840              LSRS      A1, A1, #1            ; [DPU_V7M3_PIPE] |87|  ; [ORIG 16-BIT INS]
TI ARM Assembler Unix v18.1.1 Fri Jul  3 20:08:23 2020

Tools Copyright (c) 1996-2017 Texas Instruments Incorporated
aes.asm                                                              PAGE    4

     166 0000001a D3FA              BCC       ||$C$L1||             ; [DPU_V7M3_PIPE] |87|  ; [ORIG 16-BIT INS]
     167                            ; BRANCHCC OCCURS {||$C$L1||}    ; [] |87| 
     168                    ;* --------------------------------------------------------------------------*
     169                            .dwpsn  file "../driverlib/aes.c",line 91,column 1,is_stmt,isa 1
     170 0000001c B002              ADD       SP, SP, #8            ; [DPU_V7M3_PIPE]  ; [ORIG 16-BIT INS]
     171                            .dwcfi  cfa_offset, 0
     172                    $C$DW$13        .dwtag  DW_TAG_TI_branch
     173                            .dwattr $C$DW$13, DW_AT_low_pc(0x00)
     174                            .dwattr $C$DW$13, DW_AT_TI_return
     175                    
     176 0000001e 4770              BX        LR                    ; [DPU_V7M3_PIPE]  ; [ORIG 16-BIT INS]
     177                            ; BRANCH OCCURS                  ; [] 
     178                            .dwattr $C$DW$10, DW_AT_TI_end_file("../driverlib/aes.c")
     179                            .dwattr $C$DW$10, DW_AT_TI_end_line(0x5b)
     180                            .dwattr $C$DW$10, DW_AT_TI_end_column(0x01)
     181                            .dwendentry
     182                            .dwendtag $C$DW$10
     183                    
     184 00000020                   .sect   ".text"
     185                            .clink
     186                            .thumbfunc AESConfigSet
     187 00000020                   .thumb
     188                            .global AESConfigSet
     189                    
     190                    $C$DW$14        .dwtag  DW_TAG_subprogram
     191                            .dwattr $C$DW$14, DW_AT_name("AESConfigSet")
     192                            .dwattr $C$DW$14, DW_AT_low_pc(AESConfigSet)
     193                            .dwattr $C$DW$14, DW_AT_high_pc(0x00)
     194                            .dwattr $C$DW$14, DW_AT_TI_symbol_name("AESConfigSet")
     195                            .dwattr $C$DW$14, DW_AT_external
     196                            .dwattr $C$DW$14, DW_AT_TI_begin_file("../driverlib/aes.c")
     197                            .dwattr $C$DW$14, DW_AT_TI_begin_line(0xb7)
     198                            .dwattr $C$DW$14, DW_AT_TI_begin_column(0x01)
     199                            .dwattr $C$DW$14, DW_AT_decl_file("../driverlib/aes.c")
     200                            .dwattr $C$DW$14, DW_AT_decl_line(0xb7)
     201                            .dwattr $C$DW$14, DW_AT_decl_column(0x01)
     202                            .dwattr $C$DW$14, DW_AT_TI_max_frame_size(0x08)
     203                            .dwpsn  file "../driverlib/aes.c",line 184,column 1,is_stmt,address AESConfigSet,isa 1
     204                    
     205                            .dwfde $C$DW$CIE, AESConfigSet
     206                    $C$DW$15        .dwtag  DW_TAG_formal_parameter
     207                            .dwattr $C$DW$15, DW_AT_name("ui32Base")
     208                            .dwattr $C$DW$15, DW_AT_TI_symbol_name("ui32Base")
     209                            .dwattr $C$DW$15, DW_AT_type(*$C$DW$T$27)
     210                            .dwattr $C$DW$15, DW_AT_location[DW_OP_reg0]
     211                    
     212                    $C$DW$16        .dwtag  DW_TAG_formal_parameter
     213                            .dwattr $C$DW$16, DW_AT_name("ui32Config")
     214                            .dwattr $C$DW$16, DW_AT_TI_symbol_name("ui32Config")
     215                            .dwattr $C$DW$16, DW_AT_type(*$C$DW$T$27)
     216                            .dwattr $C$DW$16, DW_AT_location[DW_OP_reg1]
     217                    
     218                    ;----------------------------------------------------------------------
     219                    ; 183 | AESConfigSet(uint32_t ui32Base, uint32_t ui32Config)                   
     220                    ;----------------------------------------------------------------------
TI ARM Assembler Unix v18.1.1 Fri Jul  3 20:08:23 2020

Tools Copyright (c) 1996-2017 Texas Instruments Incorporated
aes.asm                                                              PAGE    5

     221                    
     222                    ;*****************************************************************************
     223                    ;* FUNCTION NAME: AESConfigSet                                               *
     224                    ;*                                                                           *
     225                    ;*   Regs Modified     : A1,A2,SP,SR                                         *
     226                    ;*   Regs Used         : A1,A2,SP,LR,SR                                      *
     227                    ;*   Local Frame Size  : 0 Args + 8 Auto + 0 Save = 8 byte                   *
     228                    ;*****************************************************************************
     229 00000020           AESConfigSet:
     230                    ;* --------------------------------------------------------------------------*
     231                            .dwcfi  cfa_offset, 0
     232 00000020 0D08F1AD          SUB       SP, SP, #8            ; [DPU_V7M3_PIPE]  ; [KEEP 32-BIT INS]
     233                            .dwcfi  cfa_offset, 8
     234                    $C$DW$17        .dwtag  DW_TAG_variable
     235                            .dwattr $C$DW$17, DW_AT_name("ui32Base")
     236                            .dwattr $C$DW$17, DW_AT_TI_symbol_name("ui32Base")
     237                            .dwattr $C$DW$17, DW_AT_type(*$C$DW$T$27)
     238                            .dwattr $C$DW$17, DW_AT_location[DW_OP_breg13 0]
     239                    
     240                    $C$DW$18        .dwtag  DW_TAG_variable
     241                            .dwattr $C$DW$18, DW_AT_name("ui32Config")
     242                            .dwattr $C$DW$18, DW_AT_TI_symbol_name("ui32Config")
     243                            .dwattr $C$DW$18, DW_AT_type(*$C$DW$T$27)
     244                            .dwattr $C$DW$18, DW_AT_location[DW_OP_breg13 4]
     245                    
     246                    ;----------------------------------------------------------------------
     247                    ; 185 | //                                                                     
     248                    ; 186 | // Check the arguments.                                                
     249                    ; 187 | //                                                                     
     250                    ; 188 | ASSERT(ui32Base == AES_BASE);                                          
     251                    ; 189 | ASSERT((ui32Config & AES_CFG_DIR_ENCRYPT) ||                           
     252                    ; 190 |        (ui32Config & AES_CFG_DIR_DECRYPT));                            
     253                    ; 191 | ASSERT((ui32Config & AES_CFG_KEY_SIZE_128BIT) ||                       
     254                    ; 192 |        (ui32Config & AES_CFG_KEY_SIZE_192BIT) ||                       
     255                    ; 193 |        (ui32Config & AES_CFG_KEY_SIZE_256BIT));                        
     256                    ; 194 | ASSERT((ui32Config & AES_CFG_MODE_ECB) ||                              
     257                    ; 195 |        (ui32Config & AES_CFG_MODE_CBC) ||                              
     258                    ; 196 |        (ui32Config & AES_CFG_MODE_CTR) ||                              
     259                    ; 197 |        (ui32Config & AES_CFG_MODE_ICM) ||                              
     260                    ; 198 |        (ui32Config & AES_CFG_MODE_CFB) ||                              
     261                    ; 199 |        (ui32Config & AES_CFG_MODE_XTS_TWEAKJL) ||                      
     262                    ; 200 |        (ui32Config & AES_CFG_MODE_XTS_K2IJL) ||                        
     263                    ; 201 |        (ui32Config & AES_CFG_MODE_XTS_K2ILJ0) ||                       
     264                    ; 202 |        (ui32Config & AES_CFG_MODE_F8) ||                               
     265                    ; 203 |        (ui32Config & AES_CFG_MODE_F9) ||                               
     266                    ; 204 |        (ui32Config & AES_CFG_MODE_CTR) ||                              
     267                    ; 205 |        (ui32Config & AES_CFG_MODE_CBCMAC) ||                           
     268                    ; 206 |        (ui32Config & AES_CFG_MODE_GCM_HLY0ZERO) ||                     
     269                    ; 207 |        (ui32Config & AES_CFG_MODE_GCM_HLY0CALC) ||                     
     270                    ; 208 |        (ui32Config & AES_CFG_MODE_GCM_HY0CALC) ||                      
     271                    ; 209 |        (ui32Config & AES_CFG_MODE_CCM));                               
     272                    ; 210 | ASSERT(((ui32Config & AES_CFG_MODE_CTR) ||                             
     273                    ; 211 |         (ui32Config & AES_CFG_MODE_GCM_HLY0ZERO) ||                    
     274                    ; 212 |         (ui32Config & AES_CFG_MODE_GCM_HLY0CALC) ||                    
     275                    ; 213 |         (ui32Config & AES_CFG_MODE_GCM_HY0CALC) ||                     
TI ARM Assembler Unix v18.1.1 Fri Jul  3 20:08:23 2020

Tools Copyright (c) 1996-2017 Texas Instruments Incorporated
aes.asm                                                              PAGE    6

     276                    ; 214 |         (ui32Config & AES_CFG_MODE_CCM)) &&                            
     277                    ; 215 |        ((ui32Config & AES_CFG_CTR_WIDTH_32) ||                         
     278                    ; 216 |         (ui32Config & AES_CFG_CTR_WIDTH_64) ||                         
     279                    ; 217 |         (ui32Config & AES_CFG_CTR_WIDTH_96) ||                         
     280                    ; 218 |         (ui32Config & AES_CFG_CTR_WIDTH_128)));                        
     281                    ; 219 | ASSERT((ui32Config & AES_CFG_MODE_CCM) &&                              
     282                    ; 220 |        ((ui32Config & AES_CFG_CCM_L_1) ||                              
     283                    ; 221 |         (ui32Config & AES_CFG_CCM_L_2) ||                              
     284                    ; 222 |         (ui32Config & AES_CFG_CCM_L_3) ||                              
     285                    ; 223 |         (ui32Config & AES_CFG_CCM_L_4) ||                              
     286                    ; 224 |         (ui32Config & AES_CFG_CCM_L_5) ||                              
     287                    ; 225 |         (ui32Config & AES_CFG_CCM_L_6) ||                              
     288                    ; 226 |         (ui32Config & AES_CFG_CCM_L_7) ||                              
     289                    ; 227 |         (ui32Config & AES_CFG_CCM_L_8)) &&                             
     290                    ; 228 |        ((ui32Config & AES_CFG_CCM_M_4) ||                              
     291                    ; 229 |         (ui32Config & AES_CFG_CCM_M_6) ||                              
     292                    ; 230 |         (ui32Config & AES_CFG_CCM_M_8) ||                              
     293                    ; 231 |         (ui32Config & AES_CFG_CCM_M_10) ||                             
     294                    ; 232 |         (ui32Config & AES_CFG_CCM_M_12) ||                             
     295                    ; 233 |         (ui32Config & AES_CFG_CCM_M_14) ||                             
     296                    ; 234 |         (ui32Config & AES_CFG_CCM_M_16)));                             
     297                    ; 236 | //                                                                     
     298                    ; 237 | // Backup the save context field before updating the register.         
     299                    ; 238 | //                                                                     
     300                    ;----------------------------------------------------------------------
     301 00000024 9101              STR       A2, [SP, #4]          ; [DPU_V7M3_PIPE] |184|  ; [ORIG 16-BIT INS]
     302 00000026 9000              STR       A1, [SP, #0]          ; [DPU_V7M3_PIPE] |184|  ; [ORIG 16-BIT INS]
     303                            .dwpsn  file "../driverlib/aes.c",line 239,column 5,is_stmt,isa 1
     304                    ;----------------------------------------------------------------------
     305                    ; 239 | if(HWREG(ui32Base + AES_O_CTRL) & AES_CTRL_SAVE_CONTEXT)               
     306                    ;----------------------------------------------------------------------
     307 00000028 9800              LDR       A1, [SP, #0]          ; [DPU_V7M3_PIPE] |239|  ; [ORIG 16-BIT INS]
     308 0000002a 6D00              LDR       A1, [A1, #80]         ; [DPU_V7M3_PIPE] |239|  ; [ORIG 16-BIT INS]
     309 0000002c 0F80              LSRS      A1, A1, #30           ; [DPU_V7M3_PIPE] |239|  ; [ORIG 16-BIT INS]
     310 0000002e D303              BCC       ||$C$L2||             ; [DPU_V7M3_PIPE] |239|  ; [ORIG 16-BIT INS]
     311                            ; BRANCHCC OCCURS {||$C$L2||}    ; [] |239| 
     312                    ;* --------------------------------------------------------------------------*
     313                            .dwpsn  file "../driverlib/aes.c",line 241,column 9,is_stmt,isa 1
     314                    ;----------------------------------------------------------------------
     315                    ; 241 | ui32Config |= AES_CTRL_SAVE_CONTEXT;                                   
     316                    ; 244 | //                                                                     
     317                    ; 245 | // Write the CTRL register with the new value                          
     318                    ; 246 | //                                                                     
     319                    ;----------------------------------------------------------------------
     320 00000030 9801              LDR       A1, [SP, #4]          ; [DPU_V7M3_PIPE] |241|  ; [ORIG 16-BIT INS]
     321 00000032 5000F040          ORR       A1, A1, #536870912    ; [DPU_V7M3_PIPE] |241|  ; [KEEP 32-BIT INS]
     322 00000036 9001              STR       A1, [SP, #4]          ; [DPU_V7M3_PIPE] |241|  ; [ORIG 16-BIT INS]
     323                    ;* --------------------------------------------------------------------------*
     324 00000038           ||$C$L2||:    
     325                            .dwpsn  file "../driverlib/aes.c",line 247,column 5,is_stmt,isa 1
     326                    ;----------------------------------------------------------------------
     327                    ; 247 | HWREG(ui32Base + AES_O_CTRL) = ui32Config;                             
     328                    ;----------------------------------------------------------------------
     329 00000038 9801              LDR       A1, [SP, #4]          ; [DPU_V7M3_PIPE] |247|  ; [ORIG 16-BIT INS]
     330 0000003a 9900              LDR       A2, [SP, #0]          ; [DPU_V7M3_PIPE] |247|  ; [ORIG 16-BIT INS]
TI ARM Assembler Unix v18.1.1 Fri Jul  3 20:08:23 2020

Tools Copyright (c) 1996-2017 Texas Instruments Incorporated
aes.asm                                                              PAGE    7

     331 0000003c 6508              STR       A1, [A2, #80]         ; [DPU_V7M3_PIPE] |247|  ; [ORIG 16-BIT INS]
     332                            .dwpsn  file "../driverlib/aes.c",line 248,column 1,is_stmt,isa 1
     333 0000003e B002              ADD       SP, SP, #8            ; [DPU_V7M3_PIPE]  ; [ORIG 16-BIT INS]
     334                            .dwcfi  cfa_offset, 0
     335                    $C$DW$19        .dwtag  DW_TAG_TI_branch
     336                            .dwattr $C$DW$19, DW_AT_low_pc(0x00)
     337                            .dwattr $C$DW$19, DW_AT_TI_return
     338                    
     339 00000040 4770              BX        LR                    ; [DPU_V7M3_PIPE]  ; [ORIG 16-BIT INS]
     340                            ; BRANCH OCCURS                  ; [] 
     341                            .dwattr $C$DW$14, DW_AT_TI_end_file("../driverlib/aes.c")
     342                            .dwattr $C$DW$14, DW_AT_TI_end_line(0xf8)
     343                            .dwattr $C$DW$14, DW_AT_TI_end_column(0x01)
     344                            .dwendentry
     345                            .dwendtag $C$DW$14
     346                    
     347 00000042                   .sect   ".text"
     348                            .clink
     349                            .thumbfunc AESKey1Set
     350 00000042                   .thumb
     351                            .global AESKey1Set
     352                    
     353                    $C$DW$20        .dwtag  DW_TAG_subprogram
     354                            .dwattr $C$DW$20, DW_AT_name("AESKey1Set")
     355                            .dwattr $C$DW$20, DW_AT_low_pc(AESKey1Set)
     356                            .dwattr $C$DW$20, DW_AT_high_pc(0x00)
     357                            .dwattr $C$DW$20, DW_AT_TI_symbol_name("AESKey1Set")
     358                            .dwattr $C$DW$20, DW_AT_external
     359                            .dwattr $C$DW$20, DW_AT_TI_begin_file("../driverlib/aes.c")
     360                            .dwattr $C$DW$20, DW_AT_TI_begin_line(0x10d)
     361                            .dwattr $C$DW$20, DW_AT_TI_begin_column(0x01)
     362                            .dwattr $C$DW$20, DW_AT_decl_file("../driverlib/aes.c")
     363                            .dwattr $C$DW$20, DW_AT_decl_line(0x10d)
     364                            .dwattr $C$DW$20, DW_AT_decl_column(0x01)
     365                            .dwattr $C$DW$20, DW_AT_TI_max_frame_size(0x10)
     366                            .dwpsn  file "../driverlib/aes.c",line 270,column 1,is_stmt,address AESKey1Set,isa 1
     367                    
     368                            .dwfde $C$DW$CIE, AESKey1Set
     369                    $C$DW$21        .dwtag  DW_TAG_formal_parameter
     370                            .dwattr $C$DW$21, DW_AT_name("ui32Base")
     371                            .dwattr $C$DW$21, DW_AT_TI_symbol_name("ui32Base")
     372                            .dwattr $C$DW$21, DW_AT_type(*$C$DW$T$27)
     373                            .dwattr $C$DW$21, DW_AT_location[DW_OP_reg0]
     374                    
     375                    $C$DW$22        .dwtag  DW_TAG_formal_parameter
     376                            .dwattr $C$DW$22, DW_AT_name("pui32Key")
     377                            .dwattr $C$DW$22, DW_AT_TI_symbol_name("pui32Key")
     378                            .dwattr $C$DW$22, DW_AT_type(*$C$DW$T$34)
     379                            .dwattr $C$DW$22, DW_AT_location[DW_OP_reg1]
     380                    
     381                    $C$DW$23        .dwtag  DW_TAG_formal_parameter
     382                            .dwattr $C$DW$23, DW_AT_name("ui32Keysize")
     383                            .dwattr $C$DW$23, DW_AT_TI_symbol_name("ui32Keysize")
     384                            .dwattr $C$DW$23, DW_AT_type(*$C$DW$T$27)
     385                            .dwattr $C$DW$23, DW_AT_location[DW_OP_reg2]
TI ARM Assembler Unix v18.1.1 Fri Jul  3 20:08:23 2020

Tools Copyright (c) 1996-2017 Texas Instruments Incorporated
aes.asm                                                              PAGE    8

     386                    
     387                    ;----------------------------------------------------------------------
     388                    ; 269 | AESKey1Set(uint32_t ui32Base, uint32_t *pui32Key, uint32_t ui32Keysize)
     389                    ;----------------------------------------------------------------------
     390                    
     391                    ;*****************************************************************************
     392                    ;* FUNCTION NAME: AESKey1Set                                                 *
     393                    ;*                                                                           *
     394                    ;*   Regs Modified     : A1,A2,SP,SR                                         *
     395                    ;*   Regs Used         : A1,A2,A3,SP,LR,SR                                   *
     396                    ;*   Local Frame Size  : 0 Args + 12 Auto + 0 Save = 12 byte                 *
     397                    ;*****************************************************************************
     398 00000042           AESKey1Set:
     399                    ;* --------------------------------------------------------------------------*
     400                            .dwcfi  cfa_offset, 0
     401 00000042 0D10F1AD          SUB       SP, SP, #16           ; [DPU_V7M3_PIPE]  ; [KEEP 32-BIT INS]
     402                            .dwcfi  cfa_offset, 16
     403                    $C$DW$24        .dwtag  DW_TAG_variable
     404                            .dwattr $C$DW$24, DW_AT_name("ui32Base")
     405                            .dwattr $C$DW$24, DW_AT_TI_symbol_name("ui32Base")
     406                            .dwattr $C$DW$24, DW_AT_type(*$C$DW$T$27)
     407                            .dwattr $C$DW$24, DW_AT_location[DW_OP_breg13 0]
     408                    
     409                    $C$DW$25        .dwtag  DW_TAG_variable
     410                            .dwattr $C$DW$25, DW_AT_name("pui32Key")
     411                            .dwattr $C$DW$25, DW_AT_TI_symbol_name("pui32Key")
     412                            .dwattr $C$DW$25, DW_AT_type(*$C$DW$T$34)
     413                            .dwattr $C$DW$25, DW_AT_location[DW_OP_breg13 4]
     414                    
     415                    $C$DW$26        .dwtag  DW_TAG_variable
     416                            .dwattr $C$DW$26, DW_AT_name("ui32Keysize")
     417                            .dwattr $C$DW$26, DW_AT_TI_symbol_name("ui32Keysize")
     418                            .dwattr $C$DW$26, DW_AT_type(*$C$DW$T$27)
     419                            .dwattr $C$DW$26, DW_AT_location[DW_OP_breg13 8]
     420                    
     421                    ;----------------------------------------------------------------------
     422                    ; 271 | //                                                                     
     423                    ; 272 | // Check the arguments.                                                
     424                    ; 273 | //                                                                     
     425                    ; 274 | ASSERT(ui32Base == AES_BASE);                                          
     426                    ; 275 | ASSERT((ui32Keysize == AES_CFG_KEY_SIZE_128BIT) ||                     
     427                    ; 276 |        (ui32Keysize == AES_CFG_KEY_SIZE_192BIT) ||                     
     428                    ; 277 |        (ui32Keysize == AES_CFG_KEY_SIZE_256BIT));                      
     429                    ; 279 | //                                                                     
     430                    ; 280 | // With all key sizes, the first 4 words are written.                  
     431                    ; 281 | //                                                                     
     432                    ;----------------------------------------------------------------------
     433 00000046 9202              STR       A3, [SP, #8]          ; [DPU_V7M3_PIPE] |270|  ; [ORIG 16-BIT INS]
     434 00000048 9101              STR       A2, [SP, #4]          ; [DPU_V7M3_PIPE] |270|  ; [ORIG 16-BIT INS]
     435 0000004a 9000              STR       A1, [SP, #0]          ; [DPU_V7M3_PIPE] |270|  ; [ORIG 16-BIT INS]
     436                            .dwpsn  file "../driverlib/aes.c",line 282,column 5,is_stmt,isa 1
     437                    ;----------------------------------------------------------------------
     438                    ; 282 | HWREG(ui32Base + AES_O_KEY1_0) = pui32Key[0];                          
     439                    ;----------------------------------------------------------------------
     440 0000004c 9801              LDR       A1, [SP, #4]          ; [DPU_V7M3_PIPE] |282|  ; [ORIG 16-BIT INS]
TI ARM Assembler Unix v18.1.1 Fri Jul  3 20:08:23 2020

Tools Copyright (c) 1996-2017 Texas Instruments Incorporated
aes.asm                                                              PAGE    9

     441 0000004e 9900              LDR       A2, [SP, #0]          ; [DPU_V7M3_PIPE] |282|  ; [ORIG 16-BIT INS]
     442 00000050 6800              LDR       A1, [A1, #0]          ; [DPU_V7M3_PIPE] |282|  ; [ORIG 16-BIT INS]
     443 00000052 6388              STR       A1, [A2, #56]         ; [DPU_V7M3_PIPE] |282|  ; [ORIG 16-BIT INS]
     444                            .dwpsn  file "../driverlib/aes.c",line 283,column 5,is_stmt,isa 1
     445                    ;----------------------------------------------------------------------
     446                    ; 283 | HWREG(ui32Base + AES_O_KEY1_1) = pui32Key[1];                          
     447                    ;----------------------------------------------------------------------
     448 00000054 9801              LDR       A1, [SP, #4]          ; [DPU_V7M3_PIPE] |283|  ; [ORIG 16-BIT INS]
     449 00000056 9900              LDR       A2, [SP, #0]          ; [DPU_V7M3_PIPE] |283|  ; [ORIG 16-BIT INS]
     450 00000058 6840              LDR       A1, [A1, #4]          ; [DPU_V7M3_PIPE] |283|  ; [ORIG 16-BIT INS]
     451 0000005a 63C8              STR       A1, [A2, #60]         ; [DPU_V7M3_PIPE] |283|  ; [ORIG 16-BIT INS]
     452                            .dwpsn  file "../driverlib/aes.c",line 284,column 5,is_stmt,isa 1
     453                    ;----------------------------------------------------------------------
     454                    ; 284 | HWREG(ui32Base + AES_O_KEY1_2) = pui32Key[2];                          
     455                    ;----------------------------------------------------------------------
     456 0000005c 9801              LDR       A1, [SP, #4]          ; [DPU_V7M3_PIPE] |284|  ; [ORIG 16-BIT INS]
     457 0000005e 9900              LDR       A2, [SP, #0]          ; [DPU_V7M3_PIPE] |284|  ; [ORIG 16-BIT INS]
     458 00000060 6880              LDR       A1, [A1, #8]          ; [DPU_V7M3_PIPE] |284|  ; [ORIG 16-BIT INS]
     459 00000062 6308              STR       A1, [A2, #48]         ; [DPU_V7M3_PIPE] |284|  ; [ORIG 16-BIT INS]
     460                            .dwpsn  file "../driverlib/aes.c",line 285,column 5,is_stmt,isa 1
     461                    ;----------------------------------------------------------------------
     462                    ; 285 | HWREG(ui32Base + AES_O_KEY1_3) = pui32Key[3];                          
     463                    ; 287 | //                                                                     
     464                    ; 288 | // The key is 192 or 256 bits.  Write the next 2 words.                
     465                    ; 289 | //                                                                     
     466                    ;----------------------------------------------------------------------
     467 00000064 9801              LDR       A1, [SP, #4]          ; [DPU_V7M3_PIPE] |285|  ; [ORIG 16-BIT INS]
     468 00000066 9900              LDR       A2, [SP, #0]          ; [DPU_V7M3_PIPE] |285|  ; [ORIG 16-BIT INS]
     469 00000068 68C0              LDR       A1, [A1, #12]         ; [DPU_V7M3_PIPE] |285|  ; [ORIG 16-BIT INS]
     470 0000006a 6348              STR       A1, [A2, #52]         ; [DPU_V7M3_PIPE] |285|  ; [ORIG 16-BIT INS]
     471                            .dwpsn  file "../driverlib/aes.c",line 290,column 5,is_stmt,isa 1
     472                    ;----------------------------------------------------------------------
     473                    ; 290 | if(ui32Keysize != AES_CFG_KEY_SIZE_128BIT)                             
     474                    ;----------------------------------------------------------------------
     475 0000006c 9802              LDR       A1, [SP, #8]          ; [DPU_V7M3_PIPE] |290|  ; [ORIG 16-BIT INS]
     476 0000006e 2808              CMP       A1, #8                ; [DPU_V7M3_PIPE] |290|  ; [ORIG 16-BIT INS]
     477 00000070 D007              BEQ       ||$C$L3||             ; [DPU_V7M3_PIPE] |290|  ; [ORIG 16-BIT INS]
     478                            ; BRANCHCC OCCURS {||$C$L3||}    ; [] |290| 
     479                    ;* --------------------------------------------------------------------------*
     480                            .dwpsn  file "../driverlib/aes.c",line 292,column 9,is_stmt,isa 1
     481                    ;----------------------------------------------------------------------
     482                    ; 292 | HWREG(ui32Base + AES_O_KEY1_4) = pui32Key[4];                          
     483                    ;----------------------------------------------------------------------
     484 00000072 9801              LDR       A1, [SP, #4]          ; [DPU_V7M3_PIPE] |292|  ; [ORIG 16-BIT INS]
     485 00000074 9900              LDR       A2, [SP, #0]          ; [DPU_V7M3_PIPE] |292|  ; [ORIG 16-BIT INS]
     486 00000076 6900              LDR       A1, [A1, #16]         ; [DPU_V7M3_PIPE] |292|  ; [ORIG 16-BIT INS]
     487 00000078 6288              STR       A1, [A2, #40]         ; [DPU_V7M3_PIPE] |292|  ; [ORIG 16-BIT INS]
     488                            .dwpsn  file "../driverlib/aes.c",line 293,column 9,is_stmt,isa 1
     489                    ;----------------------------------------------------------------------
     490                    ; 293 | HWREG(ui32Base + AES_O_KEY1_5) = pui32Key[5];                          
     491                    ; 296 | //                                                                     
     492                    ; 297 | // The key is 256 bits.  Write the last 2 words.                       
     493                    ; 298 | //                                                                     
     494                    ;----------------------------------------------------------------------
     495 0000007a 9801              LDR       A1, [SP, #4]          ; [DPU_V7M3_PIPE] |293|  ; [ORIG 16-BIT INS]
TI ARM Assembler Unix v18.1.1 Fri Jul  3 20:08:23 2020

Tools Copyright (c) 1996-2017 Texas Instruments Incorporated
aes.asm                                                              PAGE   10

     496 0000007c 9900              LDR       A2, [SP, #0]          ; [DPU_V7M3_PIPE] |293|  ; [ORIG 16-BIT INS]
     497 0000007e 6940              LDR       A1, [A1, #20]         ; [DPU_V7M3_PIPE] |293|  ; [ORIG 16-BIT INS]
     498 00000080 62C8              STR       A1, [A2, #44]         ; [DPU_V7M3_PIPE] |293|  ; [ORIG 16-BIT INS]
     499                    ;* --------------------------------------------------------------------------*
     500 00000082           ||$C$L3||:    
     501                            .dwpsn  file "../driverlib/aes.c",line 299,column 5,is_stmt,isa 1
     502                    ;----------------------------------------------------------------------
     503                    ; 299 | if(ui32Keysize == AES_CFG_KEY_SIZE_256BIT)                             
     504                    ;----------------------------------------------------------------------
     505 00000082 9802              LDR       A1, [SP, #8]          ; [DPU_V7M3_PIPE] |299|  ; [ORIG 16-BIT INS]
     506 00000084 2818              CMP       A1, #24               ; [DPU_V7M3_PIPE] |299|  ; [ORIG 16-BIT INS]
     507 00000086 D107              BNE       ||$C$L4||             ; [DPU_V7M3_PIPE] |299|  ; [ORIG 16-BIT INS]
     508                            ; BRANCHCC OCCURS {||$C$L4||}    ; [] |299| 
     509                    ;* --------------------------------------------------------------------------*
     510                            .dwpsn  file "../driverlib/aes.c",line 301,column 9,is_stmt,isa 1
     511                    ;----------------------------------------------------------------------
     512                    ; 301 | HWREG(ui32Base + AES_O_KEY1_6) = pui32Key[6];                          
     513                    ;----------------------------------------------------------------------
     514 00000088 9801              LDR       A1, [SP, #4]          ; [DPU_V7M3_PIPE] |301|  ; [ORIG 16-BIT INS]
     515 0000008a 9900              LDR       A2, [SP, #0]          ; [DPU_V7M3_PIPE] |301|  ; [ORIG 16-BIT INS]
     516 0000008c 6980              LDR       A1, [A1, #24]         ; [DPU_V7M3_PIPE] |301|  ; [ORIG 16-BIT INS]
     517 0000008e 6208              STR       A1, [A2, #32]         ; [DPU_V7M3_PIPE] |301|  ; [ORIG 16-BIT INS]
     518                            .dwpsn  file "../driverlib/aes.c",line 302,column 9,is_stmt,isa 1
     519                    ;----------------------------------------------------------------------
     520                    ; 302 | HWREG(ui32Base + AES_O_KEY1_7) = pui32Key[7];                          
     521                    ;----------------------------------------------------------------------
     522 00000090 9801              LDR       A1, [SP, #4]          ; [DPU_V7M3_PIPE] |302|  ; [ORIG 16-BIT INS]
     523 00000092 9900              LDR       A2, [SP, #0]          ; [DPU_V7M3_PIPE] |302|  ; [ORIG 16-BIT INS]
     524 00000094 69C0              LDR       A1, [A1, #28]         ; [DPU_V7M3_PIPE] |302|  ; [ORIG 16-BIT INS]
     525 00000096 6248              STR       A1, [A2, #36]         ; [DPU_V7M3_PIPE] |302|  ; [ORIG 16-BIT INS]
     526                            .dwpsn  file "../driverlib/aes.c",line 304,column 1,is_stmt,isa 1
     527                    ;* --------------------------------------------------------------------------*
     528 00000098           ||$C$L4||:    
     529 00000098 B004              ADD       SP, SP, #16           ; [DPU_V7M3_PIPE]  ; [ORIG 16-BIT INS]
     530                            .dwcfi  cfa_offset, 0
     531                    $C$DW$27        .dwtag  DW_TAG_TI_branch
     532                            .dwattr $C$DW$27, DW_AT_low_pc(0x00)
     533                            .dwattr $C$DW$27, DW_AT_TI_return
     534                    
     535 0000009a 4770              BX        LR                    ; [DPU_V7M3_PIPE]  ; [ORIG 16-BIT INS]
     536                            ; BRANCH OCCURS                  ; [] 
     537                            .dwattr $C$DW$20, DW_AT_TI_end_file("../driverlib/aes.c")
     538                            .dwattr $C$DW$20, DW_AT_TI_end_line(0x130)
     539                            .dwattr $C$DW$20, DW_AT_TI_end_column(0x01)
     540                            .dwendentry
     541                            .dwendtag $C$DW$20
     542                    
     543 0000009c                   .sect   ".text"
     544                            .clink
     545                            .thumbfunc AESKey2Set
     546 0000009c                   .thumb
     547                            .global AESKey2Set
     548                    
     549                    $C$DW$28        .dwtag  DW_TAG_subprogram
     550                            .dwattr $C$DW$28, DW_AT_name("AESKey2Set")
TI ARM Assembler Unix v18.1.1 Fri Jul  3 20:08:23 2020

Tools Copyright (c) 1996-2017 Texas Instruments Incorporated
aes.asm                                                              PAGE   11

     551                            .dwattr $C$DW$28, DW_AT_low_pc(AESKey2Set)
     552                            .dwattr $C$DW$28, DW_AT_high_pc(0x00)
     553                            .dwattr $C$DW$28, DW_AT_TI_symbol_name("AESKey2Set")
     554                            .dwattr $C$DW$28, DW_AT_external
     555                            .dwattr $C$DW$28, DW_AT_TI_begin_file("../driverlib/aes.c")
     556                            .dwattr $C$DW$28, DW_AT_TI_begin_line(0x145)
     557                            .dwattr $C$DW$28, DW_AT_TI_begin_column(0x01)
     558                            .dwattr $C$DW$28, DW_AT_decl_file("../driverlib/aes.c")
     559                            .dwattr $C$DW$28, DW_AT_decl_line(0x145)
     560                            .dwattr $C$DW$28, DW_AT_decl_column(0x01)
     561                            .dwattr $C$DW$28, DW_AT_TI_max_frame_size(0x10)
     562                            .dwpsn  file "../driverlib/aes.c",line 326,column 1,is_stmt,address AESKey2Set,isa 1
     563                    
     564                            .dwfde $C$DW$CIE, AESKey2Set
     565                    $C$DW$29        .dwtag  DW_TAG_formal_parameter
     566                            .dwattr $C$DW$29, DW_AT_name("ui32Base")
     567                            .dwattr $C$DW$29, DW_AT_TI_symbol_name("ui32Base")
     568                            .dwattr $C$DW$29, DW_AT_type(*$C$DW$T$27)
     569                            .dwattr $C$DW$29, DW_AT_location[DW_OP_reg0]
     570                    
     571                    $C$DW$30        .dwtag  DW_TAG_formal_parameter
     572                            .dwattr $C$DW$30, DW_AT_name("pui32Key")
     573                            .dwattr $C$DW$30, DW_AT_TI_symbol_name("pui32Key")
     574                            .dwattr $C$DW$30, DW_AT_type(*$C$DW$T$34)
     575                            .dwattr $C$DW$30, DW_AT_location[DW_OP_reg1]
     576                    
     577                    $C$DW$31        .dwtag  DW_TAG_formal_parameter
     578                            .dwattr $C$DW$31, DW_AT_name("ui32Keysize")
     579                            .dwattr $C$DW$31, DW_AT_TI_symbol_name("ui32Keysize")
     580                            .dwattr $C$DW$31, DW_AT_type(*$C$DW$T$27)
     581                            .dwattr $C$DW$31, DW_AT_location[DW_OP_reg2]
     582                    
     583                    ;----------------------------------------------------------------------
     584                    ; 325 | AESKey2Set(uint32_t ui32Base, uint32_t *pui32Key, uint32_t ui32Keysize)
     585                    ;----------------------------------------------------------------------
     586                    
     587                    ;*****************************************************************************
     588                    ;* FUNCTION NAME: AESKey2Set                                                 *
     589                    ;*                                                                           *
     590                    ;*   Regs Modified     : A1,A2,SP,SR                                         *
     591                    ;*   Regs Used         : A1,A2,A3,SP,LR,SR                                   *
     592                    ;*   Local Frame Size  : 0 Args + 12 Auto + 0 Save = 12 byte                 *
     593                    ;*****************************************************************************
     594 0000009c           AESKey2Set:
     595                    ;* --------------------------------------------------------------------------*
     596                            .dwcfi  cfa_offset, 0
     597 0000009c 0D10F1AD          SUB       SP, SP, #16           ; [DPU_V7M3_PIPE]  ; [KEEP 32-BIT INS]
     598                            .dwcfi  cfa_offset, 16
     599                    $C$DW$32        .dwtag  DW_TAG_variable
     600                            .dwattr $C$DW$32, DW_AT_name("ui32Base")
     601                            .dwattr $C$DW$32, DW_AT_TI_symbol_name("ui32Base")
     602                            .dwattr $C$DW$32, DW_AT_type(*$C$DW$T$27)
     603                            .dwattr $C$DW$32, DW_AT_location[DW_OP_breg13 0]
     604                    
     605                    $C$DW$33        .dwtag  DW_TAG_variable
TI ARM Assembler Unix v18.1.1 Fri Jul  3 20:08:23 2020

Tools Copyright (c) 1996-2017 Texas Instruments Incorporated
aes.asm                                                              PAGE   12

     606                            .dwattr $C$DW$33, DW_AT_name("pui32Key")
     607                            .dwattr $C$DW$33, DW_AT_TI_symbol_name("pui32Key")
     608                            .dwattr $C$DW$33, DW_AT_type(*$C$DW$T$34)
     609                            .dwattr $C$DW$33, DW_AT_location[DW_OP_breg13 4]
     610                    
     611                    $C$DW$34        .dwtag  DW_TAG_variable
     612                            .dwattr $C$DW$34, DW_AT_name("ui32Keysize")
     613                            .dwattr $C$DW$34, DW_AT_TI_symbol_name("ui32Keysize")
     614                            .dwattr $C$DW$34, DW_AT_type(*$C$DW$T$27)
     615                            .dwattr $C$DW$34, DW_AT_location[DW_OP_breg13 8]
     616                    
     617                    ;----------------------------------------------------------------------
     618                    ; 327 | //                                                                     
     619                    ; 328 | // Check the arguments.                                                
     620                    ; 329 | //                                                                     
     621                    ; 330 | ASSERT(ui32Base == AES_BASE);                                          
     622                    ; 331 | ASSERT((ui32Keysize == AES_CFG_KEY_SIZE_128BIT) ||                     
     623                    ; 332 |        (ui32Keysize == AES_CFG_KEY_SIZE_192BIT) ||                     
     624                    ; 333 |        (ui32Keysize == AES_CFG_KEY_SIZE_256BIT));                      
     625                    ; 335 | //                                                                     
     626                    ; 336 | // With all key sizes, the first 4 words are written.                  
     627                    ; 337 | //                                                                     
     628                    ;----------------------------------------------------------------------
     629 000000a0 9202              STR       A3, [SP, #8]          ; [DPU_V7M3_PIPE] |326|  ; [ORIG 16-BIT INS]
     630 000000a2 9101              STR       A2, [SP, #4]          ; [DPU_V7M3_PIPE] |326|  ; [ORIG 16-BIT INS]
     631 000000a4 9000              STR       A1, [SP, #0]          ; [DPU_V7M3_PIPE] |326|  ; [ORIG 16-BIT INS]
     632                            .dwpsn  file "../driverlib/aes.c",line 338,column 5,is_stmt,isa 1
     633                    ;----------------------------------------------------------------------
     634                    ; 338 | HWREG(ui32Base + AES_O_KEY2_0) = pui32Key[0];                          
     635                    ;----------------------------------------------------------------------
     636 000000a6 9801              LDR       A1, [SP, #4]          ; [DPU_V7M3_PIPE] |338|  ; [ORIG 16-BIT INS]
     637 000000a8 9900              LDR       A2, [SP, #0]          ; [DPU_V7M3_PIPE] |338|  ; [ORIG 16-BIT INS]
     638 000000aa 6800              LDR       A1, [A1, #0]          ; [DPU_V7M3_PIPE] |338|  ; [ORIG 16-BIT INS]
     639 000000ac 6188              STR       A1, [A2, #24]         ; [DPU_V7M3_PIPE] |338|  ; [ORIG 16-BIT INS]
     640                            .dwpsn  file "../driverlib/aes.c",line 339,column 5,is_stmt,isa 1
     641                    ;----------------------------------------------------------------------
     642                    ; 339 | HWREG(ui32Base + AES_O_KEY2_1) = pui32Key[1];                          
     643                    ;----------------------------------------------------------------------
     644 000000ae 9801              LDR       A1, [SP, #4]          ; [DPU_V7M3_PIPE] |339|  ; [ORIG 16-BIT INS]
     645 000000b0 9900              LDR       A2, [SP, #0]          ; [DPU_V7M3_PIPE] |339|  ; [ORIG 16-BIT INS]
     646 000000b2 6840              LDR       A1, [A1, #4]          ; [DPU_V7M3_PIPE] |339|  ; [ORIG 16-BIT INS]
     647 000000b4 61C8              STR       A1, [A2, #28]         ; [DPU_V7M3_PIPE] |339|  ; [ORIG 16-BIT INS]
     648                            .dwpsn  file "../driverlib/aes.c",line 340,column 5,is_stmt,isa 1
     649                    ;----------------------------------------------------------------------
     650                    ; 340 | HWREG(ui32Base + AES_O_KEY2_2) = pui32Key[2];                          
     651                    ;----------------------------------------------------------------------
     652 000000b6 9801              LDR       A1, [SP, #4]          ; [DPU_V7M3_PIPE] |340|  ; [ORIG 16-BIT INS]
     653 000000b8 9900              LDR       A2, [SP, #0]          ; [DPU_V7M3_PIPE] |340|  ; [ORIG 16-BIT INS]
     654 000000ba 6880              LDR       A1, [A1, #8]          ; [DPU_V7M3_PIPE] |340|  ; [ORIG 16-BIT INS]
     655 000000bc 6108              STR       A1, [A2, #16]         ; [DPU_V7M3_PIPE] |340|  ; [ORIG 16-BIT INS]
     656                            .dwpsn  file "../driverlib/aes.c",line 341,column 5,is_stmt,isa 1
     657                    ;----------------------------------------------------------------------
     658                    ; 341 | HWREG(ui32Base + AES_O_KEY2_3) = pui32Key[3];                          
     659                    ; 343 | //                                                                     
     660                    ; 344 | // The key is 192 or 256 bits.  Write the next 2 words.                
TI ARM Assembler Unix v18.1.1 Fri Jul  3 20:08:23 2020

Tools Copyright (c) 1996-2017 Texas Instruments Incorporated
aes.asm                                                              PAGE   13

     661                    ; 345 | //                                                                     
     662                    ;----------------------------------------------------------------------
     663 000000be 9801              LDR       A1, [SP, #4]          ; [DPU_V7M3_PIPE] |341|  ; [ORIG 16-BIT INS]
     664 000000c0 9900              LDR       A2, [SP, #0]          ; [DPU_V7M3_PIPE] |341|  ; [ORIG 16-BIT INS]
     665 000000c2 68C0              LDR       A1, [A1, #12]         ; [DPU_V7M3_PIPE] |341|  ; [ORIG 16-BIT INS]
     666 000000c4 6148              STR       A1, [A2, #20]         ; [DPU_V7M3_PIPE] |341|  ; [ORIG 16-BIT INS]
     667                            .dwpsn  file "../driverlib/aes.c",line 346,column 5,is_stmt,isa 1
     668                    ;----------------------------------------------------------------------
     669                    ; 346 | if(ui32Keysize != AES_CFG_KEY_SIZE_128BIT)                             
     670                    ;----------------------------------------------------------------------
     671 000000c6 9802              LDR       A1, [SP, #8]          ; [DPU_V7M3_PIPE] |346|  ; [ORIG 16-BIT INS]
     672 000000c8 2808              CMP       A1, #8                ; [DPU_V7M3_PIPE] |346|  ; [ORIG 16-BIT INS]
     673 000000ca D007              BEQ       ||$C$L5||             ; [DPU_V7M3_PIPE] |346|  ; [ORIG 16-BIT INS]
     674                            ; BRANCHCC OCCURS {||$C$L5||}    ; [] |346| 
     675                    ;* --------------------------------------------------------------------------*
     676                            .dwpsn  file "../driverlib/aes.c",line 348,column 9,is_stmt,isa 1
     677                    ;----------------------------------------------------------------------
     678                    ; 348 | HWREG(ui32Base + AES_O_KEY2_4) = pui32Key[4];                          
     679                    ;----------------------------------------------------------------------
     680 000000cc 9801              LDR       A1, [SP, #4]          ; [DPU_V7M3_PIPE] |348|  ; [ORIG 16-BIT INS]
     681 000000ce 9900              LDR       A2, [SP, #0]          ; [DPU_V7M3_PIPE] |348|  ; [ORIG 16-BIT INS]
     682 000000d0 6900              LDR       A1, [A1, #16]         ; [DPU_V7M3_PIPE] |348|  ; [ORIG 16-BIT INS]
     683 000000d2 6088              STR       A1, [A2, #8]          ; [DPU_V7M3_PIPE] |348|  ; [ORIG 16-BIT INS]
     684                            .dwpsn  file "../driverlib/aes.c",line 349,column 9,is_stmt,isa 1
     685                    ;----------------------------------------------------------------------
     686                    ; 349 | HWREG(ui32Base + AES_O_KEY2_5) = pui32Key[5];                          
     687                    ; 352 | //                                                                     
     688                    ; 353 | // The key is 256 bits.  Write the last 2 words.                       
     689                    ; 354 | //                                                                     
     690                    ;----------------------------------------------------------------------
     691 000000d4 9801              LDR       A1, [SP, #4]          ; [DPU_V7M3_PIPE] |349|  ; [ORIG 16-BIT INS]
     692 000000d6 9900              LDR       A2, [SP, #0]          ; [DPU_V7M3_PIPE] |349|  ; [ORIG 16-BIT INS]
     693 000000d8 6940              LDR       A1, [A1, #20]         ; [DPU_V7M3_PIPE] |349|  ; [ORIG 16-BIT INS]
     694 000000da 60C8              STR       A1, [A2, #12]         ; [DPU_V7M3_PIPE] |349|  ; [ORIG 16-BIT INS]
     695                    ;* --------------------------------------------------------------------------*
     696 000000dc           ||$C$L5||:    
     697                            .dwpsn  file "../driverlib/aes.c",line 355,column 5,is_stmt,isa 1
     698                    ;----------------------------------------------------------------------
     699                    ; 355 | if(ui32Keysize == AES_CFG_KEY_SIZE_256BIT)                             
     700                    ;----------------------------------------------------------------------
     701 000000dc 9802              LDR       A1, [SP, #8]          ; [DPU_V7M3_PIPE] |355|  ; [ORIG 16-BIT INS]
     702 000000de 2818              CMP       A1, #24               ; [DPU_V7M3_PIPE] |355|  ; [ORIG 16-BIT INS]
     703 000000e0 D107              BNE       ||$C$L6||             ; [DPU_V7M3_PIPE] |355|  ; [ORIG 16-BIT INS]
     704                            ; BRANCHCC OCCURS {||$C$L6||}    ; [] |355| 
     705                    ;* --------------------------------------------------------------------------*
     706                            .dwpsn  file "../driverlib/aes.c",line 357,column 9,is_stmt,isa 1
     707                    ;----------------------------------------------------------------------
     708                    ; 357 | HWREG(ui32Base + AES_O_KEY2_6) = pui32Key[6];                          
     709                    ;----------------------------------------------------------------------
     710 000000e2 9801              LDR       A1, [SP, #4]          ; [DPU_V7M3_PIPE] |357|  ; [ORIG 16-BIT INS]
     711 000000e4 9900              LDR       A2, [SP, #0]          ; [DPU_V7M3_PIPE] |357|  ; [ORIG 16-BIT INS]
     712 000000e6 6980              LDR       A1, [A1, #24]         ; [DPU_V7M3_PIPE] |357|  ; [ORIG 16-BIT INS]
     713 000000e8 6008              STR       A1, [A2, #0]          ; [DPU_V7M3_PIPE] |357|  ; [ORIG 16-BIT INS]
     714                            .dwpsn  file "../driverlib/aes.c",line 358,column 9,is_stmt,isa 1
     715                    ;----------------------------------------------------------------------
TI ARM Assembler Unix v18.1.1 Fri Jul  3 20:08:23 2020

Tools Copyright (c) 1996-2017 Texas Instruments Incorporated
aes.asm                                                              PAGE   14

     716                    ; 358 | HWREG(ui32Base + AES_O_KEY2_7) = pui32Key[7];                          
     717                    ;----------------------------------------------------------------------
     718 000000ea 9801              LDR       A1, [SP, #4]          ; [DPU_V7M3_PIPE] |358|  ; [ORIG 16-BIT INS]
     719 000000ec 9900              LDR       A2, [SP, #0]          ; [DPU_V7M3_PIPE] |358|  ; [ORIG 16-BIT INS]
     720 000000ee 69C0              LDR       A1, [A1, #28]         ; [DPU_V7M3_PIPE] |358|  ; [ORIG 16-BIT INS]
     721 000000f0 6048              STR       A1, [A2, #4]          ; [DPU_V7M3_PIPE] |358|  ; [ORIG 16-BIT INS]
     722                            .dwpsn  file "../driverlib/aes.c",line 360,column 1,is_stmt,isa 1
     723                    ;* --------------------------------------------------------------------------*
     724 000000f2           ||$C$L6||:    
     725 000000f2 B004              ADD       SP, SP, #16           ; [DPU_V7M3_PIPE]  ; [ORIG 16-BIT INS]
     726                            .dwcfi  cfa_offset, 0
     727                    $C$DW$35        .dwtag  DW_TAG_TI_branch
     728                            .dwattr $C$DW$35, DW_AT_low_pc(0x00)
     729                            .dwattr $C$DW$35, DW_AT_TI_return
     730                    
     731 000000f4 4770              BX        LR                    ; [DPU_V7M3_PIPE]  ; [ORIG 16-BIT INS]
     732                            ; BRANCH OCCURS                  ; [] 
     733                            .dwattr $C$DW$28, DW_AT_TI_end_file("../driverlib/aes.c")
     734                            .dwattr $C$DW$28, DW_AT_TI_end_line(0x168)
     735                            .dwattr $C$DW$28, DW_AT_TI_end_column(0x01)
     736                            .dwendentry
     737                            .dwendtag $C$DW$28
     738                    
     739 000000f6                   .sect   ".text"
     740                            .clink
     741                            .thumbfunc AESKey3Set
     742 000000f6                   .thumb
     743                            .global AESKey3Set
     744                    
     745                    $C$DW$36        .dwtag  DW_TAG_subprogram
     746                            .dwattr $C$DW$36, DW_AT_name("AESKey3Set")
     747                            .dwattr $C$DW$36, DW_AT_low_pc(AESKey3Set)
     748                            .dwattr $C$DW$36, DW_AT_high_pc(0x00)
     749                            .dwattr $C$DW$36, DW_AT_TI_symbol_name("AESKey3Set")
     750                            .dwattr $C$DW$36, DW_AT_external
     751                            .dwattr $C$DW$36, DW_AT_TI_begin_file("../driverlib/aes.c")
     752                            .dwattr $C$DW$36, DW_AT_TI_begin_line(0x17a)
     753                            .dwattr $C$DW$36, DW_AT_TI_begin_column(0x01)
     754                            .dwattr $C$DW$36, DW_AT_decl_file("../driverlib/aes.c")
     755                            .dwattr $C$DW$36, DW_AT_decl_line(0x17a)
     756                            .dwattr $C$DW$36, DW_AT_decl_column(0x01)
     757                            .dwattr $C$DW$36, DW_AT_TI_max_frame_size(0x08)
     758                            .dwpsn  file "../driverlib/aes.c",line 379,column 1,is_stmt,address AESKey3Set,isa 1
     759                    
     760                            .dwfde $C$DW$CIE, AESKey3Set
     761                    $C$DW$37        .dwtag  DW_TAG_formal_parameter
     762                            .dwattr $C$DW$37, DW_AT_name("ui32Base")
     763                            .dwattr $C$DW$37, DW_AT_TI_symbol_name("ui32Base")
     764                            .dwattr $C$DW$37, DW_AT_type(*$C$DW$T$27)
     765                            .dwattr $C$DW$37, DW_AT_location[DW_OP_reg0]
     766                    
     767                    $C$DW$38        .dwtag  DW_TAG_formal_parameter
     768                            .dwattr $C$DW$38, DW_AT_name("pui32Key")
     769                            .dwattr $C$DW$38, DW_AT_TI_symbol_name("pui32Key")
     770                            .dwattr $C$DW$38, DW_AT_type(*$C$DW$T$34)
TI ARM Assembler Unix v18.1.1 Fri Jul  3 20:08:23 2020

Tools Copyright (c) 1996-2017 Texas Instruments Incorporated
aes.asm                                                              PAGE   15

     771                            .dwattr $C$DW$38, DW_AT_location[DW_OP_reg1]
     772                    
     773                    ;----------------------------------------------------------------------
     774                    ; 378 | AESKey3Set(uint32_t ui32Base, uint32_t *pui32Key)                      
     775                    ;----------------------------------------------------------------------
     776                    
     777                    ;*****************************************************************************
     778                    ;* FUNCTION NAME: AESKey3Set                                                 *
     779                    ;*                                                                           *
     780                    ;*   Regs Modified     : A1,A2,SP                                            *
     781                    ;*   Regs Used         : A1,A2,SP,LR                                         *
     782                    ;*   Local Frame Size  : 0 Args + 8 Auto + 0 Save = 8 byte                   *
     783                    ;*****************************************************************************
     784 000000f6           AESKey3Set:
     785                    ;* --------------------------------------------------------------------------*
     786                            .dwcfi  cfa_offset, 0
     787 000000f6 0D08F1AD          SUB       SP, SP, #8            ; [DPU_V7M3_PIPE]  ; [KEEP 32-BIT INS]
     788                            .dwcfi  cfa_offset, 8
     789                    $C$DW$39        .dwtag  DW_TAG_variable
     790                            .dwattr $C$DW$39, DW_AT_name("ui32Base")
     791                            .dwattr $C$DW$39, DW_AT_TI_symbol_name("ui32Base")
     792                            .dwattr $C$DW$39, DW_AT_type(*$C$DW$T$27)
     793                            .dwattr $C$DW$39, DW_AT_location[DW_OP_breg13 0]
     794                    
     795                    $C$DW$40        .dwtag  DW_TAG_variable
     796                            .dwattr $C$DW$40, DW_AT_name("pui32Key")
     797                            .dwattr $C$DW$40, DW_AT_TI_symbol_name("pui32Key")
     798                            .dwattr $C$DW$40, DW_AT_type(*$C$DW$T$34)
     799                            .dwattr $C$DW$40, DW_AT_location[DW_OP_breg13 4]
     800                    
     801                    ;----------------------------------------------------------------------
     802                    ; 380 | //                                                                     
     803                    ; 381 | // Check the arguments.                                                
     804                    ; 382 | //                                                                     
     805                    ; 383 | ASSERT(ui32Base == AES_BASE);                                          
     806                    ; 385 | //                                                                     
     807                    ; 386 | // Write the key into the upper 4 key registers                        
     808                    ; 387 | //                                                                     
     809                    ;----------------------------------------------------------------------
     810 000000fa 9101              STR       A2, [SP, #4]          ; [DPU_V7M3_PIPE] |379|  ; [ORIG 16-BIT INS]
     811 000000fc 9000              STR       A1, [SP, #0]          ; [DPU_V7M3_PIPE] |379|  ; [ORIG 16-BIT INS]
     812                            .dwpsn  file "../driverlib/aes.c",line 388,column 5,is_stmt,isa 1
     813                    ;----------------------------------------------------------------------
     814                    ; 388 | HWREG(ui32Base + AES_O_KEY2_4) = pui32Key[0];                          
     815                    ;----------------------------------------------------------------------
     816 000000fe 9801              LDR       A1, [SP, #4]          ; [DPU_V7M3_PIPE] |388|  ; [ORIG 16-BIT INS]
     817 00000100 9900              LDR       A2, [SP, #0]          ; [DPU_V7M3_PIPE] |388|  ; [ORIG 16-BIT INS]
     818 00000102 6800              LDR       A1, [A1, #0]          ; [DPU_V7M3_PIPE] |388|  ; [ORIG 16-BIT INS]
     819 00000104 6088              STR       A1, [A2, #8]          ; [DPU_V7M3_PIPE] |388|  ; [ORIG 16-BIT INS]
     820                            .dwpsn  file "../driverlib/aes.c",line 389,column 5,is_stmt,isa 1
     821                    ;----------------------------------------------------------------------
     822                    ; 389 | HWREG(ui32Base + AES_O_KEY2_5) = pui32Key[1];                          
     823                    ;----------------------------------------------------------------------
     824 00000106 9801              LDR       A1, [SP, #4]          ; [DPU_V7M3_PIPE] |389|  ; [ORIG 16-BIT INS]
     825 00000108 9900              LDR       A2, [SP, #0]          ; [DPU_V7M3_PIPE] |389|  ; [ORIG 16-BIT INS]
TI ARM Assembler Unix v18.1.1 Fri Jul  3 20:08:23 2020

Tools Copyright (c) 1996-2017 Texas Instruments Incorporated
aes.asm                                                              PAGE   16

     826 0000010a 6840              LDR       A1, [A1, #4]          ; [DPU_V7M3_PIPE] |389|  ; [ORIG 16-BIT INS]
     827 0000010c 60C8              STR       A1, [A2, #12]         ; [DPU_V7M3_PIPE] |389|  ; [ORIG 16-BIT INS]
     828                            .dwpsn  file "../driverlib/aes.c",line 390,column 5,is_stmt,isa 1
     829                    ;----------------------------------------------------------------------
     830                    ; 390 | HWREG(ui32Base + AES_O_KEY2_6) = pui32Key[2];                          
     831                    ;----------------------------------------------------------------------
     832 0000010e 9801              LDR       A1, [SP, #4]          ; [DPU_V7M3_PIPE] |390|  ; [ORIG 16-BIT INS]
     833 00000110 9900              LDR       A2, [SP, #0]          ; [DPU_V7M3_PIPE] |390|  ; [ORIG 16-BIT INS]
     834 00000112 6880              LDR       A1, [A1, #8]          ; [DPU_V7M3_PIPE] |390|  ; [ORIG 16-BIT INS]
     835 00000114 6008              STR       A1, [A2, #0]          ; [DPU_V7M3_PIPE] |390|  ; [ORIG 16-BIT INS]
     836                            .dwpsn  file "../driverlib/aes.c",line 391,column 5,is_stmt,isa 1
     837                    ;----------------------------------------------------------------------
     838                    ; 391 | HWREG(ui32Base + AES_O_KEY2_7) = pui32Key[3];                          
     839                    ;----------------------------------------------------------------------
     840 00000116 9801              LDR       A1, [SP, #4]          ; [DPU_V7M3_PIPE] |391|  ; [ORIG 16-BIT INS]
     841 00000118 9900              LDR       A2, [SP, #0]          ; [DPU_V7M3_PIPE] |391|  ; [ORIG 16-BIT INS]
     842 0000011a 68C0              LDR       A1, [A1, #12]         ; [DPU_V7M3_PIPE] |391|  ; [ORIG 16-BIT INS]
     843 0000011c 6048              STR       A1, [A2, #4]          ; [DPU_V7M3_PIPE] |391|  ; [ORIG 16-BIT INS]
     844                            .dwpsn  file "../driverlib/aes.c",line 392,column 1,is_stmt,isa 1
     845 0000011e B002              ADD       SP, SP, #8            ; [DPU_V7M3_PIPE]  ; [ORIG 16-BIT INS]
     846                            .dwcfi  cfa_offset, 0
     847                    $C$DW$41        .dwtag  DW_TAG_TI_branch
     848                            .dwattr $C$DW$41, DW_AT_low_pc(0x00)
     849                            .dwattr $C$DW$41, DW_AT_TI_return
     850                    
     851 00000120 4770              BX        LR                    ; [DPU_V7M3_PIPE]  ; [ORIG 16-BIT INS]
     852                            ; BRANCH OCCURS                  ; [] 
     853                            .dwattr $C$DW$36, DW_AT_TI_end_file("../driverlib/aes.c")
     854                            .dwattr $C$DW$36, DW_AT_TI_end_line(0x188)
     855                            .dwattr $C$DW$36, DW_AT_TI_end_column(0x01)
     856                            .dwendentry
     857                            .dwendtag $C$DW$36
     858                    
     859 00000122                   .sect   ".text"
     860                            .clink
     861                            .thumbfunc AESIVSet
     862 00000122                   .thumb
     863                            .global AESIVSet
     864                    
     865                    $C$DW$42        .dwtag  DW_TAG_subprogram
     866                            .dwattr $C$DW$42, DW_AT_name("AESIVSet")
     867                            .dwattr $C$DW$42, DW_AT_low_pc(AESIVSet)
     868                            .dwattr $C$DW$42, DW_AT_high_pc(0x00)
     869                            .dwattr $C$DW$42, DW_AT_TI_symbol_name("AESIVSet")
     870                            .dwattr $C$DW$42, DW_AT_external
     871                            .dwattr $C$DW$42, DW_AT_TI_begin_file("../driverlib/aes.c")
     872                            .dwattr $C$DW$42, DW_AT_TI_begin_line(0x198)
     873                            .dwattr $C$DW$42, DW_AT_TI_begin_column(0x01)
     874                            .dwattr $C$DW$42, DW_AT_decl_file("../driverlib/aes.c")
     875                            .dwattr $C$DW$42, DW_AT_decl_line(0x198)
     876                            .dwattr $C$DW$42, DW_AT_decl_column(0x01)
     877                            .dwattr $C$DW$42, DW_AT_TI_max_frame_size(0x08)
     878                            .dwpsn  file "../driverlib/aes.c",line 409,column 1,is_stmt,address AESIVSet,isa 1
     879                    
     880                            .dwfde $C$DW$CIE, AESIVSet
TI ARM Assembler Unix v18.1.1 Fri Jul  3 20:08:23 2020

Tools Copyright (c) 1996-2017 Texas Instruments Incorporated
aes.asm                                                              PAGE   17

     881                    $C$DW$43        .dwtag  DW_TAG_formal_parameter
     882                            .dwattr $C$DW$43, DW_AT_name("ui32Base")
     883                            .dwattr $C$DW$43, DW_AT_TI_symbol_name("ui32Base")
     884                            .dwattr $C$DW$43, DW_AT_type(*$C$DW$T$27)
     885                            .dwattr $C$DW$43, DW_AT_location[DW_OP_reg0]
     886                    
     887                    $C$DW$44        .dwtag  DW_TAG_formal_parameter
     888                            .dwattr $C$DW$44, DW_AT_name("pui32IVdata")
     889                            .dwattr $C$DW$44, DW_AT_TI_symbol_name("pui32IVdata")
     890                            .dwattr $C$DW$44, DW_AT_type(*$C$DW$T$34)
     891                            .dwattr $C$DW$44, DW_AT_location[DW_OP_reg1]
     892                    
     893                    ;----------------------------------------------------------------------
     894                    ; 408 | AESIVSet(uint32_t ui32Base, uint32_t *pui32IVdata)                     
     895                    ;----------------------------------------------------------------------
     896                    
     897                    ;*****************************************************************************
     898                    ;* FUNCTION NAME: AESIVSet                                                   *
     899                    ;*                                                                           *
     900                    ;*   Regs Modified     : A1,A2,SP                                            *
     901                    ;*   Regs Used         : A1,A2,SP,LR                                         *
     902                    ;*   Local Frame Size  : 0 Args + 8 Auto + 0 Save = 8 byte                   *
     903                    ;*****************************************************************************
     904 00000122           AESIVSet:
     905                    ;* --------------------------------------------------------------------------*
     906                            .dwcfi  cfa_offset, 0
     907 00000122 0D08F1AD          SUB       SP, SP, #8            ; [DPU_V7M3_PIPE]  ; [KEEP 32-BIT INS]
     908                            .dwcfi  cfa_offset, 8
     909                    $C$DW$45        .dwtag  DW_TAG_variable
     910                            .dwattr $C$DW$45, DW_AT_name("ui32Base")
     911                            .dwattr $C$DW$45, DW_AT_TI_symbol_name("ui32Base")
     912                            .dwattr $C$DW$45, DW_AT_type(*$C$DW$T$27)
     913                            .dwattr $C$DW$45, DW_AT_location[DW_OP_breg13 0]
     914                    
     915                    $C$DW$46        .dwtag  DW_TAG_variable
     916                            .dwattr $C$DW$46, DW_AT_name("pui32IVdata")
     917                            .dwattr $C$DW$46, DW_AT_TI_symbol_name("pui32IVdata")
     918                            .dwattr $C$DW$46, DW_AT_type(*$C$DW$T$34)
     919                            .dwattr $C$DW$46, DW_AT_location[DW_OP_breg13 4]
     920                    
     921                    ;----------------------------------------------------------------------
     922                    ; 410 | //                                                                     
     923                    ; 411 | // Check the arguments.                                                
     924                    ; 412 | //                                                                     
     925                    ; 413 | ASSERT(ui32Base == AES_BASE);                                          
     926                    ; 415 | //                                                                     
     927                    ; 416 | // Write the initial vector registers.                                 
     928                    ; 417 | //                                                                     
     929                    ;----------------------------------------------------------------------
     930 00000126 9101              STR       A2, [SP, #4]          ; [DPU_V7M3_PIPE] |409|  ; [ORIG 16-BIT INS]
     931 00000128 9000              STR       A1, [SP, #0]          ; [DPU_V7M3_PIPE] |409|  ; [ORIG 16-BIT INS]
     932                            .dwpsn  file "../driverlib/aes.c",line 418,column 5,is_stmt,isa 1
     933                    ;----------------------------------------------------------------------
     934                    ; 418 | HWREG(ui32Base + AES_O_IV_IN_0) = pui32IVdata[0];                      
     935                    ;----------------------------------------------------------------------
TI ARM Assembler Unix v18.1.1 Fri Jul  3 20:08:23 2020

Tools Copyright (c) 1996-2017 Texas Instruments Incorporated
aes.asm                                                              PAGE   18

     936 0000012a 9801              LDR       A1, [SP, #4]          ; [DPU_V7M3_PIPE] |418|  ; [ORIG 16-BIT INS]
     937 0000012c 9900              LDR       A2, [SP, #0]          ; [DPU_V7M3_PIPE] |418|  ; [ORIG 16-BIT INS]
     938 0000012e 6800              LDR       A1, [A1, #0]          ; [DPU_V7M3_PIPE] |418|  ; [ORIG 16-BIT INS]
     939 00000130 6408              STR       A1, [A2, #64]         ; [DPU_V7M3_PIPE] |418|  ; [ORIG 16-BIT INS]
     940                            .dwpsn  file "../driverlib/aes.c",line 419,column 5,is_stmt,isa 1
     941                    ;----------------------------------------------------------------------
     942                    ; 419 | HWREG(ui32Base + AES_O_IV_IN_1) = pui32IVdata[1];                      
     943                    ;----------------------------------------------------------------------
     944 00000132 9801              LDR       A1, [SP, #4]          ; [DPU_V7M3_PIPE] |419|  ; [ORIG 16-BIT INS]
     945 00000134 9900              LDR       A2, [SP, #0]          ; [DPU_V7M3_PIPE] |419|  ; [ORIG 16-BIT INS]
     946 00000136 6840              LDR       A1, [A1, #4]          ; [DPU_V7M3_PIPE] |419|  ; [ORIG 16-BIT INS]
     947 00000138 6448              STR       A1, [A2, #68]         ; [DPU_V7M3_PIPE] |419|  ; [ORIG 16-BIT INS]
     948                            .dwpsn  file "../driverlib/aes.c",line 420,column 5,is_stmt,isa 1
     949                    ;----------------------------------------------------------------------
     950                    ; 420 | HWREG(ui32Base + AES_O_IV_IN_2) = pui32IVdata[2];                      
     951                    ;----------------------------------------------------------------------
     952 0000013a 9801              LDR       A1, [SP, #4]          ; [DPU_V7M3_PIPE] |420|  ; [ORIG 16-BIT INS]
     953 0000013c 9900              LDR       A2, [SP, #0]          ; [DPU_V7M3_PIPE] |420|  ; [ORIG 16-BIT INS]
     954 0000013e 6880              LDR       A1, [A1, #8]          ; [DPU_V7M3_PIPE] |420|  ; [ORIG 16-BIT INS]
     955 00000140 6488              STR       A1, [A2, #72]         ; [DPU_V7M3_PIPE] |420|  ; [ORIG 16-BIT INS]
     956                            .dwpsn  file "../driverlib/aes.c",line 421,column 5,is_stmt,isa 1
     957                    ;----------------------------------------------------------------------
     958                    ; 421 | HWREG(ui32Base + AES_O_IV_IN_3) = pui32IVdata[3];                      
     959                    ;----------------------------------------------------------------------
     960 00000142 9801              LDR       A1, [SP, #4]          ; [DPU_V7M3_PIPE] |421|  ; [ORIG 16-BIT INS]
     961 00000144 9900              LDR       A2, [SP, #0]          ; [DPU_V7M3_PIPE] |421|  ; [ORIG 16-BIT INS]
     962 00000146 68C0              LDR       A1, [A1, #12]         ; [DPU_V7M3_PIPE] |421|  ; [ORIG 16-BIT INS]
     963 00000148 64C8              STR       A1, [A2, #76]         ; [DPU_V7M3_PIPE] |421|  ; [ORIG 16-BIT INS]
     964                            .dwpsn  file "../driverlib/aes.c",line 422,column 1,is_stmt,isa 1
     965 0000014a B002              ADD       SP, SP, #8            ; [DPU_V7M3_PIPE]  ; [ORIG 16-BIT INS]
     966                            .dwcfi  cfa_offset, 0
     967                    $C$DW$47        .dwtag  DW_TAG_TI_branch
     968                            .dwattr $C$DW$47, DW_AT_low_pc(0x00)
     969                            .dwattr $C$DW$47, DW_AT_TI_return
     970                    
     971 0000014c 4770              BX        LR                    ; [DPU_V7M3_PIPE]  ; [ORIG 16-BIT INS]
     972                            ; BRANCH OCCURS                  ; [] 
     973                            .dwattr $C$DW$42, DW_AT_TI_end_file("../driverlib/aes.c")
     974                            .dwattr $C$DW$42, DW_AT_TI_end_line(0x1a6)
     975                            .dwattr $C$DW$42, DW_AT_TI_end_column(0x01)
     976                            .dwendentry
     977                            .dwendtag $C$DW$42
     978                    
     979 0000014e                   .sect   ".text"
     980                            .clink
     981                            .thumbfunc AESIVRead
     982 0000014e                   .thumb
     983                            .global AESIVRead
     984                    
     985                    $C$DW$48        .dwtag  DW_TAG_subprogram
     986                            .dwattr $C$DW$48, DW_AT_name("AESIVRead")
     987                            .dwattr $C$DW$48, DW_AT_low_pc(AESIVRead)
     988                            .dwattr $C$DW$48, DW_AT_high_pc(0x00)
     989                            .dwattr $C$DW$48, DW_AT_TI_symbol_name("AESIVRead")
     990                            .dwattr $C$DW$48, DW_AT_external
TI ARM Assembler Unix v18.1.1 Fri Jul  3 20:08:23 2020

Tools Copyright (c) 1996-2017 Texas Instruments Incorporated
aes.asm                                                              PAGE   19

     991                            .dwattr $C$DW$48, DW_AT_TI_begin_file("../driverlib/aes.c")
     992                            .dwattr $C$DW$48, DW_AT_TI_begin_line(0x1b7)
     993                            .dwattr $C$DW$48, DW_AT_TI_begin_column(0x01)
     994                            .dwattr $C$DW$48, DW_AT_decl_file("../driverlib/aes.c")
     995                            .dwattr $C$DW$48, DW_AT_decl_line(0x1b7)
     996                            .dwattr $C$DW$48, DW_AT_decl_column(0x01)
     997                            .dwattr $C$DW$48, DW_AT_TI_max_frame_size(0x08)
     998                            .dwpsn  file "../driverlib/aes.c",line 440,column 1,is_stmt,address AESIVRead,isa 1
     999                    
    1000                            .dwfde $C$DW$CIE, AESIVRead
    1001                    $C$DW$49        .dwtag  DW_TAG_formal_parameter
    1002                            .dwattr $C$DW$49, DW_AT_name("ui32Base")
    1003                            .dwattr $C$DW$49, DW_AT_TI_symbol_name("ui32Base")
    1004                            .dwattr $C$DW$49, DW_AT_type(*$C$DW$T$27)
    1005                            .dwattr $C$DW$49, DW_AT_location[DW_OP_reg0]
    1006                    
    1007                    $C$DW$50        .dwtag  DW_TAG_formal_parameter
    1008                            .dwattr $C$DW$50, DW_AT_name("pui32IVData")
    1009                            .dwattr $C$DW$50, DW_AT_TI_symbol_name("pui32IVData")
    1010                            .dwattr $C$DW$50, DW_AT_type(*$C$DW$T$34)
    1011                            .dwattr $C$DW$50, DW_AT_location[DW_OP_reg1]
    1012                    
    1013                    ;----------------------------------------------------------------------
    1014                    ; 439 | AESIVRead(uint32_t ui32Base, uint32_t *pui32IVData)                    
    1015                    ;----------------------------------------------------------------------
    1016                    
    1017                    ;*****************************************************************************
    1018                    ;* FUNCTION NAME: AESIVRead                                                  *
    1019                    ;*                                                                           *
    1020                    ;*   Regs Modified     : A1,A2,SP,SR                                         *
    1021                    ;*   Regs Used         : A1,A2,SP,LR,SR                                      *
    1022                    ;*   Local Frame Size  : 0 Args + 8 Auto + 0 Save = 8 byte                   *
    1023                    ;*****************************************************************************
    1024 0000014e           AESIVRead:
    1025                    ;* --------------------------------------------------------------------------*
    1026                            .dwcfi  cfa_offset, 0
    1027 0000014e 0D08F1AD          SUB       SP, SP, #8            ; [DPU_V7M3_PIPE]  ; [KEEP 32-BIT INS]
    1028                            .dwcfi  cfa_offset, 8
    1029                    $C$DW$51        .dwtag  DW_TAG_variable
    1030                            .dwattr $C$DW$51, DW_AT_name("ui32Base")
    1031                            .dwattr $C$DW$51, DW_AT_TI_symbol_name("ui32Base")
    1032                            .dwattr $C$DW$51, DW_AT_type(*$C$DW$T$27)
    1033                            .dwattr $C$DW$51, DW_AT_location[DW_OP_breg13 0]
    1034                    
    1035                    $C$DW$52        .dwtag  DW_TAG_variable
    1036                            .dwattr $C$DW$52, DW_AT_name("pui32IVData")
    1037                            .dwattr $C$DW$52, DW_AT_TI_symbol_name("pui32IVData")
    1038                            .dwattr $C$DW$52, DW_AT_type(*$C$DW$T$34)
    1039                            .dwattr $C$DW$52, DW_AT_location[DW_OP_breg13 4]
    1040                    
    1041                    ;----------------------------------------------------------------------
    1042                    ; 441 | //                                                                     
    1043                    ; 442 | // Check the arguments.                                                
    1044                    ; 443 | //                                                                     
    1045                    ; 444 | ASSERT(ui32Base == AES_BASE);                                          
TI ARM Assembler Unix v18.1.1 Fri Jul  3 20:08:23 2020

Tools Copyright (c) 1996-2017 Texas Instruments Incorporated
aes.asm                                                              PAGE   20

    1046                    ; 446 | //                                                                     
    1047                    ; 447 | // Wait for the output context to be ready.                            
    1048                    ; 448 | //                                                                     
    1049                    ;----------------------------------------------------------------------
    1050 00000152 9101              STR       A2, [SP, #4]          ; [DPU_V7M3_PIPE] |440|  ; [ORIG 16-BIT INS]
    1051 00000154 9000              STR       A1, [SP, #0]          ; [DPU_V7M3_PIPE] |440|  ; [ORIG 16-BIT INS]
    1052                            .dwpsn  file "../driverlib/aes.c",line 449,column 5,is_stmt,isa 1
    1053                    ;----------------------------------------------------------------------
    1054                    ; 449 | while((AES_CTRL_SVCTXTRDY & (HWREG(ui32Base + AES_O_CTRL))) == 0)      
    1055                    ;----------------------------------------------------------------------
    1056                    ;* --------------------------------------------------------------------------*
    1057                    ;*   BEGIN LOOP ||$C$L7||
    1058                    ;*
    1059                    ;*   Loop source line                : 449
    1060                    ;*   Loop closing brace source line  : 451
    1061                    ;*   Known Minimum Trip Count        : 1
    1062                    ;*   Known Maximum Trip Count        : 4294967295
    1063                    ;*   Known Max Trip Count Factor     : 1
    1064                    ;* --------------------------------------------------------------------------*
    1065 00000156           ||$C$L7||:    
    1066                            .dwpsn  file "../driverlib/aes.c",line 449,column 11,is_stmt,isa 1
    1067                    ;----------------------------------------------------------------------
    1068                    ; 453 | //                                                                     
    1069                    ; 454 | // Read the tag data.                                                  
    1070                    ; 455 | //                                                                     
    1071                    ;----------------------------------------------------------------------
    1072 00000156 9800              LDR       A1, [SP, #0]          ; [DPU_V7M3_PIPE] |449|  ; [ORIG 16-BIT INS]
    1073 00000158 6D00              LDR       A1, [A1, #80]         ; [DPU_V7M3_PIPE] |449|  ; [ORIG 16-BIT INS]
    1074 0000015a 0FC0              LSRS      A1, A1, #31           ; [DPU_V7M3_PIPE] |449|  ; [ORIG 16-BIT INS]
    1075 0000015c D3FB              BCC       ||$C$L7||             ; [DPU_V7M3_PIPE] |449|  ; [ORIG 16-BIT INS]
    1076                            ; BRANCHCC OCCURS {||$C$L7||}    ; [] |449| 
    1077                    ;* --------------------------------------------------------------------------*
    1078                            .dwpsn  file "../driverlib/aes.c",line 456,column 5,is_stmt,isa 1
    1079                    ;----------------------------------------------------------------------
    1080                    ; 456 | pui32IVData[0] = HWREG((ui32Base + AES_O_IV_IN_0));                    
    1081                    ;----------------------------------------------------------------------
    1082 0000015e 9800              LDR       A1, [SP, #0]          ; [DPU_V7M3_PIPE] |456|  ; [ORIG 16-BIT INS]
    1083 00000160 9901              LDR       A2, [SP, #4]          ; [DPU_V7M3_PIPE] |456|  ; [ORIG 16-BIT INS]
    1084 00000162 6C00              LDR       A1, [A1, #64]         ; [DPU_V7M3_PIPE] |456|  ; [ORIG 16-BIT INS]
    1085 00000164 6008              STR       A1, [A2, #0]          ; [DPU_V7M3_PIPE] |456|  ; [ORIG 16-BIT INS]
    1086                            .dwpsn  file "../driverlib/aes.c",line 457,column 5,is_stmt,isa 1
    1087                    ;----------------------------------------------------------------------
    1088                    ; 457 | pui32IVData[1] = HWREG((ui32Base + AES_O_IV_IN_1));                    
    1089                    ;----------------------------------------------------------------------
    1090 00000166 9800              LDR       A1, [SP, #0]          ; [DPU_V7M3_PIPE] |457|  ; [ORIG 16-BIT INS]
    1091 00000168 9901              LDR       A2, [SP, #4]          ; [DPU_V7M3_PIPE] |457|  ; [ORIG 16-BIT INS]
    1092 0000016a 6C40              LDR       A1, [A1, #68]         ; [DPU_V7M3_PIPE] |457|  ; [ORIG 16-BIT INS]
    1093 0000016c 6048              STR       A1, [A2, #4]          ; [DPU_V7M3_PIPE] |457|  ; [ORIG 16-BIT INS]
    1094                            .dwpsn  file "../driverlib/aes.c",line 458,column 5,is_stmt,isa 1
    1095                    ;----------------------------------------------------------------------
    1096                    ; 458 | pui32IVData[2] = HWREG((ui32Base + AES_O_IV_IN_2));                    
    1097                    ;----------------------------------------------------------------------
    1098 0000016e 9800              LDR       A1, [SP, #0]          ; [DPU_V7M3_PIPE] |458|  ; [ORIG 16-BIT INS]
    1099 00000170 9901              LDR       A2, [SP, #4]          ; [DPU_V7M3_PIPE] |458|  ; [ORIG 16-BIT INS]
    1100 00000172 6C80              LDR       A1, [A1, #72]         ; [DPU_V7M3_PIPE] |458|  ; [ORIG 16-BIT INS]
TI ARM Assembler Unix v18.1.1 Fri Jul  3 20:08:23 2020

Tools Copyright (c) 1996-2017 Texas Instruments Incorporated
aes.asm                                                              PAGE   21

    1101 00000174 6088              STR       A1, [A2, #8]          ; [DPU_V7M3_PIPE] |458|  ; [ORIG 16-BIT INS]
    1102                            .dwpsn  file "../driverlib/aes.c",line 459,column 5,is_stmt,isa 1
    1103                    ;----------------------------------------------------------------------
    1104                    ; 459 | pui32IVData[3] = HWREG((ui32Base + AES_O_IV_IN_3));                    
    1105                    ;----------------------------------------------------------------------
    1106 00000176 9800              LDR       A1, [SP, #0]          ; [DPU_V7M3_PIPE] |459|  ; [ORIG 16-BIT INS]
    1107 00000178 9901              LDR       A2, [SP, #4]          ; [DPU_V7M3_PIPE] |459|  ; [ORIG 16-BIT INS]
    1108 0000017a 6CC0              LDR       A1, [A1, #76]         ; [DPU_V7M3_PIPE] |459|  ; [ORIG 16-BIT INS]
    1109 0000017c 60C8              STR       A1, [A2, #12]         ; [DPU_V7M3_PIPE] |459|  ; [ORIG 16-BIT INS]
    1110                            .dwpsn  file "../driverlib/aes.c",line 460,column 1,is_stmt,isa 1
    1111 0000017e B002              ADD       SP, SP, #8            ; [DPU_V7M3_PIPE]  ; [ORIG 16-BIT INS]
    1112                            .dwcfi  cfa_offset, 0
    1113                    $C$DW$53        .dwtag  DW_TAG_TI_branch
    1114                            .dwattr $C$DW$53, DW_AT_low_pc(0x00)
    1115                            .dwattr $C$DW$53, DW_AT_TI_return
    1116                    
    1117 00000180 4770              BX        LR                    ; [DPU_V7M3_PIPE]  ; [ORIG 16-BIT INS]
    1118                            ; BRANCH OCCURS                  ; [] 
    1119                            .dwattr $C$DW$48, DW_AT_TI_end_file("../driverlib/aes.c")
    1120                            .dwattr $C$DW$48, DW_AT_TI_end_line(0x1cc)
    1121                            .dwattr $C$DW$48, DW_AT_TI_end_column(0x01)
    1122                            .dwendentry
    1123                            .dwendtag $C$DW$48
    1124                    
    1125 00000182                   .sect   ".text"
    1126                            .clink
    1127                            .thumbfunc AESTagRead
    1128 00000182                   .thumb
    1129                            .global AESTagRead
    1130                    
    1131                    $C$DW$54        .dwtag  DW_TAG_subprogram
    1132                            .dwattr $C$DW$54, DW_AT_name("AESTagRead")
    1133                            .dwattr $C$DW$54, DW_AT_low_pc(AESTagRead)
    1134                            .dwattr $C$DW$54, DW_AT_high_pc(0x00)
    1135                            .dwattr $C$DW$54, DW_AT_TI_symbol_name("AESTagRead")
    1136                            .dwattr $C$DW$54, DW_AT_external
    1137                            .dwattr $C$DW$54, DW_AT_TI_begin_file("../driverlib/aes.c")
    1138                            .dwattr $C$DW$54, DW_AT_TI_begin_line(0x1dd)
    1139                            .dwattr $C$DW$54, DW_AT_TI_begin_column(0x01)
    1140                            .dwattr $C$DW$54, DW_AT_decl_file("../driverlib/aes.c")
    1141                            .dwattr $C$DW$54, DW_AT_decl_line(0x1dd)
    1142                            .dwattr $C$DW$54, DW_AT_decl_column(0x01)
    1143                            .dwattr $C$DW$54, DW_AT_TI_max_frame_size(0x08)
    1144                            .dwpsn  file "../driverlib/aes.c",line 478,column 1,is_stmt,address AESTagRead,isa 1
    1145                    
    1146                            .dwfde $C$DW$CIE, AESTagRead
    1147                    $C$DW$55        .dwtag  DW_TAG_formal_parameter
    1148                            .dwattr $C$DW$55, DW_AT_name("ui32Base")
    1149                            .dwattr $C$DW$55, DW_AT_TI_symbol_name("ui32Base")
    1150                            .dwattr $C$DW$55, DW_AT_type(*$C$DW$T$27)
    1151                            .dwattr $C$DW$55, DW_AT_location[DW_OP_reg0]
    1152                    
    1153                    $C$DW$56        .dwtag  DW_TAG_formal_parameter
    1154                            .dwattr $C$DW$56, DW_AT_name("pui32TagData")
    1155                            .dwattr $C$DW$56, DW_AT_TI_symbol_name("pui32TagData")
TI ARM Assembler Unix v18.1.1 Fri Jul  3 20:08:23 2020

Tools Copyright (c) 1996-2017 Texas Instruments Incorporated
aes.asm                                                              PAGE   22

    1156                            .dwattr $C$DW$56, DW_AT_type(*$C$DW$T$34)
    1157                            .dwattr $C$DW$56, DW_AT_location[DW_OP_reg1]
    1158                    
    1159                    ;----------------------------------------------------------------------
    1160                    ; 477 | AESTagRead(uint32_t ui32Base, uint32_t *pui32TagData)                  
    1161                    ;----------------------------------------------------------------------
    1162                    
    1163                    ;*****************************************************************************
    1164                    ;* FUNCTION NAME: AESTagRead                                                 *
    1165                    ;*                                                                           *
    1166                    ;*   Regs Modified     : A1,A2,SP,SR                                         *
    1167                    ;*   Regs Used         : A1,A2,SP,LR,SR                                      *
    1168                    ;*   Local Frame Size  : 0 Args + 8 Auto + 0 Save = 8 byte                   *
    1169                    ;*****************************************************************************
    1170 00000182           AESTagRead:
    1171                    ;* --------------------------------------------------------------------------*
    1172                            .dwcfi  cfa_offset, 0
    1173 00000182 0D08F1AD          SUB       SP, SP, #8            ; [DPU_V7M3_PIPE]  ; [KEEP 32-BIT INS]
    1174                            .dwcfi  cfa_offset, 8
    1175                    $C$DW$57        .dwtag  DW_TAG_variable
    1176                            .dwattr $C$DW$57, DW_AT_name("ui32Base")
    1177                            .dwattr $C$DW$57, DW_AT_TI_symbol_name("ui32Base")
    1178                            .dwattr $C$DW$57, DW_AT_type(*$C$DW$T$27)
    1179                            .dwattr $C$DW$57, DW_AT_location[DW_OP_breg13 0]
    1180                    
    1181                    $C$DW$58        .dwtag  DW_TAG_variable
    1182                            .dwattr $C$DW$58, DW_AT_name("pui32TagData")
    1183                            .dwattr $C$DW$58, DW_AT_TI_symbol_name("pui32TagData")
    1184                            .dwattr $C$DW$58, DW_AT_type(*$C$DW$T$34)
    1185                            .dwattr $C$DW$58, DW_AT_location[DW_OP_breg13 4]
    1186                    
    1187                    ;----------------------------------------------------------------------
    1188                    ; 479 | //                                                                     
    1189                    ; 480 | // Check the arguments.                                                
    1190                    ; 481 | //                                                                     
    1191                    ; 482 | ASSERT(ui32Base == AES_BASE);                                          
    1192                    ; 484 | //                                                                     
    1193                    ; 485 | // Wait for the output context to be ready.                            
    1194                    ; 486 | //                                                                     
    1195                    ;----------------------------------------------------------------------
    1196 00000186 9101              STR       A2, [SP, #4]          ; [DPU_V7M3_PIPE] |478|  ; [ORIG 16-BIT INS]
    1197 00000188 9000              STR       A1, [SP, #0]          ; [DPU_V7M3_PIPE] |478|  ; [ORIG 16-BIT INS]
    1198                            .dwpsn  file "../driverlib/aes.c",line 487,column 5,is_stmt,isa 1
    1199                    ;----------------------------------------------------------------------
    1200                    ; 487 | while((AES_CTRL_SVCTXTRDY & (HWREG(ui32Base + AES_O_CTRL))) == 0)      
    1201                    ;----------------------------------------------------------------------
    1202                    ;* --------------------------------------------------------------------------*
    1203                    ;*   BEGIN LOOP ||$C$L8||
    1204                    ;*
    1205                    ;*   Loop source line                : 487
    1206                    ;*   Loop closing brace source line  : 489
    1207                    ;*   Known Minimum Trip Count        : 1
    1208                    ;*   Known Maximum Trip Count        : 4294967295
    1209                    ;*   Known Max Trip Count Factor     : 1
    1210                    ;* --------------------------------------------------------------------------*
TI ARM Assembler Unix v18.1.1 Fri Jul  3 20:08:23 2020

Tools Copyright (c) 1996-2017 Texas Instruments Incorporated
aes.asm                                                              PAGE   23

    1211 0000018a           ||$C$L8||:    
    1212                            .dwpsn  file "../driverlib/aes.c",line 487,column 11,is_stmt,isa 1
    1213                    ;----------------------------------------------------------------------
    1214                    ; 491 | //                                                                     
    1215                    ; 492 | // Read the tag data.                                                  
    1216                    ; 493 | //                                                                     
    1217                    ;----------------------------------------------------------------------
    1218 0000018a 9800              LDR       A1, [SP, #0]          ; [DPU_V7M3_PIPE] |487|  ; [ORIG 16-BIT INS]
    1219 0000018c 6D00              LDR       A1, [A1, #80]         ; [DPU_V7M3_PIPE] |487|  ; [ORIG 16-BIT INS]
    1220 0000018e 0FC0              LSRS      A1, A1, #31           ; [DPU_V7M3_PIPE] |487|  ; [ORIG 16-BIT INS]
    1221 00000190 D3FB              BCC       ||$C$L8||             ; [DPU_V7M3_PIPE] |487|  ; [ORIG 16-BIT INS]
    1222                            ; BRANCHCC OCCURS {||$C$L8||}    ; [] |487| 
    1223                    ;* --------------------------------------------------------------------------*
    1224                            .dwpsn  file "../driverlib/aes.c",line 494,column 5,is_stmt,isa 1
    1225                    ;----------------------------------------------------------------------
    1226                    ; 494 | pui32TagData[0] = HWREG((ui32Base + AES_O_TAG_OUT_0));                 
    1227                    ;----------------------------------------------------------------------
    1228 00000192 9800              LDR       A1, [SP, #0]          ; [DPU_V7M3_PIPE] |494|  ; [ORIG 16-BIT INS]
    1229 00000194 9901              LDR       A2, [SP, #4]          ; [DPU_V7M3_PIPE] |494|  ; [ORIG 16-BIT INS]
    1230 00000196 6F00              LDR       A1, [A1, #112]        ; [DPU_V7M3_PIPE] |494|  ; [ORIG 16-BIT INS]
    1231 00000198 6008              STR       A1, [A2, #0]          ; [DPU_V7M3_PIPE] |494|  ; [ORIG 16-BIT INS]
    1232                            .dwpsn  file "../driverlib/aes.c",line 495,column 5,is_stmt,isa 1
    1233                    ;----------------------------------------------------------------------
    1234                    ; 495 | pui32TagData[1] = HWREG((ui32Base + AES_O_TAG_OUT_1));                 
    1235                    ;----------------------------------------------------------------------
    1236 0000019a 9800              LDR       A1, [SP, #0]          ; [DPU_V7M3_PIPE] |495|  ; [ORIG 16-BIT INS]
    1237 0000019c 9901              LDR       A2, [SP, #4]          ; [DPU_V7M3_PIPE] |495|  ; [ORIG 16-BIT INS]
    1238 0000019e 6F40              LDR       A1, [A1, #116]        ; [DPU_V7M3_PIPE] |495|  ; [ORIG 16-BIT INS]
    1239 000001a0 6048              STR       A1, [A2, #4]          ; [DPU_V7M3_PIPE] |495|  ; [ORIG 16-BIT INS]
    1240                            .dwpsn  file "../driverlib/aes.c",line 496,column 5,is_stmt,isa 1
    1241                    ;----------------------------------------------------------------------
    1242                    ; 496 | pui32TagData[2] = HWREG((ui32Base + AES_O_TAG_OUT_2));                 
    1243                    ;----------------------------------------------------------------------
    1244 000001a2 9800              LDR       A1, [SP, #0]          ; [DPU_V7M3_PIPE] |496|  ; [ORIG 16-BIT INS]
    1245 000001a4 9901              LDR       A2, [SP, #4]          ; [DPU_V7M3_PIPE] |496|  ; [ORIG 16-BIT INS]
    1246 000001a6 6F80              LDR       A1, [A1, #120]        ; [DPU_V7M3_PIPE] |496|  ; [ORIG 16-BIT INS]
    1247 000001a8 6088              STR       A1, [A2, #8]          ; [DPU_V7M3_PIPE] |496|  ; [ORIG 16-BIT INS]
    1248                            .dwpsn  file "../driverlib/aes.c",line 497,column 5,is_stmt,isa 1
    1249                    ;----------------------------------------------------------------------
    1250                    ; 497 | pui32TagData[3] = HWREG((ui32Base + AES_O_TAG_OUT_3));                 
    1251                    ;----------------------------------------------------------------------
    1252 000001aa 9800              LDR       A1, [SP, #0]          ; [DPU_V7M3_PIPE] |497|  ; [ORIG 16-BIT INS]
    1253 000001ac 9901              LDR       A2, [SP, #4]          ; [DPU_V7M3_PIPE] |497|  ; [ORIG 16-BIT INS]
    1254 000001ae 6FC0              LDR       A1, [A1, #124]        ; [DPU_V7M3_PIPE] |497|  ; [ORIG 16-BIT INS]
    1255 000001b0 60C8              STR       A1, [A2, #12]         ; [DPU_V7M3_PIPE] |497|  ; [ORIG 16-BIT INS]
    1256                            .dwpsn  file "../driverlib/aes.c",line 498,column 1,is_stmt,isa 1
    1257 000001b2 B002              ADD       SP, SP, #8            ; [DPU_V7M3_PIPE]  ; [ORIG 16-BIT INS]
    1258                            .dwcfi  cfa_offset, 0
    1259                    $C$DW$59        .dwtag  DW_TAG_TI_branch
    1260                            .dwattr $C$DW$59, DW_AT_low_pc(0x00)
    1261                            .dwattr $C$DW$59, DW_AT_TI_return
    1262                    
    1263 000001b4 4770              BX        LR                    ; [DPU_V7M3_PIPE]  ; [ORIG 16-BIT INS]
    1264                            ; BRANCH OCCURS                  ; [] 
    1265                            .dwattr $C$DW$54, DW_AT_TI_end_file("../driverlib/aes.c")
TI ARM Assembler Unix v18.1.1 Fri Jul  3 20:08:23 2020

Tools Copyright (c) 1996-2017 Texas Instruments Incorporated
aes.asm                                                              PAGE   24

    1266                            .dwattr $C$DW$54, DW_AT_TI_end_line(0x1f2)
    1267                            .dwattr $C$DW$54, DW_AT_TI_end_column(0x01)
    1268                            .dwendentry
    1269                            .dwendtag $C$DW$54
    1270                    
    1271 000001b6                   .sect   ".text"
    1272                            .clink
    1273                            .thumbfunc AESLengthSet
    1274 000001b6                   .thumb
    1275                            .global AESLengthSet
    1276                    
    1277                    $C$DW$60        .dwtag  DW_TAG_subprogram
    1278                            .dwattr $C$DW$60, DW_AT_name("AESLengthSet")
    1279                            .dwattr $C$DW$60, DW_AT_low_pc(AESLengthSet)
    1280                            .dwattr $C$DW$60, DW_AT_high_pc(0x00)
    1281                            .dwattr $C$DW$60, DW_AT_TI_symbol_name("AESLengthSet")
    1282                            .dwattr $C$DW$60, DW_AT_external
    1283                            .dwattr $C$DW$60, DW_AT_TI_begin_file("../driverlib/aes.c")
    1284                            .dwattr $C$DW$60, DW_AT_TI_begin_line(0x20c)
    1285                            .dwattr $C$DW$60, DW_AT_TI_begin_column(0x01)
    1286                            .dwattr $C$DW$60, DW_AT_decl_file("../driverlib/aes.c")
    1287                            .dwattr $C$DW$60, DW_AT_decl_line(0x20c)
    1288                            .dwattr $C$DW$60, DW_AT_decl_column(0x01)
    1289                            .dwattr $C$DW$60, DW_AT_TI_max_frame_size(0x10)
    1290                            .dwpsn  file "../driverlib/aes.c",line 525,column 1,is_stmt,address AESLengthSet,isa 1
    1291                    
    1292                            .dwfde $C$DW$CIE, AESLengthSet
    1293                    $C$DW$61        .dwtag  DW_TAG_formal_parameter
    1294                            .dwattr $C$DW$61, DW_AT_name("ui32Base")
    1295                            .dwattr $C$DW$61, DW_AT_TI_symbol_name("ui32Base")
    1296                            .dwattr $C$DW$61, DW_AT_type(*$C$DW$T$27)
    1297                            .dwattr $C$DW$61, DW_AT_location[DW_OP_reg0]
    1298                    
    1299                    $C$DW$62        .dwtag  DW_TAG_formal_parameter
    1300                            .dwattr $C$DW$62, DW_AT_name("ui64Length")
    1301                            .dwattr $C$DW$62, DW_AT_TI_symbol_name("ui64Length")
    1302                            .dwattr $C$DW$62, DW_AT_type(*$C$DW$T$39)
    1303                            .dwattr $C$DW$62, DW_AT_location[DW_OP_reg2]
    1304                    
    1305                    ;----------------------------------------------------------------------
    1306                    ; 524 | AESLengthSet(uint32_t ui32Base, uint64_t ui64Length)                   
    1307                    ;----------------------------------------------------------------------
    1308                    
    1309                    ;*****************************************************************************
    1310                    ;* FUNCTION NAME: AESLengthSet                                               *
    1311                    ;*                                                                           *
    1312                    ;*   Regs Modified     : A1,A2,SP                                            *
    1313                    ;*   Regs Used         : A1,A2,A3,A4,SP,LR                                   *
    1314                    ;*   Local Frame Size  : 0 Args + 12 Auto + 0 Save = 12 byte                 *
    1315                    ;*****************************************************************************
    1316 000001b6           AESLengthSet:
    1317                    ;* --------------------------------------------------------------------------*
    1318                            .dwcfi  cfa_offset, 0
    1319 000001b6 0D10F1AD          SUB       SP, SP, #16           ; [DPU_V7M3_PIPE]  ; [KEEP 32-BIT INS]
    1320                            .dwcfi  cfa_offset, 16
TI ARM Assembler Unix v18.1.1 Fri Jul  3 20:08:23 2020

Tools Copyright (c) 1996-2017 Texas Instruments Incorporated
aes.asm                                                              PAGE   25

    1321                    $C$DW$63        .dwtag  DW_TAG_variable
    1322                            .dwattr $C$DW$63, DW_AT_name("ui64Length")
    1323                            .dwattr $C$DW$63, DW_AT_TI_symbol_name("ui64Length")
    1324                            .dwattr $C$DW$63, DW_AT_type(*$C$DW$T$39)
    1325                            .dwattr $C$DW$63, DW_AT_location[DW_OP_breg13 0]
    1326                    
    1327                    $C$DW$64        .dwtag  DW_TAG_variable
    1328                            .dwattr $C$DW$64, DW_AT_name("ui32Base")
    1329                            .dwattr $C$DW$64, DW_AT_TI_symbol_name("ui32Base")
    1330                            .dwattr $C$DW$64, DW_AT_type(*$C$DW$T$27)
    1331                            .dwattr $C$DW$64, DW_AT_location[DW_OP_breg13 8]
    1332                    
    1333                    ;----------------------------------------------------------------------
    1334                    ; 526 | //                                                                     
    1335                    ; 527 | // Check the arguments.                                                
    1336                    ; 528 | //                                                                     
    1337                    ; 529 | ASSERT(ui32Base == AES_BASE);                                          
    1338                    ; 531 | //                                                                     
    1339                    ; 532 | // Write the length register by shifting the 64-bit ui64Length.        
    1340                    ; 533 | //                                                                     
    1341                    ;----------------------------------------------------------------------
    1342 000001ba 000CE88D          STMIA     SP, {A3,A4}           ; [DPU_V7M3_PIPE] |525|  ; [KEEP 32-BIT INS]
    1343 000001be 9002              STR       A1, [SP, #8]          ; [DPU_V7M3_PIPE] |525|  ; [ORIG 16-BIT INS]
    1344                            .dwpsn  file "../driverlib/aes.c",line 534,column 5,is_stmt,isa 1
    1345                    ;----------------------------------------------------------------------
    1346                    ; 534 | HWREG(ui32Base + AES_O_C_LENGTH_0) = (uint32_t)(ui64Length);           
    1347                    ;----------------------------------------------------------------------
    1348 000001c0 9902              LDR       A2, [SP, #8]          ; [DPU_V7M3_PIPE] |534|  ; [ORIG 16-BIT INS]
    1349 000001c2 9800              LDR       A1, [SP, #0]          ; [DPU_V7M3_PIPE] |534|  ; [ORIG 16-BIT INS]
    1350 000001c4 6548              STR       A1, [A2, #84]         ; [DPU_V7M3_PIPE] |534|  ; [ORIG 16-BIT INS]
    1351                            .dwpsn  file "../driverlib/aes.c",line 535,column 5,is_stmt,isa 1
    1352                    ;----------------------------------------------------------------------
    1353                    ; 535 | HWREG(ui32Base + AES_O_C_LENGTH_1) = (uint32_t)(ui64Length >> 32);     
    1354                    ;----------------------------------------------------------------------
    1355 000001c6 9801              LDR       A1, [SP, #4]          ; [DPU_V7M3_PIPE] |535|  ; [ORIG 16-BIT INS]
    1356 000001c8 9902              LDR       A2, [SP, #8]          ; [DPU_V7M3_PIPE] |535|  ; [ORIG 16-BIT INS]
    1357 000001ca 6588              STR       A1, [A2, #88]         ; [DPU_V7M3_PIPE] |535|  ; [ORIG 16-BIT INS]
    1358                            .dwpsn  file "../driverlib/aes.c",line 536,column 1,is_stmt,isa 1
    1359 000001cc B004              ADD       SP, SP, #16           ; [DPU_V7M3_PIPE]  ; [ORIG 16-BIT INS]
    1360                            .dwcfi  cfa_offset, 0
    1361                    $C$DW$65        .dwtag  DW_TAG_TI_branch
    1362                            .dwattr $C$DW$65, DW_AT_low_pc(0x00)
    1363                            .dwattr $C$DW$65, DW_AT_TI_return
    1364                    
    1365 000001ce 4770              BX        LR                    ; [DPU_V7M3_PIPE]  ; [ORIG 16-BIT INS]
    1366                            ; BRANCH OCCURS                  ; [] 
    1367                            .dwattr $C$DW$60, DW_AT_TI_end_file("../driverlib/aes.c")
    1368                            .dwattr $C$DW$60, DW_AT_TI_end_line(0x218)
    1369                            .dwattr $C$DW$60, DW_AT_TI_end_column(0x01)
    1370                            .dwendentry
    1371                            .dwendtag $C$DW$60
    1372                    
    1373 000001d0                   .sect   ".text"
    1374                            .clink
    1375                            .thumbfunc AESAuthLengthSet
TI ARM Assembler Unix v18.1.1 Fri Jul  3 20:08:23 2020

Tools Copyright (c) 1996-2017 Texas Instruments Incorporated
aes.asm                                                              PAGE   26

    1376 000001d0                   .thumb
    1377                            .global AESAuthLengthSet
    1378                    
    1379                    $C$DW$66        .dwtag  DW_TAG_subprogram
    1380                            .dwattr $C$DW$66, DW_AT_name("AESAuthLengthSet")
    1381                            .dwattr $C$DW$66, DW_AT_low_pc(AESAuthLengthSet)
    1382                            .dwattr $C$DW$66, DW_AT_high_pc(0x00)
    1383                            .dwattr $C$DW$66, DW_AT_TI_symbol_name("AESAuthLengthSet")
    1384                            .dwattr $C$DW$66, DW_AT_external
    1385                            .dwattr $C$DW$66, DW_AT_TI_begin_file("../driverlib/aes.c")
    1386                            .dwattr $C$DW$66, DW_AT_TI_begin_line(0x231)
    1387                            .dwattr $C$DW$66, DW_AT_TI_begin_column(0x01)
    1388                            .dwattr $C$DW$66, DW_AT_decl_file("../driverlib/aes.c")
    1389                            .dwattr $C$DW$66, DW_AT_decl_line(0x231)
    1390                            .dwattr $C$DW$66, DW_AT_decl_column(0x01)
    1391                            .dwattr $C$DW$66, DW_AT_TI_max_frame_size(0x08)
    1392                            .dwpsn  file "../driverlib/aes.c",line 562,column 1,is_stmt,address AESAuthLengthSet,isa 1
    1393                    
    1394                            .dwfde $C$DW$CIE, AESAuthLengthSet
    1395                    $C$DW$67        .dwtag  DW_TAG_formal_parameter
    1396                            .dwattr $C$DW$67, DW_AT_name("ui32Base")
    1397                            .dwattr $C$DW$67, DW_AT_TI_symbol_name("ui32Base")
    1398                            .dwattr $C$DW$67, DW_AT_type(*$C$DW$T$27)
    1399                            .dwattr $C$DW$67, DW_AT_location[DW_OP_reg0]
    1400                    
    1401                    $C$DW$68        .dwtag  DW_TAG_formal_parameter
    1402                            .dwattr $C$DW$68, DW_AT_name("ui32Length")
    1403                            .dwattr $C$DW$68, DW_AT_TI_symbol_name("ui32Length")
    1404                            .dwattr $C$DW$68, DW_AT_type(*$C$DW$T$27)
    1405                            .dwattr $C$DW$68, DW_AT_location[DW_OP_reg1]
    1406                    
    1407                    ;----------------------------------------------------------------------
    1408                    ; 561 | AESAuthLengthSet(uint32_t ui32Base, uint32_t ui32Length)               
    1409                    ;----------------------------------------------------------------------
    1410                    
    1411                    ;*****************************************************************************
    1412                    ;* FUNCTION NAME: AESAuthLengthSet                                           *
    1413                    ;*                                                                           *
    1414                    ;*   Regs Modified     : A1,A2,SP                                            *
    1415                    ;*   Regs Used         : A1,A2,SP,LR                                         *
    1416                    ;*   Local Frame Size  : 0 Args + 8 Auto + 0 Save = 8 byte                   *
    1417                    ;*****************************************************************************
    1418 000001d0           AESAuthLengthSet:
    1419                    ;* --------------------------------------------------------------------------*
    1420                            .dwcfi  cfa_offset, 0
    1421 000001d0 0D08F1AD          SUB       SP, SP, #8            ; [DPU_V7M3_PIPE]  ; [KEEP 32-BIT INS]
    1422                            .dwcfi  cfa_offset, 8
    1423                    $C$DW$69        .dwtag  DW_TAG_variable
    1424                            .dwattr $C$DW$69, DW_AT_name("ui32Base")
    1425                            .dwattr $C$DW$69, DW_AT_TI_symbol_name("ui32Base")
    1426                            .dwattr $C$DW$69, DW_AT_type(*$C$DW$T$27)
    1427                            .dwattr $C$DW$69, DW_AT_location[DW_OP_breg13 0]
    1428                    
    1429                    $C$DW$70        .dwtag  DW_TAG_variable
    1430                            .dwattr $C$DW$70, DW_AT_name("ui32Length")
TI ARM Assembler Unix v18.1.1 Fri Jul  3 20:08:23 2020

Tools Copyright (c) 1996-2017 Texas Instruments Incorporated
aes.asm                                                              PAGE   27

    1431                            .dwattr $C$DW$70, DW_AT_TI_symbol_name("ui32Length")
    1432                            .dwattr $C$DW$70, DW_AT_type(*$C$DW$T$27)
    1433                            .dwattr $C$DW$70, DW_AT_location[DW_OP_breg13 4]
    1434                    
    1435                    ;----------------------------------------------------------------------
    1436                    ; 563 | //                                                                     
    1437                    ; 564 | // Check the arguments.                                                
    1438                    ; 565 | //                                                                     
    1439                    ; 566 | ASSERT(ui32Base == AES_BASE);                                          
    1440                    ; 568 | //                                                                     
    1441                    ; 569 | // Write the length into the register.                                 
    1442                    ; 570 | //                                                                     
    1443                    ;----------------------------------------------------------------------
    1444 000001d4 9101              STR       A2, [SP, #4]          ; [DPU_V7M3_PIPE] |562|  ; [ORIG 16-BIT INS]
    1445 000001d6 9000              STR       A1, [SP, #0]          ; [DPU_V7M3_PIPE] |562|  ; [ORIG 16-BIT INS]
    1446                            .dwpsn  file "../driverlib/aes.c",line 571,column 5,is_stmt,isa 1
    1447                    ;----------------------------------------------------------------------
    1448                    ; 571 | HWREG(ui32Base + AES_O_AUTH_LENGTH) = ui32Length;                      
    1449                    ;----------------------------------------------------------------------
    1450 000001d8 9801              LDR       A1, [SP, #4]          ; [DPU_V7M3_PIPE] |571|  ; [ORIG 16-BIT INS]
    1451 000001da 9900              LDR       A2, [SP, #0]          ; [DPU_V7M3_PIPE] |571|  ; [ORIG 16-BIT INS]
    1452 000001dc 65C8              STR       A1, [A2, #92]         ; [DPU_V7M3_PIPE] |571|  ; [ORIG 16-BIT INS]
    1453                            .dwpsn  file "../driverlib/aes.c",line 572,column 1,is_stmt,isa 1
    1454 000001de B002              ADD       SP, SP, #8            ; [DPU_V7M3_PIPE]  ; [ORIG 16-BIT INS]
    1455                            .dwcfi  cfa_offset, 0
    1456                    $C$DW$71        .dwtag  DW_TAG_TI_branch
    1457                            .dwattr $C$DW$71, DW_AT_low_pc(0x00)
    1458                            .dwattr $C$DW$71, DW_AT_TI_return
    1459                    
    1460 000001e0 4770              BX        LR                    ; [DPU_V7M3_PIPE]  ; [ORIG 16-BIT INS]
    1461                            ; BRANCH OCCURS                  ; [] 
    1462                            .dwattr $C$DW$66, DW_AT_TI_end_file("../driverlib/aes.c")
    1463                            .dwattr $C$DW$66, DW_AT_TI_end_line(0x23c)
    1464                            .dwattr $C$DW$66, DW_AT_TI_end_column(0x01)
    1465                            .dwendentry
    1466                            .dwendtag $C$DW$66
    1467                    
    1468 000001e2                   .sect   ".text"
    1469                            .clink
    1470                            .thumbfunc AESDataReadNonBlocking
    1471 000001e2                   .thumb
    1472                            .global AESDataReadNonBlocking
    1473                    
    1474                    $C$DW$72        .dwtag  DW_TAG_subprogram
    1475                            .dwattr $C$DW$72, DW_AT_name("AESDataReadNonBlocking")
    1476                            .dwattr $C$DW$72, DW_AT_low_pc(AESDataReadNonBlocking)
    1477                            .dwattr $C$DW$72, DW_AT_high_pc(0x00)
    1478                            .dwattr $C$DW$72, DW_AT_TI_symbol_name("AESDataReadNonBlocking")
    1479                            .dwattr $C$DW$72, DW_AT_external
    1480                            .dwattr $C$DW$72, DW_AT_type(*$C$DW$T$118)
    1481                            .dwattr $C$DW$72, DW_AT_TI_begin_file("../driverlib/aes.c")
    1482                            .dwattr $C$DW$72, DW_AT_TI_begin_line(0x24e)
    1483                            .dwattr $C$DW$72, DW_AT_TI_begin_column(0x01)
    1484                            .dwattr $C$DW$72, DW_AT_decl_file("../driverlib/aes.c")
    1485                            .dwattr $C$DW$72, DW_AT_decl_line(0x24e)
TI ARM Assembler Unix v18.1.1 Fri Jul  3 20:08:23 2020

Tools Copyright (c) 1996-2017 Texas Instruments Incorporated
aes.asm                                                              PAGE   28

    1486                            .dwattr $C$DW$72, DW_AT_decl_column(0x01)
    1487                            .dwattr $C$DW$72, DW_AT_TI_max_frame_size(0x08)
    1488                            .dwpsn  file "../driverlib/aes.c",line 591,column 1,is_stmt,address AESDataReadNonBlocking,isa
    1489                    
    1490                            .dwfde $C$DW$CIE, AESDataReadNonBlocking
    1491                    $C$DW$73        .dwtag  DW_TAG_formal_parameter
    1492                            .dwattr $C$DW$73, DW_AT_name("ui32Base")
    1493                            .dwattr $C$DW$73, DW_AT_TI_symbol_name("ui32Base")
    1494                            .dwattr $C$DW$73, DW_AT_type(*$C$DW$T$27)
    1495                            .dwattr $C$DW$73, DW_AT_location[DW_OP_reg0]
    1496                    
    1497                    $C$DW$74        .dwtag  DW_TAG_formal_parameter
    1498                            .dwattr $C$DW$74, DW_AT_name("pui32Dest")
    1499                            .dwattr $C$DW$74, DW_AT_TI_symbol_name("pui32Dest")
    1500                            .dwattr $C$DW$74, DW_AT_type(*$C$DW$T$34)
    1501                            .dwattr $C$DW$74, DW_AT_location[DW_OP_reg1]
    1502                    
    1503                    ;----------------------------------------------------------------------
    1504                    ; 590 | AESDataReadNonBlocking(uint32_t ui32Base, uint32_t *pui32Dest)         
    1505                    ;----------------------------------------------------------------------
    1506                    
    1507                    ;*****************************************************************************
    1508                    ;* FUNCTION NAME: AESDataReadNonBlocking                                     *
    1509                    ;*                                                                           *
    1510                    ;*   Regs Modified     : A1,A2,SP,SR                                         *
    1511                    ;*   Regs Used         : A1,A2,SP,LR,SR                                      *
    1512                    ;*   Local Frame Size  : 0 Args + 8 Auto + 0 Save = 8 byte                   *
    1513                    ;*****************************************************************************
    1514 000001e2           AESDataReadNonBlocking:
    1515                    ;* --------------------------------------------------------------------------*
    1516                            .dwcfi  cfa_offset, 0
    1517 000001e2 0D08F1AD          SUB       SP, SP, #8            ; [DPU_V7M3_PIPE]  ; [KEEP 32-BIT INS]
    1518                            .dwcfi  cfa_offset, 8
    1519                    $C$DW$75        .dwtag  DW_TAG_variable
    1520                            .dwattr $C$DW$75, DW_AT_name("ui32Base")
    1521                            .dwattr $C$DW$75, DW_AT_TI_symbol_name("ui32Base")
    1522                            .dwattr $C$DW$75, DW_AT_type(*$C$DW$T$27)
    1523                            .dwattr $C$DW$75, DW_AT_location[DW_OP_breg13 0]
    1524                    
    1525                    $C$DW$76        .dwtag  DW_TAG_variable
    1526                            .dwattr $C$DW$76, DW_AT_name("pui32Dest")
    1527                            .dwattr $C$DW$76, DW_AT_TI_symbol_name("pui32Dest")
    1528                            .dwattr $C$DW$76, DW_AT_type(*$C$DW$T$34)
    1529                            .dwattr $C$DW$76, DW_AT_location[DW_OP_breg13 4]
    1530                    
    1531                    ;----------------------------------------------------------------------
    1532                    ; 592 | //                                                                     
    1533                    ; 593 | // Check the arguments.                                                
    1534                    ; 594 | //                                                                     
    1535                    ; 595 | ASSERT(ui32Base == AES_BASE);                                          
    1536                    ; 597 | //                                                                     
    1537                    ; 598 | // Check if the output is ready before reading the data.  If it not rea
    1538                    ;     | dy,                                                                    
    1539                    ; 599 | // return false.                                                       
    1540                    ; 600 | //                                                                     
TI ARM Assembler Unix v18.1.1 Fri Jul  3 20:08:23 2020

Tools Copyright (c) 1996-2017 Texas Instruments Incorporated
aes.asm                                                              PAGE   29

    1541                    ;----------------------------------------------------------------------
    1542 000001e6 9101              STR       A2, [SP, #4]          ; [DPU_V7M3_PIPE] |591|  ; [ORIG 16-BIT INS]
    1543 000001e8 9000              STR       A1, [SP, #0]          ; [DPU_V7M3_PIPE] |591|  ; [ORIG 16-BIT INS]
    1544                            .dwpsn  file "../driverlib/aes.c",line 601,column 5,is_stmt,isa 1
    1545                    ;----------------------------------------------------------------------
    1546                    ; 601 | if((AES_CTRL_OUTPUT_READY & (HWREG(ui32Base + AES_O_CTRL))) == 0)      
    1547                    ;----------------------------------------------------------------------
    1548 000001ea 9800              LDR       A1, [SP, #0]          ; [DPU_V7M3_PIPE] |601|  ; [ORIG 16-BIT INS]
    1549 000001ec 6D00              LDR       A1, [A1, #80]         ; [DPU_V7M3_PIPE] |601|  ; [ORIG 16-BIT INS]
    1550 000001ee 0840              LSRS      A1, A1, #1            ; [DPU_V7M3_PIPE] |601|  ; [ORIG 16-BIT INS]
    1551 000001f0 D201              BCS       ||$C$L9||             ; [DPU_V7M3_PIPE] |601|  ; [ORIG 16-BIT INS]
    1552                            ; BRANCHCC OCCURS {||$C$L9||}    ; [] |601| 
    1553                    ;* --------------------------------------------------------------------------*
    1554                            .dwpsn  file "../driverlib/aes.c",line 603,column 9,is_stmt,isa 1
    1555                    ;----------------------------------------------------------------------
    1556                    ; 603 | return(false);                                                         
    1557                    ; 606 | //                                                                     
    1558                    ; 607 | // Read a block of data from the data registers                        
    1559                    ; 608 | //                                                                     
    1560                    ;----------------------------------------------------------------------
    1561 000001f2 2000              MOVS      A1, #0                ; [DPU_V7M3_PIPE] |603|  ; [ORIG 16-BIT INS]
    1562 000001f4 E010              B         ||$C$L10||            ; [DPU_V7M3_PIPE] |603|  ; [ORIG 16-BIT INS]
    1563                            ; BRANCH OCCURS {||$C$L10||}     ; [] |603| 
    1564                    ;* --------------------------------------------------------------------------*
    1565 000001f6           ||$C$L9||:    
    1566                            .dwpsn  file "../driverlib/aes.c",line 609,column 5,is_stmt,isa 1
    1567                    ;----------------------------------------------------------------------
    1568                    ; 609 | pui32Dest[0] = HWREG(ui32Base + AES_O_DATA_IN_3);                      
    1569                    ;----------------------------------------------------------------------
    1570 000001f6 9800              LDR       A1, [SP, #0]          ; [DPU_V7M3_PIPE] |609|  ; [ORIG 16-BIT INS]
    1571 000001f8 9901              LDR       A2, [SP, #4]          ; [DPU_V7M3_PIPE] |609|  ; [ORIG 16-BIT INS]
    1572 000001fa 6EC0              LDR       A1, [A1, #108]        ; [DPU_V7M3_PIPE] |609|  ; [ORIG 16-BIT INS]
    1573 000001fc 6008              STR       A1, [A2, #0]          ; [DPU_V7M3_PIPE] |609|  ; [ORIG 16-BIT INS]
    1574                            .dwpsn  file "../driverlib/aes.c",line 610,column 5,is_stmt,isa 1
    1575                    ;----------------------------------------------------------------------
    1576                    ; 610 | pui32Dest[1] = HWREG(ui32Base + AES_O_DATA_IN_2);                      
    1577                    ;----------------------------------------------------------------------
    1578 000001fe 9800              LDR       A1, [SP, #0]          ; [DPU_V7M3_PIPE] |610|  ; [ORIG 16-BIT INS]
    1579 00000200 9901              LDR       A2, [SP, #4]          ; [DPU_V7M3_PIPE] |610|  ; [ORIG 16-BIT INS]
    1580 00000202 6E80              LDR       A1, [A1, #104]        ; [DPU_V7M3_PIPE] |610|  ; [ORIG 16-BIT INS]
    1581 00000204 6048              STR       A1, [A2, #4]          ; [DPU_V7M3_PIPE] |610|  ; [ORIG 16-BIT INS]
    1582                            .dwpsn  file "../driverlib/aes.c",line 611,column 5,is_stmt,isa 1
    1583                    ;----------------------------------------------------------------------
    1584                    ; 611 | pui32Dest[2] = HWREG(ui32Base + AES_O_DATA_IN_1);                      
    1585                    ;----------------------------------------------------------------------
    1586 00000206 9800              LDR       A1, [SP, #0]          ; [DPU_V7M3_PIPE] |611|  ; [ORIG 16-BIT INS]
    1587 00000208 9901              LDR       A2, [SP, #4]          ; [DPU_V7M3_PIPE] |611|  ; [ORIG 16-BIT INS]
    1588 0000020a 6E40              LDR       A1, [A1, #100]        ; [DPU_V7M3_PIPE] |611|  ; [ORIG 16-BIT INS]
    1589 0000020c 6088              STR       A1, [A2, #8]          ; [DPU_V7M3_PIPE] |611|  ; [ORIG 16-BIT INS]
    1590                            .dwpsn  file "../driverlib/aes.c",line 612,column 5,is_stmt,isa 1
    1591                    ;----------------------------------------------------------------------
    1592                    ; 612 | pui32Dest[3] = HWREG(ui32Base + AES_O_DATA_IN_0);                      
    1593                    ; 614 | //                                                                     
    1594                    ; 615 | // Read successful, return true.                                       
    1595                    ; 616 | //                                                                     
TI ARM Assembler Unix v18.1.1 Fri Jul  3 20:08:23 2020

Tools Copyright (c) 1996-2017 Texas Instruments Incorporated
aes.asm                                                              PAGE   30

    1596                    ;----------------------------------------------------------------------
    1597 0000020e 9800              LDR       A1, [SP, #0]          ; [DPU_V7M3_PIPE] |612|  ; [ORIG 16-BIT INS]
    1598 00000210 9901              LDR       A2, [SP, #4]          ; [DPU_V7M3_PIPE] |612|  ; [ORIG 16-BIT INS]
    1599 00000212 6E00              LDR       A1, [A1, #96]         ; [DPU_V7M3_PIPE] |612|  ; [ORIG 16-BIT INS]
    1600 00000214 60C8              STR       A1, [A2, #12]         ; [DPU_V7M3_PIPE] |612|  ; [ORIG 16-BIT INS]
    1601                            .dwpsn  file "../driverlib/aes.c",line 617,column 5,is_stmt,isa 1
    1602                    ;----------------------------------------------------------------------
    1603                    ; 617 | return(true);                                                          
    1604                    ;----------------------------------------------------------------------
    1605 00000216 2001              MOVS      A1, #1                ; [DPU_V7M3_PIPE] |617|  ; [ORIG 16-BIT INS]
    1606                    ;* --------------------------------------------------------------------------*
    1607 00000218           ||$C$L10||:    
    1608                            .dwpsn  file "../driverlib/aes.c",line 618,column 1,is_stmt,isa 1
    1609 00000218 B002              ADD       SP, SP, #8            ; [DPU_V7M3_PIPE]  ; [ORIG 16-BIT INS]
    1610                            .dwcfi  cfa_offset, 0
    1611                    $C$DW$77        .dwtag  DW_TAG_TI_branch
    1612                            .dwattr $C$DW$77, DW_AT_low_pc(0x00)
    1613                            .dwattr $C$DW$77, DW_AT_TI_return
    1614                    
    1615 0000021a 4770              BX        LR                    ; [DPU_V7M3_PIPE]  ; [ORIG 16-BIT INS]
    1616                            ; BRANCH OCCURS                  ; [] 
    1617                            .dwattr $C$DW$72, DW_AT_TI_end_file("../driverlib/aes.c")
    1618                            .dwattr $C$DW$72, DW_AT_TI_end_line(0x26a)
    1619                            .dwattr $C$DW$72, DW_AT_TI_end_column(0x01)
    1620                            .dwendentry
    1621                            .dwendtag $C$DW$72
    1622                    
    1623 0000021c                   .sect   ".text"
    1624                            .clink
    1625                            .thumbfunc AESDataRead
    1626 0000021c                   .thumb
    1627                            .global AESDataRead
    1628                    
    1629                    $C$DW$78        .dwtag  DW_TAG_subprogram
    1630                            .dwattr $C$DW$78, DW_AT_name("AESDataRead")
    1631                            .dwattr $C$DW$78, DW_AT_low_pc(AESDataRead)
    1632                            .dwattr $C$DW$78, DW_AT_high_pc(0x00)
    1633                            .dwattr $C$DW$78, DW_AT_TI_symbol_name("AESDataRead")
    1634                            .dwattr $C$DW$78, DW_AT_external
    1635                            .dwattr $C$DW$78, DW_AT_TI_begin_file("../driverlib/aes.c")
    1636                            .dwattr $C$DW$78, DW_AT_TI_begin_line(0x27b)
    1637                            .dwattr $C$DW$78, DW_AT_TI_begin_column(0x01)
    1638                            .dwattr $C$DW$78, DW_AT_decl_file("../driverlib/aes.c")
    1639                            .dwattr $C$DW$78, DW_AT_decl_line(0x27b)
    1640                            .dwattr $C$DW$78, DW_AT_decl_column(0x01)
    1641                            .dwattr $C$DW$78, DW_AT_TI_max_frame_size(0x08)
    1642                            .dwpsn  file "../driverlib/aes.c",line 636,column 1,is_stmt,address AESDataRead,isa 1
    1643                    
    1644                            .dwfde $C$DW$CIE, AESDataRead
    1645                    $C$DW$79        .dwtag  DW_TAG_formal_parameter
    1646                            .dwattr $C$DW$79, DW_AT_name("ui32Base")
    1647                            .dwattr $C$DW$79, DW_AT_TI_symbol_name("ui32Base")
    1648                            .dwattr $C$DW$79, DW_AT_type(*$C$DW$T$27)
    1649                            .dwattr $C$DW$79, DW_AT_location[DW_OP_reg0]
    1650                    
TI ARM Assembler Unix v18.1.1 Fri Jul  3 20:08:23 2020

Tools Copyright (c) 1996-2017 Texas Instruments Incorporated
aes.asm                                                              PAGE   31

    1651                    $C$DW$80        .dwtag  DW_TAG_formal_parameter
    1652                            .dwattr $C$DW$80, DW_AT_name("pui32Dest")
    1653                            .dwattr $C$DW$80, DW_AT_TI_symbol_name("pui32Dest")
    1654                            .dwattr $C$DW$80, DW_AT_type(*$C$DW$T$34)
    1655                            .dwattr $C$DW$80, DW_AT_location[DW_OP_reg1]
    1656                    
    1657                    ;----------------------------------------------------------------------
    1658                    ; 635 | AESDataRead(uint32_t ui32Base, uint32_t *pui32Dest)                    
    1659                    ;----------------------------------------------------------------------
    1660                    
    1661                    ;*****************************************************************************
    1662                    ;* FUNCTION NAME: AESDataRead                                                *
    1663                    ;*                                                                           *
    1664                    ;*   Regs Modified     : A1,A2,SP,SR                                         *
    1665                    ;*   Regs Used         : A1,A2,SP,LR,SR                                      *
    1666                    ;*   Local Frame Size  : 0 Args + 8 Auto + 0 Save = 8 byte                   *
    1667                    ;*****************************************************************************
    1668 0000021c           AESDataRead:
    1669                    ;* --------------------------------------------------------------------------*
    1670                            .dwcfi  cfa_offset, 0
    1671 0000021c 0D08F1AD          SUB       SP, SP, #8            ; [DPU_V7M3_PIPE]  ; [KEEP 32-BIT INS]
    1672                            .dwcfi  cfa_offset, 8
    1673                    $C$DW$81        .dwtag  DW_TAG_variable
    1674                            .dwattr $C$DW$81, DW_AT_name("ui32Base")
    1675                            .dwattr $C$DW$81, DW_AT_TI_symbol_name("ui32Base")
    1676                            .dwattr $C$DW$81, DW_AT_type(*$C$DW$T$27)
    1677                            .dwattr $C$DW$81, DW_AT_location[DW_OP_breg13 0]
    1678                    
    1679                    $C$DW$82        .dwtag  DW_TAG_variable
    1680                            .dwattr $C$DW$82, DW_AT_name("pui32Dest")
    1681                            .dwattr $C$DW$82, DW_AT_TI_symbol_name("pui32Dest")
    1682                            .dwattr $C$DW$82, DW_AT_type(*$C$DW$T$34)
    1683                            .dwattr $C$DW$82, DW_AT_location[DW_OP_breg13 4]
    1684                    
    1685                    ;----------------------------------------------------------------------
    1686                    ; 637 | //                                                                     
    1687                    ; 638 | // Check the arguments.                                                
    1688                    ; 639 | //                                                                     
    1689                    ; 640 | ASSERT(ui32Base == AES_BASE);                                          
    1690                    ; 642 | //                                                                     
    1691                    ; 643 | // Wait for the output to be ready before reading the data.            
    1692                    ; 644 | //                                                                     
    1693                    ;----------------------------------------------------------------------
    1694 00000220 9101              STR       A2, [SP, #4]          ; [DPU_V7M3_PIPE] |636|  ; [ORIG 16-BIT INS]
    1695 00000222 9000              STR       A1, [SP, #0]          ; [DPU_V7M3_PIPE] |636|  ; [ORIG 16-BIT INS]
    1696                            .dwpsn  file "../driverlib/aes.c",line 645,column 5,is_stmt,isa 1
    1697                    ;----------------------------------------------------------------------
    1698                    ; 645 | while((AES_CTRL_OUTPUT_READY & (HWREG(ui32Base + AES_O_CTRL))) == 0)   
    1699                    ;----------------------------------------------------------------------
    1700                    ;* --------------------------------------------------------------------------*
    1701                    ;*   BEGIN LOOP ||$C$L11||
    1702                    ;*
    1703                    ;*   Loop source line                : 645
    1704                    ;*   Loop closing brace source line  : 647
    1705                    ;*   Known Minimum Trip Count        : 1
TI ARM Assembler Unix v18.1.1 Fri Jul  3 20:08:23 2020

Tools Copyright (c) 1996-2017 Texas Instruments Incorporated
aes.asm                                                              PAGE   32

    1706                    ;*   Known Maximum Trip Count        : 4294967295
    1707                    ;*   Known Max Trip Count Factor     : 1
    1708                    ;* --------------------------------------------------------------------------*
    1709 00000224           ||$C$L11||:    
    1710                            .dwpsn  file "../driverlib/aes.c",line 645,column 11,is_stmt,isa 1
    1711                    ;----------------------------------------------------------------------
    1712                    ; 649 | //                                                                     
    1713                    ; 650 | // Read a block of data from the data registers                        
    1714                    ; 651 | //                                                                     
    1715                    ;----------------------------------------------------------------------
    1716 00000224 9800              LDR       A1, [SP, #0]          ; [DPU_V7M3_PIPE] |645|  ; [ORIG 16-BIT INS]
    1717 00000226 6D00              LDR       A1, [A1, #80]         ; [DPU_V7M3_PIPE] |645|  ; [ORIG 16-BIT INS]
    1718 00000228 0840              LSRS      A1, A1, #1            ; [DPU_V7M3_PIPE] |645|  ; [ORIG 16-BIT INS]
    1719 0000022a D3FB              BCC       ||$C$L11||            ; [DPU_V7M3_PIPE] |645|  ; [ORIG 16-BIT INS]
    1720                            ; BRANCHCC OCCURS {||$C$L11||}   ; [] |645| 
    1721                    ;* --------------------------------------------------------------------------*
    1722                            .dwpsn  file "../driverlib/aes.c",line 652,column 5,is_stmt,isa 1
    1723                    ;----------------------------------------------------------------------
    1724                    ; 652 | pui32Dest[0] = HWREG(ui32Base + AES_O_DATA_IN_3);                      
    1725                    ;----------------------------------------------------------------------
    1726 0000022c 9800              LDR       A1, [SP, #0]          ; [DPU_V7M3_PIPE] |652|  ; [ORIG 16-BIT INS]
    1727 0000022e 9901              LDR       A2, [SP, #4]          ; [DPU_V7M3_PIPE] |652|  ; [ORIG 16-BIT INS]
    1728 00000230 6EC0              LDR       A1, [A1, #108]        ; [DPU_V7M3_PIPE] |652|  ; [ORIG 16-BIT INS]
    1729 00000232 6008              STR       A1, [A2, #0]          ; [DPU_V7M3_PIPE] |652|  ; [ORIG 16-BIT INS]
    1730                            .dwpsn  file "../driverlib/aes.c",line 653,column 5,is_stmt,isa 1
    1731                    ;----------------------------------------------------------------------
    1732                    ; 653 | pui32Dest[1] = HWREG(ui32Base + AES_O_DATA_IN_2);                      
    1733                    ;----------------------------------------------------------------------
    1734 00000234 9800              LDR       A1, [SP, #0]          ; [DPU_V7M3_PIPE] |653|  ; [ORIG 16-BIT INS]
    1735 00000236 9901              LDR       A2, [SP, #4]          ; [DPU_V7M3_PIPE] |653|  ; [ORIG 16-BIT INS]
    1736 00000238 6E80              LDR       A1, [A1, #104]        ; [DPU_V7M3_PIPE] |653|  ; [ORIG 16-BIT INS]
    1737 0000023a 6048              STR       A1, [A2, #4]          ; [DPU_V7M3_PIPE] |653|  ; [ORIG 16-BIT INS]
    1738                            .dwpsn  file "../driverlib/aes.c",line 654,column 5,is_stmt,isa 1
    1739                    ;----------------------------------------------------------------------
    1740                    ; 654 | pui32Dest[2] = HWREG(ui32Base + AES_O_DATA_IN_1);                      
    1741                    ;----------------------------------------------------------------------
    1742 0000023c 9800              LDR       A1, [SP, #0]          ; [DPU_V7M3_PIPE] |654|  ; [ORIG 16-BIT INS]
    1743 0000023e 9901              LDR       A2, [SP, #4]          ; [DPU_V7M3_PIPE] |654|  ; [ORIG 16-BIT INS]
    1744 00000240 6E40              LDR       A1, [A1, #100]        ; [DPU_V7M3_PIPE] |654|  ; [ORIG 16-BIT INS]
    1745 00000242 6088              STR       A1, [A2, #8]          ; [DPU_V7M3_PIPE] |654|  ; [ORIG 16-BIT INS]
    1746                            .dwpsn  file "../driverlib/aes.c",line 655,column 5,is_stmt,isa 1
    1747                    ;----------------------------------------------------------------------
    1748                    ; 655 | pui32Dest[3] = HWREG(ui32Base + AES_O_DATA_IN_0);                      
    1749                    ;----------------------------------------------------------------------
    1750 00000244 9800              LDR       A1, [SP, #0]          ; [DPU_V7M3_PIPE] |655|  ; [ORIG 16-BIT INS]
    1751 00000246 9901              LDR       A2, [SP, #4]          ; [DPU_V7M3_PIPE] |655|  ; [ORIG 16-BIT INS]
    1752 00000248 6E00              LDR       A1, [A1, #96]         ; [DPU_V7M3_PIPE] |655|  ; [ORIG 16-BIT INS]
    1753 0000024a 60C8              STR       A1, [A2, #12]         ; [DPU_V7M3_PIPE] |655|  ; [ORIG 16-BIT INS]
    1754                            .dwpsn  file "../driverlib/aes.c",line 656,column 1,is_stmt,isa 1
    1755 0000024c B002              ADD       SP, SP, #8            ; [DPU_V7M3_PIPE]  ; [ORIG 16-BIT INS]
    1756                            .dwcfi  cfa_offset, 0
    1757                    $C$DW$83        .dwtag  DW_TAG_TI_branch
    1758                            .dwattr $C$DW$83, DW_AT_low_pc(0x00)
    1759                            .dwattr $C$DW$83, DW_AT_TI_return
    1760                    
TI ARM Assembler Unix v18.1.1 Fri Jul  3 20:08:23 2020

Tools Copyright (c) 1996-2017 Texas Instruments Incorporated
aes.asm                                                              PAGE   33

    1761 0000024e 4770              BX        LR                    ; [DPU_V7M3_PIPE]  ; [ORIG 16-BIT INS]
    1762                            ; BRANCH OCCURS                  ; [] 
    1763                            .dwattr $C$DW$78, DW_AT_TI_end_file("../driverlib/aes.c")
    1764                            .dwattr $C$DW$78, DW_AT_TI_end_line(0x290)
    1765                            .dwattr $C$DW$78, DW_AT_TI_end_column(0x01)
    1766                            .dwendentry
    1767                            .dwendtag $C$DW$78
    1768                    
    1769 00000250                   .sect   ".text"
    1770                            .clink
    1771                            .thumbfunc AESDataWriteNonBlocking
    1772 00000250                   .thumb
    1773                            .global AESDataWriteNonBlocking
    1774                    
    1775                    $C$DW$84        .dwtag  DW_TAG_subprogram
    1776                            .dwattr $C$DW$84, DW_AT_name("AESDataWriteNonBlocking")
    1777                            .dwattr $C$DW$84, DW_AT_low_pc(AESDataWriteNonBlocking)
    1778                            .dwattr $C$DW$84, DW_AT_high_pc(0x00)
    1779                            .dwattr $C$DW$84, DW_AT_TI_symbol_name("AESDataWriteNonBlocking")
    1780                            .dwattr $C$DW$84, DW_AT_external
    1781                            .dwattr $C$DW$84, DW_AT_type(*$C$DW$T$118)
    1782                            .dwattr $C$DW$84, DW_AT_TI_begin_file("../driverlib/aes.c")
    1783                            .dwattr $C$DW$84, DW_AT_TI_begin_line(0x2a2)
    1784                            .dwattr $C$DW$84, DW_AT_TI_begin_column(0x01)
    1785                            .dwattr $C$DW$84, DW_AT_decl_file("../driverlib/aes.c")
    1786                            .dwattr $C$DW$84, DW_AT_decl_line(0x2a2)
    1787                            .dwattr $C$DW$84, DW_AT_decl_column(0x01)
    1788                            .dwattr $C$DW$84, DW_AT_TI_max_frame_size(0x08)
    1789                            .dwpsn  file "../driverlib/aes.c",line 675,column 1,is_stmt,address AESDataWriteNonBlocking,is
    1790                    
    1791                            .dwfde $C$DW$CIE, AESDataWriteNonBlocking
    1792                    $C$DW$85        .dwtag  DW_TAG_formal_parameter
    1793                            .dwattr $C$DW$85, DW_AT_name("ui32Base")
    1794                            .dwattr $C$DW$85, DW_AT_TI_symbol_name("ui32Base")
    1795                            .dwattr $C$DW$85, DW_AT_type(*$C$DW$T$27)
    1796                            .dwattr $C$DW$85, DW_AT_location[DW_OP_reg0]
    1797                    
    1798                    $C$DW$86        .dwtag  DW_TAG_formal_parameter
    1799                            .dwattr $C$DW$86, DW_AT_name("pui32Src")
    1800                            .dwattr $C$DW$86, DW_AT_TI_symbol_name("pui32Src")
    1801                            .dwattr $C$DW$86, DW_AT_type(*$C$DW$T$34)
    1802                            .dwattr $C$DW$86, DW_AT_location[DW_OP_reg1]
    1803                    
    1804                    ;----------------------------------------------------------------------
    1805                    ; 674 | AESDataWriteNonBlocking(uint32_t ui32Base, uint32_t *pui32Src)         
    1806                    ;----------------------------------------------------------------------
    1807                    
    1808                    ;*****************************************************************************
    1809                    ;* FUNCTION NAME: AESDataWriteNonBlocking                                    *
    1810                    ;*                                                                           *
    1811                    ;*   Regs Modified     : A1,A2,SP,SR                                         *
    1812                    ;*   Regs Used         : A1,A2,SP,LR,SR                                      *
    1813                    ;*   Local Frame Size  : 0 Args + 8 Auto + 0 Save = 8 byte                   *
    1814                    ;*****************************************************************************
    1815 00000250           AESDataWriteNonBlocking:
TI ARM Assembler Unix v18.1.1 Fri Jul  3 20:08:23 2020

Tools Copyright (c) 1996-2017 Texas Instruments Incorporated
aes.asm                                                              PAGE   34

    1816                    ;* --------------------------------------------------------------------------*
    1817                            .dwcfi  cfa_offset, 0
    1818 00000250 0D08F1AD          SUB       SP, SP, #8            ; [DPU_V7M3_PIPE]  ; [KEEP 32-BIT INS]
    1819                            .dwcfi  cfa_offset, 8
    1820                    $C$DW$87        .dwtag  DW_TAG_variable
    1821                            .dwattr $C$DW$87, DW_AT_name("ui32Base")
    1822                            .dwattr $C$DW$87, DW_AT_TI_symbol_name("ui32Base")
    1823                            .dwattr $C$DW$87, DW_AT_type(*$C$DW$T$27)
    1824                            .dwattr $C$DW$87, DW_AT_location[DW_OP_breg13 0]
    1825                    
    1826                    $C$DW$88        .dwtag  DW_TAG_variable
    1827                            .dwattr $C$DW$88, DW_AT_name("pui32Src")
    1828                            .dwattr $C$DW$88, DW_AT_TI_symbol_name("pui32Src")
    1829                            .dwattr $C$DW$88, DW_AT_type(*$C$DW$T$34)
    1830                            .dwattr $C$DW$88, DW_AT_location[DW_OP_breg13 4]
    1831                    
    1832                    ;----------------------------------------------------------------------
    1833                    ; 676 | //                                                                     
    1834                    ; 677 | // Check the arguments.                                                
    1835                    ; 678 | //                                                                     
    1836                    ; 679 | ASSERT(ui32Base == AES_BASE);                                          
    1837                    ; 681 | //                                                                     
    1838                    ; 682 | // Check if the input is ready.  If not, then return false.            
    1839                    ; 683 | //                                                                     
    1840                    ;----------------------------------------------------------------------
    1841 00000254 9101              STR       A2, [SP, #4]          ; [DPU_V7M3_PIPE] |675|  ; [ORIG 16-BIT INS]
    1842 00000256 9000              STR       A1, [SP, #0]          ; [DPU_V7M3_PIPE] |675|  ; [ORIG 16-BIT INS]
    1843                            .dwpsn  file "../driverlib/aes.c",line 684,column 5,is_stmt,isa 1
    1844                    ;----------------------------------------------------------------------
    1845                    ; 684 | if(!(AES_CTRL_INPUT_READY & (HWREG(ui32Base + AES_O_CTRL))))           
    1846                    ;----------------------------------------------------------------------
    1847 00000258 9800              LDR       A1, [SP, #0]          ; [DPU_V7M3_PIPE] |684|  ; [ORIG 16-BIT INS]
    1848 0000025a 6D00              LDR       A1, [A1, #80]         ; [DPU_V7M3_PIPE] |684|  ; [ORIG 16-BIT INS]
    1849 0000025c 0880              LSRS      A1, A1, #2            ; [DPU_V7M3_PIPE] |684|  ; [ORIG 16-BIT INS]
    1850 0000025e D201              BCS       ||$C$L12||            ; [DPU_V7M3_PIPE] |684|  ; [ORIG 16-BIT INS]
    1851                            ; BRANCHCC OCCURS {||$C$L12||}   ; [] |684| 
    1852                    ;* --------------------------------------------------------------------------*
    1853                            .dwpsn  file "../driverlib/aes.c",line 686,column 9,is_stmt,isa 1
    1854                    ;----------------------------------------------------------------------
    1855                    ; 686 | return(false);                                                         
    1856                    ; 689 | //                                                                     
    1857                    ; 690 | // Write a block of data into the data registers.                      
    1858                    ; 691 | //                                                                     
    1859                    ;----------------------------------------------------------------------
    1860 00000260 2000              MOVS      A1, #0                ; [DPU_V7M3_PIPE] |686|  ; [ORIG 16-BIT INS]
    1861 00000262 E010              B         ||$C$L13||            ; [DPU_V7M3_PIPE] |686|  ; [ORIG 16-BIT INS]
    1862                            ; BRANCH OCCURS {||$C$L13||}     ; [] |686| 
    1863                    ;* --------------------------------------------------------------------------*
    1864 00000264           ||$C$L12||:    
    1865                            .dwpsn  file "../driverlib/aes.c",line 692,column 5,is_stmt,isa 1
    1866                    ;----------------------------------------------------------------------
    1867                    ; 692 | HWREG(ui32Base + AES_O_DATA_IN_3) = pui32Src[0];                       
    1868                    ;----------------------------------------------------------------------
    1869 00000264 9801              LDR       A1, [SP, #4]          ; [DPU_V7M3_PIPE] |692|  ; [ORIG 16-BIT INS]
    1870 00000266 9900              LDR       A2, [SP, #0]          ; [DPU_V7M3_PIPE] |692|  ; [ORIG 16-BIT INS]
TI ARM Assembler Unix v18.1.1 Fri Jul  3 20:08:23 2020

Tools Copyright (c) 1996-2017 Texas Instruments Incorporated
aes.asm                                                              PAGE   35

    1871 00000268 6800              LDR       A1, [A1, #0]          ; [DPU_V7M3_PIPE] |692|  ; [ORIG 16-BIT INS]
    1872 0000026a 66C8              STR       A1, [A2, #108]        ; [DPU_V7M3_PIPE] |692|  ; [ORIG 16-BIT INS]
    1873                            .dwpsn  file "../driverlib/aes.c",line 693,column 5,is_stmt,isa 1
    1874                    ;----------------------------------------------------------------------
    1875                    ; 693 | HWREG(ui32Base + AES_O_DATA_IN_2) = pui32Src[1];                       
    1876                    ;----------------------------------------------------------------------
    1877 0000026c 9801              LDR       A1, [SP, #4]          ; [DPU_V7M3_PIPE] |693|  ; [ORIG 16-BIT INS]
    1878 0000026e 9900              LDR       A2, [SP, #0]          ; [DPU_V7M3_PIPE] |693|  ; [ORIG 16-BIT INS]
    1879 00000270 6840              LDR       A1, [A1, #4]          ; [DPU_V7M3_PIPE] |693|  ; [ORIG 16-BIT INS]
    1880 00000272 6688              STR       A1, [A2, #104]        ; [DPU_V7M3_PIPE] |693|  ; [ORIG 16-BIT INS]
    1881                            .dwpsn  file "../driverlib/aes.c",line 694,column 5,is_stmt,isa 1
    1882                    ;----------------------------------------------------------------------
    1883                    ; 694 | HWREG(ui32Base + AES_O_DATA_IN_1) = pui32Src[2];                       
    1884                    ;----------------------------------------------------------------------
    1885 00000274 9801              LDR       A1, [SP, #4]          ; [DPU_V7M3_PIPE] |694|  ; [ORIG 16-BIT INS]
    1886 00000276 9900              LDR       A2, [SP, #0]          ; [DPU_V7M3_PIPE] |694|  ; [ORIG 16-BIT INS]
    1887 00000278 6880              LDR       A1, [A1, #8]          ; [DPU_V7M3_PIPE] |694|  ; [ORIG 16-BIT INS]
    1888 0000027a 6648              STR       A1, [A2, #100]        ; [DPU_V7M3_PIPE] |694|  ; [ORIG 16-BIT INS]
    1889                            .dwpsn  file "../driverlib/aes.c",line 695,column 5,is_stmt,isa 1
    1890                    ;----------------------------------------------------------------------
    1891                    ; 695 | HWREG(ui32Base + AES_O_DATA_IN_0) = pui32Src[3];                       
    1892                    ; 697 | //                                                                     
    1893                    ; 698 | // Write successful, return true.                                      
    1894                    ; 699 | //                                                                     
    1895                    ;----------------------------------------------------------------------
    1896 0000027c 9801              LDR       A1, [SP, #4]          ; [DPU_V7M3_PIPE] |695|  ; [ORIG 16-BIT INS]
    1897 0000027e 9900              LDR       A2, [SP, #0]          ; [DPU_V7M3_PIPE] |695|  ; [ORIG 16-BIT INS]
    1898 00000280 68C0              LDR       A1, [A1, #12]         ; [DPU_V7M3_PIPE] |695|  ; [ORIG 16-BIT INS]
    1899 00000282 6608              STR       A1, [A2, #96]         ; [DPU_V7M3_PIPE] |695|  ; [ORIG 16-BIT INS]
    1900                            .dwpsn  file "../driverlib/aes.c",line 700,column 5,is_stmt,isa 1
    1901                    ;----------------------------------------------------------------------
    1902                    ; 700 | return(true);                                                          
    1903                    ;----------------------------------------------------------------------
    1904 00000284 2001              MOVS      A1, #1                ; [DPU_V7M3_PIPE] |700|  ; [ORIG 16-BIT INS]
    1905                    ;* --------------------------------------------------------------------------*
    1906 00000286           ||$C$L13||:    
    1907                            .dwpsn  file "../driverlib/aes.c",line 701,column 1,is_stmt,isa 1
    1908 00000286 B002              ADD       SP, SP, #8            ; [DPU_V7M3_PIPE]  ; [ORIG 16-BIT INS]
    1909                            .dwcfi  cfa_offset, 0
    1910                    $C$DW$89        .dwtag  DW_TAG_TI_branch
    1911                            .dwattr $C$DW$89, DW_AT_low_pc(0x00)
    1912                            .dwattr $C$DW$89, DW_AT_TI_return
    1913                    
    1914 00000288 4770              BX        LR                    ; [DPU_V7M3_PIPE]  ; [ORIG 16-BIT INS]
    1915                            ; BRANCH OCCURS                  ; [] 
    1916                            .dwattr $C$DW$84, DW_AT_TI_end_file("../driverlib/aes.c")
    1917                            .dwattr $C$DW$84, DW_AT_TI_end_line(0x2bd)
    1918                            .dwattr $C$DW$84, DW_AT_TI_end_column(0x01)
    1919                            .dwendentry
    1920                            .dwendtag $C$DW$84
    1921                    
    1922 0000028a                   .sect   ".text"
    1923                            .clink
    1924                            .thumbfunc AESDataWrite
    1925 0000028a                   .thumb
TI ARM Assembler Unix v18.1.1 Fri Jul  3 20:08:23 2020

Tools Copyright (c) 1996-2017 Texas Instruments Incorporated
aes.asm                                                              PAGE   36

    1926                            .global AESDataWrite
    1927                    
    1928                    $C$DW$90        .dwtag  DW_TAG_subprogram
    1929                            .dwattr $C$DW$90, DW_AT_name("AESDataWrite")
    1930                            .dwattr $C$DW$90, DW_AT_low_pc(AESDataWrite)
    1931                            .dwattr $C$DW$90, DW_AT_high_pc(0x00)
    1932                            .dwattr $C$DW$90, DW_AT_TI_symbol_name("AESDataWrite")
    1933                            .dwattr $C$DW$90, DW_AT_external
    1934                            .dwattr $C$DW$90, DW_AT_TI_begin_file("../driverlib/aes.c")
    1935                            .dwattr $C$DW$90, DW_AT_TI_begin_line(0x2ce)
    1936                            .dwattr $C$DW$90, DW_AT_TI_begin_column(0x01)
    1937                            .dwattr $C$DW$90, DW_AT_decl_file("../driverlib/aes.c")
    1938                            .dwattr $C$DW$90, DW_AT_decl_line(0x2ce)
    1939                            .dwattr $C$DW$90, DW_AT_decl_column(0x01)
    1940                            .dwattr $C$DW$90, DW_AT_TI_max_frame_size(0x08)
    1941                            .dwpsn  file "../driverlib/aes.c",line 719,column 1,is_stmt,address AESDataWrite,isa 1
    1942                    
    1943                            .dwfde $C$DW$CIE, AESDataWrite
    1944                    $C$DW$91        .dwtag  DW_TAG_formal_parameter
    1945                            .dwattr $C$DW$91, DW_AT_name("ui32Base")
    1946                            .dwattr $C$DW$91, DW_AT_TI_symbol_name("ui32Base")
    1947                            .dwattr $C$DW$91, DW_AT_type(*$C$DW$T$27)
    1948                            .dwattr $C$DW$91, DW_AT_location[DW_OP_reg0]
    1949                    
    1950                    $C$DW$92        .dwtag  DW_TAG_formal_parameter
    1951                            .dwattr $C$DW$92, DW_AT_name("pui32Src")
    1952                            .dwattr $C$DW$92, DW_AT_TI_symbol_name("pui32Src")
    1953                            .dwattr $C$DW$92, DW_AT_type(*$C$DW$T$34)
    1954                            .dwattr $C$DW$92, DW_AT_location[DW_OP_reg1]
    1955                    
    1956                    ;----------------------------------------------------------------------
    1957                    ; 718 | AESDataWrite(uint32_t ui32Base, uint32_t *pui32Src)                    
    1958                    ;----------------------------------------------------------------------
    1959                    
    1960                    ;*****************************************************************************
    1961                    ;* FUNCTION NAME: AESDataWrite                                               *
    1962                    ;*                                                                           *
    1963                    ;*   Regs Modified     : A1,A2,SP,SR                                         *
    1964                    ;*   Regs Used         : A1,A2,SP,LR,SR                                      *
    1965                    ;*   Local Frame Size  : 0 Args + 8 Auto + 0 Save = 8 byte                   *
    1966                    ;*****************************************************************************
    1967 0000028a           AESDataWrite:
    1968                    ;* --------------------------------------------------------------------------*
    1969                            .dwcfi  cfa_offset, 0
    1970 0000028a 0D08F1AD          SUB       SP, SP, #8            ; [DPU_V7M3_PIPE]  ; [KEEP 32-BIT INS]
    1971                            .dwcfi  cfa_offset, 8
    1972                    $C$DW$93        .dwtag  DW_TAG_variable
    1973                            .dwattr $C$DW$93, DW_AT_name("ui32Base")
    1974                            .dwattr $C$DW$93, DW_AT_TI_symbol_name("ui32Base")
    1975                            .dwattr $C$DW$93, DW_AT_type(*$C$DW$T$27)
    1976                            .dwattr $C$DW$93, DW_AT_location[DW_OP_breg13 0]
    1977                    
    1978                    $C$DW$94        .dwtag  DW_TAG_variable
    1979                            .dwattr $C$DW$94, DW_AT_name("pui32Src")
    1980                            .dwattr $C$DW$94, DW_AT_TI_symbol_name("pui32Src")
TI ARM Assembler Unix v18.1.1 Fri Jul  3 20:08:23 2020

Tools Copyright (c) 1996-2017 Texas Instruments Incorporated
aes.asm                                                              PAGE   37

    1981                            .dwattr $C$DW$94, DW_AT_type(*$C$DW$T$34)
    1982                            .dwattr $C$DW$94, DW_AT_location[DW_OP_breg13 4]
    1983                    
    1984                    ;----------------------------------------------------------------------
    1985                    ; 720 | //                                                                     
    1986                    ; 721 | // Check the arguments.                                                
    1987                    ; 722 | //                                                                     
    1988                    ; 723 | ASSERT(ui32Base == AES_BASE);                                          
    1989                    ; 725 | //                                                                     
    1990                    ; 726 | // Wait for input ready.                                               
    1991                    ; 727 | //                                                                     
    1992                    ;----------------------------------------------------------------------
    1993 0000028e 9101              STR       A2, [SP, #4]          ; [DPU_V7M3_PIPE] |719|  ; [ORIG 16-BIT INS]
    1994 00000290 9000              STR       A1, [SP, #0]          ; [DPU_V7M3_PIPE] |719|  ; [ORIG 16-BIT INS]
    1995                            .dwpsn  file "../driverlib/aes.c",line 728,column 5,is_stmt,isa 1
    1996                    ;----------------------------------------------------------------------
    1997                    ; 728 | while((AES_CTRL_INPUT_READY & (HWREG(ui32Base + AES_O_CTRL))) == 0)    
    1998                    ;----------------------------------------------------------------------
    1999                    ;* --------------------------------------------------------------------------*
    2000                    ;*   BEGIN LOOP ||$C$L14||
    2001                    ;*
    2002                    ;*   Loop source line                : 728
    2003                    ;*   Loop closing brace source line  : 730
    2004                    ;*   Known Minimum Trip Count        : 1
    2005                    ;*   Known Maximum Trip Count        : 4294967295
    2006                    ;*   Known Max Trip Count Factor     : 1
    2007                    ;* --------------------------------------------------------------------------*
    2008 00000292           ||$C$L14||:    
    2009                            .dwpsn  file "../driverlib/aes.c",line 728,column 11,is_stmt,isa 1
    2010                    ;----------------------------------------------------------------------
    2011                    ; 732 | //                                                                     
    2012                    ; 733 | // Write a block of data into the data registers.                      
    2013                    ; 734 | //                                                                     
    2014                    ;----------------------------------------------------------------------
    2015 00000292 9800              LDR       A1, [SP, #0]          ; [DPU_V7M3_PIPE] |728|  ; [ORIG 16-BIT INS]
    2016 00000294 6D00              LDR       A1, [A1, #80]         ; [DPU_V7M3_PIPE] |728|  ; [ORIG 16-BIT INS]
    2017 00000296 0880              LSRS      A1, A1, #2            ; [DPU_V7M3_PIPE] |728|  ; [ORIG 16-BIT INS]
    2018 00000298 D3FB              BCC       ||$C$L14||            ; [DPU_V7M3_PIPE] |728|  ; [ORIG 16-BIT INS]
    2019                            ; BRANCHCC OCCURS {||$C$L14||}   ; [] |728| 
    2020                    ;* --------------------------------------------------------------------------*
    2021                            .dwpsn  file "../driverlib/aes.c",line 735,column 5,is_stmt,isa 1
    2022                    ;----------------------------------------------------------------------
    2023                    ; 735 | HWREG(ui32Base + AES_O_DATA_IN_3) = pui32Src[0];                       
    2024                    ;----------------------------------------------------------------------
    2025 0000029a 9801              LDR       A1, [SP, #4]          ; [DPU_V7M3_PIPE] |735|  ; [ORIG 16-BIT INS]
    2026 0000029c 9900              LDR       A2, [SP, #0]          ; [DPU_V7M3_PIPE] |735|  ; [ORIG 16-BIT INS]
    2027 0000029e 6800              LDR       A1, [A1, #0]          ; [DPU_V7M3_PIPE] |735|  ; [ORIG 16-BIT INS]
    2028 000002a0 66C8              STR       A1, [A2, #108]        ; [DPU_V7M3_PIPE] |735|  ; [ORIG 16-BIT INS]
    2029                            .dwpsn  file "../driverlib/aes.c",line 736,column 5,is_stmt,isa 1
    2030                    ;----------------------------------------------------------------------
    2031                    ; 736 | HWREG(ui32Base + AES_O_DATA_IN_2) = pui32Src[1];                       
    2032                    ;----------------------------------------------------------------------
    2033 000002a2 9801              LDR       A1, [SP, #4]          ; [DPU_V7M3_PIPE] |736|  ; [ORIG 16-BIT INS]
    2034 000002a4 9900              LDR       A2, [SP, #0]          ; [DPU_V7M3_PIPE] |736|  ; [ORIG 16-BIT INS]
    2035 000002a6 6840              LDR       A1, [A1, #4]          ; [DPU_V7M3_PIPE] |736|  ; [ORIG 16-BIT INS]
TI ARM Assembler Unix v18.1.1 Fri Jul  3 20:08:23 2020

Tools Copyright (c) 1996-2017 Texas Instruments Incorporated
aes.asm                                                              PAGE   38

    2036 000002a8 6688              STR       A1, [A2, #104]        ; [DPU_V7M3_PIPE] |736|  ; [ORIG 16-BIT INS]
    2037                            .dwpsn  file "../driverlib/aes.c",line 737,column 5,is_stmt,isa 1
    2038                    ;----------------------------------------------------------------------
    2039                    ; 737 | HWREG(ui32Base + AES_O_DATA_IN_1) = pui32Src[2];                       
    2040                    ;----------------------------------------------------------------------
    2041 000002aa 9801              LDR       A1, [SP, #4]          ; [DPU_V7M3_PIPE] |737|  ; [ORIG 16-BIT INS]
    2042 000002ac 9900              LDR       A2, [SP, #0]          ; [DPU_V7M3_PIPE] |737|  ; [ORIG 16-BIT INS]
    2043 000002ae 6880              LDR       A1, [A1, #8]          ; [DPU_V7M3_PIPE] |737|  ; [ORIG 16-BIT INS]
    2044 000002b0 6648              STR       A1, [A2, #100]        ; [DPU_V7M3_PIPE] |737|  ; [ORIG 16-BIT INS]
    2045                            .dwpsn  file "../driverlib/aes.c",line 738,column 5,is_stmt,isa 1
    2046                    ;----------------------------------------------------------------------
    2047                    ; 738 | HWREG(ui32Base + AES_O_DATA_IN_0) = pui32Src[3];                       
    2048                    ;----------------------------------------------------------------------
    2049 000002b2 9801              LDR       A1, [SP, #4]          ; [DPU_V7M3_PIPE] |738|  ; [ORIG 16-BIT INS]
    2050 000002b4 9900              LDR       A2, [SP, #0]          ; [DPU_V7M3_PIPE] |738|  ; [ORIG 16-BIT INS]
    2051 000002b6 68C0              LDR       A1, [A1, #12]         ; [DPU_V7M3_PIPE] |738|  ; [ORIG 16-BIT INS]
    2052 000002b8 6608              STR       A1, [A2, #96]         ; [DPU_V7M3_PIPE] |738|  ; [ORIG 16-BIT INS]
    2053                            .dwpsn  file "../driverlib/aes.c",line 739,column 1,is_stmt,isa 1
    2054 000002ba B002              ADD       SP, SP, #8            ; [DPU_V7M3_PIPE]  ; [ORIG 16-BIT INS]
    2055                            .dwcfi  cfa_offset, 0
    2056                    $C$DW$95        .dwtag  DW_TAG_TI_branch
    2057                            .dwattr $C$DW$95, DW_AT_low_pc(0x00)
    2058                            .dwattr $C$DW$95, DW_AT_TI_return
    2059                    
    2060 000002bc 4770              BX        LR                    ; [DPU_V7M3_PIPE]  ; [ORIG 16-BIT INS]
    2061                            ; BRANCH OCCURS                  ; [] 
    2062                            .dwattr $C$DW$90, DW_AT_TI_end_file("../driverlib/aes.c")
    2063                            .dwattr $C$DW$90, DW_AT_TI_end_line(0x2e3)
    2064                            .dwattr $C$DW$90, DW_AT_TI_end_column(0x01)
    2065                            .dwendentry
    2066                            .dwendtag $C$DW$90
    2067                    
    2068 000002be                   .sect   ".text"
    2069                            .clink
    2070                            .thumbfunc AESDataProcess
    2071 000002be                   .thumb
    2072                            .global AESDataProcess
    2073                    
    2074                    $C$DW$96        .dwtag  DW_TAG_subprogram
    2075                            .dwattr $C$DW$96, DW_AT_name("AESDataProcess")
    2076                            .dwattr $C$DW$96, DW_AT_low_pc(AESDataProcess)
    2077                            .dwattr $C$DW$96, DW_AT_high_pc(0x00)
    2078                            .dwattr $C$DW$96, DW_AT_TI_symbol_name("AESDataProcess")
    2079                            .dwattr $C$DW$96, DW_AT_external
    2080                            .dwattr $C$DW$96, DW_AT_type(*$C$DW$T$118)
    2081                            .dwattr $C$DW$96, DW_AT_TI_begin_file("../driverlib/aes.c")
    2082                            .dwattr $C$DW$96, DW_AT_TI_begin_line(0x2fe)
    2083                            .dwattr $C$DW$96, DW_AT_TI_begin_column(0x01)
    2084                            .dwattr $C$DW$96, DW_AT_decl_file("../driverlib/aes.c")
    2085                            .dwattr $C$DW$96, DW_AT_decl_line(0x2fe)
    2086                            .dwattr $C$DW$96, DW_AT_decl_column(0x01)
    2087                            .dwattr $C$DW$96, DW_AT_TI_max_frame_size(0x18)
    2088                            .dwpsn  file "../driverlib/aes.c",line 768,column 1,is_stmt,address AESDataProcess,isa 1
    2089                    
    2090                            .dwfde $C$DW$CIE, AESDataProcess
TI ARM Assembler Unix v18.1.1 Fri Jul  3 20:08:23 2020

Tools Copyright (c) 1996-2017 Texas Instruments Incorporated
aes.asm                                                              PAGE   39

    2091                    $C$DW$97        .dwtag  DW_TAG_formal_parameter
    2092                            .dwattr $C$DW$97, DW_AT_name("ui32Base")
    2093                            .dwattr $C$DW$97, DW_AT_TI_symbol_name("ui32Base")
    2094                            .dwattr $C$DW$97, DW_AT_type(*$C$DW$T$27)
    2095                            .dwattr $C$DW$97, DW_AT_location[DW_OP_reg0]
    2096                    
    2097                    $C$DW$98        .dwtag  DW_TAG_formal_parameter
    2098                            .dwattr $C$DW$98, DW_AT_name("pui32Src")
    2099                            .dwattr $C$DW$98, DW_AT_TI_symbol_name("pui32Src")
    2100                            .dwattr $C$DW$98, DW_AT_type(*$C$DW$T$34)
    2101                            .dwattr $C$DW$98, DW_AT_location[DW_OP_reg1]
    2102                    
    2103                    $C$DW$99        .dwtag  DW_TAG_formal_parameter
    2104                            .dwattr $C$DW$99, DW_AT_name("pui32Dest")
    2105                            .dwattr $C$DW$99, DW_AT_TI_symbol_name("pui32Dest")
    2106                            .dwattr $C$DW$99, DW_AT_type(*$C$DW$T$34)
    2107                            .dwattr $C$DW$99, DW_AT_location[DW_OP_reg2]
    2108                    
    2109                    $C$DW$100       .dwtag  DW_TAG_formal_parameter
    2110                            .dwattr $C$DW$100, DW_AT_name("ui32Length")
    2111                            .dwattr $C$DW$100, DW_AT_TI_symbol_name("ui32Length")
    2112                            .dwattr $C$DW$100, DW_AT_type(*$C$DW$T$27)
    2113                            .dwattr $C$DW$100, DW_AT_location[DW_OP_reg3]
    2114                    
    2115                    ;----------------------------------------------------------------------
    2116                    ; 766 | AESDataProcess(uint32_t ui32Base, uint32_t *pui32Src, uint32_t *pui32De
    2117                    ;     | st,                                                                    
    2118                    ; 767 | uint32_t ui32Length)                                                   
    2119                    ;----------------------------------------------------------------------
    2120                    
    2121                    ;*****************************************************************************
    2122                    ;* FUNCTION NAME: AESDataProcess                                             *
    2123                    ;*                                                                           *
    2124                    ;*   Regs Modified     : A1,A2,A3,A4,SP,LR,SR,FPEXC,FPSCR                    *
    2125                    ;*   Regs Used         : A1,A2,A3,A4,SP,LR,SR,FPEXC,FPSCR                    *
    2126                    ;*   Local Frame Size  : 0 Args + 20 Auto + 4 Save = 24 byte                 *
    2127                    ;*****************************************************************************
    2128 000002be           AESDataProcess:
    2129                    ;* --------------------------------------------------------------------------*
    2130                            .dwcfi  cfa_offset, 0
    2131 000002be B500              PUSH      {LR}                  ; [DPU_V7M3_PIPE]  ; [ORIG 16-BIT INS]
    2132                            .dwcfi  cfa_offset, 4
    2133                            .dwcfi  save_reg_to_mem, 14, -4
    2134 000002c0 0D14F1AD          SUB       SP, SP, #20           ; [DPU_V7M3_PIPE]  ; [KEEP 32-BIT INS]
    2135                            .dwcfi  cfa_offset, 24
    2136                    $C$DW$101       .dwtag  DW_TAG_variable
    2137                            .dwattr $C$DW$101, DW_AT_name("ui32Base")
    2138                            .dwattr $C$DW$101, DW_AT_TI_symbol_name("ui32Base")
    2139                            .dwattr $C$DW$101, DW_AT_type(*$C$DW$T$27)
    2140                            .dwattr $C$DW$101, DW_AT_location[DW_OP_breg13 0]
    2141                    
    2142                    $C$DW$102       .dwtag  DW_TAG_variable
    2143                            .dwattr $C$DW$102, DW_AT_name("pui32Src")
    2144                            .dwattr $C$DW$102, DW_AT_TI_symbol_name("pui32Src")
    2145                            .dwattr $C$DW$102, DW_AT_type(*$C$DW$T$34)
TI ARM Assembler Unix v18.1.1 Fri Jul  3 20:08:23 2020

Tools Copyright (c) 1996-2017 Texas Instruments Incorporated
aes.asm                                                              PAGE   40

    2146                            .dwattr $C$DW$102, DW_AT_location[DW_OP_breg13 4]
    2147                    
    2148                    $C$DW$103       .dwtag  DW_TAG_variable
    2149                            .dwattr $C$DW$103, DW_AT_name("pui32Dest")
    2150                            .dwattr $C$DW$103, DW_AT_TI_symbol_name("pui32Dest")
    2151                            .dwattr $C$DW$103, DW_AT_type(*$C$DW$T$34)
    2152                            .dwattr $C$DW$103, DW_AT_location[DW_OP_breg13 8]
    2153                    
    2154                    $C$DW$104       .dwtag  DW_TAG_variable
    2155                            .dwattr $C$DW$104, DW_AT_name("ui32Length")
    2156                            .dwattr $C$DW$104, DW_AT_TI_symbol_name("ui32Length")
    2157                            .dwattr $C$DW$104, DW_AT_type(*$C$DW$T$27)
    2158                            .dwattr $C$DW$104, DW_AT_location[DW_OP_breg13 12]
    2159                    
    2160                    $C$DW$105       .dwtag  DW_TAG_variable
    2161                            .dwattr $C$DW$105, DW_AT_name("ui32Count")
    2162                            .dwattr $C$DW$105, DW_AT_TI_symbol_name("ui32Count")
    2163                            .dwattr $C$DW$105, DW_AT_type(*$C$DW$T$27)
    2164                            .dwattr $C$DW$105, DW_AT_location[DW_OP_breg13 16]
    2165                    
    2166                    ;----------------------------------------------------------------------
    2167                    ; 769 | uint32_t ui32Count;                                                    
    2168                    ; 771 | //                                                                     
    2169                    ; 772 | // Check the arguments.                                                
    2170                    ; 773 | //                                                                     
    2171                    ; 774 | ASSERT(ui32Base == AES_BASE);                                          
    2172                    ; 776 | //                                                                     
    2173                    ; 777 | // Write the length register first, which triggers the engine to start 
    2174                    ; 778 | // using this context.                                                 
    2175                    ; 779 | //                                                                     
    2176                    ;----------------------------------------------------------------------
    2177 000002c4 9303              STR       A4, [SP, #12]         ; [DPU_V7M3_PIPE] |768|  ; [ORIG 16-BIT INS]
    2178 000002c6 9202              STR       A3, [SP, #8]          ; [DPU_V7M3_PIPE] |768|  ; [ORIG 16-BIT INS]
    2179 000002c8 9101              STR       A2, [SP, #4]          ; [DPU_V7M3_PIPE] |768|  ; [ORIG 16-BIT INS]
    2180 000002ca 9000              STR       A1, [SP, #0]          ; [DPU_V7M3_PIPE] |768|  ; [ORIG 16-BIT INS]
    2181                            .dwpsn  file "../driverlib/aes.c",line 780,column 5,is_stmt,isa 1
    2182                    ;----------------------------------------------------------------------
    2183                    ; 780 | AESLengthSet(AES_BASE, (uint64_t)ui32Length);                          
    2184                    ; 782 | //                                                                     
    2185                    ; 783 | // Now loop until the blocks are written.                              
    2186                    ; 784 | //                                                                     
    2187                    ;----------------------------------------------------------------------
    2188 000002cc 48AA              LDR       A1, $C$CON1           ; [DPU_V7M3_PIPE] |780|  ; [ORIG 16-BIT INS]
    2189 000002ce 9A03              LDR       A3, [SP, #12]         ; [DPU_V7M3_PIPE] |780|  ; [ORIG 16-BIT INS]
    2190 000002d0 2300              MOVS      A4, #0                ; [DPU_V7M3_PIPE] |780|  ; [ORIG 16-BIT INS]
    2191                    $C$DW$106       .dwtag  DW_TAG_TI_branch
    2192                            .dwattr $C$DW$106, DW_AT_low_pc(0x00)
    2193                            .dwattr $C$DW$106, DW_AT_name("AESLengthSet")
    2194                            .dwattr $C$DW$106, DW_AT_TI_call
    2195                    
    2196 000002d2 FFFEF7FF!         BL        AESLengthSet          ; [DPU_V7M3_PIPE] |780|  ; [KEEP 32-BIT INS]
    2197                            ; CALL OCCURS {AESLengthSet }    ; [] |780| 
    2198                            .dwpsn  file "../driverlib/aes.c",line 785,column 9,is_stmt,isa 1
    2199                    ;----------------------------------------------------------------------
    2200                    ; 785 | for(ui32Count = 0; ui32Count < ui32Length; ui32Count += 16)            
TI ARM Assembler Unix v18.1.1 Fri Jul  3 20:08:23 2020

Tools Copyright (c) 1996-2017 Texas Instruments Incorporated
aes.asm                                                              PAGE   41

    2201                    ;----------------------------------------------------------------------
    2202 000002d6 2000              MOVS      A1, #0                ; [DPU_V7M3_PIPE] |785|  ; [ORIG 16-BIT INS]
    2203 000002d8 9004              STR       A1, [SP, #16]         ; [DPU_V7M3_PIPE] |785|  ; [ORIG 16-BIT INS]
    2204                            .dwpsn  file "../driverlib/aes.c",line 785,column 24,is_stmt,isa 1
    2205                    ;----------------------------------------------------------------------
    2206                    ; 787 | //                                                                     
    2207                    ; 788 | // Write the data registers.                                           
    2208                    ; 789 | //                                                                     
    2209                    ;----------------------------------------------------------------------
    2210 000002da 9803              LDR       A1, [SP, #12]         ; [DPU_V7M3_PIPE] |785|  ; [ORIG 16-BIT INS]
    2211 000002dc 9904              LDR       A2, [SP, #16]         ; [DPU_V7M3_PIPE] |785|  ; [ORIG 16-BIT INS]
    2212 000002de 4288              CMP       A1, A2                ; [DPU_V7M3_PIPE] |785|  ; [ORIG 16-BIT INS]
    2213 000002e0 D916              BLS       ||$C$L16||            ; [DPU_V7M3_PIPE] |785|  ; [ORIG 16-BIT INS]
    2214                            ; BRANCHCC OCCURS {||$C$L16||}   ; [] |785| 
    2215                    ;* --------------------------------------------------------------------------*
    2216                    ;*   BEGIN LOOP ||$C$L15||
    2217                    ;*
    2218                    ;*   Loop source line                : 785
    2219                    ;*   Loop closing brace source line  : 796
    2220                    ;*   Known Minimum Trip Count        : 1
    2221                    ;*   Known Maximum Trip Count        : 4294967295
    2222                    ;*   Known Max Trip Count Factor     : 1
    2223                    ;* --------------------------------------------------------------------------*
    2224 000002e2           ||$C$L15||:    
    2225                            .dwpsn  file "../driverlib/aes.c",line 790,column 9,is_stmt,isa 1
    2226                    ;----------------------------------------------------------------------
    2227                    ; 790 | AESDataWrite(ui32Base, pui32Src + (ui32Count / 4));                    
    2228                    ; 792 | //                                                                     
    2229                    ; 793 | // Read the data registers.                                            
    2230                    ; 794 | //                                                                     
    2231                    ;----------------------------------------------------------------------
    2232 000002e2 9804              LDR       A1, [SP, #16]         ; [DPU_V7M3_PIPE] |790|  ; [ORIG 16-BIT INS]
    2233 000002e4 9901              LDR       A2, [SP, #4]          ; [DPU_V7M3_PIPE] |790|  ; [ORIG 16-BIT INS]
    2234 000002e6 0880              LSRS      A1, A1, #2            ; [DPU_V7M3_PIPE] |790|  ; [ORIG 16-BIT INS]
    2235 000002e8 0180EB01          ADD       A2, A2, A1, LSL #2    ; [DPU_V7M3_PIPE] |790|  ; [KEEP 32-BIT INS]
    2236 000002ec 9800              LDR       A1, [SP, #0]          ; [DPU_V7M3_PIPE] |790|  ; [ORIG 16-BIT INS]
    2237                    $C$DW$107       .dwtag  DW_TAG_TI_branch
    2238                            .dwattr $C$DW$107, DW_AT_low_pc(0x00)
    2239                            .dwattr $C$DW$107, DW_AT_name("AESDataWrite")
    2240                            .dwattr $C$DW$107, DW_AT_TI_call
    2241                    
    2242 000002ee FFFEF7FF!         BL        AESDataWrite          ; [DPU_V7M3_PIPE] |790|  ; [KEEP 32-BIT INS]
    2243                            ; CALL OCCURS {AESDataWrite }    ; [] |790| 
    2244                            .dwpsn  file "../driverlib/aes.c",line 795,column 9,is_stmt,isa 1
    2245                    ;----------------------------------------------------------------------
    2246                    ; 795 | AESDataRead(ui32Base, pui32Dest + (ui32Count / 4));                    
    2247                    ; 798 | //                                                                     
    2248                    ; 799 | // Return true to indicate successful completion of the function.      
    2249                    ; 800 | //                                                                     
    2250                    ;----------------------------------------------------------------------
    2251 000002f2 9804              LDR       A1, [SP, #16]         ; [DPU_V7M3_PIPE] |795|  ; [ORIG 16-BIT INS]
    2252 000002f4 9902              LDR       A2, [SP, #8]          ; [DPU_V7M3_PIPE] |795|  ; [ORIG 16-BIT INS]
    2253 000002f6 0880              LSRS      A1, A1, #2            ; [DPU_V7M3_PIPE] |795|  ; [ORIG 16-BIT INS]
    2254 000002f8 0180EB01          ADD       A2, A2, A1, LSL #2    ; [DPU_V7M3_PIPE] |795|  ; [KEEP 32-BIT INS]
    2255 000002fc 9800              LDR       A1, [SP, #0]          ; [DPU_V7M3_PIPE] |795|  ; [ORIG 16-BIT INS]
TI ARM Assembler Unix v18.1.1 Fri Jul  3 20:08:23 2020

Tools Copyright (c) 1996-2017 Texas Instruments Incorporated
aes.asm                                                              PAGE   42

    2256                    $C$DW$108       .dwtag  DW_TAG_TI_branch
    2257                            .dwattr $C$DW$108, DW_AT_low_pc(0x00)
    2258                            .dwattr $C$DW$108, DW_AT_name("AESDataRead")
    2259                            .dwattr $C$DW$108, DW_AT_TI_call
    2260                    
    2261 000002fe FFFEF7FF!         BL        AESDataRead           ; [DPU_V7M3_PIPE] |795|  ; [KEEP 32-BIT INS]
    2262                            ; CALL OCCURS {AESDataRead }     ; [] |795| 
    2263                            .dwpsn  file "../driverlib/aes.c",line 785,column 48,is_stmt,isa 1
    2264 00000302 9804              LDR       A1, [SP, #16]         ; [DPU_V7M3_PIPE] |785|  ; [ORIG 16-BIT INS]
    2265 00000304 3010              ADDS      A1, A1, #16           ; [DPU_V7M3_PIPE] |785|  ; [ORIG 16-BIT INS]
    2266 00000306 9004              STR       A1, [SP, #16]         ; [DPU_V7M3_PIPE] |785|  ; [ORIG 16-BIT INS]
    2267                            .dwpsn  file "../driverlib/aes.c",line 785,column 24,is_stmt,isa 1
    2268 00000308 9803              LDR       A1, [SP, #12]         ; [DPU_V7M3_PIPE] |785|  ; [ORIG 16-BIT INS]
    2269 0000030a 9904              LDR       A2, [SP, #16]         ; [DPU_V7M3_PIPE] |785|  ; [ORIG 16-BIT INS]
    2270 0000030c 4288              CMP       A1, A2                ; [DPU_V7M3_PIPE] |785|  ; [ORIG 16-BIT INS]
    2271 0000030e D8E8              BHI       ||$C$L15||            ; [DPU_V7M3_PIPE] |785|  ; [ORIG 16-BIT INS]
    2272                            ; BRANCHCC OCCURS {||$C$L15||}   ; [] |785| 
    2273                    ;* --------------------------------------------------------------------------*
    2274 00000310           ||$C$L16||:    
    2275                            .dwpsn  file "../driverlib/aes.c",line 801,column 5,is_stmt,isa 1
    2276                    ;----------------------------------------------------------------------
    2277                    ; 801 | return(true);                                                          
    2278                    ;----------------------------------------------------------------------
    2279 00000310 2001              MOVS      A1, #1                ; [DPU_V7M3_PIPE] |801|  ; [ORIG 16-BIT INS]
    2280                            .dwpsn  file "../driverlib/aes.c",line 802,column 1,is_stmt,isa 1
    2281 00000312 B005              ADD       SP, SP, #20           ; [DPU_V7M3_PIPE]  ; [ORIG 16-BIT INS]
    2282                            .dwcfi  cfa_offset, 4
    2283                    $C$DW$109       .dwtag  DW_TAG_TI_branch
    2284                            .dwattr $C$DW$109, DW_AT_low_pc(0x00)
    2285                            .dwattr $C$DW$109, DW_AT_TI_return
    2286                    
    2287 00000314 BD00              POP       {PC}                  ; [DPU_V7M3_PIPE]  ; [ORIG 16-BIT INS]
    2288                            .dwcfi  cfa_offset, 0
    2289                            ; BRANCH OCCURS                  ; [] 
    2290                            .dwattr $C$DW$96, DW_AT_TI_end_file("../driverlib/aes.c")
    2291                            .dwattr $C$DW$96, DW_AT_TI_end_line(0x322)
    2292                            .dwattr $C$DW$96, DW_AT_TI_end_column(0x01)
    2293                            .dwendentry
    2294                            .dwendtag $C$DW$96
    2295                    
    2296 00000316                   .sect   ".text"
    2297                            .clink
    2298                            .thumbfunc AESDataAuth
    2299 00000316                   .thumb
    2300                            .global AESDataAuth
    2301                    
    2302                    $C$DW$110       .dwtag  DW_TAG_subprogram
    2303                            .dwattr $C$DW$110, DW_AT_name("AESDataAuth")
    2304                            .dwattr $C$DW$110, DW_AT_low_pc(AESDataAuth)
    2305                            .dwattr $C$DW$110, DW_AT_high_pc(0x00)
    2306                            .dwattr $C$DW$110, DW_AT_TI_symbol_name("AESDataAuth")
    2307                            .dwattr $C$DW$110, DW_AT_external
    2308                            .dwattr $C$DW$110, DW_AT_type(*$C$DW$T$118)
    2309                            .dwattr $C$DW$110, DW_AT_TI_begin_file("../driverlib/aes.c")
    2310                            .dwattr $C$DW$110, DW_AT_TI_begin_line(0x339)
TI ARM Assembler Unix v18.1.1 Fri Jul  3 20:08:23 2020

Tools Copyright (c) 1996-2017 Texas Instruments Incorporated
aes.asm                                                              PAGE   43

    2311                            .dwattr $C$DW$110, DW_AT_TI_begin_column(0x01)
    2312                            .dwattr $C$DW$110, DW_AT_decl_file("../driverlib/aes.c")
    2313                            .dwattr $C$DW$110, DW_AT_decl_line(0x339)
    2314                            .dwattr $C$DW$110, DW_AT_decl_column(0x01)
    2315                            .dwattr $C$DW$110, DW_AT_TI_max_frame_size(0x18)
    2316                            .dwpsn  file "../driverlib/aes.c",line 827,column 1,is_stmt,address AESDataAuth,isa 1
    2317                    
    2318                            .dwfde $C$DW$CIE, AESDataAuth
    2319                    $C$DW$111       .dwtag  DW_TAG_formal_parameter
    2320                            .dwattr $C$DW$111, DW_AT_name("ui32Base")
    2321                            .dwattr $C$DW$111, DW_AT_TI_symbol_name("ui32Base")
    2322                            .dwattr $C$DW$111, DW_AT_type(*$C$DW$T$27)
    2323                            .dwattr $C$DW$111, DW_AT_location[DW_OP_reg0]
    2324                    
    2325                    $C$DW$112       .dwtag  DW_TAG_formal_parameter
    2326                            .dwattr $C$DW$112, DW_AT_name("pui32Src")
    2327                            .dwattr $C$DW$112, DW_AT_TI_symbol_name("pui32Src")
    2328                            .dwattr $C$DW$112, DW_AT_type(*$C$DW$T$34)
    2329                            .dwattr $C$DW$112, DW_AT_location[DW_OP_reg1]
    2330                    
    2331                    $C$DW$113       .dwtag  DW_TAG_formal_parameter
    2332                            .dwattr $C$DW$113, DW_AT_name("ui32Length")
    2333                            .dwattr $C$DW$113, DW_AT_TI_symbol_name("ui32Length")
    2334                            .dwattr $C$DW$113, DW_AT_type(*$C$DW$T$27)
    2335                            .dwattr $C$DW$113, DW_AT_location[DW_OP_reg2]
    2336                    
    2337                    $C$DW$114       .dwtag  DW_TAG_formal_parameter
    2338                            .dwattr $C$DW$114, DW_AT_name("pui32Tag")
    2339                            .dwattr $C$DW$114, DW_AT_TI_symbol_name("pui32Tag")
    2340                            .dwattr $C$DW$114, DW_AT_type(*$C$DW$T$34)
    2341                            .dwattr $C$DW$114, DW_AT_location[DW_OP_reg3]
    2342                    
    2343                    ;----------------------------------------------------------------------
    2344                    ; 825 | AESDataAuth(uint32_t ui32Base, uint32_t *pui32Src, uint32_t ui32Length,
    2345                    ; 826 | uint32_t *pui32Tag)                                                    
    2346                    ;----------------------------------------------------------------------
    2347                    
    2348                    ;*****************************************************************************
    2349                    ;* FUNCTION NAME: AESDataAuth                                                *
    2350                    ;*                                                                           *
    2351                    ;*   Regs Modified     : A1,A2,A3,A4,SP,LR,SR,FPEXC,FPSCR                    *
    2352                    ;*   Regs Used         : A1,A2,A3,A4,SP,LR,SR,FPEXC,FPSCR                    *
    2353                    ;*   Local Frame Size  : 0 Args + 20 Auto + 4 Save = 24 byte                 *
    2354                    ;*****************************************************************************
    2355 00000316           AESDataAuth:
    2356                    ;* --------------------------------------------------------------------------*
    2357                            .dwcfi  cfa_offset, 0
    2358 00000316 B500              PUSH      {LR}                  ; [DPU_V7M3_PIPE]  ; [ORIG 16-BIT INS]
    2359                            .dwcfi  cfa_offset, 4
    2360                            .dwcfi  save_reg_to_mem, 14, -4
    2361 00000318 0D14F1AD          SUB       SP, SP, #20           ; [DPU_V7M3_PIPE]  ; [KEEP 32-BIT INS]
    2362                            .dwcfi  cfa_offset, 24
    2363                    $C$DW$115       .dwtag  DW_TAG_variable
    2364                            .dwattr $C$DW$115, DW_AT_name("ui32Base")
    2365                            .dwattr $C$DW$115, DW_AT_TI_symbol_name("ui32Base")
TI ARM Assembler Unix v18.1.1 Fri Jul  3 20:08:23 2020

Tools Copyright (c) 1996-2017 Texas Instruments Incorporated
aes.asm                                                              PAGE   44

    2366                            .dwattr $C$DW$115, DW_AT_type(*$C$DW$T$27)
    2367                            .dwattr $C$DW$115, DW_AT_location[DW_OP_breg13 0]
    2368                    
    2369                    $C$DW$116       .dwtag  DW_TAG_variable
    2370                            .dwattr $C$DW$116, DW_AT_name("pui32Src")
    2371                            .dwattr $C$DW$116, DW_AT_TI_symbol_name("pui32Src")
    2372                            .dwattr $C$DW$116, DW_AT_type(*$C$DW$T$34)
    2373                            .dwattr $C$DW$116, DW_AT_location[DW_OP_breg13 4]
    2374                    
    2375                    $C$DW$117       .dwtag  DW_TAG_variable
    2376                            .dwattr $C$DW$117, DW_AT_name("ui32Length")
    2377                            .dwattr $C$DW$117, DW_AT_TI_symbol_name("ui32Length")
    2378                            .dwattr $C$DW$117, DW_AT_type(*$C$DW$T$27)
    2379                            .dwattr $C$DW$117, DW_AT_location[DW_OP_breg13 8]
    2380                    
    2381                    $C$DW$118       .dwtag  DW_TAG_variable
    2382                            .dwattr $C$DW$118, DW_AT_name("pui32Tag")
    2383                            .dwattr $C$DW$118, DW_AT_TI_symbol_name("pui32Tag")
    2384                            .dwattr $C$DW$118, DW_AT_type(*$C$DW$T$34)
    2385                            .dwattr $C$DW$118, DW_AT_location[DW_OP_breg13 12]
    2386                    
    2387                    $C$DW$119       .dwtag  DW_TAG_variable
    2388                            .dwattr $C$DW$119, DW_AT_name("ui32Count")
    2389                            .dwattr $C$DW$119, DW_AT_TI_symbol_name("ui32Count")
    2390                            .dwattr $C$DW$119, DW_AT_type(*$C$DW$T$27)
    2391                            .dwattr $C$DW$119, DW_AT_location[DW_OP_breg13 16]
    2392                    
    2393                    ;----------------------------------------------------------------------
    2394                    ; 828 | uint32_t ui32Count;                                                    
    2395                    ; 830 | //                                                                     
    2396                    ; 831 | // Check the arguments.                                                
    2397                    ; 832 | //                                                                     
    2398                    ; 833 | ASSERT(ui32Base == AES_BASE);                                          
    2399                    ; 835 | //                                                                     
    2400                    ; 836 | // Write the length register first, which triggers the engine to start 
    2401                    ; 837 | // using this context.                                                 
    2402                    ; 838 | //                                                                     
    2403                    ;----------------------------------------------------------------------
    2404 0000031c 9303              STR       A4, [SP, #12]         ; [DPU_V7M3_PIPE] |827|  ; [ORIG 16-BIT INS]
    2405 0000031e 9202              STR       A3, [SP, #8]          ; [DPU_V7M3_PIPE] |827|  ; [ORIG 16-BIT INS]
    2406 00000320 9101              STR       A2, [SP, #4]          ; [DPU_V7M3_PIPE] |827|  ; [ORIG 16-BIT INS]
    2407 00000322 9000              STR       A1, [SP, #0]          ; [DPU_V7M3_PIPE] |827|  ; [ORIG 16-BIT INS]
    2408                            .dwpsn  file "../driverlib/aes.c",line 839,column 5,is_stmt,isa 1
    2409                    ;----------------------------------------------------------------------
    2410                    ; 839 | AESLengthSet(ui32Base, (uint64_t)ui32Length);                          
    2411                    ; 841 | //                                                                     
    2412                    ; 842 | // Now loop until the blocks are written.                              
    2413                    ; 843 | //                                                                     
    2414                    ;----------------------------------------------------------------------
    2415 00000324 9A02              LDR       A3, [SP, #8]          ; [DPU_V7M3_PIPE] |839|  ; [ORIG 16-BIT INS]
    2416 00000326 9800              LDR       A1, [SP, #0]          ; [DPU_V7M3_PIPE] |839|  ; [ORIG 16-BIT INS]
    2417 00000328 2300              MOVS      A4, #0                ; [DPU_V7M3_PIPE] |839|  ; [ORIG 16-BIT INS]
    2418                    $C$DW$120       .dwtag  DW_TAG_TI_branch
    2419                            .dwattr $C$DW$120, DW_AT_low_pc(0x00)
    2420                            .dwattr $C$DW$120, DW_AT_name("AESLengthSet")
TI ARM Assembler Unix v18.1.1 Fri Jul  3 20:08:23 2020

Tools Copyright (c) 1996-2017 Texas Instruments Incorporated
aes.asm                                                              PAGE   45

    2421                            .dwattr $C$DW$120, DW_AT_TI_call
    2422                    
    2423 0000032a FFFEF7FF!         BL        AESLengthSet          ; [DPU_V7M3_PIPE] |839|  ; [KEEP 32-BIT INS]
    2424                            ; CALL OCCURS {AESLengthSet }    ; [] |839| 
    2425                            .dwpsn  file "../driverlib/aes.c",line 844,column 9,is_stmt,isa 1
    2426                    ;----------------------------------------------------------------------
    2427                    ; 844 | for(ui32Count = 0; ui32Count < ui32Length; ui32Count += 16)            
    2428                    ;----------------------------------------------------------------------
    2429 0000032e 2000              MOVS      A1, #0                ; [DPU_V7M3_PIPE] |844|  ; [ORIG 16-BIT INS]
    2430 00000330 9004              STR       A1, [SP, #16]         ; [DPU_V7M3_PIPE] |844|  ; [ORIG 16-BIT INS]
    2431                            .dwpsn  file "../driverlib/aes.c",line 844,column 24,is_stmt,isa 1
    2432                    ;----------------------------------------------------------------------
    2433                    ; 846 | //                                                                     
    2434                    ; 847 | // Write the data registers.                                           
    2435                    ; 848 | //                                                                     
    2436                    ;----------------------------------------------------------------------
    2437 00000332 9802              LDR       A1, [SP, #8]          ; [DPU_V7M3_PIPE] |844|  ; [ORIG 16-BIT INS]
    2438 00000334 9904              LDR       A2, [SP, #16]         ; [DPU_V7M3_PIPE] |844|  ; [ORIG 16-BIT INS]
    2439 00000336 4288              CMP       A1, A2                ; [DPU_V7M3_PIPE] |844|  ; [ORIG 16-BIT INS]
    2440 00000338 D90E              BLS       ||$C$L18||            ; [DPU_V7M3_PIPE] |844|  ; [ORIG 16-BIT INS]
    2441                            ; BRANCHCC OCCURS {||$C$L18||}   ; [] |844| 
    2442                    ;* --------------------------------------------------------------------------*
    2443                    ;*   BEGIN LOOP ||$C$L17||
    2444                    ;*
    2445                    ;*   Loop source line                : 844
    2446                    ;*   Loop closing brace source line  : 850
    2447                    ;*   Known Minimum Trip Count        : 1
    2448                    ;*   Known Maximum Trip Count        : 4294967295
    2449                    ;*   Known Max Trip Count Factor     : 1
    2450                    ;* --------------------------------------------------------------------------*
    2451 0000033a           ||$C$L17||:    
    2452                            .dwpsn  file "../driverlib/aes.c",line 849,column 9,is_stmt,isa 1
    2453                    ;----------------------------------------------------------------------
    2454                    ; 849 | AESDataWrite(ui32Base, pui32Src + (ui32Count / 4));                    
    2455                    ; 852 | //                                                                     
    2456                    ; 853 | // Read the hash tag value.                                            
    2457                    ; 854 | //                                                                     
    2458                    ;----------------------------------------------------------------------
    2459 0000033a 9804              LDR       A1, [SP, #16]         ; [DPU_V7M3_PIPE] |849|  ; [ORIG 16-BIT INS]
    2460 0000033c 9901              LDR       A2, [SP, #4]          ; [DPU_V7M3_PIPE] |849|  ; [ORIG 16-BIT INS]
    2461 0000033e 0880              LSRS      A1, A1, #2            ; [DPU_V7M3_PIPE] |849|  ; [ORIG 16-BIT INS]
    2462 00000340 0180EB01          ADD       A2, A2, A1, LSL #2    ; [DPU_V7M3_PIPE] |849|  ; [KEEP 32-BIT INS]
    2463 00000344 9800              LDR       A1, [SP, #0]          ; [DPU_V7M3_PIPE] |849|  ; [ORIG 16-BIT INS]
    2464                    $C$DW$121       .dwtag  DW_TAG_TI_branch
    2465                            .dwattr $C$DW$121, DW_AT_low_pc(0x00)
    2466                            .dwattr $C$DW$121, DW_AT_name("AESDataWrite")
    2467                            .dwattr $C$DW$121, DW_AT_TI_call
    2468                    
    2469 00000346 FFFEF7FF!         BL        AESDataWrite          ; [DPU_V7M3_PIPE] |849|  ; [KEEP 32-BIT INS]
    2470                            ; CALL OCCURS {AESDataWrite }    ; [] |849| 
    2471                            .dwpsn  file "../driverlib/aes.c",line 844,column 48,is_stmt,isa 1
    2472 0000034a 9804              LDR       A1, [SP, #16]         ; [DPU_V7M3_PIPE] |844|  ; [ORIG 16-BIT INS]
    2473 0000034c 3010              ADDS      A1, A1, #16           ; [DPU_V7M3_PIPE] |844|  ; [ORIG 16-BIT INS]
    2474 0000034e 9004              STR       A1, [SP, #16]         ; [DPU_V7M3_PIPE] |844|  ; [ORIG 16-BIT INS]
    2475                            .dwpsn  file "../driverlib/aes.c",line 844,column 24,is_stmt,isa 1
TI ARM Assembler Unix v18.1.1 Fri Jul  3 20:08:23 2020

Tools Copyright (c) 1996-2017 Texas Instruments Incorporated
aes.asm                                                              PAGE   46

    2476 00000350 9802              LDR       A1, [SP, #8]          ; [DPU_V7M3_PIPE] |844|  ; [ORIG 16-BIT INS]
    2477 00000352 9904              LDR       A2, [SP, #16]         ; [DPU_V7M3_PIPE] |844|  ; [ORIG 16-BIT INS]
    2478 00000354 4288              CMP       A1, A2                ; [DPU_V7M3_PIPE] |844|  ; [ORIG 16-BIT INS]
    2479 00000356 D8F0              BHI       ||$C$L17||            ; [DPU_V7M3_PIPE] |844|  ; [ORIG 16-BIT INS]
    2480                            ; BRANCHCC OCCURS {||$C$L17||}   ; [] |844| 
    2481                    ;* --------------------------------------------------------------------------*
    2482 00000358           ||$C$L18||:    
    2483                            .dwpsn  file "../driverlib/aes.c",line 855,column 5,is_stmt,isa 1
    2484                    ;----------------------------------------------------------------------
    2485                    ; 855 | AESTagRead(ui32Base, pui32Tag);                                        
    2486                    ; 857 | //                                                                     
    2487                    ; 858 | // Return true to indicate successful completion of the function.      
    2488                    ; 859 | //                                                                     
    2489                    ;----------------------------------------------------------------------
    2490 00000358 9800              LDR       A1, [SP, #0]          ; [DPU_V7M3_PIPE] |855|  ; [ORIG 16-BIT INS]
    2491 0000035a 9903              LDR       A2, [SP, #12]         ; [DPU_V7M3_PIPE] |855|  ; [ORIG 16-BIT INS]
    2492                    $C$DW$122       .dwtag  DW_TAG_TI_branch
    2493                            .dwattr $C$DW$122, DW_AT_low_pc(0x00)
    2494                            .dwattr $C$DW$122, DW_AT_name("AESTagRead")
    2495                            .dwattr $C$DW$122, DW_AT_TI_call
    2496                    
    2497 0000035c FFFEF7FF!         BL        AESTagRead            ; [DPU_V7M3_PIPE] |855|  ; [KEEP 32-BIT INS]
    2498                            ; CALL OCCURS {AESTagRead }      ; [] |855| 
    2499                            .dwpsn  file "../driverlib/aes.c",line 860,column 5,is_stmt,isa 1
    2500                    ;----------------------------------------------------------------------
    2501                    ; 860 | return(true);                                                          
    2502                    ;----------------------------------------------------------------------
    2503 00000360 2001              MOVS      A1, #1                ; [DPU_V7M3_PIPE] |860|  ; [ORIG 16-BIT INS]
    2504                            .dwpsn  file "../driverlib/aes.c",line 861,column 1,is_stmt,isa 1
    2505 00000362 B005              ADD       SP, SP, #20           ; [DPU_V7M3_PIPE]  ; [ORIG 16-BIT INS]
    2506                            .dwcfi  cfa_offset, 4
    2507                    $C$DW$123       .dwtag  DW_TAG_TI_branch
    2508                            .dwattr $C$DW$123, DW_AT_low_pc(0x00)
    2509                            .dwattr $C$DW$123, DW_AT_TI_return
    2510                    
    2511 00000364 BD00              POP       {PC}                  ; [DPU_V7M3_PIPE]  ; [ORIG 16-BIT INS]
    2512                            .dwcfi  cfa_offset, 0
    2513                            ; BRANCH OCCURS                  ; [] 
    2514                            .dwattr $C$DW$110, DW_AT_TI_end_file("../driverlib/aes.c")
    2515                            .dwattr $C$DW$110, DW_AT_TI_end_line(0x35d)
    2516                            .dwattr $C$DW$110, DW_AT_TI_end_column(0x01)
    2517                            .dwendentry
    2518                            .dwendtag $C$DW$110
    2519                    
    2520 00000366                   .sect   ".text"
    2521                            .clink
    2522                            .thumbfunc AESDataProcessAuth
    2523 00000366                   .thumb
    2524                            .global AESDataProcessAuth
    2525                    
    2526                    $C$DW$124       .dwtag  DW_TAG_subprogram
    2527                            .dwattr $C$DW$124, DW_AT_name("AESDataProcessAuth")
    2528                            .dwattr $C$DW$124, DW_AT_low_pc(AESDataProcessAuth)
    2529                            .dwattr $C$DW$124, DW_AT_high_pc(0x00)
    2530                            .dwattr $C$DW$124, DW_AT_TI_symbol_name("AESDataProcessAuth")
TI ARM Assembler Unix v18.1.1 Fri Jul  3 20:08:23 2020

Tools Copyright (c) 1996-2017 Texas Instruments Incorporated
aes.asm                                                              PAGE   47

    2531                            .dwattr $C$DW$124, DW_AT_external
    2532                            .dwattr $C$DW$124, DW_AT_type(*$C$DW$T$118)
    2533                            .dwattr $C$DW$124, DW_AT_TI_begin_file("../driverlib/aes.c")
    2534                            .dwattr $C$DW$124, DW_AT_TI_begin_line(0x37c)
    2535                            .dwattr $C$DW$124, DW_AT_TI_begin_column(0x01)
    2536                            .dwattr $C$DW$124, DW_AT_decl_file("../driverlib/aes.c")
    2537                            .dwattr $C$DW$124, DW_AT_decl_line(0x37c)
    2538                            .dwattr $C$DW$124, DW_AT_decl_column(0x01)
    2539                            .dwattr $C$DW$124, DW_AT_TI_max_frame_size(0x18)
    2540                            .dwpsn  file "../driverlib/aes.c",line 896,column 1,is_stmt,address AESDataProcessAuth,isa 1
    2541                    
    2542                            .dwfde $C$DW$CIE, AESDataProcessAuth
    2543                    $C$DW$125       .dwtag  DW_TAG_formal_parameter
    2544                            .dwattr $C$DW$125, DW_AT_name("ui32Base")
    2545                            .dwattr $C$DW$125, DW_AT_TI_symbol_name("ui32Base")
    2546                            .dwattr $C$DW$125, DW_AT_type(*$C$DW$T$27)
    2547                            .dwattr $C$DW$125, DW_AT_location[DW_OP_reg0]
    2548                    
    2549                    $C$DW$126       .dwtag  DW_TAG_formal_parameter
    2550                            .dwattr $C$DW$126, DW_AT_name("pui32Src")
    2551                            .dwattr $C$DW$126, DW_AT_TI_symbol_name("pui32Src")
    2552                            .dwattr $C$DW$126, DW_AT_type(*$C$DW$T$34)
    2553                            .dwattr $C$DW$126, DW_AT_location[DW_OP_reg1]
    2554                    
    2555                    $C$DW$127       .dwtag  DW_TAG_formal_parameter
    2556                            .dwattr $C$DW$127, DW_AT_name("pui32Dest")
    2557                            .dwattr $C$DW$127, DW_AT_TI_symbol_name("pui32Dest")
    2558                            .dwattr $C$DW$127, DW_AT_type(*$C$DW$T$34)
    2559                            .dwattr $C$DW$127, DW_AT_location[DW_OP_reg2]
    2560                    
    2561                    $C$DW$128       .dwtag  DW_TAG_formal_parameter
    2562                            .dwattr $C$DW$128, DW_AT_name("ui32Length")
    2563                            .dwattr $C$DW$128, DW_AT_TI_symbol_name("ui32Length")
    2564                            .dwattr $C$DW$128, DW_AT_type(*$C$DW$T$27)
    2565                            .dwattr $C$DW$128, DW_AT_location[DW_OP_reg3]
    2566                    
    2567                    $C$DW$129       .dwtag  DW_TAG_formal_parameter
    2568                            .dwattr $C$DW$129, DW_AT_name("pui32AuthSrc")
    2569                            .dwattr $C$DW$129, DW_AT_TI_symbol_name("pui32AuthSrc")
    2570                            .dwattr $C$DW$129, DW_AT_type(*$C$DW$T$34)
    2571                            .dwattr $C$DW$129, DW_AT_location[DW_OP_breg13 24]
    2572                    
    2573                    $C$DW$130       .dwtag  DW_TAG_formal_parameter
    2574                            .dwattr $C$DW$130, DW_AT_name("ui32AuthLength")
    2575                            .dwattr $C$DW$130, DW_AT_TI_symbol_name("ui32AuthLength")
    2576                            .dwattr $C$DW$130, DW_AT_type(*$C$DW$T$27)
    2577                            .dwattr $C$DW$130, DW_AT_location[DW_OP_breg13 28]
    2578                    
    2579                    $C$DW$131       .dwtag  DW_TAG_formal_parameter
    2580                            .dwattr $C$DW$131, DW_AT_name("pui32Tag")
    2581                            .dwattr $C$DW$131, DW_AT_TI_symbol_name("pui32Tag")
    2582                            .dwattr $C$DW$131, DW_AT_type(*$C$DW$T$34)
    2583                            .dwattr $C$DW$131, DW_AT_location[DW_OP_breg13 32]
    2584                    
    2585                    ;----------------------------------------------------------------------
TI ARM Assembler Unix v18.1.1 Fri Jul  3 20:08:23 2020

Tools Copyright (c) 1996-2017 Texas Instruments Incorporated
aes.asm                                                              PAGE   48

    2586                    ; 892 | AESDataProcessAuth(uint32_t ui32Base, uint32_t *pui32Src,              
    2587                    ; 893 | uint32_t *pui32Dest, uint32_t ui32Length,                              
    2588                    ; 894 | uint32_t *pui32AuthSrc, uint32_t ui32AuthLength,                       
    2589                    ; 895 | uint32_t *pui32Tag)                                                    
    2590                    ;----------------------------------------------------------------------
    2591                    
    2592                    ;*****************************************************************************
    2593                    ;* FUNCTION NAME: AESDataProcessAuth                                         *
    2594                    ;*                                                                           *
    2595                    ;*   Regs Modified     : A1,A2,A3,A4,SP,LR,SR,FPEXC,FPSCR                    *
    2596                    ;*   Regs Used         : A1,A2,A3,A4,SP,LR,SR,FPEXC,FPSCR                    *
    2597                    ;*   Local Frame Size  : 0 Args + 20 Auto + 4 Save = 24 byte                 *
    2598                    ;*****************************************************************************
    2599 00000366           AESDataProcessAuth:
    2600                    ;* --------------------------------------------------------------------------*
    2601                            .dwcfi  cfa_offset, 0
    2602 00000366 B500              PUSH      {LR}                  ; [DPU_V7M3_PIPE]  ; [ORIG 16-BIT INS]
    2603                            .dwcfi  cfa_offset, 4
    2604                            .dwcfi  save_reg_to_mem, 14, -4
    2605 00000368 0D14F1AD          SUB       SP, SP, #20           ; [DPU_V7M3_PIPE]  ; [KEEP 32-BIT INS]
    2606                            .dwcfi  cfa_offset, 24
    2607                    $C$DW$132       .dwtag  DW_TAG_variable
    2608                            .dwattr $C$DW$132, DW_AT_name("ui32Base")
    2609                            .dwattr $C$DW$132, DW_AT_TI_symbol_name("ui32Base")
    2610                            .dwattr $C$DW$132, DW_AT_type(*$C$DW$T$27)
    2611                            .dwattr $C$DW$132, DW_AT_location[DW_OP_breg13 0]
    2612                    
    2613                    $C$DW$133       .dwtag  DW_TAG_variable
    2614                            .dwattr $C$DW$133, DW_AT_name("pui32Src")
    2615                            .dwattr $C$DW$133, DW_AT_TI_symbol_name("pui32Src")
    2616                            .dwattr $C$DW$133, DW_AT_type(*$C$DW$T$34)
    2617                            .dwattr $C$DW$133, DW_AT_location[DW_OP_breg13 4]
    2618                    
    2619                    $C$DW$134       .dwtag  DW_TAG_variable
    2620                            .dwattr $C$DW$134, DW_AT_name("pui32Dest")
    2621                            .dwattr $C$DW$134, DW_AT_TI_symbol_name("pui32Dest")
    2622                            .dwattr $C$DW$134, DW_AT_type(*$C$DW$T$34)
    2623                            .dwattr $C$DW$134, DW_AT_location[DW_OP_breg13 8]
    2624                    
    2625                    $C$DW$135       .dwtag  DW_TAG_variable
    2626                            .dwattr $C$DW$135, DW_AT_name("ui32Length")
    2627                            .dwattr $C$DW$135, DW_AT_TI_symbol_name("ui32Length")
    2628                            .dwattr $C$DW$135, DW_AT_type(*$C$DW$T$27)
    2629                            .dwattr $C$DW$135, DW_AT_location[DW_OP_breg13 12]
    2630                    
    2631                    $C$DW$136       .dwtag  DW_TAG_variable
    2632                            .dwattr $C$DW$136, DW_AT_name("ui32Count")
    2633                            .dwattr $C$DW$136, DW_AT_TI_symbol_name("ui32Count")
    2634                            .dwattr $C$DW$136, DW_AT_type(*$C$DW$T$27)
    2635                            .dwattr $C$DW$136, DW_AT_location[DW_OP_breg13 16]
    2636                    
    2637                    ;----------------------------------------------------------------------
    2638                    ; 897 | uint32_t ui32Count;                                                    
    2639                    ; 899 | //                                                                     
    2640                    ; 900 | // Check the arguments.                                                
TI ARM Assembler Unix v18.1.1 Fri Jul  3 20:08:23 2020

Tools Copyright (c) 1996-2017 Texas Instruments Incorporated
aes.asm                                                              PAGE   49

    2641                    ; 901 | //                                                                     
    2642                    ; 902 | ASSERT(ui32Base == AES_BASE);                                          
    2643                    ; 904 | //                                                                     
    2644                    ; 905 | // Set the data length.                                                
    2645                    ; 906 | //                                                                     
    2646                    ;----------------------------------------------------------------------
    2647 0000036c 9303              STR       A4, [SP, #12]         ; [DPU_V7M3_PIPE] |896|  ; [ORIG 16-BIT INS]
    2648 0000036e 9202              STR       A3, [SP, #8]          ; [DPU_V7M3_PIPE] |896|  ; [ORIG 16-BIT INS]
    2649 00000370 9101              STR       A2, [SP, #4]          ; [DPU_V7M3_PIPE] |896|  ; [ORIG 16-BIT INS]
    2650 00000372 9000              STR       A1, [SP, #0]          ; [DPU_V7M3_PIPE] |896|  ; [ORIG 16-BIT INS]
    2651                            .dwpsn  file "../driverlib/aes.c",line 907,column 5,is_stmt,isa 1
    2652                    ;----------------------------------------------------------------------
    2653                    ; 907 | AESLengthSet(ui32Base, (uint64_t)ui32Length);                          
    2654                    ; 909 | //                                                                     
    2655                    ; 910 | // Set the additional authentication data length.                      
    2656                    ; 911 | //                                                                     
    2657                    ;----------------------------------------------------------------------
    2658 00000374 9A03              LDR       A3, [SP, #12]         ; [DPU_V7M3_PIPE] |907|  ; [ORIG 16-BIT INS]
    2659 00000376 9800              LDR       A1, [SP, #0]          ; [DPU_V7M3_PIPE] |907|  ; [ORIG 16-BIT INS]
    2660 00000378 2300              MOVS      A4, #0                ; [DPU_V7M3_PIPE] |907|  ; [ORIG 16-BIT INS]
    2661                    $C$DW$137       .dwtag  DW_TAG_TI_branch
    2662                            .dwattr $C$DW$137, DW_AT_low_pc(0x00)
    2663                            .dwattr $C$DW$137, DW_AT_name("AESLengthSet")
    2664                            .dwattr $C$DW$137, DW_AT_TI_call
    2665                    
    2666 0000037a FFFEF7FF!         BL        AESLengthSet          ; [DPU_V7M3_PIPE] |907|  ; [KEEP 32-BIT INS]
    2667                            ; CALL OCCURS {AESLengthSet }    ; [] |907| 
    2668                            .dwpsn  file "../driverlib/aes.c",line 912,column 5,is_stmt,isa 1
    2669                    ;----------------------------------------------------------------------
    2670                    ; 912 | AESAuthLengthSet(ui32Base, ui32AuthLength);                            
    2671                    ; 914 | //                                                                     
    2672                    ; 915 | // Now loop until the authentication data blocks are written.          
    2673                    ; 916 | //                                                                     
    2674                    ;----------------------------------------------------------------------
    2675 0000037e 9800              LDR       A1, [SP, #0]          ; [DPU_V7M3_PIPE] |912|  ; [ORIG 16-BIT INS]
    2676 00000380 9907              LDR       A2, [SP, #28]         ; [DPU_V7M3_PIPE] |912|  ; [ORIG 16-BIT INS]
    2677                    $C$DW$138       .dwtag  DW_TAG_TI_branch
    2678                            .dwattr $C$DW$138, DW_AT_low_pc(0x00)
    2679                            .dwattr $C$DW$138, DW_AT_name("AESAuthLengthSet")
    2680                            .dwattr $C$DW$138, DW_AT_TI_call
    2681                    
    2682 00000382 FFFEF7FF!         BL        AESAuthLengthSet      ; [DPU_V7M3_PIPE] |912|  ; [KEEP 32-BIT INS]
    2683                            ; CALL OCCURS {AESAuthLengthSet }  ; [] |912| 
    2684                            .dwpsn  file "../driverlib/aes.c",line 917,column 9,is_stmt,isa 1
    2685                    ;----------------------------------------------------------------------
    2686                    ; 917 | for(ui32Count = 0; ui32Count < ui32AuthLength; ui32Count += 16)        
    2687                    ;----------------------------------------------------------------------
    2688 00000386 2000              MOVS      A1, #0                ; [DPU_V7M3_PIPE] |917|  ; [ORIG 16-BIT INS]
    2689 00000388 9004              STR       A1, [SP, #16]         ; [DPU_V7M3_PIPE] |917|  ; [ORIG 16-BIT INS]
    2690                            .dwpsn  file "../driverlib/aes.c",line 917,column 24,is_stmt,isa 1
    2691                    ;----------------------------------------------------------------------
    2692                    ; 919 | //                                                                     
    2693                    ; 920 | // Write the data registers.                                           
    2694                    ; 921 | //                                                                     
    2695                    ;----------------------------------------------------------------------
TI ARM Assembler Unix v18.1.1 Fri Jul  3 20:08:23 2020

Tools Copyright (c) 1996-2017 Texas Instruments Incorporated
aes.asm                                                              PAGE   50

    2696 0000038a 9807              LDR       A1, [SP, #28]         ; [DPU_V7M3_PIPE] |917|  ; [ORIG 16-BIT INS]
    2697 0000038c 9904              LDR       A2, [SP, #16]         ; [DPU_V7M3_PIPE] |917|  ; [ORIG 16-BIT INS]
    2698 0000038e 4288              CMP       A1, A2                ; [DPU_V7M3_PIPE] |917|  ; [ORIG 16-BIT INS]
    2699 00000390 D90E              BLS       ||$C$L20||            ; [DPU_V7M3_PIPE] |917|  ; [ORIG 16-BIT INS]
    2700                            ; BRANCHCC OCCURS {||$C$L20||}   ; [] |917| 
    2701                    ;* --------------------------------------------------------------------------*
    2702                    ;*   BEGIN LOOP ||$C$L19||
    2703                    ;*
    2704                    ;*   Loop source line                : 917
    2705                    ;*   Loop closing brace source line  : 923
    2706                    ;*   Known Minimum Trip Count        : 1
    2707                    ;*   Known Maximum Trip Count        : 4294967295
    2708                    ;*   Known Max Trip Count Factor     : 1
    2709                    ;* --------------------------------------------------------------------------*
    2710 00000392           ||$C$L19||:    
    2711                            .dwpsn  file "../driverlib/aes.c",line 922,column 9,is_stmt,isa 1
    2712                    ;----------------------------------------------------------------------
    2713                    ; 922 | AESDataWrite(ui32Base, pui32AuthSrc + (ui32Count / 4));                
    2714                    ; 925 | //                                                                     
    2715                    ; 926 | // Now loop until the data blocks are written.                         
    2716                    ; 927 | //                                                                     
    2717                    ;----------------------------------------------------------------------
    2718 00000392 9804              LDR       A1, [SP, #16]         ; [DPU_V7M3_PIPE] |922|  ; [ORIG 16-BIT INS]
    2719 00000394 9906              LDR       A2, [SP, #24]         ; [DPU_V7M3_PIPE] |922|  ; [ORIG 16-BIT INS]
    2720 00000396 0880              LSRS      A1, A1, #2            ; [DPU_V7M3_PIPE] |922|  ; [ORIG 16-BIT INS]
    2721 00000398 0180EB01          ADD       A2, A2, A1, LSL #2    ; [DPU_V7M3_PIPE] |922|  ; [KEEP 32-BIT INS]
    2722 0000039c 9800              LDR       A1, [SP, #0]          ; [DPU_V7M3_PIPE] |922|  ; [ORIG 16-BIT INS]
    2723                    $C$DW$139       .dwtag  DW_TAG_TI_branch
    2724                            .dwattr $C$DW$139, DW_AT_low_pc(0x00)
    2725                            .dwattr $C$DW$139, DW_AT_name("AESDataWrite")
    2726                            .dwattr $C$DW$139, DW_AT_TI_call
    2727                    
    2728 0000039e FFFEF7FF!         BL        AESDataWrite          ; [DPU_V7M3_PIPE] |922|  ; [KEEP 32-BIT INS]
    2729                            ; CALL OCCURS {AESDataWrite }    ; [] |922| 
    2730                            .dwpsn  file "../driverlib/aes.c",line 917,column 52,is_stmt,isa 1
    2731 000003a2 9804              LDR       A1, [SP, #16]         ; [DPU_V7M3_PIPE] |917|  ; [ORIG 16-BIT INS]
    2732 000003a4 3010              ADDS      A1, A1, #16           ; [DPU_V7M3_PIPE] |917|  ; [ORIG 16-BIT INS]
    2733 000003a6 9004              STR       A1, [SP, #16]         ; [DPU_V7M3_PIPE] |917|  ; [ORIG 16-BIT INS]
    2734                            .dwpsn  file "../driverlib/aes.c",line 917,column 24,is_stmt,isa 1
    2735 000003a8 9807              LDR       A1, [SP, #28]         ; [DPU_V7M3_PIPE] |917|  ; [ORIG 16-BIT INS]
    2736 000003aa 9904              LDR       A2, [SP, #16]         ; [DPU_V7M3_PIPE] |917|  ; [ORIG 16-BIT INS]
    2737 000003ac 4288              CMP       A1, A2                ; [DPU_V7M3_PIPE] |917|  ; [ORIG 16-BIT INS]
    2738 000003ae D8F0              BHI       ||$C$L19||            ; [DPU_V7M3_PIPE] |917|  ; [ORIG 16-BIT INS]
    2739                            ; BRANCHCC OCCURS {||$C$L19||}   ; [] |917| 
    2740                    ;* --------------------------------------------------------------------------*
    2741 000003b0           ||$C$L20||:    
    2742                            .dwpsn  file "../driverlib/aes.c",line 928,column 9,is_stmt,isa 1
    2743                    ;----------------------------------------------------------------------
    2744                    ; 928 | for(ui32Count = 0; ui32Count < ui32Length; ui32Count += 16)            
    2745                    ;----------------------------------------------------------------------
    2746 000003b0 2000              MOVS      A1, #0                ; [DPU_V7M3_PIPE] |928|  ; [ORIG 16-BIT INS]
    2747 000003b2 9004              STR       A1, [SP, #16]         ; [DPU_V7M3_PIPE] |928|  ; [ORIG 16-BIT INS]
    2748                            .dwpsn  file "../driverlib/aes.c",line 928,column 24,is_stmt,isa 1
    2749                    ;----------------------------------------------------------------------
    2750                    ; 930 | //                                                                     
TI ARM Assembler Unix v18.1.1 Fri Jul  3 20:08:23 2020

Tools Copyright (c) 1996-2017 Texas Instruments Incorporated
aes.asm                                                              PAGE   51

    2751                    ; 931 | // Write the data registers.                                           
    2752                    ; 932 | //                                                                     
    2753                    ;----------------------------------------------------------------------
    2754 000003b4 9803              LDR       A1, [SP, #12]         ; [DPU_V7M3_PIPE] |928|  ; [ORIG 16-BIT INS]
    2755 000003b6 9904              LDR       A2, [SP, #16]         ; [DPU_V7M3_PIPE] |928|  ; [ORIG 16-BIT INS]
    2756 000003b8 4288              CMP       A1, A2                ; [DPU_V7M3_PIPE] |928|  ; [ORIG 16-BIT INS]
    2757 000003ba D916              BLS       ||$C$L22||            ; [DPU_V7M3_PIPE] |928|  ; [ORIG 16-BIT INS]
    2758                            ; BRANCHCC OCCURS {||$C$L22||}   ; [] |928| 
    2759                    ;* --------------------------------------------------------------------------*
    2760                    ;*   BEGIN LOOP ||$C$L21||
    2761                    ;*
    2762                    ;*   Loop source line                : 928
    2763                    ;*   Loop closing brace source line  : 940
    2764                    ;*   Known Minimum Trip Count        : 1
    2765                    ;*   Known Maximum Trip Count        : 4294967295
    2766                    ;*   Known Max Trip Count Factor     : 1
    2767                    ;* --------------------------------------------------------------------------*
    2768 000003bc           ||$C$L21||:    
    2769                            .dwpsn  file "../driverlib/aes.c",line 933,column 9,is_stmt,isa 1
    2770                    ;----------------------------------------------------------------------
    2771                    ; 933 | AESDataWrite(ui32Base, pui32Src + (ui32Count / 4));                    
    2772                    ; 935 | //                                                                     
    2773                    ; 936 | //                                                                     
    2774                    ; 937 | // Read the data registers.                                            
    2775                    ; 938 | //                                                                     
    2776                    ;----------------------------------------------------------------------
    2777 000003bc 9804              LDR       A1, [SP, #16]         ; [DPU_V7M3_PIPE] |933|  ; [ORIG 16-BIT INS]
    2778 000003be 9901              LDR       A2, [SP, #4]          ; [DPU_V7M3_PIPE] |933|  ; [ORIG 16-BIT INS]
    2779 000003c0 0880              LSRS      A1, A1, #2            ; [DPU_V7M3_PIPE] |933|  ; [ORIG 16-BIT INS]
    2780 000003c2 0180EB01          ADD       A2, A2, A1, LSL #2    ; [DPU_V7M3_PIPE] |933|  ; [KEEP 32-BIT INS]
    2781 000003c6 9800              LDR       A1, [SP, #0]          ; [DPU_V7M3_PIPE] |933|  ; [ORIG 16-BIT INS]
    2782                    $C$DW$140       .dwtag  DW_TAG_TI_branch
    2783                            .dwattr $C$DW$140, DW_AT_low_pc(0x00)
    2784                            .dwattr $C$DW$140, DW_AT_name("AESDataWrite")
    2785                            .dwattr $C$DW$140, DW_AT_TI_call
    2786                    
    2787 000003c8 FFFEF7FF!         BL        AESDataWrite          ; [DPU_V7M3_PIPE] |933|  ; [KEEP 32-BIT INS]
    2788                            ; CALL OCCURS {AESDataWrite }    ; [] |933| 
    2789                            .dwpsn  file "../driverlib/aes.c",line 939,column 9,is_stmt,isa 1
    2790                    ;----------------------------------------------------------------------
    2791                    ; 939 | AESDataRead(ui32Base, pui32Dest + (ui32Count / 4));                    
    2792                    ; 942 | //                                                                     
    2793                    ; 943 | // Read the hash tag value.                                            
    2794                    ; 944 | //                                                                     
    2795                    ;----------------------------------------------------------------------
    2796 000003cc 9804              LDR       A1, [SP, #16]         ; [DPU_V7M3_PIPE] |939|  ; [ORIG 16-BIT INS]
    2797 000003ce 9902              LDR       A2, [SP, #8]          ; [DPU_V7M3_PIPE] |939|  ; [ORIG 16-BIT INS]
    2798 000003d0 0880              LSRS      A1, A1, #2            ; [DPU_V7M3_PIPE] |939|  ; [ORIG 16-BIT INS]
    2799 000003d2 0180EB01          ADD       A2, A2, A1, LSL #2    ; [DPU_V7M3_PIPE] |939|  ; [KEEP 32-BIT INS]
    2800 000003d6 9800              LDR       A1, [SP, #0]          ; [DPU_V7M3_PIPE] |939|  ; [ORIG 16-BIT INS]
    2801                    $C$DW$141       .dwtag  DW_TAG_TI_branch
    2802                            .dwattr $C$DW$141, DW_AT_low_pc(0x00)
    2803                            .dwattr $C$DW$141, DW_AT_name("AESDataRead")
    2804                            .dwattr $C$DW$141, DW_AT_TI_call
    2805                    
TI ARM Assembler Unix v18.1.1 Fri Jul  3 20:08:23 2020

Tools Copyright (c) 1996-2017 Texas Instruments Incorporated
aes.asm                                                              PAGE   52

    2806 000003d8 FFFEF7FF!         BL        AESDataRead           ; [DPU_V7M3_PIPE] |939|  ; [KEEP 32-BIT INS]
    2807                            ; CALL OCCURS {AESDataRead }     ; [] |939| 
    2808                            .dwpsn  file "../driverlib/aes.c",line 928,column 48,is_stmt,isa 1
    2809 000003dc 9804              LDR       A1, [SP, #16]         ; [DPU_V7M3_PIPE] |928|  ; [ORIG 16-BIT INS]
    2810 000003de 3010              ADDS      A1, A1, #16           ; [DPU_V7M3_PIPE] |928|  ; [ORIG 16-BIT INS]
    2811 000003e0 9004              STR       A1, [SP, #16]         ; [DPU_V7M3_PIPE] |928|  ; [ORIG 16-BIT INS]
    2812                            .dwpsn  file "../driverlib/aes.c",line 928,column 24,is_stmt,isa 1
    2813 000003e2 9803              LDR       A1, [SP, #12]         ; [DPU_V7M3_PIPE] |928|  ; [ORIG 16-BIT INS]
    2814 000003e4 9904              LDR       A2, [SP, #16]         ; [DPU_V7M3_PIPE] |928|  ; [ORIG 16-BIT INS]
    2815 000003e6 4288              CMP       A1, A2                ; [DPU_V7M3_PIPE] |928|  ; [ORIG 16-BIT INS]
    2816 000003e8 D8E8              BHI       ||$C$L21||            ; [DPU_V7M3_PIPE] |928|  ; [ORIG 16-BIT INS]
    2817                            ; BRANCHCC OCCURS {||$C$L21||}   ; [] |928| 
    2818                    ;* --------------------------------------------------------------------------*
    2819 000003ea           ||$C$L22||:    
    2820                            .dwpsn  file "../driverlib/aes.c",line 945,column 5,is_stmt,isa 1
    2821                    ;----------------------------------------------------------------------
    2822                    ; 945 | AESTagRead(ui32Base, pui32Tag);                                        
    2823                    ; 947 | //                                                                     
    2824                    ; 948 | // Return true to indicate successful completion of the function.      
    2825                    ; 949 | //                                                                     
    2826                    ;----------------------------------------------------------------------
    2827 000003ea 9800              LDR       A1, [SP, #0]          ; [DPU_V7M3_PIPE] |945|  ; [ORIG 16-BIT INS]
    2828 000003ec 9908              LDR       A2, [SP, #32]         ; [DPU_V7M3_PIPE] |945|  ; [ORIG 16-BIT INS]
    2829                    $C$DW$142       .dwtag  DW_TAG_TI_branch
    2830                            .dwattr $C$DW$142, DW_AT_low_pc(0x00)
    2831                            .dwattr $C$DW$142, DW_AT_name("AESTagRead")
    2832                            .dwattr $C$DW$142, DW_AT_TI_call
    2833                    
    2834 000003ee FFFEF7FF!         BL        AESTagRead            ; [DPU_V7M3_PIPE] |945|  ; [KEEP 32-BIT INS]
    2835                            ; CALL OCCURS {AESTagRead }      ; [] |945| 
    2836                            .dwpsn  file "../driverlib/aes.c",line 950,column 5,is_stmt,isa 1
    2837                    ;----------------------------------------------------------------------
    2838                    ; 950 | return(true);                                                          
    2839                    ;----------------------------------------------------------------------
    2840 000003f2 2001              MOVS      A1, #1                ; [DPU_V7M3_PIPE] |950|  ; [ORIG 16-BIT INS]
    2841                            .dwpsn  file "../driverlib/aes.c",line 951,column 1,is_stmt,isa 1
    2842 000003f4 B005              ADD       SP, SP, #20           ; [DPU_V7M3_PIPE]  ; [ORIG 16-BIT INS]
    2843                            .dwcfi  cfa_offset, 4
    2844                    $C$DW$143       .dwtag  DW_TAG_TI_branch
    2845                            .dwattr $C$DW$143, DW_AT_low_pc(0x00)
    2846                            .dwattr $C$DW$143, DW_AT_TI_return
    2847                    
    2848 000003f6 BD00              POP       {PC}                  ; [DPU_V7M3_PIPE]  ; [ORIG 16-BIT INS]
    2849                            .dwcfi  cfa_offset, 0
    2850                            ; BRANCH OCCURS                  ; [] 
    2851                            .dwattr $C$DW$124, DW_AT_TI_end_file("../driverlib/aes.c")
    2852                            .dwattr $C$DW$124, DW_AT_TI_end_line(0x3b7)
    2853                            .dwattr $C$DW$124, DW_AT_TI_end_column(0x01)
    2854                            .dwendentry
    2855                            .dwendtag $C$DW$124
    2856                    
    2857 000003f8                   .sect   ".text"
    2858                            .clink
    2859                            .thumbfunc AESIntStatus
    2860 000003f8                   .thumb
TI ARM Assembler Unix v18.1.1 Fri Jul  3 20:08:23 2020

Tools Copyright (c) 1996-2017 Texas Instruments Incorporated
aes.asm                                                              PAGE   53

    2861                            .global AESIntStatus
    2862                    
    2863                    $C$DW$144       .dwtag  DW_TAG_subprogram
    2864                            .dwattr $C$DW$144, DW_AT_name("AESIntStatus")
    2865                            .dwattr $C$DW$144, DW_AT_low_pc(AESIntStatus)
    2866                            .dwattr $C$DW$144, DW_AT_high_pc(0x00)
    2867                            .dwattr $C$DW$144, DW_AT_TI_symbol_name("AESIntStatus")
    2868                            .dwattr $C$DW$144, DW_AT_external
    2869                            .dwattr $C$DW$144, DW_AT_type(*$C$DW$T$27)
    2870                            .dwattr $C$DW$144, DW_AT_TI_begin_file("../driverlib/aes.c")
    2871                            .dwattr $C$DW$144, DW_AT_TI_begin_line(0x3d0)
    2872                            .dwattr $C$DW$144, DW_AT_TI_begin_column(0x01)
    2873                            .dwattr $C$DW$144, DW_AT_decl_file("../driverlib/aes.c")
    2874                            .dwattr $C$DW$144, DW_AT_decl_line(0x3d0)
    2875                            .dwattr $C$DW$144, DW_AT_decl_column(0x01)
    2876                            .dwattr $C$DW$144, DW_AT_TI_max_frame_size(0x20)
    2877                            .dwpsn  file "../driverlib/aes.c",line 977,column 1,is_stmt,address AESIntStatus,isa 1
    2878                    
    2879                            .dwfde $C$DW$CIE, AESIntStatus
    2880                    $C$DW$145       .dwtag  DW_TAG_formal_parameter
    2881                            .dwattr $C$DW$145, DW_AT_name("ui32Base")
    2882                            .dwattr $C$DW$145, DW_AT_TI_symbol_name("ui32Base")
    2883                            .dwattr $C$DW$145, DW_AT_type(*$C$DW$T$27)
    2884                            .dwattr $C$DW$145, DW_AT_location[DW_OP_reg0]
    2885                    
    2886                    $C$DW$146       .dwtag  DW_TAG_formal_parameter
    2887                            .dwattr $C$DW$146, DW_AT_name("bMasked")
    2888                            .dwattr $C$DW$146, DW_AT_TI_symbol_name("bMasked")
    2889                            .dwattr $C$DW$146, DW_AT_type(*$C$DW$T$118)
    2890                            .dwattr $C$DW$146, DW_AT_location[DW_OP_reg1]
    2891                    
    2892                    ;----------------------------------------------------------------------
    2893                    ; 976 | AESIntStatus(uint32_t ui32Base, bool bMasked)                          
    2894                    ;----------------------------------------------------------------------
    2895                    
    2896                    ;*****************************************************************************
    2897                    ;* FUNCTION NAME: AESIntStatus                                               *
    2898                    ;*                                                                           *
    2899                    ;*   Regs Modified     : A1,A2,A3,A4,V1,SP,SR                                *
    2900                    ;*   Regs Used         : A1,A2,A3,A4,V1,SP,LR,SR                             *
    2901                    ;*   Local Frame Size  : 0 Args + 20 Auto + 8 Save = 28 byte                 *
    2902                    ;*****************************************************************************
    2903 000003f8           AESIntStatus:
    2904                    ;* --------------------------------------------------------------------------*
    2905                            .dwcfi  cfa_offset, 0
    2906 000003f8 B510              PUSH      {V1, LR}              ; [DPU_V7M3_PIPE]  ; [ORIG 16-BIT INS]
    2907                            .dwcfi  cfa_offset, 8
    2908                            .dwcfi  save_reg_to_mem, 14, -4
    2909                            .dwcfi  save_reg_to_mem, 4, -8
    2910 000003fa 0D18F1AD          SUB       SP, SP, #24           ; [DPU_V7M3_PIPE]  ; [KEEP 32-BIT INS]
    2911                            .dwcfi  cfa_offset, 32
    2912                    $C$DW$147       .dwtag  DW_TAG_variable
    2913                            .dwattr $C$DW$147, DW_AT_name("ui32Base")
    2914                            .dwattr $C$DW$147, DW_AT_TI_symbol_name("ui32Base")
    2915                            .dwattr $C$DW$147, DW_AT_type(*$C$DW$T$27)
TI ARM Assembler Unix v18.1.1 Fri Jul  3 20:08:23 2020

Tools Copyright (c) 1996-2017 Texas Instruments Incorporated
aes.asm                                                              PAGE   54

    2916                            .dwattr $C$DW$147, DW_AT_location[DW_OP_breg13 0]
    2917                    
    2918                    $C$DW$148       .dwtag  DW_TAG_variable
    2919                            .dwattr $C$DW$148, DW_AT_name("ui32Status")
    2920                            .dwattr $C$DW$148, DW_AT_TI_symbol_name("ui32Status")
    2921                            .dwattr $C$DW$148, DW_AT_type(*$C$DW$T$27)
    2922                            .dwattr $C$DW$148, DW_AT_location[DW_OP_breg13 4]
    2923                    
    2924                    $C$DW$149       .dwtag  DW_TAG_variable
    2925                            .dwattr $C$DW$149, DW_AT_name("ui32Enable")
    2926                            .dwattr $C$DW$149, DW_AT_TI_symbol_name("ui32Enable")
    2927                            .dwattr $C$DW$149, DW_AT_type(*$C$DW$T$27)
    2928                            .dwattr $C$DW$149, DW_AT_location[DW_OP_breg13 8]
    2929                    
    2930                    $C$DW$150       .dwtag  DW_TAG_variable
    2931                            .dwattr $C$DW$150, DW_AT_name("ui32Temp")
    2932                            .dwattr $C$DW$150, DW_AT_TI_symbol_name("ui32Temp")
    2933                            .dwattr $C$DW$150, DW_AT_type(*$C$DW$T$27)
    2934                            .dwattr $C$DW$150, DW_AT_location[DW_OP_breg13 12]
    2935                    
    2936                    $C$DW$151       .dwtag  DW_TAG_variable
    2937                            .dwattr $C$DW$151, DW_AT_name("bMasked")
    2938                            .dwattr $C$DW$151, DW_AT_TI_symbol_name("bMasked")
    2939                            .dwattr $C$DW$151, DW_AT_type(*$C$DW$T$118)
    2940                            .dwattr $C$DW$151, DW_AT_location[DW_OP_breg13 16]
    2941                    
    2942                    ;----------------------------------------------------------------------
    2943                    ; 978 | uint32_t ui32Status, ui32Enable, ui32Temp;                             
    2944                    ; 980 | //                                                                     
    2945                    ; 981 | // Check the arguments.                                                
    2946                    ; 982 | //                                                                     
    2947                    ; 983 | ASSERT(ui32Base == AES_BASE);                                          
    2948                    ; 985 | //                                                                     
    2949                    ; 986 | // Read the IRQ status register and return the value.                  
    2950                    ; 987 | //                                                                     
    2951                    ;----------------------------------------------------------------------
    2952 000003fe 1010F88D          STRB      A2, [SP, #16]         ; [DPU_V7M3_PIPE] |977|  ; [KEEP 32-BIT INS]
    2953 00000402 9000              STR       A1, [SP, #0]          ; [DPU_V7M3_PIPE] |977|  ; [ORIG 16-BIT INS]
    2954                            .dwpsn  file "../driverlib/aes.c",line 988,column 5,is_stmt,isa 1
    2955                    ;----------------------------------------------------------------------
    2956                    ; 988 | ui32Status = HWREG(ui32Base + AES_O_IRQSTATUS);                        
    2957                    ;----------------------------------------------------------------------
    2958 00000404 9800              LDR       A1, [SP, #0]          ; [DPU_V7M3_PIPE] |988|  ; [ORIG 16-BIT INS]
    2959 00000406 008CF8D0          LDR       A1, [A1, #140]        ; [DPU_V7M3_PIPE] |988|  ; [KEEP 32-BIT INS]
    2960 0000040a 9001              STR       A1, [SP, #4]          ; [DPU_V7M3_PIPE] |988|  ; [ORIG 16-BIT INS]
    2961                            .dwpsn  file "../driverlib/aes.c",line 989,column 5,is_stmt,isa 1
    2962                    ;----------------------------------------------------------------------
    2963                    ; 989 | if(bMasked)                                                            
    2964                    ;----------------------------------------------------------------------
    2965 0000040c 0010F89D          LDRB      A1, [SP, #16]         ; [DPU_V7M3_PIPE] |989|  ; [KEEP 32-BIT INS]
    2966 00000410 B1D0              CBZ       A1, ||$C$L23||        ; []  ; [ORIG 16-BIT INS]
    2967                            ; BRANCHCC OCCURS {||$C$L23||}   ; [] |989| 
    2968                    ;* --------------------------------------------------------------------------*
    2969                            .dwpsn  file "../driverlib/aes.c",line 991,column 9,is_stmt,isa 1
    2970                    ;----------------------------------------------------------------------
TI ARM Assembler Unix v18.1.1 Fri Jul  3 20:08:23 2020

Tools Copyright (c) 1996-2017 Texas Instruments Incorporated
aes.asm                                                              PAGE   55

    2971                    ; 991 | ui32Enable = HWREG(ui32Base + AES_O_IRQENABLE);                        
    2972                    ;----------------------------------------------------------------------
    2973 00000412 9800              LDR       A1, [SP, #0]          ; [DPU_V7M3_PIPE] |991|  ; [ORIG 16-BIT INS]
    2974 00000414 0090F8D0          LDR       A1, [A1, #144]        ; [DPU_V7M3_PIPE] |991|  ; [KEEP 32-BIT INS]
    2975 00000418 9002              STR       A1, [SP, #8]          ; [DPU_V7M3_PIPE] |991|  ; [ORIG 16-BIT INS]
    2976                            .dwpsn  file "../driverlib/aes.c",line 992,column 9,is_stmt,isa 1
    2977                    ;----------------------------------------------------------------------
    2978                    ; 992 | ui32Temp = HWREG(ui32Base + AES_O_DMAMIS);                             
    2979                    ;----------------------------------------------------------------------
    2980 0000041a 4958              LDR       A2, $C$CON2           ; [DPU_V7M3_PIPE] |992|  ; [ORIG 16-BIT INS]
    2981 0000041c 9800              LDR       A1, [SP, #0]          ; [DPU_V7M3_PIPE] |992|  ; [ORIG 16-BIT INS]
    2982 0000041e 5808              LDR       A1, [A2, +A1]         ; [DPU_V7M3_PIPE] |992|  ; [ORIG 16-BIT INS]
    2983 00000420 9003              STR       A1, [SP, #12]         ; [DPU_V7M3_PIPE] |992|  ; [ORIG 16-BIT INS]
    2984                            .dwpsn  file "../driverlib/aes.c",line 993,column 9,is_stmt,isa 1
    2985                    ;----------------------------------------------------------------------
    2986                    ; 993 | return((ui32Status & ui32Enable) |                                     
    2987                    ; 994 |        (((ui32Temp & 0x00000001) << 16) |                              
    2988                    ; 995 |         ((ui32Temp & 0x00000002) << 18) |                              
    2989                    ; 996 |         ((ui32Temp & 0x0000000c) << 15)));                             
    2990                    ; 998 | else                                                                   
    2991                    ;----------------------------------------------------------------------
    2992 00000422 9B03              LDR       A4, [SP, #12]         ; [DPU_V7M3_PIPE] |993|  ; [ORIG 16-BIT INS]
    2993 00000424 9C01              LDR       V1, [SP, #4]          ; [DPU_V7M3_PIPE] |993|  ; [ORIG 16-BIT INS]
    2994 00000426 9A03              LDR       A3, [SP, #12]         ; [DPU_V7M3_PIPE] |993|  ; [ORIG 16-BIT INS]
    2995 00000428 9903              LDR       A2, [SP, #12]         ; [DPU_V7M3_PIPE] |993|  ; [ORIG 16-BIT INS]
    2996 0000042a 9802              LDR       A1, [SP, #8]          ; [DPU_V7M3_PIPE] |993|  ; [ORIG 16-BIT INS]
    2997 0000042c 0301F003          AND       A4, A4, #1            ; [DPU_V7M3_PIPE] |993|  ; [KEEP 32-BIT INS]
    2998 00000430 0202F002          AND       A3, A3, #2            ; [DPU_V7M3_PIPE] |993|  ; [KEEP 32-BIT INS]
    2999 00000434 010CF001          AND       A2, A2, #12           ; [DPU_V7M3_PIPE] |993|  ; [KEEP 32-BIT INS]
    3000 00000438 4020              ANDS      A1, A1, V1            ; [DPU_V7M3_PIPE] |993|  ; [ORIG 16-BIT INS]
    3001 0000043a 4003EA40          ORR       A1, A1, A4, LSL #16   ; [DPU_V7M3_PIPE] |993|  ; [KEEP 32-BIT INS]
    3002 0000043e 4082EA40          ORR       A1, A1, A3, LSL #18   ; [DPU_V7M3_PIPE] |993|  ; [KEEP 32-BIT INS]
    3003 00000442 30C1EA40          ORR       A1, A1, A2, LSL #15   ; [DPU_V7M3_PIPE] |993|  ; [KEEP 32-BIT INS]
    3004 00000446 E013              B         ||$C$L24||            ; [DPU_V7M3_PIPE] |993|  ; [ORIG 16-BIT INS]
    3005                            ; BRANCH OCCURS {||$C$L24||}     ; [] |993| 
    3006                    ;* --------------------------------------------------------------------------*
    3007                    ;* --------------------------------------------------------------------------*
    3008 00000448           ||$C$L23||:    
    3009                            .dwpsn  file "../driverlib/aes.c",line 1000,column 9,is_stmt,isa 1
    3010                    ;----------------------------------------------------------------------
    3011                    ; 1000 | ui32Temp = HWREG(ui32Base + AES_O_DMARIS);                             
    3012                    ;----------------------------------------------------------------------
    3013 00000448 9800              LDR       A1, [SP, #0]          ; [DPU_V7M3_PIPE] |1000|  ; [ORIG 16-BIT INS]
    3014 0000044a 494D              LDR       A2, $C$CON3           ; [DPU_V7M3_PIPE] |1000|  ; [ORIG 16-BIT INS]
    3015 0000044c 5808              LDR       A1, [A2, +A1]         ; [DPU_V7M3_PIPE] |1000|  ; [ORIG 16-BIT INS]
    3016 0000044e 9003              STR       A1, [SP, #12]         ; [DPU_V7M3_PIPE] |1000|  ; [ORIG 16-BIT INS]
    3017                            .dwpsn  file "../driverlib/aes.c",line 1001,column 9,is_stmt,isa 1
    3018                    ;----------------------------------------------------------------------
    3019                    ; 1001 | return(ui32Status |                                                    
    3020                    ; 1002 |        (((ui32Temp & 0x00000001) << 16) |                              
    3021                    ; 1003 |         ((ui32Temp & 0x00000002) << 18) |                              
    3022                    ; 1004 |         ((ui32Temp & 0x0000000c) << 15)));                             
    3023                    ;----------------------------------------------------------------------
    3024 00000450 9B03              LDR       A4, [SP, #12]         ; [DPU_V7M3_PIPE] |1001|  ; [ORIG 16-BIT INS]
    3025 00000452 9A03              LDR       A3, [SP, #12]         ; [DPU_V7M3_PIPE] |1001|  ; [ORIG 16-BIT INS]
TI ARM Assembler Unix v18.1.1 Fri Jul  3 20:08:23 2020

Tools Copyright (c) 1996-2017 Texas Instruments Incorporated
aes.asm                                                              PAGE   56

    3026 00000454 9801              LDR       A1, [SP, #4]          ; [DPU_V7M3_PIPE] |1001|  ; [ORIG 16-BIT INS]
    3027 00000456 9903              LDR       A2, [SP, #12]         ; [DPU_V7M3_PIPE] |1001|  ; [ORIG 16-BIT INS]
    3028 00000458 0301F003          AND       A4, A4, #1            ; [DPU_V7M3_PIPE] |1001|  ; [KEEP 32-BIT INS]
    3029 0000045c 0202F002          AND       A3, A3, #2            ; [DPU_V7M3_PIPE] |1001|  ; [KEEP 32-BIT INS]
    3030 00000460 010CF001          AND       A2, A2, #12           ; [DPU_V7M3_PIPE] |1001|  ; [KEEP 32-BIT INS]
    3031 00000464 4003EA40          ORR       A1, A1, A4, LSL #16   ; [DPU_V7M3_PIPE] |1001|  ; [KEEP 32-BIT INS]
    3032 00000468 4082EA40          ORR       A1, A1, A3, LSL #18   ; [DPU_V7M3_PIPE] |1001|  ; [KEEP 32-BIT INS]
    3033 0000046c 30C1EA40          ORR       A1, A1, A2, LSL #15   ; [DPU_V7M3_PIPE] |1001|  ; [KEEP 32-BIT INS]
    3034                    ;* --------------------------------------------------------------------------*
    3035 00000470           ||$C$L24||:    
    3036                            .dwpsn  file "../driverlib/aes.c",line 1006,column 1,is_stmt,isa 1
    3037 00000470 B006              ADD       SP, SP, #24           ; [DPU_V7M3_PIPE]  ; [ORIG 16-BIT INS]
    3038                            .dwcfi  cfa_offset, 8
    3039                    $C$DW$152       .dwtag  DW_TAG_TI_branch
    3040                            .dwattr $C$DW$152, DW_AT_low_pc(0x00)
    3041                            .dwattr $C$DW$152, DW_AT_TI_return
    3042                    
    3043 00000472 BD10              POP       {V1, PC}              ; [DPU_V7M3_PIPE]  ; [ORIG 16-BIT INS]
    3044                            .dwcfi  cfa_offset, 0
    3045                            .dwcfi  restore_reg, 4
    3046                            ; BRANCH OCCURS                  ; [] 
    3047                            .dwattr $C$DW$144, DW_AT_TI_end_file("../driverlib/aes.c")
    3048                            .dwattr $C$DW$144, DW_AT_TI_end_line(0x3ee)
    3049                            .dwattr $C$DW$144, DW_AT_TI_end_column(0x01)
    3050                            .dwendentry
    3051                            .dwendtag $C$DW$144
    3052                    
    3053 00000474                   .sect   ".text"
    3054                            .clink
    3055                            .thumbfunc AESIntEnable
    3056 00000474                   .thumb
    3057                            .global AESIntEnable
    3058                    
    3059                    $C$DW$153       .dwtag  DW_TAG_subprogram
    3060                            .dwattr $C$DW$153, DW_AT_name("AESIntEnable")
    3061                            .dwattr $C$DW$153, DW_AT_low_pc(AESIntEnable)
    3062                            .dwattr $C$DW$153, DW_AT_high_pc(0x00)
    3063                            .dwattr $C$DW$153, DW_AT_TI_symbol_name("AESIntEnable")
    3064                            .dwattr $C$DW$153, DW_AT_external
    3065                            .dwattr $C$DW$153, DW_AT_TI_begin_file("../driverlib/aes.c")
    3066                            .dwattr $C$DW$153, DW_AT_TI_begin_line(0x40b)
    3067                            .dwattr $C$DW$153, DW_AT_TI_begin_column(0x01)
    3068                            .dwattr $C$DW$153, DW_AT_decl_file("../driverlib/aes.c")
    3069                            .dwattr $C$DW$153, DW_AT_decl_line(0x40b)
    3070                            .dwattr $C$DW$153, DW_AT_decl_column(0x01)
    3071                            .dwattr $C$DW$153, DW_AT_TI_max_frame_size(0x10)
    3072                            .dwpsn  file "../driverlib/aes.c",line 1036,column 1,is_stmt,address AESIntEnable,isa 1
    3073                    
    3074                            .dwfde $C$DW$CIE, AESIntEnable
    3075                    $C$DW$154       .dwtag  DW_TAG_formal_parameter
    3076                            .dwattr $C$DW$154, DW_AT_name("ui32Base")
    3077                            .dwattr $C$DW$154, DW_AT_TI_symbol_name("ui32Base")
    3078                            .dwattr $C$DW$154, DW_AT_type(*$C$DW$T$27)
    3079                            .dwattr $C$DW$154, DW_AT_location[DW_OP_reg0]
    3080                    
TI ARM Assembler Unix v18.1.1 Fri Jul  3 20:08:23 2020

Tools Copyright (c) 1996-2017 Texas Instruments Incorporated
aes.asm                                                              PAGE   57

    3081                    $C$DW$155       .dwtag  DW_TAG_formal_parameter
    3082                            .dwattr $C$DW$155, DW_AT_name("ui32IntFlags")
    3083                            .dwattr $C$DW$155, DW_AT_TI_symbol_name("ui32IntFlags")
    3084                            .dwattr $C$DW$155, DW_AT_type(*$C$DW$T$27)
    3085                            .dwattr $C$DW$155, DW_AT_location[DW_OP_reg1]
    3086                    
    3087                    ;----------------------------------------------------------------------
    3088                    ; 1035 | AESIntEnable(uint32_t ui32Base, uint32_t ui32IntFlags)                 
    3089                    ;----------------------------------------------------------------------
    3090                    
    3091                    ;*****************************************************************************
    3092                    ;* FUNCTION NAME: AESIntEnable                                               *
    3093                    ;*                                                                           *
    3094                    ;*   Regs Modified     : A1,A2,A3,A4,V1,SP,SR                                *
    3095                    ;*   Regs Used         : A1,A2,A3,A4,V1,SP,LR,SR                             *
    3096                    ;*   Local Frame Size  : 0 Args + 8 Auto + 8 Save = 16 byte                  *
    3097                    ;*****************************************************************************
    3098 00000474           AESIntEnable:
    3099                    ;* --------------------------------------------------------------------------*
    3100                            .dwcfi  cfa_offset, 0
    3101 00000474 B51C              PUSH      {A3, A4, V1, LR}      ; [DPU_V7M3_PIPE]  ; [ORIG 16-BIT INS]
    3102                            .dwcfi  cfa_offset, 16
    3103                            .dwcfi  save_reg_to_mem, 14, -4
    3104                            .dwcfi  save_reg_to_mem, 4, -8
    3105                            .dwcfi  save_reg_to_mem, 3, -12
    3106                            .dwcfi  save_reg_to_mem, 2, -16
    3107                    $C$DW$156       .dwtag  DW_TAG_variable
    3108                            .dwattr $C$DW$156, DW_AT_name("ui32Base")
    3109                            .dwattr $C$DW$156, DW_AT_TI_symbol_name("ui32Base")
    3110                            .dwattr $C$DW$156, DW_AT_type(*$C$DW$T$27)
    3111                            .dwattr $C$DW$156, DW_AT_location[DW_OP_breg13 0]
    3112                    
    3113                    $C$DW$157       .dwtag  DW_TAG_variable
    3114                            .dwattr $C$DW$157, DW_AT_name("ui32IntFlags")
    3115                            .dwattr $C$DW$157, DW_AT_TI_symbol_name("ui32IntFlags")
    3116                            .dwattr $C$DW$157, DW_AT_type(*$C$DW$T$27)
    3117                            .dwattr $C$DW$157, DW_AT_location[DW_OP_breg13 4]
    3118                    
    3119                    ;----------------------------------------------------------------------
    3120                    ; 1037 | //                                                                     
    3121                    ; 1038 | // Check the arguments.                                                
    3122                    ; 1039 | //                                                                     
    3123                    ; 1040 | ASSERT(ui32Base == AES_BASE);                                          
    3124                    ; 1041 | ASSERT((ui32IntFlags == AES_INT_CONTEXT_IN) ||                         
    3125                    ; 1042 |        (ui32IntFlags == AES_INT_CONTEXT_OUT) ||                        
    3126                    ; 1043 |        (ui32IntFlags == AES_INT_DATA_IN) ||                            
    3127                    ; 1044 |        (ui32IntFlags == AES_INT_DATA_OUT) ||                           
    3128                    ; 1045 |        (ui32IntFlags == AES_INT_DMA_CONTEXT_IN) ||                     
    3129                    ; 1046 |        (ui32IntFlags == AES_INT_DMA_CONTEXT_OUT) ||                    
    3130                    ; 1047 |        (ui32IntFlags == AES_INT_DMA_DATA_IN) ||                        
    3131                    ; 1048 |        (ui32IntFlags == AES_INT_DMA_DATA_OUT));                        
    3132                    ; 1050 | //                                                                     
    3133                    ; 1051 | // Set the flags.                                                      
    3134                    ; 1052 | //                                                                     
    3135                    ;----------------------------------------------------------------------
TI ARM Assembler Unix v18.1.1 Fri Jul  3 20:08:23 2020

Tools Copyright (c) 1996-2017 Texas Instruments Incorporated
aes.asm                                                              PAGE   58

    3136 00000476 9101              STR       A2, [SP, #4]          ; [DPU_V7M3_PIPE] |1036|  ; [ORIG 16-BIT INS]
    3137 00000478 9000              STR       A1, [SP, #0]          ; [DPU_V7M3_PIPE] |1036|  ; [ORIG 16-BIT INS]
    3138                            .dwpsn  file "../driverlib/aes.c",line 1053,column 5,is_stmt,isa 1
    3139                    ;----------------------------------------------------------------------
    3140                    ; 1053 | HWREG(ui32Base + AES_O_DMAIM) |= (((ui32IntFlags & 0x00010000) >> 16) |
    3141                    ; 1054 |                                   ((ui32IntFlags & 0x00060000) >> 15) |
    3142                    ; 1055 |                                   ((ui32IntFlags & 0x00080000) >> 18));
    3143                    ;----------------------------------------------------------------------
    3144 0000047a 4942              LDR       A2, $C$CON4           ; [DPU_V7M3_PIPE] |1053|  ; [ORIG 16-BIT INS]
    3145 0000047c 9800              LDR       A1, [SP, #0]          ; [DPU_V7M3_PIPE] |1053|  ; [ORIG 16-BIT INS]
    3146 0000047e 9C01              LDR       V1, [SP, #4]          ; [DPU_V7M3_PIPE] |1053|  ; [ORIG 16-BIT INS]
    3147 00000480 9B01              LDR       A4, [SP, #4]          ; [DPU_V7M3_PIPE] |1053|  ; [ORIG 16-BIT INS]
    3148 00000482 9A01              LDR       A3, [SP, #4]          ; [DPU_V7M3_PIPE] |1053|  ; [ORIG 16-BIT INS]
    3149 00000484 1840              ADDS      A1, A1, A2            ; [DPU_V7M3_PIPE] |1053|  ; [ORIG 16-BIT INS]
    3150 00000486 6801              LDR       A2, [A1, #0]          ; [DPU_V7M3_PIPE] |1053|  ; [ORIG 16-BIT INS]
    3151 00000488 3480F404          AND       V1, V1, #65536        ; [DPU_V7M3_PIPE] |1053|  ; [KEEP 32-BIT INS]
    3152 0000048c 23C0F403          AND       A4, A4, #393216       ; [DPU_V7M3_PIPE] |1053|  ; [KEEP 32-BIT INS]
    3153 00000490 2200F402          AND       A3, A3, #524288       ; [DPU_V7M3_PIPE] |1053|  ; [KEEP 32-BIT INS]
    3154 00000494 4114EA41          ORR       A2, A2, V1, LSR #16   ; [DPU_V7M3_PIPE] |1053|  ; [KEEP 32-BIT INS]
    3155 00000498 31D3EA41          ORR       A2, A2, A4, LSR #15   ; [DPU_V7M3_PIPE] |1053|  ; [KEEP 32-BIT INS]
    3156 0000049c 4192EA41          ORR       A2, A2, A3, LSR #18   ; [DPU_V7M3_PIPE] |1053|  ; [KEEP 32-BIT INS]
    3157 000004a0 6001              STR       A2, [A1, #0]          ; [DPU_V7M3_PIPE] |1053|  ; [ORIG 16-BIT INS]
    3158                            .dwpsn  file "../driverlib/aes.c",line 1056,column 5,is_stmt,isa 1
    3159                    ;----------------------------------------------------------------------
    3160                    ; 1056 | HWREG(ui32Base + AES_O_IRQENABLE) |= ui32IntFlags & 0x0000ffff;        
    3161                    ;----------------------------------------------------------------------
    3162 000004a2 9900              LDR       A2, [SP, #0]          ; [DPU_V7M3_PIPE] |1056|  ; [ORIG 16-BIT INS]
    3163 000004a4 9801              LDR       A1, [SP, #4]          ; [DPU_V7M3_PIPE] |1056|  ; [ORIG 16-BIT INS]
    3164 000004a6 3190              ADDS      A2, A2, #144          ; [DPU_V7M3_PIPE] |1056|  ; [ORIG 16-BIT INS]
    3165 000004a8 680A              LDR       A3, [A2, #0]          ; [DPU_V7M3_PIPE] |1056|  ; [ORIG 16-BIT INS]
    3166 000004aa 401FF36F          BFC       A1, #16, #16          ; [DPU_V7M3_PIPE] |1056|  ; [KEEP 32-BIT INS]
    3167 000004ae 4310              ORRS      A1, A1, A3            ; [DPU_V7M3_PIPE] |1056|  ; [ORIG 16-BIT INS]
    3168 000004b0 6008              STR       A1, [A2, #0]          ; [DPU_V7M3_PIPE] |1056|  ; [ORIG 16-BIT INS]
    3169                            .dwpsn  file "../driverlib/aes.c",line 1057,column 1,is_stmt,isa 1
    3170                    $C$DW$158       .dwtag  DW_TAG_TI_branch
    3171                            .dwattr $C$DW$158, DW_AT_low_pc(0x00)
    3172                            .dwattr $C$DW$158, DW_AT_TI_return
    3173                    
    3174 000004b2 BD1C              POP       {A3, A4, V1, PC}      ; [DPU_V7M3_PIPE]  ; [ORIG 16-BIT INS]
    3175                            .dwcfi  cfa_offset, 0
    3176                            .dwcfi  restore_reg, 4
    3177                            .dwcfi  restore_reg, 3
    3178                            .dwcfi  restore_reg, 2
    3179                            ; BRANCH OCCURS                  ; [] 
    3180                            .dwattr $C$DW$153, DW_AT_TI_end_file("../driverlib/aes.c")
    3181                            .dwattr $C$DW$153, DW_AT_TI_end_line(0x421)
    3182                            .dwattr $C$DW$153, DW_AT_TI_end_column(0x01)
    3183                            .dwendentry
    3184                            .dwendtag $C$DW$153
    3185                    
    3186 000004b4                   .sect   ".text"
    3187                            .clink
    3188                            .thumbfunc AESIntDisable
    3189 000004b4                   .thumb
    3190                            .global AESIntDisable
TI ARM Assembler Unix v18.1.1 Fri Jul  3 20:08:23 2020

Tools Copyright (c) 1996-2017 Texas Instruments Incorporated
aes.asm                                                              PAGE   59

    3191                    
    3192                    $C$DW$159       .dwtag  DW_TAG_subprogram
    3193                            .dwattr $C$DW$159, DW_AT_name("AESIntDisable")
    3194                            .dwattr $C$DW$159, DW_AT_low_pc(AESIntDisable)
    3195                            .dwattr $C$DW$159, DW_AT_high_pc(0x00)
    3196                            .dwattr $C$DW$159, DW_AT_TI_symbol_name("AESIntDisable")
    3197                            .dwattr $C$DW$159, DW_AT_external
    3198                            .dwattr $C$DW$159, DW_AT_TI_begin_file("../driverlib/aes.c")
    3199                            .dwattr $C$DW$159, DW_AT_TI_begin_line(0x43e)
    3200                            .dwattr $C$DW$159, DW_AT_TI_begin_column(0x01)
    3201                            .dwattr $C$DW$159, DW_AT_decl_file("../driverlib/aes.c")
    3202                            .dwattr $C$DW$159, DW_AT_decl_line(0x43e)
    3203                            .dwattr $C$DW$159, DW_AT_decl_column(0x01)
    3204                            .dwattr $C$DW$159, DW_AT_TI_max_frame_size(0x10)
    3205                            .dwpsn  file "../driverlib/aes.c",line 1087,column 1,is_stmt,address AESIntDisable,isa 1
    3206                    
    3207                            .dwfde $C$DW$CIE, AESIntDisable
    3208                    $C$DW$160       .dwtag  DW_TAG_formal_parameter
    3209                            .dwattr $C$DW$160, DW_AT_name("ui32Base")
    3210                            .dwattr $C$DW$160, DW_AT_TI_symbol_name("ui32Base")
    3211                            .dwattr $C$DW$160, DW_AT_type(*$C$DW$T$27)
    3212                            .dwattr $C$DW$160, DW_AT_location[DW_OP_reg0]
    3213                    
    3214                    $C$DW$161       .dwtag  DW_TAG_formal_parameter
    3215                            .dwattr $C$DW$161, DW_AT_name("ui32IntFlags")
    3216                            .dwattr $C$DW$161, DW_AT_TI_symbol_name("ui32IntFlags")
    3217                            .dwattr $C$DW$161, DW_AT_type(*$C$DW$T$27)
    3218                            .dwattr $C$DW$161, DW_AT_location[DW_OP_reg1]
    3219                    
    3220                    ;----------------------------------------------------------------------
    3221                    ; 1086 | AESIntDisable(uint32_t ui32Base, uint32_t ui32IntFlags)                
    3222                    ;----------------------------------------------------------------------
    3223                    
    3224                    ;*****************************************************************************
    3225                    ;* FUNCTION NAME: AESIntDisable                                              *
    3226                    ;*                                                                           *
    3227                    ;*   Regs Modified     : A1,A2,A3,A4,V1,SP,SR                                *
    3228                    ;*   Regs Used         : A1,A2,A3,A4,V1,SP,LR,SR                             *
    3229                    ;*   Local Frame Size  : 0 Args + 8 Auto + 8 Save = 16 byte                  *
    3230                    ;*****************************************************************************
    3231 000004b4           AESIntDisable:
    3232                    ;* --------------------------------------------------------------------------*
    3233                            .dwcfi  cfa_offset, 0
    3234 000004b4 B51C              PUSH      {A3, A4, V1, LR}      ; [DPU_V7M3_PIPE]  ; [ORIG 16-BIT INS]
    3235                            .dwcfi  cfa_offset, 16
    3236                            .dwcfi  save_reg_to_mem, 14, -4
    3237                            .dwcfi  save_reg_to_mem, 4, -8
    3238                            .dwcfi  save_reg_to_mem, 3, -12
    3239                            .dwcfi  save_reg_to_mem, 2, -16
    3240                    $C$DW$162       .dwtag  DW_TAG_variable
    3241                            .dwattr $C$DW$162, DW_AT_name("ui32Base")
    3242                            .dwattr $C$DW$162, DW_AT_TI_symbol_name("ui32Base")
    3243                            .dwattr $C$DW$162, DW_AT_type(*$C$DW$T$27)
    3244                            .dwattr $C$DW$162, DW_AT_location[DW_OP_breg13 0]
    3245                    
TI ARM Assembler Unix v18.1.1 Fri Jul  3 20:08:23 2020

Tools Copyright (c) 1996-2017 Texas Instruments Incorporated
aes.asm                                                              PAGE   60

    3246                    $C$DW$163       .dwtag  DW_TAG_variable
    3247                            .dwattr $C$DW$163, DW_AT_name("ui32IntFlags")
    3248                            .dwattr $C$DW$163, DW_AT_TI_symbol_name("ui32IntFlags")
    3249                            .dwattr $C$DW$163, DW_AT_type(*$C$DW$T$27)
    3250                            .dwattr $C$DW$163, DW_AT_location[DW_OP_breg13 4]
    3251                    
    3252                    ;----------------------------------------------------------------------
    3253                    ; 1088 | //                                                                     
    3254                    ; 1089 | // Check the arguments.                                                
    3255                    ; 1090 | //                                                                     
    3256                    ; 1091 | ASSERT(ui32Base == AES_BASE);                                          
    3257                    ; 1092 | ASSERT((ui32IntFlags == AES_INT_CONTEXT_IN) ||                         
    3258                    ; 1093 |        (ui32IntFlags == AES_INT_CONTEXT_OUT) ||                        
    3259                    ; 1094 |        (ui32IntFlags == AES_INT_DATA_IN) ||                            
    3260                    ; 1095 |        (ui32IntFlags == AES_INT_DATA_OUT) ||                           
    3261                    ; 1096 |        (ui32IntFlags == AES_INT_DMA_CONTEXT_IN) ||                     
    3262                    ; 1097 |        (ui32IntFlags == AES_INT_DMA_CONTEXT_OUT) ||                    
    3263                    ; 1098 |        (ui32IntFlags == AES_INT_DMA_DATA_IN) ||                        
    3264                    ; 1099 |        (ui32IntFlags == AES_INT_DMA_DATA_OUT));                        
    3265                    ; 1101 | //                                                                     
    3266                    ; 1102 | // Clear the flags.                                                    
    3267                    ; 1103 | //                                                                     
    3268                    ;----------------------------------------------------------------------
    3269 000004b6 9101              STR       A2, [SP, #4]          ; [DPU_V7M3_PIPE] |1087|  ; [ORIG 16-BIT INS]
    3270 000004b8 9000              STR       A1, [SP, #0]          ; [DPU_V7M3_PIPE] |1087|  ; [ORIG 16-BIT INS]
    3271                            .dwpsn  file "../driverlib/aes.c",line 1104,column 5,is_stmt,isa 1
    3272                    ;----------------------------------------------------------------------
    3273                    ; 1104 | HWREG(ui32Base + AES_O_DMAIM) &= ~(((ui32IntFlags & 0x00010000) >> 16)
    3274                    ;     | |                                                                      
    3275                    ; 1105 |                                    ((ui32IntFlags & 0x00060000) >> 15)
    3276                    ;     | |                                                                      
    3277                    ; 1106 |                                    ((ui32IntFlags & 0x00080000) >> 18))
    3278                    ;     | ;                                                                      
    3279                    ;----------------------------------------------------------------------
    3280 000004ba 4932              LDR       A2, $C$CON4           ; [DPU_V7M3_PIPE] |1104|  ; [ORIG 16-BIT INS]
    3281 000004bc 9800              LDR       A1, [SP, #0]          ; [DPU_V7M3_PIPE] |1104|  ; [ORIG 16-BIT INS]
    3282 000004be 9C01              LDR       V1, [SP, #4]          ; [DPU_V7M3_PIPE] |1104|  ; [ORIG 16-BIT INS]
    3283 000004c0 9B01              LDR       A4, [SP, #4]          ; [DPU_V7M3_PIPE] |1104|  ; [ORIG 16-BIT INS]
    3284 000004c2 1840              ADDS      A1, A1, A2            ; [DPU_V7M3_PIPE] |1104|  ; [ORIG 16-BIT INS]
    3285 000004c4 9901              LDR       A2, [SP, #4]          ; [DPU_V7M3_PIPE] |1104|  ; [ORIG 16-BIT INS]
    3286 000004c6 6802              LDR       A3, [A1, #0]          ; [DPU_V7M3_PIPE] |1104|  ; [ORIG 16-BIT INS]
    3287 000004c8 24C0F404          AND       V1, V1, #393216       ; [DPU_V7M3_PIPE] |1104|  ; [KEEP 32-BIT INS]
    3288 000004cc 2300F403          AND       A4, A4, #524288       ; [DPU_V7M3_PIPE] |1104|  ; [KEEP 32-BIT INS]
    3289 000004d0 3180F401          AND       A2, A2, #65536        ; [DPU_V7M3_PIPE] |1104|  ; [KEEP 32-BIT INS]
    3290 000004d4 0C09              LSRS      A2, A2, #16           ; [DPU_V7M3_PIPE] |1104|  ; [ORIG 16-BIT INS]
    3291 000004d6 31D4EA41          ORR       A2, A2, V1, LSR #15   ; [DPU_V7M3_PIPE] |1104|  ; [KEEP 32-BIT INS]
    3292 000004da 4193EA41          ORR       A2, A2, A4, LSR #18   ; [DPU_V7M3_PIPE] |1104|  ; [KEEP 32-BIT INS]
    3293 000004de 438A              BICS      A3, A3, A2            ; [DPU_V7M3_PIPE] |1104|  ; [ORIG 16-BIT INS]
    3294 000004e0 6002              STR       A3, [A1, #0]          ; [DPU_V7M3_PIPE] |1104|  ; [ORIG 16-BIT INS]
    3295                            .dwpsn  file "../driverlib/aes.c",line 1107,column 5,is_stmt,isa 1
    3296                    ;----------------------------------------------------------------------
    3297                    ; 1107 | HWREG(ui32Base + AES_O_IRQENABLE) &= ~(ui32IntFlags & 0x0000ffff);     
    3298                    ;----------------------------------------------------------------------
    3299 000004e2 9800              LDR       A1, [SP, #0]          ; [DPU_V7M3_PIPE] |1107|  ; [ORIG 16-BIT INS]
    3300 000004e4 9A01              LDR       A3, [SP, #4]          ; [DPU_V7M3_PIPE] |1107|  ; [ORIG 16-BIT INS]
TI ARM Assembler Unix v18.1.1 Fri Jul  3 20:08:23 2020

Tools Copyright (c) 1996-2017 Texas Instruments Incorporated
aes.asm                                                              PAGE   61

    3301 000004e6 3090              ADDS      A1, A1, #144          ; [DPU_V7M3_PIPE] |1107|  ; [ORIG 16-BIT INS]
    3302 000004e8 6801              LDR       A2, [A1, #0]          ; [DPU_V7M3_PIPE] |1107|  ; [ORIG 16-BIT INS]
    3303 000004ea 421FF36F          BFC       A3, #16, #16          ; [DPU_V7M3_PIPE] |1107|  ; [KEEP 32-BIT INS]
    3304 000004ee 4391              BICS      A2, A2, A3            ; [DPU_V7M3_PIPE] |1107|  ; [ORIG 16-BIT INS]
    3305 000004f0 6001              STR       A2, [A1, #0]          ; [DPU_V7M3_PIPE] |1107|  ; [ORIG 16-BIT INS]
    3306                            .dwpsn  file "../driverlib/aes.c",line 1108,column 1,is_stmt,isa 1
    3307                    $C$DW$164       .dwtag  DW_TAG_TI_branch
    3308                            .dwattr $C$DW$164, DW_AT_low_pc(0x00)
    3309                            .dwattr $C$DW$164, DW_AT_TI_return
    3310                    
    3311 000004f2 BD1C              POP       {A3, A4, V1, PC}      ; [DPU_V7M3_PIPE]  ; [ORIG 16-BIT INS]
    3312                            .dwcfi  cfa_offset, 0
    3313                            .dwcfi  restore_reg, 4
    3314                            .dwcfi  restore_reg, 3
    3315                            .dwcfi  restore_reg, 2
    3316                            ; BRANCH OCCURS                  ; [] 
    3317                            .dwattr $C$DW$159, DW_AT_TI_end_file("../driverlib/aes.c")
    3318                            .dwattr $C$DW$159, DW_AT_TI_end_line(0x454)
    3319                            .dwattr $C$DW$159, DW_AT_TI_end_column(0x01)
    3320                            .dwendentry
    3321                            .dwendtag $C$DW$159
    3322                    
    3323 000004f4                   .sect   ".text"
    3324                            .clink
    3325                            .thumbfunc AESIntClear
    3326 000004f4                   .thumb
    3327                            .global AESIntClear
    3328                    
    3329                    $C$DW$165       .dwtag  DW_TAG_subprogram
    3330                            .dwattr $C$DW$165, DW_AT_name("AESIntClear")
    3331                            .dwattr $C$DW$165, DW_AT_low_pc(AESIntClear)
    3332                            .dwattr $C$DW$165, DW_AT_high_pc(0x00)
    3333                            .dwattr $C$DW$165, DW_AT_TI_symbol_name("AESIntClear")
    3334                            .dwattr $C$DW$165, DW_AT_external
    3335                            .dwattr $C$DW$165, DW_AT_TI_begin_file("../driverlib/aes.c")
    3336                            .dwattr $C$DW$165, DW_AT_TI_begin_line(0x46d)
    3337                            .dwattr $C$DW$165, DW_AT_TI_begin_column(0x01)
    3338                            .dwattr $C$DW$165, DW_AT_decl_file("../driverlib/aes.c")
    3339                            .dwattr $C$DW$165, DW_AT_decl_line(0x46d)
    3340                            .dwattr $C$DW$165, DW_AT_decl_column(0x01)
    3341                            .dwattr $C$DW$165, DW_AT_TI_max_frame_size(0x10)
    3342                            .dwpsn  file "../driverlib/aes.c",line 1134,column 1,is_stmt,address AESIntClear,isa 1
    3343                    
    3344                            .dwfde $C$DW$CIE, AESIntClear
    3345                    $C$DW$166       .dwtag  DW_TAG_formal_parameter
    3346                            .dwattr $C$DW$166, DW_AT_name("ui32Base")
    3347                            .dwattr $C$DW$166, DW_AT_TI_symbol_name("ui32Base")
    3348                            .dwattr $C$DW$166, DW_AT_type(*$C$DW$T$27)
    3349                            .dwattr $C$DW$166, DW_AT_location[DW_OP_reg0]
    3350                    
    3351                    $C$DW$167       .dwtag  DW_TAG_formal_parameter
    3352                            .dwattr $C$DW$167, DW_AT_name("ui32IntFlags")
    3353                            .dwattr $C$DW$167, DW_AT_TI_symbol_name("ui32IntFlags")
    3354                            .dwattr $C$DW$167, DW_AT_type(*$C$DW$T$27)
    3355                            .dwattr $C$DW$167, DW_AT_location[DW_OP_reg1]
TI ARM Assembler Unix v18.1.1 Fri Jul  3 20:08:23 2020

Tools Copyright (c) 1996-2017 Texas Instruments Incorporated
aes.asm                                                              PAGE   62

    3356                    
    3357                    ;----------------------------------------------------------------------
    3358                    ; 1133 | AESIntClear(uint32_t ui32Base, uint32_t ui32IntFlags)                  
    3359                    ;----------------------------------------------------------------------
    3360                    
    3361                    ;*****************************************************************************
    3362                    ;* FUNCTION NAME: AESIntClear                                                *
    3363                    ;*                                                                           *
    3364                    ;*   Regs Modified     : A1,A2,A3,A4,V1,SP,SR                                *
    3365                    ;*   Regs Used         : A1,A2,A3,A4,V1,SP,LR,SR                             *
    3366                    ;*   Local Frame Size  : 0 Args + 8 Auto + 8 Save = 16 byte                  *
    3367                    ;*****************************************************************************
    3368 000004f4           AESIntClear:
    3369                    ;* --------------------------------------------------------------------------*
    3370                            .dwcfi  cfa_offset, 0
    3371 000004f4 B51C              PUSH      {A3, A4, V1, LR}      ; [DPU_V7M3_PIPE]  ; [ORIG 16-BIT INS]
    3372                            .dwcfi  cfa_offset, 16
    3373                            .dwcfi  save_reg_to_mem, 14, -4
    3374                            .dwcfi  save_reg_to_mem, 4, -8
    3375                            .dwcfi  save_reg_to_mem, 3, -12
    3376                            .dwcfi  save_reg_to_mem, 2, -16
    3377                    $C$DW$168       .dwtag  DW_TAG_variable
    3378                            .dwattr $C$DW$168, DW_AT_name("ui32Base")
    3379                            .dwattr $C$DW$168, DW_AT_TI_symbol_name("ui32Base")
    3380                            .dwattr $C$DW$168, DW_AT_type(*$C$DW$T$27)
    3381                            .dwattr $C$DW$168, DW_AT_location[DW_OP_breg13 0]
    3382                    
    3383                    $C$DW$169       .dwtag  DW_TAG_variable
    3384                            .dwattr $C$DW$169, DW_AT_name("ui32IntFlags")
    3385                            .dwattr $C$DW$169, DW_AT_TI_symbol_name("ui32IntFlags")
    3386                            .dwattr $C$DW$169, DW_AT_type(*$C$DW$T$27)
    3387                            .dwattr $C$DW$169, DW_AT_location[DW_OP_breg13 4]
    3388                    
    3389                    ;----------------------------------------------------------------------
    3390                    ; 1135 | //                                                                     
    3391                    ; 1136 | // Check the arguments.                                                
    3392                    ; 1137 | //                                                                     
    3393                    ; 1138 | ASSERT(ui32Base == AES_BASE);                                          
    3394                    ; 1139 | ASSERT((ui32IntFlags == AES_INT_DMA_CONTEXT_IN) ||                     
    3395                    ; 1140 |        (ui32IntFlags == AES_INT_DMA_CONTEXT_OUT) ||                    
    3396                    ; 1141 |        (ui32IntFlags == AES_INT_DMA_DATA_IN) ||                        
    3397                    ; 1142 |        (ui32IntFlags == AES_INT_DMA_DATA_OUT));                        
    3398                    ;----------------------------------------------------------------------
    3399 000004f6 9101              STR       A2, [SP, #4]          ; [DPU_V7M3_PIPE] |1134|  ; [ORIG 16-BIT INS]
    3400 000004f8 9000              STR       A1, [SP, #0]          ; [DPU_V7M3_PIPE] |1134|  ; [ORIG 16-BIT INS]
    3401                            .dwpsn  file "../driverlib/aes.c",line 1144,column 5,is_stmt,isa 1
    3402                    ;----------------------------------------------------------------------
    3403                    ; 1144 | HWREG(ui32Base + AES_O_DMAIC) = (((ui32IntFlags & 0x00010000) >> 16) | 
    3404                    ; 1145 |                                  ((ui32IntFlags & 0x00060000) >> 15) | 
    3405                    ; 1146 |                                  ((ui32IntFlags & 0x00080000) >> 18)); 
    3406                    ;----------------------------------------------------------------------
    3407 000004fa 9801              LDR       A1, [SP, #4]          ; [DPU_V7M3_PIPE] |1144|  ; [ORIG 16-BIT INS]
    3408 000004fc 4C22              LDR       V1, $C$CON5           ; [DPU_V7M3_PIPE] |1144|  ; [ORIG 16-BIT INS]
    3409 000004fe 9A01              LDR       A3, [SP, #4]          ; [DPU_V7M3_PIPE] |1144|  ; [ORIG 16-BIT INS]
    3410 00000500 9901              LDR       A2, [SP, #4]          ; [DPU_V7M3_PIPE] |1144|  ; [ORIG 16-BIT INS]
TI ARM Assembler Unix v18.1.1 Fri Jul  3 20:08:23 2020

Tools Copyright (c) 1996-2017 Texas Instruments Incorporated
aes.asm                                                              PAGE   63

    3411 00000502 9B00              LDR       A4, [SP, #0]          ; [DPU_V7M3_PIPE] |1144|  ; [ORIG 16-BIT INS]
    3412 00000504 3080F400          AND       A1, A1, #65536        ; [DPU_V7M3_PIPE] |1144|  ; [KEEP 32-BIT INS]
    3413 00000508 22C0F402          AND       A3, A3, #393216       ; [DPU_V7M3_PIPE] |1144|  ; [KEEP 32-BIT INS]
    3414 0000050c 2100F401          AND       A2, A2, #524288       ; [DPU_V7M3_PIPE] |1144|  ; [KEEP 32-BIT INS]
    3415 00000510 0C00              LSRS      A1, A1, #16           ; [DPU_V7M3_PIPE] |1144|  ; [ORIG 16-BIT INS]
    3416 00000512 30D2EA40          ORR       A1, A1, A3, LSR #15   ; [DPU_V7M3_PIPE] |1144|  ; [KEEP 32-BIT INS]
    3417 00000516 4091EA40          ORR       A1, A1, A2, LSR #18   ; [DPU_V7M3_PIPE] |1144|  ; [KEEP 32-BIT INS]
    3418 0000051a 50E0              STR       A1, [V1, +A4]         ; [DPU_V7M3_PIPE] |1144|  ; [ORIG 16-BIT INS]
    3419                            .dwpsn  file "../driverlib/aes.c",line 1147,column 1,is_stmt,isa 1
    3420                    $C$DW$170       .dwtag  DW_TAG_TI_branch
    3421                            .dwattr $C$DW$170, DW_AT_low_pc(0x00)
    3422                            .dwattr $C$DW$170, DW_AT_TI_return
    3423                    
    3424 0000051c BD1C              POP       {A3, A4, V1, PC}      ; [DPU_V7M3_PIPE]  ; [ORIG 16-BIT INS]
    3425                            .dwcfi  cfa_offset, 0
    3426                            .dwcfi  restore_reg, 4
    3427                            .dwcfi  restore_reg, 3
    3428                            .dwcfi  restore_reg, 2
    3429                            ; BRANCH OCCURS                  ; [] 
    3430                            .dwattr $C$DW$165, DW_AT_TI_end_file("../driverlib/aes.c")
    3431                            .dwattr $C$DW$165, DW_AT_TI_end_line(0x47b)
    3432                            .dwattr $C$DW$165, DW_AT_TI_end_column(0x01)
    3433                            .dwendentry
    3434                            .dwendtag $C$DW$165
    3435                    
    3436 0000051e                   .sect   ".text"
    3437                            .clink
    3438                            .thumbfunc AESIntRegister
    3439 0000051e                   .thumb
    3440                            .global AESIntRegister
    3441                    
    3442                    $C$DW$171       .dwtag  DW_TAG_subprogram
    3443                            .dwattr $C$DW$171, DW_AT_name("AESIntRegister")
    3444                            .dwattr $C$DW$171, DW_AT_low_pc(AESIntRegister)
    3445                            .dwattr $C$DW$171, DW_AT_high_pc(0x00)
    3446                            .dwattr $C$DW$171, DW_AT_TI_symbol_name("AESIntRegister")
    3447                            .dwattr $C$DW$171, DW_AT_external
    3448                            .dwattr $C$DW$171, DW_AT_TI_begin_file("../driverlib/aes.c")
    3449                            .dwattr $C$DW$171, DW_AT_TI_begin_line(0x497)
    3450                            .dwattr $C$DW$171, DW_AT_TI_begin_column(0x01)
    3451                            .dwattr $C$DW$171, DW_AT_decl_file("../driverlib/aes.c")
    3452                            .dwattr $C$DW$171, DW_AT_decl_line(0x497)
    3453                            .dwattr $C$DW$171, DW_AT_decl_column(0x01)
    3454                            .dwattr $C$DW$171, DW_AT_TI_max_frame_size(0x10)
    3455                            .dwpsn  file "../driverlib/aes.c",line 1176,column 1,is_stmt,address AESIntRegister,isa 1
    3456                    
    3457                            .dwfde $C$DW$CIE, AESIntRegister
    3458                    $C$DW$172       .dwtag  DW_TAG_formal_parameter
    3459                            .dwattr $C$DW$172, DW_AT_name("ui32Base")
    3460                            .dwattr $C$DW$172, DW_AT_TI_symbol_name("ui32Base")
    3461                            .dwattr $C$DW$172, DW_AT_type(*$C$DW$T$27)
    3462                            .dwattr $C$DW$172, DW_AT_location[DW_OP_reg0]
    3463                    
    3464                    $C$DW$173       .dwtag  DW_TAG_formal_parameter
    3465                            .dwattr $C$DW$173, DW_AT_name("pfnHandler")
TI ARM Assembler Unix v18.1.1 Fri Jul  3 20:08:23 2020

Tools Copyright (c) 1996-2017 Texas Instruments Incorporated
aes.asm                                                              PAGE   64

    3466                            .dwattr $C$DW$173, DW_AT_TI_symbol_name("pfnHandler")
    3467                            .dwattr $C$DW$173, DW_AT_type(*$C$DW$T$25)
    3468                            .dwattr $C$DW$173, DW_AT_location[DW_OP_reg1]
    3469                    
    3470                    ;----------------------------------------------------------------------
    3471                    ; 1175 | AESIntRegister(uint32_t ui32Base, void (*pfnHandler)(void))            
    3472                    ;----------------------------------------------------------------------
    3473                    
    3474                    ;*****************************************************************************
    3475                    ;* FUNCTION NAME: AESIntRegister                                             *
    3476                    ;*                                                                           *
    3477                    ;*   Regs Modified     : A1,A2,A3,A4,V9,SP,LR,SR,D0,D0_hi,D1,D1_hi,D2,D2_hi, *
    3478                    ;*                           D3,D3_hi,D4,D4_hi,D5,D5_hi,D6,D6_hi,D7,D7_hi,   *
    3479                    ;*                           FPEXC,FPSCR                                     *
    3480                    ;*   Regs Used         : A1,A2,A3,A4,V9,SP,LR,SR,D0,D0_hi,D1,D1_hi,D2,D2_hi, *
    3481                    ;*                           D3,D3_hi,D4,D4_hi,D5,D5_hi,D6,D6_hi,D7,D7_hi,   *
    3482                    ;*                           FPEXC,FPSCR                                     *
    3483                    ;*   Local Frame Size  : 0 Args + 8 Auto + 4 Save = 12 byte                  *
    3484                    ;*****************************************************************************
    3485 0000051e           AESIntRegister:
    3486                    ;* --------------------------------------------------------------------------*
    3487                            .dwcfi  cfa_offset, 0
    3488 0000051e B50E              PUSH      {A2, A3, A4, LR}      ; [DPU_V7M3_PIPE]  ; [ORIG 16-BIT INS]
    3489                            .dwcfi  cfa_offset, 16
    3490                            .dwcfi  save_reg_to_mem, 14, -4
    3491                            .dwcfi  save_reg_to_mem, 3, -8
    3492                            .dwcfi  save_reg_to_mem, 2, -12
    3493                            .dwcfi  save_reg_to_mem, 1, -16
    3494                    $C$DW$174       .dwtag  DW_TAG_variable
    3495                            .dwattr $C$DW$174, DW_AT_name("ui32Base")
    3496                            .dwattr $C$DW$174, DW_AT_TI_symbol_name("ui32Base")
    3497                            .dwattr $C$DW$174, DW_AT_type(*$C$DW$T$27)
    3498                            .dwattr $C$DW$174, DW_AT_location[DW_OP_breg13 0]
    3499                    
    3500                    $C$DW$175       .dwtag  DW_TAG_variable
    3501                            .dwattr $C$DW$175, DW_AT_name("pfnHandler")
    3502                            .dwattr $C$DW$175, DW_AT_TI_symbol_name("pfnHandler")
    3503                            .dwattr $C$DW$175, DW_AT_type(*$C$DW$T$25)
    3504                            .dwattr $C$DW$175, DW_AT_location[DW_OP_breg13 4]
    3505                    
    3506                    ;----------------------------------------------------------------------
    3507                    ; 1177 | //                                                                     
    3508                    ; 1178 | // Check the arguments.                                                
    3509                    ; 1179 | //                                                                     
    3510                    ; 1180 | ASSERT(ui32Base == AES_BASE);                                          
    3511                    ; 1182 | //                                                                     
    3512                    ; 1183 | // Register the interrupt handler.                                     
    3513                    ; 1184 | //                                                                     
    3514                    ;----------------------------------------------------------------------
    3515 00000520 9101              STR       A2, [SP, #4]          ; [DPU_V7M3_PIPE] |1176|  ; [ORIG 16-BIT INS]
    3516 00000522 9000              STR       A1, [SP, #0]          ; [DPU_V7M3_PIPE] |1176|  ; [ORIG 16-BIT INS]
    3517                            .dwpsn  file "../driverlib/aes.c",line 1185,column 5,is_stmt,isa 1
    3518                    ;----------------------------------------------------------------------
    3519                    ; 1185 | IntRegister(INT_AES0_TM4C129, pfnHandler);                             
    3520                    ; 1187 | //                                                                     
TI ARM Assembler Unix v18.1.1 Fri Jul  3 20:08:23 2020

Tools Copyright (c) 1996-2017 Texas Instruments Incorporated
aes.asm                                                              PAGE   65

    3521                    ; 1188 | // Enable the interrupt                                                
    3522                    ; 1189 | //                                                                     
    3523                    ;----------------------------------------------------------------------
    3524 00000524 9901              LDR       A2, [SP, #4]          ; [DPU_V7M3_PIPE] |1185|  ; [ORIG 16-BIT INS]
    3525 00000526 206F              MOVS      A1, #111              ; [DPU_V7M3_PIPE] |1185|  ; [ORIG 16-BIT INS]
    3526                    $C$DW$176       .dwtag  DW_TAG_TI_branch
    3527                            .dwattr $C$DW$176, DW_AT_low_pc(0x00)
    3528                            .dwattr $C$DW$176, DW_AT_name("IntRegister")
    3529                            .dwattr $C$DW$176, DW_AT_TI_call
    3530                    
    3531 00000528 FFFEF7FF!         BL        IntRegister           ; [DPU_V7M3_PIPE] |1185|  ; [KEEP 32-BIT INS]
    3532                            ; CALL OCCURS {IntRegister }     ; [] |1185| 
    3533                            .dwpsn  file "../driverlib/aes.c",line 1190,column 5,is_stmt,isa 1
    3534                    ;----------------------------------------------------------------------
    3535                    ; 1190 | IntEnable(INT_AES0_TM4C129);                                           
    3536                    ;----------------------------------------------------------------------
    3537 0000052c 206F              MOVS      A1, #111              ; [DPU_V7M3_PIPE] |1190|  ; [ORIG 16-BIT INS]
    3538                    $C$DW$177       .dwtag  DW_TAG_TI_branch
    3539                            .dwattr $C$DW$177, DW_AT_low_pc(0x00)
    3540                            .dwattr $C$DW$177, DW_AT_name("IntEnable")
    3541                            .dwattr $C$DW$177, DW_AT_TI_call
    3542                    
    3543 0000052e FFFEF7FF!         BL        IntEnable             ; [DPU_V7M3_PIPE] |1190|  ; [KEEP 32-BIT INS]
    3544                            ; CALL OCCURS {IntEnable }       ; [] |1190| 
    3545                            .dwpsn  file "../driverlib/aes.c",line 1191,column 1,is_stmt,isa 1
    3546                    $C$DW$178       .dwtag  DW_TAG_TI_branch
    3547                            .dwattr $C$DW$178, DW_AT_low_pc(0x00)
    3548                            .dwattr $C$DW$178, DW_AT_TI_return
    3549                    
    3550 00000532 BD0E              POP       {A2, A3, A4, PC}      ; [DPU_V7M3_PIPE]  ; [ORIG 16-BIT INS]
    3551                            .dwcfi  cfa_offset, 0
    3552                            .dwcfi  restore_reg, 3
    3553                            .dwcfi  restore_reg, 2
    3554                            .dwcfi  restore_reg, 1
    3555                            ; BRANCH OCCURS                  ; [] 
    3556                            .dwattr $C$DW$171, DW_AT_TI_end_file("../driverlib/aes.c")
    3557                            .dwattr $C$DW$171, DW_AT_TI_end_line(0x4a7)
    3558                            .dwattr $C$DW$171, DW_AT_TI_end_column(0x01)
    3559                            .dwendentry
    3560                            .dwendtag $C$DW$171
    3561                    
    3562 00000534                   .sect   ".text"
    3563                            .clink
    3564                            .thumbfunc AESIntUnregister
    3565 00000534                   .thumb
    3566                            .global AESIntUnregister
    3567                    
    3568                    $C$DW$179       .dwtag  DW_TAG_subprogram
    3569                            .dwattr $C$DW$179, DW_AT_name("AESIntUnregister")
    3570                            .dwattr $C$DW$179, DW_AT_low_pc(AESIntUnregister)
    3571                            .dwattr $C$DW$179, DW_AT_high_pc(0x00)
    3572                            .dwattr $C$DW$179, DW_AT_TI_symbol_name("AESIntUnregister")
    3573                            .dwattr $C$DW$179, DW_AT_external
    3574                            .dwattr $C$DW$179, DW_AT_TI_begin_file("../driverlib/aes.c")
    3575                            .dwattr $C$DW$179, DW_AT_TI_begin_line(0x4b9)
TI ARM Assembler Unix v18.1.1 Fri Jul  3 20:08:23 2020

Tools Copyright (c) 1996-2017 Texas Instruments Incorporated
aes.asm                                                              PAGE   66

    3576                            .dwattr $C$DW$179, DW_AT_TI_begin_column(0x01)
    3577                            .dwattr $C$DW$179, DW_AT_decl_file("../driverlib/aes.c")
    3578                            .dwattr $C$DW$179, DW_AT_decl_line(0x4b9)
    3579                            .dwattr $C$DW$179, DW_AT_decl_column(0x01)
    3580                            .dwattr $C$DW$179, DW_AT_TI_max_frame_size(0x08)
    3581                            .dwpsn  file "../driverlib/aes.c",line 1210,column 1,is_stmt,address AESIntUnregister,isa 1
    3582                    
    3583                            .dwfde $C$DW$CIE, AESIntUnregister
    3584                    $C$DW$180       .dwtag  DW_TAG_formal_parameter
    3585                            .dwattr $C$DW$180, DW_AT_name("ui32Base")
    3586                            .dwattr $C$DW$180, DW_AT_TI_symbol_name("ui32Base")
    3587                            .dwattr $C$DW$180, DW_AT_type(*$C$DW$T$27)
    3588                            .dwattr $C$DW$180, DW_AT_location[DW_OP_reg0]
    3589                    
    3590                    ;----------------------------------------------------------------------
    3591                    ; 1209 | AESIntUnregister(uint32_t ui32Base)                                    
    3592                    ;----------------------------------------------------------------------
    3593                    
    3594                    ;*****************************************************************************
    3595                    ;* FUNCTION NAME: AESIntUnregister                                           *
    3596                    ;*                                                                           *
    3597                    ;*   Regs Modified     : A1,A2,A3,A4,V9,SP,LR,SR,D0,D0_hi,D1,D1_hi,D2,D2_hi, *
    3598                    ;*                           D3,D3_hi,D4,D4_hi,D5,D5_hi,D6,D6_hi,D7,D7_hi,   *
    3599                    ;*                           FPEXC,FPSCR                                     *
    3600                    ;*   Regs Used         : A1,A2,A3,A4,V9,SP,LR,SR,D0,D0_hi,D1,D1_hi,D2,D2_hi, *
    3601                    ;*                           D3,D3_hi,D4,D4_hi,D5,D5_hi,D6,D6_hi,D7,D7_hi,   *
    3602                    ;*                           FPEXC,FPSCR                                     *
    3603                    ;*   Local Frame Size  : 0 Args + 4 Auto + 4 Save = 8 byte                   *
    3604                    ;*****************************************************************************
    3605 00000534           AESIntUnregister:
    3606                    ;* --------------------------------------------------------------------------*
    3607                            .dwcfi  cfa_offset, 0
    3608 00000534 B508              PUSH      {A4, LR}              ; [DPU_V7M3_PIPE]  ; [ORIG 16-BIT INS]
    3609                            .dwcfi  cfa_offset, 8
    3610                            .dwcfi  save_reg_to_mem, 14, -4
    3611                            .dwcfi  save_reg_to_mem, 3, -8
    3612                    $C$DW$181       .dwtag  DW_TAG_variable
    3613                            .dwattr $C$DW$181, DW_AT_name("ui32Base")
    3614                            .dwattr $C$DW$181, DW_AT_TI_symbol_name("ui32Base")
    3615                            .dwattr $C$DW$181, DW_AT_type(*$C$DW$T$27)
    3616                            .dwattr $C$DW$181, DW_AT_location[DW_OP_breg13 0]
    3617                    
    3618                    ;----------------------------------------------------------------------
    3619                    ; 1211 | //                                                                     
    3620                    ; 1212 | // Check the arguments.                                                
    3621                    ; 1213 | //                                                                     
    3622                    ; 1214 | ASSERT(ui32Base == AES_BASE);                                          
    3623                    ; 1216 | //                                                                     
    3624                    ; 1217 | // Disable the interrupt.                                              
    3625                    ; 1218 | //                                                                     
    3626                    ;----------------------------------------------------------------------
    3627 00000536 9000              STR       A1, [SP, #0]          ; [DPU_V7M3_PIPE] |1210|  ; [ORIG 16-BIT INS]
    3628                            .dwpsn  file "../driverlib/aes.c",line 1219,column 5,is_stmt,isa 1
    3629                    ;----------------------------------------------------------------------
    3630                    ; 1219 | IntDisable(INT_AES0_TM4C129);                                          
TI ARM Assembler Unix v18.1.1 Fri Jul  3 20:08:23 2020

Tools Copyright (c) 1996-2017 Texas Instruments Incorporated
aes.asm                                                              PAGE   67

    3631                    ; 1221 | //                                                                     
    3632                    ; 1222 | // Unregister the interrupt handler.                                   
    3633                    ; 1223 | //                                                                     
    3634                    ;----------------------------------------------------------------------
    3635 00000538 206F              MOVS      A1, #111              ; [DPU_V7M3_PIPE] |1219|  ; [ORIG 16-BIT INS]
    3636                    $C$DW$182       .dwtag  DW_TAG_TI_branch
    3637                            .dwattr $C$DW$182, DW_AT_low_pc(0x00)
    3638                            .dwattr $C$DW$182, DW_AT_name("IntDisable")
    3639                            .dwattr $C$DW$182, DW_AT_TI_call
    3640                    
    3641 0000053a FFFEF7FF!         BL        IntDisable            ; [DPU_V7M3_PIPE] |1219|  ; [KEEP 32-BIT INS]
    3642                            ; CALL OCCURS {IntDisable }      ; [] |1219| 
    3643                            .dwpsn  file "../driverlib/aes.c",line 1224,column 5,is_stmt,isa 1
    3644                    ;----------------------------------------------------------------------
    3645                    ; 1224 | IntUnregister(INT_AES0_TM4C129);                                       
    3646                    ;----------------------------------------------------------------------
    3647 0000053e 206F              MOVS      A1, #111              ; [DPU_V7M3_PIPE] |1224|  ; [ORIG 16-BIT INS]
    3648                    $C$DW$183       .dwtag  DW_TAG_TI_branch
    3649                            .dwattr $C$DW$183, DW_AT_low_pc(0x00)
    3650                            .dwattr $C$DW$183, DW_AT_name("IntUnregister")
    3651                            .dwattr $C$DW$183, DW_AT_TI_call
    3652                    
    3653 00000540 FFFEF7FF!         BL        IntUnregister         ; [DPU_V7M3_PIPE] |1224|  ; [KEEP 32-BIT INS]
    3654                            ; CALL OCCURS {IntUnregister }   ; [] |1224| 
    3655                            .dwpsn  file "../driverlib/aes.c",line 1225,column 1,is_stmt,isa 1
    3656                    $C$DW$184       .dwtag  DW_TAG_TI_branch
    3657                            .dwattr $C$DW$184, DW_AT_low_pc(0x00)
    3658                            .dwattr $C$DW$184, DW_AT_TI_return
    3659                    
    3660 00000544 BD08              POP       {A4, PC}              ; [DPU_V7M3_PIPE]  ; [ORIG 16-BIT INS]
    3661                            .dwcfi  cfa_offset, 0
    3662                            .dwcfi  restore_reg, 3
    3663                            ; BRANCH OCCURS                  ; [] 
    3664                            .dwattr $C$DW$179, DW_AT_TI_end_file("../driverlib/aes.c")
    3665                            .dwattr $C$DW$179, DW_AT_TI_end_line(0x4c9)
    3666                            .dwattr $C$DW$179, DW_AT_TI_end_column(0x01)
    3667                            .dwendentry
    3668                            .dwendtag $C$DW$179
    3669                    
    3670 00000546                   .sect   ".text"
    3671                            .clink
    3672                            .thumbfunc AESDMAEnable
    3673 00000546                   .thumb
    3674                            .global AESDMAEnable
    3675                    
    3676                    $C$DW$185       .dwtag  DW_TAG_subprogram
    3677                            .dwattr $C$DW$185, DW_AT_name("AESDMAEnable")
    3678                            .dwattr $C$DW$185, DW_AT_low_pc(AESDMAEnable)
    3679                            .dwattr $C$DW$185, DW_AT_high_pc(0x00)
    3680                            .dwattr $C$DW$185, DW_AT_TI_symbol_name("AESDMAEnable")
    3681                            .dwattr $C$DW$185, DW_AT_external
    3682                            .dwattr $C$DW$185, DW_AT_TI_begin_file("../driverlib/aes.c")
    3683                            .dwattr $C$DW$185, DW_AT_TI_begin_line(0x4de)
    3684                            .dwattr $C$DW$185, DW_AT_TI_begin_column(0x01)
    3685                            .dwattr $C$DW$185, DW_AT_decl_file("../driverlib/aes.c")
TI ARM Assembler Unix v18.1.1 Fri Jul  3 20:08:23 2020

Tools Copyright (c) 1996-2017 Texas Instruments Incorporated
aes.asm                                                              PAGE   68

    3686                            .dwattr $C$DW$185, DW_AT_decl_line(0x4de)
    3687                            .dwattr $C$DW$185, DW_AT_decl_column(0x01)
    3688                            .dwattr $C$DW$185, DW_AT_TI_max_frame_size(0x08)
    3689                            .dwpsn  file "../driverlib/aes.c",line 1247,column 1,is_stmt,address AESDMAEnable,isa 1
    3690                    
    3691                            .dwfde $C$DW$CIE, AESDMAEnable
    3692                    $C$DW$186       .dwtag  DW_TAG_formal_parameter
    3693                            .dwattr $C$DW$186, DW_AT_name("ui32Base")
    3694                            .dwattr $C$DW$186, DW_AT_TI_symbol_name("ui32Base")
    3695                            .dwattr $C$DW$186, DW_AT_type(*$C$DW$T$27)
    3696                            .dwattr $C$DW$186, DW_AT_location[DW_OP_reg0]
    3697                    
    3698                    $C$DW$187       .dwtag  DW_TAG_formal_parameter
    3699                            .dwattr $C$DW$187, DW_AT_name("ui32Flags")
    3700                            .dwattr $C$DW$187, DW_AT_TI_symbol_name("ui32Flags")
    3701                            .dwattr $C$DW$187, DW_AT_type(*$C$DW$T$27)
    3702                            .dwattr $C$DW$187, DW_AT_location[DW_OP_reg1]
    3703                    
    3704                    ;----------------------------------------------------------------------
    3705                    ; 1246 | AESDMAEnable(uint32_t ui32Base, uint32_t ui32Flags)                    
    3706                    ;----------------------------------------------------------------------
    3707                    
    3708                    ;*****************************************************************************
    3709                    ;* FUNCTION NAME: AESDMAEnable                                               *
    3710                    ;*                                                                           *
    3711                    ;*   Regs Modified     : A1,A2,A3,SP,SR                                      *
    3712                    ;*   Regs Used         : A1,A2,A3,SP,LR,SR                                   *
    3713                    ;*   Local Frame Size  : 0 Args + 8 Auto + 0 Save = 8 byte                   *
    3714                    ;*****************************************************************************
    3715 00000546           AESDMAEnable:
    3716                    ;* --------------------------------------------------------------------------*
    3717                            .dwcfi  cfa_offset, 0
    3718 00000546 0D08F1AD          SUB       SP, SP, #8            ; [DPU_V7M3_PIPE]  ; [KEEP 32-BIT INS]
    3719                            .dwcfi  cfa_offset, 8
    3720                    $C$DW$188       .dwtag  DW_TAG_variable
    3721                            .dwattr $C$DW$188, DW_AT_name("ui32Base")
    3722                            .dwattr $C$DW$188, DW_AT_TI_symbol_name("ui32Base")
    3723                            .dwattr $C$DW$188, DW_AT_type(*$C$DW$T$27)
    3724                            .dwattr $C$DW$188, DW_AT_location[DW_OP_breg13 0]
    3725                    
    3726                    $C$DW$189       .dwtag  DW_TAG_variable
    3727                            .dwattr $C$DW$189, DW_AT_name("ui32Flags")
    3728                            .dwattr $C$DW$189, DW_AT_TI_symbol_name("ui32Flags")
    3729                            .dwattr $C$DW$189, DW_AT_type(*$C$DW$T$27)
    3730                            .dwattr $C$DW$189, DW_AT_location[DW_OP_breg13 4]
    3731                    
    3732                    ;----------------------------------------------------------------------
    3733                    ; 1248 | //                                                                     
    3734                    ; 1249 | // Check the arguments.                                                
    3735                    ; 1250 | //                                                                     
    3736                    ; 1251 | ASSERT(ui32Base == AES_BASE);                                          
    3737                    ; 1252 | ASSERT((ui32Flags == AES_DMA_DATA_IN) ||                               
    3738                    ; 1253 |        (ui32Flags == AES_DMA_DATA_OUT) ||                              
    3739                    ; 1254 |        (ui32Flags == AES_DMA_CONTEXT_IN) ||                            
    3740                    ; 1255 |        (ui32Flags == AES_DMA_CONTEXT_OUT));                            
TI ARM Assembler Unix v18.1.1 Fri Jul  3 20:08:23 2020

Tools Copyright (c) 1996-2017 Texas Instruments Incorporated
aes.asm                                                              PAGE   69

    3741                    ; 1257 | //                                                                     
    3742                    ; 1258 | // Set the flags in the current register value.                        
    3743                    ; 1259 | //                                                                     
    3744                    ;----------------------------------------------------------------------
    3745 0000054a 9101              STR       A2, [SP, #4]          ; [DPU_V7M3_PIPE] |1247|  ; [ORIG 16-BIT INS]
    3746 0000054c 9000              STR       A1, [SP, #0]          ; [DPU_V7M3_PIPE] |1247|  ; [ORIG 16-BIT INS]
    3747                            .dwpsn  file "../driverlib/aes.c",line 1260,column 5,is_stmt,isa 1
    3748                    ;----------------------------------------------------------------------
    3749                    ; 1260 | HWREG(ui32Base + AES_O_SYSCONFIG) |= ui32Flags;                        
    3750                    ;----------------------------------------------------------------------
    3751 0000054e 9800              LDR       A1, [SP, #0]          ; [DPU_V7M3_PIPE] |1260|  ; [ORIG 16-BIT INS]
    3752 00000550 9901              LDR       A2, [SP, #4]          ; [DPU_V7M3_PIPE] |1260|  ; [ORIG 16-BIT INS]
    3753 00000552 3084              ADDS      A1, A1, #132          ; [DPU_V7M3_PIPE] |1260|  ; [ORIG 16-BIT INS]
    3754 00000554 6802              LDR       A3, [A1, #0]          ; [DPU_V7M3_PIPE] |1260|  ; [ORIG 16-BIT INS]
    3755 00000556 4311              ORRS      A2, A2, A3            ; [DPU_V7M3_PIPE] |1260|  ; [ORIG 16-BIT INS]
    3756 00000558 6001              STR       A2, [A1, #0]          ; [DPU_V7M3_PIPE] |1260|  ; [ORIG 16-BIT INS]
    3757                            .dwpsn  file "../driverlib/aes.c",line 1261,column 1,is_stmt,isa 1
    3758 0000055a B002              ADD       SP, SP, #8            ; [DPU_V7M3_PIPE]  ; [ORIG 16-BIT INS]
    3759                            .dwcfi  cfa_offset, 0
    3760                    $C$DW$190       .dwtag  DW_TAG_TI_branch
    3761                            .dwattr $C$DW$190, DW_AT_low_pc(0x00)
    3762                            .dwattr $C$DW$190, DW_AT_TI_return
    3763                    
    3764 0000055c 4770              BX        LR                    ; [DPU_V7M3_PIPE]  ; [ORIG 16-BIT INS]
    3765                            ; BRANCH OCCURS                  ; [] 
    3766                            .dwattr $C$DW$185, DW_AT_TI_end_file("../driverlib/aes.c")
    3767                            .dwattr $C$DW$185, DW_AT_TI_end_line(0x4ed)
    3768                            .dwattr $C$DW$185, DW_AT_TI_end_column(0x01)
    3769                            .dwendentry
    3770                            .dwendtag $C$DW$185
    3771                    
    3772 0000055e                   .sect   ".text"
    3773                            .clink
    3774                            .thumbfunc AESDMADisable
    3775 0000055e                   .thumb
    3776                            .global AESDMADisable
    3777                    
    3778                    $C$DW$191       .dwtag  DW_TAG_subprogram
    3779                            .dwattr $C$DW$191, DW_AT_name("AESDMADisable")
    3780                            .dwattr $C$DW$191, DW_AT_low_pc(AESDMADisable)
    3781                            .dwattr $C$DW$191, DW_AT_high_pc(0x00)
    3782                            .dwattr $C$DW$191, DW_AT_TI_symbol_name("AESDMADisable")
    3783                            .dwattr $C$DW$191, DW_AT_external
    3784                            .dwattr $C$DW$191, DW_AT_TI_begin_file("../driverlib/aes.c")
    3785                            .dwattr $C$DW$191, DW_AT_TI_begin_line(0x503)
    3786                            .dwattr $C$DW$191, DW_AT_TI_begin_column(0x01)
    3787                            .dwattr $C$DW$191, DW_AT_decl_file("../driverlib/aes.c")
    3788                            .dwattr $C$DW$191, DW_AT_decl_line(0x503)
    3789                            .dwattr $C$DW$191, DW_AT_decl_column(0x01)
    3790                            .dwattr $C$DW$191, DW_AT_TI_max_frame_size(0x08)
    3791                            .dwpsn  file "../driverlib/aes.c",line 1284,column 1,is_stmt,address AESDMADisable,isa 1
    3792                    
    3793                            .dwfde $C$DW$CIE, AESDMADisable
    3794                    $C$DW$192       .dwtag  DW_TAG_formal_parameter
    3795                            .dwattr $C$DW$192, DW_AT_name("ui32Base")
TI ARM Assembler Unix v18.1.1 Fri Jul  3 20:08:23 2020

Tools Copyright (c) 1996-2017 Texas Instruments Incorporated
aes.asm                                                              PAGE   70

    3796                            .dwattr $C$DW$192, DW_AT_TI_symbol_name("ui32Base")
    3797                            .dwattr $C$DW$192, DW_AT_type(*$C$DW$T$27)
    3798                            .dwattr $C$DW$192, DW_AT_location[DW_OP_reg0]
    3799                    
    3800                    $C$DW$193       .dwtag  DW_TAG_formal_parameter
    3801                            .dwattr $C$DW$193, DW_AT_name("ui32Flags")
    3802                            .dwattr $C$DW$193, DW_AT_TI_symbol_name("ui32Flags")
    3803                            .dwattr $C$DW$193, DW_AT_type(*$C$DW$T$27)
    3804                            .dwattr $C$DW$193, DW_AT_location[DW_OP_reg1]
    3805                    
    3806                    ;----------------------------------------------------------------------
    3807                    ; 1283 | AESDMADisable(uint32_t ui32Base, uint32_t ui32Flags)                   
    3808                    ;----------------------------------------------------------------------
    3809                    
    3810                    ;*****************************************************************************
    3811                    ;* FUNCTION NAME: AESDMADisable                                              *
    3812                    ;*                                                                           *
    3813                    ;*   Regs Modified     : A1,A2,A3,SP,SR                                      *
    3814                    ;*   Regs Used         : A1,A2,A3,SP,LR,SR                                   *
    3815                    ;*   Local Frame Size  : 0 Args + 8 Auto + 0 Save = 8 byte                   *
    3816                    ;*****************************************************************************
    3817 0000055e           AESDMADisable:
    3818                    ;* --------------------------------------------------------------------------*
    3819                            .dwcfi  cfa_offset, 0
    3820 0000055e 0D08F1AD          SUB       SP, SP, #8            ; [DPU_V7M3_PIPE]  ; [KEEP 32-BIT INS]
    3821                            .dwcfi  cfa_offset, 8
    3822                    $C$DW$194       .dwtag  DW_TAG_variable
    3823                            .dwattr $C$DW$194, DW_AT_name("ui32Base")
    3824                            .dwattr $C$DW$194, DW_AT_TI_symbol_name("ui32Base")
    3825                            .dwattr $C$DW$194, DW_AT_type(*$C$DW$T$27)
    3826                            .dwattr $C$DW$194, DW_AT_location[DW_OP_breg13 0]
    3827                    
    3828                    $C$DW$195       .dwtag  DW_TAG_variable
    3829                            .dwattr $C$DW$195, DW_AT_name("ui32Flags")
    3830                            .dwattr $C$DW$195, DW_AT_TI_symbol_name("ui32Flags")
    3831                            .dwattr $C$DW$195, DW_AT_type(*$C$DW$T$27)
    3832                            .dwattr $C$DW$195, DW_AT_location[DW_OP_breg13 4]
    3833                    
    3834                    ;----------------------------------------------------------------------
    3835                    ; 1285 | //                                                                     
    3836                    ; 1286 | // Check the arguments.                                                
    3837                    ; 1287 | //                                                                     
    3838                    ; 1288 | ASSERT(ui32Base == AES_BASE);                                          
    3839                    ; 1289 | ASSERT((ui32Flags == AES_DMA_DATA_IN) ||                               
    3840                    ; 1290 |        (ui32Flags == AES_DMA_DATA_OUT) ||                              
    3841                    ; 1291 |        (ui32Flags == AES_DMA_CONTEXT_IN) ||                            
    3842                    ; 1292 |        (ui32Flags == AES_DMA_CONTEXT_OUT));                            
    3843                    ; 1294 | //                                                                     
    3844                    ; 1295 | // Clear the flags in the current register value.                      
    3845                    ; 1296 | //                                                                     
    3846                    ;----------------------------------------------------------------------
    3847 00000562 9101              STR       A2, [SP, #4]          ; [DPU_V7M3_PIPE] |1284|  ; [ORIG 16-BIT INS]
    3848 00000564 9000              STR       A1, [SP, #0]          ; [DPU_V7M3_PIPE] |1284|  ; [ORIG 16-BIT INS]
    3849                            .dwpsn  file "../driverlib/aes.c",line 1297,column 5,is_stmt,isa 1
    3850                    ;----------------------------------------------------------------------
TI ARM Assembler Unix v18.1.1 Fri Jul  3 20:08:23 2020

Tools Copyright (c) 1996-2017 Texas Instruments Incorporated
aes.asm                                                              PAGE   71

    3851                    ; 1297 | HWREG(ui32Base + AES_O_SYSCONFIG) &= ~ui32Flags;                       
    3852                    ;----------------------------------------------------------------------
    3853 00000566 9800              LDR       A1, [SP, #0]          ; [DPU_V7M3_PIPE] |1297|  ; [ORIG 16-BIT INS]
    3854 00000568 9A01              LDR       A3, [SP, #4]          ; [DPU_V7M3_PIPE] |1297|  ; [ORIG 16-BIT INS]
    3855 0000056a 3084              ADDS      A1, A1, #132          ; [DPU_V7M3_PIPE] |1297|  ; [ORIG 16-BIT INS]
    3856 0000056c 6801              LDR       A2, [A1, #0]          ; [DPU_V7M3_PIPE] |1297|  ; [ORIG 16-BIT INS]
    3857 0000056e 4391              BICS      A2, A2, A3            ; [DPU_V7M3_PIPE] |1297|  ; [ORIG 16-BIT INS]
    3858 00000570 6001              STR       A2, [A1, #0]          ; [DPU_V7M3_PIPE] |1297|  ; [ORIG 16-BIT INS]
    3859                            .dwpsn  file "../driverlib/aes.c",line 1298,column 1,is_stmt,isa 1
    3860 00000572 B002              ADD       SP, SP, #8            ; [DPU_V7M3_PIPE]  ; [ORIG 16-BIT INS]
    3861                            .dwcfi  cfa_offset, 0
    3862                    $C$DW$196       .dwtag  DW_TAG_TI_branch
    3863                            .dwattr $C$DW$196, DW_AT_low_pc(0x00)
    3864                            .dwattr $C$DW$196, DW_AT_TI_return
    3865                    
    3866 00000574 4770              BX        LR                    ; [DPU_V7M3_PIPE]  ; [ORIG 16-BIT INS]
    3867                            ; BRANCH OCCURS                  ; [] 
    3868                            .dwattr $C$DW$191, DW_AT_TI_end_file("../driverlib/aes.c")
    3869                            .dwattr $C$DW$191, DW_AT_TI_end_line(0x512)
    3870                            .dwattr $C$DW$191, DW_AT_TI_end_column(0x01)
    3871                            .dwendentry
    3872                            .dwendtag $C$DW$191
    3873                    
    3874                    ;******************************************************************************
    3875                    ;* CONSTANT TABLE                                                             *
    3876                    ;******************************************************************************
    3877 00000576                   .sect   ".text"
    3878                            .align  4
    3879 00000576 600046C0  ||$C$CON1||:    .bits   1141071872,32
         0000057a 00004403 
    3880                            .align  4
    3881 0000057a A0284403  ||$C$CON2||:    .bits   -24536,32
         0000057e 0000FFFF 
    3882                            .align  4
    3883 0000057e A024FFFF  ||$C$CON3||:    .bits   -24540,32
         00000582 0000FFFF 
    3884                            .align  4
    3885 00000582 A020FFFF  ||$C$CON4||:    .bits   -24544,32
         00000586 0000FFFF 
    3886                            .align  4
    3887 00000586 A02CFFFF  ||$C$CON5||:    .bits   -24532,32
         0000058a 0000FFFF 
    3888                    ;*****************************************************************************
    3889                    ;* UNDEFINED EXTERNAL REFERENCES                                             *
    3890                    ;*****************************************************************************
    3891                            .global IntRegister
    3892                            .global IntEnable
    3893                            .global IntDisable
    3894                            .global IntUnregister
    3895                    
    3896                    ;******************************************************************************
    3897                    ;* BUILD ATTRIBUTES                                                           *
    3898                    ;******************************************************************************
    3899                            .battr "aeabi", Tag_File, 1, Tag_ABI_PCS_wchar_t(2)
    3900                            .battr "aeabi", Tag_File, 1, Tag_ABI_FP_rounding(0)
TI ARM Assembler Unix v18.1.1 Fri Jul  3 20:08:23 2020

Tools Copyright (c) 1996-2017 Texas Instruments Incorporated
aes.asm                                                              PAGE   72

    3901                            .battr "aeabi", Tag_File, 1, Tag_ABI_FP_denormal(0)
    3902                            .battr "aeabi", Tag_File, 1, Tag_ABI_FP_exceptions(0)
    3903                            .battr "aeabi", Tag_File, 1, Tag_ABI_FP_number_model(1)
    3904                            .battr "aeabi", Tag_File, 1, Tag_ABI_enum_size(0)
    3905                            .battr "aeabi", Tag_File, 1, Tag_ABI_optimization_goals(5)
    3906                            .battr "aeabi", Tag_File, 1, Tag_ABI_FP_optimization_goals(0)
    3907                            .battr "TI", Tag_File, 1, Tag_Bitfield_layout(2)
    3908                            .battr "aeabi", Tag_File, 1, Tag_ABI_VFP_args(3)
    3909                            .battr "TI", Tag_File, 1, Tag_FP_interface(1)
    3910                    
    3911                    ;******************************************************************************
    3912                    ;* TYPE INFORMATION                                                           *
    3913                    ;******************************************************************************
    3914                    
    3915                    $C$DW$T$21      .dwtag  DW_TAG_structure_type
    3916                            .dwattr $C$DW$T$21, DW_AT_byte_size(0x10)
    3917                    $C$DW$197       .dwtag  DW_TAG_member
    3918                            .dwattr $C$DW$197, DW_AT_type(*$C$DW$T$14)
    3919                            .dwattr $C$DW$197, DW_AT_name("__max_align1")
    3920                            .dwattr $C$DW$197, DW_AT_TI_symbol_name("__max_align1")
    3921                            .dwattr $C$DW$197, DW_AT_data_member_location[DW_OP_plus_uconst 0x0]
    3922                            .dwattr $C$DW$197, DW_AT_accessibility(DW_ACCESS_public)
    3923                            .dwattr $C$DW$197, DW_AT_decl_file("/home/pola/ti/ccsv8/tools/compiler/ti-cgt-arm_18.1.1.LTS/i
    3924                            .dwattr $C$DW$197, DW_AT_decl_line(0x70)
    3925                            .dwattr $C$DW$197, DW_AT_decl_column(0x0c)
    3926                    
    3927                    $C$DW$198       .dwtag  DW_TAG_member
    3928                            .dwattr $C$DW$198, DW_AT_type(*$C$DW$T$18)
    3929                            .dwattr $C$DW$198, DW_AT_name("__max_align2")
    3930                            .dwattr $C$DW$198, DW_AT_TI_symbol_name("__max_align2")
    3931                            .dwattr $C$DW$198, DW_AT_data_member_location[DW_OP_plus_uconst 0x8]
    3932                            .dwattr $C$DW$198, DW_AT_accessibility(DW_ACCESS_public)
    3933                            .dwattr $C$DW$198, DW_AT_decl_file("/home/pola/ti/ccsv8/tools/compiler/ti-cgt-arm_18.1.1.LTS/i
    3934                            .dwattr $C$DW$198, DW_AT_decl_line(0x71)
    3935                            .dwattr $C$DW$198, DW_AT_decl_column(0x0e)
    3936                    
    3937                            .dwattr $C$DW$T$21, DW_AT_decl_file("/home/pola/ti/ccsv8/tools/compiler/ti-cgt-arm_18.1.1.LTS/
    3938                            .dwattr $C$DW$T$21, DW_AT_decl_line(0x6f)
    3939                            .dwattr $C$DW$T$21, DW_AT_decl_column(0x10)
    3940                            .dwendtag $C$DW$T$21
    3941                    
    3942                    $C$DW$T$23      .dwtag  DW_TAG_typedef
    3943                            .dwattr $C$DW$T$23, DW_AT_name("__max_align_t")
    3944                            .dwattr $C$DW$T$23, DW_AT_type(*$C$DW$T$21)
    3945                            .dwattr $C$DW$T$23, DW_AT_language(DW_LANG_C)
    3946                            .dwattr $C$DW$T$23, DW_AT_decl_file("/home/pola/ti/ccsv8/tools/compiler/ti-cgt-arm_18.1.1.LTS/
    3947                            .dwattr $C$DW$T$23, DW_AT_decl_line(0x72)
    3948                            .dwattr $C$DW$T$23, DW_AT_decl_column(0x03)
    3949                    
    3950                    $C$DW$T$2       .dwtag  DW_TAG_unspecified_type
    3951                            .dwattr $C$DW$T$2, DW_AT_name("void")
    3952                    
    3953                    $C$DW$T$3       .dwtag  DW_TAG_pointer_type
    3954                            .dwattr $C$DW$T$3, DW_AT_type(*$C$DW$T$2)
    3955                            .dwattr $C$DW$T$3, DW_AT_address_class(0x20)
TI ARM Assembler Unix v18.1.1 Fri Jul  3 20:08:23 2020

Tools Copyright (c) 1996-2017 Texas Instruments Incorporated
aes.asm                                                              PAGE   73

    3956                    
    3957                    
    3958                    $C$DW$T$24      .dwtag  DW_TAG_subroutine_type
    3959                            .dwattr $C$DW$T$24, DW_AT_language(DW_LANG_C)
    3960                            .dwendtag $C$DW$T$24
    3961                    
    3962                    $C$DW$T$25      .dwtag  DW_TAG_pointer_type
    3963                            .dwattr $C$DW$T$25, DW_AT_type(*$C$DW$T$24)
    3964                            .dwattr $C$DW$T$25, DW_AT_address_class(0x20)
    3965                    
    3966                    $C$DW$T$4       .dwtag  DW_TAG_base_type
    3967                            .dwattr $C$DW$T$4, DW_AT_encoding(DW_ATE_boolean)
    3968                            .dwattr $C$DW$T$4, DW_AT_name("bool")
    3969                            .dwattr $C$DW$T$4, DW_AT_byte_size(0x01)
    3970                    
    3971                    $C$DW$T$5       .dwtag  DW_TAG_base_type
    3972                            .dwattr $C$DW$T$5, DW_AT_encoding(DW_ATE_signed_char)
    3973                            .dwattr $C$DW$T$5, DW_AT_name("signed char")
    3974                            .dwattr $C$DW$T$5, DW_AT_byte_size(0x01)
    3975                    
    3976                    $C$DW$T$42      .dwtag  DW_TAG_typedef
    3977                            .dwattr $C$DW$T$42, DW_AT_name("__int8_t")
    3978                            .dwattr $C$DW$T$42, DW_AT_type(*$C$DW$T$5)
    3979                            .dwattr $C$DW$T$42, DW_AT_language(DW_LANG_C)
    3980                            .dwattr $C$DW$T$42, DW_AT_decl_file("/home/pola/ti/ccsv8/tools/compiler/ti-cgt-arm_18.1.1.LTS/
    3981                            .dwattr $C$DW$T$42, DW_AT_decl_line(0x39)
    3982                            .dwattr $C$DW$T$42, DW_AT_decl_column(0x16)
    3983                    
    3984                    $C$DW$T$43      .dwtag  DW_TAG_typedef
    3985                            .dwattr $C$DW$T$43, DW_AT_name("__int_least8_t")
    3986                            .dwattr $C$DW$T$43, DW_AT_type(*$C$DW$T$42)
    3987                            .dwattr $C$DW$T$43, DW_AT_language(DW_LANG_C)
    3988                            .dwattr $C$DW$T$43, DW_AT_decl_file("/home/pola/ti/ccsv8/tools/compiler/ti-cgt-arm_18.1.1.LTS/
    3989                            .dwattr $C$DW$T$43, DW_AT_decl_line(0x58)
    3990                            .dwattr $C$DW$T$43, DW_AT_decl_column(0x12)
    3991                    
    3992                    $C$DW$T$44      .dwtag  DW_TAG_typedef
    3993                            .dwattr $C$DW$T$44, DW_AT_name("int_least8_t")
    3994                            .dwattr $C$DW$T$44, DW_AT_type(*$C$DW$T$43)
    3995                            .dwattr $C$DW$T$44, DW_AT_language(DW_LANG_C)
    3996                            .dwattr $C$DW$T$44, DW_AT_decl_file("/home/pola/ti/ccsv8/tools/compiler/ti-cgt-arm_18.1.1.LTS/
    3997                            .dwattr $C$DW$T$44, DW_AT_decl_line(0x28)
    3998                            .dwattr $C$DW$T$44, DW_AT_decl_column(0x19)
    3999                    
    4000                    $C$DW$T$45      .dwtag  DW_TAG_typedef
    4001                            .dwattr $C$DW$T$45, DW_AT_name("int8_t")
    4002                            .dwattr $C$DW$T$45, DW_AT_type(*$C$DW$T$42)
    4003                            .dwattr $C$DW$T$45, DW_AT_language(DW_LANG_C)
    4004                            .dwattr $C$DW$T$45, DW_AT_decl_file("/home/pola/ti/ccsv8/tools/compiler/ti-cgt-arm_18.1.1.LTS/
    4005                            .dwattr $C$DW$T$45, DW_AT_decl_line(0x24)
    4006                            .dwattr $C$DW$T$45, DW_AT_decl_column(0x13)
    4007                    
    4008                    $C$DW$T$6       .dwtag  DW_TAG_base_type
    4009                            .dwattr $C$DW$T$6, DW_AT_encoding(DW_ATE_unsigned_char)
    4010                            .dwattr $C$DW$T$6, DW_AT_name("unsigned char")
TI ARM Assembler Unix v18.1.1 Fri Jul  3 20:08:23 2020

Tools Copyright (c) 1996-2017 Texas Instruments Incorporated
aes.asm                                                              PAGE   74

    4011                            .dwattr $C$DW$T$6, DW_AT_byte_size(0x01)
    4012                    
    4013                    $C$DW$T$46      .dwtag  DW_TAG_typedef
    4014                            .dwattr $C$DW$T$46, DW_AT_name("__uint8_t")
    4015                            .dwattr $C$DW$T$46, DW_AT_type(*$C$DW$T$6)
    4016                            .dwattr $C$DW$T$46, DW_AT_language(DW_LANG_C)
    4017                            .dwattr $C$DW$T$46, DW_AT_decl_file("/home/pola/ti/ccsv8/tools/compiler/ti-cgt-arm_18.1.1.LTS/
    4018                            .dwattr $C$DW$T$46, DW_AT_decl_line(0x3a)
    4019                            .dwattr $C$DW$T$46, DW_AT_decl_column(0x18)
    4020                    
    4021                    $C$DW$T$47      .dwtag  DW_TAG_typedef
    4022                            .dwattr $C$DW$T$47, DW_AT_name("__sa_family_t")
    4023                            .dwattr $C$DW$T$47, DW_AT_type(*$C$DW$T$46)
    4024                            .dwattr $C$DW$T$47, DW_AT_language(DW_LANG_C)
    4025                            .dwattr $C$DW$T$47, DW_AT_decl_file("/home/pola/ti/ccsv8/tools/compiler/ti-cgt-arm_18.1.1.LTS/
    4026                            .dwattr $C$DW$T$47, DW_AT_decl_line(0x43)
    4027                            .dwattr $C$DW$T$47, DW_AT_decl_column(0x13)
    4028                    
    4029                    $C$DW$T$48      .dwtag  DW_TAG_typedef
    4030                            .dwattr $C$DW$T$48, DW_AT_name("__uint_least8_t")
    4031                            .dwattr $C$DW$T$48, DW_AT_type(*$C$DW$T$46)
    4032                            .dwattr $C$DW$T$48, DW_AT_language(DW_LANG_C)
    4033                            .dwattr $C$DW$T$48, DW_AT_decl_file("/home/pola/ti/ccsv8/tools/compiler/ti-cgt-arm_18.1.1.LTS/
    4034                            .dwattr $C$DW$T$48, DW_AT_decl_line(0x6d)
    4035                            .dwattr $C$DW$T$48, DW_AT_decl_column(0x13)
    4036                    
    4037                    $C$DW$T$49      .dwtag  DW_TAG_typedef
    4038                            .dwattr $C$DW$T$49, DW_AT_name("uint_least8_t")
    4039                            .dwattr $C$DW$T$49, DW_AT_type(*$C$DW$T$48)
    4040                            .dwattr $C$DW$T$49, DW_AT_language(DW_LANG_C)
    4041                            .dwattr $C$DW$T$49, DW_AT_decl_file("/home/pola/ti/ccsv8/tools/compiler/ti-cgt-arm_18.1.1.LTS/
    4042                            .dwattr $C$DW$T$49, DW_AT_decl_line(0x2d)
    4043                            .dwattr $C$DW$T$49, DW_AT_decl_column(0x1a)
    4044                    
    4045                    $C$DW$T$50      .dwtag  DW_TAG_typedef
    4046                            .dwattr $C$DW$T$50, DW_AT_name("uint8_t")
    4047                            .dwattr $C$DW$T$50, DW_AT_type(*$C$DW$T$46)
    4048                            .dwattr $C$DW$T$50, DW_AT_language(DW_LANG_C)
    4049                            .dwattr $C$DW$T$50, DW_AT_decl_file("/home/pola/ti/ccsv8/tools/compiler/ti-cgt-arm_18.1.1.LTS/
    4050                            .dwattr $C$DW$T$50, DW_AT_decl_line(0x38)
    4051                            .dwattr $C$DW$T$50, DW_AT_decl_column(0x14)
    4052                    
    4053                    $C$DW$T$7       .dwtag  DW_TAG_base_type
    4054                            .dwattr $C$DW$T$7, DW_AT_encoding(DW_ATE_signed_char)
    4055                            .dwattr $C$DW$T$7, DW_AT_name("wchar_t")
    4056                            .dwattr $C$DW$T$7, DW_AT_byte_size(0x02)
    4057                    
    4058                    $C$DW$T$8       .dwtag  DW_TAG_base_type
    4059                            .dwattr $C$DW$T$8, DW_AT_encoding(DW_ATE_signed)
    4060                            .dwattr $C$DW$T$8, DW_AT_name("short")
    4061                            .dwattr $C$DW$T$8, DW_AT_byte_size(0x02)
    4062                    
    4063                    $C$DW$T$51      .dwtag  DW_TAG_typedef
    4064                            .dwattr $C$DW$T$51, DW_AT_name("__int16_t")
    4065                            .dwattr $C$DW$T$51, DW_AT_type(*$C$DW$T$8)
TI ARM Assembler Unix v18.1.1 Fri Jul  3 20:08:23 2020

Tools Copyright (c) 1996-2017 Texas Instruments Incorporated
aes.asm                                                              PAGE   75

    4066                            .dwattr $C$DW$T$51, DW_AT_language(DW_LANG_C)
    4067                            .dwattr $C$DW$T$51, DW_AT_decl_file("/home/pola/ti/ccsv8/tools/compiler/ti-cgt-arm_18.1.1.LTS/
    4068                            .dwattr $C$DW$T$51, DW_AT_decl_line(0x3b)
    4069                            .dwattr $C$DW$T$51, DW_AT_decl_column(0x11)
    4070                    
    4071                    $C$DW$T$52      .dwtag  DW_TAG_typedef
    4072                            .dwattr $C$DW$T$52, DW_AT_name("__int_least16_t")
    4073                            .dwattr $C$DW$T$52, DW_AT_type(*$C$DW$T$51)
    4074                            .dwattr $C$DW$T$52, DW_AT_language(DW_LANG_C)
    4075                            .dwattr $C$DW$T$52, DW_AT_decl_file("/home/pola/ti/ccsv8/tools/compiler/ti-cgt-arm_18.1.1.LTS/
    4076                            .dwattr $C$DW$T$52, DW_AT_decl_line(0x59)
    4077                            .dwattr $C$DW$T$52, DW_AT_decl_column(0x13)
    4078                    
    4079                    $C$DW$T$53      .dwtag  DW_TAG_typedef
    4080                            .dwattr $C$DW$T$53, DW_AT_name("int_least16_t")
    4081                            .dwattr $C$DW$T$53, DW_AT_type(*$C$DW$T$52)
    4082                            .dwattr $C$DW$T$53, DW_AT_language(DW_LANG_C)
    4083                            .dwattr $C$DW$T$53, DW_AT_decl_file("/home/pola/ti/ccsv8/tools/compiler/ti-cgt-arm_18.1.1.LTS/
    4084                            .dwattr $C$DW$T$53, DW_AT_decl_line(0x29)
    4085                            .dwattr $C$DW$T$53, DW_AT_decl_column(0x1a)
    4086                    
    4087                    $C$DW$T$54      .dwtag  DW_TAG_typedef
    4088                            .dwattr $C$DW$T$54, DW_AT_name("int16_t")
    4089                            .dwattr $C$DW$T$54, DW_AT_type(*$C$DW$T$51)
    4090                            .dwattr $C$DW$T$54, DW_AT_language(DW_LANG_C)
    4091                            .dwattr $C$DW$T$54, DW_AT_decl_file("/home/pola/ti/ccsv8/tools/compiler/ti-cgt-arm_18.1.1.LTS/
    4092                            .dwattr $C$DW$T$54, DW_AT_decl_line(0x29)
    4093                            .dwattr $C$DW$T$54, DW_AT_decl_column(0x14)
    4094                    
    4095                    $C$DW$T$9       .dwtag  DW_TAG_base_type
    4096                            .dwattr $C$DW$T$9, DW_AT_encoding(DW_ATE_unsigned)
    4097                            .dwattr $C$DW$T$9, DW_AT_name("unsigned short")
    4098                            .dwattr $C$DW$T$9, DW_AT_byte_size(0x02)
    4099                    
    4100                    $C$DW$T$55      .dwtag  DW_TAG_typedef
    4101                            .dwattr $C$DW$T$55, DW_AT_name("___wchar_t")
    4102                            .dwattr $C$DW$T$55, DW_AT_type(*$C$DW$T$9)
    4103                            .dwattr $C$DW$T$55, DW_AT_language(DW_LANG_C)
    4104                            .dwattr $C$DW$T$55, DW_AT_decl_file("/home/pola/ti/ccsv8/tools/compiler/ti-cgt-arm_18.1.1.LTS/
    4105                            .dwattr $C$DW$T$55, DW_AT_decl_line(0x76)
    4106                            .dwattr $C$DW$T$55, DW_AT_decl_column(0x1a)
    4107                    
    4108                    $C$DW$T$56      .dwtag  DW_TAG_typedef
    4109                            .dwattr $C$DW$T$56, DW_AT_name("__uint16_t")
    4110                            .dwattr $C$DW$T$56, DW_AT_type(*$C$DW$T$9)
    4111                            .dwattr $C$DW$T$56, DW_AT_language(DW_LANG_C)
    4112                            .dwattr $C$DW$T$56, DW_AT_decl_file("/home/pola/ti/ccsv8/tools/compiler/ti-cgt-arm_18.1.1.LTS/
    4113                            .dwattr $C$DW$T$56, DW_AT_decl_line(0x3c)
    4114                            .dwattr $C$DW$T$56, DW_AT_decl_column(0x19)
    4115                    
    4116                    $C$DW$T$57      .dwtag  DW_TAG_typedef
    4117                            .dwattr $C$DW$T$57, DW_AT_name("__mode_t")
    4118                            .dwattr $C$DW$T$57, DW_AT_type(*$C$DW$T$56)
    4119                            .dwattr $C$DW$T$57, DW_AT_language(DW_LANG_C)
    4120                            .dwattr $C$DW$T$57, DW_AT_decl_file("/home/pola/ti/ccsv8/tools/compiler/ti-cgt-arm_18.1.1.LTS/
TI ARM Assembler Unix v18.1.1 Fri Jul  3 20:08:23 2020

Tools Copyright (c) 1996-2017 Texas Instruments Incorporated
aes.asm                                                              PAGE   76

    4121                            .dwattr $C$DW$T$57, DW_AT_decl_line(0x39)
    4122                            .dwattr $C$DW$T$57, DW_AT_decl_column(0x14)
    4123                    
    4124                    $C$DW$T$58      .dwtag  DW_TAG_typedef
    4125                            .dwattr $C$DW$T$58, DW_AT_name("__uint_least16_t")
    4126                            .dwattr $C$DW$T$58, DW_AT_type(*$C$DW$T$56)
    4127                            .dwattr $C$DW$T$58, DW_AT_language(DW_LANG_C)
    4128                            .dwattr $C$DW$T$58, DW_AT_decl_file("/home/pola/ti/ccsv8/tools/compiler/ti-cgt-arm_18.1.1.LTS/
    4129                            .dwattr $C$DW$T$58, DW_AT_decl_line(0x6e)
    4130                            .dwattr $C$DW$T$58, DW_AT_decl_column(0x14)
    4131                    
    4132                    $C$DW$T$59      .dwtag  DW_TAG_typedef
    4133                            .dwattr $C$DW$T$59, DW_AT_name("__char16_t")
    4134                            .dwattr $C$DW$T$59, DW_AT_type(*$C$DW$T$58)
    4135                            .dwattr $C$DW$T$59, DW_AT_language(DW_LANG_C)
    4136                            .dwattr $C$DW$T$59, DW_AT_decl_file("/home/pola/ti/ccsv8/tools/compiler/ti-cgt-arm_18.1.1.LTS/
    4137                            .dwattr $C$DW$T$59, DW_AT_decl_line(0x66)
    4138                            .dwattr $C$DW$T$59, DW_AT_decl_column(0x1a)
    4139                    
    4140                    $C$DW$T$60      .dwtag  DW_TAG_typedef
    4141                            .dwattr $C$DW$T$60, DW_AT_name("uint_least16_t")
    4142                            .dwattr $C$DW$T$60, DW_AT_type(*$C$DW$T$58)
    4143                            .dwattr $C$DW$T$60, DW_AT_language(DW_LANG_C)
    4144                            .dwattr $C$DW$T$60, DW_AT_decl_file("/home/pola/ti/ccsv8/tools/compiler/ti-cgt-arm_18.1.1.LTS/
    4145                            .dwattr $C$DW$T$60, DW_AT_decl_line(0x2e)
    4146                            .dwattr $C$DW$T$60, DW_AT_decl_column(0x1a)
    4147                    
    4148                    $C$DW$T$61      .dwtag  DW_TAG_typedef
    4149                            .dwattr $C$DW$T$61, DW_AT_name("uint16_t")
    4150                            .dwattr $C$DW$T$61, DW_AT_type(*$C$DW$T$56)
    4151                            .dwattr $C$DW$T$61, DW_AT_language(DW_LANG_C)
    4152                            .dwattr $C$DW$T$61, DW_AT_decl_file("/home/pola/ti/ccsv8/tools/compiler/ti-cgt-arm_18.1.1.LTS/
    4153                            .dwattr $C$DW$T$61, DW_AT_decl_line(0x3d)
    4154                            .dwattr $C$DW$T$61, DW_AT_decl_column(0x15)
    4155                    
    4156                    $C$DW$T$10      .dwtag  DW_TAG_base_type
    4157                            .dwattr $C$DW$T$10, DW_AT_encoding(DW_ATE_signed)
    4158                            .dwattr $C$DW$T$10, DW_AT_name("int")
    4159                            .dwattr $C$DW$T$10, DW_AT_byte_size(0x04)
    4160                    
    4161                    $C$DW$T$62      .dwtag  DW_TAG_typedef
    4162                            .dwattr $C$DW$T$62, DW_AT_name("_Mbstatet")
    4163                            .dwattr $C$DW$T$62, DW_AT_type(*$C$DW$T$10)
    4164                            .dwattr $C$DW$T$62, DW_AT_language(DW_LANG_C)
    4165                            .dwattr $C$DW$T$62, DW_AT_decl_file("/home/pola/ti/ccsv8/tools/compiler/ti-cgt-arm_18.1.1.LTS/
    4166                            .dwattr $C$DW$T$62, DW_AT_decl_line(0x84)
    4167                            .dwattr $C$DW$T$62, DW_AT_decl_column(0x0d)
    4168                    
    4169                    $C$DW$T$63      .dwtag  DW_TAG_typedef
    4170                            .dwattr $C$DW$T$63, DW_AT_name("__mbstate_t")
    4171                            .dwattr $C$DW$T$63, DW_AT_type(*$C$DW$T$62)
    4172                            .dwattr $C$DW$T$63, DW_AT_language(DW_LANG_C)
    4173                            .dwattr $C$DW$T$63, DW_AT_decl_file("/home/pola/ti/ccsv8/tools/compiler/ti-cgt-arm_18.1.1.LTS/
    4174                            .dwattr $C$DW$T$63, DW_AT_decl_line(0x87)
    4175                            .dwattr $C$DW$T$63, DW_AT_decl_column(0x13)
TI ARM Assembler Unix v18.1.1 Fri Jul  3 20:08:23 2020

Tools Copyright (c) 1996-2017 Texas Instruments Incorporated
aes.asm                                                              PAGE   77

    4176                    
    4177                    $C$DW$T$64      .dwtag  DW_TAG_typedef
    4178                            .dwattr $C$DW$T$64, DW_AT_name("__accmode_t")
    4179                            .dwattr $C$DW$T$64, DW_AT_type(*$C$DW$T$10)
    4180                            .dwattr $C$DW$T$64, DW_AT_language(DW_LANG_C)
    4181                            .dwattr $C$DW$T$64, DW_AT_decl_file("/home/pola/ti/ccsv8/tools/compiler/ti-cgt-arm_18.1.1.LTS/
    4182                            .dwattr $C$DW$T$64, DW_AT_decl_line(0x3a)
    4183                            .dwattr $C$DW$T$64, DW_AT_decl_column(0x0e)
    4184                    
    4185                    $C$DW$T$65      .dwtag  DW_TAG_typedef
    4186                            .dwattr $C$DW$T$65, DW_AT_name("__cpulevel_t")
    4187                            .dwattr $C$DW$T$65, DW_AT_type(*$C$DW$T$10)
    4188                            .dwattr $C$DW$T$65, DW_AT_language(DW_LANG_C)
    4189                            .dwattr $C$DW$T$65, DW_AT_decl_file("/home/pola/ti/ccsv8/tools/compiler/ti-cgt-arm_18.1.1.LTS/
    4190                            .dwattr $C$DW$T$65, DW_AT_decl_line(0x4b)
    4191                            .dwattr $C$DW$T$65, DW_AT_decl_column(0x0e)
    4192                    
    4193                    $C$DW$T$66      .dwtag  DW_TAG_typedef
    4194                            .dwattr $C$DW$T$66, DW_AT_name("__cpusetid_t")
    4195                            .dwattr $C$DW$T$66, DW_AT_type(*$C$DW$T$10)
    4196                            .dwattr $C$DW$T$66, DW_AT_language(DW_LANG_C)
    4197                            .dwattr $C$DW$T$66, DW_AT_decl_file("/home/pola/ti/ccsv8/tools/compiler/ti-cgt-arm_18.1.1.LTS/
    4198                            .dwattr $C$DW$T$66, DW_AT_decl_line(0x4c)
    4199                            .dwattr $C$DW$T$66, DW_AT_decl_column(0x0e)
    4200                    
    4201                    $C$DW$T$67      .dwtag  DW_TAG_typedef
    4202                            .dwattr $C$DW$T$67, DW_AT_name("__cpuwhich_t")
    4203                            .dwattr $C$DW$T$67, DW_AT_type(*$C$DW$T$10)
    4204                            .dwattr $C$DW$T$67, DW_AT_language(DW_LANG_C)
    4205                            .dwattr $C$DW$T$67, DW_AT_decl_file("/home/pola/ti/ccsv8/tools/compiler/ti-cgt-arm_18.1.1.LTS/
    4206                            .dwattr $C$DW$T$67, DW_AT_decl_line(0x4a)
    4207                            .dwattr $C$DW$T$67, DW_AT_decl_column(0x0e)
    4208                    
    4209                    $C$DW$T$68      .dwtag  DW_TAG_typedef
    4210                            .dwattr $C$DW$T$68, DW_AT_name("__ct_rune_t")
    4211                            .dwattr $C$DW$T$68, DW_AT_type(*$C$DW$T$10)
    4212                            .dwattr $C$DW$T$68, DW_AT_language(DW_LANG_C)
    4213                            .dwattr $C$DW$T$68, DW_AT_decl_file("/home/pola/ti/ccsv8/tools/compiler/ti-cgt-arm_18.1.1.LTS/
    4214                            .dwattr $C$DW$T$68, DW_AT_decl_line(0x60)
    4215                            .dwattr $C$DW$T$68, DW_AT_decl_column(0x0e)
    4216                    
    4217                    $C$DW$T$69      .dwtag  DW_TAG_typedef
    4218                            .dwattr $C$DW$T$69, DW_AT_name("__rune_t")
    4219                            .dwattr $C$DW$T$69, DW_AT_type(*$C$DW$T$68)
    4220                            .dwattr $C$DW$T$69, DW_AT_language(DW_LANG_C)
    4221                            .dwattr $C$DW$T$69, DW_AT_decl_file("/home/pola/ti/ccsv8/tools/compiler/ti-cgt-arm_18.1.1.LTS/
    4222                            .dwattr $C$DW$T$69, DW_AT_decl_line(0x61)
    4223                            .dwattr $C$DW$T$69, DW_AT_decl_column(0x15)
    4224                    
    4225                    $C$DW$T$70      .dwtag  DW_TAG_typedef
    4226                            .dwattr $C$DW$T$70, DW_AT_name("__wint_t")
    4227                            .dwattr $C$DW$T$70, DW_AT_type(*$C$DW$T$68)
    4228                            .dwattr $C$DW$T$70, DW_AT_language(DW_LANG_C)
    4229                            .dwattr $C$DW$T$70, DW_AT_decl_file("/home/pola/ti/ccsv8/tools/compiler/ti-cgt-arm_18.1.1.LTS/
    4230                            .dwattr $C$DW$T$70, DW_AT_decl_line(0x62)
TI ARM Assembler Unix v18.1.1 Fri Jul  3 20:08:23 2020

Tools Copyright (c) 1996-2017 Texas Instruments Incorporated
aes.asm                                                              PAGE   78

    4231                            .dwattr $C$DW$T$70, DW_AT_decl_column(0x15)
    4232                    
    4233                    $C$DW$T$71      .dwtag  DW_TAG_typedef
    4234                            .dwattr $C$DW$T$71, DW_AT_name("__int32_t")
    4235                            .dwattr $C$DW$T$71, DW_AT_type(*$C$DW$T$10)
    4236                            .dwattr $C$DW$T$71, DW_AT_language(DW_LANG_C)
    4237                            .dwattr $C$DW$T$71, DW_AT_decl_file("/home/pola/ti/ccsv8/tools/compiler/ti-cgt-arm_18.1.1.LTS/
    4238                            .dwattr $C$DW$T$71, DW_AT_decl_line(0x3d)
    4239                            .dwattr $C$DW$T$71, DW_AT_decl_column(0x0f)
    4240                    
    4241                    $C$DW$T$72      .dwtag  DW_TAG_typedef
    4242                            .dwattr $C$DW$T$72, DW_AT_name("__blksize_t")
    4243                            .dwattr $C$DW$T$72, DW_AT_type(*$C$DW$T$71)
    4244                            .dwattr $C$DW$T$72, DW_AT_language(DW_LANG_C)
    4245                            .dwattr $C$DW$T$72, DW_AT_decl_file("/home/pola/ti/ccsv8/tools/compiler/ti-cgt-arm_18.1.1.LTS/
    4246                            .dwattr $C$DW$T$72, DW_AT_decl_line(0x2e)
    4247                            .dwattr $C$DW$T$72, DW_AT_decl_column(0x13)
    4248                    
    4249                    $C$DW$T$73      .dwtag  DW_TAG_typedef
    4250                            .dwattr $C$DW$T$73, DW_AT_name("__clockid_t")
    4251                            .dwattr $C$DW$T$73, DW_AT_type(*$C$DW$T$71)
    4252                            .dwattr $C$DW$T$73, DW_AT_language(DW_LANG_C)
    4253                            .dwattr $C$DW$T$73, DW_AT_decl_file("/home/pola/ti/ccsv8/tools/compiler/ti-cgt-arm_18.1.1.LTS/
    4254                            .dwattr $C$DW$T$73, DW_AT_decl_line(0x30)
    4255                            .dwattr $C$DW$T$73, DW_AT_decl_column(0x13)
    4256                    
    4257                    $C$DW$T$74      .dwtag  DW_TAG_typedef
    4258                            .dwattr $C$DW$T$74, DW_AT_name("__critical_t")
    4259                            .dwattr $C$DW$T$74, DW_AT_type(*$C$DW$T$71)
    4260                            .dwattr $C$DW$T$74, DW_AT_language(DW_LANG_C)
    4261                            .dwattr $C$DW$T$74, DW_AT_decl_file("/home/pola/ti/ccsv8/tools/compiler/ti-cgt-arm_18.1.1.LTS/
    4262                            .dwattr $C$DW$T$74, DW_AT_decl_line(0x4e)
    4263                            .dwattr $C$DW$T$74, DW_AT_decl_column(0x13)
    4264                    
    4265                    $C$DW$T$75      .dwtag  DW_TAG_typedef
    4266                            .dwattr $C$DW$T$75, DW_AT_name("__int_fast16_t")
    4267                            .dwattr $C$DW$T$75, DW_AT_type(*$C$DW$T$71)
    4268                            .dwattr $C$DW$T$75, DW_AT_language(DW_LANG_C)
    4269                            .dwattr $C$DW$T$75, DW_AT_decl_file("/home/pola/ti/ccsv8/tools/compiler/ti-cgt-arm_18.1.1.LTS/
    4270                            .dwattr $C$DW$T$75, DW_AT_decl_line(0x55)
    4271                            .dwattr $C$DW$T$75, DW_AT_decl_column(0x13)
    4272                    
    4273                    $C$DW$T$76      .dwtag  DW_TAG_typedef
    4274                            .dwattr $C$DW$T$76, DW_AT_name("int_fast16_t")
    4275                            .dwattr $C$DW$T$76, DW_AT_type(*$C$DW$T$75)
    4276                            .dwattr $C$DW$T$76, DW_AT_language(DW_LANG_C)
    4277                            .dwattr $C$DW$T$76, DW_AT_decl_file("/home/pola/ti/ccsv8/tools/compiler/ti-cgt-arm_18.1.1.LTS/
    4278                            .dwattr $C$DW$T$76, DW_AT_decl_line(0x33)
    4279                            .dwattr $C$DW$T$76, DW_AT_decl_column(0x19)
    4280                    
    4281                    $C$DW$T$77      .dwtag  DW_TAG_typedef
    4282                            .dwattr $C$DW$T$77, DW_AT_name("__int_fast32_t")
    4283                            .dwattr $C$DW$T$77, DW_AT_type(*$C$DW$T$71)
    4284                            .dwattr $C$DW$T$77, DW_AT_language(DW_LANG_C)
    4285                            .dwattr $C$DW$T$77, DW_AT_decl_file("/home/pola/ti/ccsv8/tools/compiler/ti-cgt-arm_18.1.1.LTS/
TI ARM Assembler Unix v18.1.1 Fri Jul  3 20:08:23 2020

Tools Copyright (c) 1996-2017 Texas Instruments Incorporated
aes.asm                                                              PAGE   79

    4286                            .dwattr $C$DW$T$77, DW_AT_decl_line(0x56)
    4287                            .dwattr $C$DW$T$77, DW_AT_decl_column(0x13)
    4288                    
    4289                    $C$DW$T$78      .dwtag  DW_TAG_typedef
    4290                            .dwattr $C$DW$T$78, DW_AT_name("int_fast32_t")
    4291                            .dwattr $C$DW$T$78, DW_AT_type(*$C$DW$T$77)
    4292                            .dwattr $C$DW$T$78, DW_AT_language(DW_LANG_C)
    4293                            .dwattr $C$DW$T$78, DW_AT_decl_file("/home/pola/ti/ccsv8/tools/compiler/ti-cgt-arm_18.1.1.LTS/
    4294                            .dwattr $C$DW$T$78, DW_AT_decl_line(0x34)
    4295                            .dwattr $C$DW$T$78, DW_AT_decl_column(0x19)
    4296                    
    4297                    $C$DW$T$79      .dwtag  DW_TAG_typedef
    4298                            .dwattr $C$DW$T$79, DW_AT_name("__int_fast8_t")
    4299                            .dwattr $C$DW$T$79, DW_AT_type(*$C$DW$T$71)
    4300                            .dwattr $C$DW$T$79, DW_AT_language(DW_LANG_C)
    4301                            .dwattr $C$DW$T$79, DW_AT_decl_file("/home/pola/ti/ccsv8/tools/compiler/ti-cgt-arm_18.1.1.LTS/
    4302                            .dwattr $C$DW$T$79, DW_AT_decl_line(0x54)
    4303                            .dwattr $C$DW$T$79, DW_AT_decl_column(0x13)
    4304                    
    4305                    $C$DW$T$80      .dwtag  DW_TAG_typedef
    4306                            .dwattr $C$DW$T$80, DW_AT_name("int_fast8_t")
    4307                            .dwattr $C$DW$T$80, DW_AT_type(*$C$DW$T$79)
    4308                            .dwattr $C$DW$T$80, DW_AT_language(DW_LANG_C)
    4309                            .dwattr $C$DW$T$80, DW_AT_decl_file("/home/pola/ti/ccsv8/tools/compiler/ti-cgt-arm_18.1.1.LTS/
    4310                            .dwattr $C$DW$T$80, DW_AT_decl_line(0x32)
    4311                            .dwattr $C$DW$T$80, DW_AT_decl_column(0x18)
    4312                    
    4313                    $C$DW$T$81      .dwtag  DW_TAG_typedef
    4314                            .dwattr $C$DW$T$81, DW_AT_name("__int_least32_t")
    4315                            .dwattr $C$DW$T$81, DW_AT_type(*$C$DW$T$71)
    4316                            .dwattr $C$DW$T$81, DW_AT_language(DW_LANG_C)
    4317                            .dwattr $C$DW$T$81, DW_AT_decl_file("/home/pola/ti/ccsv8/tools/compiler/ti-cgt-arm_18.1.1.LTS/
    4318                            .dwattr $C$DW$T$81, DW_AT_decl_line(0x5a)
    4319                            .dwattr $C$DW$T$81, DW_AT_decl_column(0x13)
    4320                    
    4321                    $C$DW$T$82      .dwtag  DW_TAG_typedef
    4322                            .dwattr $C$DW$T$82, DW_AT_name("int_least32_t")
    4323                            .dwattr $C$DW$T$82, DW_AT_type(*$C$DW$T$81)
    4324                            .dwattr $C$DW$T$82, DW_AT_language(DW_LANG_C)
    4325                            .dwattr $C$DW$T$82, DW_AT_decl_file("/home/pola/ti/ccsv8/tools/compiler/ti-cgt-arm_18.1.1.LTS/
    4326                            .dwattr $C$DW$T$82, DW_AT_decl_line(0x2a)
    4327                            .dwattr $C$DW$T$82, DW_AT_decl_column(0x1a)
    4328                    
    4329                    $C$DW$T$83      .dwtag  DW_TAG_typedef
    4330                            .dwattr $C$DW$T$83, DW_AT_name("__intfptr_t")
    4331                            .dwattr $C$DW$T$83, DW_AT_type(*$C$DW$T$71)
    4332                            .dwattr $C$DW$T$83, DW_AT_language(DW_LANG_C)
    4333                            .dwattr $C$DW$T$83, DW_AT_decl_file("/home/pola/ti/ccsv8/tools/compiler/ti-cgt-arm_18.1.1.LTS/
    4334                            .dwattr $C$DW$T$83, DW_AT_decl_line(0x51)
    4335                            .dwattr $C$DW$T$83, DW_AT_decl_column(0x13)
    4336                    
    4337                    $C$DW$T$84      .dwtag  DW_TAG_typedef
    4338                            .dwattr $C$DW$T$84, DW_AT_name("__intptr_t")
    4339                            .dwattr $C$DW$T$84, DW_AT_type(*$C$DW$T$71)
    4340                            .dwattr $C$DW$T$84, DW_AT_language(DW_LANG_C)
TI ARM Assembler Unix v18.1.1 Fri Jul  3 20:08:23 2020

Tools Copyright (c) 1996-2017 Texas Instruments Incorporated
aes.asm                                                              PAGE   80

    4341                            .dwattr $C$DW$T$84, DW_AT_decl_file("/home/pola/ti/ccsv8/tools/compiler/ti-cgt-arm_18.1.1.LTS/
    4342                            .dwattr $C$DW$T$84, DW_AT_decl_line(0x53)
    4343                            .dwattr $C$DW$T$84, DW_AT_decl_column(0x13)
    4344                    
    4345                    $C$DW$T$85      .dwtag  DW_TAG_typedef
    4346                            .dwattr $C$DW$T$85, DW_AT_name("intptr_t")
    4347                            .dwattr $C$DW$T$85, DW_AT_type(*$C$DW$T$84)
    4348                            .dwattr $C$DW$T$85, DW_AT_language(DW_LANG_C)
    4349                            .dwattr $C$DW$T$85, DW_AT_decl_file("/home/pola/ti/ccsv8/tools/compiler/ti-cgt-arm_18.1.1.LTS/
    4350                            .dwattr $C$DW$T$85, DW_AT_decl_line(0x4c)
    4351                            .dwattr $C$DW$T$85, DW_AT_decl_column(0x15)
    4352                    
    4353                    $C$DW$T$86      .dwtag  DW_TAG_typedef
    4354                            .dwattr $C$DW$T$86, DW_AT_name("__lwpid_t")
    4355                            .dwattr $C$DW$T$86, DW_AT_type(*$C$DW$T$71)
    4356                            .dwattr $C$DW$T$86, DW_AT_language(DW_LANG_C)
    4357                            .dwattr $C$DW$T$86, DW_AT_decl_file("/home/pola/ti/ccsv8/tools/compiler/ti-cgt-arm_18.1.1.LTS/
    4358                            .dwattr $C$DW$T$86, DW_AT_decl_line(0x38)
    4359                            .dwattr $C$DW$T$86, DW_AT_decl_column(0x13)
    4360                    
    4361                    $C$DW$T$87      .dwtag  DW_TAG_typedef
    4362                            .dwattr $C$DW$T$87, DW_AT_name("__pid_t")
    4363                            .dwattr $C$DW$T$87, DW_AT_type(*$C$DW$T$71)
    4364                            .dwattr $C$DW$T$87, DW_AT_language(DW_LANG_C)
    4365                            .dwattr $C$DW$T$87, DW_AT_decl_file("/home/pola/ti/ccsv8/tools/compiler/ti-cgt-arm_18.1.1.LTS/
    4366                            .dwattr $C$DW$T$87, DW_AT_decl_line(0x3f)
    4367                            .dwattr $C$DW$T$87, DW_AT_decl_column(0x13)
    4368                    
    4369                    $C$DW$T$88      .dwtag  DW_TAG_typedef
    4370                            .dwattr $C$DW$T$88, DW_AT_name("__ptrdiff_t")
    4371                            .dwattr $C$DW$T$88, DW_AT_type(*$C$DW$T$71)
    4372                            .dwattr $C$DW$T$88, DW_AT_language(DW_LANG_C)
    4373                            .dwattr $C$DW$T$88, DW_AT_decl_file("/home/pola/ti/ccsv8/tools/compiler/ti-cgt-arm_18.1.1.LTS/
    4374                            .dwattr $C$DW$T$88, DW_AT_decl_line(0x5c)
    4375                            .dwattr $C$DW$T$88, DW_AT_decl_column(0x13)
    4376                    
    4377                    $C$DW$T$89      .dwtag  DW_TAG_typedef
    4378                            .dwattr $C$DW$T$89, DW_AT_name("__register_t")
    4379                            .dwattr $C$DW$T$89, DW_AT_type(*$C$DW$T$71)
    4380                            .dwattr $C$DW$T$89, DW_AT_language(DW_LANG_C)
    4381                            .dwattr $C$DW$T$89, DW_AT_decl_file("/home/pola/ti/ccsv8/tools/compiler/ti-cgt-arm_18.1.1.LTS/
    4382                            .dwattr $C$DW$T$89, DW_AT_decl_line(0x5d)
    4383                            .dwattr $C$DW$T$89, DW_AT_decl_column(0x13)
    4384                    
    4385                    $C$DW$T$90      .dwtag  DW_TAG_typedef
    4386                            .dwattr $C$DW$T$90, DW_AT_name("__segsz_t")
    4387                            .dwattr $C$DW$T$90, DW_AT_type(*$C$DW$T$71)
    4388                            .dwattr $C$DW$T$90, DW_AT_language(DW_LANG_C)
    4389                            .dwattr $C$DW$T$90, DW_AT_decl_file("/home/pola/ti/ccsv8/tools/compiler/ti-cgt-arm_18.1.1.LTS/
    4390                            .dwattr $C$DW$T$90, DW_AT_decl_line(0x5e)
    4391                            .dwattr $C$DW$T$90, DW_AT_decl_column(0x13)
    4392                    
    4393                    $C$DW$T$91      .dwtag  DW_TAG_typedef
    4394                            .dwattr $C$DW$T$91, DW_AT_name("__ssize_t")
    4395                            .dwattr $C$DW$T$91, DW_AT_type(*$C$DW$T$71)
TI ARM Assembler Unix v18.1.1 Fri Jul  3 20:08:23 2020

Tools Copyright (c) 1996-2017 Texas Instruments Incorporated
aes.asm                                                              PAGE   81

    4396                            .dwattr $C$DW$T$91, DW_AT_language(DW_LANG_C)
    4397                            .dwattr $C$DW$T$91, DW_AT_decl_file("/home/pola/ti/ccsv8/tools/compiler/ti-cgt-arm_18.1.1.LTS/
    4398                            .dwattr $C$DW$T$91, DW_AT_decl_line(0x60)
    4399                            .dwattr $C$DW$T$91, DW_AT_decl_column(0x13)
    4400                    
    4401                    $C$DW$T$92      .dwtag  DW_TAG_typedef
    4402                            .dwattr $C$DW$T$92, DW_AT_name("int32_t")
    4403                            .dwattr $C$DW$T$92, DW_AT_type(*$C$DW$T$71)
    4404                            .dwattr $C$DW$T$92, DW_AT_language(DW_LANG_C)
    4405                            .dwattr $C$DW$T$92, DW_AT_decl_file("/home/pola/ti/ccsv8/tools/compiler/ti-cgt-arm_18.1.1.LTS/
    4406                            .dwattr $C$DW$T$92, DW_AT_decl_line(0x2e)
    4407                            .dwattr $C$DW$T$92, DW_AT_decl_column(0x14)
    4408                    
    4409                    $C$DW$T$93      .dwtag  DW_TAG_typedef
    4410                            .dwattr $C$DW$T$93, DW_AT_name("__nl_item")
    4411                            .dwattr $C$DW$T$93, DW_AT_type(*$C$DW$T$10)
    4412                            .dwattr $C$DW$T$93, DW_AT_language(DW_LANG_C)
    4413                            .dwattr $C$DW$T$93, DW_AT_decl_file("/home/pola/ti/ccsv8/tools/compiler/ti-cgt-arm_18.1.1.LTS/
    4414                            .dwattr $C$DW$T$93, DW_AT_decl_line(0x3b)
    4415                            .dwattr $C$DW$T$93, DW_AT_decl_column(0x0e)
    4416                    
    4417                    $C$DW$T$11      .dwtag  DW_TAG_base_type
    4418                            .dwattr $C$DW$T$11, DW_AT_encoding(DW_ATE_unsigned)
    4419                            .dwattr $C$DW$T$11, DW_AT_name("unsigned int")
    4420                            .dwattr $C$DW$T$11, DW_AT_byte_size(0x04)
    4421                    
    4422                    $C$DW$T$26      .dwtag  DW_TAG_typedef
    4423                            .dwattr $C$DW$T$26, DW_AT_name("__uint32_t")
    4424                            .dwattr $C$DW$T$26, DW_AT_type(*$C$DW$T$11)
    4425                            .dwattr $C$DW$T$26, DW_AT_language(DW_LANG_C)
    4426                            .dwattr $C$DW$T$26, DW_AT_decl_file("/home/pola/ti/ccsv8/tools/compiler/ti-cgt-arm_18.1.1.LTS/
    4427                            .dwattr $C$DW$T$26, DW_AT_decl_line(0x3e)
    4428                            .dwattr $C$DW$T$26, DW_AT_decl_column(0x17)
    4429                    
    4430                    $C$DW$T$94      .dwtag  DW_TAG_typedef
    4431                            .dwattr $C$DW$T$94, DW_AT_name("__clock_t")
    4432                            .dwattr $C$DW$T$94, DW_AT_type(*$C$DW$T$26)
    4433                            .dwattr $C$DW$T$94, DW_AT_language(DW_LANG_C)
    4434                            .dwattr $C$DW$T$94, DW_AT_decl_file("/home/pola/ti/ccsv8/tools/compiler/ti-cgt-arm_18.1.1.LTS/
    4435                            .dwattr $C$DW$T$94, DW_AT_decl_line(0x4d)
    4436                            .dwattr $C$DW$T$94, DW_AT_decl_column(0x14)
    4437                    
    4438                    $C$DW$T$95      .dwtag  DW_TAG_typedef
    4439                            .dwattr $C$DW$T$95, DW_AT_name("__fflags_t")
    4440                            .dwattr $C$DW$T$95, DW_AT_type(*$C$DW$T$26)
    4441                            .dwattr $C$DW$T$95, DW_AT_language(DW_LANG_C)
    4442                            .dwattr $C$DW$T$95, DW_AT_decl_file("/home/pola/ti/ccsv8/tools/compiler/ti-cgt-arm_18.1.1.LTS/
    4443                            .dwattr $C$DW$T$95, DW_AT_decl_line(0x31)
    4444                            .dwattr $C$DW$T$95, DW_AT_decl_column(0x14)
    4445                    
    4446                    $C$DW$T$96      .dwtag  DW_TAG_typedef
    4447                            .dwattr $C$DW$T$96, DW_AT_name("__fixpt_t")
    4448                            .dwattr $C$DW$T$96, DW_AT_type(*$C$DW$T$26)
    4449                            .dwattr $C$DW$T$96, DW_AT_language(DW_LANG_C)
    4450                            .dwattr $C$DW$T$96, DW_AT_decl_file("/home/pola/ti/ccsv8/tools/compiler/ti-cgt-arm_18.1.1.LTS/
TI ARM Assembler Unix v18.1.1 Fri Jul  3 20:08:23 2020

Tools Copyright (c) 1996-2017 Texas Instruments Incorporated
aes.asm                                                              PAGE   82

    4451                            .dwattr $C$DW$T$96, DW_AT_decl_line(0x76)
    4452                            .dwattr $C$DW$T$96, DW_AT_decl_column(0x14)
    4453                    
    4454                    $C$DW$T$97      .dwtag  DW_TAG_typedef
    4455                            .dwattr $C$DW$T$97, DW_AT_name("__gid_t")
    4456                            .dwattr $C$DW$T$97, DW_AT_type(*$C$DW$T$26)
    4457                            .dwattr $C$DW$T$97, DW_AT_language(DW_LANG_C)
    4458                            .dwattr $C$DW$T$97, DW_AT_decl_file("/home/pola/ti/ccsv8/tools/compiler/ti-cgt-arm_18.1.1.LTS/
    4459                            .dwattr $C$DW$T$97, DW_AT_decl_line(0x34)
    4460                            .dwattr $C$DW$T$97, DW_AT_decl_column(0x14)
    4461                    
    4462                    $C$DW$T$98      .dwtag  DW_TAG_typedef
    4463                            .dwattr $C$DW$T$98, DW_AT_name("__size_t")
    4464                            .dwattr $C$DW$T$98, DW_AT_type(*$C$DW$T$26)
    4465                            .dwattr $C$DW$T$98, DW_AT_language(DW_LANG_C)
    4466                            .dwattr $C$DW$T$98, DW_AT_decl_file("/home/pola/ti/ccsv8/tools/compiler/ti-cgt-arm_18.1.1.LTS/
    4467                            .dwattr $C$DW$T$98, DW_AT_decl_line(0x5f)
    4468                            .dwattr $C$DW$T$98, DW_AT_decl_column(0x14)
    4469                    
    4470                    $C$DW$T$99      .dwtag  DW_TAG_typedef
    4471                            .dwattr $C$DW$T$99, DW_AT_name("__socklen_t")
    4472                            .dwattr $C$DW$T$99, DW_AT_type(*$C$DW$T$26)
    4473                            .dwattr $C$DW$T$99, DW_AT_language(DW_LANG_C)
    4474                            .dwattr $C$DW$T$99, DW_AT_decl_file("/home/pola/ti/ccsv8/tools/compiler/ti-cgt-arm_18.1.1.LTS/
    4475                            .dwattr $C$DW$T$99, DW_AT_decl_line(0x44)
    4476                            .dwattr $C$DW$T$99, DW_AT_decl_column(0x14)
    4477                    
    4478                    $C$DW$T$100     .dwtag  DW_TAG_typedef
    4479                            .dwattr $C$DW$T$100, DW_AT_name("__time_t")
    4480                            .dwattr $C$DW$T$100, DW_AT_type(*$C$DW$T$26)
    4481                            .dwattr $C$DW$T$100, DW_AT_language(DW_LANG_C)
    4482                            .dwattr $C$DW$T$100, DW_AT_decl_file("/home/pola/ti/ccsv8/tools/compiler/ti-cgt-arm_18.1.1.LTS
    4483                            .dwattr $C$DW$T$100, DW_AT_decl_line(0x64)
    4484                            .dwattr $C$DW$T$100, DW_AT_decl_column(0x19)
    4485                    
    4486                    $C$DW$T$101     .dwtag  DW_TAG_typedef
    4487                            .dwattr $C$DW$T$101, DW_AT_name("__u_register_t")
    4488                            .dwattr $C$DW$T$101, DW_AT_type(*$C$DW$T$26)
    4489                            .dwattr $C$DW$T$101, DW_AT_language(DW_LANG_C)
    4490                            .dwattr $C$DW$T$101, DW_AT_decl_file("/home/pola/ti/ccsv8/tools/compiler/ti-cgt-arm_18.1.1.LTS
    4491                            .dwattr $C$DW$T$101, DW_AT_decl_line(0x71)
    4492                            .dwattr $C$DW$T$101, DW_AT_decl_column(0x14)
    4493                    
    4494                    $C$DW$T$102     .dwtag  DW_TAG_typedef
    4495                            .dwattr $C$DW$T$102, DW_AT_name("__uid_t")
    4496                            .dwattr $C$DW$T$102, DW_AT_type(*$C$DW$T$26)
    4497                            .dwattr $C$DW$T$102, DW_AT_language(DW_LANG_C)
    4498                            .dwattr $C$DW$T$102, DW_AT_decl_file("/home/pola/ti/ccsv8/tools/compiler/ti-cgt-arm_18.1.1.LTS
    4499                            .dwattr $C$DW$T$102, DW_AT_decl_line(0x48)
    4500                            .dwattr $C$DW$T$102, DW_AT_decl_column(0x14)
    4501                    
    4502                    $C$DW$T$103     .dwtag  DW_TAG_typedef
    4503                            .dwattr $C$DW$T$103, DW_AT_name("__uint_fast16_t")
    4504                            .dwattr $C$DW$T$103, DW_AT_type(*$C$DW$T$26)
    4505                            .dwattr $C$DW$T$103, DW_AT_language(DW_LANG_C)
TI ARM Assembler Unix v18.1.1 Fri Jul  3 20:08:23 2020

Tools Copyright (c) 1996-2017 Texas Instruments Incorporated
aes.asm                                                              PAGE   83

    4506                            .dwattr $C$DW$T$103, DW_AT_decl_file("/home/pola/ti/ccsv8/tools/compiler/ti-cgt-arm_18.1.1.LTS
    4507                            .dwattr $C$DW$T$103, DW_AT_decl_line(0x6a)
    4508                            .dwattr $C$DW$T$103, DW_AT_decl_column(0x14)
    4509                    
    4510                    $C$DW$T$104     .dwtag  DW_TAG_typedef
    4511                            .dwattr $C$DW$T$104, DW_AT_name("uint_fast16_t")
    4512                            .dwattr $C$DW$T$104, DW_AT_type(*$C$DW$T$103)
    4513                            .dwattr $C$DW$T$104, DW_AT_language(DW_LANG_C)
    4514                            .dwattr $C$DW$T$104, DW_AT_decl_file("/home/pola/ti/ccsv8/tools/compiler/ti-cgt-arm_18.1.1.LTS
    4515                            .dwattr $C$DW$T$104, DW_AT_decl_line(0x38)
    4516                            .dwattr $C$DW$T$104, DW_AT_decl_column(0x1a)
    4517                    
    4518                    $C$DW$T$105     .dwtag  DW_TAG_typedef
    4519                            .dwattr $C$DW$T$105, DW_AT_name("__uint_fast32_t")
    4520                            .dwattr $C$DW$T$105, DW_AT_type(*$C$DW$T$26)
    4521                            .dwattr $C$DW$T$105, DW_AT_language(DW_LANG_C)
    4522                            .dwattr $C$DW$T$105, DW_AT_decl_file("/home/pola/ti/ccsv8/tools/compiler/ti-cgt-arm_18.1.1.LTS
    4523                            .dwattr $C$DW$T$105, DW_AT_decl_line(0x6b)
    4524                            .dwattr $C$DW$T$105, DW_AT_decl_column(0x14)
    4525                    
    4526                    $C$DW$T$106     .dwtag  DW_TAG_typedef
    4527                            .dwattr $C$DW$T$106, DW_AT_name("uint_fast32_t")
    4528                            .dwattr $C$DW$T$106, DW_AT_type(*$C$DW$T$105)
    4529                            .dwattr $C$DW$T$106, DW_AT_language(DW_LANG_C)
    4530                            .dwattr $C$DW$T$106, DW_AT_decl_file("/home/pola/ti/ccsv8/tools/compiler/ti-cgt-arm_18.1.1.LTS
    4531                            .dwattr $C$DW$T$106, DW_AT_decl_line(0x39)
    4532                            .dwattr $C$DW$T$106, DW_AT_decl_column(0x1a)
    4533                    
    4534                    $C$DW$T$107     .dwtag  DW_TAG_typedef
    4535                            .dwattr $C$DW$T$107, DW_AT_name("__uint_fast8_t")
    4536                            .dwattr $C$DW$T$107, DW_AT_type(*$C$DW$T$26)
    4537                            .dwattr $C$DW$T$107, DW_AT_language(DW_LANG_C)
    4538                            .dwattr $C$DW$T$107, DW_AT_decl_file("/home/pola/ti/ccsv8/tools/compiler/ti-cgt-arm_18.1.1.LTS
    4539                            .dwattr $C$DW$T$107, DW_AT_decl_line(0x69)
    4540                            .dwattr $C$DW$T$107, DW_AT_decl_column(0x14)
    4541                    
    4542                    $C$DW$T$108     .dwtag  DW_TAG_typedef
    4543                            .dwattr $C$DW$T$108, DW_AT_name("uint_fast8_t")
    4544                            .dwattr $C$DW$T$108, DW_AT_type(*$C$DW$T$107)
    4545                            .dwattr $C$DW$T$108, DW_AT_language(DW_LANG_C)
    4546                            .dwattr $C$DW$T$108, DW_AT_decl_file("/home/pola/ti/ccsv8/tools/compiler/ti-cgt-arm_18.1.1.LTS
    4547                            .dwattr $C$DW$T$108, DW_AT_decl_line(0x37)
    4548                            .dwattr $C$DW$T$108, DW_AT_decl_column(0x19)
    4549                    
    4550                    $C$DW$T$109     .dwtag  DW_TAG_typedef
    4551                            .dwattr $C$DW$T$109, DW_AT_name("__uint_least32_t")
    4552                            .dwattr $C$DW$T$109, DW_AT_type(*$C$DW$T$26)
    4553                            .dwattr $C$DW$T$109, DW_AT_language(DW_LANG_C)
    4554                            .dwattr $C$DW$T$109, DW_AT_decl_file("/home/pola/ti/ccsv8/tools/compiler/ti-cgt-arm_18.1.1.LTS
    4555                            .dwattr $C$DW$T$109, DW_AT_decl_line(0x6f)
    4556                            .dwattr $C$DW$T$109, DW_AT_decl_column(0x14)
    4557                    
    4558                    $C$DW$T$110     .dwtag  DW_TAG_typedef
    4559                            .dwattr $C$DW$T$110, DW_AT_name("__char32_t")
    4560                            .dwattr $C$DW$T$110, DW_AT_type(*$C$DW$T$109)
TI ARM Assembler Unix v18.1.1 Fri Jul  3 20:08:23 2020

Tools Copyright (c) 1996-2017 Texas Instruments Incorporated
aes.asm                                                              PAGE   84

    4561                            .dwattr $C$DW$T$110, DW_AT_language(DW_LANG_C)
    4562                            .dwattr $C$DW$T$110, DW_AT_decl_file("/home/pola/ti/ccsv8/tools/compiler/ti-cgt-arm_18.1.1.LTS
    4563                            .dwattr $C$DW$T$110, DW_AT_decl_line(0x67)
    4564                            .dwattr $C$DW$T$110, DW_AT_decl_column(0x1a)
    4565                    
    4566                    $C$DW$T$111     .dwtag  DW_TAG_typedef
    4567                            .dwattr $C$DW$T$111, DW_AT_name("uint_least32_t")
    4568                            .dwattr $C$DW$T$111, DW_AT_type(*$C$DW$T$109)
    4569                            .dwattr $C$DW$T$111, DW_AT_language(DW_LANG_C)
    4570                            .dwattr $C$DW$T$111, DW_AT_decl_file("/home/pola/ti/ccsv8/tools/compiler/ti-cgt-arm_18.1.1.LTS
    4571                            .dwattr $C$DW$T$111, DW_AT_decl_line(0x2f)
    4572                            .dwattr $C$DW$T$111, DW_AT_decl_column(0x1a)
    4573                    
    4574                    $C$DW$T$112     .dwtag  DW_TAG_typedef
    4575                            .dwattr $C$DW$T$112, DW_AT_name("__uintfptr_t")
    4576                            .dwattr $C$DW$T$112, DW_AT_type(*$C$DW$T$26)
    4577                            .dwattr $C$DW$T$112, DW_AT_language(DW_LANG_C)
    4578                            .dwattr $C$DW$T$112, DW_AT_decl_file("/home/pola/ti/ccsv8/tools/compiler/ti-cgt-arm_18.1.1.LTS
    4579                            .dwattr $C$DW$T$112, DW_AT_decl_line(0x66)
    4580                            .dwattr $C$DW$T$112, DW_AT_decl_column(0x14)
    4581                    
    4582                    $C$DW$T$113     .dwtag  DW_TAG_typedef
    4583                            .dwattr $C$DW$T$113, DW_AT_name("__uintptr_t")
    4584                            .dwattr $C$DW$T$113, DW_AT_type(*$C$DW$T$26)
    4585                            .dwattr $C$DW$T$113, DW_AT_language(DW_LANG_C)
    4586                            .dwattr $C$DW$T$113, DW_AT_decl_file("/home/pola/ti/ccsv8/tools/compiler/ti-cgt-arm_18.1.1.LTS
    4587                            .dwattr $C$DW$T$113, DW_AT_decl_line(0x68)
    4588                            .dwattr $C$DW$T$113, DW_AT_decl_column(0x14)
    4589                    
    4590                    $C$DW$T$114     .dwtag  DW_TAG_typedef
    4591                            .dwattr $C$DW$T$114, DW_AT_name("uintptr_t")
    4592                            .dwattr $C$DW$T$114, DW_AT_type(*$C$DW$T$113)
    4593                            .dwattr $C$DW$T$114, DW_AT_language(DW_LANG_C)
    4594                            .dwattr $C$DW$T$114, DW_AT_decl_file("/home/pola/ti/ccsv8/tools/compiler/ti-cgt-arm_18.1.1.LTS
    4595                            .dwattr $C$DW$T$114, DW_AT_decl_line(0x50)
    4596                            .dwattr $C$DW$T$114, DW_AT_decl_column(0x16)
    4597                    
    4598                    $C$DW$T$115     .dwtag  DW_TAG_typedef
    4599                            .dwattr $C$DW$T$115, DW_AT_name("__vm_offset_t")
    4600                            .dwattr $C$DW$T$115, DW_AT_type(*$C$DW$T$26)
    4601                            .dwattr $C$DW$T$115, DW_AT_language(DW_LANG_C)
    4602                            .dwattr $C$DW$T$115, DW_AT_decl_file("/home/pola/ti/ccsv8/tools/compiler/ti-cgt-arm_18.1.1.LTS
    4603                            .dwattr $C$DW$T$115, DW_AT_decl_line(0x72)
    4604                            .dwattr $C$DW$T$115, DW_AT_decl_column(0x14)
    4605                    
    4606                    $C$DW$T$116     .dwtag  DW_TAG_typedef
    4607                            .dwattr $C$DW$T$116, DW_AT_name("__vm_paddr_t")
    4608                            .dwattr $C$DW$T$116, DW_AT_type(*$C$DW$T$26)
    4609                            .dwattr $C$DW$T$116, DW_AT_language(DW_LANG_C)
    4610                            .dwattr $C$DW$T$116, DW_AT_decl_file("/home/pola/ti/ccsv8/tools/compiler/ti-cgt-arm_18.1.1.LTS
    4611                            .dwattr $C$DW$T$116, DW_AT_decl_line(0x73)
    4612                            .dwattr $C$DW$T$116, DW_AT_decl_column(0x14)
    4613                    
    4614                    $C$DW$T$117     .dwtag  DW_TAG_typedef
    4615                            .dwattr $C$DW$T$117, DW_AT_name("__vm_size_t")
TI ARM Assembler Unix v18.1.1 Fri Jul  3 20:08:23 2020

Tools Copyright (c) 1996-2017 Texas Instruments Incorporated
aes.asm                                                              PAGE   85

    4616                            .dwattr $C$DW$T$117, DW_AT_type(*$C$DW$T$26)
    4617                            .dwattr $C$DW$T$117, DW_AT_language(DW_LANG_C)
    4618                            .dwattr $C$DW$T$117, DW_AT_decl_file("/home/pola/ti/ccsv8/tools/compiler/ti-cgt-arm_18.1.1.LTS
    4619                            .dwattr $C$DW$T$117, DW_AT_decl_line(0x74)
    4620                            .dwattr $C$DW$T$117, DW_AT_decl_column(0x14)
    4621                    
    4622                    $C$DW$T$27      .dwtag  DW_TAG_typedef
    4623                            .dwattr $C$DW$T$27, DW_AT_name("uint32_t")
    4624                            .dwattr $C$DW$T$27, DW_AT_type(*$C$DW$T$26)
    4625                            .dwattr $C$DW$T$27, DW_AT_language(DW_LANG_C)
    4626                            .dwattr $C$DW$T$27, DW_AT_decl_file("/home/pola/ti/ccsv8/tools/compiler/ti-cgt-arm_18.1.1.LTS/
    4627                            .dwattr $C$DW$T$27, DW_AT_decl_line(0x42)
    4628                            .dwattr $C$DW$T$27, DW_AT_decl_column(0x15)
    4629                    
    4630                    $C$DW$T$34      .dwtag  DW_TAG_pointer_type
    4631                            .dwattr $C$DW$T$34, DW_AT_type(*$C$DW$T$27)
    4632                            .dwattr $C$DW$T$34, DW_AT_address_class(0x20)
    4633                    
    4634                    $C$DW$T$122     .dwtag  DW_TAG_typedef
    4635                            .dwattr $C$DW$T$122, DW_AT_name("__useconds_t")
    4636                            .dwattr $C$DW$T$122, DW_AT_type(*$C$DW$T$11)
    4637                            .dwattr $C$DW$T$122, DW_AT_language(DW_LANG_C)
    4638                            .dwattr $C$DW$T$122, DW_AT_decl_file("/home/pola/ti/ccsv8/tools/compiler/ti-cgt-arm_18.1.1.LTS
    4639                            .dwattr $C$DW$T$122, DW_AT_decl_line(0x49)
    4640                            .dwattr $C$DW$T$122, DW_AT_decl_column(0x16)
    4641                    
    4642                    $C$DW$T$12      .dwtag  DW_TAG_base_type
    4643                            .dwattr $C$DW$T$12, DW_AT_encoding(DW_ATE_signed)
    4644                            .dwattr $C$DW$T$12, DW_AT_name("long")
    4645                            .dwattr $C$DW$T$12, DW_AT_byte_size(0x04)
    4646                    
    4647                    $C$DW$T$123     .dwtag  DW_TAG_typedef
    4648                            .dwattr $C$DW$T$123, DW_AT_name("__key_t")
    4649                            .dwattr $C$DW$T$123, DW_AT_type(*$C$DW$T$12)
    4650                            .dwattr $C$DW$T$123, DW_AT_language(DW_LANG_C)
    4651                            .dwattr $C$DW$T$123, DW_AT_decl_file("/home/pola/ti/ccsv8/tools/compiler/ti-cgt-arm_18.1.1.LTS
    4652                            .dwattr $C$DW$T$123, DW_AT_decl_line(0x37)
    4653                            .dwattr $C$DW$T$123, DW_AT_decl_column(0x0f)
    4654                    
    4655                    $C$DW$T$124     .dwtag  DW_TAG_typedef
    4656                            .dwattr $C$DW$T$124, DW_AT_name("__suseconds_t")
    4657                            .dwattr $C$DW$T$124, DW_AT_type(*$C$DW$T$12)
    4658                            .dwattr $C$DW$T$124, DW_AT_language(DW_LANG_C)
    4659                            .dwattr $C$DW$T$124, DW_AT_decl_file("/home/pola/ti/ccsv8/tools/compiler/ti-cgt-arm_18.1.1.LTS
    4660                            .dwattr $C$DW$T$124, DW_AT_decl_line(0x45)
    4661                            .dwattr $C$DW$T$124, DW_AT_decl_column(0x0f)
    4662                    
    4663                    $C$DW$T$13      .dwtag  DW_TAG_base_type
    4664                            .dwattr $C$DW$T$13, DW_AT_encoding(DW_ATE_unsigned)
    4665                            .dwattr $C$DW$T$13, DW_AT_name("unsigned long")
    4666                            .dwattr $C$DW$T$13, DW_AT_byte_size(0x04)
    4667                    
    4668                    $C$DW$T$14      .dwtag  DW_TAG_base_type
    4669                            .dwattr $C$DW$T$14, DW_AT_encoding(DW_ATE_signed)
    4670                            .dwattr $C$DW$T$14, DW_AT_name("long long")
TI ARM Assembler Unix v18.1.1 Fri Jul  3 20:08:23 2020

Tools Copyright (c) 1996-2017 Texas Instruments Incorporated
aes.asm                                                              PAGE   86

    4671                            .dwattr $C$DW$T$14, DW_AT_byte_size(0x08)
    4672                    
    4673                    $C$DW$T$125     .dwtag  DW_TAG_typedef
    4674                            .dwattr $C$DW$T$125, DW_AT_name("__int64_t")
    4675                            .dwattr $C$DW$T$125, DW_AT_type(*$C$DW$T$14)
    4676                            .dwattr $C$DW$T$125, DW_AT_language(DW_LANG_C)
    4677                            .dwattr $C$DW$T$125, DW_AT_decl_file("/home/pola/ti/ccsv8/tools/compiler/ti-cgt-arm_18.1.1.LTS
    4678                            .dwattr $C$DW$T$125, DW_AT_decl_line(0x43)
    4679                            .dwattr $C$DW$T$125, DW_AT_decl_column(0x14)
    4680                    
    4681                    $C$DW$T$126     .dwtag  DW_TAG_typedef
    4682                            .dwattr $C$DW$T$126, DW_AT_name("__blkcnt_t")
    4683                            .dwattr $C$DW$T$126, DW_AT_type(*$C$DW$T$125)
    4684                            .dwattr $C$DW$T$126, DW_AT_language(DW_LANG_C)
    4685                            .dwattr $C$DW$T$126, DW_AT_decl_file("/home/pola/ti/ccsv8/tools/compiler/ti-cgt-arm_18.1.1.LTS
    4686                            .dwattr $C$DW$T$126, DW_AT_decl_line(0x2f)
    4687                            .dwattr $C$DW$T$126, DW_AT_decl_column(0x13)
    4688                    
    4689                    $C$DW$T$127     .dwtag  DW_TAG_typedef
    4690                            .dwattr $C$DW$T$127, DW_AT_name("__id_t")
    4691                            .dwattr $C$DW$T$127, DW_AT_type(*$C$DW$T$125)
    4692                            .dwattr $C$DW$T$127, DW_AT_language(DW_LANG_C)
    4693                            .dwattr $C$DW$T$127, DW_AT_decl_file("/home/pola/ti/ccsv8/tools/compiler/ti-cgt-arm_18.1.1.LTS
    4694                            .dwattr $C$DW$T$127, DW_AT_decl_line(0x35)
    4695                            .dwattr $C$DW$T$127, DW_AT_decl_column(0x13)
    4696                    
    4697                    $C$DW$T$128     .dwtag  DW_TAG_typedef
    4698                            .dwattr $C$DW$T$128, DW_AT_name("__int_fast64_t")
    4699                            .dwattr $C$DW$T$128, DW_AT_type(*$C$DW$T$125)
    4700                            .dwattr $C$DW$T$128, DW_AT_language(DW_LANG_C)
    4701                            .dwattr $C$DW$T$128, DW_AT_decl_file("/home/pola/ti/ccsv8/tools/compiler/ti-cgt-arm_18.1.1.LTS
    4702                            .dwattr $C$DW$T$128, DW_AT_decl_line(0x57)
    4703                            .dwattr $C$DW$T$128, DW_AT_decl_column(0x13)
    4704                    
    4705                    $C$DW$T$129     .dwtag  DW_TAG_typedef
    4706                            .dwattr $C$DW$T$129, DW_AT_name("int_fast64_t")
    4707                            .dwattr $C$DW$T$129, DW_AT_type(*$C$DW$T$128)
    4708                            .dwattr $C$DW$T$129, DW_AT_language(DW_LANG_C)
    4709                            .dwattr $C$DW$T$129, DW_AT_decl_file("/home/pola/ti/ccsv8/tools/compiler/ti-cgt-arm_18.1.1.LTS
    4710                            .dwattr $C$DW$T$129, DW_AT_decl_line(0x35)
    4711                            .dwattr $C$DW$T$129, DW_AT_decl_column(0x19)
    4712                    
    4713                    $C$DW$T$130     .dwtag  DW_TAG_typedef
    4714                            .dwattr $C$DW$T$130, DW_AT_name("__int_least64_t")
    4715                            .dwattr $C$DW$T$130, DW_AT_type(*$C$DW$T$125)
    4716                            .dwattr $C$DW$T$130, DW_AT_language(DW_LANG_C)
    4717                            .dwattr $C$DW$T$130, DW_AT_decl_file("/home/pola/ti/ccsv8/tools/compiler/ti-cgt-arm_18.1.1.LTS
    4718                            .dwattr $C$DW$T$130, DW_AT_decl_line(0x5b)
    4719                            .dwattr $C$DW$T$130, DW_AT_decl_column(0x13)
    4720                    
    4721                    $C$DW$T$131     .dwtag  DW_TAG_typedef
    4722                            .dwattr $C$DW$T$131, DW_AT_name("int_least64_t")
    4723                            .dwattr $C$DW$T$131, DW_AT_type(*$C$DW$T$130)
    4724                            .dwattr $C$DW$T$131, DW_AT_language(DW_LANG_C)
    4725                            .dwattr $C$DW$T$131, DW_AT_decl_file("/home/pola/ti/ccsv8/tools/compiler/ti-cgt-arm_18.1.1.LTS
TI ARM Assembler Unix v18.1.1 Fri Jul  3 20:08:23 2020

Tools Copyright (c) 1996-2017 Texas Instruments Incorporated
aes.asm                                                              PAGE   87

    4726                            .dwattr $C$DW$T$131, DW_AT_decl_line(0x2b)
    4727                            .dwattr $C$DW$T$131, DW_AT_decl_column(0x1a)
    4728                    
    4729                    $C$DW$T$132     .dwtag  DW_TAG_typedef
    4730                            .dwattr $C$DW$T$132, DW_AT_name("__intmax_t")
    4731                            .dwattr $C$DW$T$132, DW_AT_type(*$C$DW$T$125)
    4732                            .dwattr $C$DW$T$132, DW_AT_language(DW_LANG_C)
    4733                            .dwattr $C$DW$T$132, DW_AT_decl_file("/home/pola/ti/ccsv8/tools/compiler/ti-cgt-arm_18.1.1.LTS
    4734                            .dwattr $C$DW$T$132, DW_AT_decl_line(0x52)
    4735                            .dwattr $C$DW$T$132, DW_AT_decl_column(0x13)
    4736                    
    4737                    $C$DW$T$133     .dwtag  DW_TAG_typedef
    4738                            .dwattr $C$DW$T$133, DW_AT_name("intmax_t")
    4739                            .dwattr $C$DW$T$133, DW_AT_type(*$C$DW$T$132)
    4740                            .dwattr $C$DW$T$133, DW_AT_language(DW_LANG_C)
    4741                            .dwattr $C$DW$T$133, DW_AT_decl_file("/home/pola/ti/ccsv8/tools/compiler/ti-cgt-arm_18.1.1.LTS
    4742                            .dwattr $C$DW$T$133, DW_AT_decl_line(0x54)
    4743                            .dwattr $C$DW$T$133, DW_AT_decl_column(0x15)
    4744                    
    4745                    $C$DW$T$134     .dwtag  DW_TAG_typedef
    4746                            .dwattr $C$DW$T$134, DW_AT_name("__off64_t")
    4747                            .dwattr $C$DW$T$134, DW_AT_type(*$C$DW$T$125)
    4748                            .dwattr $C$DW$T$134, DW_AT_language(DW_LANG_C)
    4749                            .dwattr $C$DW$T$134, DW_AT_decl_file("/home/pola/ti/ccsv8/tools/compiler/ti-cgt-arm_18.1.1.LTS
    4750                            .dwattr $C$DW$T$134, DW_AT_decl_line(0x3e)
    4751                            .dwattr $C$DW$T$134, DW_AT_decl_column(0x13)
    4752                    
    4753                    $C$DW$T$135     .dwtag  DW_TAG_typedef
    4754                            .dwattr $C$DW$T$135, DW_AT_name("__off_t")
    4755                            .dwattr $C$DW$T$135, DW_AT_type(*$C$DW$T$125)
    4756                            .dwattr $C$DW$T$135, DW_AT_language(DW_LANG_C)
    4757                            .dwattr $C$DW$T$135, DW_AT_decl_file("/home/pola/ti/ccsv8/tools/compiler/ti-cgt-arm_18.1.1.LTS
    4758                            .dwattr $C$DW$T$135, DW_AT_decl_line(0x3d)
    4759                            .dwattr $C$DW$T$135, DW_AT_decl_column(0x13)
    4760                    
    4761                    $C$DW$T$136     .dwtag  DW_TAG_typedef
    4762                            .dwattr $C$DW$T$136, DW_AT_name("__rlim_t")
    4763                            .dwattr $C$DW$T$136, DW_AT_type(*$C$DW$T$125)
    4764                            .dwattr $C$DW$T$136, DW_AT_language(DW_LANG_C)
    4765                            .dwattr $C$DW$T$136, DW_AT_decl_file("/home/pola/ti/ccsv8/tools/compiler/ti-cgt-arm_18.1.1.LTS
    4766                            .dwattr $C$DW$T$136, DW_AT_decl_line(0x40)
    4767                            .dwattr $C$DW$T$136, DW_AT_decl_column(0x13)
    4768                    
    4769                    $C$DW$T$137     .dwtag  DW_TAG_typedef
    4770                            .dwattr $C$DW$T$137, DW_AT_name("int64_t")
    4771                            .dwattr $C$DW$T$137, DW_AT_type(*$C$DW$T$125)
    4772                            .dwattr $C$DW$T$137, DW_AT_language(DW_LANG_C)
    4773                            .dwattr $C$DW$T$137, DW_AT_decl_file("/home/pola/ti/ccsv8/tools/compiler/ti-cgt-arm_18.1.1.LTS
    4774                            .dwattr $C$DW$T$137, DW_AT_decl_line(0x33)
    4775                            .dwattr $C$DW$T$137, DW_AT_decl_column(0x14)
    4776                    
    4777                    $C$DW$T$15      .dwtag  DW_TAG_base_type
    4778                            .dwattr $C$DW$T$15, DW_AT_encoding(DW_ATE_unsigned)
    4779                            .dwattr $C$DW$T$15, DW_AT_name("unsigned long long")
    4780                            .dwattr $C$DW$T$15, DW_AT_byte_size(0x08)
TI ARM Assembler Unix v18.1.1 Fri Jul  3 20:08:23 2020

Tools Copyright (c) 1996-2017 Texas Instruments Incorporated
aes.asm                                                              PAGE   88

    4781                    
    4782                    $C$DW$T$38      .dwtag  DW_TAG_typedef
    4783                            .dwattr $C$DW$T$38, DW_AT_name("__uint64_t")
    4784                            .dwattr $C$DW$T$38, DW_AT_type(*$C$DW$T$15)
    4785                            .dwattr $C$DW$T$38, DW_AT_language(DW_LANG_C)
    4786                            .dwattr $C$DW$T$38, DW_AT_decl_file("/home/pola/ti/ccsv8/tools/compiler/ti-cgt-arm_18.1.1.LTS/
    4787                            .dwattr $C$DW$T$38, DW_AT_decl_line(0x48)
    4788                            .dwattr $C$DW$T$38, DW_AT_decl_column(0x1c)
    4789                    
    4790                    $C$DW$T$138     .dwtag  DW_TAG_typedef
    4791                            .dwattr $C$DW$T$138, DW_AT_name("__dev_t")
    4792                            .dwattr $C$DW$T$138, DW_AT_type(*$C$DW$T$38)
    4793                            .dwattr $C$DW$T$138, DW_AT_language(DW_LANG_C)
    4794                            .dwattr $C$DW$T$138, DW_AT_decl_file("/home/pola/ti/ccsv8/tools/compiler/ti-cgt-arm_18.1.1.LTS
    4795                            .dwattr $C$DW$T$138, DW_AT_decl_line(0x74)
    4796                            .dwattr $C$DW$T$138, DW_AT_decl_column(0x14)
    4797                    
    4798                    $C$DW$T$139     .dwtag  DW_TAG_typedef
    4799                            .dwattr $C$DW$T$139, DW_AT_name("__fsblkcnt_t")
    4800                            .dwattr $C$DW$T$139, DW_AT_type(*$C$DW$T$38)
    4801                            .dwattr $C$DW$T$139, DW_AT_language(DW_LANG_C)
    4802                            .dwattr $C$DW$T$139, DW_AT_decl_file("/home/pola/ti/ccsv8/tools/compiler/ti-cgt-arm_18.1.1.LTS
    4803                            .dwattr $C$DW$T$139, DW_AT_decl_line(0x32)
    4804                            .dwattr $C$DW$T$139, DW_AT_decl_column(0x14)
    4805                    
    4806                    $C$DW$T$140     .dwtag  DW_TAG_typedef
    4807                            .dwattr $C$DW$T$140, DW_AT_name("__fsfilcnt_t")
    4808                            .dwattr $C$DW$T$140, DW_AT_type(*$C$DW$T$38)
    4809                            .dwattr $C$DW$T$140, DW_AT_language(DW_LANG_C)
    4810                            .dwattr $C$DW$T$140, DW_AT_decl_file("/home/pola/ti/ccsv8/tools/compiler/ti-cgt-arm_18.1.1.LTS
    4811                            .dwattr $C$DW$T$140, DW_AT_decl_line(0x33)
    4812                            .dwattr $C$DW$T$140, DW_AT_decl_column(0x14)
    4813                    
    4814                    $C$DW$T$141     .dwtag  DW_TAG_typedef
    4815                            .dwattr $C$DW$T$141, DW_AT_name("__ino_t")
    4816                            .dwattr $C$DW$T$141, DW_AT_type(*$C$DW$T$38)
    4817                            .dwattr $C$DW$T$141, DW_AT_language(DW_LANG_C)
    4818                            .dwattr $C$DW$T$141, DW_AT_decl_file("/home/pola/ti/ccsv8/tools/compiler/ti-cgt-arm_18.1.1.LTS
    4819                            .dwattr $C$DW$T$141, DW_AT_decl_line(0x36)
    4820                            .dwattr $C$DW$T$141, DW_AT_decl_column(0x14)
    4821                    
    4822                    $C$DW$T$142     .dwtag  DW_TAG_typedef
    4823                            .dwattr $C$DW$T$142, DW_AT_name("__nlink_t")
    4824                            .dwattr $C$DW$T$142, DW_AT_type(*$C$DW$T$38)
    4825                            .dwattr $C$DW$T$142, DW_AT_language(DW_LANG_C)
    4826                            .dwattr $C$DW$T$142, DW_AT_decl_file("/home/pola/ti/ccsv8/tools/compiler/ti-cgt-arm_18.1.1.LTS
    4827                            .dwattr $C$DW$T$142, DW_AT_decl_line(0x3c)
    4828                            .dwattr $C$DW$T$142, DW_AT_decl_column(0x14)
    4829                    
    4830                    $C$DW$T$143     .dwtag  DW_TAG_typedef
    4831                            .dwattr $C$DW$T$143, DW_AT_name("__uint_fast64_t")
    4832                            .dwattr $C$DW$T$143, DW_AT_type(*$C$DW$T$38)
    4833                            .dwattr $C$DW$T$143, DW_AT_language(DW_LANG_C)
    4834                            .dwattr $C$DW$T$143, DW_AT_decl_file("/home/pola/ti/ccsv8/tools/compiler/ti-cgt-arm_18.1.1.LTS
    4835                            .dwattr $C$DW$T$143, DW_AT_decl_line(0x6c)
TI ARM Assembler Unix v18.1.1 Fri Jul  3 20:08:23 2020

Tools Copyright (c) 1996-2017 Texas Instruments Incorporated
aes.asm                                                              PAGE   89

    4836                            .dwattr $C$DW$T$143, DW_AT_decl_column(0x14)
    4837                    
    4838                    $C$DW$T$144     .dwtag  DW_TAG_typedef
    4839                            .dwattr $C$DW$T$144, DW_AT_name("uint_fast64_t")
    4840                            .dwattr $C$DW$T$144, DW_AT_type(*$C$DW$T$143)
    4841                            .dwattr $C$DW$T$144, DW_AT_language(DW_LANG_C)
    4842                            .dwattr $C$DW$T$144, DW_AT_decl_file("/home/pola/ti/ccsv8/tools/compiler/ti-cgt-arm_18.1.1.LTS
    4843                            .dwattr $C$DW$T$144, DW_AT_decl_line(0x3a)
    4844                            .dwattr $C$DW$T$144, DW_AT_decl_column(0x1a)
    4845                    
    4846                    $C$DW$T$145     .dwtag  DW_TAG_typedef
    4847                            .dwattr $C$DW$T$145, DW_AT_name("__uint_least64_t")
    4848                            .dwattr $C$DW$T$145, DW_AT_type(*$C$DW$T$38)
    4849                            .dwattr $C$DW$T$145, DW_AT_language(DW_LANG_C)
    4850                            .dwattr $C$DW$T$145, DW_AT_decl_file("/home/pola/ti/ccsv8/tools/compiler/ti-cgt-arm_18.1.1.LTS
    4851                            .dwattr $C$DW$T$145, DW_AT_decl_line(0x70)
    4852                            .dwattr $C$DW$T$145, DW_AT_decl_column(0x14)
    4853                    
    4854                    $C$DW$T$146     .dwtag  DW_TAG_typedef
    4855                            .dwattr $C$DW$T$146, DW_AT_name("uint_least64_t")
    4856                            .dwattr $C$DW$T$146, DW_AT_type(*$C$DW$T$145)
    4857                            .dwattr $C$DW$T$146, DW_AT_language(DW_LANG_C)
    4858                            .dwattr $C$DW$T$146, DW_AT_decl_file("/home/pola/ti/ccsv8/tools/compiler/ti-cgt-arm_18.1.1.LTS
    4859                            .dwattr $C$DW$T$146, DW_AT_decl_line(0x30)
    4860                            .dwattr $C$DW$T$146, DW_AT_decl_column(0x1a)
    4861                    
    4862                    $C$DW$T$147     .dwtag  DW_TAG_typedef
    4863                            .dwattr $C$DW$T$147, DW_AT_name("__uintmax_t")
    4864                            .dwattr $C$DW$T$147, DW_AT_type(*$C$DW$T$38)
    4865                            .dwattr $C$DW$T$147, DW_AT_language(DW_LANG_C)
    4866                            .dwattr $C$DW$T$147, DW_AT_decl_file("/home/pola/ti/ccsv8/tools/compiler/ti-cgt-arm_18.1.1.LTS
    4867                            .dwattr $C$DW$T$147, DW_AT_decl_line(0x67)
    4868                            .dwattr $C$DW$T$147, DW_AT_decl_column(0x14)
    4869                    
    4870                    $C$DW$T$148     .dwtag  DW_TAG_typedef
    4871                            .dwattr $C$DW$T$148, DW_AT_name("__rman_res_t")
    4872                            .dwattr $C$DW$T$148, DW_AT_type(*$C$DW$T$147)
    4873                            .dwattr $C$DW$T$148, DW_AT_language(DW_LANG_C)
    4874                            .dwattr $C$DW$T$148, DW_AT_decl_file("/home/pola/ti/ccsv8/tools/compiler/ti-cgt-arm_18.1.1.LTS
    4875                            .dwattr $C$DW$T$148, DW_AT_decl_line(0x8f)
    4876                            .dwattr $C$DW$T$148, DW_AT_decl_column(0x19)
    4877                    
    4878                    $C$DW$T$149     .dwtag  DW_TAG_typedef
    4879                            .dwattr $C$DW$T$149, DW_AT_name("uintmax_t")
    4880                            .dwattr $C$DW$T$149, DW_AT_type(*$C$DW$T$147)
    4881                            .dwattr $C$DW$T$149, DW_AT_language(DW_LANG_C)
    4882                            .dwattr $C$DW$T$149, DW_AT_decl_file("/home/pola/ti/ccsv8/tools/compiler/ti-cgt-arm_18.1.1.LTS
    4883                            .dwattr $C$DW$T$149, DW_AT_decl_line(0x58)
    4884                            .dwattr $C$DW$T$149, DW_AT_decl_column(0x16)
    4885                    
    4886                    $C$DW$T$39      .dwtag  DW_TAG_typedef
    4887                            .dwattr $C$DW$T$39, DW_AT_name("uint64_t")
    4888                            .dwattr $C$DW$T$39, DW_AT_type(*$C$DW$T$38)
    4889                            .dwattr $C$DW$T$39, DW_AT_language(DW_LANG_C)
    4890                            .dwattr $C$DW$T$39, DW_AT_decl_file("/home/pola/ti/ccsv8/tools/compiler/ti-cgt-arm_18.1.1.LTS/
TI ARM Assembler Unix v18.1.1 Fri Jul  3 20:08:23 2020

Tools Copyright (c) 1996-2017 Texas Instruments Incorporated
aes.asm                                                              PAGE   90

    4891                            .dwattr $C$DW$T$39, DW_AT_decl_line(0x47)
    4892                            .dwattr $C$DW$T$39, DW_AT_decl_column(0x15)
    4893                    
    4894                    $C$DW$T$16      .dwtag  DW_TAG_base_type
    4895                            .dwattr $C$DW$T$16, DW_AT_encoding(DW_ATE_float)
    4896                            .dwattr $C$DW$T$16, DW_AT_name("float")
    4897                            .dwattr $C$DW$T$16, DW_AT_byte_size(0x04)
    4898                    
    4899                    $C$DW$T$150     .dwtag  DW_TAG_typedef
    4900                            .dwattr $C$DW$T$150, DW_AT_name("__float_t")
    4901                            .dwattr $C$DW$T$150, DW_AT_type(*$C$DW$T$16)
    4902                            .dwattr $C$DW$T$150, DW_AT_language(DW_LANG_C)
    4903                            .dwattr $C$DW$T$150, DW_AT_decl_file("/home/pola/ti/ccsv8/tools/compiler/ti-cgt-arm_18.1.1.LTS
    4904                            .dwattr $C$DW$T$150, DW_AT_decl_line(0x50)
    4905                            .dwattr $C$DW$T$150, DW_AT_decl_column(0x10)
    4906                    
    4907                    $C$DW$T$17      .dwtag  DW_TAG_base_type
    4908                            .dwattr $C$DW$T$17, DW_AT_encoding(DW_ATE_float)
    4909                            .dwattr $C$DW$T$17, DW_AT_name("double")
    4910                            .dwattr $C$DW$T$17, DW_AT_byte_size(0x08)
    4911                    
    4912                    $C$DW$T$151     .dwtag  DW_TAG_typedef
    4913                            .dwattr $C$DW$T$151, DW_AT_name("__double_t")
    4914                            .dwattr $C$DW$T$151, DW_AT_type(*$C$DW$T$17)
    4915                            .dwattr $C$DW$T$151, DW_AT_language(DW_LANG_C)
    4916                            .dwattr $C$DW$T$151, DW_AT_decl_file("/home/pola/ti/ccsv8/tools/compiler/ti-cgt-arm_18.1.1.LTS
    4917                            .dwattr $C$DW$T$151, DW_AT_decl_line(0x4f)
    4918                            .dwattr $C$DW$T$151, DW_AT_decl_column(0x11)
    4919                    
    4920                    $C$DW$T$18      .dwtag  DW_TAG_base_type
    4921                            .dwattr $C$DW$T$18, DW_AT_encoding(DW_ATE_float)
    4922                            .dwattr $C$DW$T$18, DW_AT_name("long double")
    4923                            .dwattr $C$DW$T$18, DW_AT_byte_size(0x08)
    4924                    
    4925                    $C$DW$T$118     .dwtag  DW_TAG_base_type
    4926                            .dwattr $C$DW$T$118, DW_AT_encoding(DW_ATE_unsigned_char)
    4927                            .dwattr $C$DW$T$118, DW_AT_name("unsigned char")
    4928                            .dwattr $C$DW$T$118, DW_AT_byte_size(0x01)
    4929                    
    4930                    
    4931                    $C$DW$T$19      .dwtag  DW_TAG_structure_type
    4932                            .dwattr $C$DW$T$19, DW_AT_name("__mq")
    4933                            .dwattr $C$DW$T$19, DW_AT_declaration
    4934                            .dwattr $C$DW$T$19, DW_AT_decl_file("/home/pola/ti/ccsv8/tools/compiler/ti-cgt-arm_18.1.1.LTS/
    4935                            .dwattr $C$DW$T$19, DW_AT_decl_line(0x47)
    4936                            .dwattr $C$DW$T$19, DW_AT_decl_column(0x10)
    4937                            .dwendtag $C$DW$T$19
    4938                    
    4939                    $C$DW$T$156     .dwtag  DW_TAG_pointer_type
    4940                            .dwattr $C$DW$T$156, DW_AT_type(*$C$DW$T$19)
    4941                            .dwattr $C$DW$T$156, DW_AT_address_class(0x20)
    4942                    
    4943                    $C$DW$T$157     .dwtag  DW_TAG_typedef
    4944                            .dwattr $C$DW$T$157, DW_AT_name("__mqd_t")
    4945                            .dwattr $C$DW$T$157, DW_AT_type(*$C$DW$T$156)
TI ARM Assembler Unix v18.1.1 Fri Jul  3 20:08:23 2020

Tools Copyright (c) 1996-2017 Texas Instruments Incorporated
aes.asm                                                              PAGE   91

    4946                            .dwattr $C$DW$T$157, DW_AT_language(DW_LANG_C)
    4947                            .dwattr $C$DW$T$157, DW_AT_decl_file("/home/pola/ti/ccsv8/tools/compiler/ti-cgt-arm_18.1.1.LTS
    4948                            .dwattr $C$DW$T$157, DW_AT_decl_line(0x47)
    4949                            .dwattr $C$DW$T$157, DW_AT_decl_column(0x16)
    4950                    
    4951                    
    4952                    $C$DW$T$20      .dwtag  DW_TAG_structure_type
    4953                            .dwattr $C$DW$T$20, DW_AT_name("__timer")
    4954                            .dwattr $C$DW$T$20, DW_AT_declaration
    4955                            .dwattr $C$DW$T$20, DW_AT_decl_file("/home/pola/ti/ccsv8/tools/compiler/ti-cgt-arm_18.1.1.LTS/
    4956                            .dwattr $C$DW$T$20, DW_AT_decl_line(0x46)
    4957                            .dwattr $C$DW$T$20, DW_AT_decl_column(0x10)
    4958                            .dwendtag $C$DW$T$20
    4959                    
    4960                    $C$DW$T$158     .dwtag  DW_TAG_pointer_type
    4961                            .dwattr $C$DW$T$158, DW_AT_type(*$C$DW$T$20)
    4962                            .dwattr $C$DW$T$158, DW_AT_address_class(0x20)
    4963                    
    4964                    $C$DW$T$159     .dwtag  DW_TAG_typedef
    4965                            .dwattr $C$DW$T$159, DW_AT_name("__timer_t")
    4966                            .dwattr $C$DW$T$159, DW_AT_type(*$C$DW$T$158)
    4967                            .dwattr $C$DW$T$159, DW_AT_language(DW_LANG_C)
    4968                            .dwattr $C$DW$T$159, DW_AT_decl_file("/home/pola/ti/ccsv8/tools/compiler/ti-cgt-arm_18.1.1.LTS
    4969                            .dwattr $C$DW$T$159, DW_AT_decl_line(0x46)
    4970                            .dwattr $C$DW$T$159, DW_AT_decl_column(0x19)
    4971                    
    4972                    
    4973                    $C$DW$T$22      .dwtag  DW_TAG_structure_type
    4974                            .dwattr $C$DW$T$22, DW_AT_name("__va_list_t")
    4975                            .dwattr $C$DW$T$22, DW_AT_byte_size(0x04)
    4976                    $C$DW$199       .dwtag  DW_TAG_member
    4977                            .dwattr $C$DW$199, DW_AT_type(*$C$DW$T$3)
    4978                            .dwattr $C$DW$199, DW_AT_name("__ap")
    4979                            .dwattr $C$DW$199, DW_AT_TI_symbol_name("__ap")
    4980                            .dwattr $C$DW$199, DW_AT_data_member_location[DW_OP_plus_uconst 0x0]
    4981                            .dwattr $C$DW$199, DW_AT_accessibility(DW_ACCESS_public)
    4982                            .dwattr $C$DW$199, DW_AT_decl_file("/home/pola/ti/ccsv8/tools/compiler/ti-cgt-arm_18.1.1.LTS/i
    4983                            .dwattr $C$DW$199, DW_AT_decl_line(0x88)
    4984                            .dwattr $C$DW$199, DW_AT_decl_column(0x0c)
    4985                    
    4986                            .dwattr $C$DW$T$22, DW_AT_decl_file("/home/pola/ti/ccsv8/tools/compiler/ti-cgt-arm_18.1.1.LTS/
    4987                            .dwattr $C$DW$T$22, DW_AT_decl_line(0x87)
    4988                            .dwattr $C$DW$T$22, DW_AT_decl_column(0x10)
    4989                            .dwendtag $C$DW$T$22
    4990                    
    4991                    $C$DW$T$160     .dwtag  DW_TAG_typedef
    4992                            .dwattr $C$DW$T$160, DW_AT_name("__va_list")
    4993                            .dwattr $C$DW$T$160, DW_AT_type(*$C$DW$T$22)
    4994                            .dwattr $C$DW$T$160, DW_AT_language(DW_LANG_C)
    4995                            .dwattr $C$DW$T$160, DW_AT_decl_file("/home/pola/ti/ccsv8/tools/compiler/ti-cgt-arm_18.1.1.LTS
    4996                            .dwattr $C$DW$T$160, DW_AT_decl_line(0x89)
    4997                            .dwattr $C$DW$T$160, DW_AT_decl_column(0x03)
    4998                    
    4999                            .dwattr $C$DW$CU, DW_AT_language(DW_LANG_C)
    5000                    
TI ARM Assembler Unix v18.1.1 Fri Jul  3 20:08:23 2020

Tools Copyright (c) 1996-2017 Texas Instruments Incorporated
aes.asm                                                              PAGE   92

    5001                    ;***************************************************************
    5002                    ;* DWARF CIE ENTRIES                                           *
    5003                    ;***************************************************************
    5004                    
    5005                    $C$DW$CIE       .dwcie 14
    5006                            .dwcfi  cfa_register, 13
    5007                            .dwcfi  cfa_offset, 0
    5008                            .dwcfi  same_value, 4
    5009                            .dwcfi  same_value, 5
    5010                            .dwcfi  same_value, 6
    5011                            .dwcfi  same_value, 7
    5012                            .dwcfi  same_value, 8
    5013                            .dwcfi  same_value, 9
    5014                            .dwcfi  same_value, 10
    5015                            .dwcfi  same_value, 11
    5016                            .dwcfi  same_value, 80
    5017                            .dwcfi  same_value, 81
    5018                            .dwcfi  same_value, 82
    5019                            .dwcfi  same_value, 83
    5020                            .dwcfi  same_value, 84
    5021                            .dwcfi  same_value, 85
    5022                            .dwcfi  same_value, 86
    5023                            .dwcfi  same_value, 87
    5024                            .dwcfi  same_value, 88
    5025                            .dwcfi  same_value, 89
    5026                            .dwcfi  same_value, 90
    5027                            .dwcfi  same_value, 91
    5028                            .dwcfi  same_value, 92
    5029                            .dwcfi  same_value, 93
    5030                            .dwcfi  same_value, 94
    5031                            .dwcfi  same_value, 95
    5032                            .dwendentry
    5033                    
    5034                    ;***************************************************************
    5035                    ;* DWARF REGISTER MAP                                          *
    5036                    ;***************************************************************
    5037                    
    5038                    $C$DW$200       .dwtag  DW_TAG_TI_assign_register
    5039                            .dwattr $C$DW$200, DW_AT_name("A1")
    5040                            .dwattr $C$DW$200, DW_AT_location[DW_OP_reg0]
    5041                    
    5042                    $C$DW$201       .dwtag  DW_TAG_TI_assign_register
    5043                            .dwattr $C$DW$201, DW_AT_name("A2")
    5044                            .dwattr $C$DW$201, DW_AT_location[DW_OP_reg1]
    5045                    
    5046                    $C$DW$202       .dwtag  DW_TAG_TI_assign_register
    5047                            .dwattr $C$DW$202, DW_AT_name("A3")
    5048                            .dwattr $C$DW$202, DW_AT_location[DW_OP_reg2]
    5049                    
    5050                    $C$DW$203       .dwtag  DW_TAG_TI_assign_register
    5051                            .dwattr $C$DW$203, DW_AT_name("A4")
    5052                            .dwattr $C$DW$203, DW_AT_location[DW_OP_reg3]
    5053                    
    5054                    $C$DW$204       .dwtag  DW_TAG_TI_assign_register
    5055                            .dwattr $C$DW$204, DW_AT_name("V1")
TI ARM Assembler Unix v18.1.1 Fri Jul  3 20:08:23 2020

Tools Copyright (c) 1996-2017 Texas Instruments Incorporated
aes.asm                                                              PAGE   93

    5056                            .dwattr $C$DW$204, DW_AT_location[DW_OP_reg4]
    5057                    
    5058                    $C$DW$205       .dwtag  DW_TAG_TI_assign_register
    5059                            .dwattr $C$DW$205, DW_AT_name("V2")
    5060                            .dwattr $C$DW$205, DW_AT_location[DW_OP_reg5]
    5061                    
    5062                    $C$DW$206       .dwtag  DW_TAG_TI_assign_register
    5063                            .dwattr $C$DW$206, DW_AT_name("V3")
    5064                            .dwattr $C$DW$206, DW_AT_location[DW_OP_reg6]
    5065                    
    5066                    $C$DW$207       .dwtag  DW_TAG_TI_assign_register
    5067                            .dwattr $C$DW$207, DW_AT_name("V4")
    5068                            .dwattr $C$DW$207, DW_AT_location[DW_OP_reg7]
    5069                    
    5070                    $C$DW$208       .dwtag  DW_TAG_TI_assign_register
    5071                            .dwattr $C$DW$208, DW_AT_name("V5")
    5072                            .dwattr $C$DW$208, DW_AT_location[DW_OP_reg8]
    5073                    
    5074                    $C$DW$209       .dwtag  DW_TAG_TI_assign_register
    5075                            .dwattr $C$DW$209, DW_AT_name("V6")
    5076                            .dwattr $C$DW$209, DW_AT_location[DW_OP_reg9]
    5077                    
    5078                    $C$DW$210       .dwtag  DW_TAG_TI_assign_register
    5079                            .dwattr $C$DW$210, DW_AT_name("V7")
    5080                            .dwattr $C$DW$210, DW_AT_location[DW_OP_reg10]
    5081                    
    5082                    $C$DW$211       .dwtag  DW_TAG_TI_assign_register
    5083                            .dwattr $C$DW$211, DW_AT_name("V8")
    5084                            .dwattr $C$DW$211, DW_AT_location[DW_OP_reg11]
    5085                    
    5086                    $C$DW$212       .dwtag  DW_TAG_TI_assign_register
    5087                            .dwattr $C$DW$212, DW_AT_name("V9")
    5088                            .dwattr $C$DW$212, DW_AT_location[DW_OP_reg12]
    5089                    
    5090                    $C$DW$213       .dwtag  DW_TAG_TI_assign_register
    5091                            .dwattr $C$DW$213, DW_AT_name("SP")
    5092                            .dwattr $C$DW$213, DW_AT_location[DW_OP_reg13]
    5093                    
    5094                    $C$DW$214       .dwtag  DW_TAG_TI_assign_register
    5095                            .dwattr $C$DW$214, DW_AT_name("LR")
    5096                            .dwattr $C$DW$214, DW_AT_location[DW_OP_reg14]
    5097                    
    5098                    $C$DW$215       .dwtag  DW_TAG_TI_assign_register
    5099                            .dwattr $C$DW$215, DW_AT_name("PC")
    5100                            .dwattr $C$DW$215, DW_AT_location[DW_OP_reg15]
    5101                    
    5102                    $C$DW$216       .dwtag  DW_TAG_TI_assign_register
    5103                            .dwattr $C$DW$216, DW_AT_name("SR")
    5104                            .dwattr $C$DW$216, DW_AT_location[DW_OP_reg17]
    5105                    
    5106                    $C$DW$217       .dwtag  DW_TAG_TI_assign_register
    5107                            .dwattr $C$DW$217, DW_AT_name("AP")
    5108                            .dwattr $C$DW$217, DW_AT_location[DW_OP_reg7]
    5109                    
    5110                    $C$DW$218       .dwtag  DW_TAG_TI_assign_register
TI ARM Assembler Unix v18.1.1 Fri Jul  3 20:08:23 2020

Tools Copyright (c) 1996-2017 Texas Instruments Incorporated
aes.asm                                                              PAGE   94

    5111                            .dwattr $C$DW$218, DW_AT_name("D0")
    5112                            .dwattr $C$DW$218, DW_AT_location[DW_OP_regx 0x40]
    5113                    
    5114                    $C$DW$219       .dwtag  DW_TAG_TI_assign_register
    5115                            .dwattr $C$DW$219, DW_AT_name("D0_hi")
    5116                            .dwattr $C$DW$219, DW_AT_location[DW_OP_regx 0x41]
    5117                    
    5118                    $C$DW$220       .dwtag  DW_TAG_TI_assign_register
    5119                            .dwattr $C$DW$220, DW_AT_name("D1")
    5120                            .dwattr $C$DW$220, DW_AT_location[DW_OP_regx 0x42]
    5121                    
    5122                    $C$DW$221       .dwtag  DW_TAG_TI_assign_register
    5123                            .dwattr $C$DW$221, DW_AT_name("D1_hi")
    5124                            .dwattr $C$DW$221, DW_AT_location[DW_OP_regx 0x43]
    5125                    
    5126                    $C$DW$222       .dwtag  DW_TAG_TI_assign_register
    5127                            .dwattr $C$DW$222, DW_AT_name("D2")
    5128                            .dwattr $C$DW$222, DW_AT_location[DW_OP_regx 0x44]
    5129                    
    5130                    $C$DW$223       .dwtag  DW_TAG_TI_assign_register
    5131                            .dwattr $C$DW$223, DW_AT_name("D2_hi")
    5132                            .dwattr $C$DW$223, DW_AT_location[DW_OP_regx 0x45]
    5133                    
    5134                    $C$DW$224       .dwtag  DW_TAG_TI_assign_register
    5135                            .dwattr $C$DW$224, DW_AT_name("D3")
    5136                            .dwattr $C$DW$224, DW_AT_location[DW_OP_regx 0x46]
    5137                    
    5138                    $C$DW$225       .dwtag  DW_TAG_TI_assign_register
    5139                            .dwattr $C$DW$225, DW_AT_name("D3_hi")
    5140                            .dwattr $C$DW$225, DW_AT_location[DW_OP_regx 0x47]
    5141                    
    5142                    $C$DW$226       .dwtag  DW_TAG_TI_assign_register
    5143                            .dwattr $C$DW$226, DW_AT_name("D4")
    5144                            .dwattr $C$DW$226, DW_AT_location[DW_OP_regx 0x48]
    5145                    
    5146                    $C$DW$227       .dwtag  DW_TAG_TI_assign_register
    5147                            .dwattr $C$DW$227, DW_AT_name("D4_hi")
    5148                            .dwattr $C$DW$227, DW_AT_location[DW_OP_regx 0x49]
    5149                    
    5150                    $C$DW$228       .dwtag  DW_TAG_TI_assign_register
    5151                            .dwattr $C$DW$228, DW_AT_name("D5")
    5152                            .dwattr $C$DW$228, DW_AT_location[DW_OP_regx 0x4a]
    5153                    
    5154                    $C$DW$229       .dwtag  DW_TAG_TI_assign_register
    5155                            .dwattr $C$DW$229, DW_AT_name("D5_hi")
    5156                            .dwattr $C$DW$229, DW_AT_location[DW_OP_regx 0x4b]
    5157                    
    5158                    $C$DW$230       .dwtag  DW_TAG_TI_assign_register
    5159                            .dwattr $C$DW$230, DW_AT_name("D6")
    5160                            .dwattr $C$DW$230, DW_AT_location[DW_OP_regx 0x4c]
    5161                    
    5162                    $C$DW$231       .dwtag  DW_TAG_TI_assign_register
    5163                            .dwattr $C$DW$231, DW_AT_name("D6_hi")
    5164                            .dwattr $C$DW$231, DW_AT_location[DW_OP_regx 0x4d]
    5165                    
TI ARM Assembler Unix v18.1.1 Fri Jul  3 20:08:23 2020

Tools Copyright (c) 1996-2017 Texas Instruments Incorporated
aes.asm                                                              PAGE   95

    5166                    $C$DW$232       .dwtag  DW_TAG_TI_assign_register
    5167                            .dwattr $C$DW$232, DW_AT_name("D7")
    5168                            .dwattr $C$DW$232, DW_AT_location[DW_OP_regx 0x4e]
    5169                    
    5170                    $C$DW$233       .dwtag  DW_TAG_TI_assign_register
    5171                            .dwattr $C$DW$233, DW_AT_name("D7_hi")
    5172                            .dwattr $C$DW$233, DW_AT_location[DW_OP_regx 0x4f]
    5173                    
    5174                    $C$DW$234       .dwtag  DW_TAG_TI_assign_register
    5175                            .dwattr $C$DW$234, DW_AT_name("D8")
    5176                            .dwattr $C$DW$234, DW_AT_location[DW_OP_regx 0x50]
    5177                    
    5178                    $C$DW$235       .dwtag  DW_TAG_TI_assign_register
    5179                            .dwattr $C$DW$235, DW_AT_name("D8_hi")
    5180                            .dwattr $C$DW$235, DW_AT_location[DW_OP_regx 0x51]
    5181                    
    5182                    $C$DW$236       .dwtag  DW_TAG_TI_assign_register
    5183                            .dwattr $C$DW$236, DW_AT_name("D9")
    5184                            .dwattr $C$DW$236, DW_AT_location[DW_OP_regx 0x52]
    5185                    
    5186                    $C$DW$237       .dwtag  DW_TAG_TI_assign_register
    5187                            .dwattr $C$DW$237, DW_AT_name("D9_hi")
    5188                            .dwattr $C$DW$237, DW_AT_location[DW_OP_regx 0x53]
    5189                    
    5190                    $C$DW$238       .dwtag  DW_TAG_TI_assign_register
    5191                            .dwattr $C$DW$238, DW_AT_name("D10")
    5192                            .dwattr $C$DW$238, DW_AT_location[DW_OP_regx 0x54]
    5193                    
    5194                    $C$DW$239       .dwtag  DW_TAG_TI_assign_register
    5195                            .dwattr $C$DW$239, DW_AT_name("D10_hi")
    5196                            .dwattr $C$DW$239, DW_AT_location[DW_OP_regx 0x55]
    5197                    
    5198                    $C$DW$240       .dwtag  DW_TAG_TI_assign_register
    5199                            .dwattr $C$DW$240, DW_AT_name("D11")
    5200                            .dwattr $C$DW$240, DW_AT_location[DW_OP_regx 0x56]
    5201                    
    5202                    $C$DW$241       .dwtag  DW_TAG_TI_assign_register
    5203                            .dwattr $C$DW$241, DW_AT_name("D11_hi")
    5204                            .dwattr $C$DW$241, DW_AT_location[DW_OP_regx 0x57]
    5205                    
    5206                    $C$DW$242       .dwtag  DW_TAG_TI_assign_register
    5207                            .dwattr $C$DW$242, DW_AT_name("D12")
    5208                            .dwattr $C$DW$242, DW_AT_location[DW_OP_regx 0x58]
    5209                    
    5210                    $C$DW$243       .dwtag  DW_TAG_TI_assign_register
    5211                            .dwattr $C$DW$243, DW_AT_name("D12_hi")
    5212                            .dwattr $C$DW$243, DW_AT_location[DW_OP_regx 0x59]
    5213                    
    5214                    $C$DW$244       .dwtag  DW_TAG_TI_assign_register
    5215                            .dwattr $C$DW$244, DW_AT_name("D13")
    5216                            .dwattr $C$DW$244, DW_AT_location[DW_OP_regx 0x5a]
    5217                    
    5218                    $C$DW$245       .dwtag  DW_TAG_TI_assign_register
    5219                            .dwattr $C$DW$245, DW_AT_name("D13_hi")
    5220                            .dwattr $C$DW$245, DW_AT_location[DW_OP_regx 0x5b]
TI ARM Assembler Unix v18.1.1 Fri Jul  3 20:08:23 2020

Tools Copyright (c) 1996-2017 Texas Instruments Incorporated
aes.asm                                                              PAGE   96

    5221                    
    5222                    $C$DW$246       .dwtag  DW_TAG_TI_assign_register
    5223                            .dwattr $C$DW$246, DW_AT_name("D14")
    5224                            .dwattr $C$DW$246, DW_AT_location[DW_OP_regx 0x5c]
    5225                    
    5226                    $C$DW$247       .dwtag  DW_TAG_TI_assign_register
    5227                            .dwattr $C$DW$247, DW_AT_name("D14_hi")
    5228                            .dwattr $C$DW$247, DW_AT_location[DW_OP_regx 0x5d]
    5229                    
    5230                    $C$DW$248       .dwtag  DW_TAG_TI_assign_register
    5231                            .dwattr $C$DW$248, DW_AT_name("D15")
    5232                            .dwattr $C$DW$248, DW_AT_location[DW_OP_regx 0x5e]
    5233                    
    5234                    $C$DW$249       .dwtag  DW_TAG_TI_assign_register
    5235                            .dwattr $C$DW$249, DW_AT_name("D15_hi")
    5236                            .dwattr $C$DW$249, DW_AT_location[DW_OP_regx 0x5f]
    5237                    
    5238                    $C$DW$250       .dwtag  DW_TAG_TI_assign_register
    5239                            .dwattr $C$DW$250, DW_AT_name("FPEXC")
    5240                            .dwattr $C$DW$250, DW_AT_location[DW_OP_reg18]
    5241                    
    5242                    $C$DW$251       .dwtag  DW_TAG_TI_assign_register
    5243                            .dwattr $C$DW$251, DW_AT_name("FPSCR")
    5244                            .dwattr $C$DW$251, DW_AT_location[DW_OP_reg19]
    5245                    
    5246                            .dwendtag $C$DW$CU
    5247                    

--------------------------
Thumb2 Statistics
--------------------------
Number of Thumb2 ins converted to Thumb = 0 (0%)
Number of Thumb ins in input = 604 (88%)
Number of Thumb2 ins encoded as Thumb2 = 80 (100%)
Number of Thumb2 ins converted to 2 OPND Thumb = 35


No Assembly Errors, No Assembly Warnings
