TI ARM Assembler Unix v18.1.1 Fri Jul  3 20:08:23 2020

Tools Copyright (c) 1996-2017 Texas Instruments Incorporated
aes.asm                                                              PAGE    1

       1                    ;******************************************************************************
       2                    ;* TI ARM C/C++ Codegen                                      Unix v18.1.1.LTS *
       3                    ;* Date/Time created: Fri Jul  3 20:08:23 2020                                *
       4                    ;******************************************************************************
       5                            .compiler_opts --abi=eabi --arm_vmrs_si_workaround=off --code_state=16 --diag_wrap=off --embed
       6 00000000                   .thumb
       7                    
       8                    $C$DW$CU        .dwtag  DW_TAG_compile_unit
       9                            .dwattr $C$DW$CU, DW_AT_name("../driverlib/aes.c")
      10                            .dwattr $C$DW$CU, DW_AT_producer("TI TI ARM C/C++ Codegen Unix v18.1.1.LTS Copyright (c) 1996-
      11                            .dwattr $C$DW$CU, DW_AT_TI_version(0x01)
      12                            .dwattr $C$DW$CU, DW_AT_comp_dir("/home/pola/workspace_v8/Microwave/Debug")
      13                    
      14                    $C$DW$1 .dwtag  DW_TAG_subprogram
      15                            .dwattr $C$DW$1, DW_AT_name("IntRegister")
      16                            .dwattr $C$DW$1, DW_AT_TI_symbol_name("IntRegister")
      17                            .dwattr $C$DW$1, DW_AT_declaration
      18                            .dwattr $C$DW$1, DW_AT_external
      19                            .dwattr $C$DW$1, DW_AT_decl_file("/home/pola/workspace_v8/Microwave/driverlib/interrupt.h")
      20                            .dwattr $C$DW$1, DW_AT_decl_line(0x45)
      21                            .dwattr $C$DW$1, DW_AT_decl_column(0x0d)
      22                    $C$DW$2 .dwtag  DW_TAG_formal_parameter
      23                            .dwattr $C$DW$2, DW_AT_type(*$C$DW$T$27)
      24                    
      25                    $C$DW$3 .dwtag  DW_TAG_formal_parameter
      26                            .dwattr $C$DW$3, DW_AT_type(*$C$DW$T$25)
      27                    
      28                            .dwendtag $C$DW$1
      29                    
      30                    
      31                    $C$DW$4 .dwtag  DW_TAG_subprogram
      32                            .dwattr $C$DW$4, DW_AT_name("IntEnable")
      33                            .dwattr $C$DW$4, DW_AT_TI_symbol_name("IntEnable")
      34                            .dwattr $C$DW$4, DW_AT_declaration
      35                            .dwattr $C$DW$4, DW_AT_external
      36                            .dwattr $C$DW$4, DW_AT_decl_file("/home/pola/workspace_v8/Microwave/driverlib/interrupt.h")
      37                            .dwattr $C$DW$4, DW_AT_decl_line(0x4c)
      38                            .dwattr $C$DW$4, DW_AT_decl_column(0x0d)
      39                    $C$DW$5 .dwtag  DW_TAG_formal_parameter
      40                            .dwattr $C$DW$5, DW_AT_type(*$C$DW$T$27)
      41                    
      42                            .dwendtag $C$DW$4
      43                    
      44                    
      45                    $C$DW$6 .dwtag  DW_TAG_subprogram
      46                            .dwattr $C$DW$6, DW_AT_name("IntDisable")
      47                            .dwattr $C$DW$6, DW_AT_TI_symbol_name("IntDisable")
      48                            .dwattr $C$DW$6, DW_AT_declaration
      49                            .dwattr $C$DW$6, DW_AT_external
      50                            .dwattr $C$DW$6, DW_AT_decl_file("/home/pola/workspace_v8/Microwave/driverlib/interrupt.h")
      51                            .dwattr $C$DW$6, DW_AT_decl_line(0x4d)
      52                            .dwattr $C$DW$6, DW_AT_decl_column(0x0d)
      53                    $C$DW$7 .dwtag  DW_TAG_formal_parameter
      54                            .dwattr $C$DW$7, DW_AT_type(*$C$DW$T$27)
      55                    
TI ARM Assembler Unix v18.1.1 Fri Jul  3 20:08:23 2020

Tools Copyright (c) 1996-2017 Texas Instruments Incorporated
aes.asm                                                              PAGE    2

      56                            .dwendtag $C$DW$6
      57                    
      58                    
      59                    $C$DW$8 .dwtag  DW_TAG_subprogram
      60                            .dwattr $C$DW$8, DW_AT_name("IntUnregister")
      61                            .dwattr $C$DW$8, DW_AT_TI_symbol_name("IntUnregister")
      62                            .dwattr $C$DW$8, DW_AT_declaration
      63                            .dwattr $C$DW$8, DW_AT_external
      64                            .dwattr $C$DW$8, DW_AT_decl_file("/home/pola/workspace_v8/Microwave/driverlib/interrupt.h")
      65                            .dwattr $C$DW$8, DW_AT_decl_line(0x46)
      66                            .dwattr $C$DW$8, DW_AT_decl_column(0x0d)
      67                    $C$DW$9 .dwtag  DW_TAG_formal_parameter
      68                            .dwattr $C$DW$9, DW_AT_type(*$C$DW$T$27)
      69                    
      70                            .dwendtag $C$DW$8
      71                    
      72                    ;       /home/pola/ti/ccsv8/tools/compiler/ti-cgt-arm_18.1.1.LTS/bin/armacpia -@/tmp/TI3NBccqOiC 
      73 00000000                   .sect   ".text"
      74                            .clink
      75                            .thumbfunc AESReset
      76 00000000                   .thumb
      77                            .global AESReset
      78                    
      79                    $C$DW$10        .dwtag  DW_TAG_subprogram
      80                            .dwattr $C$DW$10, DW_AT_name("AESReset")
      81                            .dwattr $C$DW$10, DW_AT_low_pc(AESReset)
      82                            .dwattr $C$DW$10, DW_AT_high_pc(0x00)
      83                            .dwattr $C$DW$10, DW_AT_TI_symbol_name("AESReset")
      84                            .dwattr $C$DW$10, DW_AT_external
      85                            .dwattr $C$DW$10, DW_AT_TI_begin_file("../driverlib/aes.c")
      86                            .dwattr $C$DW$10, DW_AT_TI_begin_line(0x48)
      87                            .dwattr $C$DW$10, DW_AT_TI_begin_column(0x01)
      88                            .dwattr $C$DW$10, DW_AT_decl_file("../driverlib/aes.c")
      89                            .dwattr $C$DW$10, DW_AT_decl_line(0x48)
      90                            .dwattr $C$DW$10, DW_AT_decl_column(0x01)
      91                            .dwattr $C$DW$10, DW_AT_TI_max_frame_size(0x08)
      92                            .dwpsn  file "../driverlib/aes.c",line 73,column 1,is_stmt,address AESReset,isa 1
      93                    
      94                            .dwfde $C$DW$CIE, AESReset
      95                    $C$DW$11        .dwtag  DW_TAG_formal_parameter
      96                            .dwattr $C$DW$11, DW_AT_name("ui32Base")
      97                            .dwattr $C$DW$11, DW_AT_TI_symbol_name("ui32Base")
      98                            .dwattr $C$DW$11, DW_AT_type(*$C$DW$T$27)
      99                            .dwattr $C$DW$11, DW_AT_location[DW_OP_reg0]
     100                    
     101                    ;----------------------------------------------------------------------
     102                    ;  72 | AESReset(uint32_t ui32Base)                                            
     103                    ;----------------------------------------------------------------------
     104                    
     105                    ;*****************************************************************************
     106                    ;* FUNCTION NAME: AESReset                                                   *
     107                    ;*                                                                           *
     108                    ;*   Regs Modified     : A1,A2,SP,SR                                         *
     109                    ;*   Regs Used         : A1,A2,SP,LR,SR                                      *
     110                    ;*   Local Frame Size  : 0 Args + 4 Auto + 0 Save = 4 byte                   *
TI ARM Assembler Unix v18.1.1 Fri Jul  3 20:08:23 2020

Tools Copyright (c) 1996-2017 Texas Instruments Incorporated
aes.asm                                                              PAGE    3

     111                    ;*****************************************************************************
     112 00000000           AESReset:
     113                    ;* --------------------------------------------------------------------------*
     114                            .dwcfi  cfa_offset, 0
     115 00000000 0D08F1AD          SUB       SP, SP, #8            ; [DPU_V7M3_PIPE]  ; [KEEP 32-BIT INS]
     116                            .dwcfi  cfa_offset, 8
     117                    $C$DW$12        .dwtag  DW_TAG_variable
     118                            .dwattr $C$DW$12, DW_AT_name("ui32Base")
     119                            .dwattr $C$DW$12, DW_AT_TI_symbol_name("ui32Base")
     120                            .dwattr $C$DW$12, DW_AT_type(*$C$DW$T$27)
     121                            .dwattr $C$DW$12, DW_AT_location[DW_OP_breg13 0]
     122                    
     123                    ;----------------------------------------------------------------------
     124                    ;  74 | //                                                                     
     125                    ;  75 | // Check the arguments.                                                
     126                    ;  76 | //                                                                     
     127                    ;  77 | ASSERT(ui32Base == AES_BASE);                                          
     128                    ;  79 | //                                                                     
     129                    ;  80 | // Trigger the reset.                                                  
     130                    ;  81 | //                                                                     
     131                    ;----------------------------------------------------------------------
     132 00000004 9000              STR       A1, [SP, #0]          ; [DPU_V7M3_PIPE] |73|  ; [ORIG 16-BIT INS]
     133                            .dwpsn  file "../driverlib/aes.c",line 82,column 5,is_stmt,isa 1
     134                    ;----------------------------------------------------------------------
     135                    ;  82 | HWREG(ui32Base + AES_O_SYSCONFIG) |= AES_SYSCONFIG_SOFTRESET;          
     136                    ;  84 | //                                                                     
     137                    ;  85 | // Wait for the reset to finish.                                       
     138                    ;  86 | //                                                                     
     139                    ;----------------------------------------------------------------------
     140 00000006 9800              LDR       A1, [SP, #0]          ; [DPU_V7M3_PIPE] |82|  ; [ORIG 16-BIT INS]
     141 00000008 3084              ADDS      A1, A1, #132          ; [DPU_V7M3_PIPE] |82|  ; [ORIG 16-BIT INS]
     142 0000000a 6801              LDR       A2, [A1, #0]          ; [DPU_V7M3_PIPE] |82|  ; [ORIG 16-BIT INS]
     143 0000000c 0102F041          ORR       A2, A2, #2            ; [DPU_V7M3_PIPE] |82|  ; [KEEP 32-BIT INS]
     144 00000010 6001              STR       A2, [A1, #0]          ; [DPU_V7M3_PIPE] |82|  ; [ORIG 16-BIT INS]
     145                            .dwpsn  file "../driverlib/aes.c",line 87,column 5,is_stmt,isa 1
     146                    ;----------------------------------------------------------------------
     147                    ;  87 | while((HWREG(ui32Base + AES_O_SYSSTATUS) &                             
     148                    ;----------------------------------------------------------------------
     149                    ;* --------------------------------------------------------------------------*
     150                    ;*   BEGIN LOOP ||$C$L1||
     151                    ;*
     152                    ;*   Loop source line                : 87
     153                    ;*   Loop closing brace source line  : 90
     154                    ;*   Known Minimum Trip Count        : 1
     155                    ;*   Known Maximum Trip Count        : 4294967295
     156                    ;*   Known Max Trip Count Factor     : 1
     157                    ;* --------------------------------------------------------------------------*
     158 00000012           ||$C$L1||:    
     159                            .dwpsn  file "../driverlib/aes.c",line 87,column 11,is_stmt,isa 1
     160                    ;----------------------------------------------------------------------
     161                    ;  88 | AES_SYSSTATUS_RESETDONE) == 0)                                         
     162                    ;----------------------------------------------------------------------
     163 00000012 9800              LDR       A1, [SP, #0]          ; [DPU_V7M3_PIPE] |87|  ; [ORIG 16-BIT INS]
     164 00000014 0088F8D0          LDR       A1, [A1, #136]        ; [DPU_V7M3_PIPE] |87|  ; [KEEP 32-BIT INS]
     165 00000018 0840              LSRS      A1, A1, #1            ; [DPU_V7M3_PIPE] |87|  ; [ORIG 16-BIT INS]
TI ARM Assembler Unix v18.1.1 Fri Jul  3 20:08:23 2020

Tools Copyright (c) 1996-2017 Texas Instruments Incorporated
aes.asm                                                              PAGE    4

     166 0000001a D3FA              BCC       ||$C$L1||             ; [DPU_V7M3_PIPE] |87|  ; [ORIG 16-BIT INS]
     167                            ; BRANCHCC OCCURS {||$C$L1||}    ; [] |87| 
     168                    ;* --------------------------------------------------------------------------*
     169                            .dwpsn  file "../driverlib/aes.c",line 91,column 1,is_stmt,isa 1
     170 0000001c B002              ADD       SP, SP, #8            ; [DPU_V7M3_PIPE]  ; [ORIG 16-BIT INS]
     171                            .dwcfi  cfa_offset, 0
     172                    $C$DW$13        .dwtag  DW_TAG_TI_branch
     173                            .dwattr $C$DW$13, DW_AT_low_pc(0x00)
     174                            .dwattr $C$DW$13, DW_AT_TI_return
     175                    
     176 0000001e 4770              BX        LR                    ; [DPU_V7M3_PIPE]  ; [ORIG 16-BIT INS]
     177                            ; BRANCH OCCURS                  ; [] 
     178                            .dwattr $C$DW$10, DW_AT_TI_end_file("../driverlib/aes.c")
     179                            .dwattr $C$DW$10, DW_AT_TI_end_line(0x5b)
     180                            .dwattr $C$DW$10, DW_AT_TI_end_column(0x01)
     181                            .dwendentry
     182                            .dwendtag $C$DW$10
     183                    
     184 00000020                   .sect   ".text"
     185                            .clink
     186                            .thumbfunc AESConfigSet
     187 00000020                   .thumb
     188                            .global AESConfigSet
     189                    
     190                    $C$DW$14        .dwtag  DW_TAG_subprogram
     191                            .dwattr $C$DW$14, DW_AT_name("AESConfigSet")
     192                            .dwattr $C$DW$14, DW_AT_low_pc(AESConfigSet)
     193                            .dwattr $C$DW$14, DW_AT_high_pc(0x00)
     194                            .dwattr $C$DW$14, DW_AT_TI_symbol_name("AESConfigSet")
     195                            .dwattr $C$DW$14, DW_AT_external
     196                            .dwattr $C$DW$14, DW_AT_TI_begin_file("../driverlib/aes.c")
     197                            .dwattr $C$DW$14, DW_AT_TI_begin_line(0xb7)
     198                            .dwattr $C$DW$14, DW_AT_TI_begin_column(0x01)
     199                            .dwattr $C$DW$14, DW_AT_decl_file("../driverlib/aes.c")
     200                            .dwattr $C$DW$14, DW_AT_decl_line(0xb7)
     201                            .dwattr $C$DW$14, DW_AT_decl_column(0x01)
     202                            .dwattr $C$DW$14, DW_AT_TI_max_frame_size(0x08)
     203                            .dwpsn  file "../driverlib/aes.c",line 184,column 1,is_stmt,address AESConfigSet,isa 1
     204                    
     205                            .dwfde $C$DW$CIE, AESConfigSet
     206                    $C$DW$15        .dwtag  DW_TAG_formal_parameter
     207                            .dwattr $C$DW$15, DW_AT_name("ui32Base")
     208                            .dwattr $C$DW$15, DW_AT_TI_symbol_name("ui32Base")
     209                            .dwattr $C$DW$15, DW_AT_type(*$C$DW$T$27)
     210                            .dwattr $C$DW$15, DW_AT_location[DW_OP_reg0]
     211                    
     212                    $C$DW$16        .dwtag  DW_TAG_formal_parameter
     213                            .dwattr $C$DW$16, DW_AT_name("ui32Config")
     214                            .dwattr $C$DW$16, DW_AT_TI_symbol_name("ui32Config")
     215                            .dwattr $C$DW$16, DW_AT_type(*$C$DW$T$27)
     216                            .dwattr $C$DW$16, DW_AT_location[DW_OP_reg1]
     217                    
     218                    ;----------------------------------------------------------------------
     219                    ; 183 | AESConfigSet(uint32_t ui32Base, uint32_t ui32Config)                   
     220                    ;----------------------------------------------------------------------
TI ARM Assembler Unix v18.1.1 Fri Jul  3 20:08:23 2020

Tools Copyright (c) 1996-2017 Texas Instruments Incorporated
aes.asm                                                              PAGE    5

     221                    
     222                    ;*****************************************************************************
     223                    ;* FUNCTION NAME: AESConfigSet                                               *
     224                    ;*                                                                           *
     225                    ;*   Regs Modified     : A1,A2,SP,SR                                         *
     226                    ;*   Regs Used         : A1,A2,SP,LR,SR                                      *
     227                    ;*   Local Frame Size  : 0 Args + 8 Auto + 0 Save = 8 byte                   *
     228                    ;*****************************************************************************
     229 00000020           AESConfigSet:
     230                    ;* --------------------------------------------------------------------------*
     231                            .dwcfi  cfa_offset, 0
     232 00000020 0D08F1AD          SUB       SP, SP, #8            ; [DPU_V7M3_PIPE]  ; [KEEP 32-BIT INS]
     233                            .dwcfi  cfa_offset, 8
     234                    $C$DW$17        .dwtag  DW_TAG_variable
     235                            .dwattr $C$DW$17, DW_AT_name("ui32Base")
     236                            .dwattr $C$DW$17, DW_AT_TI_symbol_name("ui32Base")
     237                            .dwattr $C$DW$17, DW_AT_type(*$C$DW$T$27)
     238                            .dwattr $C$DW$17, DW_AT_location[DW_OP_breg13 0]
     239                    
     240                    $C$DW$18        .dwtag  DW_TAG_variable
     241                            .dwattr $C$DW$18, DW_AT_name("ui32Config")
     242                            .dwattr $C$DW$18, DW_AT_TI_symbol_name("ui32Config")
     243                            .dwattr $C$DW$18, DW_AT_type(*$C$DW$T$27)
     244                            .dwattr $C$DW$18, DW_AT_location[DW_OP_breg13 4]
     245                    
     246                    ;----------------------------------------------------------------------
     247                    ; 185 | //                                                                     
     248                    ; 186 | // Check the arguments.                                                
     249                    ; 187 | //                                                                     
     250                    ; 188 | ASSERT(ui32Base == AES_BASE);                                          
     251                    ; 189 | ASSERT((ui32Config & AES_CFG_DIR_ENCRYPT) ||                           
     252                    ; 190 |        (ui32Config & AES_CFG_DIR_DECRYPT));                            
     253                    ; 191 | ASSERT((ui32Config & AES_CFG_KEY_SIZE_128BIT) ||                       
     254                    ; 192 |        (ui32Config & AES_CFG_KEY_SIZE_192BIT) ||                       
     255                    ; 193 |        (ui32Config & AES_CFG_KEY_SIZE_256BIT));                        
     256                    ; 194 | ASSERT((ui32Config & AES_CFG_MODE_ECB) ||                              
     257                    ; 195 |        (ui32Config & AES_CFG_MODE_CBC) ||                              
     258                    ; 196 |        (ui32Config & AES_CFG_MODE_CTR) ||                              
     259                    ; 197 |        (ui32Config & AES_CFG_MODE_ICM) ||                              
     260                    ; 198 |        (ui32Config & AES_CFG_MODE_CFB) ||                              
     261                    ; 199 |        (ui32Config & AES_CFG_MODE_XTS_TWEAKJL) ||                      
     262                    ; 200 |        (ui32Config & AES_CFG_MODE_XTS_K2IJL) ||                        
     263                    ; 201 |        (ui32Config & AES_CFG_MODE_XTS_K2ILJ0) ||                       
     264                    ; 202 |        (ui32Config & AES_CFG_MODE_F8) ||                               
     265                    ; 203 |        (ui32Config & AES_CFG_MODE_F9) ||                               
     266                    ; 204 |        (ui32Config & AES_CFG_MODE_CTR) ||                              
     267                    ; 205 |        (ui32Config & AES_CFG_MODE_CBCMAC) ||                           
     268                    ; 206 |        (ui32Config & AES_CFG_MODE_GCM_HLY0ZERO) ||                     
     269                    ; 207 |        (ui32Config & AES_CFG_MODE_GCM_HLY0CALC) ||                     
     270                    ; 208 |        (ui32Config & AES_CFG_MODE_GCM_HY0CALC) ||                      
     271                    ; 209 |        (ui32Config & AES_CFG_MODE_CCM));                               
     272                    ; 210 | ASSERT(((ui32Config & AES_CFG_MODE_CTR) ||                             
     273                    ; 211 |         (ui32Config & AES_CFG_MODE_GCM_HLY0ZERO) ||                    
     274                    ; 212 |         (ui32Config & AES_CFG_MODE_GCM_HLY0CALC) ||                    
     275                    ; 213 |         (ui32Config & AES_CFG_MODE_GCM_HY0CALC) ||                     
TI ARM Assembler Unix v18.1.1 Fri Jul  3 20:08:23 2020

Tools Copyright (c) 1996-2017 Texas Instruments Incorporated
aes.asm                                                              PAGE    6

     276                    ; 214 |         (ui32Config & AES_CFG_MODE_CCM)) &&                            
     277                    ; 215 |        ((ui32Config & AES_CFG_CTR_WIDTH_32) ||                         
     278                    ; 216 |         (ui32Config & AES_CFG_CTR_WIDTH_64) ||                         
     279                    ; 217 |         (ui32Config & AES_CFG_CTR_WIDTH_96) ||                         
     280                    ; 218 |         (ui32Config & AES_CFG_CTR_WIDTH_128)));                        
     281                    ; 219 | ASSERT((ui32Config & AES_CFG_MODE_CCM) &&                              
     282                    ; 220 |        ((ui32Config & AES_CFG_CCM_L_1) ||                              
     283                    ; 221 |         (ui32Config & AES_CFG_CCM_L_2) ||                              
     284                    ; 222 |         (ui32Config & AES_CFG_CCM_L_3) ||                              
     285                    ; 223 |         (ui32Config & AES_CFG_CCM_L_4) ||                              
     286                    ; 224 |         (ui32Config & AES_CFG_CCM_L_5) ||                              
     287                    ; 225 |         (ui32Config & AES_CFG_CCM_L_6) ||                              
     288                    ; 226 |         (ui32Config & AES_CFG_CCM_L_7) ||                              
     289                    ; 227 |         (ui32Config & AES_CFG_CCM_L_8)) &&                             
     290                    ; 228 |        ((ui32Config & AES_CFG_CCM_M_4) ||                              
     291                    ; 229 |         (ui32Config & AES_CFG_CCM_M_6) ||                              
     292                    ; 230 |         (ui32Config & AES_CFG_CCM_M_8) ||                              
     293                    ; 231 |         (ui32Config & AES_CFG_CCM_M_10) ||                             
     294                    ; 232 |         (ui32Config & AES_CFG_CCM_M_12) ||                             
     295                    ; 233 |         (ui32Config & AES_CFG_CCM_M_14) ||                             
     296                    ; 234 |         (ui32Config & AES_CFG_CCM_M_16)));                             
     297                    ; 236 | //                                                                     
     298                    ; 237 | // Backup the save context field before updating the register.         
     299                    ; 238 | //                                                                     
     300                    ;----------------------------------------------------------------------
     301 00000024 9101              STR       A2, [SP, #4]          ; [DPU_V7M3_PIPE] |184|  ; [ORIG 16-BIT INS]
     302 00000026 9000              STR       A1, [SP, #0]          ; [DPU_V7M3_PIPE] |184|  ; [ORIG 16-BIT INS]
     303                            .dwpsn  file "../driverlib/aes.c",line 239,column 5,is_stmt,isa 1
     304                    ;----------------------------------------------------------------------
     305                    ; 239 | if(HWREG(ui32Base + AES_O_CTRL) & AES_CTRL_SAVE_CONTEXT)               
     306                    ;----------------------------------------------------------------------
     307 00000028 9800              LDR       A1, [SP, #0]          ; [DPU_V7M3_PIPE] |239|  ; [ORIG 16-BIT INS]
     308 0000002a 6D00              LDR       A1, [A1, #80]         ; [DPU_V7M3_PIPE] |239|  ; [ORIG 16-BIT INS]
     309 0000002c 0F80              LSRS      A1, A1, #30           ; [DPU_V7M3_PIPE] |239|  ; [ORIG 16-BIT INS]
     310 0000002e D303              BCC       ||$C$L2||             ; [DPU_V7M3_PIPE] |239|  ; [ORIG 16-BIT INS]
     311                            ; BRANCHCC OCCURS {||$C$L2||}    ; [] |239| 
     312                    ;* --------------------------------------------------------------------------*
     313                            .dwpsn  file "../driverlib/aes.c",line 241,column 9,is_stmt,isa 1
     314                    ;----------------------------------------------------------------------
     315                    ; 241 | ui32Config |= AES_CTRL_SAVE_CONTEXT;                                   
     316                    ; 244 | //                                                                     
     317                    ; 245 | // Write the CTRL register with the new value                          
     318                    ; 246 | //                                                                     
     319                    ;----------------------------------------------------------------------
     320 00000030 9801              LDR       A1, [SP, #4]          ; [DPU_V7M3_PIPE] |241|  ; [ORIG 16-BIT INS]
     321 00000032 5000F040          ORR       A1, A1, #536870912    ; [DPU_V7M3_PIPE] |241|  ; [KEEP 32-BIT INS]
     322 00000036 9001              STR       A1, [SP, #4]          ; [DPU_V7M3_PIPE] |241|  ; [ORIG 16-BIT INS]
     323                    ;* --------------------------------------------------------------------------*
     324 00000038           ||$C$L2||:    
     325                            .dwpsn  file "../driverlib/aes.c",line 247,column 5,is_stmt,isa 1
     326                    ;----------------------------------------------------------------------
     327                    ; 247 | HWREG(ui32Base + AES_O_CTRL) = ui32Config;                             
     328                    ;----------------------------------------------------------------------
     329 00000038 9801              LDR       A1, [SP, #4]          ; [DPU_V7M3_PIPE] |247|  ; [ORIG 16-BIT INS]
     330 0000003a 9900              LDR       A2, [SP, #0]          ; [DPU_V7M3_PIPE] |247|  ; [ORIG 16-BIT INS]
TI ARM Assembler Unix v18.1.1 Fri Jul  3 20:08:23 2020

Tools Copyright (c) 1996-2017 Texas Instruments Incorporated
aes.asm                                                              PAGE    7

     331 0000003c 6508              STR       A1, [A2, #80]         ; [DPU_V7M3_PIPE] |247|  ; [ORIG 16-BIT INS]
     332                            .dwpsn  file "../driverlib/aes.c",line 248,column 1,is_stmt,isa 1
     333 0000003e B002              ADD       SP, SP, #8            ; [DPU_V7M3_PIPE]  ; [ORIG 16-BIT INS]
     334                            .dwcfi  cfa_offset, 0
     335                    $C$DW$19        .dwtag  DW_TAG_TI_branch
     336                            .dwattr $C$DW$19, DW_AT_low_pc(0x00)
     337                            .dwattr $C$DW$19, DW_AT_TI_return
     338                    
     339 00000040 4770              BX        LR                    ; [DPU_V7M3_PIPE]  ; [ORIG 16-BIT INS]
     340                            ; BRANCH OCCURS                  ; [] 
     341                            .dwattr $C$DW$14, DW_AT_TI_end_file("../driverlib/aes.c")
     342                            .dwattr $C$DW$14, DW_AT_TI_end_line(0xf8)
     343                            .dwattr $C$DW$14, DW_AT_TI_end_column(0x01)
     344                            .dwendentry
     345                            .dwendtag $C$DW$14
     346                    
     347 00000042                   .sect   ".text"
     348                            .clink
     349                            .thumbfunc AESKey1Set
     350 00000042                   .thumb
     351                            .global AESKey1Set
     352                    
     353                    $C$DW$20        .dwtag  DW_TAG_subprogram
     354                            .dwattr $C$DW$20, DW_AT_name("AESKey1Set")
     355                            .dwattr $C$DW$20, DW_AT_low_pc(AESKey1Set)
     356                            .dwattr $C$DW$20, DW_AT_high_pc(0x00)
     357                            .dwattr $C$DW$20, DW_AT_TI_symbol_name("AESKey1Set")
     358                            .dwattr $C$DW$20, DW_AT_external
     359                            .dwattr $C$DW$20, DW_AT_TI_begin_file("../driverlib/aes.c")
     360                            .dwattr $C$DW$20, DW_AT_TI_begin_line(0x10d)
     361                            .dwattr $C$DW$20, DW_AT_TI_begin_column(0x01)
     362                            .dwattr $C$DW$20, DW_AT_decl_file("../driverlib/aes.c")
     363                            .dwattr $C$DW$20, DW_AT_decl_line(0x10d)
     364                            .dwattr $C$DW$20, DW_AT_decl_column(0x01)
     365                            .dwattr $C$DW$20, DW_AT_TI_max_frame_size(0x10)
     366                            .dwpsn  file "../driverlib/aes.c",line 270,column 1,is_stmt,address AESKey1Set,isa 1
     367                    
     368                            .dwfde $C$DW$CIE, AESKey1Set
     369                    $C$DW$21        .dwtag  DW_TAG_formal_parameter
     370                            .dwattr $C$DW$21, DW_AT_name("ui32Base")
     371                            .dwattr $C$DW$21, DW_AT_TI_symbol_name("ui32Base")
     372                            .dwattr $C$DW$21, DW_AT_type(*$C$DW$T$27)
     373                            .dwattr $C$DW$21, DW_AT_location[DW_OP_reg0]
     374                    
     375                    $C$DW$22        .dwtag  DW_TAG_formal_parameter
     376                            .dwattr $C$DW$22, DW_AT_name("pui32Key")
     377                            .dwattr $C$DW$22, DW_AT_TI_symbol_name("pui32Key")
     378                            .dwattr $C$DW$22, DW_AT_type(*$C$DW$T$34)
     379                            .dwattr $C$DW$22, DW_AT_location[DW_OP_reg1]
     380                    
     381                    $C$DW$23        .dwtag  DW_TAG_formal_parameter
     382                            .dwattr $C$DW$23, DW_AT_name("ui32Keysize")
     383                            .dwattr $C$DW$23, DW_AT_TI_symbol_name("ui32Keysize")
     384                            .dwattr $C$DW$23, DW_AT_type(*$C$DW$T$27)
     385                            .dwattr $C$DW$23, DW_AT_location[DW_OP_reg2]
TI ARM Assembler Unix v18.1.1 Fri Jul  3 20:08:23 2020

Tools Copyright (c) 1996-2017 Texas Instruments Incorporated
aes.asm                                                              PAGE    8

     386                    
     387                    ;----------------------------------------------------------------------
     388                    ; 269 | AESKey1Set(uint32_t ui32Base, uint32_t *pui32Key, uint32_t ui32Keysize)
     389                    ;----------------------------------------------------------------------
     390                    
     391                    ;*****************************************************************************
     392                    ;* FUNCTION NAME: AESKey1Set                                                 *
     393                    ;*                                                                           *
     394                    ;*   Regs Modified     : A1,A2,SP,SR                                         *
     395                    ;*   Regs Used         : A1,A2,A3,SP,LR,SR                                   *
     396                    ;*   Local Frame Size  : 0 Args + 12 Auto + 0 Save = 12 byte                 *
     397                    ;*****************************************************************************
     398 00000042           AESKey1Set:
     399                    ;* --------------------------------------------------------------------------*
     400                            .dwcfi  cfa_offset, 0
     401 00000042 0D10F1AD          SUB       SP, SP, #16           ; [DPU_V7M3_PIPE]  ; [KEEP 32-BIT INS]
     402                            .dwcfi  cfa_offset, 16
     403                    $C$DW$24        .dwtag  DW_TAG_variable
     404                            .dwattr $C$DW$24, DW_AT_name("ui32Base")
     405                            .dwattr $C$DW$24, DW_AT_TI_symbol_name("ui32Base")
     406                            .dwattr $C$DW$24, DW_AT_type(*$C$DW$T$27)
     407                            .dwattr $C$DW$24, DW_AT_location[DW_OP_breg13 0]
     408                    
     409                    $C$DW$25        .dwtag  DW_TAG_variable
     410                            .dwattr $C$DW$25, DW_AT_name("pui32Key")
     411                            .dwattr $C$DW$25, DW_AT_TI_symbol_name("pui32Key")
     412                            .dwattr $C$DW$25, DW_AT_type(*$C$DW$T$34)
     413                            .dwattr $C$DW$25, DW_AT_location[DW_OP_breg13 4]
     414                    
     415                    $C$DW$26        .dwtag  DW_TAG_variable
     416                            .dwattr $C$DW$26, DW_AT_name("ui32Keysize")
     417                            .dwattr $C$DW$26, DW_AT_TI_symbol_name("ui32Keysize")
     418                            .dwattr $C$DW$26, DW_AT_type(*$C$DW$T$27)
     419                            .dwattr $C$DW$26, DW_AT_location[DW_OP_breg13 8]
     420                    
     421                    ;----------------------------------------------------------------------
     422                    ; 271 | //                                                                     
     423                    ; 272 | // Check the arguments.                                                
     424                    ; 273 | //                                                                     
     425                    ; 274 | ASSERT(ui32Base == AES_BASE);                                          
     426                    ; 275 | ASSERT((ui32Keysize == AES_CFG_KEY_SIZE_128BIT) ||                     
     427                    ; 276 |        (ui32Keysize == AES_CFG_KEY_SIZE_192BIT) ||                     
     428                    ; 277 |        (ui32Keysize == AES_CFG_KEY_SIZE_256BIT));                      
     429                    ; 279 | //                                                                     
     430                    ; 280 | // With all key sizes, the first 4 words are written.                  
     431                    ; 281 | //                                                                     
     432                    ;----------------------------------------------------------------------
     433 00000046 9202              STR       A3, [SP, #8]          ; [DPU_V7M3_PIPE] |270|  ; [ORIG 16-BIT INS]
     434 00000048 9101              STR       A2, [SP, #4]          ; [DPU_V7M3_PIPE] |270|  ; [ORIG 16-BIT INS]
     435 0000004a 9000              STR       A1, [SP, #0]          ; [DPU_V7M3_PIPE] |270|  ; [ORIG 16-BIT INS]
     436                            .dwpsn  file "../driverlib/aes.c",line 282,column 5,is_stmt,isa 1
     437                    ;----------------------------------------------------------------------
     438                    ; 282 | HWREG(ui32Base + AES_O_KEY1_0) = pui32Key[0];                          
     439                    ;----------------------------------------------------------------------
     440 0000004c 9801              LDR       A1, [SP, #4]          ; [DPU_V7M3_PIPE] |282|  ; [ORIG 16-BIT INS]
TI ARM Assembler Unix v18.1.1 Fri Jul  3 20:08:23 2020

Tools Copyright (c) 1996-2017 Texas Instruments Incorporated
aes.asm                                                              PAGE    9

     441 0000004e 9900              LDR       A2, [SP, #0]          ; [DPU_V7M3_PIPE] |282|  ; [ORIG 16-BIT INS]
     442 00000050 6800              LDR       A1, [A1, #0]          ; [DPU_V7M3_PIPE] |282|  ; [ORIG 16-BIT INS]
     443 00000052 6388              STR       A1, [A2, #56]         ; [DPU_V7M3_PIPE] |282|  ; [ORIG 16-BIT INS]
     444                            .dwpsn  file "../driverlib/aes.c",line 283,column 5,is_stmt,isa 1
     445                    ;----------------------------------------------------------------------
     446                    ; 283 | HWREG(ui32Base + AES_O_KEY1_1) = pui32Key[1];                          
     447                    ;----------------------------------------------------------------------
     448 00000054 9801              LDR       A1, [SP, #4]          ; [DPU_V7M3_PIPE] |283|  ; [ORIG 16-BIT INS]
     449 00000056 9900              LDR       A2, [SP, #0]          ; [DPU_V7M3_PIPE] |283|  ; [ORIG 16-BIT INS]
     450 00000058 6840              LDR       A1, [A1, #4]          ; [DPU_V7M3_PIPE] |283|  ; [ORIG 16-BIT INS]
     451 0000005a 63C8              STR       A1, [A2, #60]         ; [DPU_V7M3_PIPE] |283|  ; [ORIG 16-BIT INS]
     452                            .dwpsn  file "../driverlib/aes.c",line 284,column 5,is_stmt,isa 1
     453                    ;----------------------------------------------------------------------
     454                    ; 284 | HWREG(ui32Base + AES_O_KEY1_2) = pui32Key[2];                          
     455                    ;----------------------------------------------------------------------
     456 0000005c 9801              LDR       A1, [SP, #4]          ; [DPU_V7M3_PIPE] |284|  ; [ORIG 16-BIT INS]
     457 0000005e 9900              LDR       A2, [SP, #0]          ; [DPU_V7M3_PIPE] |284|  ; [ORIG 16-BIT INS]
     458 00000060 6880              LDR       A1, [A1, #8]          ; [DPU_V7M3_PIPE] |284|  ; [ORIG 16-BIT INS]
     459 00000062 6308              STR       A1, [A2, #48]         ; [DPU_V7M3_PIPE] |284|  ; [ORIG 16-BIT INS]
     460                            .dwpsn  file "../driverlib/aes.c",line 285,column 5,is_stmt,isa 1
     461                    ;----------------------------------------------------------------------
     462                    ; 285 | HWREG(ui32Base + AES_O_KEY1_3) = pui32Key[3];                          
     463                    ; 287 | //                                                                     
     464                    ; 288 | // The key is 192 or 256 bits.  Write the next 2 words.                
     465                    ; 289 | //                                                                     
     466                    ;----------------------------------------------------------------------
     467 00000064 9801              LDR       A1, [SP, #4]          ; [DPU_V7M3_PIPE] |285|  ; [ORIG 16-BIT INS]
     468 00000066 9900              LDR       A2, [SP, #0]          ; [DPU_V7M3_PIPE] |285|  ; [ORIG 16-BIT INS]
     469 00000068 68C0              LDR       A1, [A1, #12]         ; [DPU_V7M3_PIPE] |285|  ; [ORIG 16-BIT INS]
     470 0000006a 6348              STR       A1, [A2, #52]         ; [DPU_V7M3_PIPE] |285|  ; [ORIG 16-BIT INS]
     471                            .dwpsn  file "../driverlib/aes.c",line 290,column 5,is_stmt,isa 1
     472                    ;----------------------------------------------------------------------
     473                    ; 290 | if(ui32Keysize != AES_CFG_KEY_SIZE_128BIT)                             
     474                    ;----------------------------------------------------------------------
     475 0000006c 9802              LDR       A1, [SP, #8]          ; [DPU_V7M3_PIPE] |290|  ; [ORIG 16-BIT INS]
     476 0000006e 2808              CMP       A1, #8                ; [DPU_V7M3_PIPE] |290|  ; [ORIG 16-BIT INS]
     477 00000070 D007              BEQ       ||$C$L3||             ; [DPU_V7M3_PIPE] |290|  ; [ORIG 16-BIT INS]
     478                            ; BRANCHCC OCCURS {||$C$L3||}    ; [] |290| 
     479                    ;* --------------------------------------------------------------------------*
     480                            .dwpsn  file "../driverlib/aes.c",line 292,column 9,is_stmt,isa 1
     481                    ;----------------------------------------------------------------------
     482                    ; 292 | HWREG(ui32Base + AES_O_KEY1_4) = pui32Key[4];                          
     483                    ;----------------------------------------------------------------------
     484 00000072 9801              LDR       A1, [SP, #4]          ; [DPU_V7M3_PIPE] |292|  ; [ORIG 16-BIT INS]
     485 00000074 9900              LDR       A2, [SP, #0]          ; [DPU_V7M3_PIPE] |292|  ; [ORIG 16-BIT INS]
     486 00000076 6900              LDR       A1, [A1, #16]         ; [DPU_V7M3_PIPE] |292|  ; [ORIG 16-BIT INS]
     487 00000078 6288              STR       A1, [A2, #40]         ; [DPU_V7M3_PIPE] |292|  ; [ORIG 16-BIT INS]
     488                            .dwpsn  file "../driverlib/aes.c",line 293,column 9,is_stmt,isa 1
     489                    ;----------------------------------------------------------------------
     490                    ; 293 | HWREG(ui32Base + AES_O_KEY1_5) = pui32Key[5];                          
     491                    ; 296 | //                                                                     
     492                    ; 297 | // The key is 256 bits.  Write the last 2 words.                       
     493                    ; 298 | //                                                                     
     494                    ;----------------------------------------------------------------------
     495 0000007a 9801              LDR       A1, [SP, #4]          ; [DPU_V7M3_PIPE] |293|  ; [ORIG 16-BIT INS]
TI ARM Assembler Unix v18.1.1 Fri Jul  3 20:08:23 2020

Tools Copyright (c) 1996-2017 Texas Instruments Incorporated
aes.asm                                                              PAGE   10

     496 0000007c 9900              LDR       A2, [SP, #0]          ; [DPU_V7M3_PIPE] |293|  ; [ORIG 16-BIT INS]
     497 0000007e 6940              LDR       A1, [A1, #20]         ; [DPU_V7M3_PIPE] |293|  ; [ORIG 16-BIT INS]
     498 00000080 62C8              STR       A1, [A2, #44]         ; [DPU_V7M3_PIPE] |293|  ; [ORIG 16-BIT INS]
     499                    ;* --------------------------------------------------------------------------*
     500 00000082           ||$C$L3||:    
     501                            .dwpsn  file "../driverlib/aes.c",line 299,column 5,is_stmt,isa 1
     502                    ;----------------------------------------------------------------------
     503                    ; 299 | if(ui32Keysize == AES_CFG_KEY_SIZE_256BIT)                             
     504                    ;----------------------------------------------------------------------
     505 00000082 9802              LDR       A1, [SP, #8]          ; [DPU_V7M3_PIPE] |299|  ; [ORIG 16-BIT INS]
     506 00000084 2818              CMP       A1, #24               ; [DPU_V7M3_PIPE] |299|  ; [ORIG 16-BIT INS]
     507 00000086 D107              BNE       ||$C$L4||             ; [DPU_V7M3_PIPE] |299|  ; [ORIG 16-BIT INS]
     508                            ; BRANCHCC OCCURS {||$C$L4||}    ; [] |299| 
     509                    ;* --------------------------------------------------------------------------*
     510                            .dwpsn  file "../driverlib/aes.c",line 301,column 9,is_stmt,isa 1
     511                    ;----------------------------------------------------------------------
     512                    ; 301 | HWREG(ui32Base + AES_O_KEY1_6) = pui32Key[6];                          
     513                    ;----------------------------------------------------------------------
     514 00000088 9801              LDR       A1, [SP, #4]          ; [DPU_V7M3_PIPE] |301|  ; [ORIG 16-BIT INS]
     515 0000008a 9900              LDR       A2, [SP, #0]          ; [DPU_V7M3_PIPE] |301|  ; [ORIG 16-BIT INS]
     516 0000008c 6980              LDR       A1, [A1, #24]         ; [DPU_V7M3_PIPE] |301|  ; [ORIG 16-BIT INS]
     517 0000008e 6208              STR       A1, [A2, #32]         ; [DPU_V7M3_PIPE] |301|  ; [ORIG 16-BIT INS]
     518                            .dwpsn  file "../driverlib/aes.c",line 302,column 9,is_stmt,isa 1
     519                    ;----------------------------------------------------------------------
     520                    ; 302 | HWREG(ui32Base + AES_O_KEY1_7) = pui32Key[7];                          
     521                    ;----------------------------------------------------------------------
     522 00000090 9801              LDR       A1, [SP, #4]          ; [DPU_V7M3_PIPE] |302|  ; [ORIG 16-BIT INS]
     523 00000092 9900              LDR       A2, [SP, #0]          ; [DPU_V7M3_PIPE] |302|  ; [ORIG 16-BIT INS]
     524 00000094 69C0              LDR       A1, [A1, #28]         ; [DPU_V7M3_PIPE] |302|  ; [ORIG 16-BIT INS]
     525 00000096 6248              STR       A1, [A2, #36]         ; [DPU_V7M3_PIPE] |302|  ; [ORIG 16-BIT INS]
     526                            .dwpsn  file "../driverlib/aes.c",line 304,column 1,is_stmt,isa 1
     527                    ;* --------------------------------------------------------------------------*
     528 00000098           ||$C$L4||:    
     529 00000098 B004              ADD       SP, SP, #16           ; [DPU_V7M3_PIPE]  ; [ORIG 16-BIT INS]
     530                            .dwcfi  cfa_offset, 0
     531                    $C$DW$27        .dwtag  DW_TAG_TI_branch
     532                            .dwattr $C$DW$27, DW_AT_low_pc(0x00)
     533                            .dwattr $C$DW$27, DW_AT_TI_return
     534                    
     535 0000009a 4770              BX        LR                    ; [DPU_V7M3_PIPE]  ; [ORIG 16-BIT INS]
     536                            ; BRANCH OCCURS                  ; [] 
     537                            .dwattr $C$DW$20, DW_AT_TI_end_file("../driverlib/aes.c")
     538                            .dwattr $C$DW$20, DW_AT_TI_end_line(0x130)
     539                            .dwattr $C$DW$20, DW_AT_TI_end_column(0x01)
     540                            .dwendentry
     541                            .dwendtag $C$DW$20
     542                    
     543 0000009c                   .sect   ".text"
     544                            .clink
     545                            .thumbfunc AESKey2Set
     546 0000009c                   .thumb
     547                            .global AESKey2Set
     548                    
     549                    $C$DW$28        .dwtag  DW_TAG_subprogram
     550                            .dwattr $C$DW$28, DW_AT_name("AESKey2Set")
TI ARM Assembler Unix v18.1.1 Fri Jul  3 20:08:23 2020

Tools Copyright (c) 1996-2017 Texas Instruments Incorporated
aes.asm                                                              PAGE   11

     551                            .dwattr $C$DW$28, DW_AT_low_pc(AESKey2Set)
     552                            .dwattr $C$DW$28, DW_AT_high_pc(0x00)
     553                            .dwattr $C$DW$28, DW_AT_TI_symbol_name("AESKey2Set")
     554                            .dwattr $C$DW$28, DW_AT_external
     555                            .dwattr $C$DW$28, DW_AT_TI_begin_file("../driverlib/aes.c")
     556                            .dwattr $C$DW$28, DW_AT_TI_begin_line(0x145)
     557                            .dwattr $C$DW$28, DW_AT_TI_begin_column(0x01)
     558                            .dwattr $C$DW$28, DW_AT_decl_file("../driverlib/aes.c")
     559                            .dwattr $C$DW$28, DW_AT_decl_line(0x145)
     560                            .dwattr $C$DW$28, DW_AT_decl_column(0x01)
     561                            .dwattr $C$DW$28, DW_AT_TI_max_frame_size(0x10)
     562                            .dwpsn  file "../driverlib/aes.c",line 326,column 1,is_stmt,address AESKey2Set,isa 1
     563                    
     564                            .dwfde $C$DW$CIE, AESKey2Set
     565                    $C$DW$29        .dwtag  DW_TAG_formal_parameter
     566                            .dwattr $C$DW$29, DW_AT_name("ui32Base")
     567                            .dwattr $C$DW$29, DW_AT_TI_symbol_name("ui32Base")
     568                            .dwattr $C$DW$29, DW_AT_type(*$C$DW$T$27)
     569                            .dwattr $C$DW$29, DW_AT_location[DW_OP_reg0]
     570                    
     571                    $C$DW$30        .dwtag  DW_TAG_formal_parameter
     572                            .dwattr $C$DW$30, DW_AT_name("pui32Key")
     573                            .dwattr $C$DW$30, DW_AT_TI_symbol_name("pui32Key")
     574                            .dwattr $C$DW$30, DW_AT_type(*$C$DW$T$34)
     575                            .dwattr $C$DW$30, DW_AT_location[DW_OP_reg1]
     576                    
     577                    $C$DW$31        .dwtag  DW_TAG_formal_parameter
     578                            .dwattr $C$DW$31, DW_AT_name("ui32Keysize")
     579                            .dwattr $C$DW$31, DW_AT_TI_symbol_name("ui32Keysize")
     580                            .dwattr $C$DW$31, DW_AT_type(*$C$DW$T$27)
     581                            .dwattr $C$DW$31, DW_AT_location[DW_OP_reg2]
     582                    
     583                    ;----------------------------------------------------------------------
     584                    ; 325 | AESKey2Set(uint32_t ui32Base, uint32_t *pui32Key, uint32_t ui32Keysize)
     585                    ;----------------------------------------------------------------------
     586                    
     587                    ;*****************************************************************************
     588                    ;* FUNCTION NAME: AESKey2Set                                                 *
     589                    ;*                                                                           *
     590                    ;*   Regs Modified     : A1,A2,SP,SR                                         *
     591                    ;*   Regs Used         : A1,A2,A3,SP,LR,SR                                   *
     592                    ;*   Local Frame Size  : 0 Args + 12 Auto + 0 Save = 12 byte                 *
     593                    ;*****************************************************************************
     594 0000009c           AESKey2Set:
     595                    ;* --------------------------------------------------------------------------*
     596                            .dwcfi  cfa_offset, 0
     597 0000009c 0D10F1AD          SUB       SP, SP, #16           ; [DPU_V7M3_PIPE]  ; [KEEP 32-BIT INS]
     598                            .dwcfi  cfa_offset, 16
     599                    $C$DW$32        .dwtag  DW_TAG_variable
     600                            .dwattr $C$DW$32, DW_AT_name("ui32Base")
     601                            .dwattr $C$DW$32, DW_AT_TI_symbol_name("ui32Base")
     602                            .dwattr $C$DW$32, DW_AT_type(*$C$DW$T$27)
     603                            .dwattr $C$DW$32, DW_AT_location[DW_OP_breg13 0]
     604                    
     605                    $C$DW$33        .dwtag  DW_TAG_variable
TI ARM Assembler Unix v18.1.1 Fri Jul  3 20:08:23 2020

Tools Copyright (c) 1996-2017 Texas Instruments Incorporated
aes.asm                                                              PAGE   12

     606                            .dwattr $C$DW$33, DW_AT_name("pui32Key")
     607                            .dwattr $C$DW$33, DW_AT_TI_symbol_name("pui32Key")
     608                            .dwattr $C$DW$33, DW_AT_type(*$C$DW$T$34)
     609                            .dwattr $C$DW$33, DW_AT_location[DW_OP_breg13 4]
     610                    
     611                    $C$DW$34        .dwtag  DW_TAG_variable
     612                            .dwattr $C$DW$34, DW_AT_name("ui32Keysize")
     613                            .dwattr $C$DW$34, DW_AT_TI_symbol_name("ui32Keysize")
     614                            .dwattr $C$DW$34, DW_AT_type(*$C$DW$T$27)
     615                            .dwattr $C$DW$34, DW_AT_location[DW_OP_breg13 8]
     616                    
     617                    ;----------------------------------------------------------------------
     618                    ; 327 | //                                                                     
     619                    ; 328 | // Check the arguments.                                                
     620                    ; 329 | //                                                                     
     621                    ; 330 | ASSERT(ui32Base == AES_BASE);                                          
     622                    ; 331 | ASSERT((ui32Keysize == AES_CFG_KEY_SIZE_128BIT) ||                     
     623                    ; 332 |        (ui32Keysize == AES_CFG_KEY_SIZE_192BIT) ||                     
     624                    ; 333 |        (ui32Keysize == AES_CFG_KEY_SIZE_256BIT));                      
     625                    ; 335 | //                                                                     
     626                    ; 336 | // With all key sizes, the first 4 words are written.                  
     627                    ; 337 | //                                                                     
     628                    ;----------------------------------------------------------------------
     629 000000a0 9202              STR       A3, [SP, #8]          ; [DPU_V7M3_PIPE] |326|  ; [ORIG 16-BIT INS]
     630 000000a2 9101              STR       A2, [SP, #4]          ; [DPU_V7M3_PIPE] |326|  ; [ORIG 16-BIT INS]
     631 000000a4 9000              STR       A1, [SP, #0]          ; [DPU_V7M3_PIPE] |326|  ; [ORIG 16-BIT INS]
     632                            .dwpsn  file "../driverlib/aes.c",line 338,column 5,is_stmt,isa 1
     633                    ;----------------------------------------------------------------------
     634                    ; 338 | HWREG(ui32Base + AES_O_KEY2_0) = pui32Key[0];                          
     635                    ;----------------------------------------------------------------------
     636 000000a6 9801              LDR       A1, [SP, #4]          ; [DPU_V7M3_PIPE] |338|  ; [ORIG 16-BIT INS]
     637 000000a8 9900              LDR       A2, [SP, #0]          ; [DPU_V7M3_PIPE] |338|  ; [ORIG 16-BIT INS]
     638 000000aa 6800              LDR       A1, [A1, #0]          ; [DPU_V7M3_PIPE] |338|  ; [ORIG 16-BIT INS]
     639 000000ac 6188              STR       A1, [A2, #24]         ; [DPU_V7M3_PIPE] |338|  ; [ORIG 16-BIT INS]
     640                            .dwpsn  file "../driverlib/aes.c",line 339,column 5,is_stmt,isa 1
     641                    ;----------------------------------------------------------------------
     642                    ; 339 | HWREG(ui32Base + AES_O_KEY2_1) = pui32Key[1];                          
     643                    ;----------------------------------------------------------------------
     644 000000ae 9801              LDR       A1, [SP, #4]          ; [DPU_V7M3_PIPE] |339|  ; [ORIG 16-BIT INS]
     645 000000b0 9900              LDR       A2, [SP, #0]          ; [DPU_V7M3_PIPE] |339|  ; [ORIG 16-BIT INS]
     646 000000b2 6840              LDR       A1, [A1, #4]          ; [DPU_V7M3_PIPE] |339|  ; [ORIG 16-BIT INS]
     647 000000b4 61C8              STR       A1, [A2, #28]         ; [DPU_V7M3_PIPE] |339|  ; [ORIG 16-BIT INS]
     648                            .dwpsn  file "../driverlib/aes.c",line 340,column 5,is_stmt,isa 1
     649                    ;----------------------------------------------------------------------
     650                    ; 340 | HWREG(ui32Base + AES_O_KEY2_2) = pui32Key[2];                          
     651                    ;----------------------------------------------------------------------
     652 000000b6 9801              LDR       A1, [SP, #4]          ; [DPU_V7M3_PIPE] |340|  ; [ORIG 16-BIT INS]
     653 000000b8 9900              LDR       A2, [SP, #0]          ; [DPU_V7M3_PIPE] |340|  ; [ORIG 16-BIT INS]
     654 000000ba 6880              LDR       A1, [A1, #8]          ; [DPU_V7M3_PIPE] |340|  ; [ORIG 16-BIT INS]
     655 000000bc 6108              STR       A1, [A2, #16]         ; [DPU_V7M3_PIPE] |340|  ; [ORIG 16-BIT INS]
     656                            .dwpsn  file "../driverlib/aes.c",line 341,column 5,is_stmt,isa 1
     657                    ;----------------------------------------------------------------------
     658                    ; 341 | HWREG(ui32Base + AES_O_KEY2_3) = pui32Key[3];                          
     659                    ; 343 | //                                                                     
     660                    ; 344 | // The key is 192 or 256 bits.  Write the next 2 words.                
TI ARM Assembler Unix v18.1.1 Fri Jul  3 20:08:23 2020

Tools Copyright (c) 1996-2017 Texas Instruments Incorporated
aes.asm                                                              PAGE   13

     661                    ; 345 | //                                                                     
     662                    ;----------------------------------------------------------------------
     663 000000be 9801              LDR       A1, [SP, #4]          ; [DPU_V7M3_PIPE] |341|  ; [ORIG 16-BIT INS]
     664 000000c0 9900              LDR       A2, [SP, #0]          ; [DPU_V7M3_PIPE] |341|  ; [ORIG 16-BIT INS]
     665 000000c2 68C0              LDR       A1, [A1, #12]         ; [DPU_V7M3_PIPE] |341|  ; [ORIG 16-BIT INS]
     666 000000c4 6148              STR       A1, [A2, #20]         ; [DPU_V7M3_PIPE] |341|  ; [ORIG 16-BIT INS]
     667                            .dwpsn  file "../driverlib/aes.c",line 346,column 5,is_stmt,isa 1
     668                    ;----------------------------------------------------------------------
     669                    ; 346 | if(ui32Keysize != AES_CFG_KEY_SIZE_128BIT)                             
     670                    ;----------------------------------------------------------------------
     671 000000c6 9802              LDR       A1, [SP, #8]          ; [DPU_V7M3_PIPE] |346|  ; [ORIG 16-BIT INS]
     672 000000c8 2808              CMP       A1, #8                ; [DPU_V7M3_PIPE] |346|  ; [ORIG 16-BIT INS]
     673 000000ca D007              BEQ       ||$C$L5||             ; [DPU_V7M3_PIPE] |346|  ; [ORIG 16-BIT INS]
     674                            ; BRANCHCC OCCURS {||$C$L5||}    ; [] |346| 
     675                    ;* --------------------------------------------------------------------------*
     676                            .dwpsn  file "../driverlib/aes.c",line 348,column 9,is_stmt,isa 1
     677                    ;----------------------------------------------------------------------
     678                    ; 348 | HWREG(ui32Base + AES_O_KEY2_4) = pui32Key[4];                          
     679                    ;----------------------------------------------------------------------
     680 000000cc 9801              LDR       A1, [SP, #4]          ; [DPU_V7M3_PIPE] |348|  ; [ORIG 16-BIT INS]
     681 000000ce 9900              LDR       A2, [SP, #0]          ; [DPU_V7M3_PIPE] |348|  ; [ORIG 16-BIT INS]
     682 000000d0 6900              LDR       A1, [A1, #16]         ; [DPU_V7M3_PIPE] |348|  ; [ORIG 16-BIT INS]
     683 000000d2 6088              STR       A1, [A2, #8]          ; [DPU_V7M3_PIPE] |348|  ; [ORIG 16-BIT INS]
     684                            .dwpsn  file "../driverlib/aes.c",line 349,column 9,is_stmt,isa 1
     685                    ;----------------------------------------------------------------------
     686                    ; 349 | HWREG(ui32Base + AES_O_KEY2_5) = pui32Key[5];                          
     687                    ; 352 | //                                                                     
     688                    ; 353 | // The key is 256 bits.  Write the last 2 words.                       
     689                    ; 354 | //                                                                     
     690                    ;----------------------------------------------------------------------
     691 000000d4 9801              LDR       A1, [SP, #4]          ; [DPU_V7M3_PIPE] |349|  ; [ORIG 16-BIT INS]
     692 000000d6 9900              LDR       A2, [SP, #0]          ; [DPU_V7M3_PIPE] |349|  ; [ORIG 16-BIT INS]
     693 000000d8 6940              LDR       A1, [A1, #20]         ; [DPU_V7M3_PIPE] |349|  ; [ORIG 16-BIT INS]
     694 000000da 60C8              STR       A1, [A2, #12]         ; [DPU_V7M3_PIPE] |349|  ; [ORIG 16-BIT INS]
     695                    ;* --------------------------------------------------------------------------*
     696 000000dc           ||$C$L5||:    
     697                            .dwpsn  file "../driverlib/aes.c",line 355,column 5,is_stmt,isa 1
     698                    ;----------------------------------------------------------------------
     699                    ; 355 | if(ui32Keysize == AES_CFG_KEY_SIZE_256BIT)                             
     700                    ;----------------------------------------------------------------------
     701 000000dc 9802              LDR       A1, [SP, #8]          ; [DPU_V7M3_PIPE] |355|  ; [ORIG 16-BIT INS]
     702 000000de 2818              CMP       A1, #24               ; [DPU_V7M3_PIPE] |355|  ; [ORIG 16-BIT INS]
     703 000000e0 D107              BNE       ||$C$L6||             ; [DPU_V7M3_PIPE] |355|  ; [ORIG 16-BIT INS]
     704                            ; BRANCHCC OCCURS {||$C$L6||}    ; [] |355| 
     705                    ;* --------------------------------------------------------------------------*
     706                            .dwpsn  file "../driverlib/aes.c",line 357,column 9,is_stmt,isa 1
     707                    ;----------------------------------------------------------------------
     708                    ; 357 | HWREG(ui32Base + AES_O_KEY2_6) = pui32Key[6];                          
     709                    ;----------------------------------------------------------------------
     710 000000e2 9801              LDR       A1, [SP, #4]          ; [DPU_V7M3_PIPE] |357|  ; [ORIG 16-BIT INS]
     711 000000e4 9900              LDR       A2, [SP, #0]          ; [DPU_V7M3_PIPE] |357|  ; [ORIG 16-BIT INS]
     712 000000e6 6980              LDR       A1, [A1, #24]         ; [DPU_V7M3_PIPE] |357|  ; [ORIG 16-BIT INS]
     713 000000e8 6008              STR       A1, [A2, #0]          ; [DPU_V7M3_PIPE] |357|  ; [ORIG 16-BIT INS]
     714                            .dwpsn  file "../driverlib/aes.c",line 358,column 9,is_stmt,isa 1
     715                    ;----------------------------------------------------------------------
TI ARM Assembler Unix v18.1.1 Fri Jul  3 20:08:23 2020

Tools Copyright (c) 1996-2017 Texas Instruments Incorporated
aes.asm                                                              PAGE   14

     716                    ; 358 | HWREG(ui32Base + AES_O_KEY2_7) = pui32Key[7];                          
     717                    ;----------------------------------------------------------------------
     718 000000ea 9801              LDR       A1, [SP, #4]          ; [DPU_V7M3_PIPE] |358|  ; [ORIG 16-BIT INS]
     719 000000ec 9900              LDR       A2, [SP, #0]          ; [DPU_V7M3_PIPE] |358|  ; [ORIG 16-BIT INS]
     720 000000ee 69C0              LDR       A1, [A1, #28]         ; [DPU_V7M3_PIPE] |358|  ; [ORIG 16-BIT INS]
     721 000000f0 6048              STR       A1, [A2, #4]          ; [DPU_V7M3_PIPE] |358|  ; [ORIG 16-BIT INS]
     722                            .dwpsn  file "../driverlib/aes.c",line 360,column 1,is_stmt,isa 1
     723                    ;* --------------------------------------------------------------------------*
     724 000000f2           ||$C$L6||:    
     725 000000f2 B004              ADD       SP, SP, #16           ; [DPU_V7M3_PIPE]  ; [ORIG 16-BIT INS]
     726                            .dwcfi  cfa_offset, 0
     727                    $C$DW$35        .dwtag  DW_TAG_TI_branch
     728                            .dwattr $C$DW$35, DW_AT_low_pc(0x00)
     729                            .dwattr $C$DW$35, DW_AT_TI_return
     730                    
     731 000000f4 4770              BX        LR                    ; [DPU_V7M3_PIPE]  ; [ORIG 16-BIT INS]
     732                            ; BRANCH OCCURS                  ; [] 
     733                            .dwattr $C$DW$28, DW_AT_TI_end_file("../driverlib/aes.c")
     734                            .dwattr $C$DW$28, DW_AT_TI_end_line(0x168)
     735                            .dwattr $C$DW$28, DW_AT_TI_end_column(0x01)
     736                            .dwendentry
     737                            .dwendtag $C$DW$28
     738                    
     739 000000f6                   .sect   ".text"
     740                            .clink
     741                            .thumbfunc AESKey3Set
     742 000000f6                   .thumb
     743                            .global AESKey3Set
     744                    
     745                    $C$DW$36        .dwtag  DW_TAG_subprogram
     746                            .dwattr $C$DW$36, DW_AT_name("AESKey3Set")
     747                            .dwattr $C$DW$36, DW_AT_low_pc(AESKey3Set)
     748                            .dwattr $C$DW$36, DW_AT_high_pc(0x00)
     749                            .dwattr $C$DW$36, DW_AT_TI_symbol_name("AESKey3Set")
     750                            .dwattr $C$DW$36, DW_AT_external
     751                            .dwattr $C$DW$36, DW_AT_TI_begin_file("../driverlib/aes.c")
     752                            .dwattr $C$DW$36, DW_AT_TI_begin_line(0x17a)
     753                            .dwattr $C$DW$36, DW_AT_TI_begin_column(0x01)
     754                            .dwattr $C$DW$36, DW_AT_decl_file("../driverlib/aes.c")
     755                            .dwattr $C$DW$36, DW_AT_decl_line(0x17a)
     756                            .dwattr $C$DW$36, DW_AT_decl_column(0x01)
     757                            .dwattr $C$DW$36, DW_AT_TI_max_frame_size(0x08)
     758                            .dwpsn  file "../driverlib/aes.c",line 379,column 1,is_stmt,address AESKey3Set,isa 1
     759                    
     760                            .dwfde $C$DW$CIE, AESKey3Set
     761                    $C$DW$37        .dwtag  DW_TAG_formal_parameter
     762                            .dwattr $C$DW$37, DW_AT_name("ui32Base")
     763                            .dwattr $C$DW$37, DW_AT_TI_symbol_name("ui32Base")
     764                            .dwattr $C$DW$37, DW_AT_type(*$C$DW$T$27)
     765                            .dwattr $C$DW$37, DW_AT_location[DW_OP_reg0]
     766                    
     767                    $C$DW$38        .dwtag  DW_TAG_formal_parameter
     768                            .dwattr $C$DW$38, DW_AT_name("pui32Key")
     769                            .dwattr $C$DW$38, DW_AT_TI_symbol_name("pui32Key")
     770                            .dwattr $C$DW$38, DW_AT_type(*$C$DW$T$34)
TI ARM Assembler Unix v18.1.1 Fri Jul  3 20:08:23 2020

Tools Copyright (c) 1996-2017 Texas Instruments Incorporated
aes.asm                                                              PAGE   15

     771                            .dwattr $C$DW$38, DW_AT_location[DW_OP_reg1]
     772                    
     773                    ;----------------------------------------------------------------------
     774                    ; 378 | AESKey3Set(uint32_t ui32Base, uint32_t *pui32Key)                      
     775                    ;----------------------------------------------------------------------
     776                    
     777                    ;*****************************************************************************
     778                    ;* FUNCTION NAME: AESKey3Set                                                 *
     779                    ;*                                                                           *
     780                    ;*   Regs Modified     : A1,A2,SP                                            *
     781                    ;*   Regs Used         : A1,A2,SP,LR                                         *
     782                    ;*   Local Frame Size  : 0 Args + 8 Auto + 0 Save = 8 byte                   *
     783                    ;*****************************************************************************
     784 000000f6           AESKey3Set:
     785                    ;* --------------------------------------------------------------------------*
     786                            .dwcfi  cfa_offset, 0
     787 000000f6 0D08F1AD          SUB       SP, SP, #8            ; [DPU_V7M3_PIPE]  ; [KEEP 32-BIT INS]
     788                            .dwcfi  cfa_offset, 8
     789                    $C$DW$39        .dwtag  DW_TAG_variable
     790                            .dwattr $C$DW$39, DW_AT_name("ui32Base")
     791                            .dwattr $C$DW$39, DW_AT_TI_symbol_name("ui32Base")
     792                            .dwattr $C$DW$39, DW_AT_type(*$C$DW$T$27)
     793                            .dwattr $C$DW$39, DW_AT_location[DW_OP_breg13 0]
     794                    
     795                    $C$DW$40        .dwtag  DW_TAG_variable
     796                            .dwattr $C$DW$40, DW_AT_name("pui32Key")
     797                            .dwattr $C$DW$40, DW_AT_TI_symbol_name("pui32Key")
     798                            .dwattr $C$DW$40, DW_AT_type(*$C$DW$T$34)
     799                            .dwattr $C$DW$40, DW_AT_location[DW_OP_breg13 4]
     800                    
     801                    ;----------------------------------------------------------------------
     802                    ; 380 | //                                                                     
     803                    ; 381 | // Check the arguments.                                                
     804                    ; 382 | //                                                                     
     805                    ; 383 | ASSERT(ui32Base == AES_BASE);                                          
     806                    ; 385 | //                                                                     
     807                    ; 386 | // Write the key into the upper 4 key registers                        
     808                    ; 387 | //                                                                     
     809                    ;----------------------------------------------------------------------
     810 000000fa 9101              STR       A2, [SP, #4]          ; [DPU_V7M3_PIPE] |379|  ; [ORIG 16-BIT INS]
     811 000000fc 9000              STR       A1, [SP, #0]          ; [DPU_V7M3_PIPE] |379|  ; [ORIG 16-BIT INS]
     812                            .dwpsn  file "../driverlib/aes.c",line 388,column 5,is_stmt,isa 1
     813                    ;----------------------------------------------------------------------
     814                    ; 388 | HWREG(ui32Base + AES_O_KEY2_4) = pui32Key[0];                          
     815                    ;----------------------------------------------------------------------
     816 000000fe 9801              LDR       A1, [SP, #4]          ; [DPU_V7M3_PIPE] |388|  ; [ORIG 16-BIT INS]
     817 00000100 9900              LDR       A2, [SP, #0]          ; [DPU_V7M3_PIPE] |388|  ; [ORIG 16-BIT INS]
     818 00000102 6800              LDR       A1, [A1, #0]          ; [DPU_V7M3_PIPE] |388|  ; [ORIG 16-BIT INS]
     819 00000104 6088              STR       A1, [A2, #8]          ; [DPU_V7M3_PIPE] |388|  ; [ORIG 16-BIT INS]
     820                            .dwpsn  file "../driverlib/aes.c",line 389,column 5,is_stmt,isa 1
     821                    ;----------------------------------------------------------------------
     822                    ; 389 | HWREG(ui32Base + AES_O_KEY2_5) = pui32Key[1];                          
     823                    ;----------------------------------------------------------------------
     824 00000106 9801              LDR       A1, [SP, #4]          ; [DPU_V7M3_PIPE] |389|  ; [ORIG 16-BIT INS]
     825 00000108 9900              LDR       A2, [SP, #0]          ; [DPU_V7M3_PIPE] |389|  ; [ORIG 16-BIT INS]
TI ARM Assembler Unix v18.1.1 Fri Jul  3 20:08:23 2020

Tools Copyright (c) 1996-2017 Texas Instruments Incorporated
aes.asm                                                              PAGE   16

     826 0000010a 6840              LDR       A1, [A1, #4]          ; [DPU_V7M3_PIPE] |389|  ; [ORIG 16-BIT INS]
     827 0000010c 60C8              STR       A1, [A2, #12]         ; [DPU_V7M3_PIPE] |389|  ; [ORIG 16-BIT INS]
     828                            .dwpsn  file "../driverlib/aes.c",line 390,column 5,is_stmt,isa 1
     829                    ;----------------------------------------------------------------------
     830                    ; 390 | HWREG(ui32Base + AES_O_KEY2_6) = pui32Key[2];                          
     831                    ;----------------------------------------------------------------------
     832 0000010e 9801              LDR       A1, [SP, #4]          ; [DPU_V7M3_PIPE] |390|  ; [ORIG 16-BIT INS]
     833 00000110 9900              LDR       A2, [SP, #0]          ; [DPU_V7M3_PIPE] |390|  ; [ORIG 16-BIT INS]
     834 00000112 6880              LDR       A1, [A1, #8]          ; [DPU_V7M3_PIPE] |390|  ; [ORIG 16-BIT INS]
     835 00000114 6008              STR       A1, [A2, #0]          ; [DPU_V7M3_PIPE] |390|  ; [ORIG 16-BIT INS]
     836                            .dwpsn  file "../driverlib/aes.c",line 391,column 5,is_stmt,isa 1
     837                    ;----------------------------------------------------------------------
     838                    ; 391 | HWREG(ui32Base + AES_O_KEY2_7) = pui32Key[3];                          
     839                    ;----------------------------------------------------------------------
     840 00000116 9801              LDR       A1, [SP, #4]          ; [DPU_V7M3_PIPE] |391|  ; [ORIG 16-BIT INS]
     841 00000118 9900              LDR       A2, [SP, #0]          ; [DPU_V7M3_PIPE] |391|  ; [ORIG 16-BIT INS]
     842 0000011a 68C0              LDR       A1, [A1, #12]         ; [DPU_V7M3_PIPE] |391|  ; [ORIG 16-BIT INS]
     843 0000011c 6048              STR       A1, [A2, #4]          ; [DPU_V7M3_PIPE] |391|  ; [ORIG 16-BIT INS]
     844                            .dwpsn  file "../driverlib/aes.c",line 392,column 1,is_stmt,isa 1
     845 0000011e B002              ADD       SP, SP, #8            ; [DPU_V7M3_PIPE]  ; [ORIG 16-BIT INS]
     846                            .dwcfi  cfa_offset, 0
     847                    $C$DW$41        .dwtag  DW_TAG_TI_branch
     848                            .dwattr $C$DW$41, DW_AT_low_pc(0x00)
     849                            .dwattr $C$DW$41, DW_AT_TI_return
     850                    
     851 00000120 4770              BX        LR                    ; [DPU_V7M3_PIPE]  ; [ORIG 16-BIT INS]
     852                            ; BRANCH OCCURS                  ; [] 
     853                            .dwattr $C$DW$36, DW_AT_TI_end_file("../driverlib/aes.c")
     854                            .dwattr $C$DW$36, DW_AT_TI_end_line(0x188)
     855                            .dwattr $C$DW$36, DW_AT_TI_end_column(0x01)
     856                            .dwendentry
     857                            .dwendtag $C$DW$36
     858                    
     859 00000122                   .sect   ".text"
     860                            .clink
     861                            .thumbfunc AESIVSet
     862 00000122                   .thumb
     863                            .global AESIVSet
     864                    
     865                    $C$DW$42        .dwtag  DW_TAG_subprogram
     866                            .dwattr $C$DW$42, DW_AT_name("AESIVSet")
     867                            .dwattr $C$DW$42, DW_AT_low_pc(AESIVSet)
     868                            .dwattr $C$DW$42, DW_AT_high_pc(0x00)
     869                            .dwattr $C$DW$42, DW_AT_TI_symbol_name("AESIVSet")
     870                            .dwattr $C$DW$42, DW_AT_external
     871                            .dwattr $C$DW$42, DW_AT_TI_begin_file("../driverlib/aes.c")
     872                            .dwattr $C$DW$42, DW_AT_TI_begin_line(0x198)
     873                            .dwattr $C$DW$42, DW_AT_TI_begin_column(0x01)
     874                            .dwattr $C$DW$42, DW_AT_decl_file("../driverlib/aes.c")
     875                            .dwattr $C$DW$42, DW_AT_decl_line(0x198)
     876                            .dwattr $C$DW$42, DW_AT_decl_column(0x01)
     877                            .dwattr $C$DW$42, DW_AT_TI_max_frame_size(0x08)
     878                            .dwpsn  file "../driverlib/aes.c",line 409,column 1,is_stmt,address AESIVSet,isa 1
     879                    
     880                            .dwfde $C$DW$CIE, AESIVSet
TI ARM Assembler Unix v18.1.1 Fri Jul  3 20:08:23 2020

Tools Copyright (c) 1996-2017 Texas Instruments Incorporated
aes.asm                                                              PAGE   17

     881                    $C$DW$43        .dwtag  DW_TAG_formal_parameter
     882                            .dwattr $C$DW$43, DW_AT_name("ui32Base")
     883                            .dwattr $C$DW$43, DW_AT_TI_symbol_name("ui32Base")
     884                            .dwattr $C$DW$43, DW_AT_type(*$C$DW$T$27)
     885                            .dwattr $C$DW$43, DW_AT_location[DW_OP_reg0]
     886                    
     887                    $C$DW$44        .dwtag  DW_TAG_formal_parameter
     888                            .dwattr $C$DW$44, DW_AT_name("pui32IVdata")
     889                            .dwattr $C$DW$44, DW_AT_TI_symbol_name("pui32IVdata")
     890                            .dwattr $C$DW$44, DW_AT_type(*$C$DW$T$34)
     891                            .dwattr $C$DW$44, DW_AT_location[DW_OP_reg1]
     892                    
     893                    ;----------------------------------------------------------------------
     894                    ; 408 | AESIVSet(uint32_t ui32Base, uint32_t *pui32IVdata)                     
     895                    ;----------------------------------------------------------------------
     896                    
     897                    ;*****************************************************************************
     898                    ;* FUNCTION NAME: AESIVSet                                                   *
     899                    ;*                                                                           *
     900                    ;*   Regs Modified     : A1,A2,SP                                            *
     901                    ;*   Regs Used         : A1,A2,SP,LR                                         *
     902                    ;*   Local Frame Size  : 0 Args + 8 Auto + 0 Save = 8 byte                   *
     903                    ;*****************************************************************************
     904 00000122           AESIVSet:
     905                    ;* --------------------------------------------------------------------------*
     906                            .dwcfi  cfa_offset, 0
     907 00000122 0D08F1AD          SUB       SP, SP, #8            ; [DPU_V7M3_PIPE]  ; [KEEP 32-BIT INS]
     908                            .dwcfi  cfa_offset, 8
     909                    $C$DW$45        .dwtag  DW_TAG_variable
     910                            .dwattr $C$DW$45, DW_AT_name("ui32Base")
     911                            .dwattr $C$DW$45, DW_AT_TI_symbol_name("ui32Base")
     912                            .dwattr $C$DW$45, DW_AT_type(*$C$DW$T$27)
     913                            .dwattr $C$DW$45, DW_AT_location[DW_OP_breg13 0]
     914                    
     915                    $C$DW$46        .dwtag  DW_TAG_variable
     916                            .dwattr $C$DW$46, DW_AT_name("pui32IVdata")
     917                            .dwattr $C$DW$46, DW_AT_TI_symbol_name("pui32IVdata")
     918                            .dwattr $C$DW$46, DW_AT_type(*$C$DW$T$34)
     919                            .dwattr $C$DW$46, DW_AT_location[DW_OP_breg13 4]
     920                    
     921                    ;----------------------------------------------------------------------
     922                    ; 410 | //                                                                     
     923                    ; 411 | // Check the arguments.                                                
     924                    ; 412 | //                                                                     
     925                    ; 413 | ASSERT(ui32Base == AES_BASE);                                          
     926                    ; 415 | //                                                                     
     927                    ; 416 | // Write the initial vector registers.                                 
     928                    ; 417 | //                                                                     
     929                    ;----------------------------------------------------------------------
     930 00000126 9101              STR       A2, [SP, #4]          ; [DPU_V7M3_PIPE] |409|  ; [ORIG 16-BIT INS]
     931 00000128 9000              STR       A1, [SP, #0]          ; [DPU_V7M3_PIPE] |409|  ; [ORIG 16-BIT INS]
     932                            .dwpsn  file "../driverlib/aes.c",line 418,column 5,is_stmt,isa 1
     933                    ;----------------------------------------------------------------------
     934                    ; 418 | HWREG(ui32Base + AES_O_IV_IN_0) = pui32IVdata[0];                      
     935                    ;----------------------------------------------------------------------
TI ARM Assembler Unix v18.1.1 Fri Jul  3 20:08:23 2020

Tools Copyright (c) 1996-2017 Texas Instruments Incorporated
aes.asm                                                              PAGE   18

     936 0000012a 9801              LDR       A1, [SP, #4]          ; [DPU_V7M3_PIPE] |418|  ; [ORIG 16-BIT INS]
     937 0000012c 9900              LDR       A2, [SP, #0]          ; [DPU_V7M3_PIPE] |418|  ; [ORIG 16-BIT INS]
     938 0000012e 6800              LDR       A1, [A1, #0]          ; [DPU_V7M3_PIPE] |418|  ; [ORIG 16-BIT INS]
     939 00000130 6408              STR       A1, [A2, #64]         ; [DPU_V7M3_PIPE] |418|  ; [ORIG 16-BIT INS]
     940                            .dwpsn  file "../driverlib/aes.c",line 419,column 5,is_stmt,isa 1
     941                    ;----------------------------------------------------------------------
     942                    ; 419 | HWREG(ui32Base + AES_O_IV_IN_1) = pui32IVdata[1];                      
     943                    ;----------------------------------------------------------------------
     944 00000132 9801              LDR       A1, [SP, #4]          ; [DPU_V7M3_PIPE] |419|  ; [ORIG 16-BIT INS]
     945 00000134 9900              LDR       A2, [SP, #0]          ; [DPU_V7M3_PIPE] |419|  ; [ORIG 16-BIT INS]
     946 00000136 6840              LDR       A1, [A1, #4]          ; [DPU_V7M3_PIPE] |419|  ; [ORIG 16-BIT INS]
     947 00000138 6448              STR       A1, [A2, #68]         ; [DPU_V7M3_PIPE] |419|  ; [ORIG 16-BIT INS]
     948                            .dwpsn  file "../driverlib/aes.c",line 420,column 5,is_stmt,isa 1
     949                    ;----------------------------------------------------------------------
     950                    ; 420 | HWREG(ui32Base + AES_O_IV_IN_2) = pui32IVdata[2];                      
     951                    ;----------------------------------------------------------------------
     952 0000013a 9801              LDR       A1, [SP, #4]          ; [DPU_V7M3_PIPE] |420|  ; [ORIG 16-BIT INS]
     953 0000013c 9900              LDR       A2, [SP, #0]          ; [DPU_V7M3_PIPE] |420|  ; [ORIG 16-BIT INS]
     954 0000013e 6880              LDR       A1, [A1, #8]          ; [DPU_V7M3_PIPE] |420|  ; [ORIG 16-BIT INS]
     955 00000140 6488              STR       A1, [A2, #72]         ; [DPU_V7M3_PIPE] |420|  ; [ORIG 16-BIT INS]
     956                            .dwpsn  file "../driverlib/aes.c",line 421,column 5,is_stmt,isa 1
     957                    ;----------------------------------------------------------------------
     958                    ; 421 | HWREG(ui32Base + AES_O_IV_IN_3) = pui32IVdata[3];                      
     959                    ;----------------------------------------------------------------------
     960 00000142 9801              LDR       A1, [SP, #4]          ; [DPU_V7M3_PIPE] |421|  ; [ORIG 16-BIT INS]
     961 00000144 9900              LDR       A2, [SP, #0]          ; [DPU_V7M3_PIPE] |421|  ; [ORIG 16-BIT INS]
     962 00000146 68C0              LDR       A1, [A1, #12]         ; [DPU_V7M3_PIPE] |421|  ; [ORIG 16-BIT INS]
     963 00000148 64C8              STR       A1, [A2, #76]         ; [DPU_V7M3_PIPE] |421|  ; [ORIG 16-BIT INS]
     964                            .dwpsn  file "../driverlib/aes.c",line 422,column 1,is_stmt,isa 1
     965 0000014a B002              ADD       SP, SP, #8            ; [DPU_V7M3_PIPE]  ; [ORIG 16-BIT INS]
     966                            .dwcfi  cfa_offset, 0
     967                    $C$DW$47        .dwtag  DW_TAG_TI_branch
     968                            .dwattr $C$DW$47, DW_AT_low_pc(0x00)
     969                            .dwattr $C$DW$47, DW_AT_TI_return
     970                    
     971 0000014c 4770              BX        LR                    ; [DPU_V7M3_PIPE]  ; [ORIG 16-BIT INS]
     972                            ; BRANCH OCCURS                  ; [] 
     973                            .dwattr $C$DW$42, DW_AT_TI_end_file("../driverlib/aes.c")
     974                            .dwattr $C$DW$42, DW_AT_TI_end_line(0x1a6)
     975                            .dwattr $C$DW$42, DW_AT_TI_end_column(0x01)
     976                            .dwendentry
     977                            .dwendtag $C$DW$42
     978                    
     979 0000014e                   .sect   ".text"
     980                            .clink
     981                            .thumbfunc AESIVRead
     982 0000014e                   .thumb
     983                            .global AESIVRead
     984                    
     985                    $C$DW$48        .dwtag  DW_TAG_subprogram
     986                            .dwattr $C$DW$48, DW_AT_name("AESIVRead")
     987                            .dwattr $C$DW$48, DW_AT_low_pc(AESIVRead)
     988                            .dwattr $C$DW$48, DW_AT_high_pc(0x00)
     989                            .dwattr $C$DW$48, DW_AT_TI_symbol_name("AESIVRead")
     990                            .dwattr $C$DW$48, DW_AT_external
TI ARM Assembler Unix v18.1.1 Fri Jul  3 20:08:23 2020

Tools Copyright (c) 1996-2017 Texas Instruments Incorporated
aes.asm                                                              PAGE   19

     991                            .dwattr $C$DW$48, DW_AT_TI_begin_file("../driverlib/aes.c")
     992                            .dwattr $C$DW$48, DW_AT_TI_begin_line(0x1b7)
     993                            .dwattr $C$DW$48, DW_AT_TI_begin_column(0x01)
     994                            .dwattr $C$DW$48, DW_AT_decl_file("../driverlib/aes.c")
     995                            .dwattr $C$DW$48, DW_AT_decl_line(0x1b7)
     996                            .dwattr $C$DW$48, DW_AT_decl_column(0x01)
     997                            .dwattr $C$DW$48, DW_AT_TI_max_frame_size(0x08)
     998                            .dwpsn  file "../driverlib/aes.c",line 440,column 1,is_stmt,address AESIVRead,isa 1
     999                    
    1000                            .dwfde $C$DW$CIE, AESIVRead
    1001                    $C$DW$49        .dwtag  DW_TAG_formal_parameter
    1002                            .dwattr $C$DW$49, DW_AT_name("ui32Base")
    1003                            .dwattr $C$DW$49, DW_AT_TI_symbol_name("ui32Base")
    1004                            .dwattr $C$DW$49, DW_AT_type(*$C$DW$T$27)
    1005                            .dwattr $C$DW$49, DW_AT_location[DW_OP_reg0]
    1006                    
    1007                    $C$DW$50        .dwtag  DW_TAG_formal_parameter
    1008                            .dwattr $C$DW$50, DW_AT_name("pui32IVData")
    1009                            .dwattr $C$DW$50, DW_AT_TI_symbol_name("pui32IVData")
    1010                            .dwattr $C$DW$50, DW_AT_type(*$C$DW$T$34)
    1011                            .dwattr $C$DW$50, DW_AT_location[DW_OP_reg1]
    1012                    
    1013                    ;----------------------------------------------------------------------
    1014                    ; 439 | AESIVRead(uint32_t ui32Base, uint32_t *pui32IVData)                    
    1015                    ;----------------------------------------------------------------------
    1016                    
    1017                    ;*****************************************************************************
    1018                    ;* FUNCTION NAME: AESIVRead                                                  *
    1019                    ;*                                                                           *
    1020                    ;*   Regs Modified     : A1,A2,SP,SR                                         *
    1021                    ;*   Regs Used         : A1,A2,SP,LR,SR                                      *
    1022                    ;*   Local Frame Size  : 0 Args + 8 Auto + 0 Save = 8 byte                   *
    1023                    ;*****************************************************************************
    1024 0000014e           AESIVRead:
    1025                    ;* --------------------------------------------------------------------------*
    1026                            .dwcfi  cfa_offset, 0
    1027 0000014e 0D08F1AD          SUB       SP, SP, #8            ; [DPU_V7M3_PIPE]  ; [KEEP 32-BIT INS]
    1028                            .dwcfi  cfa_offset, 8
    1029                    $C$DW$51        .dwtag  DW_TAG_variable
    1030                            .dwattr $C$DW$51, DW_AT_name("ui32Base")
    1031                            .dwattr $C$DW$51, DW_AT_TI_symbol_name("ui32Base")
    1032                            .dwattr $C$DW$51, DW_AT_type(*$C$DW$T$27)
    1033                            .dwattr $C$DW$51, DW_AT_location[DW_OP_breg13 0]
    1034                    
    1035                    $C$DW$52        .dwtag  DW_TAG_variable
    1036                            .dwattr $C$DW$52, DW_AT_name("pui32IVData")
    1037                            .dwattr $C$DW$52, DW_AT_TI_symbol_name("pui32IVData")
    1038                            .dwattr $C$DW$52, DW_AT_type(*$C$DW$T$34)
    1039                            .dwattr $C$DW$52, DW_AT_location[DW_OP_breg13 4]
    1040                    
    1041                    ;----------------------------------------------------------------------
    1042                    ; 441 | //                                                                     
    1043                    ; 442 | // Check the arguments.                                                
    1044                    ; 443 | //                                                                     
    1045                    ; 444 | ASSERT(ui32Base == AES_BASE);                                          
TI ARM Assembler Unix v18.1.1 Fri Jul  3 20:08:23 2020

Tools Copyright (c) 1996-2017 Texas Instruments Incorporated
aes.asm                                                              PAGE   20

    1046                    ; 446 | //                                                                     
    1047                    ; 447 | // Wait for the output context to be ready.                            
    1048                    ; 448 | //                                                                     
    1049                    ;----------------------------------------------------------------------
    1050 00000152 9101              STR       A2, [SP, #4]          ; [DPU_V7M3_PIPE] |440|  ; [ORIG 16-BIT INS]
    1051 00000154 9000              STR       A1, [SP, #0]          ; [DPU_V7M3_PIPE] |440|  ; [ORIG 16-BIT INS]
    1052                            .dwpsn  file "../driverlib/aes.c",line 449,column 5,is_stmt,isa 1
    1053                    ;----------------------------------------------------------------------
    1054                    ; 449 | while((AES_CTRL_SVCTXTRDY & (HWREG(ui32Base + AES_O_CTRL))) == 0)      
    1055                    ;----------------------------------------------------------------------
    1056                    ;* --------------------------------------------------------------------------*
    1057                    ;*   BEGIN LOOP ||$C$L7||
    1058                    ;*
    1059                    ;*   Loop source line                : 449
    1060                    ;*   Loop closing brace source line  : 451
    1061                    ;*   Known Minimum Trip Count        : 1
    1062                    ;*   Known Maximum Trip Count        : 4294967295
    1063                    ;*   Known Max Trip Count Factor     : 1
    1064                    ;* --------------------------------------------------------------------------*
    1065 00000156           ||$C$L7||:    
    1066                            .dwpsn  file "../driverlib/aes.c",line 449,column 11,is_stmt,isa 1
    1067                    ;----------------------------------------------------------------------
    1068                    ; 453 | //                                                                     
    1069                    ; 454 | // Read the tag data.                                                  
    1070                    ; 455 | //                                                                     
    1071                    ;----------------------------------------------------------------------
    1072 00000156 9800              LDR       A1, [SP, #0]          ; [DPU_V7M3_PIPE] |449|  ; [ORIG 16-BIT INS]
    1073 00000158 6D00              LDR       A1, [A1, #80]         ; [DPU_V7M3_PIPE] |449|  ; [ORIG 16-BIT INS]
    1074 0000015a 0FC0              LSRS      A1, A1, #31           ; [DPU_V7M3_PIPE] |449|  ; [ORIG 16-BIT INS]
    1075 0000015c D3FB              BCC       ||$C$L7||             ; [DPU_V7M3_PIPE] |449|  ; [ORIG 16-BIT INS]
    1076                            ; BRANCHCC OCCURS {||$C$L7||}    ; [] |449| 
    1077                    ;* --------------------------------------------------------------------------*
    1078                            .dwpsn  file "../driverlib/aes.c",line 456,column 5,is_stmt,isa 1
    1079                    ;----------------------------------------------------------------------
    1080                    ; 456 | pui32IVData[0] = HWREG((ui32Base + AES_O_IV_IN_0));                    
    1081                    ;----------------------------------------------------------------------
    1082 0000015e 9800              LDR       A1, [SP, #0]          ; [DPU_V7M3_PIPE] |456|  ; [ORIG 16-BIT INS]
    1083 00000160 9901              LDR       A2, [SP, #4]          ; [DPU_V7M3_PIPE] |456|  ; [ORIG 16-BIT INS]
    1084 00000162 6C00              LDR       A1, [A1, #64]         ; [DPU_V7M3_PIPE] |456|  ; [ORIG 16-BIT INS]
    1085 00000164 6008              STR       A1, [A2, #0]          ; [DPU_V7M3_PIPE] |456|  ; [ORIG 16-BIT INS]
    1086                            .dwpsn  file "../driverlib/aes.c",line 457,column 5,is_stmt,isa 1
    1087                    ;----------------------------------------------------------------------
    1088                    ; 457 | pui32IVData[1] = HWREG((ui32Base + AES_O_IV_IN_1));                    
    1089                    ;----------------------------------------------------------------------
    1090 00000166 9800              LDR       A1, [SP, #0]          ; [DPU_V7M3_PIPE] |457|  ; [ORIG 16-BIT INS]
    1091 00000168 9901              LDR       A2, [SP, #4]          ; [DPU_V7M3_PIPE] |457|  ; [ORIG 16-BIT INS]
    1092 0000016a 6C40              LDR       A1, [A1, #68]         ; [DPU_V7M3_PIPE] |457|  ; [ORIG 16-BIT INS]
    1093 0000016c 6048              STR       A1, [A2, #4]          ; [DPU_V7M3_PIPE] |457|  ; [ORIG 16-BIT INS]
    1094                            .dwpsn  file "../driverlib/aes.c",line 458,column 5,is_stmt,isa 1
    1095                    ;----------------------------------------------------------------------
    1096                    ; 458 | pui32IVData[2] = HWREG((ui32Base + AES_O_IV_IN_2));                    
    1097                    ;----------------------------------------------------------------------
    1098 0000016e 9800              LDR       A1, [SP, #0]          ; [DPU_V7M3_PIPE] |458|  ; [ORIG 16-BIT INS]
    1099 00000170 9901              LDR       A2, [SP, #4]          ; [DPU_V7M3_PIPE] |458|  ; [ORIG 16-BIT INS]
    1100 00000172 6C80              LDR       A1, [A1, #72]         ; [DPU_V7M3_PIPE] |458|  ; [ORIG 16-BIT INS]
TI ARM Assembler Unix v18.1.1 Fri Jul  3 20:08:23 2020

Tools Copyright (c) 1996-2017 Texas Instruments Incorporated
aes.asm                                                              PAGE   21

    1101 00000174 6088              STR       A1, [A2, #8]          ; [DPU_V7M3_PIPE] |458|  ; [ORIG 16-BIT INS]
    1102                            .dwpsn  file "../driverlib/aes.c",line 459,column 5,is_stmt,isa 1
    1103                    ;----------------------------------------------------------------------
    1104                    ; 459 | pui32IVData[3] = HWREG((ui32Base + AES_O_IV_IN_3));                    
    1105                    ;----------------------------------------------------------------------
    1106 00000176 9800              LDR       A1, [SP, #0]          ; [DPU_V7M3_PIPE] |459|  ; [ORIG 16-BIT INS]
    1107 00000178 9901              LDR       A2, [SP, #4]          ; [DPU_V7M3_PIPE] |459|  ; [ORIG 16-BIT INS]
    1108 0000017a 6CC0              LDR       A1, [A1, #76]         ; [DPU_V7M3_PIPE] |459|  ; [ORIG 16-BIT INS]
    1109 0000017c 60C8              STR       A1, [A2, #12]         ; [DPU_V7M3_PIPE] |459|  ; [ORIG 16-BIT INS]
    1110                            .dwpsn  file "../driverlib/aes.c",line 460,column 1,is_stmt,isa 1
    1111 0000017e B002              ADD       SP, SP, #8            ; [DPU_V7M3_PIPE]  ; [ORIG 16-BIT INS]
    1112                            .dwcfi  cfa_offset, 0
    1113                    $C$DW$53        .dwtag  DW_TAG_TI_branch
    1114                            .dwattr $C$DW$53, DW_AT_low_pc(0x00)
    1115                            .dwattr $C$DW$53, DW_AT_TI_return
    1116                    
    1117 00000180 4770              BX        LR                    ; [DPU_V7M3_PIPE]  ; [ORIG 16-BIT INS]
    1118                            ; BRANCH OCCURS                  ; [] 
    1119                            .dwattr $C$DW$48, DW_AT_TI_end_file("../driverlib/aes.c")
    1120                            .dwattr $C$DW$48, DW_AT_TI_end_line(0x1cc)
    1121                            .dwattr $C$DW$48, DW_AT_TI_end_column(0x01)
    1122                            .dwendentry
    1123                            .dwendtag $C$DW$48
    1124                    
    1125 00000182                   .sect   ".text"
    1126                            .clink
    1127                            .thumbfunc AESTagRead
    1128 00000182                   .thumb
    1129                            .global AESTagRead
    1130                    
    1131                    $C$DW$54        .dwtag  DW_TAG_subprogram
    1132                            .dwattr $C$DW$54, DW_AT_name("AESTagRead")
    1133                            .dwattr $C$DW$54, DW_AT_low_pc(AESTagRead)
    1134                            .dwattr $C$DW$54, DW_AT_high_pc(0x00)
    1135                            .dwattr $C$DW$54, DW_AT_TI_symbol_name("AESTagRead")
    1136                            .dwattr $C$DW$54, DW_AT_external
    1137                            .dwattr $C$DW$54, DW_AT_TI_begin_file("../driverlib/aes.c")
    1138                            .dwattr $C$DW$54, DW_AT_TI_begin_line(0x1dd)
    1139                            .dwattr $C$DW$54, DW_AT_TI_begin_column(0x01)
    1140                            .dwattr $C$DW$54, DW_AT_decl_file("../driverlib/aes.c")
    1141                            .dwattr $C$DW$54, DW_AT_decl_line(0x1dd)
    1142                            .dwattr $C$DW$54, DW_AT_decl_column(0x01)
    1143                            .dwattr $C$DW$54, DW_AT_TI_max_frame_size(0x08)
    1144                            .dwpsn  file "../driverlib/aes.c",line 478,column 1,is_stmt,address AESTagRead,isa 1
    1145                    
    1146                            .dwfde $C$DW$CIE, AESTagRead
    1147                    $C$DW$55        .dwtag  DW_TAG_formal_parameter
    1148                            .dwattr $C$DW$55, DW_AT_name("ui32Base")
    1149                            .dwattr $C$DW$55, DW_AT_TI_symbol_name("ui32Base")
    1150                            .dwattr $C$DW$55, DW_AT_type(*$C$DW$T$27)
    1151                            .dwattr $C$DW$55, DW_AT_location[DW_OP_reg0]
    1152                    
    1153                    $C$DW$56        .dwtag  DW_TAG_formal_parameter
    1154                            .dwattr $C$DW$56, DW_AT_name("pui32TagData")
    1155                            .dwattr $C$DW$56, DW_AT_TI_symbol_name("pui32TagData")
TI ARM Assembler Unix v18.1.1 Fri Jul  3 20:08:23 2020

Tools Copyright (c) 1996-2017 Texas Instruments Incorporated
aes.asm                                                              PAGE   22

    1156                            .dwattr $C$DW$56, DW_AT_type(*$C$DW$T$34)
    1157                            .dwattr $C$DW$56, DW_AT_location[DW_OP_reg1]
    1158                    
    1159                    ;----------------------------------------------------------------------
    1160                    ; 477 | AESTagRead(uint32_t ui32Base, uint32_t *pui32TagData)                  
    1161                    ;----------------------------------------------------------------------
    1162                    
    1163                    ;*****************************************************************************
    1164                    ;* FUNCTION NAME: AESTagRead                                                 *
    1165                    ;*                                                                           *
    1166                    ;*   Regs Modified     : A1,A2,SP,SR                                         *
    1167                    ;*   Regs Used         : A1,A2,SP,LR,SR                                      *
    1168                    ;*   Local Frame Size  : 0 Args + 8 Auto + 0 Save = 8 byte                   *
    1169                    ;*****************************************************************************
    1170 00000182           AESTagRead:
    1171                    ;* --------------------------------------------------------------------------*
    1172                            .dwcfi  cfa_offset, 0
    1173 00000182 0D08F1AD          SUB       SP, SP, #8            ; [DPU_V7M3_PIPE]  ; [KEEP 32-BIT INS]
    1174                            .dwcfi  cfa_offset, 8
    1175                    $C$DW$57        .dwtag  DW_TAG_variable
    1176                            .dwattr $C$DW$57, DW_AT_name("ui32Base")
    1177                            .dwattr $C$DW$57, DW_AT_TI_symbol_name("ui32Base")
    1178                            .dwattr $C$DW$57, DW_AT_type(*$C$DW$T$27)
    1179                            .dwattr $C$DW$57, DW_AT_location[DW_OP_breg13 0]
    1180                    
    1181                    $C$DW$58        .dwtag  DW_TAG_variable
    1182                            .dwattr $C$DW$58, DW_AT_name("pui32TagData")
    1183                            .dwattr $C$DW$58, DW_AT_TI_symbol_name("pui32TagData")
    1184                            .dwattr $C$DW$58, DW_AT_type(*$C$DW$T$34)
    1185                            .dwattr $C$DW$58, DW_AT_location[DW_OP_breg13 4]
    1186                    
    1187                    ;----------------------------------------------------------------------
    1188                    ; 479 | //                                                                     
    1189                    ; 480 | // Check the arguments.                                                
    1190                    ; 481 | //                                                                     
    1191                    ; 482 | ASSERT(ui32Base == AES_BASE);                                          
    1192                    ; 484 | //                                                                     
    1193                    ; 485 | // Wait for the output context to be ready.                            
    1194                    ; 486 | //                                                                     
    1195                    ;----------------------------------------------------------------------
    1196 00000186 9101              STR       A2, [SP, #4]          ; [DPU_V7M3_PIPE] |478|  ; [ORIG 16-BIT INS]
    1197 00000188 9000              STR       A1, [SP, #0]          ; [DPU_V7M3_PIPE] |478|  ; [ORIG 16-BIT INS]
    1198                            .dwpsn  file "../driverlib/aes.c",line 487,column 5,is_stmt,isa 1
    1199                    ;----------------------------------------------------------------------
    1200                    ; 487 | while((AES_CTRL_SVCTXTRDY & (HWREG(ui32Base + AES_O_CTRL))) == 0)      
    1201                    ;----------------------------------------------------------------------
    1202                    ;* --------------------------------------------------------------------------*
    1203                    ;*   BEGIN LOOP ||$C$L8||
    1204                    ;*
    1205                    ;*   Loop source line                : 487
    1206                    ;*   Loop closing brace source line  : 489
    1207                    ;*   Known Minimum Trip Count        : 1
    1208                    ;*   Known Maximum Trip Count        : 4294967295
    1209                    ;*   Known Max Trip Count Factor     : 1
    1210                    ;* --------------------------------------------------------------------------*
TI ARM Assembler Unix v18.1.1 Fri Jul  3 20:08:23 2020

Tools Copyright (c) 1996-2017 Texas Instruments Incorporated
aes.asm                                                              PAGE   23

    1211 0000018a           ||$C$L8||:    
    1212                            .dwpsn  file "../driverlib/aes.c",line 487,column 11,is_stmt,isa 1
    1213                    ;----------------------------------------------------------------------
    1214                    ; 491 | //                                                                     
    1215                    ; 492 | // Read the tag data.                                                  
    1216                    ; 493 | //                                                                     
    1217                    ;----------------------------------------------------------------------
    1218 0000018a 9800              LDR       A1, [SP, #0]          ; [DPU_V7M3_PIPE] |487|  ; [ORIG 16-BIT INS]
    1219 0000018c 6D00              LDR       A1, [A1, #80]         ; [DPU_V7M3_PIPE] |487|  ; [ORIG 16-BIT INS]
    1220 0000018e 0FC0              LSRS      A1, A1, #31           ; [DPU_V7M3_PIPE] |487|  ; [ORIG 16-BIT INS]
    1221 00000190 D3FB              BCC       ||$C$L8||             ; [DPU_V7M3_PIPE] |487|  ; [ORIG 16-BIT INS]
    1222                            ; BRANCHCC OCCURS {||$C$L8||}    ; [] |487| 
    1223                    ;* --------------------------------------------------------------------------*
    1224                            .dwpsn  file "../driverlib/aes.c",line 494,column 5,is_stmt,isa 1
    1225                    ;----------------------------------------------------------------------
    1226                    ; 494 | pui32TagData[0] = HWREG((ui32Base + AES_O_TAG_OUT_0));                 
    1227                    ;----------------------------------------------------------------------
    1228 00000192 9800              LDR       A1, [SP, #0]          ; [DPU_V7M3_PIPE] |494|  ; [ORIG 16-BIT INS]
    1229 00000194 9901              LDR       A2, [SP, #4]          ; [DPU_V7M3_PIPE] |494|  ; [ORIG 16-BIT INS]
    1230 00000196 6F00              LDR       A1, [A1, #112]        ; [DPU_V7M3_PIPE] |494|  ; [ORIG 16-BIT INS]
    1231 00000198 6008              STR       A1, [A2, #0]          ; [DPU_V7M3_PIPE] |494|  ; [ORIG 16-BIT INS]
    1232                            .dwpsn  file "../driverlib/aes.c",line 495,column 5,is_stmt,isa 1
    1233                    ;----------------------------------------------------------------------
    1234                    ; 495 | pui32TagData[1] = HWREG((ui32Base + AES_O_TAG_OUT_1));                 
    1235                    ;----------------------------------------------------------------------
    1236 0000019a 9800              LDR       A1, [SP, #0]          ; [DPU_V7M3_PIPE] |495|  ; [ORIG 16-BIT INS]
    1237 0000019c 9901              LDR       A2, [SP, #4]          ; [DPU_V7M3_PIPE] |495|  ; [ORIG 16-BIT INS]
    1238 0000019e 6F40              LDR       A1, [A1, #116]        ; [DPU_V7M3_PIPE] |495|  ; [ORIG 16-BIT INS]
    1239 000001a0 6048              STR       A1, [A2, #4]          ; [DPU_V7M3_PIPE] |495|  ; [ORIG 16-BIT INS]
    1240                            .dwpsn  file "../driverlib/aes.c",line 496,column 5,is_stmt,isa 1
    1241                    ;----------------------------------------------------------------------
    1242                    ; 496 | pui32TagData[2] = HWREG((ui32Base + AES_O_TAG_OUT_2));                 
    1243                    ;----------------------------------------------------------------------
    1244 000001a2 9800              LDR       A1, [SP, #0]          ; [DPU_V7M3_PIPE] |496|  ; [ORIG 16-BIT INS]
    1245 000001a4 9901              LDR       A2, [SP, #4]          ; [DPU_V7M3_PIPE] |496|  ; [ORIG 16-BIT INS]
    1246 000001a6 6F80              LDR       A1, [A1, #120]        ; [DPU_V7M3_PIPE] |496|  ; [ORIG 16-BIT INS]
    1247 000001a8 6088              STR       A1, [A2, #8]          ; [DPU_V7M3_PIPE] |496|  ; [ORIG 16-BIT INS]
    1248                            .dwpsn  file "../driverlib/aes.c",line 497,column 5,is_stmt,isa 1
    1249                    ;----------------------------------------------------------------------
    1250                    ; 497 | pui32TagData[3] = HWREG((ui32Base + AES_O_TAG_OUT_3));                 
    1251                    ;----------------------------------------------------------------------
    1252 000001aa 9800              LDR       A1, [SP, #0]          ; [DPU_V7M3_PIPE] |497|  ; [ORIG 16-BIT INS]
    1253 000001ac 9901              LDR       A2, [SP, #4]          ; [DPU_V7M3_PIPE] |497|  ; [ORIG 16-BIT INS]
    1254 000001ae 6FC0              LDR       A1, [A1, #124]        ; [DPU_V7M3_PIPE] |497|  ; [ORIG 16-BIT INS]
    1255 000001b0 60C8              STR       A1, [A2, #12]         ; [DPU_V7M3_PIPE] |497|  ; [ORIG 16-BIT INS]
    1256                            .dwpsn  file "../driverlib/aes.c",line 498,column 1,is_stmt,isa 1
    1257 000001b2 B002              ADD       SP, SP, #8            ; [DPU_V7M3_PIPE]  ; [ORIG 16-BIT INS]
    1258                            .dwcfi  cfa_offset, 0
    1259                    $C$DW$59        .dwtag  DW_TAG_TI_branch
    1260                            .dwattr $C$DW$59, DW_AT_low_pc(0x00)
    1261                            .dwattr $C$DW$59, DW_AT_TI_return
    1262                    
    1263 000001b4 4770              BX        LR                    ; [DPU_V7M3_PIPE]  ; [ORIG 16-BIT INS]
    1264                            ; BRANCH OCCURS                  ; [] 
    1265                            .dwattr $C$DW$54, DW_AT_TI_end_file("../driverlib/aes.c")
TI ARM Assembler Unix v18.1.1 Fri Jul  3 20:08:23 2020

Tools Copyright (c) 1996-2017 Texas Instruments Incorporated
aes.asm                                                              PAGE   24

    1266                            .dwattr $C$DW$54, DW_AT_TI_end_line(0x1f2)
    1267                            .dwattr $C$DW$54, DW_AT_TI_end_column(0x01)
    1268                            .dwendentry
    1269                            .dwendtag $C$DW$54
    1270                    
    1271 000001b6                   .sect   ".text"
    1272                            .clink
    1273                            .thumbfunc AESLengthSet
    1274 000001b6                   .thumb
    1275                            .global AESLengthSet
    1276                    
    1277                    $C$DW$60        .dwtag  DW_TAG_subprogram
    1278                            .dwattr $C$DW$60, DW_AT_name("AESLengthSet")
    1279                            .dwattr $C$DW$60, DW_AT_low_pc(AESLengthSet)
    1280                            .dwattr $C$DW$60, DW_AT_high_pc(0x00)
    1281                            .dwattr $C$DW$60, DW_AT_TI_symbol_name("AESLengthSet")
    1282                            .dwattr $C$DW$60, DW_AT_external
    1283                            .dwattr $C$DW$60, DW_AT_TI_begin_file("../driverlib/aes.c")
    1284                            .dwattr $C$DW$60, DW_AT_TI_begin_line(0x20c)
    1285                            .dwattr $C$DW$60, DW_AT_TI_begin_column(0x01)
    1286                            .dwattr $C$DW$60, DW_AT_decl_file("../driverlib/aes.c")
    1287                            .dwattr $C$DW$60, DW_AT_decl_line(0x20c)
    1288                            .dwattr $C$DW$60, DW_AT_decl_column(0x01)
    1289                            .dwattr $C$DW$60, DW_AT_TI_max_frame_size(0x10)
    1290                            .dwpsn  file "../driverlib/aes.c",line 525,column 1,is_stmt,address AESLengthSet,isa 1
    1291                    
    1292                            .dwfde $C$DW$CIE, AESLengthSet
    1293                    $C$DW$61        .dwtag  DW_TAG_formal_parameter
    1294                            .dwattr $C$DW$61, DW_AT_name("ui32Base")
    1295                            .dwattr $C$DW$61, DW_AT_TI_symbol_name("ui32Base")
    1296                            .dwattr $C$DW$61, DW_AT_type(*$C$DW$T$27)
    1297                            .dwattr $C$DW$61, DW_AT_location[DW_OP_reg0]
    1298                    
    1299                    $C$DW$62        .dwtag  DW_TAG_formal_parameter
    1300                            .dwattr $C$DW$62, DW_AT_name("ui64Length")
    1301                            .dwattr $C$DW$62, DW_AT_TI_symbol_name("ui64Length")
    1302                            .dwattr $C$DW$62, DW_AT_type(*$C$DW$T$39)
    1303                            .dwattr $C$DW$62, DW_AT_location[DW_OP_reg2]
    1304                    
    1305                    ;----------------------------------------------------------------------
    1306                    ; 524 | AESLengthSet(uint32_t ui32Base, uint64_t ui64Length)                   
    1307                    ;----------------------------------------------------------------------
    1308                    
    1309                    ;*****************************************************************************
    1310                    ;* FUNCTION NAME: AESLengthSet                                               *
    1311                    ;*                                                                           *
    1312                    ;*   Regs Modified     : A1,A2,SP                                            *
    1313                    ;*   Regs Used         : A1,A2,A3,A4,SP,LR                                   *
    1314                    ;*   Local Frame Size  : 0 Args + 12 Auto + 0 Save = 12 byte                 *
    1315                    ;*****************************************************************************
    1316 000001b6           AESLengthSet:
    1317                    ;* --------------------------------------------------------------------------*
    1318                            .dwcfi  cfa_offset, 0
    1319 000001b6 0D10F1AD          SUB       SP, SP, #16           ; [DPU_V7M3_PIPE]  ; [KEEP 32-BIT INS]
    1320                            .dwcfi  cfa_offset, 16
TI ARM Assembler Unix v18.1.1 Fri Jul  3 20:08:23 2020

Tools Copyright (c) 1996-2017 Texas Instruments Incorporated
aes.asm                                                              PAGE   25

    1321                    $C$DW$63        .dwtag  DW_TAG_variable
    1322                            .dwattr $C$DW$63, DW_AT_name("ui64Length")
    1323                            .dwattr $C$DW$63, DW_AT_TI_symbol_name("ui64Length")
    1324                            .dwattr $C$DW$63, DW_AT_type(*$C$DW$T$39)
    1325                            .dwattr $C$DW$63, DW_AT_location[DW_OP_breg13 0]
    1326                    
    1327                    $C$DW$64        .dwtag  DW_TAG_variable
    1328                            .dwattr $C$DW$64, DW_AT_name("ui32Base")
    1329                            .dwattr $C$DW$64, DW_AT_TI_symbol_name("ui32Base")
    1330                            .dwattr $C$DW$64, DW_AT_type(*$C$DW$T$27)
    1331                            .dwattr $C$DW$64, DW_AT_location[DW_OP_breg13 8]
    1332                    
    1333                    ;----------------------------------------------------------------------
    1334                    ; 526 | //                                                                     
    1335                    ; 527 | // Check the arguments.                                                
    1336                    ; 528 | //                                                                     
    1337                    ; 529 | ASSERT(ui32Base == AES_BASE);                                          
    1338                    ; 531 | //                                                                     
    1339                    ; 532 | // Write the length register by shifting the 64-bit ui64Length.        
    1340                    ; 533 | //                                                                     
    1341                    ;----------------------------------------------------------------------
    1342 000001ba 000CE88D          STMIA     SP, {A3,A4}           ; [DPU_V7M3_PIPE] |525|  ; [KEEP 32-BIT INS]
    1343 000001be 9002              STR       A1, [SP, #8]          ; [DPU_V7M3_PIPE] |525|  ; [ORIG 16-BIT INS]
    1344                            .dwpsn  file "../driverlib/aes.c",line 534,column 5,is_stmt,isa 1
    1345                    ;----------------------------------------------------------------------
    1346                    ; 534 | HWREG(ui32Base + AES_O_C_LENGTH_0) = (uint32_t)(ui64Length);           
    1347                    ;----------------------------------------------------------------------
    1348 000001c0 9902              LDR       A2, [SP, #8]          ; [DPU_V7M3_PIPE] |534|  ; [ORIG 16-BIT INS]
    1349 000001c2 9800              LDR       A1, [SP, #0]          ; [DPU_V7M3_PIPE] |534|  ; [ORIG 16-BIT INS]
    1350 000001c4 6548              STR       A1, [A2, #84]         ; [DPU_V7M3_PIPE] |534|  ; [ORIG 16-BIT INS]
    1351                            .dwpsn  file "../driverlib/aes.c",line 535,column 5,is_stmt,isa 1
    1352                    ;----------------------------------------------------------------------
    1353                    ; 535 | HWREG(ui32Base + AES_O_C_LENGTH_1) = (uint32_t)(ui64Length >> 32);     
    1354                    ;----------------------------------------------------------------------
    1355 000001c6 9801              LDR       A1, [SP, #4]          ; [DPU_V7M3_PIPE] |535|  ; [ORIG 16-BIT INS]
    1356 000001c8 9902              LDR       A2, [SP, #8]          ; [DPU_V7M3_PIPE] |535|  ; [ORIG 16-BIT INS]
    1357 000001ca 6588              STR       A1, [A2, #88]         ; [DPU_V7M3_PIPE] |535|  ; [ORIG 16-BIT INS]
    1358                            .dwpsn  file "../driverlib/aes.c",line 536,column 1,is_stmt,isa 1
    1359 000001cc B004              ADD       SP, SP, #16           ; [DPU_V7M3_PIPE]  ; [ORIG 16-BIT INS]
    1360                            .dwcfi  cfa_offset, 0
    1361                    $C$DW$65        .dwtag  DW_TAG_TI_branch
    1362                            .dwattr $C$DW$65, DW_AT_low_pc(0x00)
    1363                            .dwattr $C$DW$65, DW_AT_TI_return
    1364                    
    1365 000001ce 4770              BX        LR                    ; [DPU_V7M3_PIPE]  ; [ORIG 16-BIT INS]
    1366                            ; BRANCH OCCURS                  ; [] 
    1367                            .dwattr $C$DW$60, DW_AT_TI_end_file("../driverlib/aes.c")
    1368                            .dwattr $C$DW$60, DW_AT_TI_end_line(0x218)
    1369                            .dwattr $C$DW$60, DW_AT_TI_end_column(0x01)
    1370                            .dwendentry
    1371                            .dwendtag $C$DW$60
    1372                    
    1373 000001d0                   .sect   ".text"
    1374                            .clink
    1375                            .thumbfunc AESAuthLengthSet
TI ARM Assembler Unix v18.1.1 Fri Jul  3 20:08:23 2020

Tools Copyright (c) 1996-2017 Texas Instruments Incorporated
aes.asm                                                              PAGE   26

    1376 000001d0                   .thumb
    1377                            .global AESAuthLengthSet
    1378                    
    1379                    $C$DW$66        .dwtag  DW_TAG_subprogram
    1380                            .dwattr $C$DW$66, DW_AT_name("AESAuthLengthSet")
    1381                            .dwattr $C$DW$66, DW_AT_low_pc(AESAuthLengthSet)
    1382                            .dwattr $C$DW$66, DW_AT_high_pc(0x00)
    1383                            .dwattr $C$DW$66, DW_AT_TI_symbol_name("AESAuthLengthSet")
    1384                            .dwattr $C$DW$66, DW_AT_external
    1385                            .dwattr $C$DW$66, DW_AT_TI_begin_file("../driverlib/aes.c")
    1386                            .dwattr $C$DW$66, DW_AT_TI_begin_line(0x231)
    1387                            .dwattr $C$DW$66, DW_AT_TI_begin_column(0x01)
    1388                            .dwattr $C$DW$66, DW_AT_decl_file("../driverlib/aes.c")
    1389                            .dwattr $C$DW$66, DW_AT_decl_line(0x231)
    1390                            .dwattr $C$DW$66, DW_AT_decl_column(0x01)
    1391                            .dwattr $C$DW$66, DW_AT_TI_max_frame_size(0x08)
    1392                            .dwpsn  file "../driverlib/aes.c",line 562,column 1,is_stmt,address AESAuthLengthSet,isa 1
    1393                    
    1394                            .dwfde $C$DW$CIE, AESAuthLengthSet
    1395                    $C$DW$67        .dwtag  DW_TAG_formal_parameter
    1396                            .dwattr $C$DW$67, DW_AT_name("ui32Base")
    1397                            .dwattr $C$DW$67, DW_AT_TI_symbol_name("ui32Base")
    1398                            .dwattr $C$DW$67, DW_AT_type(*$C$DW$T$27)
    1399                            .dwattr $C$DW$67, DW_AT_location[DW_OP_reg0]
    1400                    
    1401                    $C$DW$68        .dwtag  DW_TAG_formal_parameter
    1402                            .dwattr $C$DW$68, DW_AT_name("ui32Length")
    1403                            .dwattr $C$DW$68, DW_AT_TI_symbol_name("ui32Length")
    1404                            .dwattr $C$DW$68, DW_AT_type(*$C$DW$T$27)
    1405                            .dwattr $C$DW$68, DW_AT_location[DW_OP_reg1]
    1406                    
    1407                    ;----------------------------------------------------------------------
    1408                    ; 561 | AESAuthLengthSet(uint32_t ui32Base, uint32_t ui32Length)               
    1409                    ;----------------------------------------------------------------------
    1410                    
    1411                    ;*****************************************************************************
    1412                    ;* FUNCTION NAME: AESAuthLengthSet                                           *
    1413                    ;*                                                                           *
    1414                    ;*   Regs Modified     : A1,A2,SP                                            *
    1415                    ;*   Regs Used         : A1,A2,SP,LR                                         *
    1416                    ;*   Local Frame Size  : 0 Args + 8 Auto + 0 Save = 8 byte                   *
    1417                    ;*****************************************************************************
    1418 000001d0           AESAuthLengthSet:
    1419                    ;* --------------------------------------------------------------------------*
    1420                            .dwcfi  cfa_offset, 0
    1421 000001d0 0D08F1AD          SUB       SP, SP, #8            ; [DPU_V7M3_PIPE]  ; [KEEP 32-BIT INS]
    1422                            .dwcfi  cfa_offset, 8
    1423                    $C$DW$69        .dwtag  DW_TAG_variable
    1424                            .dwattr $C$DW$69, DW_AT_name("ui32Base")
    1425                            .dwattr $C$DW$69, DW_AT_TI_symbol_name("ui32Base")
    1426                            .dwattr $C$DW$69, DW_AT_type(*$C$DW$T$27)
    1427                            .dwattr $C$DW$69, DW_AT_location[DW_OP_breg13 0]
    1428                    
    1429                    $C$DW$70        .dwtag  DW_TAG_variable
    1430                            .dwattr $C$DW$70, DW_AT_name("ui32Length")
TI ARM Assembler Unix v18.1.1 Fri Jul  3 20:08:23 2020

Tools Copyright (c) 1996-2017 Texas Instruments Incorporated
aes.asm                                                              PAGE   27

    1431                            .dwattr $C$DW$70, DW_AT_TI_symbol_name("ui32Length")
    1432                            .dwattr $C$DW$70, DW_AT_type(*$C$DW$T$27)
    1433                            .dwattr $C$DW$70, DW_AT_location[DW_OP_breg13 4]
    1434                    
    1435                    ;----------------------------------------------------------------------
    1436                    ; 563 | //                                                                     
    1437                    ; 564 | // Check the arguments.                                                
    1438                    ; 565 | //                                                                     
    1439                    ; 566 | ASSERT(ui32Base == AES_BASE);                                          
    1440                    ; 568 | //                                                                     
    1441                    ; 569 | // Write the length into the register.                                 
    1442                    ; 570 | //                                                                     
    1443                    ;----------------------------------------------------------------------
    1444 000001d4 9101              STR       A2, [SP, #4]          ; [DPU_V7M3_PIPE] |562|  ; [ORIG 16-BIT INS]
    1445 000001d6 9000              STR       A1, [SP, #0]          ; [DPU_V7M3_PIPE] |562|  ; [ORIG 16-BIT INS]
    1446                            .dwpsn  file "../driverlib/aes.c",line 571,column 5,is_stmt,isa 1
    1447                    ;----------------------------------------------------------------------
    1448                    ; 571 | HWREG(ui32Base + AES_O_AUTH_LENGTH) = ui32Length;                      
    1449                    ;----------------------------------------------------------------------
    1450 000001d8 9801              LDR       A1, [SP, #4]          ; [DPU_V7M3_PIPE] |571|  ; [ORIG 16-BIT INS]
    1451 000001da 9900              LDR       A2, [SP, #0]          ; [DPU_V7M3_PIPE] |571|  ; [ORIG 16-BIT INS]
    1452 000001dc 65C8              STR       A1, [A2, #92]         ; [DPU_V7M3_PIPE] |571|  ; [ORIG 16-BIT INS]
    1453                            .dwpsn  file "../driverlib/aes.c",line 572,column 1,is_stmt,isa 1
    1454 000001de B002              ADD       SP, SP, #8            ; [DPU_V7M3_PIPE]  ; [ORIG 16-BIT INS]
    1455                            .dwcfi  cfa_offset, 0
    1456                    $C$DW$71        .dwtag  DW_TAG_TI_branch
    1457                            .dwattr $C$DW$71, DW_AT_low_pc(0x00)
    1458                            .dwattr $C$DW$71, DW_AT_TI_return
    1459                    
    1460 000001e0 4770              BX        LR                    ; [DPU_V7M3_PIPE]  ; [ORIG 16-BIT INS]
    1461                            ; BRANCH OCCURS                  ; [] 
    1462                            .dwattr $C$DW$66, DW_AT_TI_end_file("../driverlib/aes.c")
    1463                            .dwattr $C$DW$66, DW_AT_TI_end_line(0x23c)
    1464                            .dwattr $C$DW$66, DW_AT_TI_end_column(0x01)
    1465                            .dwendentry
    1466                            .dwendtag $C$DW$66
    1467                    
    1468 000001e2                   .sect   ".text"
    1469                            .clink
    1470                            .thumbfunc AESDataReadNonBlocking
    1471 000001e2                   .thumb
    1472                            .global AESDataReadNonBlocking
    1473                    
    1474                    $C$DW$72        .dwtag  DW_TAG_subprogram
    1475                            .dwattr $C$DW$72, DW_AT_name("AESDataReadNonBlocking")
    1476                            .dwattr $C$DW$72, DW_AT_low_pc(AESDataReadNonBlocking)
    1477                            .dwattr $C$DW$72, DW_AT_high_pc(0x00)
    1478                            .dwattr $C$DW$72, DW_AT_TI_symbol_name("AESDataReadNonBlocking")
    1479                            .dwattr $C$DW$72, DW_AT_external
    1480                            .dwattr $C$DW$72, DW_AT_type(*$C$DW$T$118)
    1481                            .dwattr $C$DW$72, DW_AT_TI_begin_file("../driverlib/aes.c")
    1482                            .dwattr $C$DW$72, DW_AT_TI_begin_line(0x24e)
    1483                            .dwattr $C$DW$72, DW_AT_TI_begin_column(0x01)
    1484                            .dwattr $C$DW$72, DW_AT_decl_file("../driverlib/aes.c")
    1485                            .dwattr $C$DW$72, DW_AT_decl_line(0x24e)
TI ARM Assembler Unix v18.1.1 Fri Jul  3 20:08:23 2020

Tools Copyright (c) 1996-2017 Texas Instruments Incorporated
aes.asm                                                              PAGE   28

    1486                            .dwattr $C$DW$72, DW_AT_decl_column(0x01)
    1487                            .dwattr $C$DW$72, DW_AT_TI_max_frame_size(0x08)
    1488                            .dwpsn  file "../driverlib/aes.c",line 591,column 1,is_stmt,address AESDataReadNonBlocking,isa
    1489                    
    1490                            .dwfde $C$DW$CIE, AESDataReadNonBlocking
    1491                    $C$DW$73        .dwtag  DW_TAG_formal_parameter
    1492                            .dwattr $C$DW$73, DW_AT_name("ui32Base")
    1493                            .dwattr $C$DW$73, DW_AT_TI_symbol_name("ui32Base")
    1494                            .dwattr $C$DW$73, DW_AT_type(*$C$DW$T$27)
    1495                            .dwattr $C$DW$73, DW_AT_location[DW_OP_reg0]
    1496                    
    1497                    $C$DW$74        .dwtag  DW_TAG_formal_parameter
    1498                            .dwattr $C$DW$74, DW_AT_name("pui32Dest")
    1499                            .dwattr $C$DW$74, DW_AT_TI_symbol_name("pui32Dest")
    1500                            .dwattr $C$DW$74, DW_AT_type(*$C$DW$T$34)
    1501                            .dwattr $C$DW$74, DW_AT_location[DW_OP_reg1]
    1502                    
    1503                    ;----------------------------------------------------------------------
    1504                    ; 590 | AESDataReadNonBlocking(uint32_t ui32Base, uint32_t *pui32Dest)         
    1505                    ;----------------------------------------------------------------------
    1506                    
    1507                    ;*****************************************************************************
    1508                    ;* FUNCTION NAME: AESDataReadNonBlocking                                     *
    1509                    ;*                                                                           *
    1510                    ;*   Regs Modified     : A1,A2,SP,SR                                         *
    1511                    ;*   Regs Used         : A1,A2,SP,LR,SR                                      *
    1512                    ;*   Local Frame Size  : 0 Args + 8 Auto + 0 Save = 8 byte                   *
    1513                    ;*****************************************************************************
    1514 000001e2           AESDataReadNonBlocking:
    1515                    ;* --------------------------------------------------------------------------*
    1516                            .dwcfi  cfa_offset, 0
    1517 000001e2 0D08F1AD          SUB       SP, SP, #8            ; [DPU_V7M3_PIPE]  ; [KEEP 32-BIT INS]
    1518                            .dwcfi  cfa_offset, 8
    1519                    $C$DW$75        .dwtag  DW_TAG_variable
    1520                            .dwattr $C$DW$75, DW_AT_name("ui32Base")
    1521                            .dwattr $C$DW$75, DW_AT_TI_symbol_name("ui32Base")
    1522                            .dwattr $C$DW$75, DW_AT_type(*$C$DW$T$27)
    1523                            .dwattr $C$DW$75, DW_AT_location[DW_OP_breg13 0]
    1524                    
    1525                    $C$DW$76        .dwtag  DW_TAG_variable
    1526                            .dwattr $C$DW$76, DW_AT_name("pui32Dest")
    1527                            .dwattr $C$DW$76, DW_AT_TI_symbol_name("pui32Dest")
    1528                            .dwattr $C$DW$76, DW_AT_type(*$C$DW$T$34)
    1529                            .dwattr $C$DW$76, DW_AT_location[DW_OP_breg13 4]
    1530                    
    1531                    ;----------------------------------------------------------------------
    1532                    ; 592 | //                                                                     
    1533                    ; 593 | // Check the arguments.                                                
    1534                    ; 594 | //                                                                     
    1535                    ; 595 | ASSERT(ui32Base == AES_BASE);                                          
    1536                    ; 597 | //                                                                     
    1537                    ; 598 | // Check if the output is ready before reading the data.  If it not rea
    1538                    ;     | dy,                                                                    
    1539                    ; 599 | // return false.                                                       
    1540                    ; 600 | //                                                                     
TI ARM Assembler Unix v18.1.1 Fri Jul  3 20:08:23 2020

Tools Copyright (c) 1996-2017 Texas Instruments Incorporated
aes.asm                                                              PAGE   29

    1541                    ;----------------------------------------------------------------------
    1542 000001e6 9101              STR       A2, [SP, #4]          ; [DPU_V7M3_PIPE] |591|  ; [ORIG 16-BIT INS]
    1543 000001e8 9000              STR       A1, [SP, #0]          ; [DPU_V7M3_PIPE] |591|  ; [ORIG 16-BIT INS]
    1544                            .dwpsn  file "../driverlib/aes.c",line 601,column 5,is_stmt,isa 1
    1545                    ;----------------------------------------------------------------------
    1546                    ; 601 | if((AES_CTRL_OUTPUT_READY & (HWREG(ui32Base + AES_O_CTRL))) == 0)      
    1547                    ;----------------------------------------------------------------------
    1548 000001ea 9800              LDR       A1, [SP, #0]          ; [DPU_V7M3_PIPE] |601|  ; [ORIG 16-BIT INS]
    1549 000001ec 6D00              LDR       A1, [A1, #80]         ; [DPU_V7M3_PIPE] |601|  ; [ORIG 16-BIT INS]
    1550 000001ee 0840              LSRS      A1, A1, #1            ; [DPU_V7M3_PIPE] |601|  ; [ORIG 16-BIT INS]
    1551 000001f0 D201              BCS       ||$C$L9||             ; [DPU_V7M3_PIPE] |601|  ; [ORIG 16-BIT INS]
    1552                            ; BRANCHCC OCCURS {||$C$L9||}    ; [] |601| 
    1553                    ;* --------------------------------------------------------------------------*
    1554                            .dwpsn  file "../driverlib/aes.c",line 603,column 9,is_stmt,isa 1
    1555                    ;----------------------------------------------------------------------
    1556                    ; 603 | return(false);                                                         
    1557                    ; 606 | //                                                                     
    1558                    ; 607 | // Read a block of data from the data registers                        
    1559                    ; 608 | //                                                                     
    1560                    ;----------------------------------------------------------------------
    1561 000001f2 2000              MOVS      A1, #0                ; [DPU_V7M3_PIPE] |603|  ; [ORIG 16-BIT INS]
    1562 000001f4 E010              B         ||$C$L10||            ; [DPU_V7M3_PIPE] |603|  ; [ORIG 16-BIT INS]
    1563                            ; BRANCH OCCURS {||$C$L10||}     ; [] |603| 
    1564                    ;* --------------------------------------------------------------------------*
    1565 000001f6           ||$C$L9||:    
    1566                            .dwpsn  file "../driverlib/aes.c",line 609,column 5,is_stmt,isa 1
    1567                    ;----------------------------------------------------------------------
    1568                    ; 609 | pui32Dest[0] = HWREG(ui32Base + AES_O_DATA_IN_3);                      
    1569                    ;----------------------------------------------------------------------
    1570 000001f6 9800              LDR       A1, [SP, #0]          ; [DPU_V7M3_PIPE] |609|  ; [ORIG 16-BIT INS]
    1571 000001f8 9901              LDR       A2, [SP, #4]          ; [DPU_V7M3_PIPE] |609|  ; [ORIG 16-BIT INS]
    1572 000001fa 6EC0              LDR       A1, [A1, #108]        ; [DPU_V7M3_PIPE] |609|  ; [ORIG 16-BIT INS]
    1573 000001fc 6008              STR       A1, [A2, #0]          ; [DPU_V7M3_PIPE] |609|  ; [ORIG 16-BIT INS]
    1574                            .dwpsn  file "../driverlib/aes.c",line 610,column 5,is_stmt,isa 1
    1575                    ;----------------------------------------------------------------------
    1576                    ; 610 | pui32Dest[1] = HWREG(ui32Base + AES_O_DATA_IN_2);                      
    1577                    ;----------------------------------------------------------------------
    1578 000001fe 9800              LDR       A1, [SP, #0]          ; [DPU_V7M3_PIPE] |610|  ; [ORIG 16-BIT INS]
    1579 00000200 9901              LDR       A2, [SP, #4]          ; [DPU_V7M3_PIPE] |610|  ; [ORIG 16-BIT INS]
    1580 00000202 6E80              LDR       A1, [A1, #104]        ; [DPU_V7M3_PIPE] |610|  ; [ORIG 16-BIT INS]
    1581 00000204 6048              STR       A1, [A2, #4]          ; [DPU_V7M3_PIPE] |610|  ; [ORIG 16-BIT INS]
    1582                            .dwpsn  file "../driverlib/aes.c",line 611,column 5,is_stmt,isa 1
    1583                    ;----------------------------------------------------------------------
    1584                    ; 611 | pui32Dest[2] = HWREG(ui32Base + AES_O_DATA_IN_1);                      
    1585                    ;----------------------------------------------------------------------
    1586 00000206 9800              LDR       A1, [SP, #0]          ; [DPU_V7M3_PIPE] |611|  ; [ORIG 16-BIT INS]
    1587 00000208 9901              LDR       A2, [SP, #4]          ; [DPU_V7M3_PIPE] |611|  ; [ORIG 16-BIT INS]
    1588 0000020a 6E40              LDR       A1, [A1, #100]        ; [DPU_V7M3_PIPE] |611|  ; [ORIG 16-BIT INS]
    1589 0000020c 6088              STR       A1, [A2, #8]          ; [DPU_V7M3_PIPE] |611|  ; [ORIG 16-BIT INS]
    1590                            .dwpsn  file "../driverlib/aes.c",line 612,column 5,is_stmt,isa 1
    1591                    ;----------------------------------------------------------------------
    1592                    ; 612 | pui32Dest[3] = HWREG(ui32Base + AES_O_DATA_IN_0);                      
    1593                    ; 614 | //                                                                     
    1594                    ; 615 | // Read successful, return true.                                       
    1595                    ; 616 | //                                                                     
TI ARM Assembler Unix v18.1.1 Fri Jul  3 20:08:23 2020

Tools Copyright (c) 1996-2017 Texas Instruments Incorporated
aes.asm                                                              PAGE   30

    1596                    ;----------------------------------------------------------------------
    1597 0000020e 9800              LDR       A1, [SP, #0]          ; [DPU_V7M3_PIPE] |612|  ; [ORIG 16-BIT INS]
    1598 00000210 9901              LDR       A2, [SP, #4]          ; [DPU_V7M3_PIPE] |612|  ; [ORIG 16-BIT INS]
    1599 00000212 6E00              LDR       A1, [A1, #96]         ; [DPU_V7M3_PIPE] |612|  ; [ORIG 16-BIT INS]
    1600 00000214 60C8              STR       A1, [A2, #12]         ; [DPU_V7M3_PIPE] |612|  ; [ORIG 16-BIT INS]
    1601                            .dwpsn  file "../driverlib/aes.c",line 617,column 5,is_stmt,isa 1
    1602                    ;----------------------------------------------------------------------
    1603                    ; 617 | return(true);                                                          
    1604                    ;----------------------------------------------------------------------
    1605 00000216 2001              MOVS      A1, #1                ; [DPU_V7M3_PIPE] |617|  ; [ORIG 16-BIT INS]
    1606                    ;* --------------------------------------------------------------------------*
    1607 00000218           ||$C$L10||:    
    1608                            .dwpsn  file "../driverlib/aes.c",line 618,column 1,is_stmt,isa 1
    1609 00000218 B002              ADD       SP, SP, #8            ; [DPU_V7M3_PIPE]  ; [ORIG 16-BIT INS]
    1610                            .dwcfi  cfa_offset, 0
    1611                    $C$DW$77        .dwtag  DW_TAG_TI_branch
    1612                            .dwattr $C$DW$77, DW_AT_low_pc(0x00)
    1613                            .dwattr $C$DW$77, DW_AT_TI_return
    1614                    
    1615 0000021a 4770              BX        LR                    ; [DPU_V7M3_PIPE]  ; [ORIG 16-BIT INS]
    1616                            ; BRANCH OCCURS                  ; [] 
    1617                            .dwattr $C$DW$72, DW_AT_TI_end_file("../driverlib/aes.c")
    1618                            .dwattr $C$DW$72, DW_AT_TI_end_line(0x26a)
    1619                            .dwattr $C$DW$72, DW_AT_TI_end_column(0x01)
    1620                            .dwendentry
    1621                            .dwendtag $C$DW$72
    1622                    
    1623 0000021c                   .sect   ".text"
    1624                            .clink
    1625                            .thumbfunc AESDataRead
    1626 0000021c                   .thumb
    1627                            .global AESDataRead
    1628                    
    1629                    $C$DW$78        .dwtag  DW_TAG_subprogram
    1630                            .dwattr $C$DW$78, DW_AT_name("AESDataRead")
    1631                            .dwattr $C$DW$78, DW_AT_low_pc(AESDataRead)
    1632                            .dwattr $C$DW$78, DW_AT_high_pc(0x00)
    1633                            .dwattr $C$DW$78, DW_AT_TI_symbol_name("AESDataRead")
    1634                            .dwattr $C$DW$78, DW_AT_external
    1635                            .dwattr $C$DW$78, DW_AT_TI_begin_file("../driverlib/aes.c")
    1636                            .dwattr $C$DW$78, DW_AT_TI_begin_line(0x27b)
    1637                            .dwattr $C$DW$78, DW_AT_TI_begin_column(0x01)
    1638                            .dwattr $C$DW$78, DW_AT_decl_file("../driverlib/aes.c")
    1639                            .dwattr $C$DW$78, DW_AT_decl_line(0x27b)
    1640                            .dwattr $C$DW$78, DW_AT_decl_column(0x01)
    1641                            .dwattr $C$DW$78, DW_AT_TI_max_frame_size(0x08)
    1642                            .dwpsn  file "../driverlib/aes.c",line 636,column 1,is_stmt,address AESDataRead,isa 1
    1643                    
    1644                            .dwfde $C$DW$CIE, AESDataRead
    1645                    $C$DW$79        .dwtag  DW_TAG_formal_parameter
    1646                            .dwattr $C$DW$79, DW_AT_name("ui32Base")
    1647                            .dwattr $C$DW$79, DW_AT_TI_symbol_name("ui32Base")
    1648                            .dwattr $C$DW$79, DW_AT_type(*$C$DW$T$27)
    1649                            .dwattr $C$DW$79, DW_AT_location[DW_OP_reg0]
    1650                    
TI ARM Assembler Unix v18.1.1 Fri Jul  3 20:08:23 2020

Tools Copyright (c) 1996-2017 Texas Instruments Incorporated
aes.asm                                                              PAGE   31

    1651                    $C$DW$80        .dwtag  DW_TAG_formal_parameter
    1652                            .dwattr $C$DW$80, DW_AT_name("pui32Dest")
    1653                            .dwattr $C$DW$80, DW_AT_TI_symbol_name("pui32Dest")
    1654                            .dwattr $C$DW$80, DW_AT_type(*$C$DW$T$34)
    1655                            .dwattr $C$DW$80, DW_AT_location[DW_OP_reg1]
    1656                    
    1657                    ;----------------------------------------------------------------------
    1658                    ; 635 | AESDataRead(uint32_t ui32Base, uint32_t *pui32Dest)                    
    1659                    ;----------------------------------------------------------------------
    1660                    
    1661                    ;*****************************************************************************
    1662                    ;* FUNCTION NAME: AESDataRead                                                *
    1663                    ;*                                                                           *
    1664                    ;*   Regs Modified     : A1,A2,SP,SR                                         *
    1665                    ;*   Regs Used         : A1,A2,SP,LR,SR                                      *
    1666                    ;*   Local Frame Size  : 0 Args + 8 Auto + 0 Save = 8 byte                   *
    1667                    ;*****************************************************************************
    1668 0000021c           AESDataRead:
    1669                    ;* --------------------------------------------------------------------------*
    1670                            .dwcfi  cfa_offset, 0
    1671 0000021c 0D08F1AD          SUB       SP, SP, #8            ; [DPU_V7M3_PIPE]  ; [KEEP 32-BIT INS]
    1672                            .dwcfi  cfa_offset, 8
    1673                    $C$DW$81        .dwtag  DW_TAG_variable
    1674                            .dwattr $C$DW$81, DW_AT_name("ui32Base")
    1675                            .dwattr $C$DW$81, DW_AT_TI_symbol_name("ui32Base")
    1676                            .dwattr $C$DW$81, DW_AT_type(*$C$DW$T$27)
    1677                            .dwattr $C$DW$81, DW_AT_location[DW_OP_breg13 0]
    1678                    
    1679                    $C$DW$82        .dwtag  DW_TAG_variable
    1680                            .dwattr $C$DW$82, DW_AT_name("pui32Dest")
    1681                            .dwattr $C$DW$82, DW_AT_TI_symbol_name("pui32Dest")
    1682                            .dwattr $C$DW$82, DW_AT_type(*$C$DW$T$34)
    1683                            .dwattr $C$DW$82, DW_AT_location[DW_OP_breg13 4]
    1684                    
    1685                    ;----------------------------------------------------------------------
    1686                    ; 637 | //                                                                     
    1687                    ; 638 | // Check the arguments.                                                
    1688                    ; 639 | //                                                                     
    1689                    ; 640 | ASSERT(ui32Base == AES_BASE);                                          
    1690                    ; 642 | //                                                                     
    1691                    ; 643 | // Wait for the output to be ready before reading the data.            
    1692                    ; 644 | //                                                                     
    1693                    ;----------------------------------------------------------------------
    1694 00000220 9101              STR       A2, [SP, #4]          ; [DPU_V7M3_PIPE] |636|  ; [ORIG 16-BIT INS]
    1695 00000222 9000              STR       A1, [SP, #0]          ; [DPU_V7M3_PIPE] |636|  ; [ORIG 16-BIT INS]
    1696                            .dwpsn  file "../driverlib/aes.c",line 645,column 5,is_stmt,isa 1
    1697                    ;----------------------------------------------------------------------
    1698                    ; 645 | while((AES_CTRL_OUTPUT_READY & (HWREG(ui32Base + AES_O_CTRL))) == 0)   
    1699                    ;----------------------------------------------------------------------
    1700                    ;* --------------------------------------------------------------------------*
    1701                    ;*   BEGIN LOOP ||$C$L11||
    1702                    ;*
    1703                    ;*   Loop source line                : 645
    1704                    ;*   Loop closing brace source line  : 647
    1705                    ;*   Known Minimum Trip Count        : 1
TI ARM Assembler Unix v18.1.1 Fri Jul  3 20:08:23 2020

Tools Copyright (c) 1996-2017 Texas Instruments Incorporated
aes.asm                                                              PAGE   32

    1706                    ;*   Known Maximum Trip Count        : 4294967295
    1707                    ;*   Known Max Trip Count Factor     : 1
    1708                    ;* --------------------------------------------------------------------------*
    1709 00000224           ||$C$L11||:    
    1710                            .dwpsn  file "../driverlib/aes.c",line 645,column 11,is_stmt,isa 1
    1711                    ;----------------------------------------------------------------------
    1712                    ; 649 | //                                                                     
    1713                    ; 650 | // Read a block of data from the data registers                        
    1714                    ; 651 | //                                                                     
    1715                    ;----------------------------------------------------------------------
    1716 00000224 9800              LDR       A1, [SP, #0]          ; [DPU_V7M3_PIPE] |645|  ; [ORIG 16-BIT INS]
    1717 00000226 6D00              LDR       A1, [A1, #80]         ; [DPU_V7M3_PIPE] |645|  ; [ORIG 16-BIT INS]
    1718 00000228 0840              LSRS      A1, A1, #1            ; [DPU_V7M3_PIPE] |645|  ; [ORIG 16-BIT INS]
    1719 0000022a D3FB              BCC       ||$C$L11||            ; [DPU_V7M3_PIPE] |645|  ; [ORIG 16-BIT INS]
    1720                            ; BRANCHCC OCCURS {||$C$L11||}   ; [] |645| 
    1721                    ;* --------------------------------------------------------------------------*
    1722                            .dwpsn  file "../driverlib/aes.c",line 652,column 5,is_stmt,isa 1
    1723                    ;----------------------------------------------------------------------
    1724                    ; 652 | pui32Dest[0] = HWREG(ui32Base + AES_O_DATA_IN_3);                      
    1725                    ;----------------------------------------------------------------------
    1726 0000022c 9800              LDR       A1, [SP, #0]          ; [DPU_V7M3_PIPE] |652|  ; [ORIG 16-BIT INS]
    1727 0000022e 9901              LDR       A2, [SP, #4]          ; [DPU_V7M3_PIPE] |652|  ; [ORIG 16-BIT INS]
    1728 00000230 6EC0              LDR       A1, [A1, #108]        ; [DPU_V7M3_PIPE] |652|  ; [ORIG 16-BIT INS]
    1729 00000232 6008              STR       A1, [A2, #0]          ; [DPU_V7M3_PIPE] |652|  ; [ORIG 16-BIT INS]
    1730                            .dwpsn  file "../driverlib/aes.c",line 653,column 5,is_stmt,isa 1
    1731                    ;----------------------------------------------------------------------
    1732                    ; 653 | pui32Dest[1] = HWREG(ui32Base + AES_O_DATA_IN_2);                      
    1733                    ;----------------------------------------------------------------------
    1734 00000234 9800              LDR       A1, [SP, #0]          ; [DPU_V7M3_PIPE] |653|  ; [ORIG 16-BIT INS]
    1735 00000236 9901              LDR       A2, [SP, #4]          ; [DPU_V7M3_PIPE] |653|  ; [ORIG 16-BIT INS]
    1736 00000238 6E80              LDR       A1, [A1, #104]        ; [DPU_V7M3_PIPE] |653|  ; [ORIG 16-BIT INS]
    1737 0000023a 6048              STR       A1, [A2, #4]          ; [DPU_V7M3_PIPE] |653|  ; [ORIG 16-BIT INS]
    1738                            .dwpsn  file "../driverlib/aes.c",line 654,column 5,is_stmt,isa 1
    1739                    ;----------------------------------------------------------------------
    1740                    ; 654 | pui32Dest[2] = HWREG(ui32Base + AES_O_DATA_IN_1);                      
    1741                    ;----------------------------------------------------------------------
    1742 0000023c 9800              LDR       A1, [SP, #0]          ; [DPU_V7M3_PIPE] |654|  ; [ORIG 16-BIT INS]
    1743 0000023e 9901              LDR       A2, [SP, #4]          ; [DPU_V7M3_PIPE] |654|  ; [ORIG 16-BIT INS]
    1744 00000240 6E40              LDR       A1, [A1, #100]        ; [DPU_V7M3_PIPE] |654|  ; [ORIG 16-BIT INS]
    1745 00000242 6088              STR       A1, [A2, #8]          ; [DPU_V7M3_PIPE] |654|  ; [ORIG 16-BIT INS]
    1746                            .dwpsn  file "../driverlib/aes.c",line 655,column 5,is_stmt,isa 1
    1747                    ;----------------------------------------------------------------------
    1748                    ; 655 | pui32Dest[3] = HWREG(ui32Base + AES_O_DATA_IN_0);                      
    1749                    ;----------------------------------------------------------------------
    1750 00000244 9800              LDR       A1, [SP, #0]          ; [DPU_V7M3_PIPE] |655|  ; [ORIG 16-BIT INS]
    1751 00000246 9901              LDR       A2, [SP, #4]          ; [DPU_V7M3_PIPE] |655|  ; [ORIG 16-BIT INS]
    1752 00000248 6E00              LDR       A1, [A1, #96]         ; [DPU_V7M3_PIPE] |655|  ; [ORIG 16-BIT INS]
    1753 0000024a 60C8              STR       A1, [A2, #12]         ; [DPU_V7M3_PIPE] |655|  ; [ORIG 16-BIT INS]
    1754                            .dwpsn  file "../driverlib/aes.c",line 656,column 1,is_stmt,isa 1
    1755 0000024c B002              ADD       SP, SP, #8            ; [DPU_V7M3_PIPE]  ; [ORIG 16-BIT INS]
    1756                            .dwcfi  cfa_offset, 0
    1757                    $C$DW$83        .dwtag  DW_TAG_TI_branch
    1758                            .dwattr $C$DW$83, DW_AT_low_pc(0x00)
    1759                            .dwattr $C$DW$83, DW_AT_TI_return
    1760                    
TI ARM Assembler Unix v18.1.1 Fri Jul  3 20:08:23 2020

Tools Copyright (c) 1996-2017 Texas Instruments Incorporated
aes.asm                                                              PAGE   33

    1761 0000024e 4770              BX        LR                    ; [DPU_V7M3_PIPE]  ; [ORIG 16-BIT INS]
    1762                            ; BRANCH OCCURS                  ; [] 
    1763                            .dwattr $C$DW$78, DW_AT_TI_end_file("../driverlib/aes.c")
    1764                            .dwattr $C$DW$78, DW_AT_TI_end_line(0x290)
    1765                            .dwattr $C$DW$78, DW_AT_TI_end_column(0x01)
    1766                            .dwendentry
    1767                            .dwendtag $C$DW$78
    1768                    
    1769 00000250                   .sect   ".text"
    1770                            .clink
    1771                            .thumbfunc AESDataWriteNonBlocking
    1772 00000250                   .thumb
    1773                            .global AESDataWriteNonBlocking
    1774                    
    1775                    $C$DW$84        .dwtag  DW_TAG_subprogram
    1776                            .dwattr $C$DW$84, DW_AT_name("AESDataWriteNonBlocking")
    1777                            .dwattr $C$DW$84, DW_AT_low_pc(AESDataWriteNonBlocking)
    1778                            .dwattr $C$DW$84, DW_AT_high_pc(0x00)
    1779                            .dwattr $C$DW$84, DW_AT_TI_symbol_name("AESDataWriteNonBlocking")
    1780                            .dwattr $C$DW$84, DW_AT_external
    1781                            .dwattr $C$DW$84, DW_AT_type(*$C$DW$T$118)
    1782                            .dwattr $C$DW$84, DW_AT_TI_begin_file("../driverlib/aes.c")
    1783                            .dwattr $C$DW$84, DW_AT_TI_begin_line(0x2a2)
    1784                            .dwattr $C$DW$84, DW_AT_TI_begin_column(0x01)
    1785                            .dwattr $C$DW$84, DW_AT_decl_file("../driverlib/aes.c")
    1786                            .dwattr $C$DW$84, DW_AT_decl_line(0x2a2)
    1787                            .dwattr $C$DW$84, DW_AT_decl_column(0x01)
    1788                            .dwattr $C$DW$84, DW_AT_TI_max_frame_size(0x08)
    1789                            .dwpsn  file "../driverlib/aes.c",line 675,column 1,is_stmt,address AESDataWriteNonBlocking,is
    1790                    
    1791                            .dwfde $C$DW$CIE, AESDataWriteNonBlocking
    1792                    $C$DW$85        .dwtag  DW_TAG_formal_parameter
    1793                            .dwattr $C$DW$85, DW_AT_name("ui32Base")
    1794                            .dwattr $C$DW$85, DW_AT_TI_symbol_name("ui32Base")
    1795                            .dwattr $C$DW$85, DW_AT_type(*$C$DW$T$27)
    1796                            .dwattr $C$DW$85, DW_AT_location[DW_OP_reg0]
    1797                    
    1798                    $C$DW$86        .dwtag  DW_TAG_formal_parameter
    1799                            .dwattr $C$DW$86, DW_AT_name("pui32Src")
    1800                            .dwattr $C$DW$86, DW_AT_TI_symbol_name("pui32Src")
    1801                            .dwattr $C$DW$86, DW_AT_type(*$C$DW$T$34)
    1802                            .dwattr $C$DW$86, DW_AT_location[DW_OP_reg1]
    1803                    
    1804                    ;----------------------------------------------------------------------
    1805                    ; 674 | AESDataWriteNonBlocking(uint32_t ui32Base, uint32_t *pui32Src)         
    1806                    ;----------------------------------------------------------------------
    1807                    
    1808                    ;*****************************************************************************
    1809                    ;* FUNCTION NAME: AESDataWriteNonBlocking                                    *
    1810                    ;*                                                                           *
    1811                    ;*   Regs Modified     : A1,A2,SP,SR                                         *
    1812                    ;*   Regs Used         : A1,A2,SP,LR,SR                                      *
    1813                    ;*   Local Frame Size  : 0 Args + 8 Auto + 0 Save = 8 byte                   *
    1814                    ;*****************************************************************************
    1815 00000250           AESDataWriteNonBlocking:
TI ARM Assembler Unix v18.1.1 Fri Jul  3 20:08:23 2020

Tools Copyright (c) 1996-2017 Texas Instruments Incorporated
aes.asm                                                              PAGE   34

    1816                    ;* --------------------------------------------------------------------------*
    1817                            .dwcfi  cfa_offset, 0
    1818 00000250 0D08F1AD          SUB       SP, SP, #8            ; [DPU_V7M3_PIPE]  ; [KEEP 32-BIT INS]
    1819                            .dwcfi  cfa_offset, 8
    1820                    $C$DW$87        .dwtag  DW_TAG_variable
    1821                            .dwattr $C$DW$87, DW_AT_name("ui32Base")
    1822                            .dwattr $C$DW$87, DW_AT_TI_symbol_name("ui32Base")
    1823                            .dwattr $C$DW$87, DW_AT_type(*$C$DW$T$27)
    1824                            .dwattr $C$DW$87, DW_AT_location[DW_OP_breg13 0]
    1825                    
    1826                    $C$DW$88        .dwtag  DW_TAG_variable
    1827                            .dwattr $C$DW$88, DW_AT_name("pui32Src")
    1828                            .dwattr $C$DW$88, DW_AT_TI_symbol_name("pui32Src")
    1829                            .dwattr $C$DW$88, DW_AT_type(*$C$DW$T$34)
    1830                            .dwattr $C$DW$88, DW_AT_location[DW_OP_breg13 4]
    1831                    
    1832                    ;----------------------------------------------------------------------
    1833                    ; 676 | //                                                                     
    1834                    ; 677 | // Check the arguments.                                                
    1835                    ; 678 | //                                                                     
    1836                    ; 679 | ASSERT(ui32Base == AES_BASE);                                          
    1837                    ; 681 | //                                                                     
    1838                    ; 682 | // Check if the input is ready.  If not, then return false.            
    1839                    ; 683 | //                                                                     
    1840                    ;----------------------------------------------------------------------
    1841 00000254 9101              STR       A2, [SP, #4]          ; [DPU_V7M3_PIPE] |675|  ; [ORIG 16-BIT INS]
    1842 00000256 9000              STR       A1, [SP, #0]          ; [DPU_V7M3_PIPE] |675|  ; [ORIG 16-BIT INS]
    1843                            .dwpsn  file "../driverlib/aes.c",line 684,column 5,is_stmt,isa 1
    1844                    ;----------------------------------------------------------------------
    1845                    ; 684 | if(!(AES_CTRL_INPUT_READY & (HWREG(ui32Base + AES_O_CTRL))))           
    1846                    ;----------------------------------------------------------------------
    1847 00000258 9800              LDR       A1, [SP, #0]          ; [DPU_V7M3_PIPE] |684|  ; [ORIG 16-BIT INS]
    1848 0000025a 6D00              LDR       A1, [A1, #80]         ; [DPU_V7M3_PIPE] |684|  ; [ORIG 16-BIT INS]
    1849 0000025c 0880              LSRS      A1, A1, #2            ; [DPU_V7M3_PIPE] |684|  ; [ORIG 16-BIT INS]
    1850 0000025e D201              BCS       ||$C$L12||            ; [DPU_V7M3_PIPE] |684|  ; [ORIG 16-BIT INS]
    1851                            ; BRANCHCC OCCURS {||$C$L12||}   ; [] |684| 
    1852                    ;* --------------------------------------------------------------------------*
    1853                            .dwpsn  file "../driverlib/aes.c",line 686,column 9,is_stmt,isa 1
    1854                    ;----------------------------------------------------------------------
    1855                    ; 686 | return(false);                                                         
    1856                    ; 689 | //                                                                     
    1857                    ; 690 | // Write a block of data into the data registers.                      
    1858                    ; 691 | //                                                                     
    1859                    ;----------------------------------------------------------------------
    1860 00000260 2000              MOVS      A1, #0                ; [DPU_V7M3_PIPE] |686|  ; [ORIG 16-BIT INS]
    1861 00000262 E010              B         ||$C$L13||            ; [DPU_V7M3_PIPE] |686|  ; [ORIG 16-BIT INS]
    1862                            ; BRANCH OCCURS {||$C$L13||}     ; [] |686| 
    1863                    ;* --------------------------------------------------------------------------*
    1864 00000264           ||$C$L12||:    
    1865                            .dwpsn  file "../driverlib/aes.c",line 692,column 5,is_stmt,isa 1
    1866                    ;----------------------------------------------------------------------
    1867                    ; 692 | HWREG(ui32Base + AES_O_DATA_IN_3) = pui32Src[0];                       
    1868                    ;----------------------------------------------------------------------
    1869 00000264 9801              LDR       A1, [SP, #4]          ; [DPU_V7M3_PIPE] |692|  ; [ORIG 16-BIT INS]
    1870 00000266 9900              LDR       A2, [SP, #0]          ; [DPU_V7M3_PIPE] |692|  ; [ORIG 16-BIT INS]
TI ARM Assembler Unix v18.1.1 Fri Jul  3 20:08:23 2020

Tools Copyright (c) 1996-2017 Texas Instruments Incorporated
aes.asm                                                              PAGE   35

    1871 00000268 6800              LDR       A1, [A1, #0]          ; [DPU_V7M3_PIPE] |692|  ; [ORIG 16-BIT INS]
    1872 0000026a 66C8              STR       A1, [A2, #108]        ; [DPU_V7M3_PIPE] |692|  ; [ORIG 16-BIT INS]
    1873                            .dwpsn  file "../driverlib/aes.c",line 693,column 5,is_stmt,isa 1
    1874                    ;----------------------------------------------------------------------
    1875                    ; 693 | HWREG(ui32Base + AES_O_DATA_IN_2) = pui32Src[1];                       
    1876                    ;----------------------------------------------------------------------
    1877 0000026c 9801              LDR       A1, [SP, #4]          ; [DPU_V7M3_PIPE] |693|  ; [ORIG 16-BIT INS]
    1878 0000026e 9900              LDR       A2, [SP, #0]          ; [DPU_V7M3_PIPE] |693|  ; [ORIG 16-BIT INS]
    1879 00000270 6840              LDR       A1, [A1, #4]          ; [DPU_V7M3_PIPE] |693|  ; [ORIG 16-BIT INS]
    1880 00000272 6688              STR       A1, [A2, #104]        ; [DPU_V7M3_PIPE] |693|  ; [ORIG 16-BIT INS]
    1881                            .dwpsn  file "../driverlib/aes.c",line 694,column 5,is_stmt,isa 1
    1882                    ;----------------------------------------------------------------------
    1883                    ; 694 | HWREG(ui32Base + AES_O_DATA_IN_1) = pui32Src[2];                       
    1884                    ;----------------------------------------------------------------------
    1885 00000274 9801              LDR       A1, [SP, #4]          ; [DPU_V7M3_PIPE] |694|  ; [ORIG 16-BIT INS]
    1886 00000276 9900              LDR       A2, [SP, #0]          ; [DPU_V7M3_PIPE] |694|  ; [ORIG 16-BIT INS]
    1887 00000278 6880              LDR       A1, [A1, #8]          ; [DPU_V7M3_PIPE] |694|  ; [ORIG 16-BIT INS]
    1888 0000027a 6648              STR       A1, [A2, #100]        ; [DPU_V7M3_PIPE] |694|  ; [ORIG 16-BIT INS]
    1889                            .dwpsn  file "../driverlib/aes.c",line 695,column 5,is_stmt,isa 1
    1890                    ;----------------------------------------------------------------------
    1891                    ; 695 | HWREG(ui32Base + AES_O_DATA_IN_0) = pui32Src[3];                       
    1892                    ; 697 | //                                                                     
    1893                    ; 698 | // Write successful, return true.                                      
    1894                    ; 699 | //                                                                     
    1895                    ;----------------------------------------------------------------------
    1896 0000027c 9801              LDR       A1, [SP, #4]          ; [DPU_V7M3_PIPE] |695|  ; [ORIG 16-BIT INS]
    1897 0000027e 9900              LDR       A2, [SP, #0]          ; [DPU_V7M3_PIPE] |695|  ; [ORIG 16-BIT INS]
    1898 00000280 68C0              LDR       A1, [A1, #12]         ; [DPU_V7M3_PIPE] |695|  ; [ORIG 16-BIT INS]
    1899 00000282 6608              STR       A1, [A2, #96]         ; [DPU_V7M3_PIPE] |695|  ; [ORIG 16-BIT INS]
    1900                            .dwpsn  file "../driverlib/aes.c",line 700,column 5,is_stmt,isa 1
    1901                    ;----------------------------------------------------------------------
    1902                    ; 700 | return(true);                                                          
    1903                    ;----------------------------------------------------------------------
    1904 00000284 2001              MOVS      A1, #1                ; [DPU_V7M3_PIPE] |700|  ; [ORIG 16-BIT INS]
    1905                    ;* --------------------------------------------------------------------------*
    1906 00000286           ||$C$L13||:    
    1907                            .dwpsn  file "../driverlib/aes.c",line 701,column 1,is_stmt,isa 1
    1908 00000286 B002              ADD       SP, SP, #8            ; [DPU_V7M3_PIPE]  ; [ORIG 16-BIT INS]
    1909                            .dwcfi  cfa_offset, 0
    1910                    $C$DW$89        .dwtag  DW_TAG_TI_branch
    1911                            .dwattr $C$DW$89, DW_AT_low_pc(0x00)
    1912                            .dwattr $C$DW$89, DW_AT_TI_return
    1913                    
    1914 00000288 4770              BX        LR                    ; [DPU_V7M3_PIPE]  ; [ORIG 16-BIT INS]
    1915                            ; BRANCH OCCURS                  ; [] 
    1916                            .dwattr $C$DW$84, DW_AT_TI_end_file("../driverlib/aes.c")
    1917                            .dwattr $C$DW$84, DW_AT_TI_end_line(0x2bd)
    1918                            .dwattr $C$DW$84, DW_AT_TI_end_column(0x01)
    1919                            .dwendentry
    1920                            .dwendtag $C$DW$84
    1921                    
    1922 0000028a                   .sect   ".text"
    1923                            .clink
    1924                            .thumbfunc AESDataWrite
    1925 0000028a                   .thumb
TI ARM Assembler Unix v18.1.1 Fri Jul  3 20:08:23 2020

Tools Copyright (c) 1996-2017 Texas Instruments Incorporated
aes.asm                                                              PAGE   36

    1926                            .global AESDataWrite
    1927                    
    1928                    $C$DW$90        .dwtag  DW_TAG_subprogram
    1929                            .dwattr $C$DW$90, DW_AT_name("AESDataWrite")
    1930                            .dwattr $C$DW$90, DW_AT_low_pc(AESDataWrite)
    1931                            .dwattr $C$DW$90, DW_AT_high_pc(0x00)
    1932                            .dwattr $C$DW$90, DW_AT_TI_symbol_name("AESDataWrite")
    1933                            .dwattr $C$DW$90, DW_AT_external
    1934                            .dwattr $C$DW$90, DW_AT_TI_begin_file("../driverlib/aes.c")
    1935                            .dwattr $C$DW$90, DW_AT_TI_begin_line(0x2ce)
    1936                            .dwattr $C$DW$90, DW_AT_TI_begin_column(0x01)
    1937                            .dwattr $C$DW$90, DW_AT_decl_file("../driverlib/aes.c")
    1938                            .dwattr $C$DW$90, DW_AT_decl_line(0x2ce)
    1939                            .dwattr $C$DW$90, DW_AT_decl_column(0x01)
    1940                            .dwattr $C$DW$90, DW_AT_TI_max_frame_size(0x08)
    1941                            .dwpsn  file "../driverlib/aes.c",line 719,column 1,is_stmt,address AESDataWrite,isa 1
    1942                    
    1943                            .dwfde $C$DW$CIE, AESDataWrite
    1944                    $C$DW$91        .dwtag  DW_TAG_formal_parameter
    1945                            .dwattr $C$DW$91, DW_AT_name("ui32Base")
    1946                            .dwattr $C$DW$91, DW_AT_TI_symbol_name("ui32Base")
    1947                            .dwattr $C$DW$91, DW_AT_type(*$C$DW$T$27)
    1948                            .dwattr $C$DW$91, DW_AT_location[DW_OP_reg0]
    1949                    
    1950                    $C$DW$92        .dwtag  DW_TAG_formal_parameter
    1951                            .dwattr $C$DW$92, DW_AT_name("pui32Src")
    1952                            .dwattr $C$DW$92, DW_AT_TI_symbol_name("pui32Src")
    1953                            .dwattr $C$DW$92, DW_AT_type(*$C$DW$T$34)
    1954                            .dwattr $C$DW$92, DW_AT_location[DW_OP_reg1]
    1955                    
    1956                    ;----------------------------------------------------------------------
    1957                    ; 718 | AESDataWrite(uint32_t ui32Base, uint32_t *pui32Src)                    
    1958                    ;----------------------------------------------------------------------
    1959                    
    1960                    ;*****************************************************************************
    1961                    ;* FUNCTION NAME: AESDataWrite                                               *
    1962                    ;*                                                                           *
    1963                    ;*   Regs Modified     : A1,A2,SP,SR                                         *
    1964                    ;*   Regs Used         : A1,A2,SP,LR,SR                                      *
    1965                    ;*   Local Frame Size  : 0 Args + 8 Auto + 0 Save = 8 byte                   *
    1966                    ;*****************************************************************************
    1967 0000028a           AESDataWrite:
    1968                    ;* --------------------------------------------------------------------------*
    1969                            .dwcfi  cfa_offset, 0
    1970 0000028a 0D08F1AD          SUB       SP, SP, #8            ; [DPU_V7M3_PIPE]  ; [KEEP 32-BIT INS]
    1971                            .dwcfi  cfa_offset, 8
    1972                    $C$DW$93        .dwtag  DW_TAG_variable
    1973                            .dwattr $C$DW$93, DW_AT_name("ui32Base")
    1974                            .dwattr $C$DW$93, DW_AT_TI_symbol_name("ui32Base")
    1975                            .dwattr $C$DW$93, DW_AT_type(*$C$DW$T$27)
    1976                            .dwattr $C$DW$93, DW_AT_location[DW_OP_breg13 0]
    1977                    
    1978                    $C$DW$94        .dwtag  DW_TAG_variable
    1979                            .dwattr $C$DW$94, DW_AT_name("pui32Src")
    1980                            .dwattr $C$DW$94, DW_AT_TI_symbol_name("pui32Src")
TI ARM Assembler Unix v18.1.1 Fri Jul  3 20:08:23 2020

Tools Copyright (c) 1996-2017 Texas Instruments Incorporated
aes.asm                                                              PAGE   37

    1981                            .dwattr $C$DW$94, DW_AT_type(*$C$DW$T$34)
    1982                            .dwattr $C$DW$94, DW_AT_location[DW_OP_breg13 4]
    1983                    
    1984                    ;----------------------------------------------------------------------
    1985                    ; 720 | //                                                                     
    1986                    ; 721 | // Check the arguments.                                                
    1987                    ; 722 | //                                                                     
    1988                    ; 723 | ASSERT(ui32Base == AES_BASE);                                          
    1989                    ; 725 | //                                                                     
    1990                    ; 726 | // Wait for input ready.                                               
    1991                    ; 727 | //                                                                     
    1992                    ;----------------------------------------------------------------------
    1993 0000028e 9101              STR       A2, [SP, #4]          ; [DPU_V7M3_PIPE] |719|  ; [ORIG 16-BIT INS]
    1994 00000290 9000              STR       A1, [SP, #0]          ; [DPU_V7M3_PIPE] |719|  ; [ORIG 16-BIT INS]
    1995                            .dwpsn  file "../driverlib/aes.c",line 728,column 5,is_stmt,isa 1
    1996                    ;----------------------------------------------------------------------
    1997                    ; 728 | while((AES_CTRL_INPUT_READY & (HWREG(ui32Base + AES_O_CTRL))) == 0)    
    1998                    ;----------------------------------------------------------------------
    1999                    ;* --------------------------------------------------------------------------*
    2000                    ;*   BEGIN LOOP ||$C$L14||
    2001                    ;*
    2002                    ;*   Loop source line                : 728
    2003                    ;*   Loop closing brace source line  : 730
    2004                    ;*   Known Minimum Trip Count        : 1
    2005                    ;*   Known Maximum Trip Count        : 4294967295
    2006                    ;*   Known Max Trip Count Factor     : 1
    2007                    ;* --------------------------------------------------------------------------*
    2008 00000292           ||$C$L14||:    
    2009                            .dwpsn  file "../driverlib/aes.c",line 728,column 11,is_stmt,isa 1
    2010                    ;----------------------------------------------------------------------
    2011                    ; 732 | //                                                                     
    2012                    ; 733 | // Write a block of data into the data registers.                      
    2013                    ; 734 | //                                                                     
    2014                    ;----------------------------------------------------------------------
    2015 00000292 9800              LDR       A1, [SP, #0]          ; [DPU_V7M3_PIPE] |728|  ; [ORIG 16-BIT INS]
    2016 00000294 6D00              LDR       A1, [A1, #80]         ; [DPU_V7M3_PIPE] |728|  ; [ORIG 16-BIT INS]
    2017 00000296 0880              LSRS      A1, A1, #2            ; [DPU_V7M3_PIPE] |728|  ; [ORIG 16-BIT INS]
    2018 00000298 D3FB              BCC       ||$C$L14||            ; [DPU_V7M3_PIPE] |728|  ; [ORIG 16-BIT INS]
    2019                            ; BRANCHCC OCCURS {||$C$L14||}   ; [] |728| 
    2020                    ;* --------------------------------------------------------------------------*
    2021                            .dwpsn  file "../driverlib/aes.c",line 735,column 5,is_stmt,isa 1
    2022                    ;----------------------------------------------------------------------
    2023                    ; 735 | HWREG(ui32Base + AES_O_DATA_IN_3) = pui32Src[0];                       
    2024                    ;----------------------------------------------------------------------
    2025 0000029a 9801              LDR       A1, [SP, #4]          ; [DPU_V7M3_PIPE] |735|  ; [ORIG 16-BIT INS]
    2026 0000029c 9900              LDR       A2, [SP, #0]          ; [DPU_V7M3_PIPE] |735|  ; [ORIG 16-BIT INS]
    2027 0000029e 6800              LDR       A1, [A1, #0]          ; [DPU_V7M3_PIPE] |735|  ; [ORIG 16-BIT INS]
    2028 000002a0 66C8              STR       A1, [A2, #108]        ; [DPU_V7M3_PIPE] |735|  ; [ORIG 16-BIT INS]
    2029                            .dwpsn  file "../driverlib/aes.c",line 736,column 5,is_stmt,isa 1
    2030                    ;----------------------------------------------------------------------
    2031                    ; 736 | HWREG(ui32Base + AES_O_DATA_IN_2) = pui32Src[1];                       
    2032                    ;----------------------------------------------------------------------
    2033 000002a2 9801              LDR       A1, [SP, #4]          ; [DPU_V7M3_PIPE] |736|  ; [ORIG 16-BIT INS]
    2034 000002a4 9900              LDR       A2, [SP, #0]          ; [DPU_V7M3_PIPE] |736|  ; [ORIG 16-BIT INS]
    2035 000002a6 6840              LDR       A1, [A1, #4]          ; [DPU_V7M3_PIPE] |736|  ; [ORIG 16-BIT INS]
TI ARM Assembler Unix v18.1.1 Fri Jul  3 20:08:23 2020

Tools Copyright (c) 1996-2017 Texas Instruments Incorporated
aes.asm                                                              PAGE   38

    2036 000002a8 6688              STR       A1, [A2, #104]        ; [DPU_V7M3_PIPE] |736|  ; [ORIG 16-BIT INS]
    2037                            .dwpsn  file "../driverlib/aes.c",line 737,column 5,is_stmt,isa 1
    2038                    ;----------------------------------------------------------------------
    2039                    ; 737 | HWREG(ui32Base + AES_O_DATA_IN_1) = pui32Src[2];                       
    2040                    ;----------------------------------------------------------------------
    2041 000002aa 9801              LDR       A1, [SP, #4]          ; [DPU_V7M3_PIPE] |737|  ; [ORIG 16-BIT INS]
    2042 000002ac 9900              LDR       A2, [SP, #0]          ; [DPU_V7M3_PIPE] |737|  ; [ORIG 16-BIT INS]
    2043 000002ae 6880              LDR       A1, [A1, #8]          ; [DPU_V7M3_PIPE] |737|  ; [ORIG 16-BIT INS]
    2044 000002b0 6648              STR       A1, [A2, #100]        ; [DPU_V7M3_PIPE] |737|  ; [ORIG 16-BIT INS]
    2045                            .dwpsn  file "../driverlib/aes.c",line 738,column 5,is_stmt,isa 1
    2046                    ;----------------------------------------------------------------------
    2047                    ; 738 | HWREG(ui32Base + AES_O_DATA_IN_0) = pui32Src[3];                       
    2048                    ;----------------------------------------------------------------------
    2049 000002b2 9801              LDR       A1, [SP, #4]          ; [DPU_V7M3_PIPE] |738|  ; [ORIG 16-BIT INS]
    2050 000002b4 9900              LDR       A2, [SP, #0]          ; [DPU_V7M3_PIPE] |738|  ; [ORIG 16-BIT INS]
    2051 000002b6 68C0              LDR       A1, [A1, #12]         ; [DPU_V7M3_PIPE] |738|  ; [ORIG 16-BIT INS]
    2052 000002b8 6608              STR       A1, [A2, #96]         ; [DPU_V7M3_PIPE] |738|  ; [ORIG 16-BIT INS]
    2053                            .dwpsn  file "../driverlib/aes.c",line 739,column 1,is_stmt,isa 1
    2054 000002ba B002              ADD       SP, SP, #8            ; [DPU_V7M3_PIPE]  ; [ORIG 16-BIT INS]
    2055                            .dwcfi  cfa_offset, 0
    2056                    $C$DW$95        .dwtag  DW_TAG_TI_branch
    2057                            .dwattr $C$DW$95, DW_AT_low_pc(0x00)
    2058                            .dwattr $C$DW$95, DW_AT_TI_return
    2059                    
    2060 000002bc 4770              BX        LR                    ; [DPU_V7M3_PIPE]  ; [ORIG 16-BIT INS]
    2061                            ; BRANCH OCCURS                  ; [] 
    2062                            .dwattr $C$DW$90, DW_AT_TI_end_file("../driverlib/aes.c")
    2063                            .dwattr $C$DW$90, DW_AT_TI_end_line(0x2e3)
    2064                            .dwattr $C$DW$90, DW_AT_TI_end_column(0x01)
    2065                            .dwendentry
    2066                            .dwendtag $C$DW$90
    2067                    
    2068 000002be                   .sect   ".text"
    2069                            .clink
    2070                            .thumbfunc AESDataProcess
    2071 000002be                   .thumb
    2072                            .global AESDataProcess
    2073                    
    2074                    $C$DW$96        .dwtag  DW_TAG_subprogram
    2075                            .dwattr $C$DW$96, DW_AT_name("AESDataProcess")
    2076                            .dwattr $C$DW$96, DW_AT_low_pc(AESDataProcess)
    2077                            .dwattr $C$DW$96, DW_AT_high_pc(0x00)
    2078                            .dwattr $C$DW$96, DW_AT_TI_symbol_name("AESDataProcess")
    2079                            .dwattr $C$DW$96, DW_AT_external
    2080                            .dwattr $C$DW$96, DW_AT_type(*$C$DW$T$118)
    2081                            .dwattr $C$DW$96, DW_AT_TI_begin_file("../driverlib/aes.c")
    2082                            .dwattr $C$DW$96, DW_AT_TI_begin_line(0x2fe)
    2083                            .dwattr $C$DW$96, DW_AT_TI_begin_column(0x01)
    2084                            .dwattr $C$DW$96, DW_AT_decl_file("../driverlib/aes.c")
    2085                            .dwattr $C$DW$96, DW_AT_decl_line(0x2fe)
    2086                            .dwattr $C$DW$96, DW_AT_decl_column(0x01)
    2087                            .dwattr $C$DW$96, DW_AT_TI_max_frame_size(0x18)
    2088                            .dwpsn  file "../driverlib/aes.c",line 768,column 1,is_stmt,address AESDataProcess,isa 1
    2089                    
    2090                            .dwfde $C$DW$CIE, AESDataProcess
TI ARM Assembler Unix v18.1.1 Fri Jul  3 20:08:23 2020

Tools Copyright (c) 1996-2017 Texas Instruments Incorporated
aes.asm                                                              PAGE   39

    2091                    $C$DW$97        .dwtag  DW_TAG_formal_parameter
    2092                            .dwattr $C$DW$97, DW_AT_name("ui32Base")
    2093                            .dwattr $C$DW$97, DW_AT_TI_symbol_name("ui32Base")
    2094                            .dwattr $C$DW$97, DW_AT_type(*$C$DW$T$27)
    2095                            .dwattr $C$DW$97, DW_AT_location[DW_OP_reg0]
    2096                    
    2097                    $C$DW$98        .dwtag  DW_TAG_formal_parameter
    2098                            .dwattr $C$DW$98, DW_AT_name("pui32Src")
    2099                            .dwattr $C$DW$98, DW_AT_TI_symbol_name("pui32Src")
    2100                            .dwattr $C$DW$98, DW_AT_type(*$C$DW$T$34)
    2101                            .dwattr $C$DW$98, DW_AT_location[DW_OP_reg1]
    2102                    
    2103                    $C$DW$99        .dwtag  DW_TAG_formal_parameter
    2104                            .dwattr $C$DW$99, DW_AT_name("pui32Dest")
    2105                            .dwattr $C$DW$99, DW_AT_TI_symbol_name("pui32Dest")
    2106                            .dwattr $C$DW$99, DW_AT_type(*$C$DW$T$34)
    2107                            .dwattr $C$DW$99, DW_AT_location[DW_OP_reg2]
    2108                    
    2109                    $C$DW$100       .dwtag  DW_TAG_formal_parameter
    2110                            .dwattr $C$DW$100, DW_AT_name("ui32Length")
    2111                            .dwattr $C$DW$100, DW_AT_TI_symbol_name("ui32Length")
    2112                            .dwattr $C$DW$100, DW_AT_type(*$C$DW$T$27)
    2113                            .dwattr $C$DW$100, DW_AT_location[DW_OP_reg3]
    2114                    
    2115                    ;----------------------------------------------------------------------
    2116                    ; 766 | AESDataProcess(uint32_t ui32Base, uint32_t *pui32Src, uint32_t *pui32De
    2117                    ;     | st,                                                                    
    2118                    ; 767 | uint32_t ui32Length)                                                   
    2119                    ;----------------------------------------------------------------------
    2120                    
    2121                    ;*****************************************************************************
    2122                    ;* FUNCTION NAME: AESDataProcess                                             *
    2123                    ;*                                                                           *
    2124                    ;*   Regs Modified     : A1,A2,A3,A4,SP,LR,SR,FPEXC,FPSCR                    *
    2125                    ;*   Regs Used         : A1,A2,A3,A4,SP,LR,SR,FPEXC,FPSCR                    *
    2126                    ;*   Local Frame Size  : 0 Args + 20 Auto + 4 Save = 24 byte                 *
    2127                    ;*****************************************************************************
    2128 000002be           AESDataProcess:
    2129                    ;* --------------------------------------------------------------------------*
    2130                            .dwcfi  cfa_offset, 0
    2131 000002be B500              PUSH      {LR}                  ; [DPU_V7M3_PIPE]  ; [ORIG 16-BIT INS]
    2132                            .dwcfi  cfa_offset, 4
    2133                            .dwcfi  save_reg_to_mem, 14, -4
    2134 000002c0 0D14F1AD          SUB       SP, SP, #20           ; [DPU_V7M3_PIPE]  ; [KEEP 32-BIT INS]
    2135                            .dwcfi  cfa_offset, 24
    2136                    $C$DW$101       .dwtag  DW_TAG_variable
    2137                            .dwattr $C$DW$101, DW_AT_name("ui32Base")
    2138                            .dwattr $C$DW$101, DW_AT_TI_symbol_name("ui32Base")
    2139                            .dwattr $C$DW$101, DW_AT_type(*$C$DW$T$27)
    2140                            .dwattr $C$DW$101, DW_AT_location[DW_OP_breg13 0]
    2141                    
    2142                    $C$DW$102       .dwtag  DW_TAG_variable
    2143                            .dwattr $C$DW$102, DW_AT_name("pui32Src")
    2144                            .dwattr $C$DW$102, DW_AT_TI_symbol_name("pui32Src")
    2145                            .dwattr $C$DW$102, DW_AT_type(*$C$DW$T$34)
TI ARM Assembler Unix v18.1.1 Fri Jul  3 20:08:23 2020

Tools Copyright (c) 1996-2017 Texas Instruments Incorporated
aes.asm                                                              PAGE   40

    2146                            .dwattr $C$DW$102, DW_AT_location[DW_OP_breg13 4]
    2147                    
    2148                    $C$DW$103       .dwtag  DW_TAG_variable
    2149                            .dwattr $C$DW$103, DW_AT_name("pui32Dest")
    2150                            .dwattr $C$DW$103, DW_AT_TI_symbol_name("pui32Dest")
    2151                            .dwattr $C$DW$103, DW_AT_type(*$C$DW$T$34)
    2152                            .dwattr $C$DW$103, DW_AT_location[DW_OP_breg13 8]
    2153                    
    2154                    $C$DW$104       .dwtag  DW_TAG_variable
    2155                            .dwattr $C$DW$104, DW_AT_name("ui32Length")
    2156                            .dwattr $C$DW$104, DW_AT_TI_symbol_name("ui32Length")
    2157                            .dwattr $C$DW$104, DW_AT_type(*$C$DW$T$27)
    2158                            .dwattr $C$DW$104, DW_AT_location[DW_OP_breg13 12]
    2159                    
    2160                    $C$DW$105       .dwtag  DW_TAG_variable
    2161                            .dwattr $C$DW$105, DW_AT_name("ui32Count")
    2162                            .dwattr $C$DW$105, DW_AT_TI_symbol_name("ui32Count")
    2163                            .dwattr $C$DW$105, DW_AT_type(*$C$DW$T$27)
    2164                            .dwattr $C$DW$105, DW_AT_location[DW_OP_breg13 16]
    2165                    
    2166                    ;----------------------------------------------------------------------
    2167                    ; 769 | uint32_t ui32Count;                                                    
    2168                    ; 771 | //                                                                     
    2169                    ; 772 | // Check the arguments.                                                
    2170                    ; 773 | //                                                                     
    2171                    ; 774 | ASSERT(ui32Base == AES_BASE);                                          
    2172                    ; 776 | //                                                                     
    2173                    ; 777 | // Write the length register first, which triggers the engine to start 
    2174                    ; 778 | // using this context.                                                 
    2175                    ; 779 | //                                                                     
    2176                    ;----------------------------------------------------------------------
    2177 000002c4 9303              STR       A4, [SP, #12]         ; [DPU_V7M3_PIPE] |768|  ; [ORIG 16-BIT INS]
    2178 000002c6 9202              STR       A3, [SP, #8]          ; [DPU_V7M3_PIPE] |768|  ; [ORIG 16-BIT INS]
    2179 000002c8 9101              STR       A2, [SP, #4]          ; [DPU_V7M3_PIPE] |768|  ; [ORIG 16-BIT INS]
    2180 000002ca 9000              STR       A1, [SP, #0]          ; [DPU_V7M3_PIPE] |768|  ; [ORIG 16-BIT INS]
    2181                            .dwpsn  file "../driverlib/aes.c",line 780,column 5,is_stmt,isa 1
    2182                    ;----------------------------------------------------------------------
    2183                    ; 780 | AESLengthSet(AES_BASE, (uint64_t)ui32Length);                          
    2184                    ; 782 | //                                                                     
    2185                    ; 783 | // Now loop until the blocks are written.                              
    2186                    ; 784 | //                                                                     
    2187                    ;----------------------------------------------------------------------
    2188 000002cc 48AA              LDR       A1, $C$CON1           ; [DPU_V7M3_PIPE] |780|  ; [ORIG 16-BIT INS]
    2189 000002ce 9A03              LDR       A3, [SP, #12]         ; [DPU_V7M3_PIPE] |780|  ; [ORIG 16-BIT INS]
    2190 000002d0 2300              MOVS      A4, #0                ; [DPU_V7M3_PIPE] |780|  ; [ORIG 16-BIT INS]
    2191                    $C$DW$106       .dwtag  DW_TAG_TI_branch
    2192                            .dwattr $C$DW$106, DW_AT_low_pc(0x00)
    2193                            .dwattr $C$DW$106, DW_AT_name("AESLengthSet")
    2194                            .dwattr $C$DW$106, DW_AT_TI_call
    2195                    
    2196 000002d2 FFFEF7FF!         BL        AESLengthSet          ; [DPU_V7M3_PIPE] |780|  ; [KEEP 32-BIT INS]
    2197                            ; CALL OCCURS {AESLengthSet }    ; [] |780| 
    2198                            .dwpsn  file "../driverlib/aes.c",line 785,column 9,is_stmt,isa 1
    2199                    ;----------------------------------------------------------------------
    2200                    ; 785 | for(ui32Count = 0; ui32Count < ui32Length; ui32Count += 16)            
TI ARM Assembler Unix v18.1.1 Fri Jul  3 20:08:23 2020

Tools Copyright (c) 1996-2017 Texas Instruments Incorporated
aes.asm                                                              PAGE   41

    2201                    ;----------------------------------------------------------------------
    2202 000002d6 2000              MOVS      A1, #0                ; [DPU_V7M3_PIPE] |785|  ; [ORIG 16-BIT INS]
    2203 000002d8 9004              STR       A1, [SP, #16]         ; [DPU_V7M3_PIPE] |785|  ; [ORIG 16-BIT INS]
    2204                            .dwpsn  file "../driverlib/aes.c",line 785,column 24,is_stmt,isa 1
    2205                    ;----------------------------------------------------------------------
    2206                    ; 787 | //                                                                     
    2207                    ; 788 | // Write the data registers.                                           
    2208                    ; 789 | //                                                                     
    2209                    ;----------------------------------------------------------------------
    2210 000002da 9803              LDR       A1, [SP, #12]         ; [DPU_V7M3_PIPE] |785|  ; [ORIG 16-BIT INS]
    2211 000002dc 9904              LDR       A2, [SP, #16]         ; [DPU_V7M3_PIPE] |785|  ; [ORIG 16-BIT INS]
    2212 000002de 4288              CMP       A1, A2                ; [DPU_V7M3_PIPE] |785|  ; [ORIG 16-BIT INS]
    2213 000002e0 D916              BLS       ||$C$L16||            ; [DPU_V7M3_PIPE] |785|  ; [ORIG 16-BIT INS]
    2214                            ; BRANCHCC OCCURS {||$C$L16||}   ; [] |785| 
    2215                    ;* --------------------------------------------------------------------------*
    2216                    ;*   BEGIN LOOP ||$C$L15||
    2217                    ;*
    2218                    ;*   Loop source line                : 785
    2219                    ;*   Loop closing brace source line  : 796
    2220                    ;*   Known Minimum Trip Count        : 1
    2221                    ;*   Known Maximum Trip Count        : 4294967295
    2222                    ;*   Known Max Trip Count Factor     : 1
    2223                    ;* --------------------------------------------------------------------------*
    2224 000002e2           ||$C$L15||:    
    2225                            .dwpsn  file "../driverlib/aes.c",line 790,column 9,is_stmt,isa 1
    2226                    ;----------------------------------------------------------------------
    2227                    ; 790 | AESDataWrite(ui32Base, pui32Src + (ui32Count / 4));                    
    2228                    ; 792 | //                                                                     
    2229                    ; 793 | // Read the data registers.                                            
    2230                    ; 794 | //                                                                     
    2231                    ;----------------------------------------------------------------------
    2232 000002e2 9804              LDR       A1, [SP, #16]         ; [DPU_V7M3_PIPE] |790|  ; [ORIG 16-BIT INS]
    2233 000002e4 9901              LDR       A2, [SP, #4]          ; [DPU_V7M3_PIPE] |790|  ; [ORIG 16-BIT INS]
    2234 000002e6 0880              LSRS      A1, A1, #2            ; [DPU_V7M3_PIPE] |790|  ; [ORIG 16-BIT INS]
    2235 000002e8 0180EB01          ADD       A2, A2, A1, LSL #2    ; [DPU_V7M3_PIPE] |790|  ; [KEEP 32-BIT INS]
    2236 000002ec 9800              LDR       A1, [SP, #0]          ; [DPU_V7M3_PIPE] |790|  ; [ORIG 16-BIT INS]
    2237                    $C$DW$107       .dwtag  DW_TAG_TI_branch
    2238                            .dwattr $C$DW$107, DW_AT_low_pc(0x00)
    2239                            .dwattr $C$DW$107, DW_AT_name("AESDataWrite")
    2240                            .dwattr $C$DW$107, DW_AT_TI_call
    2241                    
    2242 000002ee FFFEF7FF!         BL        AESDataWrite          ; [DPU_V7M3_PIPE] |790|  ; [KEEP 32-BIT INS]
    2243                            ; CALL OCCURS {AESDataWrite }    ; [] |790| 
    2244                            .dwpsn  file "../driverlib/aes.c",line 795,column 9,is_stmt,isa 1
    2245                    ;----------------------------------------------------------------------
    2246                    ; 795 | AESDataRead(ui32Base, pui32Dest + (ui32Count / 4));                    
    2247                    ; 798 | //                                                                     
    2248                    ; 799 | // Return true to indicate successful completion of the function.      
    2249                    ; 800 | //                                                                     
    2250                    ;----------------------------------------------------------------------
    2251 000002f2 9804              LDR       A1, [SP, #16]         ; [DPU_V7M3_PIPE] |795|  ; [ORIG 16-BIT INS]
    2252 000002f4 9902              LDR       A2, [SP, #8]          ; [DPU_V7M3_PIPE] |795|  ; [ORIG 16-BIT INS]
    2253 000002f6 0880              LSRS      A1, A1, #2            ; [DPU_V7M3_PIPE] |795|  ; [ORIG 16-BIT INS]
    2254 000002f8 0180EB01          ADD       A2, A2, A1, LSL #2    ; [DPU_V7M3_PIPE] |795|  ; [KEEP 32-BIT INS]
    2255 000002fc 9800              LDR       A1, [SP, #0]          ; [DPU_V7M3_PIPE] |795|  ; [ORIG 16-BIT INS]
TI ARM Assembler Unix v18.1.1 Fri Jul  3 20:08:23 2020

Tools Copyright (c) 1996-2017 Texas Instruments Incorporated
aes.asm                                                              PAGE   42

    2256                    $C$DW$108       .dwtag  DW_TAG_TI_branch
    2257                            .dwattr $C$DW$108, DW_AT_low_pc(0x00)
    2258                            .dwattr $C$DW$108, DW_AT_name("AESDataRead")
    2259                            .dwattr $C$DW$108, DW_AT_TI_call
    2260                    
    2261 000002fe FFFEF7FF!         BL        AESDataRead           ; [DPU_V7M3_PIPE] |795|  ; [KEEP 32-BIT INS]
    2262                            ; CALL OCCURS {AESDataRead }     ; [] |795| 
    2263                            .dwpsn  file "../driverlib/aes.c",line 785,column 48,is_stmt,isa 1
    2264 00000302 9804              LDR       A1, [SP, #16]         ; [DPU_V7M3_PIPE] |785|  ; [ORIG 16-BIT INS]
    2265 00000304 3010              ADDS      A1, A1, #16           ; [DPU_V7M3_PIPE] |785|  ; [ORIG 16-BIT INS]
    2266 00000306 9004              STR       A1, [SP, #16]         ; [DPU_V7M3_PIPE] |785|  ; [ORIG 16-BIT INS]
    2267                            .dwpsn  file "../driverlib/aes.c",line 785,column 24,is_stmt,isa 1
    2268 00000308 9803              LDR       A1, [SP, #12]         ; [DPU_V7M3_PIPE] |785|  ; [ORIG 16-BIT INS]
    2269 0000030a 9904              LDR       A2, [SP, #16]         ; [DPU_V7M3_PIPE] |785|  ; [ORIG 16-BIT INS]
    2270 0000030c 4288              CMP       A1, A2                ; [DPU_V7M3_PIPE] |785|  ; [ORIG 16-BIT INS]
    2271 0000030e D8E8              BHI       ||$C$L15||            ; [DPU_V7M3_PIPE] |785|  ; [ORIG 16-BIT INS]
    2272                            ; BRANCHCC OCCURS {||$C$L15||}   ; [] |785| 
    2273                    ;* --------------------------------------------------------------------------*
    2274 00000310           ||$C$L16||:    
    2275                            .dwpsn  file "../driverlib/aes.c",line 801,column 5,is_stmt,isa 1
    2276                    ;----------------------------------------------------------------------
    2277                    ; 801 | return(true);                                                          
    2278                    ;----------------------------------------------------------------------
    2279 00000310 2001              MOVS      A1, #1                ; [DPU_V7M3_PIPE] |801|  ; [ORIG 16-BIT INS]
    2280                            .dwpsn  file "../driverlib/aes.c",line 802,column 1,is_stmt,isa 1
    2281 00000312 B005              ADD       SP, SP, #20           ; [DPU_V7M3_PIPE]  ; [ORIG 16-BIT INS]
    2282                            .dwcfi  cfa_offset, 4
    2283                    $C$DW$109       .dwtag  DW_TAG_TI_branch
    2284                            .dwattr $C$DW$109, DW_AT_low_pc(0x00)
    2285                            .dwattr $C$DW$109, DW_AT_TI_return
    2286                    
    2287 00000314 BD00              POP       {PC}                  ; [DPU_V7M3_PIPE]  ; [ORIG 16-BIT INS]
    2288                            .dwcfi  cfa_offset, 0
    2289                            ; BRANCH OCCURS                  ; [] 
    2290                            .dwattr $C$DW$96, DW_AT_TI_end_file("../driverlib/aes.c")
    2291                            .dwattr $C$DW$96, DW_AT_TI_end_line(0x322)
    2292                            .dwattr $C$DW$96, DW_AT_TI_end_column(0x01)
    2293                            .dwendentry
    2294                            .dwendtag $C$DW$96
    2295                    
    2296 00000316                   .sect   ".text"
    2297                            .clink
    2298                            .thumbfunc AESDataAuth
    2299 00000316                   .thumb
    2300                            .global AESDataAuth
    2301                    
    2302                    $C$DW$110       .dwtag  DW_TAG_subprogram
    2303                            .dwattr $C$DW$110, DW_AT_name("AESDataAuth")
    2304                            .dwattr $C$DW$110, DW_AT_low_pc(AESDataAuth)
    2305                            .dwattr $C$DW$110, DW_AT_high_pc(0x00)
    2306                            .dwattr $C$DW$110, DW_AT_TI_symbol_name("AESDataAuth")
    2307                            .dwattr $C$DW$110, DW_AT_external
    2308                            .dwattr $C$DW$110, DW_AT_type(*$C$DW$T$118)
    2309                            .dwattr $C$DW$110, DW_AT_TI_begin_file("../driverlib/aes.c")
    2310                            .dwattr $C$DW$110, DW_AT_TI_begin_line(0x339)
TI ARM Assembler Unix v18.1.1 Fri Jul  3 20:08:23 2020

Tools Copyright (c) 1996-2017 Texas Instruments Incorporated
aes.asm                                                              PAGE   43

    2311                            .dwattr $C$DW$110, DW_AT_TI_begin_column(0x01)
    2312                            .dwattr $C$DW$110, DW_AT_decl_file("../driverlib/aes.c")
    2313                            .dwattr $C$DW$110, DW_AT_decl_line(0x339)
    2314                            .dwattr $C$DW$110, DW_AT_decl_column(0x01)
    2315                            .dwattr $C$DW$110, DW_AT_TI_max_frame_size(0x18)
    2316                            .dwpsn  file "../driverlib/aes.c",line 827,column 1,is_stmt,address AESDataAuth,isa 1
    2317                    
    2318                            .dwfde $C$DW$CIE, AESDataAuth
    2319                    $C$DW$111       .dwtag  DW_TAG_formal_parameter
    2320                            .dwattr $C$DW$111, DW_AT_name("ui32Base")
    2321                            .dwattr $C$DW$111, DW_AT_TI_symbol_name("ui32Base")
    2322                            .dwattr $C$DW$111, DW_AT_type(*$C$DW$T$27)
    2323                            .dwattr $C$DW$111, DW_AT_location[DW_OP_reg0]
    2324                    
    2325                    $C$DW$112       .dwtag  DW_TAG_formal_parameter
    2326                            .dwattr $C$DW$112, DW_AT_name("pui32Src")
    2327                            .dwattr $C$DW$112, DW_AT_TI_symbol_name("pui32Src")
    2328                            .dwattr $C$DW$112, DW_AT_type(*$C$DW$T$34)
    2329                            .dwattr $C$DW$112, DW_AT_location[DW_OP_reg1]
    2330                    
    2331                    $C$DW$113       .dwtag  DW_TAG_formal_parameter
    2332                            .dwattr $C$DW$113, DW_AT_name("ui32Length")
    2333                            .dwattr $C$DW$113, DW_AT_TI_symbol_name("ui32Length")
    2334                            .dwattr $C$DW$113, DW_AT_type(*$C$DW$T$27)
    2335                            .dwattr $C$DW$113, DW_AT_location[DW_OP_reg2]
    2336                    
    2337                    $C$DW$114       .dwtag  DW_TAG_formal_parameter
    2338                            .dwattr $C$DW$114, DW_AT_name("pui32Tag")
    2339                            .dwattr $C$DW$114, DW_AT_TI_symbol_name("pui32Tag")
    2340                            .dwattr $C$DW$114, DW_AT_type(*$C$DW$T$34)
    2341                            .dwattr $C$DW$114, DW_AT_location[DW_OP_reg3]
    2342                    
    2343                    ;----------------------------------------------------------------------
    2344                    ; 825 | AESDataAuth(uint32_t ui32Base, uint32_t *pui32Src, uint32_t ui32Length,
    2345                    ; 826 | uint32_t *pui32Tag)                                                    
    2346                    ;----------------------------------------------------------------------
    2347                    
    2348                    ;*****************************************************************************
    2349                    ;* FUNCTION NAME: AESDataAuth                                                *
    2350                    ;*                                                                           *
    2351                    ;*   Regs Modified     : A1,A2,A3,A4,SP,LR,SR,FPEXC,FPSCR                    *
    2352                    ;*   Regs Used         : A1,A2,A3,A4,SP,LR,SR,FPEXC,FPSCR                    *
    2353                    ;*   Local Frame Size  : 0 Args + 20 Auto + 4 Save = 24 byte                 *
    2354                    ;*****************************************************************************
    2355 00000316           AESDataAuth:
    2356                    ;* --------------------------------------------------------------------------*
    2357                            .dwcfi  cfa_offset, 0
    2358 00000316 B500              PUSH      {LR}                  ; [DPU_V7M3_PIPE]  ; [ORIG 16-BIT INS]
    2359                            .dwcfi  cfa_offset, 4
    2360                            .dwcfi  save_reg_to_mem, 14, -4
    2361 00000318 0D14F1AD          SUB       SP, SP, #20           ; [DPU_V7M3_PIPE]  ; [KEEP 32-BIT INS]
    2362                            .dwcfi  cfa_offset, 24
    2363                    $C$DW$115       .dwtag  DW_TAG_variable
    2364                            .dwattr $C$DW$115, DW_AT_name("ui32Base")
    2365                            .dwattr $C$DW$115, DW_AT_TI_symbol_name("ui32Base")
TI ARM Assembler Unix v18.1.1 Fri Jul  3 20:08:23 2020

Tools Copyright (c) 1996-2017 Texas Instruments Incorporated
aes.asm                                                              PAGE   44

    2366                            .dwattr $C$DW$115, DW_AT_type(*$C$DW$T$27)
    2367                            .dwattr $C$DW$115, DW_AT_location[DW_OP_breg13 0]
    2368                    
    2369                    $C$DW$116       .dwtag  DW_TAG_variable
    2370                            .dwattr $C$DW$116, DW_AT_name("pui32Src")
    2371                            .dwattr $C$DW$116, DW_AT_TI_symbol_name("pui32Src")
    2372                            .dwattr $C$DW$116, DW_AT_type(*$C$DW$T$34)
    2373                            .dwattr $C$DW$116, DW_AT_location[DW_OP_breg13 4]
    2374                    
    2375                    $C$DW$117       .dwtag  DW_TAG_variable
    2376                            .dwattr $C$DW$117, DW_AT_name("ui32Length")
    2377                            .dwattr $C$DW$117, DW_AT_TI_symbol_name("ui32Length")
    2378                            .dwattr $C$DW$117, DW_AT_type(*$C$DW$T$27)
    2379                            .dwattr $C$DW$117, DW_AT_location[DW_OP_breg13 8]
    2380                    
    2381                    $C$DW$118       .dwtag  DW_TAG_variable
    2382                            .dwattr $C$DW$118, DW_AT_name("pui32Tag")
    2383                            .dwattr $C$DW$118, DW_AT_TI_symbol_name("pui32Tag")
    2384                            .dwattr $C$DW$118, DW_AT_type(*$C$DW$T$34)
    2385                            .dwattr $C$DW$118, DW_AT_location[DW_OP_breg13 12]
    2386                    
    2387                    $C$DW$119       .dwtag  DW_TAG_variable
    2388                            .dwattr $C$DW$119, DW_AT_name("ui32Count")
    2389                            .dwattr $C$DW$119, DW_AT_TI_symbol_name("ui32Count")
    2390                            .dwattr $C$DW$119, DW_AT_type(*$C$DW$T$27)
    2391                            .dwattr $C$DW$119, DW_AT_location[DW_OP_breg13 16]
    2392                    
    2393                    ;----------------------------------------------------------------------
    2394                    ; 828 | uint32_t ui32Count;                                                    
    2395                    ; 830 | //                                                                     
    2396                    ; 831 | // Check the arguments.                                                
    2397                    ; 832 | //                                                                     
    2398                    ; 833 | ASSERT(ui32Base == AES_BASE);                                          
    2399                    ; 835 | //                                                                     
    2400                    ; 836 | // Write the length register first, which triggers the engine to start 
    2401                    ; 837 | // using this context.                                                 
    2402                    ; 838 | //                                                                     
    2403                    ;----------------------------------------------------------------------
    2404 0000031c 9303              STR       A4, [SP, #12]         ; [DPU_V7M3_PIPE] |827|  ; [ORIG 16-BIT INS]
    2405 0000031e 9202              STR       A3, [SP, #8]          ; [DPU_V7M3_PIPE] |827|  ; [ORIG 16-BIT INS]
    2406 00000320 9101              STR       A2, [SP, #4]          ; [DPU_V7M3_PIPE] |827|  ; [ORIG 16-BIT INS]
    2407 00000322 9000              STR       A1, [SP, #0]          ; [DPU_V7M3_PIPE] |827|  ; [ORIG 16-BIT INS]
    2408                            .dwpsn  file "../driverlib/aes.c",line 839,column 5,is_stmt,isa 1
    2409                    ;----------------------------------------------------------------------
    2410                    ; 839 | AESLengthSet(ui32Base, (uint64_t)ui32Length);                          
    2411                    ; 841 | //                                                                     
    2412                    ; 842 | // Now loop until the blocks are written.                              
    2413                    ; 843 | //                                                                     
    2414                    ;----------------------------------------------------------------------
    2415 00000324 9A02              LDR       A3, [SP, #8]          ; [DPU_V7M3_PIPE] |839|  ; [ORIG 16-BIT INS]
    2416 00000326 9800              LDR       A1, [SP, #0]          ; [DPU_V7M3_PIPE] |839|  ; [ORIG 16-BIT INS]
    2417 00000328 2300              MOVS      A4, #0                ; [DPU_V7M3_PIPE] |839|  ; [ORIG 16-BIT INS]
    2418                    $C$DW$120       .dwtag  DW_TAG_TI_branch
    2419                            .dwattr $C$DW$120, DW_AT_low_pc(0x00)
    2420                            .dwattr $C$DW$120, DW_AT_name("AESLengthSet")
TI ARM Assembler Unix v18.1.1 Fri Jul  3 20:08:23 2020

Tools Copyright (c) 1996-2017 Texas Instruments Incorporated
aes.asm                                                              PAGE   45

    2421                            .dwattr $C$DW$120, DW_AT_TI_call
    2422                    
    2423 0000032a FFFEF7FF!         BL        AESLengthSet          ; [DPU_V7M3_PIPE] |839|  ; [KEEP 32-BIT INS]
    2424                            ; CALL OCCURS {AESLengthSet }    ; [] |839| 
    2425                            .dwpsn  file "../driverlib/aes.c",line 844,column 9,is_stmt,isa 1
    2426                    ;----------------------------------------------------------------------
    2427                    ; 844 | for(ui32Count = 0; ui32Count < ui32Length; ui32Count += 16)            
    2428                    ;----------------------------------------------------------------------
    2429 0000032e 2000              MOVS      A1, #0                ; [DPU_V7M3_PIPE] |844|  ; [ORIG 16-BIT INS]
    2430 00000330 9004              STR       A1, [SP, #16]         ; [DPU_V7M3_PIPE] |844|  ; [ORIG 16-BIT INS]
    2431                            .dwpsn  file "../driverlib/aes.c",line 844,column 24,is_stmt,isa 1
    2432                    ;----------------------------------------------------------------------
    2433                    ; 846 | //                                                                     
    2434                    ; 847 | // Write the data registers.                                           
    2435                    ; 848 | //                                                                     
    2436                    ;----------------------------------------------------------------------
    2437 00000332 9802              LDR       A1, [SP, #8]          ; [DPU_V7M3_PIPE] |844|  ; [ORIG 16-BIT INS]
    2438 00000334 9904              LDR       A2, [SP, #16]         ; [DPU_V7M3_PIPE] |844|  ; [ORIG 16-BIT INS]
    2439 00000336 4288              CMP       A1, A2                ; [DPU_V7M3_PIPE] |844|  ; [ORIG 16-BIT INS]
    2440 00000338 D90E              BLS       ||$C$L18||            ; [DPU_V7M3_PIPE] |844|  ; [ORIG 16-BIT INS]
    2441                            ; BRANCHCC OCCURS {||$C$L18||}   ; [] |844| 
    2442                    ;* --------------------------------------------------------------------------*
    2443                    ;*   BEGIN LOOP ||$C$L17||
    2444                    ;*
    2445                    ;*   Loop source line                : 844
    2446                    ;*   Loop closing brace source line  : 850
    2447                    ;*   Known Minimum Trip Count        : 1
    2448                    ;*   Known Maximum Trip Count        : 4294967295
    2449                    ;*   Known Max Trip Count Factor     : 1
    2450                    ;* --------------------------------------------------------------------------*
    2451 0000033a           ||$C$L17||:    
    2452                            .dwpsn  file "../driverlib/aes.c",line 849,column 9,is_stmt,isa 1
    2453                    ;----------------------------------------------------------------------
    2454                    ; 849 | AESDataWrite(ui32Base, pui32Src + (ui32Count / 4));                    
    2455                    ; 852 | //                                                                     
    2456                    ; 853 | // Read the hash tag value.                                            
    2457                    ; 854 | //                                                                     
    2458                    ;----------------------------------------------------------------------
    2459 0000033a 9804              LDR       A1, [SP, #16]         ; [DPU_V7M3_PIPE] |849|  ; [ORIG 16-BIT INS]
    2460 0000033c 9901              LDR       A2, [SP, #4]          ; [DPU_V7M3_PIPE] |849|  ; [ORIG 16-BIT INS]
    2461 0000033e 0880              LSRS      A1, A1, #2            ; [DPU_V7M3_PIPE] |849|  ; [ORIG 16-BIT INS]
    2462 00000340 0180EB01          ADD       A2, A2, A1, LSL #2    ; [DPU_V7M3_PIPE] |849|  ; [KEEP 32-BIT INS]
    2463 00000344 9800              LDR       A1, [SP, #0]          ; [DPU_V7M3_PIPE] |849|  ; [ORIG 16-BIT INS]
    2464                    $C$DW$121       .dwtag  DW_TAG_TI_branch
    2465                            .dwattr $C$DW$121, DW_AT_low_pc(0x00)
    2466                            .dwattr $C$DW$121, DW_AT_name("AESDataWrite")
    2467                            .dwattr $C$DW$121, DW_AT_TI_call
    2468                    
    2469 00000346 FFFEF7FF!         BL        AESDataWrite          ; [DPU_V7M3_PIPE] |849|  ; [KEEP 32-BIT INS]
    2470                            ; CALL OCCURS {AESDataWrite }    ; [] |849| 
    2471                            .dwpsn  file "../driverlib/aes.c",line 844,column 48,is_stmt,isa 1
    2472 0000034a 9804              LDR       A1, [SP, #16]         ; [DPU_V7M3_PIPE] |844|  ; [ORIG 16-BIT INS]
    2473 0000034c 3010              ADDS      A1, A1, #16           ; [DPU_V7M3_PIPE] |844|  ; [ORIG 16-BIT INS]
    2474 0000034e 9004              STR       A1, [SP, #16]         ; [DPU_V7M3_PIPE] |844|  ; [ORIG 16-BIT INS]
    2475                            .dwpsn  file "../driverlib/aes.c",line 844,column 24,is_stmt,isa 1
TI ARM Assembler Unix v18.1.1 Fri Jul  3 20:08:23 2020

Tools Copyright (c) 1996-2017 Texas Instruments Incorporated
aes.asm                                                              PAGE   46

    2476 00000350 9802              LDR       A1, [SP, #8]          ; [DPU_V7M3_PIPE] |844|  ; [ORIG 16-BIT INS]
    2477 00000352 9904              LDR       A2, [SP, #16]         ; [DPU_V7M3_PIPE] |844|  ; [ORIG 16-BIT INS]
    2478 00000354 4288              CMP       A1, A2                ; [DPU_V7M3_PIPE] |844|  ; [ORIG 16-BIT INS]
    2479 00000356 D8F0              BHI       ||$C$L17||            ; [DPU_V7M3_PIPE] |844|  ; [ORIG 16-BIT INS]
    2480                            ; BRANCHCC OCCURS {||$C$L17||}   ; [] |844| 
    2481                    ;* --------------------------------------------------------------------------*
    2482 00000358           ||$C$L18||:    
    2483                            .dwpsn  file "../driverlib/aes.c",line 855,column 5,is_stmt,isa 1
    2484                    ;----------------------------------------------------------------------
    2485                    ; 855 | AESTagRead(ui32Base, pui32Tag);                                        
    2486                    ; 857 | //                                                                     
    2487                    ; 858 | // Return true to indicate successful completion of the function.      
    2488                    ; 859 | //                                                                     
    2489                    ;----------------------------------------------------------------------
    2490 00000358 9800              LDR       A1, [SP, #0]          ; [DPU_V7M3_PIPE] |855|  ; [ORIG 16-BIT INS]
    2491 0000035a 9903              LDR       A2, [SP, #12]         ; [DPU_V7M3_PIPE] |855|  ; [ORIG 16-BIT INS]
    2492                    $C$DW$122       .dwtag  DW_TAG_TI_branch
    2493                            .dwattr $C$DW$122, DW_AT_low_pc(0x00)
    2494                            .dwattr $C$DW$122, DW_AT_name("AESTagRead")
    2495                            .dwattr $C$DW$122, DW_AT_TI_call
    2496                    
    2497 0000035c FFFEF7FF!         BL        AESTagRead            ; [DPU_V7M3_PIPE] |855|  ; [KEEP 32-BIT INS]
    2498                            ; CALL OCCURS {AESTagRead }      ; [] |855| 
    2499                            .dwpsn  file "../driverlib/aes.c",line 860,column 5,is_stmt,isa 1
    2500                    ;----------------------------------------------------------------------
    2501                    ; 860 | return(true);                                                          
    2502                    ;----------------------------------------------------------------------
    2503 00000360 2001              MOVS      A1, #1                ; [DPU_V7M3_PIPE] |860|  ; [ORIG 16-BIT INS]
    2504                            .dwpsn  file "../driverlib/aes.c",line 861,column 1,is_stmt,isa 1
    2505 00000362 B005              ADD       SP, SP, #20           ; [DPU_V7M3_PIPE]  ; [ORIG 16-BIT INS]
    2506                            .dwcfi  cfa_offset, 4
    2507                    $C$DW$123       .dwtag  DW_TAG_TI_branch
    2508                            .dwattr $C$DW$123, DW_AT_low_pc(0x00)
    2509                            .dwattr $C$DW$123, DW_AT_TI_return
    2510                    
    2511 00000364 BD00              POP       {PC}                  ; [DPU_V7M3_PIPE]  ; [ORIG 16-BIT INS]
    2512                            .dwcfi  cfa_offset, 0
    2513                            ; BRANCH OCCURS                  ; [] 
    2514                            .dwattr $C$DW$110, DW_AT_TI_end_file("../driverlib/aes.c")
    2515                            .dwattr $C$DW$110, DW_AT_TI_end_line(0x35d)
    2516                            .dwattr $C$DW$110, DW_AT_TI_end_column(0x01)
    2517                            .dwendentry
    2518                            .dwendtag $C$DW$110
    2519                    
    2520 00000366                   .sect   ".text"
    2521                            .clink
    2522                            .thumbfunc AESDataProcessAuth
    2523 00000366                   .thumb
    2524                            .global AESDataProcessAuth
    2525                    
    2526                    $C$DW$124       .dwtag  DW_TAG_subprogram
    2527                            .dwattr $C$DW$124, DW_AT_name("AESDataProcessAuth")
    2528                            .dwattr $C$DW$124, DW_AT_low_pc(AESDataProcessAuth)
    2529                            .dwattr $C$DW$124, DW_AT_high_pc(0x00)
    2530                            .dwattr $C$DW$124, DW_AT_TI_symbol_name("AESDataProcessAuth")
TI ARM Assembler Unix v18.1.1 Fri Jul  3 20:08:23 2020

Tools Copyright (c) 1996-2017 Texas Instruments Incorporated
aes.asm                                                              PAGE   47

    2531                            .dwattr $C$DW$124, DW_AT_external
    2532                            .dwattr $C$DW$124, DW_AT_type(*$C$DW$T$118)
    2533                            .dwattr $C$DW$124, DW_AT_TI_begin_file("../driverlib/aes.c")
    2534                            .dwattr $C$DW$124, DW_AT_TI_begin_line(0x37c)
    2535                            .dwattr $C$DW$124, DW_AT_TI_begin_column(0x01)
    2536                            .dwattr $C$DW$124, DW_AT_decl_file("../driverlib/aes.c")
    2537                            .dwattr $C$DW$124, DW_AT_decl_line(0x37c)
    2538                            .dwattr $C$DW$124, DW_AT_decl_column(0x01)
    2539                            .dwattr $C$DW$124, DW_AT_TI_max_frame_size(0x18)
    2540                            .dwpsn  file "../driverlib/aes.c",line 896,column 1,is_stmt,address AESDataProcessAuth,isa 1
    2541                    
    2542                            .dwfde $C$DW$CIE, AESDataProcessAuth
    2543                    $C$DW$125       .dwtag  DW_TAG_formal_parameter
    2544                            .dwattr $C$DW$125, DW_AT_name("ui32Base")
    2545                            .dwattr $C$DW$125, DW_AT_TI_symbol_name("ui32Base")
    2546                            .dwattr $C$DW$125, DW_AT_type(*$C$DW$T$27)
    2547                            .dwattr $C$DW$125, DW_AT_location[DW_OP_reg0]
    2548                    
    2549                    $C$DW$126       .dwtag  DW_TAG_formal_parameter
    2550                            .dwattr $C$DW$126, DW_AT_name("pui32Src")
    2551                            .dwattr $C$DW$126, DW_AT_TI_symbol_name("pui32Src")
    2552                            .dwattr $C$DW$126, DW_AT_type(*$C$DW$T$34)
    2553                            .dwattr $C$DW$126, DW_AT_location[DW_OP_reg1]
    2554                    
    2555                    $C$DW$127       .dwtag  DW_TAG_formal_parameter
    2556                            .dwattr $C$DW$127, DW_AT_name("pui32Dest")
    2557                            .dwattr $C$DW$127, DW_AT_TI_symbol_name("pui32Dest")
    2558                            .dwattr $C$DW$127, DW_AT_type(*$C$DW$T$34)
    2559                            .dwattr $C$DW$127, DW_AT_location[DW_OP_reg2]
    2560                    
    2561                    $C$DW$128       .dwtag  DW_TAG_formal_parameter
    2562                            .dwattr $C$DW$128, DW_AT_name("ui32Length")
    2563                            .dwattr $C$DW$128, DW_AT_TI_symbol_name("ui32Length")
    2564                            .dwattr $C$DW$128, DW_AT_type(*$C$DW$T$27)
    2565                            .dwattr $C$DW$128, DW_AT_location[DW_OP_reg3]
    2566                    
    2567                    $C$DW$129       .dwtag  DW_TAG_formal_parameter
    2568                            .dwattr $C$DW$129, DW_AT_name("pui32AuthSrc")
    2569                            .dwattr $C$DW$129, DW_AT_TI_symbol_name("pui32AuthSrc")
    2570                            .dwattr $C$DW$129, DW_AT_type(*$C$DW$T$34)
    2571                            .dwattr $C$DW$129, DW_AT_location[DW_OP_breg13 24]
    2572                    
    2573                    $C$DW$130       .dwtag  DW_TAG_formal_parameter
    2574                            .dwattr $C$DW$130, DW_AT_name("ui32AuthLength")
    2575                            .dwattr $C$DW$130, DW_AT_TI_symbol_name("ui32AuthLength")
    2576                            .dwattr $C$DW$130, DW_AT_type(*$C$DW$T$27)
    2577                            .dwattr $C$DW$130, DW_AT_location[DW_OP_breg13 28]
    2578                    
    2579                    $C$DW$131       .dwtag  DW_TAG_formal_parameter
    2580                            .dwattr $C$DW$131, DW_AT_name("pui32Tag")
    2581                            .dwattr $C$DW$131, DW_AT_TI_symbol_name("pui32Tag")
    2582                            .dwattr $C$DW$131, DW_AT_type(*$C$DW$T$34)
    2583                            .dwattr $C$DW$131, DW_AT_location[DW_OP_breg13 32]
    2584                    
    2585                    ;----------------------------------------------------------------------
TI ARM Assembler Unix v18.1.1 Fri Jul  3 20:08:23 2020

Tools Copyright (c) 1996-2017 Texas Instruments Incorporated
aes.asm                                                              PAGE   48

    2586                    ; 892 | AESDataProcessAuth(uint32_t ui32Base, uint32_t *pui32Src,              
    2587                    ; 893 | uint32_t *pui32Dest, uint32_t ui32Length,                              
    2588                    ; 894 | uint32_t *pui32AuthSrc, uint32_t ui32AuthLength,                       
    2589                    ; 895 | uint32_t *pui32Tag)                                                    
    2590                    ;----------------------------------------------------------------------
    2591                    
    2592                    ;*****************************************************************************
    2593                    ;* FUNCTION NAME: AESDataProcessAuth                                         *
    2594                    ;*                                                                           *
    2595                    ;*   Regs Modified     : A1,A2,A3,A4,SP,LR,SR,FPEXC,FPSCR                    *
    2596                    ;*   Regs Used         : A1,A2,A3,A4,SP,LR,SR,FPEXC,FPSCR                    *
    2597                    ;*   Local Frame Size  : 0 Args + 20 Auto + 4 Save = 24 byte                 *
    2598                    ;*****************************************************************************
    2599 00000366           AESDataProcessAuth:
    2600                    ;* --------------------------------------------------------------------------*
    2601                            .dwcfi  cfa_offset, 0
    2602 00000366 B500              PUSH      {LR}                  ; [DPU_V7M3_PIPE]  ; [ORIG 16-BIT INS]
    2603                            .dwcfi  cfa_offset, 4
    2604                            .dwcfi  save_reg_to_mem, 14, -4
    2605 00000368 0D14F1AD          SUB       SP, SP, #20           ; [DPU_V7M3_PIPE]  ; [KEEP 32-BIT INS]
    2606                            .dwcfi  cfa_offset, 24
    2607                    $C$DW$132       .dwtag  DW_TAG_variable
    2608                            .dwattr $C$DW$132, DW_AT_name("ui32Base")
    2609                            .dwattr $C$DW$132, DW_AT_TI_symbol_name("ui32Base")
    2610                            .dwattr $C$DW$132, DW_AT_type(*$C$DW$T$27)
    2611                            .dwattr $C$DW$132, DW_AT_location[DW_OP_breg13 0]
    2612                    
    2613                    $C$DW$133       .dwtag  DW_TAG_variable
    2614                            .dwattr $C$DW$133, DW_AT_name("pui32Src")
    2615                            .dwattr $C$DW$133, DW_AT_TI_symbol_name("pui32Src")
    2616                            .dwattr $C$DW$133, DW_AT_type(*$C$DW$T$34)
    2617                            .dwattr $C$DW$133, DW_AT_location[DW_OP_breg13 4]
    2618                    
    2619                    $C$DW$134       .dwtag  DW_TAG_variable
    2620                            .dwattr $C$DW$134, DW_AT_name("pui32Dest")
    2621                            .dwattr $C$DW$134, DW_AT_TI_symbol_name("pui32Dest")
    2622                            .dwattr $C$DW$134, DW_AT_type(*$C$DW$T$34)
    2623                            .dwattr $C$DW$134, DW_AT_location[DW_OP_breg13 8]
    2624                    
    2625                    $C$DW$135       .dwtag  DW_TAG_variable
    2626                            .dwattr $C$DW$135, DW_AT_name("ui32Length")
    2627                            .dwattr $C$DW$135, DW_AT_TI_symbol_name("ui32Length")
    2628                            .dwattr $C$DW$135, DW_AT_type(*$C$DW$T$27)
    2629                            .dwattr $C$DW$135, DW_AT_location[DW_OP_breg13 12]
    2630                    
    2631                    $C$DW$136       .dwtag  DW_TAG_variable
    2632                            .dwattr $C$DW$136, DW_AT_name("ui32Count")
    2633                            .dwattr $C$DW$136, DW_AT_TI_symbol_name("ui32Count")
    2634                            .dwattr $C$DW$136, DW_AT_type(*$C$DW$T$27)
    2635                            .dwattr $C$DW$136, DW_AT_location[DW_OP_breg13 16]
    2636                    
    2637                    ;----------------------------------------------------------------------
    2638                    ; 897 | uint32_t ui32Count;                                                    
    2639                    ; 899 | //                                                                     
    2640                    ; 900 | // Check the arguments.                                                
TI ARM Assembler Unix v18.1.1 Fri Jul  3 20:08:23 2020

Tools Copyright (c) 1996-2017 Texas Instruments Incorporated
aes.asm                                                              PAGE   49

    2641                    ; 901 | //                                                                     
    2642                    ; 902 | ASSERT(ui32Base == AES_BASE);                                          
    2643                    ; 904 | //                                                                     
    2644                    ; 905 | // Set the data length.                                                
    2645                    ; 906 | //                                                                     
    2646                    ;----------------------------------------------------------------------
    2647 0000036c 9303              STR       A4, [SP, #12]         ; [DPU_V7M3_PIPE] |896|  ; [ORIG 16-BIT INS]
    2648 0000036e 9202              STR       A3, [SP, #8]          ; [DPU_V7M3_PIPE] |896|  ; [ORIG 16-BIT INS]
    2649 00000370 9101              STR       A2, [SP, #4]          ; [DPU_V7M3_PIPE] |896|  ; [ORIG 16-BIT INS]
    2650 00000372 9000              STR       A1, [SP, #0]          ; [DPU_V7M3_PIPE] |896|  ; [ORIG 16-BIT INS]
    2651                            .dwpsn  file "../driverlib/aes.c",line 907,column 5,is_stmt,isa 1
    2652                    ;----------------------------------------------------------------------
    2653                    ; 907 | AESLengthSet(ui32Base, (uint64_t)ui32Length);                          
    2654                    ; 909 | //                                                                     
    2655                    ; 910 | // Set the additional authentication data length.                      
    2656                    ; 911 | //                                                                     
    2657                    ;----------------------------------------------------------------------
    2658 00000374 9A03              LDR       A3, [SP, #12]         ; [DPU_V7M3_PIPE] |907|  ; [ORIG 16-BIT INS]
    2659 00000376 9800              LDR       A1, [SP, #0]          ; [DPU_V7M3_PIPE] |907|  ; [ORIG 16-BIT INS]
    2660 00000378 2300              MOVS      A4, #0                ; [DPU_V7M3_PIPE] |907|  ; [ORIG 16-BIT INS]
    2661                    $C$DW$137       .dwtag  DW_TAG_TI_branch
    2662                            .dwattr $C$DW$137, DW_AT_low_pc(0x00)
    2663                            .dwattr $C$DW$137, DW_AT_name("AESLengthSet")
    2664                            .dwattr $C$DW$137, DW_AT_TI_call
    2665                    
    2666 0000037a FFFEF7FF!         BL        AESLengthSet          ; [DPU_V7M3_PIPE] |907|  ; [KEEP 32-BIT INS]
    2667                            ; CALL OCCURS {AESLengthSet }    ; [] |907| 
    2668                            .dwpsn  file "../driverlib/aes.c",line 912,column 5,is_stmt,isa 1
    2669                    ;----------------------------------------------------------------------
    2670                    ; 912 | AESAuthLengthSet(ui32Base, ui32AuthLength);                            
    2671                    ; 914 | //                                                                     
    2672                    ; 915 | // Now loop until the authentication data blocks are written.          
    2673                    ; 916 | //                                                                     
    2674                    ;----------------------------------------------------------------------
    2675 0000037e 9800              LDR       A1, [SP, #0]          ; [DPU_V7M3_PIPE] |912|  ; [ORIG 16-BIT INS]
    2676 00000380 9907              LDR       A2, [SP, #28]         ; [DPU_V7M3_PIPE] |912|  ; [ORIG 16-BIT INS]
    2677                    $C$DW$138       .dwtag  DW_TAG_TI_branch
    2678                            .dwattr $C$DW$138, DW_AT_low_pc(0x00)
    2679                            .dwattr $C$DW$138, DW_AT_name("AESAuthLengthSet")
    2680                            .dwattr $C$DW$138, DW_AT_TI_call
    2681                    
    2682 00000382 FFFEF7FF!         BL        AESAuthLengthSet      ; [DPU_V7M3_PIPE] |912|  ; [KEEP 32-BIT INS]
    2683                            ; CALL OCCURS {AESAuthLengthSet }  ; [] |912| 
    2684                            .dwpsn  file "../driverlib/aes.c",line 917,column 9,is_stmt,isa 1
    2685                    ;----------------------------------------------------------------------
    2686                    ; 917 | for(ui32Count = 0; ui32Count < ui32AuthLength; ui32Count += 16)        
    2687                    ;----------------------------------------------------------------------
    2688 00000386 2000              MOVS      A1, #0                ; [DPU_V7M3_PIPE] |917|  ; [ORIG 16-BIT INS]
    2689 00000388 9004              STR       A1, [SP, #16]         ; [DPU_V7M3_PIPE] |917|  ; [ORIG 16-BIT INS]
    2690                            .dwpsn  file "../driverlib/aes.c",line 917,column 24,is_stmt,isa 1
    2691                    ;----------------------------------------------------------------------
    2692                    ; 919 | //                                                                     
    2693                    ; 920 | // Write the data registers.                                           
    2694                    ; 921 | //                                                                     
    2695                    ;----------------------------------------------------------------------
TI ARM Assembler Unix v18.1.1 Fri Jul  3 20:08:23 2020

Tools Copyright (c) 1996-2017 Texas Instruments Incorporated
aes.asm                                                              PAGE   50

    2696 0000038a 9807              LDR       A1, [SP, #28]         ; [DPU_V7M3_PIPE] |917|  ; [ORIG 16-BIT INS]
    2697 0000038c 9904              LDR       A2, [SP, #16]         ; [DPU_V7M3_PIPE] |917|  ; [ORIG 16-BIT INS]
    2698 0000038e 4288              CMP       A1, A2                ; [DPU_V7M3_PIPE] |917|  ; [ORIG 16-BIT INS]
    2699 00000390 D90E              BLS       ||$C$L20||            ; [DPU_V7M3_PIPE] |917|  ; [ORIG 16-BIT INS]
    2700                            ; BRANCHCC OCCURS {||$C$L20||}   ; [] |917| 
    2701                    ;* --------------------------------------------------------------------------*
    2702                    ;*   BEGIN LOOP ||$C$L19||
    2703                    ;*
    2704                    ;*   Loop source line                : 917
    2705                    ;*   Loop closing brace source line  : 923
    2706                    ;*   Known Minimum Trip Count        : 1
    2707                    ;*   Known Maximum Trip Count        : 4294967295
    2708                    ;*   Known Max Trip Count Factor     : 1
    2709                    ;* --------------------------------------------------------------------------*
    2710 00000392           ||$C$L19||:    
    2711                            .dwpsn  file "../driverlib/aes.c",line 922,column 9,is_stmt,isa 1
    2712                    ;----------------------------------------------------------------------
    2713                    ; 922 | AESDataWrite(ui32Base, pui32AuthSrc + (ui32Count / 4));                
    2714                    ; 925 | //                                                                     
    2715                    ; 926 | // Now loop until the data blocks are written.                         
    2716                    ; 927 | //                                                                     
    2717                    ;----------------------------------------------------------------------
    2718 00000392 9804              LDR       A1, [SP, #16]         ; [DPU_V7M3_PIPE] |922|  ; [ORIG 16-BIT INS]
    2719 00000394 9906              LDR       A2, [SP, #24]         ; [DPU_V7M3_PIPE] |922|  ; [ORIG 16-BIT INS]
    2720 00000396 0880              LSRS      A1, A1, #2            ; [DPU_V7M3_PIPE] |922|  ; [ORIG 16-BIT INS]
    2721 00000398 0180EB01          ADD       A2, A2, A1, LSL #2    ; [DPU_V7M3_PIPE] |922|  ; [KEEP 32-BIT INS]
    2722 0000039c 9800              LDR       A1, [SP, #0]          ; [DPU_V7M3_PIPE] |922|  ; [ORIG 16-BIT INS]
    2723                    $C$DW$139       .dwtag  DW_TAG_TI_branch
    2724                            .dwattr $C$DW$139, DW_AT_low_pc(0x00)
    2725                            .dwattr $C$DW$139, DW_AT_name("AESDataWrite")
    2726                            .dwattr $C$DW$139, DW_AT_TI_call
    2727                    
    2728 0000039e FFFEF7FF!         BL        AESDataWrite          ; [DPU_V7M3_PIPE] |922|  ; [KEEP 32-BIT INS]
    2729                            ; CALL OCCURS {AESDataWrite }    ; [] |922| 
    2730                            .dwpsn  file "../driverlib/aes.c",line 917,column 52,is_stmt,isa 1
    2731 000003a2 9804              LDR       A1, [SP, #16]         ; [DPU_V7M3_PIPE] |917|  ; [ORIG 16-BIT INS]
    2732 000003a4 3010              ADDS      A1, A1, #16           ; [DPU_V7M3_PIPE] |917|  ; [ORIG 16-BIT INS]
    2733 000003a6 9004              STR       A1, [SP, #16]         ; [DPU_V7M3_PIPE] |917|  ; [ORIG 16-BIT INS]
    2734                            .dwpsn  file "../driverlib/aes.c",line 917,column 24,is_stmt,isa 1
    2735 000003a8 9807              LDR       A1, [SP, #28]         ; [DPU_V7M3_PIPE] |917|  ; [ORIG 16-BIT INS]
    2736 000003aa 9904              LDR       A2, [SP, #16]         ; [DPU_V7M3_PIPE] |917|  ; [ORIG 16-BIT INS]
    2737 000003ac 4288              CMP       A1, A2                ; [DPU_V7M3_PIPE] |917|  ; [ORIG 16-BIT INS]
    2738 000003ae D8F0              BHI       ||$C$L19||            ; [DPU_V7M3_PIPE] |917|  ; [ORIG 16-BIT INS]
    2739                            ; BRANCHCC OCCURS {||$C$L19||}   ; [] |917| 
    2740                    ;* --------------------------------------------------------------------------*
    2741 000003b0           ||$C$L20||:    
    2742                            .dwpsn  file "../driverlib/aes.c",line 928,column 9,is_stmt,isa 1
    2743                    ;----------------------------------------------------------------------
    2744                    ; 928 | for(ui32Count = 0; ui32Count < ui32Length; ui32Count += 16)            
    2745                    ;----------------------------------------------------------------------
