TI ARM Assembler Unix v18.1.1 Fri Jul  3 20:08:23 2020

Tools Copyright (c) 1996-2017 Texas Instruments Incorporated
des.asm                                                              PAGE    1

       1                    ;******************************************************************************
       2                    ;* TI ARM C/C++ Codegen                                      Unix v18.1.1.LTS *
       3                    ;* Date/Time created: Fri Jul  3 20:08:23 2020                                *
       4                    ;******************************************************************************
       5                            .compiler_opts --abi=eabi --arm_vmrs_si_workaround=off --code_state=16 --diag_wrap=off --embed
       6 00000000                   .thumb
       7                    
       8                    $C$DW$CU        .dwtag  DW_TAG_compile_unit
       9                            .dwattr $C$DW$CU, DW_AT_name("../driverlib/des.c")
      10                            .dwattr $C$DW$CU, DW_AT_producer("TI TI ARM C/C++ Codegen Unix v18.1.1.LTS Copyright (c) 1996-
      11                            .dwattr $C$DW$CU, DW_AT_TI_version(0x01)
      12                            .dwattr $C$DW$CU, DW_AT_comp_dir("/home/pola/workspace_v8/Microwave/Debug")
      13                    
      14                    $C$DW$1 .dwtag  DW_TAG_subprogram
      15                            .dwattr $C$DW$1, DW_AT_name("IntRegister")
      16                            .dwattr $C$DW$1, DW_AT_TI_symbol_name("IntRegister")
      17                            .dwattr $C$DW$1, DW_AT_declaration
      18                            .dwattr $C$DW$1, DW_AT_external
      19                            .dwattr $C$DW$1, DW_AT_decl_file("/home/pola/workspace_v8/Microwave/driverlib/interrupt.h")
      20                            .dwattr $C$DW$1, DW_AT_decl_line(0x45)
      21                            .dwattr $C$DW$1, DW_AT_decl_column(0x0d)
      22                    $C$DW$2 .dwtag  DW_TAG_formal_parameter
      23                            .dwattr $C$DW$2, DW_AT_type(*$C$DW$T$27)
      24                    
      25                    $C$DW$3 .dwtag  DW_TAG_formal_parameter
      26                            .dwattr $C$DW$3, DW_AT_type(*$C$DW$T$25)
      27                    
      28                            .dwendtag $C$DW$1
      29                    
      30                    
      31                    $C$DW$4 .dwtag  DW_TAG_subprogram
      32                            .dwattr $C$DW$4, DW_AT_name("IntEnable")
      33                            .dwattr $C$DW$4, DW_AT_TI_symbol_name("IntEnable")
      34                            .dwattr $C$DW$4, DW_AT_declaration
      35                            .dwattr $C$DW$4, DW_AT_external
      36                            .dwattr $C$DW$4, DW_AT_decl_file("/home/pola/workspace_v8/Microwave/driverlib/interrupt.h")
      37                            .dwattr $C$DW$4, DW_AT_decl_line(0x4c)
      38                            .dwattr $C$DW$4, DW_AT_decl_column(0x0d)
      39                    $C$DW$5 .dwtag  DW_TAG_formal_parameter
      40                            .dwattr $C$DW$5, DW_AT_type(*$C$DW$T$27)
      41                    
      42                            .dwendtag $C$DW$4
      43                    
      44                    
      45                    $C$DW$6 .dwtag  DW_TAG_subprogram
      46                            .dwattr $C$DW$6, DW_AT_name("IntDisable")
      47                            .dwattr $C$DW$6, DW_AT_TI_symbol_name("IntDisable")
      48                            .dwattr $C$DW$6, DW_AT_declaration
      49                            .dwattr $C$DW$6, DW_AT_external
      50                            .dwattr $C$DW$6, DW_AT_decl_file("/home/pola/workspace_v8/Microwave/driverlib/interrupt.h")
      51                            .dwattr $C$DW$6, DW_AT_decl_line(0x4d)
      52                            .dwattr $C$DW$6, DW_AT_decl_column(0x0d)
      53                    $C$DW$7 .dwtag  DW_TAG_formal_parameter
      54                            .dwattr $C$DW$7, DW_AT_type(*$C$DW$T$27)
      55                    
TI ARM Assembler Unix v18.1.1 Fri Jul  3 20:08:23 2020

Tools Copyright (c) 1996-2017 Texas Instruments Incorporated
des.asm                                                              PAGE    2

      56                            .dwendtag $C$DW$6
      57                    
      58                    
      59                    $C$DW$8 .dwtag  DW_TAG_subprogram
      60                            .dwattr $C$DW$8, DW_AT_name("IntUnregister")
      61                            .dwattr $C$DW$8, DW_AT_TI_symbol_name("IntUnregister")
      62                            .dwattr $C$DW$8, DW_AT_declaration
      63                            .dwattr $C$DW$8, DW_AT_external
      64                            .dwattr $C$DW$8, DW_AT_decl_file("/home/pola/workspace_v8/Microwave/driverlib/interrupt.h")
      65                            .dwattr $C$DW$8, DW_AT_decl_line(0x46)
      66                            .dwattr $C$DW$8, DW_AT_decl_column(0x0d)
      67                    $C$DW$9 .dwtag  DW_TAG_formal_parameter
      68                            .dwattr $C$DW$9, DW_AT_type(*$C$DW$T$27)
      69                    
      70                            .dwendtag $C$DW$8
      71                    
      72                    ;       /home/pola/ti/ccsv8/tools/compiler/ti-cgt-arm_18.1.1.LTS/bin/armacpia -@/tmp/TI3Ou3Wks8x 
      73 00000000                   .sect   ".text"
      74                            .clink
      75                            .thumbfunc DESReset
      76 00000000                   .thumb
      77                            .global DESReset
      78                    
      79                    $C$DW$10        .dwtag  DW_TAG_subprogram
      80                            .dwattr $C$DW$10, DW_AT_name("DESReset")
      81                            .dwattr $C$DW$10, DW_AT_low_pc(DESReset)
      82                            .dwattr $C$DW$10, DW_AT_high_pc(0x00)
      83                            .dwattr $C$DW$10, DW_AT_TI_symbol_name("DESReset")
      84                            .dwattr $C$DW$10, DW_AT_external
      85                            .dwattr $C$DW$10, DW_AT_TI_begin_file("../driverlib/des.c")
      86                            .dwattr $C$DW$10, DW_AT_TI_begin_line(0x45)
      87                            .dwattr $C$DW$10, DW_AT_TI_begin_column(0x01)
      88                            .dwattr $C$DW$10, DW_AT_decl_file("../driverlib/des.c")
      89                            .dwattr $C$DW$10, DW_AT_decl_line(0x45)
      90                            .dwattr $C$DW$10, DW_AT_decl_column(0x01)
      91                            .dwattr $C$DW$10, DW_AT_TI_max_frame_size(0x08)
      92                            .dwpsn  file "../driverlib/des.c",line 70,column 1,is_stmt,address DESReset,isa 1
      93                    
      94                            .dwfde $C$DW$CIE, DESReset
      95                    $C$DW$11        .dwtag  DW_TAG_formal_parameter
      96                            .dwattr $C$DW$11, DW_AT_name("ui32Base")
      97                            .dwattr $C$DW$11, DW_AT_TI_symbol_name("ui32Base")
      98                            .dwattr $C$DW$11, DW_AT_type(*$C$DW$T$27)
      99                            .dwattr $C$DW$11, DW_AT_location[DW_OP_reg0]
     100                    
     101                    ;----------------------------------------------------------------------
     102                    ;  69 | DESReset(uint32_t ui32Base)                                            
     103                    ;----------------------------------------------------------------------
     104                    
     105                    ;*****************************************************************************
     106                    ;* FUNCTION NAME: DESReset                                                   *
     107                    ;*                                                                           *
     108                    ;*   Regs Modified     : A1,A2,SP,SR                                         *
     109                    ;*   Regs Used         : A1,A2,SP,LR,SR                                      *
     110                    ;*   Local Frame Size  : 0 Args + 4 Auto + 0 Save = 4 byte                   *
TI ARM Assembler Unix v18.1.1 Fri Jul  3 20:08:23 2020

Tools Copyright (c) 1996-2017 Texas Instruments Incorporated
des.asm                                                              PAGE    3

     111                    ;*****************************************************************************
     112 00000000           DESReset:
     113                    ;* --------------------------------------------------------------------------*
     114                            .dwcfi  cfa_offset, 0
     115 00000000 0D08F1AD          SUB       SP, SP, #8            ; [DPU_V7M3_PIPE]  ; [KEEP 32-BIT INS]
     116                            .dwcfi  cfa_offset, 8
     117                    $C$DW$12        .dwtag  DW_TAG_variable
     118                            .dwattr $C$DW$12, DW_AT_name("ui32Base")
     119                            .dwattr $C$DW$12, DW_AT_TI_symbol_name("ui32Base")
     120                            .dwattr $C$DW$12, DW_AT_type(*$C$DW$T$27)
     121                            .dwattr $C$DW$12, DW_AT_location[DW_OP_breg13 0]
     122                    
     123                    ;----------------------------------------------------------------------
     124                    ;  71 | //                                                                     
     125                    ;  72 | // Check the arguments.                                                
     126                    ;  73 | //                                                                     
     127                    ;  74 | ASSERT(ui32Base == DES_BASE);                                          
     128                    ;  76 | //                                                                     
     129                    ;  77 | // Trigger the soft reset.                                             
     130                    ;  78 | //                                                                     
     131                    ;----------------------------------------------------------------------
     132 00000004 9000              STR       A1, [SP, #0]          ; [DPU_V7M3_PIPE] |70|  ; [ORIG 16-BIT INS]
     133                            .dwpsn  file "../driverlib/des.c",line 79,column 5,is_stmt,isa 1
     134                    ;----------------------------------------------------------------------
     135                    ;  79 | HWREG(ui32Base + DES_O_SYSCONFIG) |= DES_SYSCONFIG_SOFTRESET;          
     136                    ;  81 | //                                                                     
     137                    ;  82 | // Wait for the reset to finish.                                       
     138                    ;  83 | //                                                                     
     139                    ;----------------------------------------------------------------------
     140 00000006 9800              LDR       A1, [SP, #0]          ; [DPU_V7M3_PIPE] |79|  ; [ORIG 16-BIT INS]
     141 00000008 3034              ADDS      A1, A1, #52           ; [DPU_V7M3_PIPE] |79|  ; [ORIG 16-BIT INS]
     142 0000000a 6801              LDR       A2, [A1, #0]          ; [DPU_V7M3_PIPE] |79|  ; [ORIG 16-BIT INS]
     143 0000000c 0102F041          ORR       A2, A2, #2            ; [DPU_V7M3_PIPE] |79|  ; [KEEP 32-BIT INS]
     144 00000010 6001              STR       A2, [A1, #0]          ; [DPU_V7M3_PIPE] |79|  ; [ORIG 16-BIT INS]
     145                            .dwpsn  file "../driverlib/des.c",line 84,column 5,is_stmt,isa 1
     146                    ;----------------------------------------------------------------------
     147                    ;  84 | while((HWREG(ui32Base + DES_O_SYSSTATUS) &                             
     148                    ;----------------------------------------------------------------------
     149                    ;* --------------------------------------------------------------------------*
     150                    ;*   BEGIN LOOP ||$C$L1||
     151                    ;*
     152                    ;*   Loop source line                : 84
     153                    ;*   Loop closing brace source line  : 87
     154                    ;*   Known Minimum Trip Count        : 1
     155                    ;*   Known Maximum Trip Count        : 4294967295
     156                    ;*   Known Max Trip Count Factor     : 1
     157                    ;* --------------------------------------------------------------------------*
     158 00000012           ||$C$L1||:    
     159                            .dwpsn  file "../driverlib/des.c",line 84,column 11,is_stmt,isa 1
     160                    ;----------------------------------------------------------------------
     161                    ;  85 | DES_SYSSTATUS_RESETDONE) == 0)                                         
     162                    ;----------------------------------------------------------------------
     163 00000012 9800              LDR       A1, [SP, #0]          ; [DPU_V7M3_PIPE] |84|  ; [ORIG 16-BIT INS]
     164 00000014 6B80              LDR       A1, [A1, #56]         ; [DPU_V7M3_PIPE] |84|  ; [ORIG 16-BIT INS]
     165 00000016 0840              LSRS      A1, A1, #1            ; [DPU_V7M3_PIPE] |84|  ; [ORIG 16-BIT INS]
TI ARM Assembler Unix v18.1.1 Fri Jul  3 20:08:23 2020

Tools Copyright (c) 1996-2017 Texas Instruments Incorporated
des.asm                                                              PAGE    4

     166 00000018 D3FB              BCC       ||$C$L1||             ; [DPU_V7M3_PIPE] |84|  ; [ORIG 16-BIT INS]
     167                            ; BRANCHCC OCCURS {||$C$L1||}    ; [] |84| 
     168                    ;* --------------------------------------------------------------------------*
     169                            .dwpsn  file "../driverlib/des.c",line 88,column 1,is_stmt,isa 1
     170 0000001a B002              ADD       SP, SP, #8            ; [DPU_V7M3_PIPE]  ; [ORIG 16-BIT INS]
     171                            .dwcfi  cfa_offset, 0
     172                    $C$DW$13        .dwtag  DW_TAG_TI_branch
     173                            .dwattr $C$DW$13, DW_AT_low_pc(0x00)
     174                            .dwattr $C$DW$13, DW_AT_TI_return
     175                    
     176 0000001c 4770              BX        LR                    ; [DPU_V7M3_PIPE]  ; [ORIG 16-BIT INS]
     177                            ; BRANCH OCCURS                  ; [] 
     178                            .dwattr $C$DW$10, DW_AT_TI_end_file("../driverlib/des.c")
     179                            .dwattr $C$DW$10, DW_AT_TI_end_line(0x58)
     180                            .dwattr $C$DW$10, DW_AT_TI_end_column(0x01)
     181                            .dwendentry
     182                            .dwendtag $C$DW$10
     183                    
     184 0000001e                   .sect   ".text"
     185                            .clink
     186                            .thumbfunc DESConfigSet
     187 0000001e                   .thumb
     188                            .global DESConfigSet
     189                    
     190                    $C$DW$14        .dwtag  DW_TAG_subprogram
     191                            .dwattr $C$DW$14, DW_AT_name("DESConfigSet")
     192                            .dwattr $C$DW$14, DW_AT_low_pc(DESConfigSet)
     193                            .dwattr $C$DW$14, DW_AT_high_pc(0x00)
     194                            .dwattr $C$DW$14, DW_AT_TI_symbol_name("DESConfigSet")
     195                            .dwattr $C$DW$14, DW_AT_external
     196                            .dwattr $C$DW$14, DW_AT_TI_begin_file("../driverlib/des.c")
     197                            .dwattr $C$DW$14, DW_AT_TI_begin_line(0x7d)
     198                            .dwattr $C$DW$14, DW_AT_TI_begin_column(0x01)
     199                            .dwattr $C$DW$14, DW_AT_decl_file("../driverlib/des.c")
     200                            .dwattr $C$DW$14, DW_AT_decl_line(0x7d)
     201                            .dwattr $C$DW$14, DW_AT_decl_column(0x01)
     202                            .dwattr $C$DW$14, DW_AT_TI_max_frame_size(0x08)
     203                            .dwpsn  file "../driverlib/des.c",line 126,column 1,is_stmt,address DESConfigSet,isa 1
     204                    
     205                            .dwfde $C$DW$CIE, DESConfigSet
     206                    $C$DW$15        .dwtag  DW_TAG_formal_parameter
     207                            .dwattr $C$DW$15, DW_AT_name("ui32Base")
     208                            .dwattr $C$DW$15, DW_AT_TI_symbol_name("ui32Base")
     209                            .dwattr $C$DW$15, DW_AT_type(*$C$DW$T$27)
     210                            .dwattr $C$DW$15, DW_AT_location[DW_OP_reg0]
     211                    
     212                    $C$DW$16        .dwtag  DW_TAG_formal_parameter
     213                            .dwattr $C$DW$16, DW_AT_name("ui32Config")
     214                            .dwattr $C$DW$16, DW_AT_TI_symbol_name("ui32Config")
     215                            .dwattr $C$DW$16, DW_AT_type(*$C$DW$T$27)
     216                            .dwattr $C$DW$16, DW_AT_location[DW_OP_reg1]
     217                    
     218                    ;----------------------------------------------------------------------
     219                    ; 125 | DESConfigSet(uint32_t ui32Base, uint32_t ui32Config)                   
     220                    ;----------------------------------------------------------------------
TI ARM Assembler Unix v18.1.1 Fri Jul  3 20:08:23 2020

Tools Copyright (c) 1996-2017 Texas Instruments Incorporated
des.asm                                                              PAGE    5

     221                    
     222                    ;*****************************************************************************
     223                    ;* FUNCTION NAME: DESConfigSet                                               *
     224                    ;*                                                                           *
     225                    ;*   Regs Modified     : A1,A2,SP,SR                                         *
     226                    ;*   Regs Used         : A1,A2,SP,LR,SR                                      *
     227                    ;*   Local Frame Size  : 0 Args + 8 Auto + 0 Save = 8 byte                   *
     228                    ;*****************************************************************************
     229 0000001e           DESConfigSet:
     230                    ;* --------------------------------------------------------------------------*
     231                            .dwcfi  cfa_offset, 0
     232 0000001e 0D08F1AD          SUB       SP, SP, #8            ; [DPU_V7M3_PIPE]  ; [KEEP 32-BIT INS]
     233                            .dwcfi  cfa_offset, 8
     234                    $C$DW$17        .dwtag  DW_TAG_variable
     235                            .dwattr $C$DW$17, DW_AT_name("ui32Base")
     236                            .dwattr $C$DW$17, DW_AT_TI_symbol_name("ui32Base")
     237                            .dwattr $C$DW$17, DW_AT_type(*$C$DW$T$27)
     238                            .dwattr $C$DW$17, DW_AT_location[DW_OP_breg13 0]
     239                    
     240                    $C$DW$18        .dwtag  DW_TAG_variable
     241                            .dwattr $C$DW$18, DW_AT_name("ui32Config")
     242                            .dwattr $C$DW$18, DW_AT_TI_symbol_name("ui32Config")
     243                            .dwattr $C$DW$18, DW_AT_type(*$C$DW$T$27)
     244                            .dwattr $C$DW$18, DW_AT_location[DW_OP_breg13 4]
     245                    
     246                    ;----------------------------------------------------------------------
     247                    ; 127 | //                                                                     
     248                    ; 128 | // Check the arguments.                                                
     249                    ; 129 | //                                                                     
     250                    ; 130 | ASSERT(ui32Base == DES_BASE);                                          
     251                    ; 132 | //                                                                     
     252                    ; 133 | // Backup the save context field.                                      
     253                    ; 134 | //                                                                     
     254                    ;----------------------------------------------------------------------
     255 00000022 9101              STR       A2, [SP, #4]          ; [DPU_V7M3_PIPE] |126|  ; [ORIG 16-BIT INS]
     256 00000024 9000              STR       A1, [SP, #0]          ; [DPU_V7M3_PIPE] |126|  ; [ORIG 16-BIT INS]
     257                            .dwpsn  file "../driverlib/des.c",line 135,column 5,is_stmt,isa 1
     258                    ;----------------------------------------------------------------------
     259                    ; 135 | ui32Config |= (HWREG(ui32Base + DES_O_CTRL) & DES_CTRL_CONTEXT);       
     260                    ; 137 | //                                                                     
     261                    ; 138 | // Write the control register.                                         
     262                    ; 139 | //                                                                     
     263                    ;----------------------------------------------------------------------
     264 00000026 9800              LDR       A1, [SP, #0]          ; [DPU_V7M3_PIPE] |135|  ; [ORIG 16-BIT INS]
     265 00000028 9901              LDR       A2, [SP, #4]          ; [DPU_V7M3_PIPE] |135|  ; [ORIG 16-BIT INS]
     266 0000002a 6A00              LDR       A1, [A1, #32]         ; [DPU_V7M3_PIPE] |135|  ; [ORIG 16-BIT INS]
     267 0000002c 4000F000          AND       A1, A1, #-2147483648  ; [DPU_V7M3_PIPE] |135|  ; [KEEP 32-BIT INS]
     268 00000030 4308              ORRS      A1, A1, A2            ; [DPU_V7M3_PIPE] |135|  ; [ORIG 16-BIT INS]
     269 00000032 9001              STR       A1, [SP, #4]          ; [DPU_V7M3_PIPE] |135|  ; [ORIG 16-BIT INS]
     270                            .dwpsn  file "../driverlib/des.c",line 140,column 5,is_stmt,isa 1
     271                    ;----------------------------------------------------------------------
     272                    ; 140 | HWREG(ui32Base + DES_O_CTRL) = ui32Config;                             
     273                    ;----------------------------------------------------------------------
     274 00000034 9900              LDR       A2, [SP, #0]          ; [DPU_V7M3_PIPE] |140|  ; [ORIG 16-BIT INS]
     275 00000036 9801              LDR       A1, [SP, #4]          ; [DPU_V7M3_PIPE] |140|  ; [ORIG 16-BIT INS]
TI ARM Assembler Unix v18.1.1 Fri Jul  3 20:08:23 2020

Tools Copyright (c) 1996-2017 Texas Instruments Incorporated
des.asm                                                              PAGE    6

     276 00000038 6208              STR       A1, [A2, #32]         ; [DPU_V7M3_PIPE] |140|  ; [ORIG 16-BIT INS]
     277                            .dwpsn  file "../driverlib/des.c",line 141,column 1,is_stmt,isa 1
     278 0000003a B002              ADD       SP, SP, #8            ; [DPU_V7M3_PIPE]  ; [ORIG 16-BIT INS]
     279                            .dwcfi  cfa_offset, 0
     280                    $C$DW$19        .dwtag  DW_TAG_TI_branch
     281                            .dwattr $C$DW$19, DW_AT_low_pc(0x00)
     282                            .dwattr $C$DW$19, DW_AT_TI_return
     283                    
     284 0000003c 4770              BX        LR                    ; [DPU_V7M3_PIPE]  ; [ORIG 16-BIT INS]
     285                            ; BRANCH OCCURS                  ; [] 
     286                            .dwattr $C$DW$14, DW_AT_TI_end_file("../driverlib/des.c")
     287                            .dwattr $C$DW$14, DW_AT_TI_end_line(0x8d)
     288                            .dwattr $C$DW$14, DW_AT_TI_end_column(0x01)
     289                            .dwendentry
     290                            .dwendtag $C$DW$14
     291                    
     292 0000003e                   .sect   ".text"
     293                            .clink
     294                            .thumbfunc DESKeySet
     295 0000003e                   .thumb
     296                            .global DESKeySet
     297                    
     298                    $C$DW$20        .dwtag  DW_TAG_subprogram
     299                            .dwattr $C$DW$20, DW_AT_name("DESKeySet")
     300                            .dwattr $C$DW$20, DW_AT_low_pc(DESKeySet)
     301                            .dwattr $C$DW$20, DW_AT_high_pc(0x00)
     302                            .dwattr $C$DW$20, DW_AT_TI_symbol_name("DESKeySet")
     303                            .dwattr $C$DW$20, DW_AT_external
     304                            .dwattr $C$DW$20, DW_AT_TI_begin_file("../driverlib/des.c")
     305                            .dwattr $C$DW$20, DW_AT_TI_begin_line(0x9f)
     306                            .dwattr $C$DW$20, DW_AT_TI_begin_column(0x01)
     307                            .dwattr $C$DW$20, DW_AT_decl_file("../driverlib/des.c")
     308                            .dwattr $C$DW$20, DW_AT_decl_line(0x9f)
     309                            .dwattr $C$DW$20, DW_AT_decl_column(0x01)
     310                            .dwattr $C$DW$20, DW_AT_TI_max_frame_size(0x08)
     311                            .dwpsn  file "../driverlib/des.c",line 160,column 1,is_stmt,address DESKeySet,isa 1
     312                    
     313                            .dwfde $C$DW$CIE, DESKeySet
     314                    $C$DW$21        .dwtag  DW_TAG_formal_parameter
     315                            .dwattr $C$DW$21, DW_AT_name("ui32Base")
     316                            .dwattr $C$DW$21, DW_AT_TI_symbol_name("ui32Base")
     317                            .dwattr $C$DW$21, DW_AT_type(*$C$DW$T$27)
     318                            .dwattr $C$DW$21, DW_AT_location[DW_OP_reg0]
     319                    
     320                    $C$DW$22        .dwtag  DW_TAG_formal_parameter
     321                            .dwattr $C$DW$22, DW_AT_name("pui32Key")
     322                            .dwattr $C$DW$22, DW_AT_TI_symbol_name("pui32Key")
     323                            .dwattr $C$DW$22, DW_AT_type(*$C$DW$T$33)
     324                            .dwattr $C$DW$22, DW_AT_location[DW_OP_reg1]
     325                    
     326                    ;----------------------------------------------------------------------
     327                    ; 159 | DESKeySet(uint32_t ui32Base, uint32_t *pui32Key)                       
     328                    ;----------------------------------------------------------------------
     329                    
     330                    ;*****************************************************************************
TI ARM Assembler Unix v18.1.1 Fri Jul  3 20:08:23 2020

Tools Copyright (c) 1996-2017 Texas Instruments Incorporated
des.asm                                                              PAGE    7

     331                    ;* FUNCTION NAME: DESKeySet                                                  *
     332                    ;*                                                                           *
     333                    ;*   Regs Modified     : A1,A2,SP,SR                                         *
     334                    ;*   Regs Used         : A1,A2,SP,LR,SR                                      *
     335                    ;*   Local Frame Size  : 0 Args + 8 Auto + 0 Save = 8 byte                   *
     336                    ;*****************************************************************************
     337 0000003e           DESKeySet:
     338                    ;* --------------------------------------------------------------------------*
     339                            .dwcfi  cfa_offset, 0
     340 0000003e 0D08F1AD          SUB       SP, SP, #8            ; [DPU_V7M3_PIPE]  ; [KEEP 32-BIT INS]
     341                            .dwcfi  cfa_offset, 8
     342                    $C$DW$23        .dwtag  DW_TAG_variable
     343                            .dwattr $C$DW$23, DW_AT_name("ui32Base")
     344                            .dwattr $C$DW$23, DW_AT_TI_symbol_name("ui32Base")
     345                            .dwattr $C$DW$23, DW_AT_type(*$C$DW$T$27)
     346                            .dwattr $C$DW$23, DW_AT_location[DW_OP_breg13 0]
     347                    
     348                    $C$DW$24        .dwtag  DW_TAG_variable
     349                            .dwattr $C$DW$24, DW_AT_name("pui32Key")
     350                            .dwattr $C$DW$24, DW_AT_TI_symbol_name("pui32Key")
     351                            .dwattr $C$DW$24, DW_AT_type(*$C$DW$T$33)
     352                            .dwattr $C$DW$24, DW_AT_location[DW_OP_breg13 4]
     353                    
     354                    ;----------------------------------------------------------------------
     355                    ; 161 | //                                                                     
     356                    ; 162 | // Check the arguments.                                                
     357                    ; 163 | //                                                                     
     358                    ; 164 | ASSERT(ui32Base == DES_BASE);                                          
     359                    ; 166 | //                                                                     
     360                    ; 167 | // Write the first part of the key.                                    
     361                    ; 168 | //                                                                     
     362                    ;----------------------------------------------------------------------
     363 00000042 9101              STR       A2, [SP, #4]          ; [DPU_V7M3_PIPE] |160|  ; [ORIG 16-BIT INS]
     364 00000044 9000              STR       A1, [SP, #0]          ; [DPU_V7M3_PIPE] |160|  ; [ORIG 16-BIT INS]
     365                            .dwpsn  file "../driverlib/des.c",line 169,column 5,is_stmt,isa 1
     366                    ;----------------------------------------------------------------------
     367                    ; 169 | HWREG(ui32Base + DES_O_KEY1_L) = pui32Key[0];                          
     368                    ;----------------------------------------------------------------------
     369 00000046 9801              LDR       A1, [SP, #4]          ; [DPU_V7M3_PIPE] |169|  ; [ORIG 16-BIT INS]
     370 00000048 9900              LDR       A2, [SP, #0]          ; [DPU_V7M3_PIPE] |169|  ; [ORIG 16-BIT INS]
     371 0000004a 6800              LDR       A1, [A1, #0]          ; [DPU_V7M3_PIPE] |169|  ; [ORIG 16-BIT INS]
     372 0000004c 6108              STR       A1, [A2, #16]         ; [DPU_V7M3_PIPE] |169|  ; [ORIG 16-BIT INS]
     373                            .dwpsn  file "../driverlib/des.c",line 170,column 5,is_stmt,isa 1
     374                    ;----------------------------------------------------------------------
     375                    ; 170 | HWREG(ui32Base + DES_O_KEY1_H) = pui32Key[1];                          
     376                    ; 172 | //                                                                     
     377                    ; 173 | // If we are performing tripe DES, then write the key registers for    
     378                    ; 174 | // the second and third rounds.                                        
     379                    ; 175 | //                                                                     
     380                    ;----------------------------------------------------------------------
     381 0000004e 9801              LDR       A1, [SP, #4]          ; [DPU_V7M3_PIPE] |170|  ; [ORIG 16-BIT INS]
     382 00000050 9900              LDR       A2, [SP, #0]          ; [DPU_V7M3_PIPE] |170|  ; [ORIG 16-BIT INS]
     383 00000052 6840              LDR       A1, [A1, #4]          ; [DPU_V7M3_PIPE] |170|  ; [ORIG 16-BIT INS]
     384 00000054 6148              STR       A1, [A2, #20]         ; [DPU_V7M3_PIPE] |170|  ; [ORIG 16-BIT INS]
     385                            .dwpsn  file "../driverlib/des.c",line 176,column 5,is_stmt,isa 1
TI ARM Assembler Unix v18.1.1 Fri Jul  3 20:08:23 2020

Tools Copyright (c) 1996-2017 Texas Instruments Incorporated
des.asm                                                              PAGE    8

     386                    ;----------------------------------------------------------------------
     387                    ; 176 | if(HWREG(ui32Base + DES_O_CTRL) & DES_CFG_TRIPLE)                      
     388                    ;----------------------------------------------------------------------
     389 00000056 9800              LDR       A1, [SP, #0]          ; [DPU_V7M3_PIPE] |176|  ; [ORIG 16-BIT INS]
     390 00000058 6A00              LDR       A1, [A1, #32]         ; [DPU_V7M3_PIPE] |176|  ; [ORIG 16-BIT INS]
     391 0000005a 0900              LSRS      A1, A1, #4            ; [DPU_V7M3_PIPE] |176|  ; [ORIG 16-BIT INS]
     392 0000005c D30F              BCC       ||$C$L2||             ; [DPU_V7M3_PIPE] |176|  ; [ORIG 16-BIT INS]
     393                            ; BRANCHCC OCCURS {||$C$L2||}    ; [] |176| 
     394                    ;* --------------------------------------------------------------------------*
     395                            .dwpsn  file "../driverlib/des.c",line 178,column 9,is_stmt,isa 1
     396                    ;----------------------------------------------------------------------
     397                    ; 178 | HWREG(ui32Base + DES_O_KEY2_L) = pui32Key[2];                          
     398                    ;----------------------------------------------------------------------
     399 0000005e 9801              LDR       A1, [SP, #4]          ; [DPU_V7M3_PIPE] |178|  ; [ORIG 16-BIT INS]
     400 00000060 9900              LDR       A2, [SP, #0]          ; [DPU_V7M3_PIPE] |178|  ; [ORIG 16-BIT INS]
     401 00000062 6880              LDR       A1, [A1, #8]          ; [DPU_V7M3_PIPE] |178|  ; [ORIG 16-BIT INS]
     402 00000064 6088              STR       A1, [A2, #8]          ; [DPU_V7M3_PIPE] |178|  ; [ORIG 16-BIT INS]
     403                            .dwpsn  file "../driverlib/des.c",line 179,column 9,is_stmt,isa 1
     404                    ;----------------------------------------------------------------------
     405                    ; 179 | HWREG(ui32Base + DES_O_KEY2_H) = pui32Key[3];                          
     406                    ;----------------------------------------------------------------------
     407 00000066 9801              LDR       A1, [SP, #4]          ; [DPU_V7M3_PIPE] |179|  ; [ORIG 16-BIT INS]
     408 00000068 9900              LDR       A2, [SP, #0]          ; [DPU_V7M3_PIPE] |179|  ; [ORIG 16-BIT INS]
     409 0000006a 68C0              LDR       A1, [A1, #12]         ; [DPU_V7M3_PIPE] |179|  ; [ORIG 16-BIT INS]
     410 0000006c 60C8              STR       A1, [A2, #12]         ; [DPU_V7M3_PIPE] |179|  ; [ORIG 16-BIT INS]
     411                            .dwpsn  file "../driverlib/des.c",line 180,column 9,is_stmt,isa 1
     412                    ;----------------------------------------------------------------------
     413                    ; 180 | HWREG(ui32Base + DES_O_KEY3_L) = pui32Key[4];                          
     414                    ;----------------------------------------------------------------------
     415 0000006e 9801              LDR       A1, [SP, #4]          ; [DPU_V7M3_PIPE] |180|  ; [ORIG 16-BIT INS]
     416 00000070 9900              LDR       A2, [SP, #0]          ; [DPU_V7M3_PIPE] |180|  ; [ORIG 16-BIT INS]
     417 00000072 6900              LDR       A1, [A1, #16]         ; [DPU_V7M3_PIPE] |180|  ; [ORIG 16-BIT INS]
     418 00000074 6008              STR       A1, [A2, #0]          ; [DPU_V7M3_PIPE] |180|  ; [ORIG 16-BIT INS]
     419                            .dwpsn  file "../driverlib/des.c",line 181,column 9,is_stmt,isa 1
     420                    ;----------------------------------------------------------------------
     421                    ; 181 | HWREG(ui32Base + DES_O_KEY3_H) = pui32Key[5];                          
     422                    ;----------------------------------------------------------------------
     423 00000076 9801              LDR       A1, [SP, #4]          ; [DPU_V7M3_PIPE] |181|  ; [ORIG 16-BIT INS]
     424 00000078 9900              LDR       A2, [SP, #0]          ; [DPU_V7M3_PIPE] |181|  ; [ORIG 16-BIT INS]
     425 0000007a 6940              LDR       A1, [A1, #20]         ; [DPU_V7M3_PIPE] |181|  ; [ORIG 16-BIT INS]
     426 0000007c 6048              STR       A1, [A2, #4]          ; [DPU_V7M3_PIPE] |181|  ; [ORIG 16-BIT INS]
     427                            .dwpsn  file "../driverlib/des.c",line 183,column 1,is_stmt,isa 1
     428                    ;* --------------------------------------------------------------------------*
     429 0000007e           ||$C$L2||:    
     430 0000007e B002              ADD       SP, SP, #8            ; [DPU_V7M3_PIPE]  ; [ORIG 16-BIT INS]
     431                            .dwcfi  cfa_offset, 0
     432                    $C$DW$25        .dwtag  DW_TAG_TI_branch
     433                            .dwattr $C$DW$25, DW_AT_low_pc(0x00)
     434                            .dwattr $C$DW$25, DW_AT_TI_return
     435                    
     436 00000080 4770              BX        LR                    ; [DPU_V7M3_PIPE]  ; [ORIG 16-BIT INS]
     437                            ; BRANCH OCCURS                  ; [] 
     438                            .dwattr $C$DW$20, DW_AT_TI_end_file("../driverlib/des.c")
     439                            .dwattr $C$DW$20, DW_AT_TI_end_line(0xb7)
     440                            .dwattr $C$DW$20, DW_AT_TI_end_column(0x01)
TI ARM Assembler Unix v18.1.1 Fri Jul  3 20:08:23 2020

Tools Copyright (c) 1996-2017 Texas Instruments Incorporated
des.asm                                                              PAGE    9

     441                            .dwendentry
     442                            .dwendtag $C$DW$20
     443                    
     444 00000082                   .sect   ".text"
     445                            .clink
     446                            .thumbfunc DESIVSet
     447 00000082                   .thumb
     448                            .global DESIVSet
     449                    
     450                    $C$DW$26        .dwtag  DW_TAG_subprogram
     451                            .dwattr $C$DW$26, DW_AT_name("DESIVSet")
     452                            .dwattr $C$DW$26, DW_AT_low_pc(DESIVSet)
     453                            .dwattr $C$DW$26, DW_AT_high_pc(0x00)
     454                            .dwattr $C$DW$26, DW_AT_TI_symbol_name("DESIVSet")
     455                            .dwattr $C$DW$26, DW_AT_external
     456                            .dwattr $C$DW$26, DW_AT_type(*$C$DW$T$111)
     457                            .dwattr $C$DW$26, DW_AT_TI_begin_file("../driverlib/des.c")
     458                            .dwattr $C$DW$26, DW_AT_TI_begin_line(0xca)
     459                            .dwattr $C$DW$26, DW_AT_TI_begin_column(0x01)
     460                            .dwattr $C$DW$26, DW_AT_decl_file("../driverlib/des.c")
     461                            .dwattr $C$DW$26, DW_AT_decl_line(0xca)
     462                            .dwattr $C$DW$26, DW_AT_decl_column(0x01)
     463                            .dwattr $C$DW$26, DW_AT_TI_max_frame_size(0x08)
     464                            .dwpsn  file "../driverlib/des.c",line 203,column 1,is_stmt,address DESIVSet,isa 1
     465                    
     466                            .dwfde $C$DW$CIE, DESIVSet
     467                    $C$DW$27        .dwtag  DW_TAG_formal_parameter
     468                            .dwattr $C$DW$27, DW_AT_name("ui32Base")
     469                            .dwattr $C$DW$27, DW_AT_TI_symbol_name("ui32Base")
     470                            .dwattr $C$DW$27, DW_AT_type(*$C$DW$T$27)
     471                            .dwattr $C$DW$27, DW_AT_location[DW_OP_reg0]
     472                    
     473                    $C$DW$28        .dwtag  DW_TAG_formal_parameter
     474                            .dwattr $C$DW$28, DW_AT_name("pui32IVdata")
     475                            .dwattr $C$DW$28, DW_AT_TI_symbol_name("pui32IVdata")
     476                            .dwattr $C$DW$28, DW_AT_type(*$C$DW$T$33)
     477                            .dwattr $C$DW$28, DW_AT_location[DW_OP_reg1]
     478                    
     479                    ;----------------------------------------------------------------------
     480                    ; 202 | DESIVSet(uint32_t ui32Base, uint32_t *pui32IVdata)                     
     481                    ;----------------------------------------------------------------------
     482                    
     483                    ;*****************************************************************************
     484                    ;* FUNCTION NAME: DESIVSet                                                   *
     485                    ;*                                                                           *
     486                    ;*   Regs Modified     : A1,A2,SP,SR                                         *
     487                    ;*   Regs Used         : A1,A2,SP,LR,SR                                      *
     488                    ;*   Local Frame Size  : 0 Args + 8 Auto + 0 Save = 8 byte                   *
     489                    ;*****************************************************************************
     490 00000082           DESIVSet:
     491                    ;* --------------------------------------------------------------------------*
     492                            .dwcfi  cfa_offset, 0
     493 00000082 0D08F1AD          SUB       SP, SP, #8            ; [DPU_V7M3_PIPE]  ; [KEEP 32-BIT INS]
     494                            .dwcfi  cfa_offset, 8
     495                    $C$DW$29        .dwtag  DW_TAG_variable
TI ARM Assembler Unix v18.1.1 Fri Jul  3 20:08:23 2020

Tools Copyright (c) 1996-2017 Texas Instruments Incorporated
des.asm                                                              PAGE   10

     496                            .dwattr $C$DW$29, DW_AT_name("ui32Base")
     497                            .dwattr $C$DW$29, DW_AT_TI_symbol_name("ui32Base")
     498                            .dwattr $C$DW$29, DW_AT_type(*$C$DW$T$27)
     499                            .dwattr $C$DW$29, DW_AT_location[DW_OP_breg13 0]
     500                    
     501                    $C$DW$30        .dwtag  DW_TAG_variable
     502                            .dwattr $C$DW$30, DW_AT_name("pui32IVdata")
     503                            .dwattr $C$DW$30, DW_AT_TI_symbol_name("pui32IVdata")
     504                            .dwattr $C$DW$30, DW_AT_type(*$C$DW$T$33)
     505                            .dwattr $C$DW$30, DW_AT_location[DW_OP_breg13 4]
     506                    
     507                    ;----------------------------------------------------------------------
     508                    ; 204 | //                                                                     
     509                    ; 205 | // Check the arguments.                                                
     510                    ; 206 | //                                                                     
     511                    ; 207 | ASSERT(ui32Base == DES_BASE);                                          
     512                    ; 209 | //                                                                     
     513                    ; 210 | // Check to see if context registers can be overwritten.  If not, retur
     514                    ;     | n                                                                      
     515                    ; 211 | // false.                                                              
     516                    ; 212 | //                                                                     
     517                    ;----------------------------------------------------------------------
     518 00000086 9101              STR       A2, [SP, #4]          ; [DPU_V7M3_PIPE] |203|  ; [ORIG 16-BIT INS]
     519 00000088 9000              STR       A1, [SP, #0]          ; [DPU_V7M3_PIPE] |203|  ; [ORIG 16-BIT INS]
     520                            .dwpsn  file "../driverlib/des.c",line 213,column 5,is_stmt,isa 1
     521                    ;----------------------------------------------------------------------
     522                    ; 213 | if((HWREG(ui32Base + DES_O_CTRL) & DES_CTRL_CONTEXT) == 0)             
     523                    ;----------------------------------------------------------------------
     524 0000008a 9800              LDR       A1, [SP, #0]          ; [DPU_V7M3_PIPE] |213|  ; [ORIG 16-BIT INS]
     525 0000008c 6A00              LDR       A1, [A1, #32]         ; [DPU_V7M3_PIPE] |213|  ; [ORIG 16-BIT INS]
     526 0000008e 0800              LSRS      A1, A1, #32           ; [DPU_V7M3_PIPE] |213|  ; [ORIG 16-BIT INS]
     527 00000090 D201              BCS       ||$C$L3||             ; [DPU_V7M3_PIPE] |213|  ; [ORIG 16-BIT INS]
     528                            ; BRANCHCC OCCURS {||$C$L3||}    ; [] |213| 
     529                    ;* --------------------------------------------------------------------------*
     530                            .dwpsn  file "../driverlib/des.c",line 215,column 9,is_stmt,isa 1
     531                    ;----------------------------------------------------------------------
     532                    ; 215 | return(false);                                                         
     533                    ; 218 | //                                                                     
     534                    ; 219 | // Write the initialization vector registers.                          
     535                    ; 220 | //                                                                     
     536                    ;----------------------------------------------------------------------
     537 00000092 2000              MOVS      A1, #0                ; [DPU_V7M3_PIPE] |215|  ; [ORIG 16-BIT INS]
     538 00000094 E008              B         ||$C$L4||             ; [DPU_V7M3_PIPE] |215|  ; [ORIG 16-BIT INS]
     539                            ; BRANCH OCCURS {||$C$L4||}      ; [] |215| 
     540                    ;* --------------------------------------------------------------------------*
     541 00000096           ||$C$L3||:    
     542                            .dwpsn  file "../driverlib/des.c",line 221,column 5,is_stmt,isa 1
     543                    ;----------------------------------------------------------------------
     544                    ; 221 | HWREG(ui32Base + DES_O_IV_L) = pui32IVdata[0];                         
     545                    ;----------------------------------------------------------------------
     546 00000096 9801              LDR       A1, [SP, #4]          ; [DPU_V7M3_PIPE] |221|  ; [ORIG 16-BIT INS]
     547 00000098 9900              LDR       A2, [SP, #0]          ; [DPU_V7M3_PIPE] |221|  ; [ORIG 16-BIT INS]
     548 0000009a 6800              LDR       A1, [A1, #0]          ; [DPU_V7M3_PIPE] |221|  ; [ORIG 16-BIT INS]
     549 0000009c 6188              STR       A1, [A2, #24]         ; [DPU_V7M3_PIPE] |221|  ; [ORIG 16-BIT INS]
     550                            .dwpsn  file "../driverlib/des.c",line 222,column 5,is_stmt,isa 1
TI ARM Assembler Unix v18.1.1 Fri Jul  3 20:08:23 2020

Tools Copyright (c) 1996-2017 Texas Instruments Incorporated
des.asm                                                              PAGE   11

     551                    ;----------------------------------------------------------------------
     552                    ; 222 | HWREG(ui32Base + DES_O_IV_H) = pui32IVdata[1];                         
     553                    ; 224 | //                                                                     
     554                    ; 225 | // Return true to indicate the write was successful.                   
     555                    ; 226 | //                                                                     
     556                    ;----------------------------------------------------------------------
     557 0000009e 9801              LDR       A1, [SP, #4]          ; [DPU_V7M3_PIPE] |222|  ; [ORIG 16-BIT INS]
     558 000000a0 9900              LDR       A2, [SP, #0]          ; [DPU_V7M3_PIPE] |222|  ; [ORIG 16-BIT INS]
     559 000000a2 6840              LDR       A1, [A1, #4]          ; [DPU_V7M3_PIPE] |222|  ; [ORIG 16-BIT INS]
     560 000000a4 61C8              STR       A1, [A2, #28]         ; [DPU_V7M3_PIPE] |222|  ; [ORIG 16-BIT INS]
     561                            .dwpsn  file "../driverlib/des.c",line 227,column 5,is_stmt,isa 1
     562                    ;----------------------------------------------------------------------
     563                    ; 227 | return(true);                                                          
     564                    ;----------------------------------------------------------------------
     565 000000a6 2001              MOVS      A1, #1                ; [DPU_V7M3_PIPE] |227|  ; [ORIG 16-BIT INS]
     566                    ;* --------------------------------------------------------------------------*
     567 000000a8           ||$C$L4||:    
     568                            .dwpsn  file "../driverlib/des.c",line 228,column 1,is_stmt,isa 1
     569 000000a8 B002              ADD       SP, SP, #8            ; [DPU_V7M3_PIPE]  ; [ORIG 16-BIT INS]
     570                            .dwcfi  cfa_offset, 0
     571                    $C$DW$31        .dwtag  DW_TAG_TI_branch
     572                            .dwattr $C$DW$31, DW_AT_low_pc(0x00)
     573                            .dwattr $C$DW$31, DW_AT_TI_return
     574                    
     575 000000aa 4770              BX        LR                    ; [DPU_V7M3_PIPE]  ; [ORIG 16-BIT INS]
     576                            ; BRANCH OCCURS                  ; [] 
     577                            .dwattr $C$DW$26, DW_AT_TI_end_file("../driverlib/des.c")
     578                            .dwattr $C$DW$26, DW_AT_TI_end_line(0xe4)
     579                            .dwattr $C$DW$26, DW_AT_TI_end_column(0x01)
     580                            .dwendentry
     581                            .dwendtag $C$DW$26
     582                    
     583 000000ac                   .sect   ".text"
     584                            .clink
     585                            .thumbfunc DESLengthSet
     586 000000ac                   .thumb
     587                            .global DESLengthSet
     588                    
     589                    $C$DW$32        .dwtag  DW_TAG_subprogram
     590                            .dwattr $C$DW$32, DW_AT_name("DESLengthSet")
     591                            .dwattr $C$DW$32, DW_AT_low_pc(DESLengthSet)
     592                            .dwattr $C$DW$32, DW_AT_high_pc(0x00)
     593                            .dwattr $C$DW$32, DW_AT_TI_symbol_name("DESLengthSet")
     594                            .dwattr $C$DW$32, DW_AT_external
     595                            .dwattr $C$DW$32, DW_AT_TI_begin_file("../driverlib/des.c")
     596                            .dwattr $C$DW$32, DW_AT_TI_begin_line(0xf7)
     597                            .dwattr $C$DW$32, DW_AT_TI_begin_column(0x01)
     598                            .dwattr $C$DW$32, DW_AT_decl_file("../driverlib/des.c")
     599                            .dwattr $C$DW$32, DW_AT_decl_line(0xf7)
     600                            .dwattr $C$DW$32, DW_AT_decl_column(0x01)
     601                            .dwattr $C$DW$32, DW_AT_TI_max_frame_size(0x08)
     602                            .dwpsn  file "../driverlib/des.c",line 248,column 1,is_stmt,address DESLengthSet,isa 1
     603                    
     604                            .dwfde $C$DW$CIE, DESLengthSet
     605                    $C$DW$33        .dwtag  DW_TAG_formal_parameter
TI ARM Assembler Unix v18.1.1 Fri Jul  3 20:08:23 2020

Tools Copyright (c) 1996-2017 Texas Instruments Incorporated
des.asm                                                              PAGE   12

     606                            .dwattr $C$DW$33, DW_AT_name("ui32Base")
     607                            .dwattr $C$DW$33, DW_AT_TI_symbol_name("ui32Base")
     608                            .dwattr $C$DW$33, DW_AT_type(*$C$DW$T$27)
     609                            .dwattr $C$DW$33, DW_AT_location[DW_OP_reg0]
     610                    
     611                    $C$DW$34        .dwtag  DW_TAG_formal_parameter
     612                            .dwattr $C$DW$34, DW_AT_name("ui32Length")
     613                            .dwattr $C$DW$34, DW_AT_TI_symbol_name("ui32Length")
     614                            .dwattr $C$DW$34, DW_AT_type(*$C$DW$T$27)
     615                            .dwattr $C$DW$34, DW_AT_location[DW_OP_reg1]
     616                    
     617                    ;----------------------------------------------------------------------
     618                    ; 247 | DESLengthSet(uint32_t ui32Base, uint32_t ui32Length)                   
     619                    ;----------------------------------------------------------------------
     620                    
     621                    ;*****************************************************************************
     622                    ;* FUNCTION NAME: DESLengthSet                                               *
     623                    ;*                                                                           *
     624                    ;*   Regs Modified     : A1,A2,SP                                            *
     625                    ;*   Regs Used         : A1,A2,SP,LR                                         *
     626                    ;*   Local Frame Size  : 0 Args + 8 Auto + 0 Save = 8 byte                   *
     627                    ;*****************************************************************************
     628 000000ac           DESLengthSet:
     629                    ;* --------------------------------------------------------------------------*
     630                            .dwcfi  cfa_offset, 0
     631 000000ac 0D08F1AD          SUB       SP, SP, #8            ; [DPU_V7M3_PIPE]  ; [KEEP 32-BIT INS]
     632                            .dwcfi  cfa_offset, 8
     633                    $C$DW$35        .dwtag  DW_TAG_variable
     634                            .dwattr $C$DW$35, DW_AT_name("ui32Base")
     635                            .dwattr $C$DW$35, DW_AT_TI_symbol_name("ui32Base")
     636                            .dwattr $C$DW$35, DW_AT_type(*$C$DW$T$27)
     637                            .dwattr $C$DW$35, DW_AT_location[DW_OP_breg13 0]
     638                    
     639                    $C$DW$36        .dwtag  DW_TAG_variable
     640                            .dwattr $C$DW$36, DW_AT_name("ui32Length")
     641                            .dwattr $C$DW$36, DW_AT_TI_symbol_name("ui32Length")
     642                            .dwattr $C$DW$36, DW_AT_type(*$C$DW$T$27)
     643                            .dwattr $C$DW$36, DW_AT_location[DW_OP_breg13 4]
     644                    
     645                    ;----------------------------------------------------------------------
     646                    ; 249 | //                                                                     
     647                    ; 250 | // Check the arguments.                                                
     648                    ; 251 | //                                                                     
     649                    ; 252 | ASSERT(ui32Base == DES_BASE);                                          
     650                    ; 254 | //                                                                     
     651                    ; 255 | // Write the length register.                                          
     652                    ; 256 | //                                                                     
     653                    ;----------------------------------------------------------------------
     654 000000b0 9101              STR       A2, [SP, #4]          ; [DPU_V7M3_PIPE] |248|  ; [ORIG 16-BIT INS]
     655 000000b2 9000              STR       A1, [SP, #0]          ; [DPU_V7M3_PIPE] |248|  ; [ORIG 16-BIT INS]
     656                            .dwpsn  file "../driverlib/des.c",line 257,column 5,is_stmt,isa 1
     657                    ;----------------------------------------------------------------------
     658                    ; 257 | HWREG(ui32Base + DES_O_LENGTH) = ui32Length;                           
     659                    ;----------------------------------------------------------------------
     660 000000b4 9801              LDR       A1, [SP, #4]          ; [DPU_V7M3_PIPE] |257|  ; [ORIG 16-BIT INS]
TI ARM Assembler Unix v18.1.1 Fri Jul  3 20:08:23 2020

Tools Copyright (c) 1996-2017 Texas Instruments Incorporated
des.asm                                                              PAGE   13

     661 000000b6 9900              LDR       A2, [SP, #0]          ; [DPU_V7M3_PIPE] |257|  ; [ORIG 16-BIT INS]
     662 000000b8 6248              STR       A1, [A2, #36]         ; [DPU_V7M3_PIPE] |257|  ; [ORIG 16-BIT INS]
     663                            .dwpsn  file "../driverlib/des.c",line 258,column 1,is_stmt,isa 1
     664 000000ba B002              ADD       SP, SP, #8            ; [DPU_V7M3_PIPE]  ; [ORIG 16-BIT INS]
     665                            .dwcfi  cfa_offset, 0
     666                    $C$DW$37        .dwtag  DW_TAG_TI_branch
     667                            .dwattr $C$DW$37, DW_AT_low_pc(0x00)
     668                            .dwattr $C$DW$37, DW_AT_TI_return
     669                    
     670 000000bc 4770              BX        LR                    ; [DPU_V7M3_PIPE]  ; [ORIG 16-BIT INS]
     671                            ; BRANCH OCCURS                  ; [] 
     672                            .dwattr $C$DW$32, DW_AT_TI_end_file("../driverlib/des.c")
     673                            .dwattr $C$DW$32, DW_AT_TI_end_line(0x102)
     674                            .dwattr $C$DW$32, DW_AT_TI_end_column(0x01)
     675                            .dwendentry
     676                            .dwendtag $C$DW$32
     677                    
     678 000000be                   .sect   ".text"
     679                            .clink
     680                            .thumbfunc DESDataReadNonBlocking
     681 000000be                   .thumb
     682                            .global DESDataReadNonBlocking
     683                    
     684                    $C$DW$38        .dwtag  DW_TAG_subprogram
     685                            .dwattr $C$DW$38, DW_AT_name("DESDataReadNonBlocking")
     686                            .dwattr $C$DW$38, DW_AT_low_pc(DESDataReadNonBlocking)
     687                            .dwattr $C$DW$38, DW_AT_high_pc(0x00)
     688                            .dwattr $C$DW$38, DW_AT_TI_symbol_name("DESDataReadNonBlocking")
     689                            .dwattr $C$DW$38, DW_AT_external
     690                            .dwattr $C$DW$38, DW_AT_type(*$C$DW$T$111)
     691                            .dwattr $C$DW$38, DW_AT_TI_begin_file("../driverlib/des.c")
     692                            .dwattr $C$DW$38, DW_AT_TI_begin_line(0x112)
     693                            .dwattr $C$DW$38, DW_AT_TI_begin_column(0x01)
     694                            .dwattr $C$DW$38, DW_AT_decl_file("../driverlib/des.c")
     695                            .dwattr $C$DW$38, DW_AT_decl_line(0x112)
     696                            .dwattr $C$DW$38, DW_AT_decl_column(0x01)
     697                            .dwattr $C$DW$38, DW_AT_TI_max_frame_size(0x08)
     698                            .dwpsn  file "../driverlib/des.c",line 275,column 1,is_stmt,address DESDataReadNonBlocking,isa
     699                    
     700                            .dwfde $C$DW$CIE, DESDataReadNonBlocking
     701                    $C$DW$39        .dwtag  DW_TAG_formal_parameter
     702                            .dwattr $C$DW$39, DW_AT_name("ui32Base")
     703                            .dwattr $C$DW$39, DW_AT_TI_symbol_name("ui32Base")
     704                            .dwattr $C$DW$39, DW_AT_type(*$C$DW$T$27)
     705                            .dwattr $C$DW$39, DW_AT_location[DW_OP_reg0]
     706                    
     707                    $C$DW$40        .dwtag  DW_TAG_formal_parameter
     708                            .dwattr $C$DW$40, DW_AT_name("pui32Dest")
     709                            .dwattr $C$DW$40, DW_AT_TI_symbol_name("pui32Dest")
     710                            .dwattr $C$DW$40, DW_AT_type(*$C$DW$T$33)
     711                            .dwattr $C$DW$40, DW_AT_location[DW_OP_reg1]
     712                    
     713                    ;----------------------------------------------------------------------
     714                    ; 274 | DESDataReadNonBlocking(uint32_t ui32Base, uint32_t *pui32Dest)         
     715                    ;----------------------------------------------------------------------
TI ARM Assembler Unix v18.1.1 Fri Jul  3 20:08:23 2020

Tools Copyright (c) 1996-2017 Texas Instruments Incorporated
des.asm                                                              PAGE   14

     716                    
     717                    ;*****************************************************************************
     718                    ;* FUNCTION NAME: DESDataReadNonBlocking                                     *
     719                    ;*                                                                           *
     720                    ;*   Regs Modified     : A1,A2,SP,SR                                         *
     721                    ;*   Regs Used         : A1,A2,SP,LR,SR                                      *
     722                    ;*   Local Frame Size  : 0 Args + 8 Auto + 0 Save = 8 byte                   *
     723                    ;*****************************************************************************
     724 000000be           DESDataReadNonBlocking:
     725                    ;* --------------------------------------------------------------------------*
     726                            .dwcfi  cfa_offset, 0
     727 000000be 0D08F1AD          SUB       SP, SP, #8            ; [DPU_V7M3_PIPE]  ; [KEEP 32-BIT INS]
     728                            .dwcfi  cfa_offset, 8
     729                    $C$DW$41        .dwtag  DW_TAG_variable
     730                            .dwattr $C$DW$41, DW_AT_name("ui32Base")
     731                            .dwattr $C$DW$41, DW_AT_TI_symbol_name("ui32Base")
     732                            .dwattr $C$DW$41, DW_AT_type(*$C$DW$T$27)
     733                            .dwattr $C$DW$41, DW_AT_location[DW_OP_breg13 0]
     734                    
     735                    $C$DW$42        .dwtag  DW_TAG_variable
     736                            .dwattr $C$DW$42, DW_AT_name("pui32Dest")
     737                            .dwattr $C$DW$42, DW_AT_TI_symbol_name("pui32Dest")
     738                            .dwattr $C$DW$42, DW_AT_type(*$C$DW$T$33)
     739                            .dwattr $C$DW$42, DW_AT_location[DW_OP_breg13 4]
     740                    
     741                    ;----------------------------------------------------------------------
     742                    ; 276 | //                                                                     
     743                    ; 277 | // Check the arguments.                                                
     744                    ; 278 | //                                                                     
     745                    ; 279 | ASSERT(ui32Base == DES_BASE);                                          
     746                    ; 281 | //                                                                     
     747                    ; 282 | // Check to see if the data is ready to be read.                       
     748                    ; 283 | //                                                                     
     749                    ;----------------------------------------------------------------------
     750 000000c2 9101              STR       A2, [SP, #4]          ; [DPU_V7M3_PIPE] |275|  ; [ORIG 16-BIT INS]
     751 000000c4 9000              STR       A1, [SP, #0]          ; [DPU_V7M3_PIPE] |275|  ; [ORIG 16-BIT INS]
     752                            .dwpsn  file "../driverlib/des.c",line 284,column 5,is_stmt,isa 1
     753                    ;----------------------------------------------------------------------
     754                    ; 284 | if((DES_CTRL_OUTPUT_READY & (HWREG(ui32Base + DES_O_CTRL))) == 0)      
     755                    ;----------------------------------------------------------------------
     756 000000c6 9800              LDR       A1, [SP, #0]          ; [DPU_V7M3_PIPE] |284|  ; [ORIG 16-BIT INS]
     757 000000c8 6A00              LDR       A1, [A1, #32]         ; [DPU_V7M3_PIPE] |284|  ; [ORIG 16-BIT INS]
     758 000000ca 0840              LSRS      A1, A1, #1            ; [DPU_V7M3_PIPE] |284|  ; [ORIG 16-BIT INS]
     759 000000cc D201              BCS       ||$C$L5||             ; [DPU_V7M3_PIPE] |284|  ; [ORIG 16-BIT INS]
     760                            ; BRANCHCC OCCURS {||$C$L5||}    ; [] |284| 
     761                    ;* --------------------------------------------------------------------------*
     762                            .dwpsn  file "../driverlib/des.c",line 286,column 9,is_stmt,isa 1
     763                    ;----------------------------------------------------------------------
     764                    ; 286 | return(false);                                                         
     765                    ; 289 | //                                                                     
     766                    ; 290 | // Read two words of data from the data registers.                     
     767                    ; 291 | //                                                                     
     768                    ;----------------------------------------------------------------------
     769 000000ce 2000              MOVS      A1, #0                ; [DPU_V7M3_PIPE] |286|  ; [ORIG 16-BIT INS]
     770 000000d0 E008              B         ||$C$L6||             ; [DPU_V7M3_PIPE] |286|  ; [ORIG 16-BIT INS]
TI ARM Assembler Unix v18.1.1 Fri Jul  3 20:08:23 2020

Tools Copyright (c) 1996-2017 Texas Instruments Incorporated
des.asm                                                              PAGE   15

     771                            ; BRANCH OCCURS {||$C$L6||}      ; [] |286| 
     772                    ;* --------------------------------------------------------------------------*
     773 000000d2           ||$C$L5||:    
     774                            .dwpsn  file "../driverlib/des.c",line 292,column 5,is_stmt,isa 1
     775                    ;----------------------------------------------------------------------
     776                    ; 292 | pui32Dest[0] = HWREG(DES_BASE + DES_O_DATA_L);                         
     777                    ;----------------------------------------------------------------------
     778 000000d2 487D              LDR       A1, $C$CON1           ; [DPU_V7M3_PIPE] |292|  ; [ORIG 16-BIT INS]
     779 000000d4 9901              LDR       A2, [SP, #4]          ; [DPU_V7M3_PIPE] |292|  ; [ORIG 16-BIT INS]
     780 000000d6 6800              LDR       A1, [A1, #0]          ; [DPU_V7M3_PIPE] |292|  ; [ORIG 16-BIT INS]
     781 000000d8 6008              STR       A1, [A2, #0]          ; [DPU_V7M3_PIPE] |292|  ; [ORIG 16-BIT INS]
     782                            .dwpsn  file "../driverlib/des.c",line 293,column 5,is_stmt,isa 1
     783                    ;----------------------------------------------------------------------
     784                    ; 293 | pui32Dest[1] = HWREG(DES_BASE + DES_O_DATA_H);                         
     785                    ; 295 | //                                                                     
     786                    ; 296 | // Return true to indicate a successful write.                         
     787                    ; 297 | //                                                                     
     788                    ;----------------------------------------------------------------------
     789 000000da 487C              LDR       A1, $C$CON2           ; [DPU_V7M3_PIPE] |293|  ; [ORIG 16-BIT INS]
     790 000000dc 9901              LDR       A2, [SP, #4]          ; [DPU_V7M3_PIPE] |293|  ; [ORIG 16-BIT INS]
     791 000000de 6800              LDR       A1, [A1, #0]          ; [DPU_V7M3_PIPE] |293|  ; [ORIG 16-BIT INS]
     792 000000e0 6048              STR       A1, [A2, #4]          ; [DPU_V7M3_PIPE] |293|  ; [ORIG 16-BIT INS]
     793                            .dwpsn  file "../driverlib/des.c",line 298,column 5,is_stmt,isa 1
     794                    ;----------------------------------------------------------------------
     795                    ; 298 | return(true);                                                          
     796                    ;----------------------------------------------------------------------
     797 000000e2 2001              MOVS      A1, #1                ; [DPU_V7M3_PIPE] |298|  ; [ORIG 16-BIT INS]
     798                    ;* --------------------------------------------------------------------------*
     799 000000e4           ||$C$L6||:    
     800                            .dwpsn  file "../driverlib/des.c",line 299,column 1,is_stmt,isa 1
     801 000000e4 B002              ADD       SP, SP, #8            ; [DPU_V7M3_PIPE]  ; [ORIG 16-BIT INS]
     802                            .dwcfi  cfa_offset, 0
     803                    $C$DW$43        .dwtag  DW_TAG_TI_branch
     804                            .dwattr $C$DW$43, DW_AT_low_pc(0x00)
     805                            .dwattr $C$DW$43, DW_AT_TI_return
     806                    
     807 000000e6 4770              BX        LR                    ; [DPU_V7M3_PIPE]  ; [ORIG 16-BIT INS]
     808                            ; BRANCH OCCURS                  ; [] 
     809                            .dwattr $C$DW$38, DW_AT_TI_end_file("../driverlib/des.c")
     810                            .dwattr $C$DW$38, DW_AT_TI_end_line(0x12b)
     811                            .dwattr $C$DW$38, DW_AT_TI_end_column(0x01)
     812                            .dwendentry
     813                            .dwendtag $C$DW$38
     814                    
     815 000000e8                   .sect   ".text"
     816                            .clink
     817                            .thumbfunc DESDataRead
     818 000000e8                   .thumb
     819                            .global DESDataRead
     820                    
     821                    $C$DW$44        .dwtag  DW_TAG_subprogram
     822                            .dwattr $C$DW$44, DW_AT_name("DESDataRead")
     823                            .dwattr $C$DW$44, DW_AT_low_pc(DESDataRead)
     824                            .dwattr $C$DW$44, DW_AT_high_pc(0x00)
     825                            .dwattr $C$DW$44, DW_AT_TI_symbol_name("DESDataRead")
TI ARM Assembler Unix v18.1.1 Fri Jul  3 20:08:23 2020

Tools Copyright (c) 1996-2017 Texas Instruments Incorporated
des.asm                                                              PAGE   16

     826                            .dwattr $C$DW$44, DW_AT_external
     827                            .dwattr $C$DW$44, DW_AT_TI_begin_file("../driverlib/des.c")
     828                            .dwattr $C$DW$44, DW_AT_TI_begin_line(0x13c)
     829                            .dwattr $C$DW$44, DW_AT_TI_begin_column(0x01)
     830                            .dwattr $C$DW$44, DW_AT_decl_file("../driverlib/des.c")
     831                            .dwattr $C$DW$44, DW_AT_decl_line(0x13c)
     832                            .dwattr $C$DW$44, DW_AT_decl_column(0x01)
     833                            .dwattr $C$DW$44, DW_AT_TI_max_frame_size(0x08)
     834                            .dwpsn  file "../driverlib/des.c",line 317,column 1,is_stmt,address DESDataRead,isa 1
     835                    
     836                            .dwfde $C$DW$CIE, DESDataRead
     837                    $C$DW$45        .dwtag  DW_TAG_formal_parameter
     838                            .dwattr $C$DW$45, DW_AT_name("ui32Base")
     839                            .dwattr $C$DW$45, DW_AT_TI_symbol_name("ui32Base")
     840                            .dwattr $C$DW$45, DW_AT_type(*$C$DW$T$27)
     841                            .dwattr $C$DW$45, DW_AT_location[DW_OP_reg0]
     842                    
     843                    $C$DW$46        .dwtag  DW_TAG_formal_parameter
     844                            .dwattr $C$DW$46, DW_AT_name("pui32Dest")
     845                            .dwattr $C$DW$46, DW_AT_TI_symbol_name("pui32Dest")
     846                            .dwattr $C$DW$46, DW_AT_type(*$C$DW$T$33)
     847                            .dwattr $C$DW$46, DW_AT_location[DW_OP_reg1]
     848                    
     849                    ;----------------------------------------------------------------------
     850                    ; 316 | DESDataRead(uint32_t ui32Base, uint32_t *pui32Dest)                    
     851                    ;----------------------------------------------------------------------
     852                    
     853                    ;*****************************************************************************
     854                    ;* FUNCTION NAME: DESDataRead                                                *
     855                    ;*                                                                           *
     856                    ;*   Regs Modified     : A1,A2,SP,SR                                         *
     857                    ;*   Regs Used         : A1,A2,SP,LR,SR                                      *
     858                    ;*   Local Frame Size  : 0 Args + 8 Auto + 0 Save = 8 byte                   *
     859                    ;*****************************************************************************
     860 000000e8           DESDataRead:
     861                    ;* --------------------------------------------------------------------------*
     862                            .dwcfi  cfa_offset, 0
     863 000000e8 0D08F1AD          SUB       SP, SP, #8            ; [DPU_V7M3_PIPE]  ; [KEEP 32-BIT INS]
     864                            .dwcfi  cfa_offset, 8
     865                    $C$DW$47        .dwtag  DW_TAG_variable
     866                            .dwattr $C$DW$47, DW_AT_name("ui32Base")
     867                            .dwattr $C$DW$47, DW_AT_TI_symbol_name("ui32Base")
     868                            .dwattr $C$DW$47, DW_AT_type(*$C$DW$T$27)
     869                            .dwattr $C$DW$47, DW_AT_location[DW_OP_breg13 0]
     870                    
     871                    $C$DW$48        .dwtag  DW_TAG_variable
     872                            .dwattr $C$DW$48, DW_AT_name("pui32Dest")
     873                            .dwattr $C$DW$48, DW_AT_TI_symbol_name("pui32Dest")
     874                            .dwattr $C$DW$48, DW_AT_type(*$C$DW$T$33)
     875                            .dwattr $C$DW$48, DW_AT_location[DW_OP_breg13 4]
     876                    
     877                    ;----------------------------------------------------------------------
     878                    ; 318 | //                                                                     
     879                    ; 319 | // Check the arguments.                                                
     880                    ; 320 | //                                                                     
TI ARM Assembler Unix v18.1.1 Fri Jul  3 20:08:23 2020

Tools Copyright (c) 1996-2017 Texas Instruments Incorporated
des.asm                                                              PAGE   17

     881                    ; 321 | ASSERT(ui32Base == DES_BASE);                                          
     882                    ; 323 | //                                                                     
     883                    ; 324 | // Wait for data output to be ready.                                   
     884                    ; 325 | //                                                                     
     885                    ;----------------------------------------------------------------------
     886 000000ec 9101              STR       A2, [SP, #4]          ; [DPU_V7M3_PIPE] |317|  ; [ORIG 16-BIT INS]
     887 000000ee 9000              STR       A1, [SP, #0]          ; [DPU_V7M3_PIPE] |317|  ; [ORIG 16-BIT INS]
     888                            .dwpsn  file "../driverlib/des.c",line 326,column 5,is_stmt,isa 1
     889                    ;----------------------------------------------------------------------
     890                    ; 326 | while((HWREG(ui32Base + DES_O_CTRL) & DES_CTRL_OUTPUT_READY) == 0)     
     891                    ;----------------------------------------------------------------------
     892                    ;* --------------------------------------------------------------------------*
     893                    ;*   BEGIN LOOP ||$C$L7||
     894                    ;*
     895                    ;*   Loop source line                : 326
     896                    ;*   Loop closing brace source line  : 328
     897                    ;*   Known Minimum Trip Count        : 1
     898                    ;*   Known Maximum Trip Count        : 4294967295
     899                    ;*   Known Max Trip Count Factor     : 1
     900                    ;* --------------------------------------------------------------------------*
     901 000000f0           ||$C$L7||:    
     902                            .dwpsn  file "../driverlib/des.c",line 326,column 11,is_stmt,isa 1
     903                    ;----------------------------------------------------------------------
     904                    ; 330 | //                                                                     
     905                    ; 331 | // Read two words of data from the data registers.                     
     906                    ; 332 | //                                                                     
     907                    ;----------------------------------------------------------------------
     908 000000f0 9800              LDR       A1, [SP, #0]          ; [DPU_V7M3_PIPE] |326|  ; [ORIG 16-BIT INS]
     909 000000f2 6A00              LDR       A1, [A1, #32]         ; [DPU_V7M3_PIPE] |326|  ; [ORIG 16-BIT INS]
     910 000000f4 0840              LSRS      A1, A1, #1            ; [DPU_V7M3_PIPE] |326|  ; [ORIG 16-BIT INS]
     911 000000f6 D3FB              BCC       ||$C$L7||             ; [DPU_V7M3_PIPE] |326|  ; [ORIG 16-BIT INS]
     912                            ; BRANCHCC OCCURS {||$C$L7||}    ; [] |326| 
     913                    ;* --------------------------------------------------------------------------*
     914                            .dwpsn  file "../driverlib/des.c",line 333,column 5,is_stmt,isa 1
     915                    ;----------------------------------------------------------------------
     916                    ; 333 | pui32Dest[0] = HWREG(DES_BASE + DES_O_DATA_L);                         
     917                    ;----------------------------------------------------------------------
     918 000000f8 4873              LDR       A1, $C$CON1           ; [DPU_V7M3_PIPE] |333|  ; [ORIG 16-BIT INS]
     919 000000fa 9901              LDR       A2, [SP, #4]          ; [DPU_V7M3_PIPE] |333|  ; [ORIG 16-BIT INS]
     920 000000fc 6800              LDR       A1, [A1, #0]          ; [DPU_V7M3_PIPE] |333|  ; [ORIG 16-BIT INS]
     921 000000fe 6008              STR       A1, [A2, #0]          ; [DPU_V7M3_PIPE] |333|  ; [ORIG 16-BIT INS]
     922                            .dwpsn  file "../driverlib/des.c",line 334,column 5,is_stmt,isa 1
     923                    ;----------------------------------------------------------------------
     924                    ; 334 | pui32Dest[1] = HWREG(DES_BASE + DES_O_DATA_H);                         
     925                    ;----------------------------------------------------------------------
     926 00000100 4872              LDR       A1, $C$CON2           ; [DPU_V7M3_PIPE] |334|  ; [ORIG 16-BIT INS]
     927 00000102 9901              LDR       A2, [SP, #4]          ; [DPU_V7M3_PIPE] |334|  ; [ORIG 16-BIT INS]
     928 00000104 6800              LDR       A1, [A1, #0]          ; [DPU_V7M3_PIPE] |334|  ; [ORIG 16-BIT INS]
     929 00000106 6048              STR       A1, [A2, #4]          ; [DPU_V7M3_PIPE] |334|  ; [ORIG 16-BIT INS]
     930                            .dwpsn  file "../driverlib/des.c",line 335,column 1,is_stmt,isa 1
     931 00000108 B002              ADD       SP, SP, #8            ; [DPU_V7M3_PIPE]  ; [ORIG 16-BIT INS]
     932                            .dwcfi  cfa_offset, 0
     933                    $C$DW$49        .dwtag  DW_TAG_TI_branch
     934                            .dwattr $C$DW$49, DW_AT_low_pc(0x00)
     935                            .dwattr $C$DW$49, DW_AT_TI_return
TI ARM Assembler Unix v18.1.1 Fri Jul  3 20:08:23 2020

Tools Copyright (c) 1996-2017 Texas Instruments Incorporated
des.asm                                                              PAGE   18

     936                    
     937 0000010a 4770              BX        LR                    ; [DPU_V7M3_PIPE]  ; [ORIG 16-BIT INS]
     938                            ; BRANCH OCCURS                  ; [] 
     939                            .dwattr $C$DW$44, DW_AT_TI_end_file("../driverlib/des.c")
     940                            .dwattr $C$DW$44, DW_AT_TI_end_line(0x14f)
     941                            .dwattr $C$DW$44, DW_AT_TI_end_column(0x01)
     942                            .dwendentry
     943                            .dwendtag $C$DW$44
     944                    
     945 0000010c                   .sect   ".text"
     946                            .clink
     947                            .thumbfunc DESDataWriteNonBlocking
     948 0000010c                   .thumb
     949                            .global DESDataWriteNonBlocking
     950                    
     951                    $C$DW$50        .dwtag  DW_TAG_subprogram
     952                            .dwattr $C$DW$50, DW_AT_name("DESDataWriteNonBlocking")
     953                            .dwattr $C$DW$50, DW_AT_low_pc(DESDataWriteNonBlocking)
     954                            .dwattr $C$DW$50, DW_AT_high_pc(0x00)
     955                            .dwattr $C$DW$50, DW_AT_TI_symbol_name("DESDataWriteNonBlocking")
     956                            .dwattr $C$DW$50, DW_AT_external
     957                            .dwattr $C$DW$50, DW_AT_type(*$C$DW$T$111)
     958                            .dwattr $C$DW$50, DW_AT_TI_begin_file("../driverlib/des.c")
     959                            .dwattr $C$DW$50, DW_AT_TI_begin_line(0x15f)
     960                            .dwattr $C$DW$50, DW_AT_TI_begin_column(0x01)
     961                            .dwattr $C$DW$50, DW_AT_decl_file("../driverlib/des.c")
     962                            .dwattr $C$DW$50, DW_AT_decl_line(0x15f)
     963                            .dwattr $C$DW$50, DW_AT_decl_column(0x01)
     964                            .dwattr $C$DW$50, DW_AT_TI_max_frame_size(0x08)
     965                            .dwpsn  file "../driverlib/des.c",line 352,column 1,is_stmt,address DESDataWriteNonBlocking,is
     966                    
     967                            .dwfde $C$DW$CIE, DESDataWriteNonBlocking
     968                    $C$DW$51        .dwtag  DW_TAG_formal_parameter
     969                            .dwattr $C$DW$51, DW_AT_name("ui32Base")
     970                            .dwattr $C$DW$51, DW_AT_TI_symbol_name("ui32Base")
     971                            .dwattr $C$DW$51, DW_AT_type(*$C$DW$T$27)
     972                            .dwattr $C$DW$51, DW_AT_location[DW_OP_reg0]
     973                    
     974                    $C$DW$52        .dwtag  DW_TAG_formal_parameter
     975                            .dwattr $C$DW$52, DW_AT_name("pui32Src")
     976                            .dwattr $C$DW$52, DW_AT_TI_symbol_name("pui32Src")
     977                            .dwattr $C$DW$52, DW_AT_type(*$C$DW$T$33)
     978                            .dwattr $C$DW$52, DW_AT_location[DW_OP_reg1]
     979                    
     980                    ;----------------------------------------------------------------------
     981                    ; 351 | DESDataWriteNonBlocking(uint32_t ui32Base, uint32_t *pui32Src)         
     982                    ;----------------------------------------------------------------------
     983                    
     984                    ;*****************************************************************************
     985                    ;* FUNCTION NAME: DESDataWriteNonBlocking                                    *
     986                    ;*                                                                           *
     987                    ;*   Regs Modified     : A1,A2,SP,SR                                         *
     988                    ;*   Regs Used         : A1,A2,SP,LR,SR                                      *
     989                    ;*   Local Frame Size  : 0 Args + 8 Auto + 0 Save = 8 byte                   *
     990                    ;*****************************************************************************
TI ARM Assembler Unix v18.1.1 Fri Jul  3 20:08:23 2020

Tools Copyright (c) 1996-2017 Texas Instruments Incorporated
des.asm                                                              PAGE   19

     991 0000010c           DESDataWriteNonBlocking:
     992                    ;* --------------------------------------------------------------------------*
     993                            .dwcfi  cfa_offset, 0
     994 0000010c 0D08F1AD          SUB       SP, SP, #8            ; [DPU_V7M3_PIPE]  ; [KEEP 32-BIT INS]
     995                            .dwcfi  cfa_offset, 8
     996                    $C$DW$53        .dwtag  DW_TAG_variable
     997                            .dwattr $C$DW$53, DW_AT_name("ui32Base")
     998                            .dwattr $C$DW$53, DW_AT_TI_symbol_name("ui32Base")
     999                            .dwattr $C$DW$53, DW_AT_type(*$C$DW$T$27)
    1000                            .dwattr $C$DW$53, DW_AT_location[DW_OP_breg13 0]
    1001                    
    1002                    $C$DW$54        .dwtag  DW_TAG_variable
    1003                            .dwattr $C$DW$54, DW_AT_name("pui32Src")
    1004                            .dwattr $C$DW$54, DW_AT_TI_symbol_name("pui32Src")
    1005                            .dwattr $C$DW$54, DW_AT_type(*$C$DW$T$33)
    1006                            .dwattr $C$DW$54, DW_AT_location[DW_OP_breg13 4]
    1007                    
    1008                    ;----------------------------------------------------------------------
    1009                    ; 353 | //                                                                     
    1010                    ; 354 | // Check the arguments.                                                
    1011                    ; 355 | //                                                                     
    1012                    ; 356 | ASSERT(ui32Base == DES_BASE);                                          
    1013                    ; 358 | //                                                                     
    1014                    ; 359 | // Check if the DES module is ready to encrypt or decrypt data.  If it 
    1015                    ; 360 | // is not, return false.                                               
    1016                    ; 361 | //                                                                     
    1017                    ;----------------------------------------------------------------------
    1018 00000110 9101              STR       A2, [SP, #4]          ; [DPU_V7M3_PIPE] |352|  ; [ORIG 16-BIT INS]
    1019 00000112 9000              STR       A1, [SP, #0]          ; [DPU_V7M3_PIPE] |352|  ; [ORIG 16-BIT INS]
    1020                            .dwpsn  file "../driverlib/des.c",line 362,column 5,is_stmt,isa 1
    1021                    ;----------------------------------------------------------------------
    1022                    ; 362 | if(!(DES_CTRL_INPUT_READY & (HWREG(ui32Base + DES_O_CTRL))))           
    1023                    ;----------------------------------------------------------------------
    1024 00000114 9800              LDR       A1, [SP, #0]          ; [DPU_V7M3_PIPE] |362|  ; [ORIG 16-BIT INS]
    1025 00000116 6A00              LDR       A1, [A1, #32]         ; [DPU_V7M3_PIPE] |362|  ; [ORIG 16-BIT INS]
    1026 00000118 0880              LSRS      A1, A1, #2            ; [DPU_V7M3_PIPE] |362|  ; [ORIG 16-BIT INS]
    1027 0000011a D201              BCS       ||$C$L8||             ; [DPU_V7M3_PIPE] |362|  ; [ORIG 16-BIT INS]
    1028                            ; BRANCHCC OCCURS {||$C$L8||}    ; [] |362| 
    1029                    ;* --------------------------------------------------------------------------*
    1030                            .dwpsn  file "../driverlib/des.c",line 364,column 9,is_stmt,isa 1
    1031                    ;----------------------------------------------------------------------
    1032                    ; 364 | return(false);                                                         
    1033                    ; 367 | //                                                                     
    1034                    ; 368 | // Write the data.                                                     
    1035                    ; 369 | //                                                                     
    1036                    ;----------------------------------------------------------------------
    1037 0000011c 2000              MOVS      A1, #0                ; [DPU_V7M3_PIPE] |364|  ; [ORIG 16-BIT INS]
    1038 0000011e E008              B         ||$C$L9||             ; [DPU_V7M3_PIPE] |364|  ; [ORIG 16-BIT INS]
    1039                            ; BRANCH OCCURS {||$C$L9||}      ; [] |364| 
    1040                    ;* --------------------------------------------------------------------------*
    1041 00000120           ||$C$L8||:    
    1042                            .dwpsn  file "../driverlib/des.c",line 370,column 5,is_stmt,isa 1
    1043                    ;----------------------------------------------------------------------
    1044                    ; 370 | HWREG(DES_BASE + DES_O_DATA_L) = pui32Src[0];                          
    1045                    ;----------------------------------------------------------------------
TI ARM Assembler Unix v18.1.1 Fri Jul  3 20:08:23 2020

Tools Copyright (c) 1996-2017 Texas Instruments Incorporated
des.asm                                                              PAGE   20

    1046 00000120 9801              LDR       A1, [SP, #4]          ; [DPU_V7M3_PIPE] |370|  ; [ORIG 16-BIT INS]
    1047 00000122 4969              LDR       A2, $C$CON1           ; [DPU_V7M3_PIPE] |370|  ; [ORIG 16-BIT INS]
    1048 00000124 6800              LDR       A1, [A1, #0]          ; [DPU_V7M3_PIPE] |370|  ; [ORIG 16-BIT INS]
    1049 00000126 6008              STR       A1, [A2, #0]          ; [DPU_V7M3_PIPE] |370|  ; [ORIG 16-BIT INS]
    1050                            .dwpsn  file "../driverlib/des.c",line 371,column 5,is_stmt,isa 1
    1051                    ;----------------------------------------------------------------------
    1052                    ; 371 | HWREG(DES_BASE + DES_O_DATA_H) = pui32Src[1];                          
    1053                    ; 373 | //                                                                     
    1054                    ; 374 | // Return true to indicate a successful write.                         
    1055                    ; 375 | //                                                                     
    1056                    ;----------------------------------------------------------------------
    1057 00000128 9801              LDR       A1, [SP, #4]          ; [DPU_V7M3_PIPE] |371|  ; [ORIG 16-BIT INS]
    1058 0000012a 4968              LDR       A2, $C$CON2           ; [DPU_V7M3_PIPE] |371|  ; [ORIG 16-BIT INS]
    1059 0000012c 6840              LDR       A1, [A1, #4]          ; [DPU_V7M3_PIPE] |371|  ; [ORIG 16-BIT INS]
    1060 0000012e 6008              STR       A1, [A2, #0]          ; [DPU_V7M3_PIPE] |371|  ; [ORIG 16-BIT INS]
    1061                            .dwpsn  file "../driverlib/des.c",line 376,column 5,is_stmt,isa 1
    1062                    ;----------------------------------------------------------------------
    1063                    ; 376 | return(true);                                                          
    1064                    ;----------------------------------------------------------------------
    1065 00000130 2001              MOVS      A1, #1                ; [DPU_V7M3_PIPE] |376|  ; [ORIG 16-BIT INS]
    1066                    ;* --------------------------------------------------------------------------*
    1067 00000132           ||$C$L9||:    
    1068                            .dwpsn  file "../driverlib/des.c",line 377,column 1,is_stmt,isa 1
    1069 00000132 B002              ADD       SP, SP, #8            ; [DPU_V7M3_PIPE]  ; [ORIG 16-BIT INS]
    1070                            .dwcfi  cfa_offset, 0
    1071                    $C$DW$55        .dwtag  DW_TAG_TI_branch
    1072                            .dwattr $C$DW$55, DW_AT_low_pc(0x00)
    1073                            .dwattr $C$DW$55, DW_AT_TI_return
    1074                    
    1075 00000134 4770              BX        LR                    ; [DPU_V7M3_PIPE]  ; [ORIG 16-BIT INS]
    1076                            ; BRANCH OCCURS                  ; [] 
    1077                            .dwattr $C$DW$50, DW_AT_TI_end_file("../driverlib/des.c")
    1078                            .dwattr $C$DW$50, DW_AT_TI_end_line(0x179)
    1079                            .dwattr $C$DW$50, DW_AT_TI_end_column(0x01)
    1080                            .dwendentry
    1081                            .dwendtag $C$DW$50
    1082                    
    1083 00000136                   .sect   ".text"
    1084                            .clink
    1085                            .thumbfunc DESDataWrite
    1086 00000136                   .thumb
    1087                            .global DESDataWrite
    1088                    
    1089                    $C$DW$56        .dwtag  DW_TAG_subprogram
    1090                            .dwattr $C$DW$56, DW_AT_name("DESDataWrite")
    1091                            .dwattr $C$DW$56, DW_AT_low_pc(DESDataWrite)
    1092                            .dwattr $C$DW$56, DW_AT_high_pc(0x00)
    1093                            .dwattr $C$DW$56, DW_AT_TI_symbol_name("DESDataWrite")
    1094                            .dwattr $C$DW$56, DW_AT_external
    1095                            .dwattr $C$DW$56, DW_AT_TI_begin_file("../driverlib/des.c")
    1096                            .dwattr $C$DW$56, DW_AT_TI_begin_line(0x189)
    1097                            .dwattr $C$DW$56, DW_AT_TI_begin_column(0x01)
    1098                            .dwattr $C$DW$56, DW_AT_decl_file("../driverlib/des.c")
    1099                            .dwattr $C$DW$56, DW_AT_decl_line(0x189)
    1100                            .dwattr $C$DW$56, DW_AT_decl_column(0x01)
TI ARM Assembler Unix v18.1.1 Fri Jul  3 20:08:23 2020

Tools Copyright (c) 1996-2017 Texas Instruments Incorporated
des.asm                                                              PAGE   21

    1101                            .dwattr $C$DW$56, DW_AT_TI_max_frame_size(0x08)
    1102                            .dwpsn  file "../driverlib/des.c",line 394,column 1,is_stmt,address DESDataWrite,isa 1
    1103                    
    1104                            .dwfde $C$DW$CIE, DESDataWrite
    1105                    $C$DW$57        .dwtag  DW_TAG_formal_parameter
    1106                            .dwattr $C$DW$57, DW_AT_name("ui32Base")
    1107                            .dwattr $C$DW$57, DW_AT_TI_symbol_name("ui32Base")
    1108                            .dwattr $C$DW$57, DW_AT_type(*$C$DW$T$27)
    1109                            .dwattr $C$DW$57, DW_AT_location[DW_OP_reg0]
    1110                    
    1111                    $C$DW$58        .dwtag  DW_TAG_formal_parameter
    1112                            .dwattr $C$DW$58, DW_AT_name("pui32Src")
    1113                            .dwattr $C$DW$58, DW_AT_TI_symbol_name("pui32Src")
    1114                            .dwattr $C$DW$58, DW_AT_type(*$C$DW$T$33)
    1115                            .dwattr $C$DW$58, DW_AT_location[DW_OP_reg1]
    1116                    
    1117                    ;----------------------------------------------------------------------
    1118                    ; 393 | DESDataWrite(uint32_t ui32Base, uint32_t *pui32Src)                    
    1119                    ;----------------------------------------------------------------------
    1120                    
    1121                    ;*****************************************************************************
    1122                    ;* FUNCTION NAME: DESDataWrite                                               *
    1123                    ;*                                                                           *
    1124                    ;*   Regs Modified     : A1,A2,SP,SR                                         *
    1125                    ;*   Regs Used         : A1,A2,SP,LR,SR                                      *
    1126                    ;*   Local Frame Size  : 0 Args + 8 Auto + 0 Save = 8 byte                   *
    1127                    ;*****************************************************************************
    1128 00000136           DESDataWrite:
    1129                    ;* --------------------------------------------------------------------------*
    1130                            .dwcfi  cfa_offset, 0
    1131 00000136 0D08F1AD          SUB       SP, SP, #8            ; [DPU_V7M3_PIPE]  ; [KEEP 32-BIT INS]
    1132                            .dwcfi  cfa_offset, 8
    1133                    $C$DW$59        .dwtag  DW_TAG_variable
    1134                            .dwattr $C$DW$59, DW_AT_name("ui32Base")
    1135                            .dwattr $C$DW$59, DW_AT_TI_symbol_name("ui32Base")
    1136                            .dwattr $C$DW$59, DW_AT_type(*$C$DW$T$27)
    1137                            .dwattr $C$DW$59, DW_AT_location[DW_OP_breg13 0]
    1138                    
    1139                    $C$DW$60        .dwtag  DW_TAG_variable
    1140                            .dwattr $C$DW$60, DW_AT_name("pui32Src")
    1141                            .dwattr $C$DW$60, DW_AT_TI_symbol_name("pui32Src")
    1142                            .dwattr $C$DW$60, DW_AT_type(*$C$DW$T$33)
    1143                            .dwattr $C$DW$60, DW_AT_location[DW_OP_breg13 4]
    1144                    
    1145                    ;----------------------------------------------------------------------
    1146                    ; 395 | //                                                                     
    1147                    ; 396 | // Check the arguments.                                                
    1148                    ; 397 | //                                                                     
    1149                    ; 398 | ASSERT(ui32Base == DES_BASE);                                          
    1150                    ; 400 | //                                                                     
    1151                    ; 401 | // Wait for the input ready bit to go high.                            
    1152                    ; 402 | //                                                                     
    1153                    ;----------------------------------------------------------------------
    1154 0000013a 9101              STR       A2, [SP, #4]          ; [DPU_V7M3_PIPE] |394|  ; [ORIG 16-BIT INS]
    1155 0000013c 9000              STR       A1, [SP, #0]          ; [DPU_V7M3_PIPE] |394|  ; [ORIG 16-BIT INS]
TI ARM Assembler Unix v18.1.1 Fri Jul  3 20:08:23 2020

Tools Copyright (c) 1996-2017 Texas Instruments Incorporated
des.asm                                                              PAGE   22

    1156                            .dwpsn  file "../driverlib/des.c",line 403,column 5,is_stmt,isa 1
    1157                    ;----------------------------------------------------------------------
    1158                    ; 403 | while(((HWREG(ui32Base + DES_O_CTRL) & DES_CTRL_INPUT_READY)) == 0)    
    1159                    ;----------------------------------------------------------------------
    1160                    ;* --------------------------------------------------------------------------*
    1161                    ;*   BEGIN LOOP ||$C$L10||
    1162                    ;*
    1163                    ;*   Loop source line                : 403
    1164                    ;*   Loop closing brace source line  : 405
    1165                    ;*   Known Minimum Trip Count        : 1
    1166                    ;*   Known Maximum Trip Count        : 4294967295
    1167                    ;*   Known Max Trip Count Factor     : 1
    1168                    ;* --------------------------------------------------------------------------*
    1169 0000013e           ||$C$L10||:    
    1170                            .dwpsn  file "../driverlib/des.c",line 403,column 11,is_stmt,isa 1
    1171                    ;----------------------------------------------------------------------
    1172                    ; 407 | //                                                                     
    1173                    ; 408 | // Write the data.                                                     
    1174                    ; 409 | //                                                                     
    1175                    ;----------------------------------------------------------------------
    1176 0000013e 9800              LDR       A1, [SP, #0]          ; [DPU_V7M3_PIPE] |403|  ; [ORIG 16-BIT INS]
    1177 00000140 6A00              LDR       A1, [A1, #32]         ; [DPU_V7M3_PIPE] |403|  ; [ORIG 16-BIT INS]
    1178 00000142 0880              LSRS      A1, A1, #2            ; [DPU_V7M3_PIPE] |403|  ; [ORIG 16-BIT INS]
    1179 00000144 D3FB              BCC       ||$C$L10||            ; [DPU_V7M3_PIPE] |403|  ; [ORIG 16-BIT INS]
    1180                            ; BRANCHCC OCCURS {||$C$L10||}   ; [] |403| 
    1181                    ;* --------------------------------------------------------------------------*
    1182                            .dwpsn  file "../driverlib/des.c",line 410,column 5,is_stmt,isa 1
    1183                    ;----------------------------------------------------------------------
    1184                    ; 410 | HWREG(DES_BASE + DES_O_DATA_L) = pui32Src[0];                          
    1185                    ;----------------------------------------------------------------------
    1186 00000146 9801              LDR       A1, [SP, #4]          ; [DPU_V7M3_PIPE] |410|  ; [ORIG 16-BIT INS]
    1187 00000148 495F              LDR       A2, $C$CON1           ; [DPU_V7M3_PIPE] |410|  ; [ORIG 16-BIT INS]
    1188 0000014a 6800              LDR       A1, [A1, #0]          ; [DPU_V7M3_PIPE] |410|  ; [ORIG 16-BIT INS]
    1189 0000014c 6008              STR       A1, [A2, #0]          ; [DPU_V7M3_PIPE] |410|  ; [ORIG 16-BIT INS]
    1190                            .dwpsn  file "../driverlib/des.c",line 411,column 5,is_stmt,isa 1
    1191                    ;----------------------------------------------------------------------
    1192                    ; 411 | HWREG(DES_BASE + DES_O_DATA_H) = pui32Src[1];                          
    1193                    ;----------------------------------------------------------------------
    1194 0000014e 9801              LDR       A1, [SP, #4]          ; [DPU_V7M3_PIPE] |411|  ; [ORIG 16-BIT INS]
    1195 00000150 495E              LDR       A2, $C$CON2           ; [DPU_V7M3_PIPE] |411|  ; [ORIG 16-BIT INS]
    1196 00000152 6840              LDR       A1, [A1, #4]          ; [DPU_V7M3_PIPE] |411|  ; [ORIG 16-BIT INS]
    1197 00000154 6008              STR       A1, [A2, #0]          ; [DPU_V7M3_PIPE] |411|  ; [ORIG 16-BIT INS]
    1198                            .dwpsn  file "../driverlib/des.c",line 412,column 1,is_stmt,isa 1
    1199 00000156 B002              ADD       SP, SP, #8            ; [DPU_V7M3_PIPE]  ; [ORIG 16-BIT INS]
    1200                            .dwcfi  cfa_offset, 0
    1201                    $C$DW$61        .dwtag  DW_TAG_TI_branch
    1202                            .dwattr $C$DW$61, DW_AT_low_pc(0x00)
    1203                            .dwattr $C$DW$61, DW_AT_TI_return
    1204                    
    1205 00000158 4770              BX        LR                    ; [DPU_V7M3_PIPE]  ; [ORIG 16-BIT INS]
    1206                            ; BRANCH OCCURS                  ; [] 
    1207                            .dwattr $C$DW$56, DW_AT_TI_end_file("../driverlib/des.c")
    1208                            .dwattr $C$DW$56, DW_AT_TI_end_line(0x19c)
    1209                            .dwattr $C$DW$56, DW_AT_TI_end_column(0x01)
    1210                            .dwendentry
TI ARM Assembler Unix v18.1.1 Fri Jul  3 20:08:23 2020

Tools Copyright (c) 1996-2017 Texas Instruments Incorporated
des.asm                                                              PAGE   23

    1211                            .dwendtag $C$DW$56
    1212                    
    1213 0000015a                   .sect   ".text"
    1214                            .clink
    1215                            .thumbfunc DESDataProcess
    1216 0000015a                   .thumb
    1217                            .global DESDataProcess
    1218                    
    1219                    $C$DW$62        .dwtag  DW_TAG_subprogram
    1220                            .dwattr $C$DW$62, DW_AT_name("DESDataProcess")
    1221                            .dwattr $C$DW$62, DW_AT_low_pc(DESDataProcess)
    1222                            .dwattr $C$DW$62, DW_AT_high_pc(0x00)
    1223                            .dwattr $C$DW$62, DW_AT_TI_symbol_name("DESDataProcess")
    1224                            .dwattr $C$DW$62, DW_AT_external
    1225                            .dwattr $C$DW$62, DW_AT_type(*$C$DW$T$111)
    1226                            .dwattr $C$DW$62, DW_AT_TI_begin_file("../driverlib/des.c")
    1227                            .dwattr $C$DW$62, DW_AT_TI_begin_line(0x1b6)
    1228                            .dwattr $C$DW$62, DW_AT_TI_begin_column(0x01)
    1229                            .dwattr $C$DW$62, DW_AT_decl_file("../driverlib/des.c")
    1230                            .dwattr $C$DW$62, DW_AT_decl_line(0x1b6)
    1231                            .dwattr $C$DW$62, DW_AT_decl_column(0x01)
    1232                            .dwattr $C$DW$62, DW_AT_TI_max_frame_size(0x18)
    1233                            .dwpsn  file "../driverlib/des.c",line 440,column 1,is_stmt,address DESDataProcess,isa 1
    1234                    
    1235                            .dwfde $C$DW$CIE, DESDataProcess
    1236                    $C$DW$63        .dwtag  DW_TAG_formal_parameter
    1237                            .dwattr $C$DW$63, DW_AT_name("ui32Base")
    1238                            .dwattr $C$DW$63, DW_AT_TI_symbol_name("ui32Base")
    1239                            .dwattr $C$DW$63, DW_AT_type(*$C$DW$T$27)
    1240                            .dwattr $C$DW$63, DW_AT_location[DW_OP_reg0]
    1241                    
    1242                    $C$DW$64        .dwtag  DW_TAG_formal_parameter
    1243                            .dwattr $C$DW$64, DW_AT_name("pui32Src")
    1244                            .dwattr $C$DW$64, DW_AT_TI_symbol_name("pui32Src")
    1245                            .dwattr $C$DW$64, DW_AT_type(*$C$DW$T$33)
    1246                            .dwattr $C$DW$64, DW_AT_location[DW_OP_reg1]
    1247                    
    1248                    $C$DW$65        .dwtag  DW_TAG_formal_parameter
    1249                            .dwattr $C$DW$65, DW_AT_name("pui32Dest")
    1250                            .dwattr $C$DW$65, DW_AT_TI_symbol_name("pui32Dest")
    1251                            .dwattr $C$DW$65, DW_AT_type(*$C$DW$T$33)
    1252                            .dwattr $C$DW$65, DW_AT_location[DW_OP_reg2]
    1253                    
    1254                    $C$DW$66        .dwtag  DW_TAG_formal_parameter
    1255                            .dwattr $C$DW$66, DW_AT_name("ui32Length")
    1256                            .dwattr $C$DW$66, DW_AT_TI_symbol_name("ui32Length")
    1257                            .dwattr $C$DW$66, DW_AT_type(*$C$DW$T$27)
    1258                            .dwattr $C$DW$66, DW_AT_location[DW_OP_reg3]
    1259                    
    1260                    ;----------------------------------------------------------------------
    1261                    ; 438 | DESDataProcess(uint32_t ui32Base, uint32_t *pui32Src, uint32_t *pui32De
    1262                    ;     | st,                                                                    
    1263                    ; 439 | uint32_t ui32Length)                                                   
    1264                    ;----------------------------------------------------------------------
    1265                    
TI ARM Assembler Unix v18.1.1 Fri Jul  3 20:08:23 2020

Tools Copyright (c) 1996-2017 Texas Instruments Incorporated
des.asm                                                              PAGE   24

    1266                    ;*****************************************************************************
    1267                    ;* FUNCTION NAME: DESDataProcess                                             *
    1268                    ;*                                                                           *
    1269                    ;*   Regs Modified     : A1,A2,SP,LR,SR,FPEXC,FPSCR                          *
    1270                    ;*   Regs Used         : A1,A2,A3,A4,SP,LR,SR,FPEXC,FPSCR                    *
    1271                    ;*   Local Frame Size  : 0 Args + 20 Auto + 4 Save = 24 byte                 *
    1272                    ;*****************************************************************************
    1273 0000015a           DESDataProcess:
    1274                    ;* --------------------------------------------------------------------------*
    1275                            .dwcfi  cfa_offset, 0
    1276 0000015a B500              PUSH      {LR}                  ; [DPU_V7M3_PIPE]  ; [ORIG 16-BIT INS]
    1277                            .dwcfi  cfa_offset, 4
    1278                            .dwcfi  save_reg_to_mem, 14, -4
    1279 0000015c 0D14F1AD          SUB       SP, SP, #20           ; [DPU_V7M3_PIPE]  ; [KEEP 32-BIT INS]
    1280                            .dwcfi  cfa_offset, 24
    1281                    $C$DW$67        .dwtag  DW_TAG_variable
    1282                            .dwattr $C$DW$67, DW_AT_name("ui32Base")
    1283                            .dwattr $C$DW$67, DW_AT_TI_symbol_name("ui32Base")
    1284                            .dwattr $C$DW$67, DW_AT_type(*$C$DW$T$27)
    1285                            .dwattr $C$DW$67, DW_AT_location[DW_OP_breg13 0]
    1286                    
    1287                    $C$DW$68        .dwtag  DW_TAG_variable
    1288                            .dwattr $C$DW$68, DW_AT_name("pui32Src")
    1289                            .dwattr $C$DW$68, DW_AT_TI_symbol_name("pui32Src")
    1290                            .dwattr $C$DW$68, DW_AT_type(*$C$DW$T$33)
    1291                            .dwattr $C$DW$68, DW_AT_location[DW_OP_breg13 4]
    1292                    
    1293                    $C$DW$69        .dwtag  DW_TAG_variable
    1294                            .dwattr $C$DW$69, DW_AT_name("pui32Dest")
    1295                            .dwattr $C$DW$69, DW_AT_TI_symbol_name("pui32Dest")
    1296                            .dwattr $C$DW$69, DW_AT_type(*$C$DW$T$33)
    1297                            .dwattr $C$DW$69, DW_AT_location[DW_OP_breg13 8]
    1298                    
    1299                    $C$DW$70        .dwtag  DW_TAG_variable
    1300                            .dwattr $C$DW$70, DW_AT_name("ui32Length")
    1301                            .dwattr $C$DW$70, DW_AT_TI_symbol_name("ui32Length")
    1302                            .dwattr $C$DW$70, DW_AT_type(*$C$DW$T$27)
    1303                            .dwattr $C$DW$70, DW_AT_location[DW_OP_breg13 12]
    1304                    
    1305                    $C$DW$71        .dwtag  DW_TAG_variable
    1306                            .dwattr $C$DW$71, DW_AT_name("ui32Count")
    1307                            .dwattr $C$DW$71, DW_AT_TI_symbol_name("ui32Count")
    1308                            .dwattr $C$DW$71, DW_AT_type(*$C$DW$T$27)
    1309                            .dwattr $C$DW$71, DW_AT_location[DW_OP_breg13 16]
    1310                    
    1311                    ;----------------------------------------------------------------------
    1312                    ; 441 | uint32_t ui32Count;                                                    
    1313                    ; 443 | //                                                                     
    1314                    ; 444 | // Check the arguments.                                                
    1315                    ; 445 | //                                                                     
    1316                    ; 446 | ASSERT(ui32Base == DES_BASE);                                          
    1317                    ; 447 | ASSERT((ui32Length % 8) == 0);                                         
    1318                    ; 449 | //                                                                     
    1319                    ; 450 | // Write the length register first.  This triggers the engine to start 
    1320                    ; 451 | // using this context.                                                 
TI ARM Assembler Unix v18.1.1 Fri Jul  3 20:08:23 2020

Tools Copyright (c) 1996-2017 Texas Instruments Incorporated
des.asm                                                              PAGE   25

    1321                    ; 452 | //                                                                     
    1322                    ;----------------------------------------------------------------------
    1323 00000160 9303              STR       A4, [SP, #12]         ; [DPU_V7M3_PIPE] |440|  ; [ORIG 16-BIT INS]
    1324 00000162 9202              STR       A3, [SP, #8]          ; [DPU_V7M3_PIPE] |440|  ; [ORIG 16-BIT INS]
    1325 00000164 9101              STR       A2, [SP, #4]          ; [DPU_V7M3_PIPE] |440|  ; [ORIG 16-BIT INS]
    1326 00000166 9000              STR       A1, [SP, #0]          ; [DPU_V7M3_PIPE] |440|  ; [ORIG 16-BIT INS]
    1327                            .dwpsn  file "../driverlib/des.c",line 453,column 5,is_stmt,isa 1
    1328                    ;----------------------------------------------------------------------
    1329                    ; 453 | HWREG(ui32Base + DES_O_LENGTH) = ui32Length;                           
    1330                    ; 455 | //                                                                     
    1331                    ; 456 | // Now loop until the blocks are written.                              
    1332                    ; 457 | //                                                                     
    1333                    ;----------------------------------------------------------------------
    1334 00000168 9803              LDR       A1, [SP, #12]         ; [DPU_V7M3_PIPE] |453|  ; [ORIG 16-BIT INS]
    1335 0000016a 9900              LDR       A2, [SP, #0]          ; [DPU_V7M3_PIPE] |453|  ; [ORIG 16-BIT INS]
    1336 0000016c 6248              STR       A1, [A2, #36]         ; [DPU_V7M3_PIPE] |453|  ; [ORIG 16-BIT INS]
    1337                            .dwpsn  file "../driverlib/des.c",line 458,column 9,is_stmt,isa 1
    1338                    ;----------------------------------------------------------------------
    1339                    ; 458 | for(ui32Count = 0; ui32Count < (ui32Length / 4); ui32Count += 2)       
    1340                    ; 460 |     //                                                                 
    1341                    ; 461 |     // Check if the input ready is fine                                
    1342                    ; 462 |     //                                                                 
    1343                    ;----------------------------------------------------------------------
    1344 0000016e 2000              MOVS      A1, #0                ; [DPU_V7M3_PIPE] |458|  ; [ORIG 16-BIT INS]
    1345 00000170 9004              STR       A1, [SP, #16]         ; [DPU_V7M3_PIPE] |458|  ; [ORIG 16-BIT INS]
    1346 00000172 E018              B         ||$C$L13||            ; [DPU_V7M3_PIPE] |458|  ; [ORIG 16-BIT INS]
    1347                            ; BRANCH OCCURS {||$C$L13||}     ; [] |458| 
    1348                    ;* --------------------------------------------------------------------------*
    1349                    ;* --------------------------------------------------------------------------*
    1350                    ;*   BEGIN LOOP ||$C$L11||
    1351                    ;*
    1352                    ;*   Loop source line                : 463
    1353                    ;*   Loop closing brace source line  : 465
    1354                    ;*   Known Minimum Trip Count        : 1
    1355                    ;*   Known Maximum Trip Count        : 4294967295
    1356                    ;*   Known Max Trip Count Factor     : 1
    1357                    ;* --------------------------------------------------------------------------*
    1358 00000174           ||$C$L11||:    
    1359                            .dwpsn  file "../driverlib/des.c",line 463,column 15,is_stmt,isa 1
    1360                    ;----------------------------------------------------------------------
    1361                    ; 463 | while((DES_CTRL_INPUT_READY & (HWREG(ui32Base + DES_O_CTRL))) == 0)    
    1362                    ; 467 | //                                                                     
    1363                    ; 468 | // Write the block data.                                               
    1364                    ; 469 | //                                                                     
    1365                    ;----------------------------------------------------------------------
    1366 00000174 9800              LDR       A1, [SP, #0]          ; [DPU_V7M3_PIPE] |463|  ; [ORIG 16-BIT INS]
    1367 00000176 6A00              LDR       A1, [A1, #32]         ; [DPU_V7M3_PIPE] |463|  ; [ORIG 16-BIT INS]
    1368 00000178 0880              LSRS      A1, A1, #2            ; [DPU_V7M3_PIPE] |463|  ; [ORIG 16-BIT INS]
    1369 0000017a D3FB              BCC       ||$C$L11||            ; [DPU_V7M3_PIPE] |463|  ; [ORIG 16-BIT INS]
    1370                            ; BRANCHCC OCCURS {||$C$L11||}   ; [] |463| 
    1371                    ;* --------------------------------------------------------------------------*
    1372                            .dwpsn  file "../driverlib/des.c",line 470,column 9,is_stmt,isa 1
    1373                    ;----------------------------------------------------------------------
    1374                    ; 470 | DESDataWriteNonBlocking(ui32Base, pui32Src + ui32Count);               
    1375                    ; 472 | //                                                                     
TI ARM Assembler Unix v18.1.1 Fri Jul  3 20:08:23 2020

Tools Copyright (c) 1996-2017 Texas Instruments Incorporated
des.asm                                                              PAGE   26

    1376                    ; 473 | // Wait for the output ready                                           
    1377                    ; 474 | //                                                                     
    1378                    ;----------------------------------------------------------------------
    1379 0000017c 9804              LDR       A1, [SP, #16]         ; [DPU_V7M3_PIPE] |470|  ; [ORIG 16-BIT INS]
    1380 0000017e 9901              LDR       A2, [SP, #4]          ; [DPU_V7M3_PIPE] |470|  ; [ORIG 16-BIT INS]
    1381 00000180 0180EB01          ADD       A2, A2, A1, LSL #2    ; [DPU_V7M3_PIPE] |470|  ; [KEEP 32-BIT INS]
    1382 00000184 9800              LDR       A1, [SP, #0]          ; [DPU_V7M3_PIPE] |470|  ; [ORIG 16-BIT INS]
    1383                    $C$DW$72        .dwtag  DW_TAG_TI_branch
    1384                            .dwattr $C$DW$72, DW_AT_low_pc(0x00)
    1385                            .dwattr $C$DW$72, DW_AT_name("DESDataWriteNonBlocking")
    1386                            .dwattr $C$DW$72, DW_AT_TI_call
    1387                    
    1388 00000186 FFFEF7FF!         BL        DESDataWriteNonBlocking ; [DPU_V7M3_PIPE] |470|  ; [KEEP 32-BIT INS]
    1389                            ; CALL OCCURS {DESDataWriteNonBlocking }  ; [] |470| 
    1390                            .dwpsn  file "../driverlib/des.c",line 475,column 9,is_stmt,isa 1
    1391                    ;----------------------------------------------------------------------
    1392                    ; 475 | while((DES_CTRL_OUTPUT_READY & (HWREG(ui32Base + DES_O_CTRL))) == 0)   
    1393                    ;----------------------------------------------------------------------
    1394                    ;* --------------------------------------------------------------------------*
    1395                    ;*   BEGIN LOOP ||$C$L12||
    1396                    ;*
    1397                    ;*   Loop source line                : 475
    1398                    ;*   Loop closing brace source line  : 477
    1399                    ;*   Known Minimum Trip Count        : 1
    1400                    ;*   Known Maximum Trip Count        : 4294967295
    1401                    ;*   Known Max Trip Count Factor     : 1
    1402                    ;* --------------------------------------------------------------------------*
    1403 0000018a           ||$C$L12||:    
    1404                            .dwpsn  file "../driverlib/des.c",line 475,column 15,is_stmt,isa 1
    1405                    ;----------------------------------------------------------------------
    1406                    ; 479 | //                                                                     
    1407                    ; 480 | // Read the processed data block.                                      
    1408                    ; 481 | //                                                                     
    1409                    ;----------------------------------------------------------------------
    1410 0000018a 9800              LDR       A1, [SP, #0]          ; [DPU_V7M3_PIPE] |475|  ; [ORIG 16-BIT INS]
    1411 0000018c 6A00              LDR       A1, [A1, #32]         ; [DPU_V7M3_PIPE] |475|  ; [ORIG 16-BIT INS]
    1412 0000018e 0840              LSRS      A1, A1, #1            ; [DPU_V7M3_PIPE] |475|  ; [ORIG 16-BIT INS]
    1413 00000190 D3FB              BCC       ||$C$L12||            ; [DPU_V7M3_PIPE] |475|  ; [ORIG 16-BIT INS]
    1414                            ; BRANCHCC OCCURS {||$C$L12||}   ; [] |475| 
    1415                    ;* --------------------------------------------------------------------------*
    1416                            .dwpsn  file "../driverlib/des.c",line 482,column 9,is_stmt,isa 1
    1417                    ;----------------------------------------------------------------------
    1418                    ; 482 | DESDataReadNonBlocking(ui32Base, pui32Dest + ui32Count);               
    1419                    ; 485 | //                                                                     
    1420                    ; 486 | // Return true to indicate the process was successful.                 
    1421                    ; 487 | //                                                                     
    1422                    ;----------------------------------------------------------------------
    1423 00000192 9804              LDR       A1, [SP, #16]         ; [DPU_V7M3_PIPE] |482|  ; [ORIG 16-BIT INS]
    1424 00000194 9902              LDR       A2, [SP, #8]          ; [DPU_V7M3_PIPE] |482|  ; [ORIG 16-BIT INS]
    1425 00000196 0180EB01          ADD       A2, A2, A1, LSL #2    ; [DPU_V7M3_PIPE] |482|  ; [KEEP 32-BIT INS]
    1426 0000019a 9800              LDR       A1, [SP, #0]          ; [DPU_V7M3_PIPE] |482|  ; [ORIG 16-BIT INS]
    1427                    $C$DW$73        .dwtag  DW_TAG_TI_branch
    1428                            .dwattr $C$DW$73, DW_AT_low_pc(0x00)
    1429                            .dwattr $C$DW$73, DW_AT_name("DESDataReadNonBlocking")
    1430                            .dwattr $C$DW$73, DW_AT_TI_call
TI ARM Assembler Unix v18.1.1 Fri Jul  3 20:08:23 2020

Tools Copyright (c) 1996-2017 Texas Instruments Incorporated
des.asm                                                              PAGE   27

    1431                    
    1432 0000019c FFFEF7FF!         BL        DESDataReadNonBlocking ; [DPU_V7M3_PIPE] |482|  ; [KEEP 32-BIT INS]
    1433                            ; CALL OCCURS {DESDataReadNonBlocking }  ; [] |482| 
    1434                            .dwpsn  file "../driverlib/des.c",line 458,column 54,is_stmt,isa 1
    1435 000001a0 9804              LDR       A1, [SP, #16]         ; [DPU_V7M3_PIPE] |458|  ; [ORIG 16-BIT INS]
    1436 000001a2 1C80              ADDS      A1, A1, #2            ; [DPU_V7M3_PIPE] |458|  ; [ORIG 16-BIT INS]
    1437 000001a4 9004              STR       A1, [SP, #16]         ; [DPU_V7M3_PIPE] |458|  ; [ORIG 16-BIT INS]
    1438                    ;* --------------------------------------------------------------------------*
    1439                    ;*   BEGIN LOOP ||$C$L13||
    1440                    ;* --------------------------------------------------------------------------*
    1441 000001a6           ||$C$L13||:    
    1442                            .dwpsn  file "../driverlib/des.c",line 458,column 24,is_stmt,isa 1
    1443 000001a6 9803              LDR       A1, [SP, #12]         ; [DPU_V7M3_PIPE] |458|  ; [ORIG 16-BIT INS]
    1444 000001a8 9904              LDR       A2, [SP, #16]         ; [DPU_V7M3_PIPE] |458|  ; [ORIG 16-BIT INS]
    1445 000001aa 0F90EBB1          CMP       A2, A1, LSR #2        ; [DPU_V7M3_PIPE] |458|  ; [KEEP 32-BIT INS]
    1446 000001ae D3E1              BCC       ||$C$L11||            ; [DPU_V7M3_PIPE] |458|  ; [ORIG 16-BIT INS]
    1447                            ; BRANCHCC OCCURS {||$C$L11||}   ; [] |458| 
    1448                    ;* --------------------------------------------------------------------------*
    1449                            .dwpsn  file "../driverlib/des.c",line 488,column 5,is_stmt,isa 1
    1450                    ;----------------------------------------------------------------------
    1451                    ; 488 | return(true);                                                          
    1452                    ;----------------------------------------------------------------------
    1453 000001b0 2001              MOVS      A1, #1                ; [DPU_V7M3_PIPE] |488|  ; [ORIG 16-BIT INS]
    1454                            .dwpsn  file "../driverlib/des.c",line 489,column 1,is_stmt,isa 1
    1455 000001b2 B005              ADD       SP, SP, #20           ; [DPU_V7M3_PIPE]  ; [ORIG 16-BIT INS]
    1456                            .dwcfi  cfa_offset, 4
    1457                    $C$DW$74        .dwtag  DW_TAG_TI_branch
    1458                            .dwattr $C$DW$74, DW_AT_low_pc(0x00)
    1459                            .dwattr $C$DW$74, DW_AT_TI_return
    1460                    
    1461 000001b4 BD00              POP       {PC}                  ; [DPU_V7M3_PIPE]  ; [ORIG 16-BIT INS]
    1462                            .dwcfi  cfa_offset, 0
    1463                            ; BRANCH OCCURS                  ; [] 
    1464                            .dwattr $C$DW$62, DW_AT_TI_end_file("../driverlib/des.c")
    1465                            .dwattr $C$DW$62, DW_AT_TI_end_line(0x1e9)
    1466                            .dwattr $C$DW$62, DW_AT_TI_end_column(0x01)
    1467                            .dwendentry
    1468                            .dwendtag $C$DW$62
    1469                    
    1470 000001b6                   .sect   ".text"
    1471                            .clink
    1472                            .thumbfunc DESIntStatus
    1473 000001b6                   .thumb
    1474                            .global DESIntStatus
    1475                    
    1476                    $C$DW$75        .dwtag  DW_TAG_subprogram
    1477                            .dwattr $C$DW$75, DW_AT_name("DESIntStatus")
    1478                            .dwattr $C$DW$75, DW_AT_low_pc(DESIntStatus)
    1479                            .dwattr $C$DW$75, DW_AT_high_pc(0x00)
    1480                            .dwattr $C$DW$75, DW_AT_TI_symbol_name("DESIntStatus")
    1481                            .dwattr $C$DW$75, DW_AT_external
    1482                            .dwattr $C$DW$75, DW_AT_type(*$C$DW$T$27)
    1483                            .dwattr $C$DW$75, DW_AT_TI_begin_file("../driverlib/des.c")
    1484                            .dwattr $C$DW$75, DW_AT_TI_begin_line(0x201)
    1485                            .dwattr $C$DW$75, DW_AT_TI_begin_column(0x01)
TI ARM Assembler Unix v18.1.1 Fri Jul  3 20:08:23 2020

Tools Copyright (c) 1996-2017 Texas Instruments Incorporated
des.asm                                                              PAGE   28

    1486                            .dwattr $C$DW$75, DW_AT_decl_file("../driverlib/des.c")
    1487                            .dwattr $C$DW$75, DW_AT_decl_line(0x201)
    1488                            .dwattr $C$DW$75, DW_AT_decl_column(0x01)
    1489                            .dwattr $C$DW$75, DW_AT_TI_max_frame_size(0x10)
    1490                            .dwpsn  file "../driverlib/des.c",line 514,column 1,is_stmt,address DESIntStatus,isa 1
    1491                    
    1492                            .dwfde $C$DW$CIE, DESIntStatus
    1493                    $C$DW$76        .dwtag  DW_TAG_formal_parameter
    1494                            .dwattr $C$DW$76, DW_AT_name("ui32Base")
    1495                            .dwattr $C$DW$76, DW_AT_TI_symbol_name("ui32Base")
    1496                            .dwattr $C$DW$76, DW_AT_type(*$C$DW$T$27)
    1497                            .dwattr $C$DW$76, DW_AT_location[DW_OP_reg0]
    1498                    
    1499                    $C$DW$77        .dwtag  DW_TAG_formal_parameter
    1500                            .dwattr $C$DW$77, DW_AT_name("bMasked")
    1501                            .dwattr $C$DW$77, DW_AT_TI_symbol_name("bMasked")
    1502                            .dwattr $C$DW$77, DW_AT_type(*$C$DW$T$111)
    1503                            .dwattr $C$DW$77, DW_AT_location[DW_OP_reg1]
    1504                    
    1505                    ;----------------------------------------------------------------------
    1506                    ; 513 | DESIntStatus(uint32_t ui32Base, bool bMasked)                          
    1507                    ;----------------------------------------------------------------------
    1508                    
    1509                    ;*****************************************************************************
    1510                    ;* FUNCTION NAME: DESIntStatus                                               *
    1511                    ;*                                                                           *
    1512                    ;*   Regs Modified     : A1,A2,A3,A4,SP,SR                                   *
    1513                    ;*   Regs Used         : A1,A2,A3,A4,SP,LR,SR                                *
    1514                    ;*   Local Frame Size  : 0 Args + 16 Auto + 0 Save = 16 byte                 *
    1515                    ;*****************************************************************************
    1516 000001b6           DESIntStatus:
    1517                    ;* --------------------------------------------------------------------------*
    1518                            .dwcfi  cfa_offset, 0
    1519 000001b6 0D10F1AD          SUB       SP, SP, #16           ; [DPU_V7M3_PIPE]  ; [KEEP 32-BIT INS]
    1520                            .dwcfi  cfa_offset, 16
    1521                    $C$DW$78        .dwtag  DW_TAG_variable
    1522                            .dwattr $C$DW$78, DW_AT_name("ui32Base")
    1523                            .dwattr $C$DW$78, DW_AT_TI_symbol_name("ui32Base")
    1524                            .dwattr $C$DW$78, DW_AT_type(*$C$DW$T$27)
    1525                            .dwattr $C$DW$78, DW_AT_location[DW_OP_breg13 0]
    1526                    
    1527                    $C$DW$79        .dwtag  DW_TAG_variable
    1528                            .dwattr $C$DW$79, DW_AT_name("ui32Status")
    1529                            .dwattr $C$DW$79, DW_AT_TI_symbol_name("ui32Status")
    1530                            .dwattr $C$DW$79, DW_AT_type(*$C$DW$T$27)
    1531                            .dwattr $C$DW$79, DW_AT_location[DW_OP_breg13 4]
    1532                    
    1533                    $C$DW$80        .dwtag  DW_TAG_variable
    1534                            .dwattr $C$DW$80, DW_AT_name("ui32Enable")
    1535                            .dwattr $C$DW$80, DW_AT_TI_symbol_name("ui32Enable")
    1536                            .dwattr $C$DW$80, DW_AT_type(*$C$DW$T$27)
    1537                            .dwattr $C$DW$80, DW_AT_location[DW_OP_breg13 8]
    1538                    
    1539                    $C$DW$81        .dwtag  DW_TAG_variable
    1540                            .dwattr $C$DW$81, DW_AT_name("bMasked")
TI ARM Assembler Unix v18.1.1 Fri Jul  3 20:08:23 2020

Tools Copyright (c) 1996-2017 Texas Instruments Incorporated
des.asm                                                              PAGE   29

    1541                            .dwattr $C$DW$81, DW_AT_TI_symbol_name("bMasked")
    1542                            .dwattr $C$DW$81, DW_AT_type(*$C$DW$T$111)
    1543                            .dwattr $C$DW$81, DW_AT_location[DW_OP_breg13 12]
    1544                    
    1545                    ;----------------------------------------------------------------------
    1546                    ; 515 | uint32_t ui32Status, ui32Enable;                                       
    1547                    ; 517 | //                                                                     
    1548                    ; 518 | // Check the arguments.                                                
    1549                    ; 519 | //                                                                     
    1550                    ; 520 | ASSERT(ui32Base == DES_BASE);                                          
    1551                    ; 522 | //                                                                     
    1552                    ; 523 | // Read the status register and return the value.                      
    1553                    ; 524 | //                                                                     
    1554                    ;----------------------------------------------------------------------
    1555 000001ba 100CF88D          STRB      A2, [SP, #12]         ; [DPU_V7M3_PIPE] |514|  ; [KEEP 32-BIT INS]
    1556 000001be 9000              STR       A1, [SP, #0]          ; [DPU_V7M3_PIPE] |514|  ; [ORIG 16-BIT INS]
    1557                            .dwpsn  file "../driverlib/des.c",line 525,column 5,is_stmt,isa 1
    1558                    ;----------------------------------------------------------------------
    1559                    ; 525 | ui32Status = HWREG(ui32Base + DES_O_IRQSTATUS);                        
    1560                    ;----------------------------------------------------------------------
    1561 000001c0 9800              LDR       A1, [SP, #0]          ; [DPU_V7M3_PIPE] |525|  ; [ORIG 16-BIT INS]
    1562 000001c2 6BC0              LDR       A1, [A1, #60]         ; [DPU_V7M3_PIPE] |525|  ; [ORIG 16-BIT INS]
    1563 000001c4 9001              STR       A1, [SP, #4]          ; [DPU_V7M3_PIPE] |525|  ; [ORIG 16-BIT INS]
    1564                            .dwpsn  file "../driverlib/des.c",line 526,column 5,is_stmt,isa 1
    1565                    ;----------------------------------------------------------------------
    1566                    ; 526 | if(bMasked)                                                            
    1567                    ;----------------------------------------------------------------------
    1568 000001c6 000CF89D          LDRB      A1, [SP, #12]         ; [DPU_V7M3_PIPE] |526|  ; [KEEP 32-BIT INS]
    1569 000001ca B158              CBZ       A1, ||$C$L14||        ; []  ; [ORIG 16-BIT INS]
    1570                            ; BRANCHCC OCCURS {||$C$L14||}   ; [] |526| 
    1571                    ;* --------------------------------------------------------------------------*
    1572                            .dwpsn  file "../driverlib/des.c",line 528,column 9,is_stmt,isa 1
    1573                    ;----------------------------------------------------------------------
    1574                    ; 528 | ui32Enable = HWREG(ui32Base + DES_O_IRQENABLE);                        
    1575                    ;----------------------------------------------------------------------
    1576 000001cc 9800              LDR       A1, [SP, #0]          ; [DPU_V7M3_PIPE] |528|  ; [ORIG 16-BIT INS]
    1577 000001ce 6C00              LDR       A1, [A1, #64]         ; [DPU_V7M3_PIPE] |528|  ; [ORIG 16-BIT INS]
    1578 000001d0 9002              STR       A1, [SP, #8]          ; [DPU_V7M3_PIPE] |528|  ; [ORIG 16-BIT INS]
    1579                            .dwpsn  file "../driverlib/des.c",line 529,column 9,is_stmt,isa 1
    1580                    ;----------------------------------------------------------------------
    1581                    ; 529 | return((ui32Status & ui32Enable) |                                     
    1582                    ; 530 |        (HWREG(ui32Base + DES_O_DMAMIS) << 16));                        
    1583                    ; 532 | else                                                                   
    1584                    ;----------------------------------------------------------------------
    1585 000001d2 9900              LDR       A2, [SP, #0]          ; [DPU_V7M3_PIPE] |529|  ; [ORIG 16-BIT INS]
    1586 000001d4 4B3E              LDR       A4, $C$CON3           ; [DPU_V7M3_PIPE] |529|  ; [ORIG 16-BIT INS]
    1587 000001d6 9A01              LDR       A3, [SP, #4]          ; [DPU_V7M3_PIPE] |529|  ; [ORIG 16-BIT INS]
    1588 000001d8 9802              LDR       A1, [SP, #8]          ; [DPU_V7M3_PIPE] |529|  ; [ORIG 16-BIT INS]
    1589 000001da 5859              LDR       A2, [A4, +A2]         ; [DPU_V7M3_PIPE] |529|  ; [ORIG 16-BIT INS]
    1590 000001dc 4010              ANDS      A1, A1, A3            ; [DPU_V7M3_PIPE] |529|  ; [ORIG 16-BIT INS]
    1591 000001de 4001EA40          ORR       A1, A1, A2, LSL #16   ; [DPU_V7M3_PIPE] |529|  ; [KEEP 32-BIT INS]
    1592 000001e2 E005              B         ||$C$L15||            ; [DPU_V7M3_PIPE] |529|  ; [ORIG 16-BIT INS]
    1593                            ; BRANCH OCCURS {||$C$L15||}     ; [] |529| 
    1594                    ;* --------------------------------------------------------------------------*
    1595                    ;* --------------------------------------------------------------------------*
TI ARM Assembler Unix v18.1.1 Fri Jul  3 20:08:23 2020

Tools Copyright (c) 1996-2017 Texas Instruments Incorporated
des.asm                                                              PAGE   30

    1596 000001e4           ||$C$L14||:    
    1597                            .dwpsn  file "../driverlib/des.c",line 534,column 9,is_stmt,isa 1
    1598                    ;----------------------------------------------------------------------
    1599                    ; 534 | return(ui32Status | (HWREG(ui32Base + DES_O_DMARIS) << 16));           
    1600                    ;----------------------------------------------------------------------
    1601 000001e4 9900              LDR       A2, [SP, #0]          ; [DPU_V7M3_PIPE] |534|  ; [ORIG 16-BIT INS]
    1602 000001e6 4A3B              LDR       A3, $C$CON4           ; [DPU_V7M3_PIPE] |534|  ; [ORIG 16-BIT INS]
    1603 000001e8 9801              LDR       A1, [SP, #4]          ; [DPU_V7M3_PIPE] |534|  ; [ORIG 16-BIT INS]
    1604 000001ea 5851              LDR       A2, [A3, +A2]         ; [DPU_V7M3_PIPE] |534|  ; [ORIG 16-BIT INS]
    1605 000001ec 4001EA40          ORR       A1, A1, A2, LSL #16   ; [DPU_V7M3_PIPE] |534|  ; [KEEP 32-BIT INS]
    1606                    ;* --------------------------------------------------------------------------*
    1607 000001f0           ||$C$L15||:    
    1608                            .dwpsn  file "../driverlib/des.c",line 536,column 1,is_stmt,isa 1
    1609 000001f0 B004              ADD       SP, SP, #16           ; [DPU_V7M3_PIPE]  ; [ORIG 16-BIT INS]
    1610                            .dwcfi  cfa_offset, 0
    1611                    $C$DW$82        .dwtag  DW_TAG_TI_branch
    1612                            .dwattr $C$DW$82, DW_AT_low_pc(0x00)
    1613                            .dwattr $C$DW$82, DW_AT_TI_return
    1614                    
    1615 000001f2 4770              BX        LR                    ; [DPU_V7M3_PIPE]  ; [ORIG 16-BIT INS]
    1616                            ; BRANCH OCCURS                  ; [] 
    1617                            .dwattr $C$DW$75, DW_AT_TI_end_file("../driverlib/des.c")
    1618                            .dwattr $C$DW$75, DW_AT_TI_end_line(0x218)
    1619                            .dwattr $C$DW$75, DW_AT_TI_end_column(0x01)
    1620                            .dwendentry
    1621                            .dwendtag $C$DW$75
    1622                    
    1623 000001f4                   .sect   ".text"
    1624                            .clink
    1625                            .thumbfunc DESIntEnable
    1626 000001f4                   .thumb
    1627                            .global DESIntEnable
    1628                    
    1629                    $C$DW$83        .dwtag  DW_TAG_subprogram
    1630                            .dwattr $C$DW$83, DW_AT_name("DESIntEnable")
    1631                            .dwattr $C$DW$83, DW_AT_low_pc(DESIntEnable)
    1632                            .dwattr $C$DW$83, DW_AT_high_pc(0x00)
    1633                            .dwattr $C$DW$83, DW_AT_TI_symbol_name("DESIntEnable")
    1634                            .dwattr $C$DW$83, DW_AT_external
    1635                            .dwattr $C$DW$83, DW_AT_TI_begin_file("../driverlib/des.c")
    1636                            .dwattr $C$DW$83, DW_AT_TI_begin_line(0x22f)
    1637                            .dwattr $C$DW$83, DW_AT_TI_begin_column(0x01)
    1638                            .dwattr $C$DW$83, DW_AT_decl_file("../driverlib/des.c")
    1639                            .dwattr $C$DW$83, DW_AT_decl_line(0x22f)
    1640                            .dwattr $C$DW$83, DW_AT_decl_column(0x01)
    1641                            .dwattr $C$DW$83, DW_AT_TI_max_frame_size(0x08)
    1642                            .dwpsn  file "../driverlib/des.c",line 560,column 1,is_stmt,address DESIntEnable,isa 1
    1643                    
    1644                            .dwfde $C$DW$CIE, DESIntEnable
    1645                    $C$DW$84        .dwtag  DW_TAG_formal_parameter
    1646                            .dwattr $C$DW$84, DW_AT_name("ui32Base")
    1647                            .dwattr $C$DW$84, DW_AT_TI_symbol_name("ui32Base")
    1648                            .dwattr $C$DW$84, DW_AT_type(*$C$DW$T$27)
    1649                            .dwattr $C$DW$84, DW_AT_location[DW_OP_reg0]
    1650                    
TI ARM Assembler Unix v18.1.1 Fri Jul  3 20:08:23 2020

Tools Copyright (c) 1996-2017 Texas Instruments Incorporated
des.asm                                                              PAGE   31

    1651                    $C$DW$85        .dwtag  DW_TAG_formal_parameter
    1652                            .dwattr $C$DW$85, DW_AT_name("ui32IntFlags")
    1653                            .dwattr $C$DW$85, DW_AT_TI_symbol_name("ui32IntFlags")
    1654                            .dwattr $C$DW$85, DW_AT_type(*$C$DW$T$27)
    1655                            .dwattr $C$DW$85, DW_AT_location[DW_OP_reg1]
    1656                    
    1657                    ;----------------------------------------------------------------------
    1658                    ; 559 | DESIntEnable(uint32_t ui32Base, uint32_t ui32IntFlags)                 
    1659                    ;----------------------------------------------------------------------
    1660                    
    1661                    ;*****************************************************************************
    1662                    ;* FUNCTION NAME: DESIntEnable                                               *
    1663                    ;*                                                                           *
    1664                    ;*   Regs Modified     : A1,A2,A3,SP,SR                                      *
    1665                    ;*   Regs Used         : A1,A2,A3,SP,LR,SR                                   *
    1666                    ;*   Local Frame Size  : 0 Args + 8 Auto + 0 Save = 8 byte                   *
    1667                    ;*****************************************************************************
    1668 000001f4           DESIntEnable:
    1669                    ;* --------------------------------------------------------------------------*
    1670                            .dwcfi  cfa_offset, 0
    1671 000001f4 0D08F1AD          SUB       SP, SP, #8            ; [DPU_V7M3_PIPE]  ; [KEEP 32-BIT INS]
    1672                            .dwcfi  cfa_offset, 8
    1673                    $C$DW$86        .dwtag  DW_TAG_variable
    1674                            .dwattr $C$DW$86, DW_AT_name("ui32Base")
    1675                            .dwattr $C$DW$86, DW_AT_TI_symbol_name("ui32Base")
    1676                            .dwattr $C$DW$86, DW_AT_type(*$C$DW$T$27)
    1677                            .dwattr $C$DW$86, DW_AT_location[DW_OP_breg13 0]
    1678                    
    1679                    $C$DW$87        .dwtag  DW_TAG_variable
    1680                            .dwattr $C$DW$87, DW_AT_name("ui32IntFlags")
    1681                            .dwattr $C$DW$87, DW_AT_TI_symbol_name("ui32IntFlags")
    1682                            .dwattr $C$DW$87, DW_AT_type(*$C$DW$T$27)
    1683                            .dwattr $C$DW$87, DW_AT_location[DW_OP_breg13 4]
    1684                    
    1685                    ;----------------------------------------------------------------------
    1686                    ; 561 | //                                                                     
    1687                    ; 562 | // Check the arguments.                                                
    1688                    ; 563 | //                                                                     
    1689                    ; 564 | ASSERT(ui32Base == DES_BASE);                                          
    1690                    ; 565 | ASSERT((ui32IntFlags & DES_INT_CONTEXT_IN) ||                          
    1691                    ; 566 |        (ui32IntFlags & DES_INT_DATA_IN) ||                             
    1692                    ; 567 |        (ui32IntFlags & DES_INT_DATA_OUT) ||                            
    1693                    ; 568 |        (ui32IntFlags & DES_INT_DMA_CONTEXT_IN) ||                      
    1694                    ; 569 |        (ui32IntFlags & DES_INT_DMA_DATA_IN) ||                         
    1695                    ; 570 |        (ui32IntFlags & DES_INT_DMA_DATA_OUT));                         
    1696                    ; 572 | //                                                                     
    1697                    ; 573 | // Enable the interrupts from the flags.                               
    1698                    ; 574 | //                                                                     
    1699                    ;----------------------------------------------------------------------
    1700 000001f8 9101              STR       A2, [SP, #4]          ; [DPU_V7M3_PIPE] |560|  ; [ORIG 16-BIT INS]
    1701 000001fa 9000              STR       A1, [SP, #0]          ; [DPU_V7M3_PIPE] |560|  ; [ORIG 16-BIT INS]
    1702                            .dwpsn  file "../driverlib/des.c",line 575,column 5,is_stmt,isa 1
    1703                    ;----------------------------------------------------------------------
    1704                    ; 575 | HWREG(ui32Base + DES_O_DMAIM) |= (ui32IntFlags & 0x00070000) >> 16;    
    1705                    ;----------------------------------------------------------------------
TI ARM Assembler Unix v18.1.1 Fri Jul  3 20:08:23 2020

Tools Copyright (c) 1996-2017 Texas Instruments Incorporated
des.asm                                                              PAGE   32

    1706 000001fc 4936              LDR       A2, $C$CON5           ; [DPU_V7M3_PIPE] |575|  ; [ORIG 16-BIT INS]
    1707 000001fe 9800              LDR       A1, [SP, #0]          ; [DPU_V7M3_PIPE] |575|  ; [ORIG 16-BIT INS]
    1708 00000200 9A01              LDR       A3, [SP, #4]          ; [DPU_V7M3_PIPE] |575|  ; [ORIG 16-BIT INS]
    1709 00000202 1840              ADDS      A1, A1, A2            ; [DPU_V7M3_PIPE] |575|  ; [ORIG 16-BIT INS]
    1710 00000204 6801              LDR       A2, [A1, #0]          ; [DPU_V7M3_PIPE] |575|  ; [ORIG 16-BIT INS]
    1711 00000206 22E0F402          AND       A3, A3, #458752       ; [DPU_V7M3_PIPE] |575|  ; [KEEP 32-BIT INS]
    1712 0000020a 4112EA41          ORR       A2, A2, A3, LSR #16   ; [DPU_V7M3_PIPE] |575|  ; [KEEP 32-BIT INS]
    1713 0000020e 6001              STR       A2, [A1, #0]          ; [DPU_V7M3_PIPE] |575|  ; [ORIG 16-BIT INS]
    1714                            .dwpsn  file "../driverlib/des.c",line 576,column 5,is_stmt,isa 1
    1715                    ;----------------------------------------------------------------------
    1716                    ; 576 | HWREG(ui32Base + DES_O_IRQENABLE) |= ui32IntFlags & 0x0000ffff;        
    1717                    ;----------------------------------------------------------------------
    1718 00000210 9900              LDR       A2, [SP, #0]          ; [DPU_V7M3_PIPE] |576|  ; [ORIG 16-BIT INS]
    1719 00000212 9801              LDR       A1, [SP, #4]          ; [DPU_V7M3_PIPE] |576|  ; [ORIG 16-BIT INS]
    1720 00000214 3140              ADDS      A2, A2, #64           ; [DPU_V7M3_PIPE] |576|  ; [ORIG 16-BIT INS]
    1721 00000216 680A              LDR       A3, [A2, #0]          ; [DPU_V7M3_PIPE] |576|  ; [ORIG 16-BIT INS]
    1722 00000218 401FF36F          BFC       A1, #16, #16          ; [DPU_V7M3_PIPE] |576|  ; [KEEP 32-BIT INS]
    1723 0000021c 4310              ORRS      A1, A1, A3            ; [DPU_V7M3_PIPE] |576|  ; [ORIG 16-BIT INS]
    1724 0000021e 6008              STR       A1, [A2, #0]          ; [DPU_V7M3_PIPE] |576|  ; [ORIG 16-BIT INS]
    1725                            .dwpsn  file "../driverlib/des.c",line 577,column 1,is_stmt,isa 1
    1726 00000220 B002              ADD       SP, SP, #8            ; [DPU_V7M3_PIPE]  ; [ORIG 16-BIT INS]
    1727                            .dwcfi  cfa_offset, 0
    1728                    $C$DW$88        .dwtag  DW_TAG_TI_branch
    1729                            .dwattr $C$DW$88, DW_AT_low_pc(0x00)
    1730                            .dwattr $C$DW$88, DW_AT_TI_return
    1731                    
    1732 00000222 4770              BX        LR                    ; [DPU_V7M3_PIPE]  ; [ORIG 16-BIT INS]
    1733                            ; BRANCH OCCURS                  ; [] 
    1734                            .dwattr $C$DW$83, DW_AT_TI_end_file("../driverlib/des.c")
    1735                            .dwattr $C$DW$83, DW_AT_TI_end_line(0x241)
    1736                            .dwattr $C$DW$83, DW_AT_TI_end_column(0x01)
    1737                            .dwendentry
    1738                            .dwendtag $C$DW$83
    1739                    
    1740 00000224                   .sect   ".text"
    1741                            .clink
    1742                            .thumbfunc DESIntDisable
    1743 00000224                   .thumb
    1744                            .global DESIntDisable
    1745                    
    1746                    $C$DW$89        .dwtag  DW_TAG_subprogram
    1747                            .dwattr $C$DW$89, DW_AT_name("DESIntDisable")
    1748                            .dwattr $C$DW$89, DW_AT_low_pc(DESIntDisable)
    1749                            .dwattr $C$DW$89, DW_AT_high_pc(0x00)
    1750                            .dwattr $C$DW$89, DW_AT_TI_symbol_name("DESIntDisable")
    1751                            .dwattr $C$DW$89, DW_AT_external
    1752                            .dwattr $C$DW$89, DW_AT_TI_begin_file("../driverlib/des.c")
    1753                            .dwattr $C$DW$89, DW_AT_TI_begin_line(0x259)
    1754                            .dwattr $C$DW$89, DW_AT_TI_begin_column(0x01)
    1755                            .dwattr $C$DW$89, DW_AT_decl_file("../driverlib/des.c")
    1756                            .dwattr $C$DW$89, DW_AT_decl_line(0x259)
    1757                            .dwattr $C$DW$89, DW_AT_decl_column(0x01)
    1758                            .dwattr $C$DW$89, DW_AT_TI_max_frame_size(0x08)
    1759                            .dwpsn  file "../driverlib/des.c",line 602,column 1,is_stmt,address DESIntDisable,isa 1
    1760                    
TI ARM Assembler Unix v18.1.1 Fri Jul  3 20:08:23 2020

Tools Copyright (c) 1996-2017 Texas Instruments Incorporated
des.asm                                                              PAGE   33

    1761                            .dwfde $C$DW$CIE, DESIntDisable
    1762                    $C$DW$90        .dwtag  DW_TAG_formal_parameter
    1763                            .dwattr $C$DW$90, DW_AT_name("ui32Base")
    1764                            .dwattr $C$DW$90, DW_AT_TI_symbol_name("ui32Base")
    1765                            .dwattr $C$DW$90, DW_AT_type(*$C$DW$T$27)
    1766                            .dwattr $C$DW$90, DW_AT_location[DW_OP_reg0]
    1767                    
    1768                    $C$DW$91        .dwtag  DW_TAG_formal_parameter
    1769                            .dwattr $C$DW$91, DW_AT_name("ui32IntFlags")
    1770                            .dwattr $C$DW$91, DW_AT_TI_symbol_name("ui32IntFlags")
    1771                            .dwattr $C$DW$91, DW_AT_type(*$C$DW$T$27)
    1772                            .dwattr $C$DW$91, DW_AT_location[DW_OP_reg1]
    1773                    
    1774                    ;----------------------------------------------------------------------
    1775                    ; 601 | DESIntDisable(uint32_t ui32Base, uint32_t ui32IntFlags)                
    1776                    ;----------------------------------------------------------------------
    1777                    
    1778                    ;*****************************************************************************
    1779                    ;* FUNCTION NAME: DESIntDisable                                              *
    1780                    ;*                                                                           *
    1781                    ;*   Regs Modified     : A1,A2,A3,SP,SR                                      *
    1782                    ;*   Regs Used         : A1,A2,A3,SP,LR,SR                                   *
    1783                    ;*   Local Frame Size  : 0 Args + 8 Auto + 0 Save = 8 byte                   *
    1784                    ;*****************************************************************************
    1785 00000224           DESIntDisable:
    1786                    ;* --------------------------------------------------------------------------*
    1787                            .dwcfi  cfa_offset, 0
    1788 00000224 0D08F1AD          SUB       SP, SP, #8            ; [DPU_V7M3_PIPE]  ; [KEEP 32-BIT INS]
    1789                            .dwcfi  cfa_offset, 8
    1790                    $C$DW$92        .dwtag  DW_TAG_variable
    1791                            .dwattr $C$DW$92, DW_AT_name("ui32Base")
    1792                            .dwattr $C$DW$92, DW_AT_TI_symbol_name("ui32Base")
    1793                            .dwattr $C$DW$92, DW_AT_type(*$C$DW$T$27)
    1794                            .dwattr $C$DW$92, DW_AT_location[DW_OP_breg13 0]
    1795                    
    1796                    $C$DW$93        .dwtag  DW_TAG_variable
    1797                            .dwattr $C$DW$93, DW_AT_name("ui32IntFlags")
    1798                            .dwattr $C$DW$93, DW_AT_TI_symbol_name("ui32IntFlags")
    1799                            .dwattr $C$DW$93, DW_AT_type(*$C$DW$T$27)
    1800                            .dwattr $C$DW$93, DW_AT_location[DW_OP_breg13 4]
    1801                    
    1802                    ;----------------------------------------------------------------------
    1803                    ; 603 | //                                                                     
    1804                    ; 604 | // Check the arguments.                                                
    1805                    ; 605 | //                                                                     
    1806                    ; 606 | ASSERT(ui32Base == DES_BASE);                                          
    1807                    ; 607 | ASSERT((ui32IntFlags & DES_INT_CONTEXT_IN) ||                          
    1808                    ; 608 |        (ui32IntFlags & DES_INT_DATA_IN) ||                             
    1809                    ; 609 |        (ui32IntFlags & DES_INT_DATA_OUT) ||                            
    1810                    ; 610 |        (ui32IntFlags & DES_INT_DMA_CONTEXT_IN) ||                      
    1811                    ; 611 |        (ui32IntFlags & DES_INT_DMA_DATA_IN) ||                         
    1812                    ; 612 |        (ui32IntFlags & DES_INT_DMA_DATA_OUT));                         
    1813                    ; 614 | //                                                                     
    1814                    ; 615 | // Clear the interrupts from the flags.                                
    1815                    ; 616 | //                                                                     
TI ARM Assembler Unix v18.1.1 Fri Jul  3 20:08:23 2020

Tools Copyright (c) 1996-2017 Texas Instruments Incorporated
des.asm                                                              PAGE   34

    1816                    ;----------------------------------------------------------------------
    1817 00000228 9101              STR       A2, [SP, #4]          ; [DPU_V7M3_PIPE] |602|  ; [ORIG 16-BIT INS]
    1818 0000022a 9000              STR       A1, [SP, #0]          ; [DPU_V7M3_PIPE] |602|  ; [ORIG 16-BIT INS]
    1819                            .dwpsn  file "../driverlib/des.c",line 617,column 5,is_stmt,isa 1
    1820                    ;----------------------------------------------------------------------
    1821                    ; 617 | HWREG(ui32Base + DES_O_DMAIM) &= ~((ui32IntFlags & 0x00070000) >> 16); 
    1822                    ;----------------------------------------------------------------------
    1823 0000022c 492A              LDR       A2, $C$CON5           ; [DPU_V7M3_PIPE] |617|  ; [ORIG 16-BIT INS]
    1824 0000022e 9800              LDR       A1, [SP, #0]          ; [DPU_V7M3_PIPE] |617|  ; [ORIG 16-BIT INS]
    1825 00000230 9A01              LDR       A3, [SP, #4]          ; [DPU_V7M3_PIPE] |617|  ; [ORIG 16-BIT INS]
    1826 00000232 1840              ADDS      A1, A1, A2            ; [DPU_V7M3_PIPE] |617|  ; [ORIG 16-BIT INS]
    1827 00000234 6801              LDR       A2, [A1, #0]          ; [DPU_V7M3_PIPE] |617|  ; [ORIG 16-BIT INS]
    1828 00000236 22E0F402          AND       A3, A3, #458752       ; [DPU_V7M3_PIPE] |617|  ; [KEEP 32-BIT INS]
    1829 0000023a 4112EA21          BIC       A2, A2, A3, LSR #16   ; [DPU_V7M3_PIPE] |617|  ; [KEEP 32-BIT INS]
    1830 0000023e 6001              STR       A2, [A1, #0]          ; [DPU_V7M3_PIPE] |617|  ; [ORIG 16-BIT INS]
    1831                            .dwpsn  file "../driverlib/des.c",line 618,column 5,is_stmt,isa 1
    1832                    ;----------------------------------------------------------------------
    1833                    ; 618 | HWREG(ui32Base + DES_O_IRQENABLE) &= ~(ui32IntFlags & 0x0000ffff);     
    1834                    ;----------------------------------------------------------------------
    1835 00000240 9800              LDR       A1, [SP, #0]          ; [DPU_V7M3_PIPE] |618|  ; [ORIG 16-BIT INS]
    1836 00000242 9A01              LDR       A3, [SP, #4]          ; [DPU_V7M3_PIPE] |618|  ; [ORIG 16-BIT INS]
    1837 00000244 3040              ADDS      A1, A1, #64           ; [DPU_V7M3_PIPE] |618|  ; [ORIG 16-BIT INS]
    1838 00000246 6801              LDR       A2, [A1, #0]          ; [DPU_V7M3_PIPE] |618|  ; [ORIG 16-BIT INS]
    1839 00000248 421FF36F          BFC       A3, #16, #16          ; [DPU_V7M3_PIPE] |618|  ; [KEEP 32-BIT INS]
    1840 0000024c 4391              BICS      A2, A2, A3            ; [DPU_V7M3_PIPE] |618|  ; [ORIG 16-BIT INS]
    1841 0000024e 6001              STR       A2, [A1, #0]          ; [DPU_V7M3_PIPE] |618|  ; [ORIG 16-BIT INS]
    1842                            .dwpsn  file "../driverlib/des.c",line 619,column 1,is_stmt,isa 1
    1843 00000250 B002              ADD       SP, SP, #8            ; [DPU_V7M3_PIPE]  ; [ORIG 16-BIT INS]
    1844                            .dwcfi  cfa_offset, 0
    1845                    $C$DW$94        .dwtag  DW_TAG_TI_branch
    1846                            .dwattr $C$DW$94, DW_AT_low_pc(0x00)
    1847                            .dwattr $C$DW$94, DW_AT_TI_return
    1848                    
    1849 00000252 4770              BX        LR                    ; [DPU_V7M3_PIPE]  ; [ORIG 16-BIT INS]
    1850                            ; BRANCH OCCURS                  ; [] 
    1851                            .dwattr $C$DW$89, DW_AT_TI_end_file("../driverlib/des.c")
    1852                            .dwattr $C$DW$89, DW_AT_TI_end_line(0x26b)
    1853                            .dwattr $C$DW$89, DW_AT_TI_end_column(0x01)
    1854                            .dwendentry
    1855                            .dwendtag $C$DW$89
    1856                    
    1857 00000254                   .sect   ".text"
    1858                            .clink
    1859                            .thumbfunc DESIntClear
    1860 00000254                   .thumb
    1861                            .global DESIntClear
    1862                    
    1863                    $C$DW$95        .dwtag  DW_TAG_subprogram
    1864                            .dwattr $C$DW$95, DW_AT_name("DESIntClear")
    1865                            .dwattr $C$DW$95, DW_AT_low_pc(DESIntClear)
    1866                            .dwattr $C$DW$95, DW_AT_high_pc(0x00)
    1867                            .dwattr $C$DW$95, DW_AT_TI_symbol_name("DESIntClear")
    1868                            .dwattr $C$DW$95, DW_AT_external
    1869                            .dwattr $C$DW$95, DW_AT_TI_begin_file("../driverlib/des.c")
    1870                            .dwattr $C$DW$95, DW_AT_TI_begin_line(0x283)
TI ARM Assembler Unix v18.1.1 Fri Jul  3 20:08:23 2020

Tools Copyright (c) 1996-2017 Texas Instruments Incorporated
des.asm                                                              PAGE   35

    1871                            .dwattr $C$DW$95, DW_AT_TI_begin_column(0x01)
    1872                            .dwattr $C$DW$95, DW_AT_decl_file("../driverlib/des.c")
    1873                            .dwattr $C$DW$95, DW_AT_decl_line(0x283)
    1874                            .dwattr $C$DW$95, DW_AT_decl_column(0x01)
    1875                            .dwattr $C$DW$95, DW_AT_TI_max_frame_size(0x08)
    1876                            .dwpsn  file "../driverlib/des.c",line 644,column 1,is_stmt,address DESIntClear,isa 1
    1877                    
    1878                            .dwfde $C$DW$CIE, DESIntClear
    1879                    $C$DW$96        .dwtag  DW_TAG_formal_parameter
    1880                            .dwattr $C$DW$96, DW_AT_name("ui32Base")
    1881                            .dwattr $C$DW$96, DW_AT_TI_symbol_name("ui32Base")
    1882                            .dwattr $C$DW$96, DW_AT_type(*$C$DW$T$27)
    1883                            .dwattr $C$DW$96, DW_AT_location[DW_OP_reg0]
    1884                    
    1885                    $C$DW$97        .dwtag  DW_TAG_formal_parameter
    1886                            .dwattr $C$DW$97, DW_AT_name("ui32IntFlags")
    1887                            .dwattr $C$DW$97, DW_AT_TI_symbol_name("ui32IntFlags")
    1888                            .dwattr $C$DW$97, DW_AT_type(*$C$DW$T$27)
    1889                            .dwattr $C$DW$97, DW_AT_location[DW_OP_reg1]
    1890                    
    1891                    ;----------------------------------------------------------------------
    1892                    ; 643 | DESIntClear(uint32_t ui32Base, uint32_t ui32IntFlags)                  
    1893                    ;----------------------------------------------------------------------
    1894                    
    1895                    ;*****************************************************************************
    1896                    ;* FUNCTION NAME: DESIntClear                                                *
    1897                    ;*                                                                           *
    1898                    ;*   Regs Modified     : A1,A2,A3,SP,SR                                      *
    1899                    ;*   Regs Used         : A1,A2,A3,SP,LR,SR                                   *
    1900                    ;*   Local Frame Size  : 0 Args + 8 Auto + 0 Save = 8 byte                   *
    1901                    ;*****************************************************************************
    1902 00000254           DESIntClear:
    1903                    ;* --------------------------------------------------------------------------*
    1904                            .dwcfi  cfa_offset, 0
    1905 00000254 0D08F1AD          SUB       SP, SP, #8            ; [DPU_V7M3_PIPE]  ; [KEEP 32-BIT INS]
    1906                            .dwcfi  cfa_offset, 8
    1907                    $C$DW$98        .dwtag  DW_TAG_variable
    1908                            .dwattr $C$DW$98, DW_AT_name("ui32Base")
    1909                            .dwattr $C$DW$98, DW_AT_TI_symbol_name("ui32Base")
    1910                            .dwattr $C$DW$98, DW_AT_type(*$C$DW$T$27)
    1911                            .dwattr $C$DW$98, DW_AT_location[DW_OP_breg13 0]
    1912                    
    1913                    $C$DW$99        .dwtag  DW_TAG_variable
    1914                            .dwattr $C$DW$99, DW_AT_name("ui32IntFlags")
    1915                            .dwattr $C$DW$99, DW_AT_TI_symbol_name("ui32IntFlags")
    1916                            .dwattr $C$DW$99, DW_AT_type(*$C$DW$T$27)
    1917                            .dwattr $C$DW$99, DW_AT_location[DW_OP_breg13 4]
    1918                    
    1919                    ;----------------------------------------------------------------------
    1920                    ; 645 | //                                                                     
    1921                    ; 646 | // Check the arguments.                                                
    1922                    ; 647 | //                                                                     
    1923                    ; 648 | ASSERT(ui32Base == DES_BASE);                                          
    1924                    ; 649 | ASSERT((ui32IntFlags & DES_INT_DMA_CONTEXT_IN) ||                      
    1925                    ; 650 |        (ui32IntFlags & DES_INT_DMA_DATA_IN) ||                         
TI ARM Assembler Unix v18.1.1 Fri Jul  3 20:08:23 2020

Tools Copyright (c) 1996-2017 Texas Instruments Incorporated
des.asm                                                              PAGE   36

    1926                    ; 651 |        (ui32IntFlags & DES_INT_DMA_DATA_OUT));                         
    1927                    ;----------------------------------------------------------------------
    1928 00000258 9101              STR       A2, [SP, #4]          ; [DPU_V7M3_PIPE] |644|  ; [ORIG 16-BIT INS]
    1929 0000025a 9000              STR       A1, [SP, #0]          ; [DPU_V7M3_PIPE] |644|  ; [ORIG 16-BIT INS]
    1930                            .dwpsn  file "../driverlib/des.c",line 653,column 5,is_stmt,isa 1
    1931                    ;----------------------------------------------------------------------
    1932                    ; 653 | HWREG(ui32Base + DES_O_DMAIC) = (ui32IntFlags & 0x00070000) >> 16;     
    1933                    ;----------------------------------------------------------------------
    1934 0000025c 4A1F              LDR       A3, $C$CON6           ; [DPU_V7M3_PIPE] |653|  ; [ORIG 16-BIT INS]
    1935 0000025e 9801              LDR       A1, [SP, #4]          ; [DPU_V7M3_PIPE] |653|  ; [ORIG 16-BIT INS]
    1936 00000260 9900              LDR       A2, [SP, #0]          ; [DPU_V7M3_PIPE] |653|  ; [ORIG 16-BIT INS]
    1937 00000262 20E0F400          AND       A1, A1, #458752       ; [DPU_V7M3_PIPE] |653|  ; [KEEP 32-BIT INS]
    1938 00000266 0C00              LSRS      A1, A1, #16           ; [DPU_V7M3_PIPE] |653|  ; [ORIG 16-BIT INS]
    1939 00000268 5050              STR       A1, [A3, +A2]         ; [DPU_V7M3_PIPE] |653|  ; [ORIG 16-BIT INS]
    1940                            .dwpsn  file "../driverlib/des.c",line 654,column 1,is_stmt,isa 1
    1941 0000026a B002              ADD       SP, SP, #8            ; [DPU_V7M3_PIPE]  ; [ORIG 16-BIT INS]
    1942                            .dwcfi  cfa_offset, 0
    1943                    $C$DW$100       .dwtag  DW_TAG_TI_branch
    1944                            .dwattr $C$DW$100, DW_AT_low_pc(0x00)
    1945                            .dwattr $C$DW$100, DW_AT_TI_return
    1946                    
    1947 0000026c 4770              BX        LR                    ; [DPU_V7M3_PIPE]  ; [ORIG 16-BIT INS]
    1948                            ; BRANCH OCCURS                  ; [] 
    1949                            .dwattr $C$DW$95, DW_AT_TI_end_file("../driverlib/des.c")
    1950                            .dwattr $C$DW$95, DW_AT_TI_end_line(0x28e)
    1951                            .dwattr $C$DW$95, DW_AT_TI_end_column(0x01)
    1952                            .dwendentry
    1953                            .dwendtag $C$DW$95
    1954                    
    1955 0000026e                   .sect   ".text"
    1956                            .clink
    1957                            .thumbfunc DESIntRegister
    1958 0000026e                   .thumb
    1959                            .global DESIntRegister
    1960                    
    1961                    $C$DW$101       .dwtag  DW_TAG_subprogram
    1962                            .dwattr $C$DW$101, DW_AT_name("DESIntRegister")
    1963                            .dwattr $C$DW$101, DW_AT_low_pc(DESIntRegister)
    1964                            .dwattr $C$DW$101, DW_AT_high_pc(0x00)
    1965                            .dwattr $C$DW$101, DW_AT_TI_symbol_name("DESIntRegister")
    1966                            .dwattr $C$DW$101, DW_AT_external
    1967                            .dwattr $C$DW$101, DW_AT_TI_begin_file("../driverlib/des.c")
    1968                            .dwattr $C$DW$101, DW_AT_TI_begin_line(0x2aa)
    1969                            .dwattr $C$DW$101, DW_AT_TI_begin_column(0x01)
    1970                            .dwattr $C$DW$101, DW_AT_decl_file("../driverlib/des.c")
    1971                            .dwattr $C$DW$101, DW_AT_decl_line(0x2aa)
    1972                            .dwattr $C$DW$101, DW_AT_decl_column(0x01)
    1973                            .dwattr $C$DW$101, DW_AT_TI_max_frame_size(0x10)
    1974                            .dwpsn  file "../driverlib/des.c",line 683,column 1,is_stmt,address DESIntRegister,isa 1
    1975                    
    1976                            .dwfde $C$DW$CIE, DESIntRegister
    1977                    $C$DW$102       .dwtag  DW_TAG_formal_parameter
    1978                            .dwattr $C$DW$102, DW_AT_name("ui32Base")
    1979                            .dwattr $C$DW$102, DW_AT_TI_symbol_name("ui32Base")
    1980                            .dwattr $C$DW$102, DW_AT_type(*$C$DW$T$27)
TI ARM Assembler Unix v18.1.1 Fri Jul  3 20:08:23 2020

Tools Copyright (c) 1996-2017 Texas Instruments Incorporated
des.asm                                                              PAGE   37

    1981                            .dwattr $C$DW$102, DW_AT_location[DW_OP_reg0]
    1982                    
    1983                    $C$DW$103       .dwtag  DW_TAG_formal_parameter
    1984                            .dwattr $C$DW$103, DW_AT_name("pfnHandler")
    1985                            .dwattr $C$DW$103, DW_AT_TI_symbol_name("pfnHandler")
    1986                            .dwattr $C$DW$103, DW_AT_type(*$C$DW$T$25)
    1987                            .dwattr $C$DW$103, DW_AT_location[DW_OP_reg1]
    1988                    
    1989                    ;----------------------------------------------------------------------
    1990                    ; 682 | DESIntRegister(uint32_t ui32Base, void (*pfnHandler)(void))            
    1991                    ;----------------------------------------------------------------------
    1992                    
    1993                    ;*****************************************************************************
    1994                    ;* FUNCTION NAME: DESIntRegister                                             *
    1995                    ;*                                                                           *
    1996                    ;*   Regs Modified     : A1,A2,A3,A4,V9,SP,LR,SR,D0,D0_hi,D1,D1_hi,D2,D2_hi, *
    1997                    ;*                           D3,D3_hi,D4,D4_hi,D5,D5_hi,D6,D6_hi,D7,D7_hi,   *
    1998                    ;*                           FPEXC,FPSCR                                     *
    1999                    ;*   Regs Used         : A1,A2,A3,A4,V9,SP,LR,SR,D0,D0_hi,D1,D1_hi,D2,D2_hi, *
    2000                    ;*                           D3,D3_hi,D4,D4_hi,D5,D5_hi,D6,D6_hi,D7,D7_hi,   *
    2001                    ;*                           FPEXC,FPSCR                                     *
    2002                    ;*   Local Frame Size  : 0 Args + 8 Auto + 4 Save = 12 byte                  *
    2003                    ;*****************************************************************************
    2004 0000026e           DESIntRegister:
    2005                    ;* --------------------------------------------------------------------------*
    2006                            .dwcfi  cfa_offset, 0
    2007 0000026e B50E              PUSH      {A2, A3, A4, LR}      ; [DPU_V7M3_PIPE]  ; [ORIG 16-BIT INS]
    2008                            .dwcfi  cfa_offset, 16
    2009                            .dwcfi  save_reg_to_mem, 14, -4
    2010                            .dwcfi  save_reg_to_mem, 3, -8
    2011                            .dwcfi  save_reg_to_mem, 2, -12
    2012                            .dwcfi  save_reg_to_mem, 1, -16
    2013                    $C$DW$104       .dwtag  DW_TAG_variable
    2014                            .dwattr $C$DW$104, DW_AT_name("ui32Base")
    2015                            .dwattr $C$DW$104, DW_AT_TI_symbol_name("ui32Base")
    2016                            .dwattr $C$DW$104, DW_AT_type(*$C$DW$T$27)
    2017                            .dwattr $C$DW$104, DW_AT_location[DW_OP_breg13 0]
    2018                    
    2019                    $C$DW$105       .dwtag  DW_TAG_variable
    2020                            .dwattr $C$DW$105, DW_AT_name("pfnHandler")
    2021                            .dwattr $C$DW$105, DW_AT_TI_symbol_name("pfnHandler")
    2022                            .dwattr $C$DW$105, DW_AT_type(*$C$DW$T$25)
    2023                            .dwattr $C$DW$105, DW_AT_location[DW_OP_breg13 4]
    2024                    
    2025                    ;----------------------------------------------------------------------
    2026                    ; 684 | //                                                                     
    2027                    ; 685 | // Check the arguments.                                                
    2028                    ; 686 | //                                                                     
    2029                    ; 687 | ASSERT(ui32Base == DES_BASE);                                          
    2030                    ; 689 | //                                                                     
    2031                    ; 690 | // Register the interrupt handler.                                     
    2032                    ; 691 | //                                                                     
    2033                    ;----------------------------------------------------------------------
    2034 00000270 9101              STR       A2, [SP, #4]          ; [DPU_V7M3_PIPE] |683|  ; [ORIG 16-BIT INS]
    2035 00000272 9000              STR       A1, [SP, #0]          ; [DPU_V7M3_PIPE] |683|  ; [ORIG 16-BIT INS]
TI ARM Assembler Unix v18.1.1 Fri Jul  3 20:08:23 2020

Tools Copyright (c) 1996-2017 Texas Instruments Incorporated
des.asm                                                              PAGE   38

    2036                            .dwpsn  file "../driverlib/des.c",line 692,column 5,is_stmt,isa 1
    2037                    ;----------------------------------------------------------------------
    2038                    ; 692 | IntRegister(INT_DES0_TM4C129, pfnHandler);                             
    2039                    ; 694 | //                                                                     
    2040                    ; 695 | // Enable the interrupt.                                               
    2041                    ; 696 | //                                                                     
    2042                    ;----------------------------------------------------------------------
    2043 00000274 9901              LDR       A2, [SP, #4]          ; [DPU_V7M3_PIPE] |692|  ; [ORIG 16-BIT INS]
    2044 00000276 2070              MOVS      A1, #112              ; [DPU_V7M3_PIPE] |692|  ; [ORIG 16-BIT INS]
    2045                    $C$DW$106       .dwtag  DW_TAG_TI_branch
    2046                            .dwattr $C$DW$106, DW_AT_low_pc(0x00)
    2047                            .dwattr $C$DW$106, DW_AT_name("IntRegister")
    2048                            .dwattr $C$DW$106, DW_AT_TI_call
    2049                    
    2050 00000278 FFFEF7FF!         BL        IntRegister           ; [DPU_V7M3_PIPE] |692|  ; [KEEP 32-BIT INS]
    2051                            ; CALL OCCURS {IntRegister }     ; [] |692| 
    2052                            .dwpsn  file "../driverlib/des.c",line 697,column 5,is_stmt,isa 1
    2053                    ;----------------------------------------------------------------------
    2054                    ; 697 | IntEnable(INT_DES0_TM4C129);                                           
    2055                    ;----------------------------------------------------------------------
    2056 0000027c 2070              MOVS      A1, #112              ; [DPU_V7M3_PIPE] |697|  ; [ORIG 16-BIT INS]
    2057                    $C$DW$107       .dwtag  DW_TAG_TI_branch
    2058                            .dwattr $C$DW$107, DW_AT_low_pc(0x00)
    2059                            .dwattr $C$DW$107, DW_AT_name("IntEnable")
    2060                            .dwattr $C$DW$107, DW_AT_TI_call
    2061                    
    2062 0000027e FFFEF7FF!         BL        IntEnable             ; [DPU_V7M3_PIPE] |697|  ; [KEEP 32-BIT INS]
    2063                            ; CALL OCCURS {IntEnable }       ; [] |697| 
    2064                            .dwpsn  file "../driverlib/des.c",line 698,column 1,is_stmt,isa 1
    2065                    $C$DW$108       .dwtag  DW_TAG_TI_branch
    2066                            .dwattr $C$DW$108, DW_AT_low_pc(0x00)
    2067                            .dwattr $C$DW$108, DW_AT_TI_return
    2068                    
    2069 00000282 BD0E              POP       {A2, A3, A4, PC}      ; [DPU_V7M3_PIPE]  ; [ORIG 16-BIT INS]
    2070                            .dwcfi  cfa_offset, 0
    2071                            .dwcfi  restore_reg, 3
    2072                            .dwcfi  restore_reg, 2
    2073                            .dwcfi  restore_reg, 1
    2074                            ; BRANCH OCCURS                  ; [] 
    2075                            .dwattr $C$DW$101, DW_AT_TI_end_file("../driverlib/des.c")
    2076                            .dwattr $C$DW$101, DW_AT_TI_end_line(0x2ba)
    2077                            .dwattr $C$DW$101, DW_AT_TI_end_column(0x01)
    2078                            .dwendentry
    2079                            .dwendtag $C$DW$101
    2080                    
    2081 00000284                   .sect   ".text"
    2082                            .clink
    2083                            .thumbfunc DESIntUnregister
    2084 00000284                   .thumb
    2085                            .global DESIntUnregister
    2086                    
    2087                    $C$DW$109       .dwtag  DW_TAG_subprogram
    2088                            .dwattr $C$DW$109, DW_AT_name("DESIntUnregister")
    2089                            .dwattr $C$DW$109, DW_AT_low_pc(DESIntUnregister)
    2090                            .dwattr $C$DW$109, DW_AT_high_pc(0x00)
TI ARM Assembler Unix v18.1.1 Fri Jul  3 20:08:23 2020

Tools Copyright (c) 1996-2017 Texas Instruments Incorporated
des.asm                                                              PAGE   39

    2091                            .dwattr $C$DW$109, DW_AT_TI_symbol_name("DESIntUnregister")
    2092                            .dwattr $C$DW$109, DW_AT_external
    2093                            .dwattr $C$DW$109, DW_AT_TI_begin_file("../driverlib/des.c")
    2094                            .dwattr $C$DW$109, DW_AT_TI_begin_line(0x2cc)
    2095                            .dwattr $C$DW$109, DW_AT_TI_begin_column(0x01)
    2096                            .dwattr $C$DW$109, DW_AT_decl_file("../driverlib/des.c")
    2097                            .dwattr $C$DW$109, DW_AT_decl_line(0x2cc)
    2098                            .dwattr $C$DW$109, DW_AT_decl_column(0x01)
    2099                            .dwattr $C$DW$109, DW_AT_TI_max_frame_size(0x08)
    2100                            .dwpsn  file "../driverlib/des.c",line 717,column 1,is_stmt,address DESIntUnregister,isa 1
    2101                    
    2102                            .dwfde $C$DW$CIE, DESIntUnregister
    2103                    $C$DW$110       .dwtag  DW_TAG_formal_parameter
    2104                            .dwattr $C$DW$110, DW_AT_name("ui32Base")
    2105                            .dwattr $C$DW$110, DW_AT_TI_symbol_name("ui32Base")
    2106                            .dwattr $C$DW$110, DW_AT_type(*$C$DW$T$27)
    2107                            .dwattr $C$DW$110, DW_AT_location[DW_OP_reg0]
    2108                    
    2109                    ;----------------------------------------------------------------------
    2110                    ; 716 | DESIntUnregister(uint32_t ui32Base)                                    
    2111                    ;----------------------------------------------------------------------
    2112                    
    2113                    ;*****************************************************************************
    2114                    ;* FUNCTION NAME: DESIntUnregister                                           *
    2115                    ;*                                                                           *
    2116                    ;*   Regs Modified     : A1,A2,A3,A4,V9,SP,LR,SR,D0,D0_hi,D1,D1_hi,D2,D2_hi, *
    2117                    ;*                           D3,D3_hi,D4,D4_hi,D5,D5_hi,D6,D6_hi,D7,D7_hi,   *
    2118                    ;*                           FPEXC,FPSCR                                     *
    2119                    ;*   Regs Used         : A1,A2,A3,A4,V9,SP,LR,SR,D0,D0_hi,D1,D1_hi,D2,D2_hi, *
    2120                    ;*                           D3,D3_hi,D4,D4_hi,D5,D5_hi,D6,D6_hi,D7,D7_hi,   *
    2121                    ;*                           FPEXC,FPSCR                                     *
    2122                    ;*   Local Frame Size  : 0 Args + 4 Auto + 4 Save = 8 byte                   *
    2123                    ;*****************************************************************************
    2124 00000284           DESIntUnregister:
    2125                    ;* --------------------------------------------------------------------------*
    2126                            .dwcfi  cfa_offset, 0
    2127 00000284 B508              PUSH      {A4, LR}              ; [DPU_V7M3_PIPE]  ; [ORIG 16-BIT INS]
    2128                            .dwcfi  cfa_offset, 8
    2129                            .dwcfi  save_reg_to_mem, 14, -4
    2130                            .dwcfi  save_reg_to_mem, 3, -8
    2131                    $C$DW$111       .dwtag  DW_TAG_variable
    2132                            .dwattr $C$DW$111, DW_AT_name("ui32Base")
    2133                            .dwattr $C$DW$111, DW_AT_TI_symbol_name("ui32Base")
    2134                            .dwattr $C$DW$111, DW_AT_type(*$C$DW$T$27)
    2135                            .dwattr $C$DW$111, DW_AT_location[DW_OP_breg13 0]
    2136                    
    2137                    ;----------------------------------------------------------------------
    2138                    ; 718 | //                                                                     
    2139                    ; 719 | // Check the arguments.                                                
    2140                    ; 720 | //                                                                     
    2141                    ; 721 | ASSERT(ui32Base == DES_BASE);                                          
    2142                    ; 723 | //                                                                     
    2143                    ; 724 | // Disable the interrupt.                                              
    2144                    ; 725 | //                                                                     
    2145                    ;----------------------------------------------------------------------
TI ARM Assembler Unix v18.1.1 Fri Jul  3 20:08:23 2020

Tools Copyright (c) 1996-2017 Texas Instruments Incorporated
des.asm                                                              PAGE   40

    2146 00000286 9000              STR       A1, [SP, #0]          ; [DPU_V7M3_PIPE] |717|  ; [ORIG 16-BIT INS]
    2147                            .dwpsn  file "../driverlib/des.c",line 726,column 5,is_stmt,isa 1
    2148                    ;----------------------------------------------------------------------
    2149                    ; 726 | IntDisable(INT_DES0_TM4C129);                                          
    2150                    ; 728 | //                                                                     
    2151                    ; 729 | // Unregister the interrupt handler.                                   
    2152                    ; 730 | //                                                                     
    2153                    ;----------------------------------------------------------------------
    2154 00000288 2070              MOVS      A1, #112              ; [DPU_V7M3_PIPE] |726|  ; [ORIG 16-BIT INS]
    2155                    $C$DW$112       .dwtag  DW_TAG_TI_branch
    2156                            .dwattr $C$DW$112, DW_AT_low_pc(0x00)
    2157                            .dwattr $C$DW$112, DW_AT_name("IntDisable")
    2158                            .dwattr $C$DW$112, DW_AT_TI_call
    2159                    
    2160 0000028a FFFEF7FF!         BL        IntDisable            ; [DPU_V7M3_PIPE] |726|  ; [KEEP 32-BIT INS]
    2161                            ; CALL OCCURS {IntDisable }      ; [] |726| 
    2162                            .dwpsn  file "../driverlib/des.c",line 731,column 5,is_stmt,isa 1
    2163                    ;----------------------------------------------------------------------
    2164                    ; 731 | IntUnregister(INT_DES0_TM4C129);                                       
    2165                    ;----------------------------------------------------------------------
    2166 0000028e 2070              MOVS      A1, #112              ; [DPU_V7M3_PIPE] |731|  ; [ORIG 16-BIT INS]
    2167                    $C$DW$113       .dwtag  DW_TAG_TI_branch
    2168                            .dwattr $C$DW$113, DW_AT_low_pc(0x00)
    2169                            .dwattr $C$DW$113, DW_AT_name("IntUnregister")
    2170                            .dwattr $C$DW$113, DW_AT_TI_call
    2171                    
    2172 00000290 FFFEF7FF!         BL        IntUnregister         ; [DPU_V7M3_PIPE] |731|  ; [KEEP 32-BIT INS]
    2173                            ; CALL OCCURS {IntUnregister }   ; [] |731| 
    2174                            .dwpsn  file "../driverlib/des.c",line 732,column 1,is_stmt,isa 1
    2175                    $C$DW$114       .dwtag  DW_TAG_TI_branch
    2176                            .dwattr $C$DW$114, DW_AT_low_pc(0x00)
    2177                            .dwattr $C$DW$114, DW_AT_TI_return
    2178                    
    2179 00000294 BD08              POP       {A4, PC}              ; [DPU_V7M3_PIPE]  ; [ORIG 16-BIT INS]
    2180                            .dwcfi  cfa_offset, 0
    2181                            .dwcfi  restore_reg, 3
    2182                            ; BRANCH OCCURS                  ; [] 
    2183                            .dwattr $C$DW$109, DW_AT_TI_end_file("../driverlib/des.c")
    2184                            .dwattr $C$DW$109, DW_AT_TI_end_line(0x2dc)
    2185                            .dwattr $C$DW$109, DW_AT_TI_end_column(0x01)
    2186                            .dwendentry
    2187                            .dwendtag $C$DW$109
    2188                    
    2189 00000296                   .sect   ".text"
    2190                            .clink
    2191                            .thumbfunc DESDMAEnable
    2192 00000296                   .thumb
    2193                            .global DESDMAEnable
    2194                    
    2195                    $C$DW$115       .dwtag  DW_TAG_subprogram
    2196                            .dwattr $C$DW$115, DW_AT_name("DESDMAEnable")
    2197                            .dwattr $C$DW$115, DW_AT_low_pc(DESDMAEnable)
    2198                            .dwattr $C$DW$115, DW_AT_high_pc(0x00)
    2199                            .dwattr $C$DW$115, DW_AT_TI_symbol_name("DESDMAEnable")
    2200                            .dwattr $C$DW$115, DW_AT_external
TI ARM Assembler Unix v18.1.1 Fri Jul  3 20:08:23 2020

Tools Copyright (c) 1996-2017 Texas Instruments Incorporated
des.asm                                                              PAGE   41

    2201                            .dwattr $C$DW$115, DW_AT_TI_begin_file("../driverlib/des.c")
    2202                            .dwattr $C$DW$115, DW_AT_TI_begin_line(0x2f0)
    2203                            .dwattr $C$DW$115, DW_AT_TI_begin_column(0x01)
    2204                            .dwattr $C$DW$115, DW_AT_decl_file("../driverlib/des.c")
    2205                            .dwattr $C$DW$115, DW_AT_decl_line(0x2f0)
    2206                            .dwattr $C$DW$115, DW_AT_decl_column(0x01)
    2207                            .dwattr $C$DW$115, DW_AT_TI_max_frame_size(0x08)
    2208                            .dwpsn  file "../driverlib/des.c",line 753,column 1,is_stmt,address DESDMAEnable,isa 1
    2209                    
    2210                            .dwfde $C$DW$CIE, DESDMAEnable
    2211                    $C$DW$116       .dwtag  DW_TAG_formal_parameter
    2212                            .dwattr $C$DW$116, DW_AT_name("ui32Base")
    2213                            .dwattr $C$DW$116, DW_AT_TI_symbol_name("ui32Base")
    2214                            .dwattr $C$DW$116, DW_AT_type(*$C$DW$T$27)
    2215                            .dwattr $C$DW$116, DW_AT_location[DW_OP_reg0]
    2216                    
    2217                    $C$DW$117       .dwtag  DW_TAG_formal_parameter
    2218                            .dwattr $C$DW$117, DW_AT_name("ui32Flags")
    2219                            .dwattr $C$DW$117, DW_AT_TI_symbol_name("ui32Flags")
    2220                            .dwattr $C$DW$117, DW_AT_type(*$C$DW$T$27)
    2221                            .dwattr $C$DW$117, DW_AT_location[DW_OP_reg1]
    2222                    
    2223                    ;----------------------------------------------------------------------
    2224                    ; 752 | DESDMAEnable(uint32_t ui32Base, uint32_t ui32Flags)                    
    2225                    ;----------------------------------------------------------------------
    2226                    
    2227                    ;*****************************************************************************
    2228                    ;* FUNCTION NAME: DESDMAEnable                                               *
    2229                    ;*                                                                           *
    2230                    ;*   Regs Modified     : A1,A2,A3,SP,SR                                      *
    2231                    ;*   Regs Used         : A1,A2,A3,SP,LR,SR                                   *
    2232                    ;*   Local Frame Size  : 0 Args + 8 Auto + 0 Save = 8 byte                   *
    2233                    ;*****************************************************************************
    2234 00000296           DESDMAEnable:
    2235                    ;* --------------------------------------------------------------------------*
    2236                            .dwcfi  cfa_offset, 0
    2237 00000296 0D08F1AD          SUB       SP, SP, #8            ; [DPU_V7M3_PIPE]  ; [KEEP 32-BIT INS]
    2238                            .dwcfi  cfa_offset, 8
    2239                    $C$DW$118       .dwtag  DW_TAG_variable
    2240                            .dwattr $C$DW$118, DW_AT_name("ui32Base")
    2241                            .dwattr $C$DW$118, DW_AT_TI_symbol_name("ui32Base")
    2242                            .dwattr $C$DW$118, DW_AT_type(*$C$DW$T$27)
    2243                            .dwattr $C$DW$118, DW_AT_location[DW_OP_breg13 0]
    2244                    
    2245                    $C$DW$119       .dwtag  DW_TAG_variable
    2246                            .dwattr $C$DW$119, DW_AT_name("ui32Flags")
    2247                            .dwattr $C$DW$119, DW_AT_TI_symbol_name("ui32Flags")
    2248                            .dwattr $C$DW$119, DW_AT_type(*$C$DW$T$27)
    2249                            .dwattr $C$DW$119, DW_AT_location[DW_OP_breg13 4]
    2250                    
    2251                    ;----------------------------------------------------------------------
    2252                    ; 754 | //                                                                     
    2253                    ; 755 | // Check the arguments.                                                
    2254                    ; 756 | //                                                                     
    2255                    ; 757 | ASSERT(ui32Base == DES_BASE);                                          
TI ARM Assembler Unix v18.1.1 Fri Jul  3 20:08:23 2020

Tools Copyright (c) 1996-2017 Texas Instruments Incorporated
des.asm                                                              PAGE   42

    2256                    ; 758 | ASSERT((ui32Flags & DES_DMA_CONTEXT_IN) ||                             
    2257                    ; 759 |        (ui32Flags & DES_DMA_DATA_OUT) ||                               
    2258                    ; 760 |        (ui32Flags & DES_DMA_DATA_IN));                                 
    2259                    ; 762 | //                                                                     
    2260                    ; 763 | // Set the data in and data out DMA request enable bits.               
    2261                    ; 764 | //                                                                     
    2262                    ;----------------------------------------------------------------------
    2263 0000029a 9101              STR       A2, [SP, #4]          ; [DPU_V7M3_PIPE] |753|  ; [ORIG 16-BIT INS]
    2264 0000029c 9000              STR       A1, [SP, #0]          ; [DPU_V7M3_PIPE] |753|  ; [ORIG 16-BIT INS]
    2265                            .dwpsn  file "../driverlib/des.c",line 765,column 5,is_stmt,isa 1
    2266                    ;----------------------------------------------------------------------
    2267                    ; 765 | HWREG(ui32Base + DES_O_SYSCONFIG) |= ui32Flags;                        
    2268                    ;----------------------------------------------------------------------
    2269 0000029e 9800              LDR       A1, [SP, #0]          ; [DPU_V7M3_PIPE] |765|  ; [ORIG 16-BIT INS]
    2270 000002a0 9901              LDR       A2, [SP, #4]          ; [DPU_V7M3_PIPE] |765|  ; [ORIG 16-BIT INS]
    2271 000002a2 3034              ADDS      A1, A1, #52           ; [DPU_V7M3_PIPE] |765|  ; [ORIG 16-BIT INS]
    2272 000002a4 6802              LDR       A3, [A1, #0]          ; [DPU_V7M3_PIPE] |765|  ; [ORIG 16-BIT INS]
    2273 000002a6 4311              ORRS      A2, A2, A3            ; [DPU_V7M3_PIPE] |765|  ; [ORIG 16-BIT INS]
    2274 000002a8 6001              STR       A2, [A1, #0]          ; [DPU_V7M3_PIPE] |765|  ; [ORIG 16-BIT INS]
    2275                            .dwpsn  file "../driverlib/des.c",line 766,column 1,is_stmt,isa 1
    2276 000002aa B002              ADD       SP, SP, #8            ; [DPU_V7M3_PIPE]  ; [ORIG 16-BIT INS]
    2277                            .dwcfi  cfa_offset, 0
    2278                    $C$DW$120       .dwtag  DW_TAG_TI_branch
    2279                            .dwattr $C$DW$120, DW_AT_low_pc(0x00)
    2280                            .dwattr $C$DW$120, DW_AT_TI_return
    2281                    
    2282 000002ac 4770              BX        LR                    ; [DPU_V7M3_PIPE]  ; [ORIG 16-BIT INS]
    2283                            ; BRANCH OCCURS                  ; [] 
    2284                            .dwattr $C$DW$115, DW_AT_TI_end_file("../driverlib/des.c")
    2285                            .dwattr $C$DW$115, DW_AT_TI_end_line(0x2fe)
    2286                            .dwattr $C$DW$115, DW_AT_TI_end_column(0x01)
    2287                            .dwendentry
    2288                            .dwendtag $C$DW$115
    2289                    
    2290 000002ae                   .sect   ".text"
    2291                            .clink
    2292                            .thumbfunc DESDMADisable
    2293 000002ae                   .thumb
    2294                            .global DESDMADisable
    2295                    
    2296                    $C$DW$121       .dwtag  DW_TAG_subprogram
    2297                            .dwattr $C$DW$121, DW_AT_name("DESDMADisable")
    2298                            .dwattr $C$DW$121, DW_AT_low_pc(DESDMADisable)
    2299                            .dwattr $C$DW$121, DW_AT_high_pc(0x00)
    2300                            .dwattr $C$DW$121, DW_AT_TI_symbol_name("DESDMADisable")
    2301                            .dwattr $C$DW$121, DW_AT_external
    2302                            .dwattr $C$DW$121, DW_AT_TI_begin_file("../driverlib/des.c")
    2303                            .dwattr $C$DW$121, DW_AT_TI_begin_line(0x312)
    2304                            .dwattr $C$DW$121, DW_AT_TI_begin_column(0x01)
    2305                            .dwattr $C$DW$121, DW_AT_decl_file("../driverlib/des.c")
    2306                            .dwattr $C$DW$121, DW_AT_decl_line(0x312)
    2307                            .dwattr $C$DW$121, DW_AT_decl_column(0x01)
    2308                            .dwattr $C$DW$121, DW_AT_TI_max_frame_size(0x08)
    2309                            .dwpsn  file "../driverlib/des.c",line 787,column 1,is_stmt,address DESDMADisable,isa 1
    2310                    
TI ARM Assembler Unix v18.1.1 Fri Jul  3 20:08:23 2020

Tools Copyright (c) 1996-2017 Texas Instruments Incorporated
des.asm                                                              PAGE   43

    2311                            .dwfde $C$DW$CIE, DESDMADisable
    2312                    $C$DW$122       .dwtag  DW_TAG_formal_parameter
    2313                            .dwattr $C$DW$122, DW_AT_name("ui32Base")
    2314                            .dwattr $C$DW$122, DW_AT_TI_symbol_name("ui32Base")
    2315                            .dwattr $C$DW$122, DW_AT_type(*$C$DW$T$27)
    2316                            .dwattr $C$DW$122, DW_AT_location[DW_OP_reg0]
    2317                    
    2318                    $C$DW$123       .dwtag  DW_TAG_formal_parameter
    2319                            .dwattr $C$DW$123, DW_AT_name("ui32Flags")
    2320                            .dwattr $C$DW$123, DW_AT_TI_symbol_name("ui32Flags")
    2321                            .dwattr $C$DW$123, DW_AT_type(*$C$DW$T$27)
    2322                            .dwattr $C$DW$123, DW_AT_location[DW_OP_reg1]
    2323                    
    2324                    ;----------------------------------------------------------------------
    2325                    ; 786 | DESDMADisable(uint32_t ui32Base, uint32_t ui32Flags)                   
    2326                    ;----------------------------------------------------------------------
    2327                    
    2328                    ;*****************************************************************************
    2329                    ;* FUNCTION NAME: DESDMADisable                                              *
    2330                    ;*                                                                           *
    2331                    ;*   Regs Modified     : A1,A2,A3,SP,SR                                      *
    2332                    ;*   Regs Used         : A1,A2,A3,SP,LR,SR                                   *
    2333                    ;*   Local Frame Size  : 0 Args + 8 Auto + 0 Save = 8 byte                   *
    2334                    ;*****************************************************************************
    2335 000002ae           DESDMADisable:
    2336                    ;* --------------------------------------------------------------------------*
    2337                            .dwcfi  cfa_offset, 0
    2338 000002ae 0D08F1AD          SUB       SP, SP, #8            ; [DPU_V7M3_PIPE]  ; [KEEP 32-BIT INS]
    2339                            .dwcfi  cfa_offset, 8
    2340                    $C$DW$124       .dwtag  DW_TAG_variable
    2341                            .dwattr $C$DW$124, DW_AT_name("ui32Base")
    2342                            .dwattr $C$DW$124, DW_AT_TI_symbol_name("ui32Base")
    2343                            .dwattr $C$DW$124, DW_AT_type(*$C$DW$T$27)
    2344                            .dwattr $C$DW$124, DW_AT_location[DW_OP_breg13 0]
    2345                    
    2346                    $C$DW$125       .dwtag  DW_TAG_variable
    2347                            .dwattr $C$DW$125, DW_AT_name("ui32Flags")
    2348                            .dwattr $C$DW$125, DW_AT_TI_symbol_name("ui32Flags")
    2349                            .dwattr $C$DW$125, DW_AT_type(*$C$DW$T$27)
    2350                            .dwattr $C$DW$125, DW_AT_location[DW_OP_breg13 4]
    2351                    
    2352                    ;----------------------------------------------------------------------
    2353                    ; 788 | //                                                                     
    2354                    ; 789 | // Check the arguments.                                                
    2355                    ; 790 | //                                                                     
    2356                    ; 791 | ASSERT(ui32Base == DES_BASE);                                          
    2357                    ; 792 | ASSERT((ui32Flags & DES_DMA_CONTEXT_IN) ||                             
    2358                    ; 793 |        (ui32Flags & DES_DMA_DATA_OUT) ||                               
    2359                    ; 794 |        (ui32Flags & DES_DMA_DATA_IN));                                 
    2360                    ; 796 | //                                                                     
    2361                    ; 797 | // Disable the DMA sources.                                            
    2362                    ; 798 | //                                                                     
    2363                    ;----------------------------------------------------------------------
    2364 000002b2 9101              STR       A2, [SP, #4]          ; [DPU_V7M3_PIPE] |787|  ; [ORIG 16-BIT INS]
    2365 000002b4 9000              STR       A1, [SP, #0]          ; [DPU_V7M3_PIPE] |787|  ; [ORIG 16-BIT INS]
TI ARM Assembler Unix v18.1.1 Fri Jul  3 20:08:23 2020

Tools Copyright (c) 1996-2017 Texas Instruments Incorporated
des.asm                                                              PAGE   44

    2366                            .dwpsn  file "../driverlib/des.c",line 799,column 5,is_stmt,isa 1
    2367                    ;----------------------------------------------------------------------
    2368                    ; 799 | HWREG(ui32Base + DES_O_SYSCONFIG) &= ~ui32Flags;                       
    2369                    ;----------------------------------------------------------------------
    2370 000002b6 9800              LDR       A1, [SP, #0]          ; [DPU_V7M3_PIPE] |799|  ; [ORIG 16-BIT INS]
    2371 000002b8 9A01              LDR       A3, [SP, #4]          ; [DPU_V7M3_PIPE] |799|  ; [ORIG 16-BIT INS]
    2372 000002ba 3034              ADDS      A1, A1, #52           ; [DPU_V7M3_PIPE] |799|  ; [ORIG 16-BIT INS]
    2373 000002bc 6801              LDR       A2, [A1, #0]          ; [DPU_V7M3_PIPE] |799|  ; [ORIG 16-BIT INS]
    2374 000002be 4391              BICS      A2, A2, A3            ; [DPU_V7M3_PIPE] |799|  ; [ORIG 16-BIT INS]
    2375 000002c0 6001              STR       A2, [A1, #0]          ; [DPU_V7M3_PIPE] |799|  ; [ORIG 16-BIT INS]
    2376                            .dwpsn  file "../driverlib/des.c",line 800,column 1,is_stmt,isa 1
    2377 000002c2 B002              ADD       SP, SP, #8            ; [DPU_V7M3_PIPE]  ; [ORIG 16-BIT INS]
    2378                            .dwcfi  cfa_offset, 0
    2379                    $C$DW$126       .dwtag  DW_TAG_TI_branch
    2380                            .dwattr $C$DW$126, DW_AT_low_pc(0x00)
    2381                            .dwattr $C$DW$126, DW_AT_TI_return
    2382                    
    2383 000002c4 4770              BX        LR                    ; [DPU_V7M3_PIPE]  ; [ORIG 16-BIT INS]
    2384                            ; BRANCH OCCURS                  ; [] 
    2385                            .dwattr $C$DW$121, DW_AT_TI_end_file("../driverlib/des.c")
    2386                            .dwattr $C$DW$121, DW_AT_TI_end_line(0x320)
    2387                            .dwattr $C$DW$121, DW_AT_TI_end_column(0x01)
    2388                            .dwendentry
    2389                            .dwendtag $C$DW$121
    2390                    
    2391                    ;******************************************************************************
    2392                    ;* CONSTANT TABLE                                                             *
    2393                    ;******************************************************************************
    2394 000002c6                   .sect   ".text"
    2395                            .align  4
    2396 000002c6 802846C0  ||$C$CON1||:    .bits   1141080104,32
         000002ca 00004403 
    2397                            .align  4
    2398 000002ca 802C4403  ||$C$CON2||:    .bits   1141080108,32
         000002ce 00004403 
    2399                            .align  4
    2400 000002ce 80384403  ||$C$CON3||:    .bits   -32712,32
         000002d2 0000FFFF 
    2401                            .align  4
    2402 000002d2 8034FFFF  ||$C$CON4||:    .bits   -32716,32
         000002d6 0000FFFF 
    2403                            .align  4
    2404 000002d6 8030FFFF  ||$C$CON5||:    .bits   -32720,32
         000002da 0000FFFF 
    2405                            .align  4
    2406 000002da 803CFFFF  ||$C$CON6||:    .bits   -32708,32
         000002de 0000FFFF 
    2407                    ;*****************************************************************************
    2408                    ;* UNDEFINED EXTERNAL REFERENCES                                             *
    2409                    ;*****************************************************************************
    2410                            .global IntRegister
    2411                            .global IntEnable
    2412                            .global IntDisable
    2413                            .global IntUnregister
    2414                    
TI ARM Assembler Unix v18.1.1 Fri Jul  3 20:08:23 2020

Tools Copyright (c) 1996-2017 Texas Instruments Incorporated
des.asm                                                              PAGE   45

    2415                    ;******************************************************************************
    2416                    ;* BUILD ATTRIBUTES                                                           *
    2417                    ;******************************************************************************
    2418                            .battr "aeabi", Tag_File, 1, Tag_ABI_PCS_wchar_t(2)
    2419                            .battr "aeabi", Tag_File, 1, Tag_ABI_FP_rounding(0)
    2420                            .battr "aeabi", Tag_File, 1, Tag_ABI_FP_denormal(0)
    2421                            .battr "aeabi", Tag_File, 1, Tag_ABI_FP_exceptions(0)
    2422                            .battr "aeabi", Tag_File, 1, Tag_ABI_FP_number_model(1)
    2423                            .battr "aeabi", Tag_File, 1, Tag_ABI_enum_size(0)
    2424                            .battr "aeabi", Tag_File, 1, Tag_ABI_optimization_goals(5)
    2425                            .battr "aeabi", Tag_File, 1, Tag_ABI_FP_optimization_goals(0)
    2426                            .battr "TI", Tag_File, 1, Tag_Bitfield_layout(2)
    2427                            .battr "aeabi", Tag_File, 1, Tag_ABI_VFP_args(3)
    2428                            .battr "TI", Tag_File, 1, Tag_FP_interface(1)
    2429                    
    2430                    ;******************************************************************************
    2431                    ;* TYPE INFORMATION                                                           *
    2432                    ;******************************************************************************
    2433                    
    2434                    $C$DW$T$21      .dwtag  DW_TAG_structure_type
    2435                            .dwattr $C$DW$T$21, DW_AT_byte_size(0x10)
    2436                    $C$DW$127       .dwtag  DW_TAG_member
    2437                            .dwattr $C$DW$127, DW_AT_type(*$C$DW$T$14)
    2438                            .dwattr $C$DW$127, DW_AT_name("__max_align1")
    2439                            .dwattr $C$DW$127, DW_AT_TI_symbol_name("__max_align1")
    2440                            .dwattr $C$DW$127, DW_AT_data_member_location[DW_OP_plus_uconst 0x0]
    2441                            .dwattr $C$DW$127, DW_AT_accessibility(DW_ACCESS_public)
    2442                            .dwattr $C$DW$127, DW_AT_decl_file("/home/pola/ti/ccsv8/tools/compiler/ti-cgt-arm_18.1.1.LTS/i
    2443                            .dwattr $C$DW$127, DW_AT_decl_line(0x70)
    2444                            .dwattr $C$DW$127, DW_AT_decl_column(0x0c)
    2445                    
    2446                    $C$DW$128       .dwtag  DW_TAG_member
    2447                            .dwattr $C$DW$128, DW_AT_type(*$C$DW$T$18)
    2448                            .dwattr $C$DW$128, DW_AT_name("__max_align2")
    2449                            .dwattr $C$DW$128, DW_AT_TI_symbol_name("__max_align2")
    2450                            .dwattr $C$DW$128, DW_AT_data_member_location[DW_OP_plus_uconst 0x8]
    2451                            .dwattr $C$DW$128, DW_AT_accessibility(DW_ACCESS_public)
    2452                            .dwattr $C$DW$128, DW_AT_decl_file("/home/pola/ti/ccsv8/tools/compiler/ti-cgt-arm_18.1.1.LTS/i
    2453                            .dwattr $C$DW$128, DW_AT_decl_line(0x71)
    2454                            .dwattr $C$DW$128, DW_AT_decl_column(0x0e)
    2455                    
    2456                            .dwattr $C$DW$T$21, DW_AT_decl_file("/home/pola/ti/ccsv8/tools/compiler/ti-cgt-arm_18.1.1.LTS/
    2457                            .dwattr $C$DW$T$21, DW_AT_decl_line(0x6f)
    2458                            .dwattr $C$DW$T$21, DW_AT_decl_column(0x10)
    2459                            .dwendtag $C$DW$T$21
    2460                    
    2461                    $C$DW$T$23      .dwtag  DW_TAG_typedef
    2462                            .dwattr $C$DW$T$23, DW_AT_name("__max_align_t")
    2463                            .dwattr $C$DW$T$23, DW_AT_type(*$C$DW$T$21)
    2464                            .dwattr $C$DW$T$23, DW_AT_language(DW_LANG_C)
    2465                            .dwattr $C$DW$T$23, DW_AT_decl_file("/home/pola/ti/ccsv8/tools/compiler/ti-cgt-arm_18.1.1.LTS/
    2466                            .dwattr $C$DW$T$23, DW_AT_decl_line(0x72)
    2467                            .dwattr $C$DW$T$23, DW_AT_decl_column(0x03)
    2468                    
    2469                    $C$DW$T$2       .dwtag  DW_TAG_unspecified_type
TI ARM Assembler Unix v18.1.1 Fri Jul  3 20:08:23 2020

Tools Copyright (c) 1996-2017 Texas Instruments Incorporated
des.asm                                                              PAGE   46

    2470                            .dwattr $C$DW$T$2, DW_AT_name("void")
    2471                    
    2472                    $C$DW$T$3       .dwtag  DW_TAG_pointer_type
    2473                            .dwattr $C$DW$T$3, DW_AT_type(*$C$DW$T$2)
    2474                            .dwattr $C$DW$T$3, DW_AT_address_class(0x20)
    2475                    
    2476                    
    2477                    $C$DW$T$24      .dwtag  DW_TAG_subroutine_type
    2478                            .dwattr $C$DW$T$24, DW_AT_language(DW_LANG_C)
    2479                            .dwendtag $C$DW$T$24
    2480                    
    2481                    $C$DW$T$25      .dwtag  DW_TAG_pointer_type
    2482                            .dwattr $C$DW$T$25, DW_AT_type(*$C$DW$T$24)
    2483                            .dwattr $C$DW$T$25, DW_AT_address_class(0x20)
    2484                    
    2485                    $C$DW$T$4       .dwtag  DW_TAG_base_type
    2486                            .dwattr $C$DW$T$4, DW_AT_encoding(DW_ATE_boolean)
    2487                            .dwattr $C$DW$T$4, DW_AT_name("bool")
    2488                            .dwattr $C$DW$T$4, DW_AT_byte_size(0x01)
    2489                    
    2490                    $C$DW$T$5       .dwtag  DW_TAG_base_type
    2491                            .dwattr $C$DW$T$5, DW_AT_encoding(DW_ATE_signed_char)
    2492                            .dwattr $C$DW$T$5, DW_AT_name("signed char")
    2493                            .dwattr $C$DW$T$5, DW_AT_byte_size(0x01)
    2494                    
    2495                    $C$DW$T$35      .dwtag  DW_TAG_typedef
    2496                            .dwattr $C$DW$T$35, DW_AT_name("__int8_t")
    2497                            .dwattr $C$DW$T$35, DW_AT_type(*$C$DW$T$5)
    2498                            .dwattr $C$DW$T$35, DW_AT_language(DW_LANG_C)
    2499                            .dwattr $C$DW$T$35, DW_AT_decl_file("/home/pola/ti/ccsv8/tools/compiler/ti-cgt-arm_18.1.1.LTS/
    2500                            .dwattr $C$DW$T$35, DW_AT_decl_line(0x39)
    2501                            .dwattr $C$DW$T$35, DW_AT_decl_column(0x16)
    2502                    
    2503                    $C$DW$T$36      .dwtag  DW_TAG_typedef
    2504                            .dwattr $C$DW$T$36, DW_AT_name("__int_least8_t")
    2505                            .dwattr $C$DW$T$36, DW_AT_type(*$C$DW$T$35)
    2506                            .dwattr $C$DW$T$36, DW_AT_language(DW_LANG_C)
    2507                            .dwattr $C$DW$T$36, DW_AT_decl_file("/home/pola/ti/ccsv8/tools/compiler/ti-cgt-arm_18.1.1.LTS/
    2508                            .dwattr $C$DW$T$36, DW_AT_decl_line(0x58)
    2509                            .dwattr $C$DW$T$36, DW_AT_decl_column(0x12)
    2510                    
    2511                    $C$DW$T$37      .dwtag  DW_TAG_typedef
    2512                            .dwattr $C$DW$T$37, DW_AT_name("int_least8_t")
    2513                            .dwattr $C$DW$T$37, DW_AT_type(*$C$DW$T$36)
    2514                            .dwattr $C$DW$T$37, DW_AT_language(DW_LANG_C)
    2515                            .dwattr $C$DW$T$37, DW_AT_decl_file("/home/pola/ti/ccsv8/tools/compiler/ti-cgt-arm_18.1.1.LTS/
    2516                            .dwattr $C$DW$T$37, DW_AT_decl_line(0x28)
    2517                            .dwattr $C$DW$T$37, DW_AT_decl_column(0x19)
    2518                    
    2519                    $C$DW$T$38      .dwtag  DW_TAG_typedef
    2520                            .dwattr $C$DW$T$38, DW_AT_name("int8_t")
    2521                            .dwattr $C$DW$T$38, DW_AT_type(*$C$DW$T$35)
    2522                            .dwattr $C$DW$T$38, DW_AT_language(DW_LANG_C)
    2523                            .dwattr $C$DW$T$38, DW_AT_decl_file("/home/pola/ti/ccsv8/tools/compiler/ti-cgt-arm_18.1.1.LTS/
    2524                            .dwattr $C$DW$T$38, DW_AT_decl_line(0x24)
TI ARM Assembler Unix v18.1.1 Fri Jul  3 20:08:23 2020

Tools Copyright (c) 1996-2017 Texas Instruments Incorporated
des.asm                                                              PAGE   47

    2525                            .dwattr $C$DW$T$38, DW_AT_decl_column(0x13)
    2526                    
    2527                    $C$DW$T$6       .dwtag  DW_TAG_base_type
    2528                            .dwattr $C$DW$T$6, DW_AT_encoding(DW_ATE_unsigned_char)
    2529                            .dwattr $C$DW$T$6, DW_AT_name("unsigned char")
    2530                            .dwattr $C$DW$T$6, DW_AT_byte_size(0x01)
    2531                    
    2532                    $C$DW$T$39      .dwtag  DW_TAG_typedef
    2533                            .dwattr $C$DW$T$39, DW_AT_name("__uint8_t")
    2534                            .dwattr $C$DW$T$39, DW_AT_type(*$C$DW$T$6)
    2535                            .dwattr $C$DW$T$39, DW_AT_language(DW_LANG_C)
    2536                            .dwattr $C$DW$T$39, DW_AT_decl_file("/home/pola/ti/ccsv8/tools/compiler/ti-cgt-arm_18.1.1.LTS/
    2537                            .dwattr $C$DW$T$39, DW_AT_decl_line(0x3a)
    2538                            .dwattr $C$DW$T$39, DW_AT_decl_column(0x18)
    2539                    
    2540                    $C$DW$T$40      .dwtag  DW_TAG_typedef
    2541                            .dwattr $C$DW$T$40, DW_AT_name("__sa_family_t")
    2542                            .dwattr $C$DW$T$40, DW_AT_type(*$C$DW$T$39)
    2543                            .dwattr $C$DW$T$40, DW_AT_language(DW_LANG_C)
    2544                            .dwattr $C$DW$T$40, DW_AT_decl_file("/home/pola/ti/ccsv8/tools/compiler/ti-cgt-arm_18.1.1.LTS/
    2545                            .dwattr $C$DW$T$40, DW_AT_decl_line(0x43)
    2546                            .dwattr $C$DW$T$40, DW_AT_decl_column(0x13)
    2547                    
    2548                    $C$DW$T$41      .dwtag  DW_TAG_typedef
    2549                            .dwattr $C$DW$T$41, DW_AT_name("__uint_least8_t")
    2550                            .dwattr $C$DW$T$41, DW_AT_type(*$C$DW$T$39)
    2551                            .dwattr $C$DW$T$41, DW_AT_language(DW_LANG_C)
    2552                            .dwattr $C$DW$T$41, DW_AT_decl_file("/home/pola/ti/ccsv8/tools/compiler/ti-cgt-arm_18.1.1.LTS/
    2553                            .dwattr $C$DW$T$41, DW_AT_decl_line(0x6d)
    2554                            .dwattr $C$DW$T$41, DW_AT_decl_column(0x13)
    2555                    
    2556                    $C$DW$T$42      .dwtag  DW_TAG_typedef
    2557                            .dwattr $C$DW$T$42, DW_AT_name("uint_least8_t")
    2558                            .dwattr $C$DW$T$42, DW_AT_type(*$C$DW$T$41)
    2559                            .dwattr $C$DW$T$42, DW_AT_language(DW_LANG_C)
    2560                            .dwattr $C$DW$T$42, DW_AT_decl_file("/home/pola/ti/ccsv8/tools/compiler/ti-cgt-arm_18.1.1.LTS/
    2561                            .dwattr $C$DW$T$42, DW_AT_decl_line(0x2d)
    2562                            .dwattr $C$DW$T$42, DW_AT_decl_column(0x1a)
    2563                    
    2564                    $C$DW$T$43      .dwtag  DW_TAG_typedef
    2565                            .dwattr $C$DW$T$43, DW_AT_name("uint8_t")
    2566                            .dwattr $C$DW$T$43, DW_AT_type(*$C$DW$T$39)
    2567                            .dwattr $C$DW$T$43, DW_AT_language(DW_LANG_C)
    2568                            .dwattr $C$DW$T$43, DW_AT_decl_file("/home/pola/ti/ccsv8/tools/compiler/ti-cgt-arm_18.1.1.LTS/
    2569                            .dwattr $C$DW$T$43, DW_AT_decl_line(0x38)
    2570                            .dwattr $C$DW$T$43, DW_AT_decl_column(0x14)
    2571                    
    2572                    $C$DW$T$7       .dwtag  DW_TAG_base_type
    2573                            .dwattr $C$DW$T$7, DW_AT_encoding(DW_ATE_signed_char)
    2574                            .dwattr $C$DW$T$7, DW_AT_name("wchar_t")
    2575                            .dwattr $C$DW$T$7, DW_AT_byte_size(0x02)
    2576                    
    2577                    $C$DW$T$8       .dwtag  DW_TAG_base_type
    2578                            .dwattr $C$DW$T$8, DW_AT_encoding(DW_ATE_signed)
    2579                            .dwattr $C$DW$T$8, DW_AT_name("short")
TI ARM Assembler Unix v18.1.1 Fri Jul  3 20:08:23 2020

Tools Copyright (c) 1996-2017 Texas Instruments Incorporated
des.asm                                                              PAGE   48

    2580                            .dwattr $C$DW$T$8, DW_AT_byte_size(0x02)
    2581                    
    2582                    $C$DW$T$44      .dwtag  DW_TAG_typedef
    2583                            .dwattr $C$DW$T$44, DW_AT_name("__int16_t")
    2584                            .dwattr $C$DW$T$44, DW_AT_type(*$C$DW$T$8)
    2585                            .dwattr $C$DW$T$44, DW_AT_language(DW_LANG_C)
    2586                            .dwattr $C$DW$T$44, DW_AT_decl_file("/home/pola/ti/ccsv8/tools/compiler/ti-cgt-arm_18.1.1.LTS/
    2587                            .dwattr $C$DW$T$44, DW_AT_decl_line(0x3b)
    2588                            .dwattr $C$DW$T$44, DW_AT_decl_column(0x11)
    2589                    
    2590                    $C$DW$T$45      .dwtag  DW_TAG_typedef
    2591                            .dwattr $C$DW$T$45, DW_AT_name("__int_least16_t")
    2592                            .dwattr $C$DW$T$45, DW_AT_type(*$C$DW$T$44)
    2593                            .dwattr $C$DW$T$45, DW_AT_language(DW_LANG_C)
    2594                            .dwattr $C$DW$T$45, DW_AT_decl_file("/home/pola/ti/ccsv8/tools/compiler/ti-cgt-arm_18.1.1.LTS/
    2595                            .dwattr $C$DW$T$45, DW_AT_decl_line(0x59)
    2596                            .dwattr $C$DW$T$45, DW_AT_decl_column(0x13)
    2597                    
    2598                    $C$DW$T$46      .dwtag  DW_TAG_typedef
    2599                            .dwattr $C$DW$T$46, DW_AT_name("int_least16_t")
    2600                            .dwattr $C$DW$T$46, DW_AT_type(*$C$DW$T$45)
    2601                            .dwattr $C$DW$T$46, DW_AT_language(DW_LANG_C)
    2602                            .dwattr $C$DW$T$46, DW_AT_decl_file("/home/pola/ti/ccsv8/tools/compiler/ti-cgt-arm_18.1.1.LTS/
    2603                            .dwattr $C$DW$T$46, DW_AT_decl_line(0x29)
    2604                            .dwattr $C$DW$T$46, DW_AT_decl_column(0x1a)
    2605                    
    2606                    $C$DW$T$47      .dwtag  DW_TAG_typedef
    2607                            .dwattr $C$DW$T$47, DW_AT_name("int16_t")
    2608                            .dwattr $C$DW$T$47, DW_AT_type(*$C$DW$T$44)
    2609                            .dwattr $C$DW$T$47, DW_AT_language(DW_LANG_C)
    2610                            .dwattr $C$DW$T$47, DW_AT_decl_file("/home/pola/ti/ccsv8/tools/compiler/ti-cgt-arm_18.1.1.LTS/
    2611                            .dwattr $C$DW$T$47, DW_AT_decl_line(0x29)
    2612                            .dwattr $C$DW$T$47, DW_AT_decl_column(0x14)
    2613                    
    2614                    $C$DW$T$9       .dwtag  DW_TAG_base_type
    2615                            .dwattr $C$DW$T$9, DW_AT_encoding(DW_ATE_unsigned)
    2616                            .dwattr $C$DW$T$9, DW_AT_name("unsigned short")
    2617                            .dwattr $C$DW$T$9, DW_AT_byte_size(0x02)
    2618                    
    2619                    $C$DW$T$48      .dwtag  DW_TAG_typedef
    2620                            .dwattr $C$DW$T$48, DW_AT_name("___wchar_t")
    2621                            .dwattr $C$DW$T$48, DW_AT_type(*$C$DW$T$9)
    2622                            .dwattr $C$DW$T$48, DW_AT_language(DW_LANG_C)
    2623                            .dwattr $C$DW$T$48, DW_AT_decl_file("/home/pola/ti/ccsv8/tools/compiler/ti-cgt-arm_18.1.1.LTS/
    2624                            .dwattr $C$DW$T$48, DW_AT_decl_line(0x76)
    2625                            .dwattr $C$DW$T$48, DW_AT_decl_column(0x1a)
    2626                    
    2627                    $C$DW$T$49      .dwtag  DW_TAG_typedef
    2628                            .dwattr $C$DW$T$49, DW_AT_name("__uint16_t")
    2629                            .dwattr $C$DW$T$49, DW_AT_type(*$C$DW$T$9)
    2630                            .dwattr $C$DW$T$49, DW_AT_language(DW_LANG_C)
    2631                            .dwattr $C$DW$T$49, DW_AT_decl_file("/home/pola/ti/ccsv8/tools/compiler/ti-cgt-arm_18.1.1.LTS/
    2632                            .dwattr $C$DW$T$49, DW_AT_decl_line(0x3c)
    2633                            .dwattr $C$DW$T$49, DW_AT_decl_column(0x19)
    2634                    
TI ARM Assembler Unix v18.1.1 Fri Jul  3 20:08:23 2020

Tools Copyright (c) 1996-2017 Texas Instruments Incorporated
des.asm                                                              PAGE   49

    2635                    $C$DW$T$50      .dwtag  DW_TAG_typedef
    2636                            .dwattr $C$DW$T$50, DW_AT_name("__mode_t")
    2637                            .dwattr $C$DW$T$50, DW_AT_type(*$C$DW$T$49)
    2638                            .dwattr $C$DW$T$50, DW_AT_language(DW_LANG_C)
    2639                            .dwattr $C$DW$T$50, DW_AT_decl_file("/home/pola/ti/ccsv8/tools/compiler/ti-cgt-arm_18.1.1.LTS/
    2640                            .dwattr $C$DW$T$50, DW_AT_decl_line(0x39)
    2641                            .dwattr $C$DW$T$50, DW_AT_decl_column(0x14)
    2642                    
    2643                    $C$DW$T$51      .dwtag  DW_TAG_typedef
    2644                            .dwattr $C$DW$T$51, DW_AT_name("__uint_least16_t")
    2645                            .dwattr $C$DW$T$51, DW_AT_type(*$C$DW$T$49)
    2646                            .dwattr $C$DW$T$51, DW_AT_language(DW_LANG_C)
    2647                            .dwattr $C$DW$T$51, DW_AT_decl_file("/home/pola/ti/ccsv8/tools/compiler/ti-cgt-arm_18.1.1.LTS/
    2648                            .dwattr $C$DW$T$51, DW_AT_decl_line(0x6e)
    2649                            .dwattr $C$DW$T$51, DW_AT_decl_column(0x14)
    2650                    
    2651                    $C$DW$T$52      .dwtag  DW_TAG_typedef
    2652                            .dwattr $C$DW$T$52, DW_AT_name("__char16_t")
    2653                            .dwattr $C$DW$T$52, DW_AT_type(*$C$DW$T$51)
    2654                            .dwattr $C$DW$T$52, DW_AT_language(DW_LANG_C)
    2655                            .dwattr $C$DW$T$52, DW_AT_decl_file("/home/pola/ti/ccsv8/tools/compiler/ti-cgt-arm_18.1.1.LTS/
    2656                            .dwattr $C$DW$T$52, DW_AT_decl_line(0x66)
    2657                            .dwattr $C$DW$T$52, DW_AT_decl_column(0x1a)
    2658                    
    2659                    $C$DW$T$53      .dwtag  DW_TAG_typedef
    2660                            .dwattr $C$DW$T$53, DW_AT_name("uint_least16_t")
    2661                            .dwattr $C$DW$T$53, DW_AT_type(*$C$DW$T$51)
    2662                            .dwattr $C$DW$T$53, DW_AT_language(DW_LANG_C)
    2663                            .dwattr $C$DW$T$53, DW_AT_decl_file("/home/pola/ti/ccsv8/tools/compiler/ti-cgt-arm_18.1.1.LTS/
    2664                            .dwattr $C$DW$T$53, DW_AT_decl_line(0x2e)
    2665                            .dwattr $C$DW$T$53, DW_AT_decl_column(0x1a)
    2666                    
    2667                    $C$DW$T$54      .dwtag  DW_TAG_typedef
    2668                            .dwattr $C$DW$T$54, DW_AT_name("uint16_t")
    2669                            .dwattr $C$DW$T$54, DW_AT_type(*$C$DW$T$49)
    2670                            .dwattr $C$DW$T$54, DW_AT_language(DW_LANG_C)
    2671                            .dwattr $C$DW$T$54, DW_AT_decl_file("/home/pola/ti/ccsv8/tools/compiler/ti-cgt-arm_18.1.1.LTS/
    2672                            .dwattr $C$DW$T$54, DW_AT_decl_line(0x3d)
    2673                            .dwattr $C$DW$T$54, DW_AT_decl_column(0x15)
    2674                    
    2675                    $C$DW$T$10      .dwtag  DW_TAG_base_type
    2676                            .dwattr $C$DW$T$10, DW_AT_encoding(DW_ATE_signed)
    2677                            .dwattr $C$DW$T$10, DW_AT_name("int")
    2678                            .dwattr $C$DW$T$10, DW_AT_byte_size(0x04)
    2679                    
    2680                    $C$DW$T$55      .dwtag  DW_TAG_typedef
    2681                            .dwattr $C$DW$T$55, DW_AT_name("_Mbstatet")
    2682                            .dwattr $C$DW$T$55, DW_AT_type(*$C$DW$T$10)
    2683                            .dwattr $C$DW$T$55, DW_AT_language(DW_LANG_C)
    2684                            .dwattr $C$DW$T$55, DW_AT_decl_file("/home/pola/ti/ccsv8/tools/compiler/ti-cgt-arm_18.1.1.LTS/
    2685                            .dwattr $C$DW$T$55, DW_AT_decl_line(0x84)
    2686                            .dwattr $C$DW$T$55, DW_AT_decl_column(0x0d)
    2687                    
    2688                    $C$DW$T$56      .dwtag  DW_TAG_typedef
    2689                            .dwattr $C$DW$T$56, DW_AT_name("__mbstate_t")
TI ARM Assembler Unix v18.1.1 Fri Jul  3 20:08:23 2020

Tools Copyright (c) 1996-2017 Texas Instruments Incorporated
des.asm                                                              PAGE   50

    2690                            .dwattr $C$DW$T$56, DW_AT_type(*$C$DW$T$55)
    2691                            .dwattr $C$DW$T$56, DW_AT_language(DW_LANG_C)
    2692                            .dwattr $C$DW$T$56, DW_AT_decl_file("/home/pola/ti/ccsv8/tools/compiler/ti-cgt-arm_18.1.1.LTS/
    2693                            .dwattr $C$DW$T$56, DW_AT_decl_line(0x87)
    2694                            .dwattr $C$DW$T$56, DW_AT_decl_column(0x13)
    2695                    
    2696                    $C$DW$T$57      .dwtag  DW_TAG_typedef
    2697                            .dwattr $C$DW$T$57, DW_AT_name("__accmode_t")
    2698                            .dwattr $C$DW$T$57, DW_AT_type(*$C$DW$T$10)
    2699                            .dwattr $C$DW$T$57, DW_AT_language(DW_LANG_C)
    2700                            .dwattr $C$DW$T$57, DW_AT_decl_file("/home/pola/ti/ccsv8/tools/compiler/ti-cgt-arm_18.1.1.LTS/
    2701                            .dwattr $C$DW$T$57, DW_AT_decl_line(0x3a)
    2702                            .dwattr $C$DW$T$57, DW_AT_decl_column(0x0e)
    2703                    
    2704                    $C$DW$T$58      .dwtag  DW_TAG_typedef
    2705                            .dwattr $C$DW$T$58, DW_AT_name("__cpulevel_t")
    2706                            .dwattr $C$DW$T$58, DW_AT_type(*$C$DW$T$10)
    2707                            .dwattr $C$DW$T$58, DW_AT_language(DW_LANG_C)
    2708                            .dwattr $C$DW$T$58, DW_AT_decl_file("/home/pola/ti/ccsv8/tools/compiler/ti-cgt-arm_18.1.1.LTS/
    2709                            .dwattr $C$DW$T$58, DW_AT_decl_line(0x4b)
    2710                            .dwattr $C$DW$T$58, DW_AT_decl_column(0x0e)
    2711                    
    2712                    $C$DW$T$59      .dwtag  DW_TAG_typedef
    2713                            .dwattr $C$DW$T$59, DW_AT_name("__cpusetid_t")
    2714                            .dwattr $C$DW$T$59, DW_AT_type(*$C$DW$T$10)
    2715                            .dwattr $C$DW$T$59, DW_AT_language(DW_LANG_C)
    2716                            .dwattr $C$DW$T$59, DW_AT_decl_file("/home/pola/ti/ccsv8/tools/compiler/ti-cgt-arm_18.1.1.LTS/
    2717                            .dwattr $C$DW$T$59, DW_AT_decl_line(0x4c)
    2718                            .dwattr $C$DW$T$59, DW_AT_decl_column(0x0e)
    2719                    
    2720                    $C$DW$T$60      .dwtag  DW_TAG_typedef
    2721                            .dwattr $C$DW$T$60, DW_AT_name("__cpuwhich_t")
    2722                            .dwattr $C$DW$T$60, DW_AT_type(*$C$DW$T$10)
    2723                            .dwattr $C$DW$T$60, DW_AT_language(DW_LANG_C)
    2724                            .dwattr $C$DW$T$60, DW_AT_decl_file("/home/pola/ti/ccsv8/tools/compiler/ti-cgt-arm_18.1.1.LTS/
    2725                            .dwattr $C$DW$T$60, DW_AT_decl_line(0x4a)
    2726                            .dwattr $C$DW$T$60, DW_AT_decl_column(0x0e)
    2727                    
    2728                    $C$DW$T$61      .dwtag  DW_TAG_typedef
    2729                            .dwattr $C$DW$T$61, DW_AT_name("__ct_rune_t")
    2730                            .dwattr $C$DW$T$61, DW_AT_type(*$C$DW$T$10)
    2731                            .dwattr $C$DW$T$61, DW_AT_language(DW_LANG_C)
    2732                            .dwattr $C$DW$T$61, DW_AT_decl_file("/home/pola/ti/ccsv8/tools/compiler/ti-cgt-arm_18.1.1.LTS/
    2733                            .dwattr $C$DW$T$61, DW_AT_decl_line(0x60)
    2734                            .dwattr $C$DW$T$61, DW_AT_decl_column(0x0e)
    2735                    
    2736                    $C$DW$T$62      .dwtag  DW_TAG_typedef
    2737                            .dwattr $C$DW$T$62, DW_AT_name("__rune_t")
    2738                            .dwattr $C$DW$T$62, DW_AT_type(*$C$DW$T$61)
    2739                            .dwattr $C$DW$T$62, DW_AT_language(DW_LANG_C)
    2740                            .dwattr $C$DW$T$62, DW_AT_decl_file("/home/pola/ti/ccsv8/tools/compiler/ti-cgt-arm_18.1.1.LTS/
    2741                            .dwattr $C$DW$T$62, DW_AT_decl_line(0x61)
    2742                            .dwattr $C$DW$T$62, DW_AT_decl_column(0x15)
    2743                    
    2744                    $C$DW$T$63      .dwtag  DW_TAG_typedef
TI ARM Assembler Unix v18.1.1 Fri Jul  3 20:08:23 2020

Tools Copyright (c) 1996-2017 Texas Instruments Incorporated
des.asm                                                              PAGE   51

    2745                            .dwattr $C$DW$T$63, DW_AT_name("__wint_t")
    2746                            .dwattr $C$DW$T$63, DW_AT_type(*$C$DW$T$61)
    2747                            .dwattr $C$DW$T$63, DW_AT_language(DW_LANG_C)
    2748                            .dwattr $C$DW$T$63, DW_AT_decl_file("/home/pola/ti/ccsv8/tools/compiler/ti-cgt-arm_18.1.1.LTS/
    2749                            .dwattr $C$DW$T$63, DW_AT_decl_line(0x62)
    2750                            .dwattr $C$DW$T$63, DW_AT_decl_column(0x15)
    2751                    
    2752                    $C$DW$T$64      .dwtag  DW_TAG_typedef
    2753                            .dwattr $C$DW$T$64, DW_AT_name("__int32_t")
    2754                            .dwattr $C$DW$T$64, DW_AT_type(*$C$DW$T$10)
    2755                            .dwattr $C$DW$T$64, DW_AT_language(DW_LANG_C)
    2756                            .dwattr $C$DW$T$64, DW_AT_decl_file("/home/pola/ti/ccsv8/tools/compiler/ti-cgt-arm_18.1.1.LTS/
    2757                            .dwattr $C$DW$T$64, DW_AT_decl_line(0x3d)
    2758                            .dwattr $C$DW$T$64, DW_AT_decl_column(0x0f)
    2759                    
    2760                    $C$DW$T$65      .dwtag  DW_TAG_typedef
    2761                            .dwattr $C$DW$T$65, DW_AT_name("__blksize_t")
    2762                            .dwattr $C$DW$T$65, DW_AT_type(*$C$DW$T$64)
    2763                            .dwattr $C$DW$T$65, DW_AT_language(DW_LANG_C)
    2764                            .dwattr $C$DW$T$65, DW_AT_decl_file("/home/pola/ti/ccsv8/tools/compiler/ti-cgt-arm_18.1.1.LTS/
    2765                            .dwattr $C$DW$T$65, DW_AT_decl_line(0x2e)
    2766                            .dwattr $C$DW$T$65, DW_AT_decl_column(0x13)
    2767                    
    2768                    $C$DW$T$66      .dwtag  DW_TAG_typedef
    2769                            .dwattr $C$DW$T$66, DW_AT_name("__clockid_t")
    2770                            .dwattr $C$DW$T$66, DW_AT_type(*$C$DW$T$64)
    2771                            .dwattr $C$DW$T$66, DW_AT_language(DW_LANG_C)
    2772                            .dwattr $C$DW$T$66, DW_AT_decl_file("/home/pola/ti/ccsv8/tools/compiler/ti-cgt-arm_18.1.1.LTS/
    2773                            .dwattr $C$DW$T$66, DW_AT_decl_line(0x30)
    2774                            .dwattr $C$DW$T$66, DW_AT_decl_column(0x13)
    2775                    
    2776                    $C$DW$T$67      .dwtag  DW_TAG_typedef
    2777                            .dwattr $C$DW$T$67, DW_AT_name("__critical_t")
    2778                            .dwattr $C$DW$T$67, DW_AT_type(*$C$DW$T$64)
    2779                            .dwattr $C$DW$T$67, DW_AT_language(DW_LANG_C)
    2780                            .dwattr $C$DW$T$67, DW_AT_decl_file("/home/pola/ti/ccsv8/tools/compiler/ti-cgt-arm_18.1.1.LTS/
    2781                            .dwattr $C$DW$T$67, DW_AT_decl_line(0x4e)
    2782                            .dwattr $C$DW$T$67, DW_AT_decl_column(0x13)
    2783                    
    2784                    $C$DW$T$68      .dwtag  DW_TAG_typedef
    2785                            .dwattr $C$DW$T$68, DW_AT_name("__int_fast16_t")
    2786                            .dwattr $C$DW$T$68, DW_AT_type(*$C$DW$T$64)
    2787                            .dwattr $C$DW$T$68, DW_AT_language(DW_LANG_C)
    2788                            .dwattr $C$DW$T$68, DW_AT_decl_file("/home/pola/ti/ccsv8/tools/compiler/ti-cgt-arm_18.1.1.LTS/
    2789                            .dwattr $C$DW$T$68, DW_AT_decl_line(0x55)
    2790                            .dwattr $C$DW$T$68, DW_AT_decl_column(0x13)
    2791                    
    2792                    $C$DW$T$69      .dwtag  DW_TAG_typedef
    2793                            .dwattr $C$DW$T$69, DW_AT_name("int_fast16_t")
    2794                            .dwattr $C$DW$T$69, DW_AT_type(*$C$DW$T$68)
    2795                            .dwattr $C$DW$T$69, DW_AT_language(DW_LANG_C)
    2796                            .dwattr $C$DW$T$69, DW_AT_decl_file("/home/pola/ti/ccsv8/tools/compiler/ti-cgt-arm_18.1.1.LTS/
    2797                            .dwattr $C$DW$T$69, DW_AT_decl_line(0x33)
    2798                            .dwattr $C$DW$T$69, DW_AT_decl_column(0x19)
    2799                    
TI ARM Assembler Unix v18.1.1 Fri Jul  3 20:08:23 2020

Tools Copyright (c) 1996-2017 Texas Instruments Incorporated
des.asm                                                              PAGE   52

    2800                    $C$DW$T$70      .dwtag  DW_TAG_typedef
    2801                            .dwattr $C$DW$T$70, DW_AT_name("__int_fast32_t")
    2802                            .dwattr $C$DW$T$70, DW_AT_type(*$C$DW$T$64)
    2803                            .dwattr $C$DW$T$70, DW_AT_language(DW_LANG_C)
    2804                            .dwattr $C$DW$T$70, DW_AT_decl_file("/home/pola/ti/ccsv8/tools/compiler/ti-cgt-arm_18.1.1.LTS/
    2805                            .dwattr $C$DW$T$70, DW_AT_decl_line(0x56)
    2806                            .dwattr $C$DW$T$70, DW_AT_decl_column(0x13)
    2807                    
    2808                    $C$DW$T$71      .dwtag  DW_TAG_typedef
    2809                            .dwattr $C$DW$T$71, DW_AT_name("int_fast32_t")
    2810                            .dwattr $C$DW$T$71, DW_AT_type(*$C$DW$T$70)
    2811                            .dwattr $C$DW$T$71, DW_AT_language(DW_LANG_C)
    2812                            .dwattr $C$DW$T$71, DW_AT_decl_file("/home/pola/ti/ccsv8/tools/compiler/ti-cgt-arm_18.1.1.LTS/
    2813                            .dwattr $C$DW$T$71, DW_AT_decl_line(0x34)
    2814                            .dwattr $C$DW$T$71, DW_AT_decl_column(0x19)
    2815                    
    2816                    $C$DW$T$72      .dwtag  DW_TAG_typedef
    2817                            .dwattr $C$DW$T$72, DW_AT_name("__int_fast8_t")
    2818                            .dwattr $C$DW$T$72, DW_AT_type(*$C$DW$T$64)
    2819                            .dwattr $C$DW$T$72, DW_AT_language(DW_LANG_C)
    2820                            .dwattr $C$DW$T$72, DW_AT_decl_file("/home/pola/ti/ccsv8/tools/compiler/ti-cgt-arm_18.1.1.LTS/
    2821                            .dwattr $C$DW$T$72, DW_AT_decl_line(0x54)
    2822                            .dwattr $C$DW$T$72, DW_AT_decl_column(0x13)
    2823                    
    2824                    $C$DW$T$73      .dwtag  DW_TAG_typedef
    2825                            .dwattr $C$DW$T$73, DW_AT_name("int_fast8_t")
    2826                            .dwattr $C$DW$T$73, DW_AT_type(*$C$DW$T$72)
    2827                            .dwattr $C$DW$T$73, DW_AT_language(DW_LANG_C)
    2828                            .dwattr $C$DW$T$73, DW_AT_decl_file("/home/pola/ti/ccsv8/tools/compiler/ti-cgt-arm_18.1.1.LTS/
    2829                            .dwattr $C$DW$T$73, DW_AT_decl_line(0x32)
    2830                            .dwattr $C$DW$T$73, DW_AT_decl_column(0x18)
    2831                    
    2832                    $C$DW$T$74      .dwtag  DW_TAG_typedef
    2833                            .dwattr $C$DW$T$74, DW_AT_name("__int_least32_t")
    2834                            .dwattr $C$DW$T$74, DW_AT_type(*$C$DW$T$64)
    2835                            .dwattr $C$DW$T$74, DW_AT_language(DW_LANG_C)
    2836                            .dwattr $C$DW$T$74, DW_AT_decl_file("/home/pola/ti/ccsv8/tools/compiler/ti-cgt-arm_18.1.1.LTS/
    2837                            .dwattr $C$DW$T$74, DW_AT_decl_line(0x5a)
    2838                            .dwattr $C$DW$T$74, DW_AT_decl_column(0x13)
    2839                    
    2840                    $C$DW$T$75      .dwtag  DW_TAG_typedef
    2841                            .dwattr $C$DW$T$75, DW_AT_name("int_least32_t")
    2842                            .dwattr $C$DW$T$75, DW_AT_type(*$C$DW$T$74)
    2843                            .dwattr $C$DW$T$75, DW_AT_language(DW_LANG_C)
    2844                            .dwattr $C$DW$T$75, DW_AT_decl_file("/home/pola/ti/ccsv8/tools/compiler/ti-cgt-arm_18.1.1.LTS/
    2845                            .dwattr $C$DW$T$75, DW_AT_decl_line(0x2a)
