TI ARM Assembler Unix v18.1.1 Fri Jul  3 20:08:24 2020

Tools Copyright (c) 1996-2017 Texas Instruments Incorporated
emac.asm                                                             PAGE    1

       1                    ;******************************************************************************
       2                    ;* TI ARM C/C++ Codegen                                      Unix v18.1.1.LTS *
       3                    ;* Date/Time created: Fri Jul  3 20:08:23 2020                                *
       4                    ;******************************************************************************
       5                            .compiler_opts --abi=eabi --arm_vmrs_si_workaround=off --code_state=16 --diag_wrap=off --embed
       6 00000000                   .thumb
       7                    
       8                    $C$DW$CU        .dwtag  DW_TAG_compile_unit
       9                            .dwattr $C$DW$CU, DW_AT_name("../driverlib/emac.c")
      10                            .dwattr $C$DW$CU, DW_AT_producer("TI TI ARM C/C++ Codegen Unix v18.1.1.LTS Copyright (c) 1996-
      11                            .dwattr $C$DW$CU, DW_AT_TI_version(0x01)
      12                            .dwattr $C$DW$CU, DW_AT_comp_dir("/home/pola/workspace_v8/Microwave/Debug")
      13 00000000                   .sect   ".const:g_pi16MIIClockDiv"
      14                            .clink
      15                            .align  4
      16                            .elfsym g_pi16MIIClockDiv,SYM_SIZE(24)
      17 00000000           g_pi16MIIClockDiv:
      18 00000000 03D09000          .bits   64000000,32                     ; g_pi16MIIClockDiv[0].ui32SysClockMax @ 0
      19 00000004 0000000C          .bits   12,32                   ; g_pi16MIIClockDiv[0].ui32Divisor @ 32
      20 00000008 0632EA00          .bits   104000000,32                    ; g_pi16MIIClockDiv[1].ui32SysClockMax @ 64
      21 0000000c 00000000          .bits   0,32                    ; g_pi16MIIClockDiv[1].ui32Divisor @ 96
      22 00000010 08F0D180          .bits   150000000,32                    ; g_pi16MIIClockDiv[2].ui32SysClockMax @ 128
      23 00000014 00000004          .bits   4,32                    ; g_pi16MIIClockDiv[2].ui32Divisor @ 160
      24                    
      25                    $C$DW$1 .dwtag  DW_TAG_variable
      26                            .dwattr $C$DW$1, DW_AT_name("g_pi16MIIClockDiv")
      27                            .dwattr $C$DW$1, DW_AT_TI_symbol_name("g_pi16MIIClockDiv")
      28                            .dwattr $C$DW$1, DW_AT_type(*$C$DW$T$45)
      29                            .dwattr $C$DW$1, DW_AT_location[DW_OP_addr g_pi16MIIClockDiv]
      30                            .dwattr $C$DW$1, DW_AT_decl_file("../driverlib/emac.c")
      31                            .dwattr $C$DW$1, DW_AT_decl_line(0xc4)
      32                            .dwattr $C$DW$1, DW_AT_decl_column(0x01)
      33                    
      34                    
      35                    $C$DW$2 .dwtag  DW_TAG_subprogram
      36                            .dwattr $C$DW$2, DW_AT_name("SysCtlPeripheralReset")
      37                            .dwattr $C$DW$2, DW_AT_TI_symbol_name("SysCtlPeripheralReset")
      38                            .dwattr $C$DW$2, DW_AT_declaration
      39                            .dwattr $C$DW$2, DW_AT_external
      40                            .dwattr $C$DW$2, DW_AT_decl_file("/home/pola/workspace_v8/Microwave/driverlib/sysctl.h")
      41                            .dwattr $C$DW$2, DW_AT_decl_line(0x25f)
      42                            .dwattr $C$DW$2, DW_AT_decl_column(0x0d)
      43                    $C$DW$3 .dwtag  DW_TAG_formal_parameter
      44                            .dwattr $C$DW$3, DW_AT_type(*$C$DW$T$22)
      45                    
      46                            .dwendtag $C$DW$2
      47                    
      48                    
      49                    $C$DW$4 .dwtag  DW_TAG_subprogram
      50                            .dwattr $C$DW$4, DW_AT_name("SysCtlPeripheralReady")
      51                            .dwattr $C$DW$4, DW_AT_TI_symbol_name("SysCtlPeripheralReady")
      52                            .dwattr $C$DW$4, DW_AT_type(*$C$DW$T$71)
      53                            .dwattr $C$DW$4, DW_AT_declaration
      54                            .dwattr $C$DW$4, DW_AT_external
      55                            .dwattr $C$DW$4, DW_AT_decl_file("/home/pola/workspace_v8/Microwave/driverlib/sysctl.h")
TI ARM Assembler Unix v18.1.1 Fri Jul  3 20:08:24 2020

Tools Copyright (c) 1996-2017 Texas Instruments Incorporated
emac.asm                                                             PAGE    2

      56                            .dwattr $C$DW$4, DW_AT_decl_line(0x25c)
      57                            .dwattr $C$DW$4, DW_AT_decl_column(0x0d)
      58                    $C$DW$5 .dwtag  DW_TAG_formal_parameter
      59                            .dwattr $C$DW$5, DW_AT_type(*$C$DW$T$22)
      60                    
      61                            .dwendtag $C$DW$4
      62                    
      63                    
      64                    $C$DW$6 .dwtag  DW_TAG_subprogram
      65                            .dwattr $C$DW$6, DW_AT_name("SysCtlDelay")
      66                            .dwattr $C$DW$6, DW_AT_TI_symbol_name("SysCtlDelay")
      67                            .dwattr $C$DW$6, DW_AT_declaration
      68                            .dwattr $C$DW$6, DW_AT_external
      69                            .dwattr $C$DW$6, DW_AT_decl_file("/home/pola/workspace_v8/Microwave/driverlib/sysctl.h")
      70                            .dwattr $C$DW$6, DW_AT_decl_line(0x27a)
      71                            .dwattr $C$DW$6, DW_AT_decl_column(0x0d)
      72                    $C$DW$7 .dwtag  DW_TAG_formal_parameter
      73                            .dwattr $C$DW$7, DW_AT_type(*$C$DW$T$22)
      74                    
      75                            .dwendtag $C$DW$6
      76                    
      77                    
      78                    $C$DW$8 .dwtag  DW_TAG_subprogram
      79                            .dwattr $C$DW$8, DW_AT_name("Crc32")
      80                            .dwattr $C$DW$8, DW_AT_TI_symbol_name("Crc32")
      81                            .dwattr $C$DW$8, DW_AT_type(*$C$DW$T$22)
      82                            .dwattr $C$DW$8, DW_AT_declaration
      83                            .dwattr $C$DW$8, DW_AT_external
      84                            .dwattr $C$DW$8, DW_AT_decl_file("/home/pola/workspace_v8/Microwave/driverlib/sw_crc.h")
      85                            .dwattr $C$DW$8, DW_AT_decl_line(0x42)
      86                            .dwattr $C$DW$8, DW_AT_decl_column(0x11)
      87                    $C$DW$9 .dwtag  DW_TAG_formal_parameter
      88                            .dwattr $C$DW$9, DW_AT_type(*$C$DW$T$22)
      89                    
      90                    $C$DW$10        .dwtag  DW_TAG_formal_parameter
      91                            .dwattr $C$DW$10, DW_AT_type(*$C$DW$T$60)
      92                    
      93                    $C$DW$11        .dwtag  DW_TAG_formal_parameter
      94                            .dwattr $C$DW$11, DW_AT_type(*$C$DW$T$22)
      95                    
      96                            .dwendtag $C$DW$8
      97                    
      98                    
      99                    $C$DW$12        .dwtag  DW_TAG_subprogram
     100                            .dwattr $C$DW$12, DW_AT_name("IntRegister")
     101                            .dwattr $C$DW$12, DW_AT_TI_symbol_name("IntRegister")
     102                            .dwattr $C$DW$12, DW_AT_declaration
     103                            .dwattr $C$DW$12, DW_AT_external
     104                            .dwattr $C$DW$12, DW_AT_decl_file("/home/pola/workspace_v8/Microwave/driverlib/interrupt.h")
     105                            .dwattr $C$DW$12, DW_AT_decl_line(0x45)
     106                            .dwattr $C$DW$12, DW_AT_decl_column(0x0d)
     107                    $C$DW$13        .dwtag  DW_TAG_formal_parameter
     108                            .dwattr $C$DW$13, DW_AT_type(*$C$DW$T$22)
     109                    
     110                    $C$DW$14        .dwtag  DW_TAG_formal_parameter
TI ARM Assembler Unix v18.1.1 Fri Jul  3 20:08:24 2020

Tools Copyright (c) 1996-2017 Texas Instruments Incorporated
emac.asm                                                             PAGE    3

     111                            .dwattr $C$DW$14, DW_AT_type(*$C$DW$T$51)
     112                    
     113                            .dwendtag $C$DW$12
     114                    
     115                    
     116                    $C$DW$15        .dwtag  DW_TAG_subprogram
     117                            .dwattr $C$DW$15, DW_AT_name("IntEnable")
     118                            .dwattr $C$DW$15, DW_AT_TI_symbol_name("IntEnable")
     119                            .dwattr $C$DW$15, DW_AT_declaration
     120                            .dwattr $C$DW$15, DW_AT_external
     121                            .dwattr $C$DW$15, DW_AT_decl_file("/home/pola/workspace_v8/Microwave/driverlib/interrupt.h")
     122                            .dwattr $C$DW$15, DW_AT_decl_line(0x4c)
     123                            .dwattr $C$DW$15, DW_AT_decl_column(0x0d)
     124                    $C$DW$16        .dwtag  DW_TAG_formal_parameter
     125                            .dwattr $C$DW$16, DW_AT_type(*$C$DW$T$22)
     126                    
     127                            .dwendtag $C$DW$15
     128                    
     129                    
     130                    $C$DW$17        .dwtag  DW_TAG_subprogram
     131                            .dwattr $C$DW$17, DW_AT_name("IntDisable")
     132                            .dwattr $C$DW$17, DW_AT_TI_symbol_name("IntDisable")
     133                            .dwattr $C$DW$17, DW_AT_declaration
     134                            .dwattr $C$DW$17, DW_AT_external
     135                            .dwattr $C$DW$17, DW_AT_decl_file("/home/pola/workspace_v8/Microwave/driverlib/interrupt.h")
     136                            .dwattr $C$DW$17, DW_AT_decl_line(0x4d)
     137                            .dwattr $C$DW$17, DW_AT_decl_column(0x0d)
     138                    $C$DW$18        .dwtag  DW_TAG_formal_parameter
     139                            .dwattr $C$DW$18, DW_AT_type(*$C$DW$T$22)
     140                    
     141                            .dwendtag $C$DW$17
     142                    
     143                    
     144                    $C$DW$19        .dwtag  DW_TAG_subprogram
     145                            .dwattr $C$DW$19, DW_AT_name("IntUnregister")
     146                            .dwattr $C$DW$19, DW_AT_TI_symbol_name("IntUnregister")
     147                            .dwattr $C$DW$19, DW_AT_declaration
     148                            .dwattr $C$DW$19, DW_AT_external
     149                            .dwattr $C$DW$19, DW_AT_decl_file("/home/pola/workspace_v8/Microwave/driverlib/interrupt.h")
     150                            .dwattr $C$DW$19, DW_AT_decl_line(0x46)
     151                            .dwattr $C$DW$19, DW_AT_decl_column(0x0d)
     152                    $C$DW$20        .dwtag  DW_TAG_formal_parameter
     153                            .dwattr $C$DW$20, DW_AT_type(*$C$DW$T$22)
     154                    
     155                            .dwendtag $C$DW$19
     156                    
     157                    ;       /home/pola/ti/ccsv8/tools/compiler/ti-cgt-arm_18.1.1.LTS/bin/armacpia -@/tmp/TI3OQjJtQML 
     158 00000000                   .sect   ".text"
     159                            .clink
     160                            .thumbfunc EMACInit
     161 00000000                   .thumb
     162                            .global EMACInit
     163                    
     164                    $C$DW$21        .dwtag  DW_TAG_subprogram
     165                            .dwattr $C$DW$21, DW_AT_name("EMACInit")
TI ARM Assembler Unix v18.1.1 Fri Jul  3 20:08:24 2020

Tools Copyright (c) 1996-2017 Texas Instruments Incorporated
emac.asm                                                             PAGE    4

     166                            .dwattr $C$DW$21, DW_AT_low_pc(EMACInit)
     167                            .dwattr $C$DW$21, DW_AT_high_pc(0x00)
     168                            .dwattr $C$DW$21, DW_AT_TI_symbol_name("EMACInit")
     169                            .dwattr $C$DW$21, DW_AT_external
     170                            .dwattr $C$DW$21, DW_AT_TI_begin_file("../driverlib/emac.c")
     171                            .dwattr $C$DW$21, DW_AT_TI_begin_line(0x13a)
     172                            .dwattr $C$DW$21, DW_AT_TI_begin_column(0x01)
     173                            .dwattr $C$DW$21, DW_AT_decl_file("../driverlib/emac.c")
     174                            .dwattr $C$DW$21, DW_AT_decl_line(0x13a)
     175                            .dwattr $C$DW$21, DW_AT_decl_column(0x01)
     176                            .dwattr $C$DW$21, DW_AT_TI_max_frame_size(0x18)
     177                            .dwpsn  file "../driverlib/emac.c",line 316,column 1,is_stmt,address EMACInit,isa 1
     178                    
     179                            .dwfde $C$DW$CIE, EMACInit
     180                    $C$DW$22        .dwtag  DW_TAG_formal_parameter
     181                            .dwattr $C$DW$22, DW_AT_name("ui32Base")
     182                            .dwattr $C$DW$22, DW_AT_TI_symbol_name("ui32Base")
     183                            .dwattr $C$DW$22, DW_AT_type(*$C$DW$T$22)
     184                            .dwattr $C$DW$22, DW_AT_location[DW_OP_reg0]
     185                    
     186                    $C$DW$23        .dwtag  DW_TAG_formal_parameter
     187                            .dwattr $C$DW$23, DW_AT_name("ui32SysClk")
     188                            .dwattr $C$DW$23, DW_AT_TI_symbol_name("ui32SysClk")
     189                            .dwattr $C$DW$23, DW_AT_type(*$C$DW$T$22)
     190                            .dwattr $C$DW$23, DW_AT_location[DW_OP_reg1]
     191                    
     192                    $C$DW$24        .dwtag  DW_TAG_formal_parameter
     193                            .dwattr $C$DW$24, DW_AT_name("ui32BusConfig")
     194                            .dwattr $C$DW$24, DW_AT_TI_symbol_name("ui32BusConfig")
     195                            .dwattr $C$DW$24, DW_AT_type(*$C$DW$T$22)
     196                            .dwattr $C$DW$24, DW_AT_location[DW_OP_reg2]
     197                    
     198                    $C$DW$25        .dwtag  DW_TAG_formal_parameter
     199                            .dwattr $C$DW$25, DW_AT_name("ui32RxBurst")
     200                            .dwattr $C$DW$25, DW_AT_TI_symbol_name("ui32RxBurst")
     201                            .dwattr $C$DW$25, DW_AT_type(*$C$DW$T$22)
     202                            .dwattr $C$DW$25, DW_AT_location[DW_OP_reg3]
     203                    
     204                    $C$DW$26        .dwtag  DW_TAG_formal_parameter
     205                            .dwattr $C$DW$26, DW_AT_name("ui32TxBurst")
     206                            .dwattr $C$DW$26, DW_AT_TI_symbol_name("ui32TxBurst")
     207                            .dwattr $C$DW$26, DW_AT_type(*$C$DW$T$22)
     208                            .dwattr $C$DW$26, DW_AT_location[DW_OP_breg13 24]
     209                    
     210                    $C$DW$27        .dwtag  DW_TAG_formal_parameter
     211                            .dwattr $C$DW$27, DW_AT_name("ui32DescSkipSize")
     212                            .dwattr $C$DW$27, DW_AT_TI_symbol_name("ui32DescSkipSize")
     213                            .dwattr $C$DW$27, DW_AT_type(*$C$DW$T$22)
     214                            .dwattr $C$DW$27, DW_AT_location[DW_OP_breg13 28]
     215                    
     216                    ;----------------------------------------------------------------------
     217                    ; 314 | EMACInit(uint32_t ui32Base, uint32_t ui32SysClk, uint32_t ui32BusConfig
     218                    ;     | ,                                                                      
     219                    ; 315 | uint32_t ui32RxBurst, uint32_t ui32TxBurst, uint32_t ui32DescSkipSize) 
     220                    ;----------------------------------------------------------------------
TI ARM Assembler Unix v18.1.1 Fri Jul  3 20:08:24 2020

Tools Copyright (c) 1996-2017 Texas Instruments Incorporated
emac.asm                                                             PAGE    5

     221                    
     222                    ;*****************************************************************************
     223                    ;* FUNCTION NAME: EMACInit                                                   *
     224                    ;*                                                                           *
     225                    ;*   Regs Modified     : A1,A2,A3,SP,SR                                      *
     226                    ;*   Regs Used         : A1,A2,A3,A4,SP,LR,SR                                *
     227                    ;*   Local Frame Size  : 0 Args + 24 Auto + 0 Save = 24 byte                 *
     228                    ;*****************************************************************************
     229 00000000           EMACInit:
     230                    ;* --------------------------------------------------------------------------*
     231                            .dwcfi  cfa_offset, 0
     232 00000000 0D18F1AD          SUB       SP, SP, #24           ; [DPU_V7M3_PIPE]  ; [KEEP 32-BIT INS]
     233                            .dwcfi  cfa_offset, 24
     234                    $C$DW$28        .dwtag  DW_TAG_variable
     235                            .dwattr $C$DW$28, DW_AT_name("ui32Base")
     236                            .dwattr $C$DW$28, DW_AT_TI_symbol_name("ui32Base")
     237                            .dwattr $C$DW$28, DW_AT_type(*$C$DW$T$22)
     238                            .dwattr $C$DW$28, DW_AT_location[DW_OP_breg13 0]
     239                    
     240                    $C$DW$29        .dwtag  DW_TAG_variable
     241                            .dwattr $C$DW$29, DW_AT_name("ui32SysClk")
     242                            .dwattr $C$DW$29, DW_AT_TI_symbol_name("ui32SysClk")
     243                            .dwattr $C$DW$29, DW_AT_type(*$C$DW$T$22)
     244                            .dwattr $C$DW$29, DW_AT_location[DW_OP_breg13 4]
     245                    
     246                    $C$DW$30        .dwtag  DW_TAG_variable
     247                            .dwattr $C$DW$30, DW_AT_name("ui32BusConfig")
     248                            .dwattr $C$DW$30, DW_AT_TI_symbol_name("ui32BusConfig")
     249                            .dwattr $C$DW$30, DW_AT_type(*$C$DW$T$22)
     250                            .dwattr $C$DW$30, DW_AT_location[DW_OP_breg13 8]
     251                    
     252                    $C$DW$31        .dwtag  DW_TAG_variable
     253                            .dwattr $C$DW$31, DW_AT_name("ui32RxBurst")
     254                            .dwattr $C$DW$31, DW_AT_TI_symbol_name("ui32RxBurst")
     255                            .dwattr $C$DW$31, DW_AT_type(*$C$DW$T$22)
     256                            .dwattr $C$DW$31, DW_AT_location[DW_OP_breg13 12]
     257                    
     258                    $C$DW$32        .dwtag  DW_TAG_variable
     259                            .dwattr $C$DW$32, DW_AT_name("ui32Val")
     260                            .dwattr $C$DW$32, DW_AT_TI_symbol_name("ui32Val")
     261                            .dwattr $C$DW$32, DW_AT_type(*$C$DW$T$22)
     262                            .dwattr $C$DW$32, DW_AT_location[DW_OP_breg13 16]
     263                    
     264                    $C$DW$33        .dwtag  DW_TAG_variable
     265                            .dwattr $C$DW$33, DW_AT_name("ui32Div")
     266                            .dwattr $C$DW$33, DW_AT_TI_symbol_name("ui32Div")
     267                            .dwattr $C$DW$33, DW_AT_type(*$C$DW$T$22)
     268                            .dwattr $C$DW$33, DW_AT_location[DW_OP_breg13 20]
     269                    
     270                    ;----------------------------------------------------------------------
     271                    ; 317 | uint32_t ui32Val, ui32Div;                                             
     272                    ; 319 | //                                                                     
     273                    ; 320 | // Parameter sanity checks.                                            
     274                    ; 321 | //                                                                     
     275                    ; 322 | ASSERT(ui32DescSkipSize < 32);                                         
TI ARM Assembler Unix v18.1.1 Fri Jul  3 20:08:24 2020

Tools Copyright (c) 1996-2017 Texas Instruments Incorporated
emac.asm                                                             PAGE    6

     276                    ; 323 | ASSERT(ui32TxBurst < (32 * 8));                                        
     277                    ; 324 | ASSERT(ui32RxBurst < (32 * 8));                                        
     278                    ; 326 | //                                                                     
     279                    ; 327 | // Make sure that the DMA software reset is clear before continuing.   
     280                    ; 328 | //                                                                     
     281                    ;----------------------------------------------------------------------
     282 00000004 9303              STR       A4, [SP, #12]         ; [DPU_V7M3_PIPE] |316|  ; [ORIG 16-BIT INS]
     283 00000006 9202              STR       A3, [SP, #8]          ; [DPU_V7M3_PIPE] |316|  ; [ORIG 16-BIT INS]
     284 00000008 9101              STR       A2, [SP, #4]          ; [DPU_V7M3_PIPE] |316|  ; [ORIG 16-BIT INS]
     285 0000000a 9000              STR       A1, [SP, #0]          ; [DPU_V7M3_PIPE] |316|  ; [ORIG 16-BIT INS]
     286                            .dwpsn  file "../driverlib/emac.c",line 329,column 5,is_stmt,isa 1
     287                    ;----------------------------------------------------------------------
     288                    ; 329 | while(HWREG(EMAC0_BASE + EMAC_O_DMABUSMOD) & EMAC_DMABUSMOD_SWR)       
     289                    ; 333 | //                                                                     
     290                    ; 334 | // Set common flags.  Note that this driver assumes we are always using
     291                    ; 335 | // 8 word descriptors so we need to OR in EMAC_DMABUSMOD_ATDS here.    
     292                    ; 336 | //                                                                     
     293                    ;----------------------------------------------------------------------
     294                    ;* --------------------------------------------------------------------------*
     295                    ;*   BEGIN LOOP ||$C$L1||
     296                    ;*
     297                    ;*   Loop source line                : 329
     298                    ;*   Loop closing brace source line  : 331
     299                    ;*   Known Minimum Trip Count        : 1
     300                    ;*   Known Maximum Trip Count        : 4294967295
     301                    ;*   Known Max Trip Count Factor     : 1
     302                    ;* --------------------------------------------------------------------------*
     303 0000000c           ||$C$L1||:    
     304 0000000c 48AB              LDR       A1, $C$CON1           ; [DPU_V7M3_PIPE] |329|  ; [ORIG 16-BIT INS]
     305 0000000e 6800              LDR       A1, [A1, #0]          ; [DPU_V7M3_PIPE] |329|  ; [ORIG 16-BIT INS]
     306 00000010 0840              LSRS      A1, A1, #1            ; [DPU_V7M3_PIPE] |329|  ; [ORIG 16-BIT INS]
     307 00000012 D2FB              BCS       ||$C$L1||             ; [DPU_V7M3_PIPE] |329|  ; [ORIG 16-BIT INS]
     308                            ; BRANCHCC OCCURS {||$C$L1||}    ; [] |329| 
     309                    ;* --------------------------------------------------------------------------*
     310                            .dwpsn  file "../driverlib/emac.c",line 337,column 5,is_stmt,isa 1
     311                    ;----------------------------------------------------------------------
     312                    ; 337 | ui32Val = (ui32BusConfig | (ui32DescSkipSize << EMAC_DMABUSMOD_DSL_S) |
     313                    ; 338 |            EMAC_DMABUSMOD_ATDS);                                       
     314                    ; 340 | //                                                                     
     315                    ; 341 | // Do we need to use the 8X burst length multiplier?                   
     316                    ; 342 | //                                                                     
     317                    ;----------------------------------------------------------------------
     318 00000014 9907              LDR       A2, [SP, #28]         ; [DPU_V7M3_PIPE] |337|  ; [ORIG 16-BIT INS]
     319 00000016 9802              LDR       A1, [SP, #8]          ; [DPU_V7M3_PIPE] |337|  ; [ORIG 16-BIT INS]
     320 00000018 0081EA40          ORR       A1, A1, A2, LSL #2    ; [DPU_V7M3_PIPE] |337|  ; [KEEP 32-BIT INS]
     321 0000001c 0080F040          ORR       A1, A1, #128          ; [DPU_V7M3_PIPE] |337|  ; [KEEP 32-BIT INS]
     322 00000020 9004              STR       A1, [SP, #16]         ; [DPU_V7M3_PIPE] |337|  ; [ORIG 16-BIT INS]
     323                            .dwpsn  file "../driverlib/emac.c",line 343,column 5,is_stmt,isa 1
     324                    ;----------------------------------------------------------------------
     325                    ; 343 | if((ui32TxBurst > 32) || (ui32RxBurst > 32))                           
     326                    ; 345 |     //                                                                 
     327                    ; 346 |     // Divide both burst lengths by 8 and set the 8X burst length      
     328                    ; 347 |     // multiplier.                                                     
     329                    ; 348 |     //                                                                 
     330                    ;----------------------------------------------------------------------
TI ARM Assembler Unix v18.1.1 Fri Jul  3 20:08:24 2020

Tools Copyright (c) 1996-2017 Texas Instruments Incorporated
emac.asm                                                             PAGE    7

     331 00000022 9806              LDR       A1, [SP, #24]         ; [DPU_V7M3_PIPE] |343|  ; [ORIG 16-BIT INS]
     332 00000024 2820              CMP       A1, #32               ; [DPU_V7M3_PIPE] |343|  ; [ORIG 16-BIT INS]
     333 00000026 D802              BHI       ||$C$L2||             ; [DPU_V7M3_PIPE] |343|  ; [ORIG 16-BIT INS]
     334                            ; BRANCHCC OCCURS {||$C$L2||}    ; [] |343| 
     335                    ;* --------------------------------------------------------------------------*
     336 00000028 9803              LDR       A1, [SP, #12]         ; [DPU_V7M3_PIPE] |343|  ; [ORIG 16-BIT INS]
     337 0000002a 2820              CMP       A1, #32               ; [DPU_V7M3_PIPE] |343|  ; [ORIG 16-BIT INS]
     338 0000002c D909              BLS       ||$C$L3||             ; [DPU_V7M3_PIPE] |343|  ; [ORIG 16-BIT INS]
     339                            ; BRANCHCC OCCURS {||$C$L3||}    ; [] |343| 
     340                    ;* --------------------------------------------------------------------------*
     341 0000002e           ||$C$L2||:    
     342                            .dwpsn  file "../driverlib/emac.c",line 349,column 9,is_stmt,isa 1
     343                    ;----------------------------------------------------------------------
     344                    ; 349 | ui32Val |= EMAC_DMABUSMOD_8XPBL;                                       
     345                    ;----------------------------------------------------------------------
     346 0000002e 9804              LDR       A1, [SP, #16]         ; [DPU_V7M3_PIPE] |349|  ; [ORIG 16-BIT INS]
     347 00000030 7080F040          ORR       A1, A1, #16777216     ; [DPU_V7M3_PIPE] |349|  ; [KEEP 32-BIT INS]
     348 00000034 9004              STR       A1, [SP, #16]         ; [DPU_V7M3_PIPE] |349|  ; [ORIG 16-BIT INS]
     349                            .dwpsn  file "../driverlib/emac.c",line 350,column 9,is_stmt,isa 1
     350                    ;----------------------------------------------------------------------
     351                    ; 350 | ui32TxBurst >>= 3;                                                     
     352                    ;----------------------------------------------------------------------
     353 00000036 9806              LDR       A1, [SP, #24]         ; [DPU_V7M3_PIPE] |350|  ; [ORIG 16-BIT INS]
     354 00000038 08C0              LSRS      A1, A1, #3            ; [DPU_V7M3_PIPE] |350|  ; [ORIG 16-BIT INS]
     355 0000003a 9006              STR       A1, [SP, #24]         ; [DPU_V7M3_PIPE] |350|  ; [ORIG 16-BIT INS]
     356                            .dwpsn  file "../driverlib/emac.c",line 351,column 9,is_stmt,isa 1
     357                    ;----------------------------------------------------------------------
     358                    ; 351 | ui32RxBurst >>= 3;                                                     
     359                    ; 353 | //                                                                     
     360                    ; 354 | // Sanity check - neither burst length should have become zero.  If    
     361                    ; 355 | // they did, this indicates that the values passed are invalid.        
     362                    ; 356 | //                                                                     
     363                    ; 357 | ASSERT(ui32RxBurst);                                                   
     364                    ; 358 | ASSERT(ui32TxBurst);                                                   
     365                    ; 361 | //                                                                     
     366                    ; 362 | // Are the receive and transmit burst lengths the same?                
     367                    ; 363 | //                                                                     
     368                    ;----------------------------------------------------------------------
     369 0000003c 9803              LDR       A1, [SP, #12]         ; [DPU_V7M3_PIPE] |351|  ; [ORIG 16-BIT INS]
     370 0000003e 08C0              LSRS      A1, A1, #3            ; [DPU_V7M3_PIPE] |351|  ; [ORIG 16-BIT INS]
     371 00000040 9003              STR       A1, [SP, #12]         ; [DPU_V7M3_PIPE] |351|  ; [ORIG 16-BIT INS]
     372                    ;* --------------------------------------------------------------------------*
     373 00000042           ||$C$L3||:    
     374                            .dwpsn  file "../driverlib/emac.c",line 364,column 5,is_stmt,isa 1
     375                    ;----------------------------------------------------------------------
     376                    ; 364 | if(ui32RxBurst == ui32TxBurst)                                         
     377                    ; 366 |     //                                                                 
     378                    ; 367 |     // Yes - set up to use a single burst length.                      
     379                    ; 368 |     //                                                                 
     380                    ;----------------------------------------------------------------------
     381 00000042 9806              LDR       A1, [SP, #24]         ; [DPU_V7M3_PIPE] |364|  ; [ORIG 16-BIT INS]
     382 00000044 9903              LDR       A2, [SP, #12]         ; [DPU_V7M3_PIPE] |364|  ; [ORIG 16-BIT INS]
     383 00000046 4288              CMP       A1, A2                ; [DPU_V7M3_PIPE] |364|  ; [ORIG 16-BIT INS]
     384 00000048 D105              BNE       ||$C$L4||             ; [DPU_V7M3_PIPE] |364|  ; [ORIG 16-BIT INS]
     385                            ; BRANCHCC OCCURS {||$C$L4||}    ; [] |364| 
TI ARM Assembler Unix v18.1.1 Fri Jul  3 20:08:24 2020

Tools Copyright (c) 1996-2017 Texas Instruments Incorporated
emac.asm                                                             PAGE    8

     386                    ;* --------------------------------------------------------------------------*
     387                            .dwpsn  file "../driverlib/emac.c",line 369,column 9,is_stmt,isa 1
     388                    ;----------------------------------------------------------------------
     389                    ; 369 | ui32Val |= (ui32TxBurst << EMAC_DMABUSMOD_PBL_S);                      
     390                    ;----------------------------------------------------------------------
     391 0000004a 9906              LDR       A2, [SP, #24]         ; [DPU_V7M3_PIPE] |369|  ; [ORIG 16-BIT INS]
     392 0000004c 9804              LDR       A1, [SP, #16]         ; [DPU_V7M3_PIPE] |369|  ; [ORIG 16-BIT INS]
     393 0000004e 2001EA40          ORR       A1, A1, A2, LSL #8    ; [DPU_V7M3_PIPE] |369|  ; [KEEP 32-BIT INS]
     394 00000052 9004              STR       A1, [SP, #16]         ; [DPU_V7M3_PIPE] |369|  ; [ORIG 16-BIT INS]
     395                            .dwpsn  file "../driverlib/emac.c",line 370,column 5,is_stmt,isa 1
     396                    ;----------------------------------------------------------------------
     397                    ; 371 | else                                                                   
     398                    ; 373 |     //                                                                 
     399                    ; 374 |     // No - we need to use separate burst lengths for each.            
     400                    ; 375 |     //                                                                 
     401                    ;----------------------------------------------------------------------
     402 00000054 E009              B         ||$C$L5||             ; [DPU_V7M3_PIPE] |370|  ; [ORIG 16-BIT INS]
     403                            ; BRANCH OCCURS {||$C$L5||}      ; [] |370| 
     404                    ;* --------------------------------------------------------------------------*
     405 00000056           ||$C$L4||:    
     406                            .dwpsn  file "../driverlib/emac.c",line 376,column 9,is_stmt,isa 1
     407                    ;----------------------------------------------------------------------
     408                    ; 376 | ui32Val |= (EMAC_DMABUSMOD_USP |                                       
     409                    ; 377 |             (ui32TxBurst << EMAC_DMABUSMOD_PBL_S) |                    
     410                    ; 378 |             (ui32RxBurst << EMAC_DMABUSMOD_RPBL_S));                   
     411                    ; 381 | //                                                                     
     412                    ; 382 | // Finally, write the bus mode register.                               
     413                    ; 383 | //                                                                     
     414                    ;----------------------------------------------------------------------
     415 00000056 9A06              LDR       A3, [SP, #24]         ; [DPU_V7M3_PIPE] |376|  ; [ORIG 16-BIT INS]
     416 00000058 9804              LDR       A1, [SP, #16]         ; [DPU_V7M3_PIPE] |376|  ; [ORIG 16-BIT INS]
     417 0000005a 9903              LDR       A2, [SP, #12]         ; [DPU_V7M3_PIPE] |376|  ; [ORIG 16-BIT INS]
     418 0000005c 2002EA40          ORR       A1, A1, A3, LSL #8    ; [DPU_V7M3_PIPE] |376|  ; [KEEP 32-BIT INS]
     419 00000060 4041EA40          ORR       A1, A1, A2, LSL #17   ; [DPU_V7M3_PIPE] |376|  ; [KEEP 32-BIT INS]
     420 00000064 0000F440          ORR       A1, A1, #8388608      ; [DPU_V7M3_PIPE] |376|  ; [KEEP 32-BIT INS]
     421 00000068 9004              STR       A1, [SP, #16]         ; [DPU_V7M3_PIPE] |376|  ; [ORIG 16-BIT INS]
     422                    ;* --------------------------------------------------------------------------*
     423 0000006a           ||$C$L5||:    
     424                            .dwpsn  file "../driverlib/emac.c",line 384,column 5,is_stmt,isa 1
     425                    ;----------------------------------------------------------------------
     426                    ; 384 | HWREG(ui32Base + EMAC_O_DMABUSMOD) = ui32Val;                          
     427                    ; 386 | //                                                                     
     428                    ; 387 | // Default the MII CSR clock divider based on the fastest system clock.
     429                    ; 388 | //                                                                     
     430                    ;----------------------------------------------------------------------
     431 0000006a 9804              LDR       A1, [SP, #16]         ; [DPU_V7M3_PIPE] |384|  ; [ORIG 16-BIT INS]
     432 0000006c 9900              LDR       A2, [SP, #0]          ; [DPU_V7M3_PIPE] |384|  ; [ORIG 16-BIT INS]
     433 0000006e 0C00F8C1          STR       A1, [A2, #3072]       ; [DPU_V7M3_PIPE] |384|  ; [KEEP 32-BIT INS]
     434                            .dwpsn  file "../driverlib/emac.c",line 389,column 5,is_stmt,isa 1
     435                    ;----------------------------------------------------------------------
     436                    ; 389 | ui32Div = g_pi16MIIClockDiv[NUM_CLOCK_DIVISORS - 1].ui32Divisor;       
     437                    ; 391 | //                                                                     
     438                    ; 392 | // Find the MII CSR clock divider to use based on the current system cl
     439                    ;     | ock.                                                                   
     440                    ; 393 | //                                                                     
TI ARM Assembler Unix v18.1.1 Fri Jul  3 20:08:24 2020

Tools Copyright (c) 1996-2017 Texas Instruments Incorporated
emac.asm                                                             PAGE    9

     441                    ;----------------------------------------------------------------------
     442 00000072 48B1              LDR       A1, $C$CON2           ; [DPU_V7M3_PIPE] |389|  ; [ORIG 16-BIT INS]
     443 00000074 6800              LDR       A1, [A1, #0]          ; [DPU_V7M3_PIPE] |389|  ; [ORIG 16-BIT INS]
     444 00000076 9005              STR       A1, [SP, #20]         ; [DPU_V7M3_PIPE] |389|  ; [ORIG 16-BIT INS]
     445                            .dwpsn  file "../driverlib/emac.c",line 394,column 9,is_stmt,isa 1
     446                    ;----------------------------------------------------------------------
     447                    ; 394 | for(ui32Val = 0; ui32Val < NUM_CLOCK_DIVISORS; ui32Val++)              
     448                    ;----------------------------------------------------------------------
     449 00000078 2000              MOVS      A1, #0                ; [DPU_V7M3_PIPE] |394|  ; [ORIG 16-BIT INS]
     450 0000007a 9004              STR       A1, [SP, #16]         ; [DPU_V7M3_PIPE] |394|  ; [ORIG 16-BIT INS]
     451                            .dwpsn  file "../driverlib/emac.c",line 394,column 22,is_stmt,isa 1
     452 0000007c 9804              LDR       A1, [SP, #16]         ; [DPU_V7M3_PIPE] |394|  ; [ORIG 16-BIT INS]
     453 0000007e 2803              CMP       A1, #3                ; [DPU_V7M3_PIPE] |394|  ; [ORIG 16-BIT INS]
     454 00000080 D212              BCS       ||$C$L8||             ; [DPU_V7M3_PIPE] |394|  ; [ORIG 16-BIT INS]
     455                            ; BRANCHCC OCCURS {||$C$L8||}    ; [] |394| 
     456                    ;* --------------------------------------------------------------------------*
     457                    ;*   BEGIN LOOP ||$C$L6||
     458                    ;*
     459                    ;*   Loop source line                : 394
     460                    ;*   Loop closing brace source line  : 401
     461                    ;*   Known Minimum Trip Count        : 1
     462                    ;*   Known Maximum Trip Count        : 4294967295
     463                    ;*   Known Max Trip Count Factor     : 1
     464                    ;* --------------------------------------------------------------------------*
     465 00000082           ||$C$L6||:    
     466                            .dwpsn  file "../driverlib/emac.c",line 396,column 9,is_stmt,isa 1
     467                    ;----------------------------------------------------------------------
     468                    ; 396 | if(ui32SysClk <= g_pi16MIIClockDiv[ui32Val].ui32SysClockMax)           
     469                    ;----------------------------------------------------------------------
     470 00000082 9804              LDR       A1, [SP, #16]         ; [DPU_V7M3_PIPE] |396|  ; [ORIG 16-BIT INS]
     471 00000084 4AB2              LDR       A3, $C$CON3           ; [DPU_V7M3_PIPE] |396|  ; [ORIG 16-BIT INS]
     472 00000086 9901              LDR       A2, [SP, #4]          ; [DPU_V7M3_PIPE] |396|  ; [ORIG 16-BIT INS]
     473 00000088 0030F852          LDR       A1, [A3, +A1, LSL #3] ; [DPU_V7M3_PIPE] |396|  ; [KEEP 32-BIT INS]
     474 0000008c 4288              CMP       A1, A2                ; [DPU_V7M3_PIPE] |396|  ; [ORIG 16-BIT INS]
     475 0000008e D305              BCC       ||$C$L7||             ; [DPU_V7M3_PIPE] |396|  ; [ORIG 16-BIT INS]
     476                            ; BRANCHCC OCCURS {||$C$L7||}    ; [] |396| 
     477                    ;* --------------------------------------------------------------------------*
     478                            .dwpsn  file "../driverlib/emac.c",line 398,column 13,is_stmt,isa 1
     479                    ;----------------------------------------------------------------------
     480                    ; 398 | ui32Div = g_pi16MIIClockDiv[ui32Val].ui32Divisor;                      
     481                    ;----------------------------------------------------------------------
     482 00000090 9804              LDR       A1, [SP, #16]         ; [DPU_V7M3_PIPE] |398|  ; [ORIG 16-BIT INS]
     483 00000092 49B0              LDR       A2, $C$CON4           ; [DPU_V7M3_PIPE] |398|  ; [ORIG 16-BIT INS]
     484 00000094 0030F851          LDR       A1, [A2, +A1, LSL #3] ; [DPU_V7M3_PIPE] |398|  ; [KEEP 32-BIT INS]
     485 00000098 9005              STR       A1, [SP, #20]         ; [DPU_V7M3_PIPE] |398|  ; [ORIG 16-BIT INS]
     486                            .dwpsn  file "../driverlib/emac.c",line 399,column 13,is_stmt,isa 1
     487                    ;----------------------------------------------------------------------
     488                    ; 399 | break;                                                                 
     489                    ; 403 | //                                                                     
     490                    ; 404 | // Set the MII CSR clock speed.                                        
     491                    ; 405 | //                                                                     
     492                    ;----------------------------------------------------------------------
     493 0000009a E005              B         ||$C$L8||             ; [DPU_V7M3_PIPE] |399|  ; [ORIG 16-BIT INS]
     494                            ; BRANCH OCCURS {||$C$L8||}      ; [] |399| 
     495                    ;* --------------------------------------------------------------------------*
TI ARM Assembler Unix v18.1.1 Fri Jul  3 20:08:24 2020

Tools Copyright (c) 1996-2017 Texas Instruments Incorporated
emac.asm                                                             PAGE   10

     496 0000009c           ||$C$L7||:    
     497                            .dwpsn  file "../driverlib/emac.c",line 394,column 52,is_stmt,isa 1
     498 0000009c 9804              LDR       A1, [SP, #16]         ; [DPU_V7M3_PIPE] |394|  ; [ORIG 16-BIT INS]
     499 0000009e 1C40              ADDS      A1, A1, #1            ; [DPU_V7M3_PIPE] |394|  ; [ORIG 16-BIT INS]
     500 000000a0 9004              STR       A1, [SP, #16]         ; [DPU_V7M3_PIPE] |394|  ; [ORIG 16-BIT INS]
     501                            .dwpsn  file "../driverlib/emac.c",line 394,column 22,is_stmt,isa 1
     502 000000a2 9804              LDR       A1, [SP, #16]         ; [DPU_V7M3_PIPE] |394|  ; [ORIG 16-BIT INS]
     503 000000a4 2803              CMP       A1, #3                ; [DPU_V7M3_PIPE] |394|  ; [ORIG 16-BIT INS]
     504 000000a6 D3EC              BCC       ||$C$L6||             ; [DPU_V7M3_PIPE] |394|  ; [ORIG 16-BIT INS]
     505                            ; BRANCHCC OCCURS {||$C$L6||}    ; [] |394| 
     506                    ;* --------------------------------------------------------------------------*
     507 000000a8           ||$C$L8||:    
     508                            .dwpsn  file "../driverlib/emac.c",line 406,column 5,is_stmt,isa 1
     509                    ;----------------------------------------------------------------------
     510                    ; 406 | HWREG(ui32Base + EMAC_O_MIIADDR) = ((HWREG(ui32Base + EMAC_O_MIIADDR) &
     511                    ; 407 |                                      ~EMAC_MIIADDR_CR_M) | ui32Div);   
     512                    ; 409 | //                                                                     
     513                    ; 410 | // Disable all the MMC interrupts as these are enabled by default at re
     514                    ;     | set.                                                                   
     515                    ; 411 | //                                                                     
     516                    ;----------------------------------------------------------------------
     517 000000a8 9800              LDR       A1, [SP, #0]          ; [DPU_V7M3_PIPE] |406|  ; [ORIG 16-BIT INS]
     518 000000aa 9905              LDR       A2, [SP, #20]         ; [DPU_V7M3_PIPE] |406|  ; [ORIG 16-BIT INS]
     519 000000ac 9A00              LDR       A3, [SP, #0]          ; [DPU_V7M3_PIPE] |406|  ; [ORIG 16-BIT INS]
     520 000000ae 6900              LDR       A1, [A1, #16]         ; [DPU_V7M3_PIPE] |406|  ; [ORIG 16-BIT INS]
     521 000000b0 003CF020          BIC       A1, A1, #60           ; [DPU_V7M3_PIPE] |406|  ; [KEEP 32-BIT INS]
     522 000000b4 4301              ORRS      A2, A2, A1            ; [DPU_V7M3_PIPE] |406|  ; [ORIG 16-BIT INS]
     523 000000b6 6111              STR       A2, [A3, #16]         ; [DPU_V7M3_PIPE] |406|  ; [ORIG 16-BIT INS]
     524                            .dwpsn  file "../driverlib/emac.c",line 412,column 5,is_stmt,isa 1
     525                    ;----------------------------------------------------------------------
     526                    ; 412 | HWREG(ui32Base + EMAC_O_MMCRXIM) = 0xFFFFFFFF;                         
     527                    ;----------------------------------------------------------------------
     528 000000b8 9800              LDR       A1, [SP, #0]          ; [DPU_V7M3_PIPE] |412|  ; [ORIG 16-BIT INS]
     529 000000ba 31FFF04F          MOV       A2, #-1               ; [DPU_V7M3_PIPE] |412|  ; [KEEP 32-BIT INS]
     530 000000be 110CF8C0          STR       A2, [A1, #268]        ; [DPU_V7M3_PIPE] |412|  ; [KEEP 32-BIT INS]
     531                            .dwpsn  file "../driverlib/emac.c",line 413,column 5,is_stmt,isa 1
     532                    ;----------------------------------------------------------------------
     533                    ; 413 | HWREG(ui32Base + EMAC_O_MMCTXIM) = 0xFFFFFFFF;                         
     534                    ;----------------------------------------------------------------------
     535 000000c2 9800              LDR       A1, [SP, #0]          ; [DPU_V7M3_PIPE] |413|  ; [ORIG 16-BIT INS]
     536 000000c4 31FFF04F          MOV       A2, #-1               ; [DPU_V7M3_PIPE] |413|  ; [KEEP 32-BIT INS]
     537 000000c8 1110F8C0          STR       A2, [A1, #272]        ; [DPU_V7M3_PIPE] |413|  ; [KEEP 32-BIT INS]
     538                            .dwpsn  file "../driverlib/emac.c",line 414,column 1,is_stmt,isa 1
     539 000000cc B006              ADD       SP, SP, #24           ; [DPU_V7M3_PIPE]  ; [ORIG 16-BIT INS]
     540                            .dwcfi  cfa_offset, 0
     541                    $C$DW$34        .dwtag  DW_TAG_TI_branch
     542                            .dwattr $C$DW$34, DW_AT_low_pc(0x00)
     543                            .dwattr $C$DW$34, DW_AT_TI_return
     544                    
     545 000000ce 4770              BX        LR                    ; [DPU_V7M3_PIPE]  ; [ORIG 16-BIT INS]
     546                            ; BRANCH OCCURS                  ; [] 
     547                            .dwattr $C$DW$21, DW_AT_TI_end_file("../driverlib/emac.c")
     548                            .dwattr $C$DW$21, DW_AT_TI_end_line(0x19e)
     549                            .dwattr $C$DW$21, DW_AT_TI_end_column(0x01)
     550                            .dwendentry
TI ARM Assembler Unix v18.1.1 Fri Jul  3 20:08:24 2020

Tools Copyright (c) 1996-2017 Texas Instruments Incorporated
emac.asm                                                             PAGE   11

     551                            .dwendtag $C$DW$21
     552                    
     553 000000d0                   .sect   ".text"
     554                            .clink
     555                            .thumbfunc EMACReset
     556 000000d0                   .thumb
     557                            .global EMACReset
     558                    
     559                    $C$DW$35        .dwtag  DW_TAG_subprogram
     560                            .dwattr $C$DW$35, DW_AT_name("EMACReset")
     561                            .dwattr $C$DW$35, DW_AT_low_pc(EMACReset)
     562                            .dwattr $C$DW$35, DW_AT_high_pc(0x00)
     563                            .dwattr $C$DW$35, DW_AT_TI_symbol_name("EMACReset")
     564                            .dwattr $C$DW$35, DW_AT_external
     565                            .dwattr $C$DW$35, DW_AT_TI_begin_file("../driverlib/emac.c")
     566                            .dwattr $C$DW$35, DW_AT_TI_begin_line(0x1b2)
     567                            .dwattr $C$DW$35, DW_AT_TI_begin_column(0x01)
     568                            .dwattr $C$DW$35, DW_AT_decl_file("../driverlib/emac.c")
     569                            .dwattr $C$DW$35, DW_AT_decl_line(0x1b2)
     570                            .dwattr $C$DW$35, DW_AT_decl_column(0x01)
     571                            .dwattr $C$DW$35, DW_AT_TI_max_frame_size(0x08)
     572                            .dwpsn  file "../driverlib/emac.c",line 435,column 1,is_stmt,address EMACReset,isa 1
     573                    
     574                            .dwfde $C$DW$CIE, EMACReset
     575                    $C$DW$36        .dwtag  DW_TAG_formal_parameter
     576                            .dwattr $C$DW$36, DW_AT_name("ui32Base")
     577                            .dwattr $C$DW$36, DW_AT_TI_symbol_name("ui32Base")
     578                            .dwattr $C$DW$36, DW_AT_type(*$C$DW$T$22)
     579                            .dwattr $C$DW$36, DW_AT_location[DW_OP_reg0]
     580                    
     581                    ;----------------------------------------------------------------------
     582                    ; 434 | EMACReset(uint32_t ui32Base)                                           
     583                    ;----------------------------------------------------------------------
     584                    
     585                    ;*****************************************************************************
     586                    ;* FUNCTION NAME: EMACReset                                                  *
     587                    ;*                                                                           *
     588                    ;*   Regs Modified     : A1,A2,SP,SR                                         *
     589                    ;*   Regs Used         : A1,A2,SP,LR,SR                                      *
     590                    ;*   Local Frame Size  : 0 Args + 4 Auto + 0 Save = 4 byte                   *
     591                    ;*****************************************************************************
     592 000000d0           EMACReset:
     593                    ;* --------------------------------------------------------------------------*
     594                            .dwcfi  cfa_offset, 0
     595 000000d0 0D08F1AD          SUB       SP, SP, #8            ; [DPU_V7M3_PIPE]  ; [KEEP 32-BIT INS]
     596                            .dwcfi  cfa_offset, 8
     597                    $C$DW$37        .dwtag  DW_TAG_variable
     598                            .dwattr $C$DW$37, DW_AT_name("ui32Base")
     599                            .dwattr $C$DW$37, DW_AT_TI_symbol_name("ui32Base")
     600                            .dwattr $C$DW$37, DW_AT_type(*$C$DW$T$22)
     601                            .dwattr $C$DW$37, DW_AT_location[DW_OP_breg13 0]
     602                    
     603                    ;----------------------------------------------------------------------
     604                    ; 436 | //                                                                     
     605                    ; 437 | // Reset the Ethernet MAC.                                             
TI ARM Assembler Unix v18.1.1 Fri Jul  3 20:08:24 2020

Tools Copyright (c) 1996-2017 Texas Instruments Incorporated
emac.asm                                                             PAGE   12

     606                    ; 438 | //                                                                     
     607                    ;----------------------------------------------------------------------
     608 000000d4 9000              STR       A1, [SP, #0]          ; [DPU_V7M3_PIPE] |435|  ; [ORIG 16-BIT INS]
     609                            .dwpsn  file "../driverlib/emac.c",line 439,column 5,is_stmt,isa 1
     610                    ;----------------------------------------------------------------------
     611                    ; 439 | HWREG(ui32Base + EMAC_O_DMABUSMOD) |= EMAC_DMABUSMOD_SWR;              
     612                    ; 441 | //                                                                     
     613                    ; 442 | // Wait for the reset to complete.                                     
     614                    ; 443 | //                                                                     
     615                    ;----------------------------------------------------------------------
     616 000000d6 9800              LDR       A1, [SP, #0]          ; [DPU_V7M3_PIPE] |439|  ; [ORIG 16-BIT INS]
     617 000000d8 6040F500          ADD       A1, A1, #3072         ; [DPU_V7M3_PIPE] |439|  ; [KEEP 32-BIT INS]
     618 000000dc 6801              LDR       A2, [A1, #0]          ; [DPU_V7M3_PIPE] |439|  ; [ORIG 16-BIT INS]
     619 000000de 0101F041          ORR       A2, A2, #1            ; [DPU_V7M3_PIPE] |439|  ; [KEEP 32-BIT INS]
     620 000000e2 6001              STR       A2, [A1, #0]          ; [DPU_V7M3_PIPE] |439|  ; [ORIG 16-BIT INS]
     621                            .dwpsn  file "../driverlib/emac.c",line 444,column 5,is_stmt,isa 1
     622                    ;----------------------------------------------------------------------
     623                    ; 444 | while(HWREG(ui32Base + EMAC_O_DMABUSMOD) & EMAC_DMABUSMOD_SWR)         
     624                    ;----------------------------------------------------------------------
     625                    ;* --------------------------------------------------------------------------*
     626                    ;*   BEGIN LOOP ||$C$L9||
     627                    ;*
     628                    ;*   Loop source line                : 444
     629                    ;*   Loop closing brace source line  : 446
     630                    ;*   Known Minimum Trip Count        : 1
     631                    ;*   Known Maximum Trip Count        : 4294967295
     632                    ;*   Known Max Trip Count Factor     : 1
     633                    ;* --------------------------------------------------------------------------*
     634 000000e4           ||$C$L9||:    
     635 000000e4 9800              LDR       A1, [SP, #0]          ; [DPU_V7M3_PIPE] |444|  ; [ORIG 16-BIT INS]
     636 000000e6 0C00F8D0          LDR       A1, [A1, #3072]       ; [DPU_V7M3_PIPE] |444|  ; [KEEP 32-BIT INS]
     637 000000ea 0840              LSRS      A1, A1, #1            ; [DPU_V7M3_PIPE] |444|  ; [ORIG 16-BIT INS]
     638 000000ec D2FA              BCS       ||$C$L9||             ; [DPU_V7M3_PIPE] |444|  ; [ORIG 16-BIT INS]
     639                            ; BRANCHCC OCCURS {||$C$L9||}    ; [] |444| 
     640                    ;* --------------------------------------------------------------------------*
     641                            .dwpsn  file "../driverlib/emac.c",line 447,column 1,is_stmt,isa 1
     642 000000ee B002              ADD       SP, SP, #8            ; [DPU_V7M3_PIPE]  ; [ORIG 16-BIT INS]
     643                            .dwcfi  cfa_offset, 0
     644                    $C$DW$38        .dwtag  DW_TAG_TI_branch
     645                            .dwattr $C$DW$38, DW_AT_low_pc(0x00)
     646                            .dwattr $C$DW$38, DW_AT_TI_return
     647                    
     648 000000f0 4770              BX        LR                    ; [DPU_V7M3_PIPE]  ; [ORIG 16-BIT INS]
     649                            ; BRANCH OCCURS                  ; [] 
     650                            .dwattr $C$DW$35, DW_AT_TI_end_file("../driverlib/emac.c")
     651                            .dwattr $C$DW$35, DW_AT_TI_end_line(0x1bf)
     652                            .dwattr $C$DW$35, DW_AT_TI_end_column(0x01)
     653                            .dwendentry
     654                            .dwendtag $C$DW$35
     655                    
     656 000000f2                   .sect   ".text"
     657                            .clink
     658                            .thumbfunc EMACPHYConfigSet
     659 000000f2                   .thumb
     660                            .global EMACPHYConfigSet
TI ARM Assembler Unix v18.1.1 Fri Jul  3 20:08:24 2020

Tools Copyright (c) 1996-2017 Texas Instruments Incorporated
emac.asm                                                             PAGE   13

     661                    
     662                    $C$DW$39        .dwtag  DW_TAG_subprogram
     663                            .dwattr $C$DW$39, DW_AT_name("EMACPHYConfigSet")
     664                            .dwattr $C$DW$39, DW_AT_low_pc(EMACPHYConfigSet)
     665                            .dwattr $C$DW$39, DW_AT_high_pc(0x00)
     666                            .dwattr $C$DW$39, DW_AT_TI_symbol_name("EMACPHYConfigSet")
     667                            .dwattr $C$DW$39, DW_AT_external
     668                            .dwattr $C$DW$39, DW_AT_TI_begin_file("../driverlib/emac.c")
     669                            .dwattr $C$DW$39, DW_AT_TI_begin_line(0x24b)
     670                            .dwattr $C$DW$39, DW_AT_TI_begin_column(0x01)
     671                            .dwattr $C$DW$39, DW_AT_decl_file("../driverlib/emac.c")
     672                            .dwattr $C$DW$39, DW_AT_decl_line(0x24b)
     673                            .dwattr $C$DW$39, DW_AT_decl_column(0x01)
     674                            .dwattr $C$DW$39, DW_AT_TI_max_frame_size(0x10)
     675                            .dwpsn  file "../driverlib/emac.c",line 588,column 1,is_stmt,address EMACPHYConfigSet,isa 1
     676                    
     677                            .dwfde $C$DW$CIE, EMACPHYConfigSet
     678                    $C$DW$40        .dwtag  DW_TAG_formal_parameter
     679                            .dwattr $C$DW$40, DW_AT_name("ui32Base")
     680                            .dwattr $C$DW$40, DW_AT_TI_symbol_name("ui32Base")
     681                            .dwattr $C$DW$40, DW_AT_type(*$C$DW$T$22)
     682                            .dwattr $C$DW$40, DW_AT_location[DW_OP_reg0]
     683                    
     684                    $C$DW$41        .dwtag  DW_TAG_formal_parameter
     685                            .dwattr $C$DW$41, DW_AT_name("ui32Config")
     686                            .dwattr $C$DW$41, DW_AT_TI_symbol_name("ui32Config")
     687                            .dwattr $C$DW$41, DW_AT_type(*$C$DW$T$22)
     688                            .dwattr $C$DW$41, DW_AT_location[DW_OP_reg1]
     689                    
     690                    ;----------------------------------------------------------------------
     691                    ; 587 | EMACPHYConfigSet(uint32_t ui32Base, uint32_t ui32Config)               
     692                    ;----------------------------------------------------------------------
     693                    
     694                    ;*****************************************************************************
     695                    ;* FUNCTION NAME: EMACPHYConfigSet                                           *
     696                    ;*                                                                           *
     697                    ;*   Regs Modified     : A1,A2,A3,A4,V9,SP,LR,SR,D0,D0_hi,D1,D1_hi,D2,D2_hi, *
     698                    ;*                           D3,D3_hi,D4,D4_hi,D5,D5_hi,D6,D6_hi,D7,D7_hi,   *
     699                    ;*                           FPEXC,FPSCR                                     *
     700                    ;*   Regs Used         : A1,A2,A3,A4,V9,SP,LR,SR,D0,D0_hi,D1,D1_hi,D2,D2_hi, *
     701                    ;*                           D3,D3_hi,D4,D4_hi,D5,D5_hi,D6,D6_hi,D7,D7_hi,   *
     702                    ;*                           FPEXC,FPSCR                                     *
     703                    ;*   Local Frame Size  : 0 Args + 8 Auto + 4 Save = 12 byte                  *
     704                    ;*****************************************************************************
     705 000000f2           EMACPHYConfigSet:
     706                    ;* --------------------------------------------------------------------------*
     707                            .dwcfi  cfa_offset, 0
     708 000000f2 B50E              PUSH      {A2, A3, A4, LR}      ; [DPU_V7M3_PIPE]  ; [ORIG 16-BIT INS]
     709                            .dwcfi  cfa_offset, 16
     710                            .dwcfi  save_reg_to_mem, 14, -4
     711                            .dwcfi  save_reg_to_mem, 3, -8
     712                            .dwcfi  save_reg_to_mem, 2, -12
     713                            .dwcfi  save_reg_to_mem, 1, -16
     714                    $C$DW$42        .dwtag  DW_TAG_variable
     715                            .dwattr $C$DW$42, DW_AT_name("ui32Base")
TI ARM Assembler Unix v18.1.1 Fri Jul  3 20:08:24 2020

Tools Copyright (c) 1996-2017 Texas Instruments Incorporated
emac.asm                                                             PAGE   14

     716                            .dwattr $C$DW$42, DW_AT_TI_symbol_name("ui32Base")
     717                            .dwattr $C$DW$42, DW_AT_type(*$C$DW$T$22)
     718                            .dwattr $C$DW$42, DW_AT_location[DW_OP_breg13 0]
     719                    
     720                    $C$DW$43        .dwtag  DW_TAG_variable
     721                            .dwattr $C$DW$43, DW_AT_name("ui32Config")
     722                            .dwattr $C$DW$43, DW_AT_TI_symbol_name("ui32Config")
     723                            .dwattr $C$DW$43, DW_AT_type(*$C$DW$T$22)
     724                            .dwattr $C$DW$43, DW_AT_location[DW_OP_breg13 4]
     725                    
     726                    ;----------------------------------------------------------------------
     727                    ; 589 | //                                                                     
     728                    ; 590 | // Write the Ethernet PHY configuration to the peripheral configuration
     729                    ; 591 | // register.                                                           
     730                    ; 592 | //                                                                     
     731                    ;----------------------------------------------------------------------
     732 000000f4 9101              STR       A2, [SP, #4]          ; [DPU_V7M3_PIPE] |588|  ; [ORIG 16-BIT INS]
     733 000000f6 9000              STR       A1, [SP, #0]          ; [DPU_V7M3_PIPE] |588|  ; [ORIG 16-BIT INS]
     734                            .dwpsn  file "../driverlib/emac.c",line 593,column 5,is_stmt,isa 1
     735                    ;----------------------------------------------------------------------
     736                    ; 593 | HWREG(ui32Base + EMAC_O_PC) = ui32Config;                              
     737                    ; 595 | //                                                                     
     738                    ; 596 | // If using the internal PHY, reset it to ensure that new configuration
     739                    ;     |  is                                                                    
     740                    ; 597 | // latched there.                                                      
     741                    ; 598 | //                                                                     
     742                    ;----------------------------------------------------------------------
     743 000000f8 9801              LDR       A1, [SP, #4]          ; [DPU_V7M3_PIPE] |593|  ; [ORIG 16-BIT INS]
     744 000000fa 9900              LDR       A2, [SP, #0]          ; [DPU_V7M3_PIPE] |593|  ; [ORIG 16-BIT INS]
     745 000000fc 0FC4F8C1          STR       A1, [A2, #4036]       ; [DPU_V7M3_PIPE] |593|  ; [KEEP 32-BIT INS]
     746                            .dwpsn  file "../driverlib/emac.c",line 599,column 5,is_stmt,isa 1
     747                    ;----------------------------------------------------------------------
     748                    ; 599 | if((ui32Config & EMAC_PHY_TYPE_MASK) == EMAC_PHY_TYPE_INTERNAL)        
     749                    ;----------------------------------------------------------------------
     750 00000100 9801              LDR       A1, [SP, #4]          ; [DPU_V7M3_PIPE] |599|  ; [ORIG 16-BIT INS]
     751 00000102 4F40F010          TST       A1, #-1073741824      ; [DPU_V7M3_PIPE] |599|  ; [KEEP 32-BIT INS]
     752 00000106 D10B              BNE       ||$C$L11||            ; [DPU_V7M3_PIPE] |599|  ; [ORIG 16-BIT INS]
     753                            ; BRANCHCC OCCURS {||$C$L11||}   ; [] |599| 
     754                    ;* --------------------------------------------------------------------------*
     755                            .dwpsn  file "../driverlib/emac.c",line 601,column 9,is_stmt,isa 1
     756                    ;----------------------------------------------------------------------
     757                    ; 601 | SysCtlPeripheralReset(SYSCTL_PERIPH_EPHY0);                            
     758                    ;----------------------------------------------------------------------
     759 00000108 48A1              LDR       A1, $C$CON5           ; [DPU_V7M3_PIPE] |601|  ; [ORIG 16-BIT INS]
     760                    $C$DW$44        .dwtag  DW_TAG_TI_branch
     761                            .dwattr $C$DW$44, DW_AT_low_pc(0x00)
     762                            .dwattr $C$DW$44, DW_AT_name("SysCtlPeripheralReset")
     763                            .dwattr $C$DW$44, DW_AT_TI_call
     764                    
     765 0000010a FFFEF7FF!         BL        SysCtlPeripheralReset ; [DPU_V7M3_PIPE] |601|  ; [KEEP 32-BIT INS]
     766                            ; CALL OCCURS {SysCtlPeripheralReset }  ; [] |601| 
     767                            .dwpsn  file "../driverlib/emac.c",line 602,column 9,is_stmt,isa 1
     768                    ;----------------------------------------------------------------------
     769                    ; 602 | while(!SysCtlPeripheralReady(SYSCTL_PERIPH_EPHY0))                     
     770                    ;----------------------------------------------------------------------
TI ARM Assembler Unix v18.1.1 Fri Jul  3 20:08:24 2020

Tools Copyright (c) 1996-2017 Texas Instruments Incorporated
emac.asm                                                             PAGE   15

     771                    ;* --------------------------------------------------------------------------*
     772                    ;*   BEGIN LOOP ||$C$L10||
     773                    ;*
     774                    ;*   Loop source line                : 602
     775                    ;*   Loop closing brace source line  : 607
     776                    ;*   Known Minimum Trip Count        : 1
     777                    ;*   Known Maximum Trip Count        : 4294967295
     778                    ;*   Known Max Trip Count Factor     : 1
     779                    ;* --------------------------------------------------------------------------*
     780 0000010e           ||$C$L10||:    
     781                            .dwpsn  file "../driverlib/emac.c",line 602,column 15,is_stmt,isa 1
     782                    ;----------------------------------------------------------------------
     783                    ; 604 | //                                                                     
     784                    ; 605 | // Wait for the PHY reset to complete.                                 
     785                    ; 606 | //                                                                     
     786                    ; 609 | //                                                                     
     787                    ; 610 | // Delay a bit longer to ensure that the PHY reset has completed.      
     788                    ; 611 | //                                                                     
     789                    ;----------------------------------------------------------------------
     790 0000010e 48A0              LDR       A1, $C$CON5           ; [DPU_V7M3_PIPE] |602|  ; [ORIG 16-BIT INS]
     791                    $C$DW$45        .dwtag  DW_TAG_TI_branch
     792                            .dwattr $C$DW$45, DW_AT_low_pc(0x00)
     793                            .dwattr $C$DW$45, DW_AT_name("SysCtlPeripheralReady")
     794                            .dwattr $C$DW$45, DW_AT_TI_call
     795                    
     796 00000110 FFFEF7FF!         BL        SysCtlPeripheralReady ; [DPU_V7M3_PIPE] |602|  ; [KEEP 32-BIT INS]
     797                            ; CALL OCCURS {SysCtlPeripheralReady }  ; [] |602| 
     798 00000114 2800              CMP       A1, #0                ; [DPU_V7M3_PIPE] |602|  ; [ORIG 16-BIT INS]
     799 00000116 D0FA              BEQ       ||$C$L10||            ; [DPU_V7M3_PIPE] |602|  ; [ORIG 16-BIT INS]
     800                            ; BRANCHCC OCCURS {||$C$L10||}   ; [] |602| 
     801                    ;* --------------------------------------------------------------------------*
     802                            .dwpsn  file "../driverlib/emac.c",line 612,column 9,is_stmt,isa 1
     803                    ;----------------------------------------------------------------------
     804                    ; 612 | SysCtlDelay(10000);                                                    
     805                    ; 615 | //                                                                     
     806                    ; 616 | // If using an external RMII PHY, we must set 2 bits in the Ethernet MA
     807                    ;     | C                                                                      
     808                    ; 617 | // Clock Configuration Register.                                       
     809                    ; 618 | //                                                                     
     810                    ;----------------------------------------------------------------------
     811 00000118 7010F242          MOV       A1, #10000            ; [DPU_V7M3_PIPE] |612|  ; [KEEP 32-BIT INS]
     812                    $C$DW$46        .dwtag  DW_TAG_TI_branch
     813                            .dwattr $C$DW$46, DW_AT_low_pc(0x00)
     814                            .dwattr $C$DW$46, DW_AT_name("SysCtlDelay")
     815                            .dwattr $C$DW$46, DW_AT_TI_call
     816                    
     817 0000011c FFFEF7FF!         BL        SysCtlDelay           ; [DPU_V7M3_PIPE] |612|  ; [KEEP 32-BIT INS]
     818                            ; CALL OCCURS {SysCtlDelay }     ; [] |612| 
     819                    ;* --------------------------------------------------------------------------*
     820 00000120           ||$C$L11||:    
     821                            .dwpsn  file "../driverlib/emac.c",line 619,column 5,is_stmt,isa 1
     822                    ;----------------------------------------------------------------------
     823                    ; 619 | if((ui32Config & EMAC_PHY_TYPE_MASK) == EMAC_PHY_TYPE_EXTERNAL_RMII)   
     824                    ; 621 |     //                                                                 
     825                    ; 622 |     // Select and enable the external clock from the RMII PHY.         
TI ARM Assembler Unix v18.1.1 Fri Jul  3 20:08:24 2020

Tools Copyright (c) 1996-2017 Texas Instruments Incorporated
emac.asm                                                             PAGE   16

     826                    ; 623 |     //                                                                 
     827                    ;----------------------------------------------------------------------
     828 00000120 9801              LDR       A1, [SP, #4]          ; [DPU_V7M3_PIPE] |619|  ; [ORIG 16-BIT INS]
     829 00000122 4040F000          AND       A1, A1, #-1073741824  ; [DPU_V7M3_PIPE] |619|  ; [KEEP 32-BIT INS]
     830 00000126 4F40F1B0          CMP       A1, #-1073741824      ; [DPU_V7M3_PIPE] |619|  ; [KEEP 32-BIT INS]
     831 0000012a D105              BNE       ||$C$L12||            ; [DPU_V7M3_PIPE] |619|  ; [ORIG 16-BIT INS]
     832                            ; BRANCHCC OCCURS {||$C$L12||}   ; [] |619| 
     833                    ;* --------------------------------------------------------------------------*
     834                            .dwpsn  file "../driverlib/emac.c",line 624,column 9,is_stmt,isa 1
     835                    ;----------------------------------------------------------------------
     836                    ; 624 | HWREG(EMAC0_BASE + EMAC_O_CC) |= EMAC_CC_CLKEN;                        
     837                    ;----------------------------------------------------------------------
     838 0000012c 49AF              LDR       A2, $C$CON6           ; [DPU_V7M3_PIPE] |624|  ; [ORIG 16-BIT INS]
     839 0000012e 6808              LDR       A1, [A2, #0]          ; [DPU_V7M3_PIPE] |624|  ; [ORIG 16-BIT INS]
     840 00000130 3080F440          ORR       A1, A1, #65536        ; [DPU_V7M3_PIPE] |624|  ; [KEEP 32-BIT INS]
     841 00000134 6008              STR       A1, [A2, #0]          ; [DPU_V7M3_PIPE] |624|  ; [ORIG 16-BIT INS]
     842                            .dwpsn  file "../driverlib/emac.c",line 625,column 5,is_stmt,isa 1
     843                    ;----------------------------------------------------------------------
     844                    ; 626 | else                                                                   
     845                    ; 628 |     //                                                                 
     846                    ; 629 |     // Disable the external clock.                                     
     847                    ; 630 |     //                                                                 
     848                    ;----------------------------------------------------------------------
     849 00000136 E004              B         ||$C$L13||            ; [DPU_V7M3_PIPE] |625|  ; [ORIG 16-BIT INS]
     850                            ; BRANCH OCCURS {||$C$L13||}     ; [] |625| 
     851                    ;* --------------------------------------------------------------------------*
     852 00000138           ||$C$L12||:    
     853                            .dwpsn  file "../driverlib/emac.c",line 631,column 9,is_stmt,isa 1
     854                    ;----------------------------------------------------------------------
     855                    ; 631 | HWREG(EMAC0_BASE + EMAC_O_CC) &= ~EMAC_CC_CLKEN;                       
     856                    ; 634 | //                                                                     
     857                    ; 635 | // Reset the MAC regardless of whether the PHY connection changed or no
     858                    ;     | t.                                                                     
     859                    ; 636 | //                                                                     
     860                    ;----------------------------------------------------------------------
     861 00000138 49AC              LDR       A2, $C$CON6           ; [DPU_V7M3_PIPE] |631|  ; [ORIG 16-BIT INS]
     862 0000013a 6808              LDR       A1, [A2, #0]          ; [DPU_V7M3_PIPE] |631|  ; [ORIG 16-BIT INS]
     863 0000013c 3080F420          BIC       A1, A1, #65536        ; [DPU_V7M3_PIPE] |631|  ; [KEEP 32-BIT INS]
     864 00000140 6008              STR       A1, [A2, #0]          ; [DPU_V7M3_PIPE] |631|  ; [ORIG 16-BIT INS]
     865                    ;* --------------------------------------------------------------------------*
     866 00000142           ||$C$L13||:    
     867                            .dwpsn  file "../driverlib/emac.c",line 637,column 5,is_stmt,isa 1
     868                    ;----------------------------------------------------------------------
     869                    ; 637 | EMACReset(EMAC0_BASE);                                                 
     870                    ;----------------------------------------------------------------------
     871 00000142 48B1              LDR       A1, $C$CON7           ; [DPU_V7M3_PIPE] |637|  ; [ORIG 16-BIT INS]
     872                    $C$DW$47        .dwtag  DW_TAG_TI_branch
     873                            .dwattr $C$DW$47, DW_AT_low_pc(0x00)
     874                            .dwattr $C$DW$47, DW_AT_name("EMACReset")
     875                            .dwattr $C$DW$47, DW_AT_TI_call
     876                    
     877 00000144 FFFEF7FF!         BL        EMACReset             ; [DPU_V7M3_PIPE] |637|  ; [KEEP 32-BIT INS]
     878                            ; CALL OCCURS {EMACReset }       ; [] |637| 
     879                            .dwpsn  file "../driverlib/emac.c",line 639,column 5,is_stmt,isa 1
     880                    ;----------------------------------------------------------------------
TI ARM Assembler Unix v18.1.1 Fri Jul  3 20:08:24 2020

Tools Copyright (c) 1996-2017 Texas Instruments Incorporated
emac.asm                                                             PAGE   17

     881                    ; 639 | SysCtlDelay(1000);                                                     
     882                    ;----------------------------------------------------------------------
     883 00000148 707AF44F          MOV       A1, #1000             ; [DPU_V7M3_PIPE] |639|  ; [KEEP 32-BIT INS]
     884                    $C$DW$48        .dwtag  DW_TAG_TI_branch
     885                            .dwattr $C$DW$48, DW_AT_low_pc(0x00)
     886                            .dwattr $C$DW$48, DW_AT_name("SysCtlDelay")
     887                            .dwattr $C$DW$48, DW_AT_TI_call
     888                    
     889 0000014c FFFEF7FF!         BL        SysCtlDelay           ; [DPU_V7M3_PIPE] |639|  ; [KEEP 32-BIT INS]
     890                            ; CALL OCCURS {SysCtlDelay }     ; [] |639| 
     891                            .dwpsn  file "../driverlib/emac.c",line 640,column 1,is_stmt,isa 1
     892                    $C$DW$49        .dwtag  DW_TAG_TI_branch
     893                            .dwattr $C$DW$49, DW_AT_low_pc(0x00)
     894                            .dwattr $C$DW$49, DW_AT_TI_return
     895                    
     896 00000150 BD0E              POP       {A2, A3, A4, PC}      ; [DPU_V7M3_PIPE]  ; [ORIG 16-BIT INS]
     897                            .dwcfi  cfa_offset, 0
     898                            .dwcfi  restore_reg, 3
     899                            .dwcfi  restore_reg, 2
     900                            .dwcfi  restore_reg, 1
     901                            ; BRANCH OCCURS                  ; [] 
     902                            .dwattr $C$DW$39, DW_AT_TI_end_file("../driverlib/emac.c")
     903                            .dwattr $C$DW$39, DW_AT_TI_end_line(0x280)
     904                            .dwattr $C$DW$39, DW_AT_TI_end_column(0x01)
     905                            .dwendentry
     906                            .dwendtag $C$DW$39
     907                    
     908 00000152                   .sect   ".text"
     909                            .clink
     910                            .thumbfunc EMACConfigSet
     911 00000152                   .thumb
     912                            .global EMACConfigSet
     913                    
     914                    $C$DW$50        .dwtag  DW_TAG_subprogram
     915                            .dwattr $C$DW$50, DW_AT_name("EMACConfigSet")
     916                            .dwattr $C$DW$50, DW_AT_low_pc(EMACConfigSet)
     917                            .dwattr $C$DW$50, DW_AT_high_pc(0x00)
     918                            .dwattr $C$DW$50, DW_AT_TI_symbol_name("EMACConfigSet")
     919                            .dwattr $C$DW$50, DW_AT_external
     920                            .dwattr $C$DW$50, DW_AT_TI_begin_file("../driverlib/emac.c")
     921                            .dwattr $C$DW$50, DW_AT_TI_begin_line(0x33c)
     922                            .dwattr $C$DW$50, DW_AT_TI_begin_column(0x01)
     923                            .dwattr $C$DW$50, DW_AT_decl_file("../driverlib/emac.c")
     924                            .dwattr $C$DW$50, DW_AT_decl_line(0x33c)
     925                            .dwattr $C$DW$50, DW_AT_decl_column(0x01)
     926                            .dwattr $C$DW$50, DW_AT_TI_max_frame_size(0x10)
     927                            .dwpsn  file "../driverlib/emac.c",line 830,column 1,is_stmt,address EMACConfigSet,isa 1
     928                    
     929                            .dwfde $C$DW$CIE, EMACConfigSet
     930                    $C$DW$51        .dwtag  DW_TAG_formal_parameter
     931                            .dwattr $C$DW$51, DW_AT_name("ui32Base")
     932                            .dwattr $C$DW$51, DW_AT_TI_symbol_name("ui32Base")
     933                            .dwattr $C$DW$51, DW_AT_type(*$C$DW$T$22)
     934                            .dwattr $C$DW$51, DW_AT_location[DW_OP_reg0]
     935                    
TI ARM Assembler Unix v18.1.1 Fri Jul  3 20:08:24 2020

Tools Copyright (c) 1996-2017 Texas Instruments Incorporated
emac.asm                                                             PAGE   18

     936                    $C$DW$52        .dwtag  DW_TAG_formal_parameter
     937                            .dwattr $C$DW$52, DW_AT_name("ui32Config")
     938                            .dwattr $C$DW$52, DW_AT_TI_symbol_name("ui32Config")
     939                            .dwattr $C$DW$52, DW_AT_type(*$C$DW$T$22)
     940                            .dwattr $C$DW$52, DW_AT_location[DW_OP_reg1]
     941                    
     942                    $C$DW$53        .dwtag  DW_TAG_formal_parameter
     943                            .dwattr $C$DW$53, DW_AT_name("ui32ModeFlags")
     944                            .dwattr $C$DW$53, DW_AT_TI_symbol_name("ui32ModeFlags")
     945                            .dwattr $C$DW$53, DW_AT_type(*$C$DW$T$22)
     946                            .dwattr $C$DW$53, DW_AT_location[DW_OP_reg2]
     947                    
     948                    $C$DW$54        .dwtag  DW_TAG_formal_parameter
     949                            .dwattr $C$DW$54, DW_AT_name("ui32RxMaxFrameSize")
     950                            .dwattr $C$DW$54, DW_AT_TI_symbol_name("ui32RxMaxFrameSize")
     951                            .dwattr $C$DW$54, DW_AT_type(*$C$DW$T$22)
     952                            .dwattr $C$DW$54, DW_AT_location[DW_OP_reg3]
     953                    
     954                    ;----------------------------------------------------------------------
     955                    ; 828 | EMACConfigSet(uint32_t ui32Base, uint32_t ui32Config, uint32_t ui32Mode
     956                    ;     | Flags,                                                                 
     957                    ; 829 | uint32_t ui32RxMaxFrameSize)                                           
     958                    ;----------------------------------------------------------------------
     959                    
     960                    ;*****************************************************************************
     961                    ;* FUNCTION NAME: EMACConfigSet                                              *
     962                    ;*                                                                           *
     963                    ;*   Regs Modified     : A1,A2,A3,A4,SP,SR                                   *
     964                    ;*   Regs Used         : A1,A2,A3,A4,SP,LR,SR                                *
     965                    ;*   Local Frame Size  : 0 Args + 16 Auto + 0 Save = 16 byte                 *
     966                    ;*****************************************************************************
     967 00000152           EMACConfigSet:
     968                    ;* --------------------------------------------------------------------------*
     969                            .dwcfi  cfa_offset, 0
     970 00000152 0D10F1AD          SUB       SP, SP, #16           ; [DPU_V7M3_PIPE]  ; [KEEP 32-BIT INS]
     971                            .dwcfi  cfa_offset, 16
     972                    $C$DW$55        .dwtag  DW_TAG_variable
     973                            .dwattr $C$DW$55, DW_AT_name("ui32Base")
     974                            .dwattr $C$DW$55, DW_AT_TI_symbol_name("ui32Base")
     975                            .dwattr $C$DW$55, DW_AT_type(*$C$DW$T$22)
     976                            .dwattr $C$DW$55, DW_AT_location[DW_OP_breg13 0]
     977                    
     978                    $C$DW$56        .dwtag  DW_TAG_variable
     979                            .dwattr $C$DW$56, DW_AT_name("ui32Config")
     980                            .dwattr $C$DW$56, DW_AT_TI_symbol_name("ui32Config")
     981                            .dwattr $C$DW$56, DW_AT_type(*$C$DW$T$22)
     982                            .dwattr $C$DW$56, DW_AT_location[DW_OP_breg13 4]
     983                    
     984                    $C$DW$57        .dwtag  DW_TAG_variable
     985                            .dwattr $C$DW$57, DW_AT_name("ui32ModeFlags")
     986                            .dwattr $C$DW$57, DW_AT_TI_symbol_name("ui32ModeFlags")
     987                            .dwattr $C$DW$57, DW_AT_type(*$C$DW$T$22)
     988                            .dwattr $C$DW$57, DW_AT_location[DW_OP_breg13 8]
     989                    
     990                    $C$DW$58        .dwtag  DW_TAG_variable
TI ARM Assembler Unix v18.1.1 Fri Jul  3 20:08:24 2020

Tools Copyright (c) 1996-2017 Texas Instruments Incorporated
emac.asm                                                             PAGE   19

     991                            .dwattr $C$DW$58, DW_AT_name("ui32RxMaxFrameSize")
     992                            .dwattr $C$DW$58, DW_AT_TI_symbol_name("ui32RxMaxFrameSize")
     993                            .dwattr $C$DW$58, DW_AT_type(*$C$DW$T$22)
     994                            .dwattr $C$DW$58, DW_AT_location[DW_OP_breg13 12]
     995                    
     996                    ;----------------------------------------------------------------------
     997                    ; 831 | //                                                                     
     998                    ; 832 | // Parameter sanity check.  Note that we allow TX_ENABLED and RX_ENABLE
     999                    ;     | D                                                                      
    1000                    ; 833 | // here because we'll mask them off before writing the value and this  
    1001                    ; 834 | // makes back-to-back EMACConfigGet/EMACConfigSet calls work without th
    1002                    ;     | e                                                                      
    1003                    ; 835 | // caller needing to explicitly remove these bits from the parameter.  
    1004                    ; 836 | //                                                                     
    1005                    ; 837 | ASSERT((ui32Config & ~(VALID_CONFIG_FLAGS |  EMAC_CONFIG_TX_ENABLED |  
    1006                    ; 838 |                        EMAC_CONFIG_RX_ENABLED)) == 0);                 
    1007                    ; 839 | ASSERT(!ui32RxMaxFrameSize || ((ui32RxMaxFrameSize < 0x4000) &&        
    1008                    ; 840 |                                (ui32RxMaxFrameSize > 1522)));          
    1009                    ; 842 | //                                                                     
    1010                    ; 843 | // Set the configuration flags as specified.  Note that we unconditiona
    1011                    ;     | lly                                                                    
    1012                    ; 844 | // OR in the EMAC_CFG_PS bit here since this implementation supports on
    1013                    ;     | ly                                                                     
    1014                    ; 845 | // MII and RMII interfaces to the PHYs.                                
    1015                    ; 846 | //                                                                     
    1016                    ;----------------------------------------------------------------------
    1017 00000156 9303              STR       A4, [SP, #12]         ; [DPU_V7M3_PIPE] |830|  ; [ORIG 16-BIT INS]
    1018 00000158 9202              STR       A3, [SP, #8]          ; [DPU_V7M3_PIPE] |830|  ; [ORIG 16-BIT INS]
    1019 0000015a 9101              STR       A2, [SP, #4]          ; [DPU_V7M3_PIPE] |830|  ; [ORIG 16-BIT INS]
    1020 0000015c 9000              STR       A1, [SP, #0]          ; [DPU_V7M3_PIPE] |830|  ; [ORIG 16-BIT INS]
    1021                            .dwpsn  file "../driverlib/emac.c",line 847,column 5,is_stmt,isa 1
    1022                    ;----------------------------------------------------------------------
    1023                    ; 847 | HWREG(ui32Base + EMAC_O_CFG) =                                         
    1024                    ; 848 |     ((HWREG(ui32Base + EMAC_O_CFG) & ~VALID_CONFIG_FLAGS) | ui32Config
    1025                    ;     | |                                                                      
    1026                    ; 849 |      EMAC_CFG_PS);                                                     
    1027                    ; 851 | //                                                                     
    1028                    ; 852 | // Set the maximum receive frame size.  If 0 is passed, this implies   
    1029                    ; 853 | // that the default maximum frame size should be used so just turn off 
    1030                    ; 854 | // the override.                                                       
    1031                    ; 855 | //                                                                     
    1032                    ;----------------------------------------------------------------------
    1033 0000015e 48AF              LDR       A1, $C$CON8           ; [DPU_V7M3_PIPE] |847|  ; [ORIG 16-BIT INS]
    1034 00000160 9900              LDR       A2, [SP, #0]          ; [DPU_V7M3_PIPE] |847|  ; [ORIG 16-BIT INS]
    1035 00000162 9A00              LDR       A3, [SP, #0]          ; [DPU_V7M3_PIPE] |847|  ; [ORIG 16-BIT INS]
    1036 00000164 680B              LDR       A4, [A2, #0]          ; [DPU_V7M3_PIPE] |847|  ; [ORIG 16-BIT INS]
    1037 00000166 9901              LDR       A2, [SP, #4]          ; [DPU_V7M3_PIPE] |847|  ; [ORIG 16-BIT INS]
    1038 00000168 4018              ANDS      A1, A1, A4            ; [DPU_V7M3_PIPE] |847|  ; [ORIG 16-BIT INS]
    1039 0000016a 4301              ORRS      A2, A2, A1            ; [DPU_V7M3_PIPE] |847|  ; [ORIG 16-BIT INS]
    1040 0000016c 4100F441          ORR       A2, A2, #32768        ; [DPU_V7M3_PIPE] |847|  ; [KEEP 32-BIT INS]
    1041 00000170 6011              STR       A2, [A3, #0]          ; [DPU_V7M3_PIPE] |847|  ; [ORIG 16-BIT INS]
    1042                            .dwpsn  file "../driverlib/emac.c",line 856,column 5,is_stmt,isa 1
    1043                    ;----------------------------------------------------------------------
    1044                    ; 856 | if(ui32RxMaxFrameSize)                                                 
    1045                    ;----------------------------------------------------------------------
TI ARM Assembler Unix v18.1.1 Fri Jul  3 20:08:24 2020

Tools Copyright (c) 1996-2017 Texas Instruments Incorporated
emac.asm                                                             PAGE   20

    1046 00000172 9803              LDR       A1, [SP, #12]         ; [DPU_V7M3_PIPE] |856|  ; [ORIG 16-BIT INS]
    1047 00000174 B130              CBZ       A1, ||$C$L14||        ; []  ; [ORIG 16-BIT INS]
    1048                            ; BRANCHCC OCCURS {||$C$L14||}   ; [] |856| 
    1049                    ;* --------------------------------------------------------------------------*
    1050                            .dwpsn  file "../driverlib/emac.c",line 858,column 9,is_stmt,isa 1
    1051                    ;----------------------------------------------------------------------
    1052                    ; 858 | HWREG(ui32Base + EMAC_O_WDOGTO) = ui32RxMaxFrameSize | EMAC_WDOGTO_PWE;
    1053                    ;----------------------------------------------------------------------
    1054 00000176 9803              LDR       A1, [SP, #12]         ; [DPU_V7M3_PIPE] |858|  ; [ORIG 16-BIT INS]
    1055 00000178 9900              LDR       A2, [SP, #0]          ; [DPU_V7M3_PIPE] |858|  ; [ORIG 16-BIT INS]
    1056 0000017a 3080F440          ORR       A1, A1, #65536        ; [DPU_V7M3_PIPE] |858|  ; [KEEP 32-BIT INS]
    1057 0000017e 00DCF8C1          STR       A1, [A2, #220]        ; [DPU_V7M3_PIPE] |858|  ; [KEEP 32-BIT INS]
    1058                            .dwpsn  file "../driverlib/emac.c",line 859,column 5,is_stmt,isa 1
    1059                    ;----------------------------------------------------------------------
    1060                    ; 860 | else                                                                   
    1061                    ;----------------------------------------------------------------------
    1062 00000182 E005              B         ||$C$L15||            ; [DPU_V7M3_PIPE] |859|  ; [ORIG 16-BIT INS]
    1063                            ; BRANCH OCCURS {||$C$L15||}     ; [] |859| 
    1064                    ;* --------------------------------------------------------------------------*
    1065 00000184           ||$C$L14||:    
    1066                            .dwpsn  file "../driverlib/emac.c",line 862,column 9,is_stmt,isa 1
    1067                    ;----------------------------------------------------------------------
    1068                    ; 862 | HWREG(ui32Base + EMAC_O_WDOGTO) &= ~EMAC_WDOGTO_PWE;                   
    1069                    ; 865 | //                                                                     
    1070                    ; 866 | // Set the operating mode register.                                    
    1071                    ; 867 | //                                                                     
    1072                    ;----------------------------------------------------------------------
    1073 00000184 9800              LDR       A1, [SP, #0]          ; [DPU_V7M3_PIPE] |862|  ; [ORIG 16-BIT INS]
    1074 00000186 30DC              ADDS      A1, A1, #220          ; [DPU_V7M3_PIPE] |862|  ; [ORIG 16-BIT INS]
    1075 00000188 6801              LDR       A2, [A1, #0]          ; [DPU_V7M3_PIPE] |862|  ; [ORIG 16-BIT INS]
    1076 0000018a 3180F421          BIC       A2, A2, #65536        ; [DPU_V7M3_PIPE] |862|  ; [KEEP 32-BIT INS]
    1077 0000018e 6001              STR       A2, [A1, #0]          ; [DPU_V7M3_PIPE] |862|  ; [ORIG 16-BIT INS]
    1078                    ;* --------------------------------------------------------------------------*
    1079 00000190           ||$C$L15||:    
    1080                            .dwpsn  file "../driverlib/emac.c",line 868,column 5,is_stmt,isa 1
    1081                    ;----------------------------------------------------------------------
    1082                    ; 868 | HWREG(ui32Base + EMAC_O_DMAOPMODE) = ui32ModeFlags;                    
    1083                    ;----------------------------------------------------------------------
    1084 00000190 9802              LDR       A1, [SP, #8]          ; [DPU_V7M3_PIPE] |868|  ; [ORIG 16-BIT INS]
    1085 00000192 9900              LDR       A2, [SP, #0]          ; [DPU_V7M3_PIPE] |868|  ; [ORIG 16-BIT INS]
    1086 00000194 0C18F8C1          STR       A1, [A2, #3096]       ; [DPU_V7M3_PIPE] |868|  ; [KEEP 32-BIT INS]
    1087                            .dwpsn  file "../driverlib/emac.c",line 869,column 1,is_stmt,isa 1
    1088 00000198 B004              ADD       SP, SP, #16           ; [DPU_V7M3_PIPE]  ; [ORIG 16-BIT INS]
    1089                            .dwcfi  cfa_offset, 0
    1090                    $C$DW$59        .dwtag  DW_TAG_TI_branch
    1091                            .dwattr $C$DW$59, DW_AT_low_pc(0x00)
    1092                            .dwattr $C$DW$59, DW_AT_TI_return
    1093                    
    1094 0000019a 4770              BX        LR                    ; [DPU_V7M3_PIPE]  ; [ORIG 16-BIT INS]
    1095                            ; BRANCH OCCURS                  ; [] 
    1096                            .dwattr $C$DW$50, DW_AT_TI_end_file("../driverlib/emac.c")
    1097                            .dwattr $C$DW$50, DW_AT_TI_end_line(0x365)
    1098                            .dwattr $C$DW$50, DW_AT_TI_end_column(0x01)
    1099                            .dwendentry
    1100                            .dwendtag $C$DW$50
TI ARM Assembler Unix v18.1.1 Fri Jul  3 20:08:24 2020

Tools Copyright (c) 1996-2017 Texas Instruments Incorporated
emac.asm                                                             PAGE   21

    1101                    
    1102 0000019c                   .sect   ".text"
    1103                            .clink
    1104                            .thumbfunc EMACConfigGet
    1105 0000019c                   .thumb
    1106                            .global EMACConfigGet
    1107                    
    1108                    $C$DW$60        .dwtag  DW_TAG_subprogram
    1109                            .dwattr $C$DW$60, DW_AT_name("EMACConfigGet")
    1110                            .dwattr $C$DW$60, DW_AT_low_pc(EMACConfigGet)
    1111                            .dwattr $C$DW$60, DW_AT_high_pc(0x00)
    1112                            .dwattr $C$DW$60, DW_AT_TI_symbol_name("EMACConfigGet")
    1113                            .dwattr $C$DW$60, DW_AT_external
    1114                            .dwattr $C$DW$60, DW_AT_TI_begin_file("../driverlib/emac.c")
    1115                            .dwattr $C$DW$60, DW_AT_TI_begin_line(0x427)
    1116                            .dwattr $C$DW$60, DW_AT_TI_begin_column(0x01)
    1117                            .dwattr $C$DW$60, DW_AT_decl_file("../driverlib/emac.c")
    1118                            .dwattr $C$DW$60, DW_AT_decl_line(0x427)
    1119                            .dwattr $C$DW$60, DW_AT_decl_column(0x01)
    1120                            .dwattr $C$DW$60, DW_AT_TI_max_frame_size(0x18)
    1121                            .dwpsn  file "../driverlib/emac.c",line 1065,column 1,is_stmt,address EMACConfigGet,isa 1
    1122                    
    1123                            .dwfde $C$DW$CIE, EMACConfigGet
    1124                    $C$DW$61        .dwtag  DW_TAG_formal_parameter
    1125                            .dwattr $C$DW$61, DW_AT_name("ui32Base")
    1126                            .dwattr $C$DW$61, DW_AT_TI_symbol_name("ui32Base")
    1127                            .dwattr $C$DW$61, DW_AT_type(*$C$DW$T$22)
    1128                            .dwattr $C$DW$61, DW_AT_location[DW_OP_reg0]
    1129                    
    1130                    $C$DW$62        .dwtag  DW_TAG_formal_parameter
    1131                            .dwattr $C$DW$62, DW_AT_name("pui32Config")
    1132                            .dwattr $C$DW$62, DW_AT_TI_symbol_name("pui32Config")
    1133                            .dwattr $C$DW$62, DW_AT_type(*$C$DW$T$57)
    1134                            .dwattr $C$DW$62, DW_AT_location[DW_OP_reg1]
    1135                    
    1136                    $C$DW$63        .dwtag  DW_TAG_formal_parameter
    1137                            .dwattr $C$DW$63, DW_AT_name("pui32Mode")
    1138                            .dwattr $C$DW$63, DW_AT_TI_symbol_name("pui32Mode")
    1139                            .dwattr $C$DW$63, DW_AT_type(*$C$DW$T$57)
    1140                            .dwattr $C$DW$63, DW_AT_location[DW_OP_reg2]
    1141                    
    1142                    $C$DW$64        .dwtag  DW_TAG_formal_parameter
    1143                            .dwattr $C$DW$64, DW_AT_name("pui32RxMaxFrameSize")
    1144                            .dwattr $C$DW$64, DW_AT_TI_symbol_name("pui32RxMaxFrameSize")
    1145                            .dwattr $C$DW$64, DW_AT_type(*$C$DW$T$57)
    1146                            .dwattr $C$DW$64, DW_AT_location[DW_OP_reg3]
    1147                    
    1148                    ;----------------------------------------------------------------------
    1149                    ; 1063 | EMACConfigGet(uint32_t ui32Base, uint32_t *pui32Config, uint32_t *pui32
    1150                    ;     | Mode,                                                                  
    1151                    ; 1064 | uint32_t *pui32RxMaxFrameSize)                                         
    1152                    ;----------------------------------------------------------------------
    1153                    
    1154                    ;*****************************************************************************
    1155                    ;* FUNCTION NAME: EMACConfigGet                                              *
TI ARM Assembler Unix v18.1.1 Fri Jul  3 20:08:24 2020

Tools Copyright (c) 1996-2017 Texas Instruments Incorporated
emac.asm                                                             PAGE   22

    1156                    ;*                                                                           *
    1157                    ;*   Regs Modified     : A1,A2,A3,SP,SR                                      *
    1158                    ;*   Regs Used         : A1,A2,A3,A4,SP,LR,SR                                *
    1159                    ;*   Local Frame Size  : 0 Args + 20 Auto + 0 Save = 20 byte                 *
    1160                    ;*****************************************************************************
    1161 0000019c           EMACConfigGet:
    1162                    ;* --------------------------------------------------------------------------*
    1163                            .dwcfi  cfa_offset, 0
    1164 0000019c 0D18F1AD          SUB       SP, SP, #24           ; [DPU_V7M3_PIPE]  ; [KEEP 32-BIT INS]
    1165                            .dwcfi  cfa_offset, 24
    1166                    $C$DW$65        .dwtag  DW_TAG_variable
    1167                            .dwattr $C$DW$65, DW_AT_name("ui32Base")
    1168                            .dwattr $C$DW$65, DW_AT_TI_symbol_name("ui32Base")
    1169                            .dwattr $C$DW$65, DW_AT_type(*$C$DW$T$22)
    1170                            .dwattr $C$DW$65, DW_AT_location[DW_OP_breg13 0]
    1171                    
    1172                    $C$DW$66        .dwtag  DW_TAG_variable
    1173                            .dwattr $C$DW$66, DW_AT_name("pui32Config")
    1174                            .dwattr $C$DW$66, DW_AT_TI_symbol_name("pui32Config")
    1175                            .dwattr $C$DW$66, DW_AT_type(*$C$DW$T$57)
    1176                            .dwattr $C$DW$66, DW_AT_location[DW_OP_breg13 4]
    1177                    
    1178                    $C$DW$67        .dwtag  DW_TAG_variable
    1179                            .dwattr $C$DW$67, DW_AT_name("pui32Mode")
    1180                            .dwattr $C$DW$67, DW_AT_TI_symbol_name("pui32Mode")
    1181                            .dwattr $C$DW$67, DW_AT_type(*$C$DW$T$57)
    1182                            .dwattr $C$DW$67, DW_AT_location[DW_OP_breg13 8]
    1183                    
    1184                    $C$DW$68        .dwtag  DW_TAG_variable
    1185                            .dwattr $C$DW$68, DW_AT_name("pui32RxMaxFrameSize")
    1186                            .dwattr $C$DW$68, DW_AT_TI_symbol_name("pui32RxMaxFrameSize")
    1187                            .dwattr $C$DW$68, DW_AT_type(*$C$DW$T$57)
    1188                            .dwattr $C$DW$68, DW_AT_location[DW_OP_breg13 12]
    1189                    
    1190                    $C$DW$69        .dwtag  DW_TAG_variable
    1191                            .dwattr $C$DW$69, DW_AT_name("ui32Value")
    1192                            .dwattr $C$DW$69, DW_AT_TI_symbol_name("ui32Value")
    1193                            .dwattr $C$DW$69, DW_AT_type(*$C$DW$T$22)
    1194                            .dwattr $C$DW$69, DW_AT_location[DW_OP_breg13 16]
    1195                    
    1196                    ;----------------------------------------------------------------------
    1197                    ; 1066 | uint32_t ui32Value;                                                    
    1198                    ; 1068 | //                                                                     
    1199                    ; 1069 | // Parameter sanity check.                                             
    1200                    ; 1070 | //                                                                     
    1201                    ; 1071 | ASSERT(pui32Mode);                                                     
    1202                    ; 1072 | ASSERT(pui32Config);                                                   
    1203                    ; 1073 | ASSERT(pui32RxMaxFrameSize);                                           
    1204                    ; 1075 | //                                                                     
    1205                    ; 1076 | // Return the mode information from the operation mode register.       
    1206                    ; 1077 | //                                                                     
    1207                    ;----------------------------------------------------------------------
    1208 000001a0 9303              STR       A4, [SP, #12]         ; [DPU_V7M3_PIPE] |1065|  ; [ORIG 16-BIT INS]
    1209 000001a2 9202              STR       A3, [SP, #8]          ; [DPU_V7M3_PIPE] |1065|  ; [ORIG 16-BIT INS]
    1210 000001a4 9101              STR       A2, [SP, #4]          ; [DPU_V7M3_PIPE] |1065|  ; [ORIG 16-BIT INS]
TI ARM Assembler Unix v18.1.1 Fri Jul  3 20:08:24 2020

Tools Copyright (c) 1996-2017 Texas Instruments Incorporated
emac.asm                                                             PAGE   23

    1211 000001a6 9000              STR       A1, [SP, #0]          ; [DPU_V7M3_PIPE] |1065|  ; [ORIG 16-BIT INS]
    1212                            .dwpsn  file "../driverlib/emac.c",line 1078,column 5,is_stmt,isa 1
    1213                    ;----------------------------------------------------------------------
    1214                    ; 1078 | *pui32Mode = HWREG(ui32Base + EMAC_O_DMAOPMODE);                       
    1215                    ; 1080 | //                                                                     
    1216                    ; 1081 | // Return the current configuration flags from the EMAC_O_CFG register.
    1217                    ; 1082 | //                                                                     
    1218                    ;----------------------------------------------------------------------
    1219 000001a8 9800              LDR       A1, [SP, #0]          ; [DPU_V7M3_PIPE] |1078|  ; [ORIG 16-BIT INS]
    1220 000001aa 9902              LDR       A2, [SP, #8]          ; [DPU_V7M3_PIPE] |1078|  ; [ORIG 16-BIT INS]
    1221 000001ac 0C18F8D0          LDR       A1, [A1, #3096]       ; [DPU_V7M3_PIPE] |1078|  ; [KEEP 32-BIT INS]
    1222 000001b0 6008              STR       A1, [A2, #0]          ; [DPU_V7M3_PIPE] |1078|  ; [ORIG 16-BIT INS]
    1223                            .dwpsn  file "../driverlib/emac.c",line 1083,column 5,is_stmt,isa 1
    1224                    ;----------------------------------------------------------------------
    1225                    ; 1083 | *pui32Config = (HWREG(ui32Base + EMAC_O_CFG) &                         
    1226                    ; 1084 |                 (VALID_CONFIG_FLAGS | EMAC_CONFIG_TX_ENABLED |         
    1227                    ; 1085 |                  EMAC_CONFIG_RX_ENABLED));                             
    1228                    ; 1087 | //                                                                     
    1229                    ; 1088 | // Get the receive packet size watchdog value.                         
    1230                    ; 1089 | //                                                                     
    1231                    ;----------------------------------------------------------------------
    1232 000001b2 9900              LDR       A2, [SP, #0]          ; [DPU_V7M3_PIPE] |1083|  ; [ORIG 16-BIT INS]
    1233 000001b4 48B0              LDR       A1, $C$CON9           ; [DPU_V7M3_PIPE] |1083|  ; [ORIG 16-BIT INS]
    1234 000001b6 680A              LDR       A3, [A2, #0]          ; [DPU_V7M3_PIPE] |1083|  ; [ORIG 16-BIT INS]
    1235 000001b8 9901              LDR       A2, [SP, #4]          ; [DPU_V7M3_PIPE] |1083|  ; [ORIG 16-BIT INS]
    1236 000001ba 4010              ANDS      A1, A1, A3            ; [DPU_V7M3_PIPE] |1083|  ; [ORIG 16-BIT INS]
    1237 000001bc 6008              STR       A1, [A2, #0]          ; [DPU_V7M3_PIPE] |1083|  ; [ORIG 16-BIT INS]
    1238                            .dwpsn  file "../driverlib/emac.c",line 1090,column 5,is_stmt,isa 1
    1239                    ;----------------------------------------------------------------------
    1240                    ; 1090 | ui32Value = HWREG(ui32Base + EMAC_O_WDOGTO);                           
    1241                    ;----------------------------------------------------------------------
    1242 000001be 9800              LDR       A1, [SP, #0]          ; [DPU_V7M3_PIPE] |1090|  ; [ORIG 16-BIT INS]
    1243 000001c0 00DCF8D0          LDR       A1, [A1, #220]        ; [DPU_V7M3_PIPE] |1090|  ; [KEEP 32-BIT INS]
    1244 000001c4 9004              STR       A1, [SP, #16]         ; [DPU_V7M3_PIPE] |1090|  ; [ORIG 16-BIT INS]
    1245                            .dwpsn  file "../driverlib/emac.c",line 1091,column 5,is_stmt,isa 1
    1246                    ;----------------------------------------------------------------------
    1247                    ; 1091 | if(ui32Value & EMAC_WDOGTO_PWE)                                        
    1248                    ; 1093 |     //                                                                 
    1249                    ; 1094 |     // The watchdog is enables so the maximum packet length can be read
    1250                    ; 1095 |     // from the watchdog timeout register.                             
    1251                    ; 1096 |     //                                                                 
    1252                    ;----------------------------------------------------------------------
    1253 000001c6 9804              LDR       A1, [SP, #16]         ; [DPU_V7M3_PIPE] |1091|  ; [ORIG 16-BIT INS]
    1254 000001c8 0C40              LSRS      A1, A1, #17           ; [DPU_V7M3_PIPE] |1091|  ; [ORIG 16-BIT INS]
    1255 000001ca D305              BCC       ||$C$L16||            ; [DPU_V7M3_PIPE] |1091|  ; [ORIG 16-BIT INS]
    1256                            ; BRANCHCC OCCURS {||$C$L16||}   ; [] |1091| 
    1257                    ;* --------------------------------------------------------------------------*
    1258                            .dwpsn  file "../driverlib/emac.c",line 1097,column 9,is_stmt,isa 1
    1259                    ;----------------------------------------------------------------------
    1260                    ; 1097 | *pui32RxMaxFrameSize = ui32Value & EMAC_WDOGTO_WTO_M;                  
    1261                    ;----------------------------------------------------------------------
    1262 000001cc 9804              LDR       A1, [SP, #16]         ; [DPU_V7M3_PIPE] |1097|  ; [ORIG 16-BIT INS]
    1263 000001ce 9903              LDR       A2, [SP, #12]         ; [DPU_V7M3_PIPE] |1097|  ; [ORIG 16-BIT INS]
    1264 000001d0 309FF36F          BFC       A1, #14, #18          ; [DPU_V7M3_PIPE] |1097|  ; [KEEP 32-BIT INS]
    1265 000001d4 6008              STR       A1, [A2, #0]          ; [DPU_V7M3_PIPE] |1097|  ; [ORIG 16-BIT INS]
TI ARM Assembler Unix v18.1.1 Fri Jul  3 20:08:24 2020

Tools Copyright (c) 1996-2017 Texas Instruments Incorporated
emac.asm                                                             PAGE   24

    1266                            .dwpsn  file "../driverlib/emac.c",line 1098,column 5,is_stmt,isa 1
    1267                    ;----------------------------------------------------------------------
    1268                    ; 1099 | else                                                                   
    1269                    ; 1101 |     //                                                                 
    1270                    ; 1102 |     // The maximum packet size override found in the watchdog timer    
    1271                    ; 1103 |     // register is not enabled so the maximum packet size is determined
    1272                    ; 1104 |     // by whether or not jumbo frame mode is enabled.                  
    1273                    ; 1105 |     //                                                                 
    1274                    ;----------------------------------------------------------------------
    1275 000001d6 E00C              B         ||$C$L18||            ; [DPU_V7M3_PIPE] |1098|  ; [ORIG 16-BIT INS]
    1276                            ; BRANCH OCCURS {||$C$L18||}     ; [] |1098| 
    1277                    ;* --------------------------------------------------------------------------*
    1278 000001d8           ||$C$L16||:    
    1279                            .dwpsn  file "../driverlib/emac.c",line 1106,column 9,is_stmt,isa 1
    1280                    ;----------------------------------------------------------------------
    1281                    ; 1106 | if(HWREG(ui32Base + EMAC_O_CFG) & EMAC_CFG_JFEN)                       
    1282                    ; 1108 |     //                                                                 
    1283                    ; 1109 |     // Jumbo frames are enabled so the watchdog kicks in at 10240      
    1284                    ; 1110 |     // bytes.                                                          
    1285                    ; 1111 |     //                                                                 
    1286                    ;----------------------------------------------------------------------
    1287 000001d8 9800              LDR       A1, [SP, #0]          ; [DPU_V7M3_PIPE] |1106|  ; [ORIG 16-BIT INS]
    1288 000001da 6800              LDR       A1, [A1, #0]          ; [DPU_V7M3_PIPE] |1106|  ; [ORIG 16-BIT INS]
    1289 000001dc 0D40              LSRS      A1, A1, #21           ; [DPU_V7M3_PIPE] |1106|  ; [ORIG 16-BIT INS]
    1290 000001de D304              BCC       ||$C$L17||            ; [DPU_V7M3_PIPE] |1106|  ; [ORIG 16-BIT INS]
    1291                            ; BRANCHCC OCCURS {||$C$L17||}   ; [] |1106| 
    1292                    ;* --------------------------------------------------------------------------*
    1293                            .dwpsn  file "../driverlib/emac.c",line 1112,column 13,is_stmt,isa 1
    1294                    ;----------------------------------------------------------------------
    1295                    ; 1112 | *pui32RxMaxFrameSize = 10240;                                          
    1296                    ;----------------------------------------------------------------------
    1297 000001e0 9803              LDR       A1, [SP, #12]         ; [DPU_V7M3_PIPE] |1112|  ; [ORIG 16-BIT INS]
    1298 000001e2 5120F44F          MOV       A2, #10240            ; [DPU_V7M3_PIPE] |1112|  ; [KEEP 32-BIT INS]
    1299 000001e6 6001              STR       A2, [A1, #0]          ; [DPU_V7M3_PIPE] |1112|  ; [ORIG 16-BIT INS]
    1300                            .dwpsn  file "../driverlib/emac.c",line 1113,column 9,is_stmt,isa 1
    1301                    ;----------------------------------------------------------------------
    1302                    ; 1114 | else                                                                   
    1303                    ; 1116 |     //                                                                 
    1304                    ; 1117 |     // Jumbo frames are not enabled so the watchdog kicks in at        
    1305                    ; 1118 |     // 2048 bytes.                                                     
    1306                    ; 1119 |     //                                                                 
    1307                    ;----------------------------------------------------------------------
    1308 000001e8 E003              B         ||$C$L18||            ; [DPU_V7M3_PIPE] |1113|  ; [ORIG 16-BIT INS]
    1309                            ; BRANCH OCCURS {||$C$L18||}     ; [] |1113| 
    1310                    ;* --------------------------------------------------------------------------*
    1311 000001ea           ||$C$L17||:    
    1312                            .dwpsn  file "../driverlib/emac.c",line 1120,column 13,is_stmt,isa 1
    1313                    ;----------------------------------------------------------------------
    1314                    ; 1120 | *pui32RxMaxFrameSize = 2048;                                           
    1315                    ;----------------------------------------------------------------------
    1316 000001ea 9803              LDR       A1, [SP, #12]         ; [DPU_V7M3_PIPE] |1120|  ; [ORIG 16-BIT INS]
    1317 000001ec 6100F44F          MOV       A2, #2048             ; [DPU_V7M3_PIPE] |1120|  ; [KEEP 32-BIT INS]
    1318 000001f0 6001              STR       A2, [A1, #0]          ; [DPU_V7M3_PIPE] |1120|  ; [ORIG 16-BIT INS]
    1319                            .dwpsn  file "../driverlib/emac.c",line 1123,column 1,is_stmt,isa 1
    1320                    ;* --------------------------------------------------------------------------*
TI ARM Assembler Unix v18.1.1 Fri Jul  3 20:08:24 2020

Tools Copyright (c) 1996-2017 Texas Instruments Incorporated
emac.asm                                                             PAGE   25

    1321 000001f2           ||$C$L18||:    
    1322 000001f2 B006              ADD       SP, SP, #24           ; [DPU_V7M3_PIPE]  ; [ORIG 16-BIT INS]
    1323                            .dwcfi  cfa_offset, 0
    1324                    $C$DW$70        .dwtag  DW_TAG_TI_branch
    1325                            .dwattr $C$DW$70, DW_AT_low_pc(0x00)
    1326                            .dwattr $C$DW$70, DW_AT_TI_return
    1327                    
    1328 000001f4 4770              BX        LR                    ; [DPU_V7M3_PIPE]  ; [ORIG 16-BIT INS]
    1329                            ; BRANCH OCCURS                  ; [] 
    1330                            .dwattr $C$DW$60, DW_AT_TI_end_file("../driverlib/emac.c")
    1331                            .dwattr $C$DW$60, DW_AT_TI_end_line(0x463)
    1332                            .dwattr $C$DW$60, DW_AT_TI_end_column(0x01)
    1333                            .dwendentry
    1334                            .dwendtag $C$DW$60
    1335                    
    1336 000001f6                   .sect   ".text"
    1337                            .clink
    1338                            .thumbfunc EMACAddrSet
    1339 000001f6                   .thumb
    1340                            .global EMACAddrSet
    1341                    
    1342                    $C$DW$71        .dwtag  DW_TAG_subprogram
    1343                            .dwattr $C$DW$71, DW_AT_name("EMACAddrSet")
    1344                            .dwattr $C$DW$71, DW_AT_low_pc(EMACAddrSet)
    1345                            .dwattr $C$DW$71, DW_AT_high_pc(0x00)
    1346                            .dwattr $C$DW$71, DW_AT_TI_symbol_name("EMACAddrSet")
    1347                            .dwattr $C$DW$71, DW_AT_external
    1348                            .dwattr $C$DW$71, DW_AT_TI_begin_file("../driverlib/emac.c")
    1349                            .dwattr $C$DW$71, DW_AT_TI_begin_line(0x49c)
    1350                            .dwattr $C$DW$71, DW_AT_TI_begin_column(0x01)
    1351                            .dwattr $C$DW$71, DW_AT_decl_file("../driverlib/emac.c")
    1352                            .dwattr $C$DW$71, DW_AT_decl_line(0x49c)
    1353                            .dwattr $C$DW$71, DW_AT_decl_column(0x01)
    1354                            .dwattr $C$DW$71, DW_AT_TI_max_frame_size(0x18)
    1355                            .dwpsn  file "../driverlib/emac.c",line 1181,column 1,is_stmt,address EMACAddrSet,isa 1
    1356                    
    1357                            .dwfde $C$DW$CIE, EMACAddrSet
    1358                    $C$DW$72        .dwtag  DW_TAG_formal_parameter
    1359                            .dwattr $C$DW$72, DW_AT_name("ui32Base")
    1360                            .dwattr $C$DW$72, DW_AT_TI_symbol_name("ui32Base")
    1361                            .dwattr $C$DW$72, DW_AT_type(*$C$DW$T$22)
    1362                            .dwattr $C$DW$72, DW_AT_location[DW_OP_reg0]
    1363                    
    1364                    $C$DW$73        .dwtag  DW_TAG_formal_parameter
    1365                            .dwattr $C$DW$73, DW_AT_name("ui32Index")
    1366                            .dwattr $C$DW$73, DW_AT_TI_symbol_name("ui32Index")
    1367                            .dwattr $C$DW$73, DW_AT_type(*$C$DW$T$22)
    1368                            .dwattr $C$DW$73, DW_AT_location[DW_OP_reg1]
    1369                    
    1370                    $C$DW$74        .dwtag  DW_TAG_formal_parameter
    1371                            .dwattr $C$DW$74, DW_AT_name("pui8MACAddr")
    1372                            .dwattr $C$DW$74, DW_AT_TI_symbol_name("pui8MACAddr")
    1373                            .dwattr $C$DW$74, DW_AT_type(*$C$DW$T$60)
    1374                            .dwattr $C$DW$74, DW_AT_location[DW_OP_reg2]
    1375                    
TI ARM Assembler Unix v18.1.1 Fri Jul  3 20:08:24 2020

Tools Copyright (c) 1996-2017 Texas Instruments Incorporated
emac.asm                                                             PAGE   26

    1376                    ;----------------------------------------------------------------------
    1377                    ; 1180 | EMACAddrSet(uint32_t ui32Base, uint32_t ui32Index, const uint8_t *pui8M
    1378                    ;     | ACAddr)                                                                
    1379                    ;----------------------------------------------------------------------
    1380                    
    1381                    ;*****************************************************************************
    1382                    ;* FUNCTION NAME: EMACAddrSet                                                *
    1383                    ;*                                                                           *
    1384                    ;*   Regs Modified     : A1,A2,A3,A4,V1,V2,SP,SR                             *
    1385                    ;*   Regs Used         : A1,A2,A3,A4,V1,V2,SP,LR,SR                          *
    1386                    ;*   Local Frame Size  : 0 Args + 12 Auto + 12 Save = 24 byte                *
    1387                    ;*****************************************************************************
    1388 000001f6           EMACAddrSet:
    1389                    ;* --------------------------------------------------------------------------*
    1390                            .dwcfi  cfa_offset, 0
    1391 000001f6 B53E              PUSH      {A2, A3, A4, V1, V2, LR} ; [DPU_V7M3_PIPE]  ; [ORIG 16-BIT INS]
    1392                            .dwcfi  cfa_offset, 24
    1393                            .dwcfi  save_reg_to_mem, 14, -4
    1394                            .dwcfi  save_reg_to_mem, 5, -8
    1395                            .dwcfi  save_reg_to_mem, 4, -12
    1396                            .dwcfi  save_reg_to_mem, 3, -16
    1397                            .dwcfi  save_reg_to_mem, 2, -20
    1398                            .dwcfi  save_reg_to_mem, 1, -24
    1399                    $C$DW$75        .dwtag  DW_TAG_variable
    1400                            .dwattr $C$DW$75, DW_AT_name("ui32Base")
    1401                            .dwattr $C$DW$75, DW_AT_TI_symbol_name("ui32Base")
    1402                            .dwattr $C$DW$75, DW_AT_type(*$C$DW$T$22)
    1403                            .dwattr $C$DW$75, DW_AT_location[DW_OP_breg13 0]
    1404                    
    1405                    $C$DW$76        .dwtag  DW_TAG_variable
    1406                            .dwattr $C$DW$76, DW_AT_name("ui32Index")
    1407                            .dwattr $C$DW$76, DW_AT_TI_symbol_name("ui32Index")
    1408                            .dwattr $C$DW$76, DW_AT_type(*$C$DW$T$22)
    1409                            .dwattr $C$DW$76, DW_AT_location[DW_OP_breg13 4]
    1410                    
    1411                    $C$DW$77        .dwtag  DW_TAG_variable
    1412                            .dwattr $C$DW$77, DW_AT_name("pui8MACAddr")
    1413                            .dwattr $C$DW$77, DW_AT_TI_symbol_name("pui8MACAddr")
    1414                            .dwattr $C$DW$77, DW_AT_type(*$C$DW$T$60)
    1415                            .dwattr $C$DW$77, DW_AT_location[DW_OP_breg13 8]
    1416                    
    1417                    ;----------------------------------------------------------------------
    1418                    ; 1182 | //                                                                     
    1419                    ; 1183 | // Parameter sanity check.                                             
    1420                    ; 1184 | //                                                                     
    1421                    ; 1185 | ASSERT(ui32Index < NUM_MAC_ADDR);                                      
    1422                    ; 1186 | ASSERT(pui8MACAddr);                                                   
    1423                    ; 1188 | //                                                                     
    1424                    ; 1189 | // Set the high 2 bytes of the MAC address.  Note that we must set the 
    1425                    ; 1190 | // registers in this order since the address is latched internally     
    1426                    ; 1191 | // on the write to EMAC_O_ADDRL.                                       
    1427                    ; 1192 | //                                                                     
    1428                    ;----------------------------------------------------------------------
    1429 000001f8 9202              STR       A3, [SP, #8]          ; [DPU_V7M3_PIPE] |1181|  ; [ORIG 16-BIT INS]
    1430 000001fa 9101              STR       A2, [SP, #4]          ; [DPU_V7M3_PIPE] |1181|  ; [ORIG 16-BIT INS]
TI ARM Assembler Unix v18.1.1 Fri Jul  3 20:08:24 2020

Tools Copyright (c) 1996-2017 Texas Instruments Incorporated
emac.asm                                                             PAGE   27

    1431 000001fc 9000              STR       A1, [SP, #0]          ; [DPU_V7M3_PIPE] |1181|  ; [ORIG 16-BIT INS]
    1432                            .dwpsn  file "../driverlib/emac.c",line 1193,column 5,is_stmt,isa 1
    1433                    ;----------------------------------------------------------------------
    1434                    ; 1193 | HWREG(ui32Base + EMAC_O_ADDRH(ui32Index)) =                            
    1435                    ; 1194 |     ((HWREG(ui32Base + EMAC_O_ADDRH(ui32Index)) & 0xFFFF0000) |        
    1436                    ; 1195 |      pui8MACAddr[4] | (pui8MACAddr[5] << 8));                          
    1437                    ; 1197 | //                                                                     
    1438                    ; 1198 | // Set the first 4 bytes of the MAC address                            
    1439                    ; 1199 | //                                                                     
    1440                    ;----------------------------------------------------------------------
    1441 000001fe 9800              LDR       A1, [SP, #0]          ; [DPU_V7M3_PIPE] |1193|  ; [ORIG 16-BIT INS]
    1442 00000200 9A01              LDR       A3, [SP, #4]          ; [DPU_V7M3_PIPE] |1193|  ; [ORIG 16-BIT INS]
    1443 00000202 9902              LDR       A2, [SP, #8]          ; [DPU_V7M3_PIPE] |1193|  ; [ORIG 16-BIT INS]
    1444 00000204 9C01              LDR       V1, [SP, #4]          ; [DPU_V7M3_PIPE] |1193|  ; [ORIG 16-BIT INS]
    1445 00000206 00C2EB00          ADD       A1, A1, A3, LSL #3    ; [DPU_V7M3_PIPE] |1193|  ; [KEEP 32-BIT INS]
    1446 0000020a 9A02              LDR       A3, [SP, #8]          ; [DPU_V7M3_PIPE] |1193|  ; [ORIG 16-BIT INS]
    1447 0000020c 6C03              LDR       A4, [A1, #64]         ; [DPU_V7M3_PIPE] |1193|  ; [ORIG 16-BIT INS]
    1448 0000020e 7908              LDRB      A1, [A2, #4]          ; [DPU_V7M3_PIPE] |1193|  ; [ORIG 16-BIT INS]
    1449 00000210 7952              LDRB      A3, [A3, #5]          ; [DPU_V7M3_PIPE] |1193|  ; [ORIG 16-BIT INS]
    1450 00000212 9900              LDR       A2, [SP, #0]          ; [DPU_V7M3_PIPE] |1193|  ; [ORIG 16-BIT INS]
    1451 00000214 030FF36F          BFC       A4, #0, #16           ; [DPU_V7M3_PIPE] |1193|  ; [KEEP 32-BIT INS]
    1452 00000218 4318              ORRS      A1, A1, A4            ; [DPU_V7M3_PIPE] |1193|  ; [ORIG 16-BIT INS]
    1453 0000021a 2002EA40          ORR       A1, A1, A3, LSL #8    ; [DPU_V7M3_PIPE] |1193|  ; [KEEP 32-BIT INS]
    1454 0000021e 01C4EB01          ADD       A2, A2, V1, LSL #3    ; [DPU_V7M3_PIPE] |1193|  ; [KEEP 32-BIT INS]
    1455 00000222 6408              STR       A1, [A2, #64]         ; [DPU_V7M3_PIPE] |1193|  ; [ORIG 16-BIT INS]
    1456                            .dwpsn  file "../driverlib/emac.c",line 1200,column 5,is_stmt,isa 1
    1457                    ;----------------------------------------------------------------------
    1458                    ; 1200 | HWREG(ui32Base + EMAC_O_ADDRL(ui32Index)) =                            
    1459                    ; 1201 |     (pui8MACAddr[0] | (pui8MACAddr[1] << 8) | (pui8MACAddr[2] << 16) | 
    1460                    ; 1202 |      (pui8MACAddr[3] << 24));                                          
    1461                    ;----------------------------------------------------------------------
    1462 00000224 9B02              LDR       A4, [SP, #8]          ; [DPU_V7M3_PIPE] |1200|  ; [ORIG 16-BIT INS]
    1463 00000226 9802              LDR       A1, [SP, #8]          ; [DPU_V7M3_PIPE] |1200|  ; [ORIG 16-BIT INS]
    1464 00000228 9902              LDR       A2, [SP, #8]          ; [DPU_V7M3_PIPE] |1200|  ; [ORIG 16-BIT INS]
    1465 0000022a 9A02              LDR       A3, [SP, #8]          ; [DPU_V7M3_PIPE] |1200|  ; [ORIG 16-BIT INS]
    1466 0000022c 9D01              LDR       V2, [SP, #4]          ; [DPU_V7M3_PIPE] |1200|  ; [ORIG 16-BIT INS]
    1467 0000022e 785C              LDRB      V1, [A4, #1]          ; [DPU_V7M3_PIPE] |1200|  ; [ORIG 16-BIT INS]
    1468 00000230 7800              LDRB      A1, [A1, #0]          ; [DPU_V7M3_PIPE] |1200|  ; [ORIG 16-BIT INS]
    1469 00000232 78D2              LDRB      A3, [A3, #3]          ; [DPU_V7M3_PIPE] |1200|  ; [ORIG 16-BIT INS]
    1470 00000234 788B              LDRB      A4, [A2, #2]          ; [DPU_V7M3_PIPE] |1200|  ; [ORIG 16-BIT INS]
    1471 00000236 9900              LDR       A2, [SP, #0]          ; [DPU_V7M3_PIPE] |1200|  ; [ORIG 16-BIT INS]
    1472 00000238 2004EA40          ORR       A1, A1, V1, LSL #8    ; [DPU_V7M3_PIPE] |1200|  ; [KEEP 32-BIT INS]
    1473 0000023c 4003EA40          ORR       A1, A1, A4, LSL #16   ; [DPU_V7M3_PIPE] |1200|  ; [KEEP 32-BIT INS]
    1474 00000240 6002EA40          ORR       A1, A1, A3, LSL #24   ; [DPU_V7M3_PIPE] |1200|  ; [KEEP 32-BIT INS]
    1475 00000244 01C5EB01          ADD       A2, A2, V2, LSL #3    ; [DPU_V7M3_PIPE] |1200|  ; [KEEP 32-BIT INS]
    1476 00000248 6448              STR       A1, [A2, #68]         ; [DPU_V7M3_PIPE] |1200|  ; [ORIG 16-BIT INS]
    1477                            .dwpsn  file "../driverlib/emac.c",line 1203,column 1,is_stmt,isa 1
    1478                    $C$DW$78        .dwtag  DW_TAG_TI_branch
    1479                            .dwattr $C$DW$78, DW_AT_low_pc(0x00)
    1480                            .dwattr $C$DW$78, DW_AT_TI_return
    1481                    
    1482 0000024a BD3E              POP       {A2, A3, A4, V1, V2, PC} ; [DPU_V7M3_PIPE]  ; [ORIG 16-BIT INS]
    1483                            .dwcfi  cfa_offset, 0
    1484                            .dwcfi  restore_reg, 5
    1485                            .dwcfi  restore_reg, 4
TI ARM Assembler Unix v18.1.1 Fri Jul  3 20:08:24 2020

Tools Copyright (c) 1996-2017 Texas Instruments Incorporated
emac.asm                                                             PAGE   28

    1486                            .dwcfi  restore_reg, 3
    1487                            .dwcfi  restore_reg, 2
    1488                            .dwcfi  restore_reg, 1
    1489                            ; BRANCH OCCURS                  ; [] 
    1490                            .dwattr $C$DW$71, DW_AT_TI_end_file("../driverlib/emac.c")
    1491                            .dwattr $C$DW$71, DW_AT_TI_end_line(0x4b3)
    1492                            .dwattr $C$DW$71, DW_AT_TI_end_column(0x01)
    1493                            .dwendentry
    1494                            .dwendtag $C$DW$71
    1495                    
    1496 0000024c                   .sect   ".text"
    1497                            .clink
    1498                            .thumbfunc EMACAddrGet
    1499 0000024c                   .thumb
    1500                            .global EMACAddrGet
    1501                    
    1502                    $C$DW$79        .dwtag  DW_TAG_subprogram
    1503                            .dwattr $C$DW$79, DW_AT_name("EMACAddrGet")
    1504                            .dwattr $C$DW$79, DW_AT_low_pc(EMACAddrGet)
    1505                            .dwattr $C$DW$79, DW_AT_high_pc(0x00)
    1506                            .dwattr $C$DW$79, DW_AT_TI_symbol_name("EMACAddrGet")
    1507                            .dwattr $C$DW$79, DW_AT_external
    1508                            .dwattr $C$DW$79, DW_AT_TI_begin_file("../driverlib/emac.c")
    1509                            .dwattr $C$DW$79, DW_AT_TI_begin_line(0x4d3)
    1510                            .dwattr $C$DW$79, DW_AT_TI_begin_column(0x01)
    1511                            .dwattr $C$DW$79, DW_AT_decl_file("../driverlib/emac.c")
    1512                            .dwattr $C$DW$79, DW_AT_decl_line(0x4d3)
    1513                            .dwattr $C$DW$79, DW_AT_decl_column(0x01)
    1514                            .dwattr $C$DW$79, DW_AT_TI_max_frame_size(0x10)
    1515                            .dwpsn  file "../driverlib/emac.c",line 1236,column 1,is_stmt,address EMACAddrGet,isa 1
    1516                    
    1517                            .dwfde $C$DW$CIE, EMACAddrGet
    1518                    $C$DW$80        .dwtag  DW_TAG_formal_parameter
    1519                            .dwattr $C$DW$80, DW_AT_name("ui32Base")
    1520                            .dwattr $C$DW$80, DW_AT_TI_symbol_name("ui32Base")
    1521                            .dwattr $C$DW$80, DW_AT_type(*$C$DW$T$22)
    1522                            .dwattr $C$DW$80, DW_AT_location[DW_OP_reg0]
    1523                    
    1524                    $C$DW$81        .dwtag  DW_TAG_formal_parameter
    1525                            .dwattr $C$DW$81, DW_AT_name("ui32Index")
    1526                            .dwattr $C$DW$81, DW_AT_TI_symbol_name("ui32Index")
    1527                            .dwattr $C$DW$81, DW_AT_type(*$C$DW$T$22)
    1528                            .dwattr $C$DW$81, DW_AT_location[DW_OP_reg1]
    1529                    
    1530                    $C$DW$82        .dwtag  DW_TAG_formal_parameter
    1531                            .dwattr $C$DW$82, DW_AT_name("pui8MACAddr")
    1532                            .dwattr $C$DW$82, DW_AT_TI_symbol_name("pui8MACAddr")
    1533                            .dwattr $C$DW$82, DW_AT_type(*$C$DW$T$62)
    1534                            .dwattr $C$DW$82, DW_AT_location[DW_OP_reg2]
    1535                    
    1536                    ;----------------------------------------------------------------------
    1537                    ; 1235 | EMACAddrGet(uint32_t ui32Base, uint32_t ui32Index, uint8_t *pui8MACAddr
    1538                    ;     | )                                                                      
    1539                    ;----------------------------------------------------------------------
    1540                    
TI ARM Assembler Unix v18.1.1 Fri Jul  3 20:08:24 2020

Tools Copyright (c) 1996-2017 Texas Instruments Incorporated
emac.asm                                                             PAGE   29

    1541                    ;*****************************************************************************
    1542                    ;* FUNCTION NAME: EMACAddrGet                                                *
    1543                    ;*                                                                           *
    1544                    ;*   Regs Modified     : A1,A2,SP                                            *
    1545                    ;*   Regs Used         : A1,A2,A3,SP,LR                                      *
    1546                    ;*   Local Frame Size  : 0 Args + 16 Auto + 0 Save = 16 byte                 *
    1547                    ;*****************************************************************************
    1548 0000024c           EMACAddrGet:
    1549                    ;* --------------------------------------------------------------------------*
    1550                            .dwcfi  cfa_offset, 0
    1551 0000024c 0D10F1AD          SUB       SP, SP, #16           ; [DPU_V7M3_PIPE]  ; [KEEP 32-BIT INS]
    1552                            .dwcfi  cfa_offset, 16
    1553                    $C$DW$83        .dwtag  DW_TAG_variable
    1554                            .dwattr $C$DW$83, DW_AT_name("ui32Base")
    1555                            .dwattr $C$DW$83, DW_AT_TI_symbol_name("ui32Base")
    1556                            .dwattr $C$DW$83, DW_AT_type(*$C$DW$T$22)
    1557                            .dwattr $C$DW$83, DW_AT_location[DW_OP_breg13 0]
    1558                    
    1559                    $C$DW$84        .dwtag  DW_TAG_variable
    1560                            .dwattr $C$DW$84, DW_AT_name("ui32Index")
    1561                            .dwattr $C$DW$84, DW_AT_TI_symbol_name("ui32Index")
    1562                            .dwattr $C$DW$84, DW_AT_type(*$C$DW$T$22)
    1563                            .dwattr $C$DW$84, DW_AT_location[DW_OP_breg13 4]
    1564                    
    1565                    $C$DW$85        .dwtag  DW_TAG_variable
    1566                            .dwattr $C$DW$85, DW_AT_name("pui8MACAddr")
    1567                            .dwattr $C$DW$85, DW_AT_TI_symbol_name("pui8MACAddr")
    1568                            .dwattr $C$DW$85, DW_AT_type(*$C$DW$T$62)
    1569                            .dwattr $C$DW$85, DW_AT_location[DW_OP_breg13 8]
    1570                    
    1571                    $C$DW$86        .dwtag  DW_TAG_variable
    1572                            .dwattr $C$DW$86, DW_AT_name("ui32Val")
    1573                            .dwattr $C$DW$86, DW_AT_TI_symbol_name("ui32Val")
    1574                            .dwattr $C$DW$86, DW_AT_type(*$C$DW$T$22)
    1575                            .dwattr $C$DW$86, DW_AT_location[DW_OP_breg13 12]
    1576                    
    1577                    ;----------------------------------------------------------------------
    1578                    ; 1237 | uint32_t ui32Val;                                                      
    1579                    ; 1239 | //                                                                     
    1580                    ; 1240 | // Parameter sanity check.                                             
    1581                    ; 1241 | //                                                                     
    1582                    ; 1242 | ASSERT(ui32Index < NUM_MAC_ADDR);                                      
    1583                    ; 1243 | ASSERT(pui8MACAddr);                                                   
    1584                    ; 1245 | //                                                                     
    1585                    ; 1246 | // Get the first 4 bytes of the MAC address.                           
    1586                    ; 1247 | //                                                                     
    1587                    ;----------------------------------------------------------------------
    1588 00000250 9202              STR       A3, [SP, #8]          ; [DPU_V7M3_PIPE] |1236|  ; [ORIG 16-BIT INS]
    1589 00000252 9101              STR       A2, [SP, #4]          ; [DPU_V7M3_PIPE] |1236|  ; [ORIG 16-BIT INS]
    1590 00000254 9000              STR       A1, [SP, #0]          ; [DPU_V7M3_PIPE] |1236|  ; [ORIG 16-BIT INS]
    1591                            .dwpsn  file "../driverlib/emac.c",line 1248,column 5,is_stmt,isa 1
    1592                    ;----------------------------------------------------------------------
    1593                    ; 1248 | ui32Val = HWREG(ui32Base + EMAC_O_ADDRL(ui32Index));                   
    1594                    ;----------------------------------------------------------------------
    1595 00000256 9901              LDR       A2, [SP, #4]          ; [DPU_V7M3_PIPE] |1248|  ; [ORIG 16-BIT INS]
TI ARM Assembler Unix v18.1.1 Fri Jul  3 20:08:24 2020

Tools Copyright (c) 1996-2017 Texas Instruments Incorporated
emac.asm                                                             PAGE   30

    1596 00000258 9800              LDR       A1, [SP, #0]          ; [DPU_V7M3_PIPE] |1248|  ; [ORIG 16-BIT INS]
    1597 0000025a 00C1EB00          ADD       A1, A1, A2, LSL #3    ; [DPU_V7M3_PIPE] |1248|  ; [KEEP 32-BIT INS]
    1598 0000025e 6C40              LDR       A1, [A1, #68]         ; [DPU_V7M3_PIPE] |1248|  ; [ORIG 16-BIT INS]
    1599 00000260 9003              STR       A1, [SP, #12]         ; [DPU_V7M3_PIPE] |1248|  ; [ORIG 16-BIT INS]
    1600                            .dwpsn  file "../driverlib/emac.c",line 1249,column 5,is_stmt,isa 1
    1601                    ;----------------------------------------------------------------------
    1602                    ; 1249 | pui8MACAddr[0] = ui32Val & 0xFF;                                       
    1603                    ;----------------------------------------------------------------------
    1604 00000262 9803              LDR       A1, [SP, #12]         ; [DPU_V7M3_PIPE] |1249|  ; [ORIG 16-BIT INS]
    1605 00000264 9902              LDR       A2, [SP, #8]          ; [DPU_V7M3_PIPE] |1249|  ; [ORIG 16-BIT INS]
    1606 00000266 00FFF000          AND       A1, A1, #255          ; [DPU_V7M3_PIPE] |1249|  ; [KEEP 32-BIT INS]
    1607 0000026a 7008              STRB      A1, [A2, #0]          ; [DPU_V7M3_PIPE] |1249|  ; [ORIG 16-BIT INS]
    1608                            .dwpsn  file "../driverlib/emac.c",line 1250,column 5,is_stmt,isa 1
    1609                    ;----------------------------------------------------------------------
    1610                    ; 1250 | pui8MACAddr[1] = (ui32Val >> 8) & 0xFF;                                
    1611                    ;----------------------------------------------------------------------
    1612 0000026c 9803              LDR       A1, [SP, #12]         ; [DPU_V7M3_PIPE] |1250|  ; [ORIG 16-BIT INS]
    1613 0000026e 9902              LDR       A2, [SP, #8]          ; [DPU_V7M3_PIPE] |1250|  ; [ORIG 16-BIT INS]
    1614 00000270 2007F3C0          UBFX      A1, A1, #8, #8        ; [DPU_V7M3_PIPE] |1250|  ; [KEEP 32-BIT INS]
    1615 00000274 7048              STRB      A1, [A2, #1]          ; [DPU_V7M3_PIPE] |1250|  ; [ORIG 16-BIT INS]
    1616                            .dwpsn  file "../driverlib/emac.c",line 1251,column 5,is_stmt,isa 1
    1617                    ;----------------------------------------------------------------------
    1618                    ; 1251 | pui8MACAddr[2] = (ui32Val >> 16) & 0xFF;                               
    1619                    ;----------------------------------------------------------------------
    1620 00000276 9803              LDR       A1, [SP, #12]         ; [DPU_V7M3_PIPE] |1251|  ; [ORIG 16-BIT INS]
    1621 00000278 9902              LDR       A2, [SP, #8]          ; [DPU_V7M3_PIPE] |1251|  ; [ORIG 16-BIT INS]
    1622 0000027a 4007F3C0          UBFX      A1, A1, #16, #8       ; [DPU_V7M3_PIPE] |1251|  ; [KEEP 32-BIT INS]
    1623 0000027e 7088              STRB      A1, [A2, #2]          ; [DPU_V7M3_PIPE] |1251|  ; [ORIG 16-BIT INS]
    1624                            .dwpsn  file "../driverlib/emac.c",line 1252,column 5,is_stmt,isa 1
    1625                    ;----------------------------------------------------------------------
    1626                    ; 1252 | pui8MACAddr[3] = (ui32Val >> 24) & 0xFF;                               
    1627                    ; 1254 | //                                                                     
    1628                    ; 1255 | // Get the last 2 bytes of the MAC address.                            
    1629                    ; 1256 | //                                                                     
    1630                    ;----------------------------------------------------------------------
    1631 00000280 9803              LDR       A1, [SP, #12]         ; [DPU_V7M3_PIPE] |1252|  ; [ORIG 16-BIT INS]
    1632 00000282 9902              LDR       A2, [SP, #8]          ; [DPU_V7M3_PIPE] |1252|  ; [ORIG 16-BIT INS]
    1633 00000284 6007F3C0          UBFX      A1, A1, #24, #8       ; [DPU_V7M3_PIPE] |1252|  ; [KEEP 32-BIT INS]
    1634 00000288 70C8              STRB      A1, [A2, #3]          ; [DPU_V7M3_PIPE] |1252|  ; [ORIG 16-BIT INS]
    1635                            .dwpsn  file "../driverlib/emac.c",line 1257,column 5,is_stmt,isa 1
    1636                    ;----------------------------------------------------------------------
    1637                    ; 1257 | ui32Val = HWREG(ui32Base + EMAC_O_ADDRH(ui32Index));                   
    1638                    ;----------------------------------------------------------------------
    1639 0000028a 9800              LDR       A1, [SP, #0]          ; [DPU_V7M3_PIPE] |1257|  ; [ORIG 16-BIT INS]
    1640 0000028c 9901              LDR       A2, [SP, #4]          ; [DPU_V7M3_PIPE] |1257|  ; [ORIG 16-BIT INS]
    1641 0000028e 00C1EB00          ADD       A1, A1, A2, LSL #3    ; [DPU_V7M3_PIPE] |1257|  ; [KEEP 32-BIT INS]
    1642 00000292 6C00              LDR       A1, [A1, #64]         ; [DPU_V7M3_PIPE] |1257|  ; [ORIG 16-BIT INS]
    1643 00000294 9003              STR       A1, [SP, #12]         ; [DPU_V7M3_PIPE] |1257|  ; [ORIG 16-BIT INS]
    1644                            .dwpsn  file "../driverlib/emac.c",line 1258,column 5,is_stmt,isa 1
    1645                    ;----------------------------------------------------------------------
    1646                    ; 1258 | pui8MACAddr[4] = ui32Val & 0xFF;                                       
    1647                    ;----------------------------------------------------------------------
    1648 00000296 9902              LDR       A2, [SP, #8]          ; [DPU_V7M3_PIPE] |1258|  ; [ORIG 16-BIT INS]
    1649 00000298 9803              LDR       A1, [SP, #12]         ; [DPU_V7M3_PIPE] |1258|  ; [ORIG 16-BIT INS]
    1650 0000029a 00FFF000          AND       A1, A1, #255          ; [DPU_V7M3_PIPE] |1258|  ; [KEEP 32-BIT INS]
TI ARM Assembler Unix v18.1.1 Fri Jul  3 20:08:24 2020

Tools Copyright (c) 1996-2017 Texas Instruments Incorporated
emac.asm                                                             PAGE   31

    1651 0000029e 7108              STRB      A1, [A2, #4]          ; [DPU_V7M3_PIPE] |1258|  ; [ORIG 16-BIT INS]
    1652                            .dwpsn  file "../driverlib/emac.c",line 1259,column 5,is_stmt,isa 1
    1653                    ;----------------------------------------------------------------------
    1654                    ; 1259 | pui8MACAddr[5] = (ui32Val >> 8) & 0xFF;                                
    1655                    ;----------------------------------------------------------------------
    1656 000002a0 9803              LDR       A1, [SP, #12]         ; [DPU_V7M3_PIPE] |1259|  ; [ORIG 16-BIT INS]
    1657 000002a2 9902              LDR       A2, [SP, #8]          ; [DPU_V7M3_PIPE] |1259|  ; [ORIG 16-BIT INS]
    1658 000002a4 2007F3C0          UBFX      A1, A1, #8, #8        ; [DPU_V7M3_PIPE] |1259|  ; [KEEP 32-BIT INS]
    1659 000002a8 7148              STRB      A1, [A2, #5]          ; [DPU_V7M3_PIPE] |1259|  ; [ORIG 16-BIT INS]
    1660                            .dwpsn  file "../driverlib/emac.c",line 1260,column 1,is_stmt,isa 1
    1661 000002aa B004              ADD       SP, SP, #16           ; [DPU_V7M3_PIPE]  ; [ORIG 16-BIT INS]
    1662                            .dwcfi  cfa_offset, 0
    1663                    $C$DW$87        .dwtag  DW_TAG_TI_branch
    1664                            .dwattr $C$DW$87, DW_AT_low_pc(0x00)
    1665                            .dwattr $C$DW$87, DW_AT_TI_return
    1666                    
    1667 000002ac 4770              BX        LR                    ; [DPU_V7M3_PIPE]  ; [ORIG 16-BIT INS]
    1668                            ; BRANCH OCCURS                  ; [] 
    1669                            .dwattr $C$DW$79, DW_AT_TI_end_file("../driverlib/emac.c")
    1670                            .dwattr $C$DW$79, DW_AT_TI_end_line(0x4ec)
    1671                            .dwattr $C$DW$79, DW_AT_TI_end_column(0x01)
    1672                            .dwendentry
    1673                            .dwendtag $C$DW$79
    1674                    
    1675 000002ae                   .sect   ".text"
    1676                            .clink
    1677                            .thumbfunc EMACNumAddrGet
    1678 000002ae                   .thumb
    1679                            .global EMACNumAddrGet
    1680                    
    1681                    $C$DW$88        .dwtag  DW_TAG_subprogram
    1682                            .dwattr $C$DW$88, DW_AT_name("EMACNumAddrGet")
    1683                            .dwattr $C$DW$88, DW_AT_low_pc(EMACNumAddrGet)
    1684                            .dwattr $C$DW$88, DW_AT_high_pc(0x00)
    1685                            .dwattr $C$DW$88, DW_AT_TI_symbol_name("EMACNumAddrGet")
    1686                            .dwattr $C$DW$88, DW_AT_external
    1687                            .dwattr $C$DW$88, DW_AT_type(*$C$DW$T$22)
    1688                            .dwattr $C$DW$88, DW_AT_TI_begin_file("../driverlib/emac.c")
    1689                            .dwattr $C$DW$88, DW_AT_TI_begin_line(0x4fc)
    1690                            .dwattr $C$DW$88, DW_AT_TI_begin_column(0x01)
    1691                            .dwattr $C$DW$88, DW_AT_decl_file("../driverlib/emac.c")
    1692                            .dwattr $C$DW$88, DW_AT_decl_line(0x4fc)
    1693                            .dwattr $C$DW$88, DW_AT_decl_column(0x01)
    1694                            .dwattr $C$DW$88, DW_AT_TI_max_frame_size(0x08)
    1695                            .dwpsn  file "../driverlib/emac.c",line 1277,column 1,is_stmt,address EMACNumAddrGet,isa 1
    1696                    
    1697                            .dwfde $C$DW$CIE, EMACNumAddrGet
    1698                    $C$DW$89        .dwtag  DW_TAG_formal_parameter
    1699                            .dwattr $C$DW$89, DW_AT_name("ui32Base")
    1700                            .dwattr $C$DW$89, DW_AT_TI_symbol_name("ui32Base")
    1701                            .dwattr $C$DW$89, DW_AT_type(*$C$DW$T$22)
    1702                            .dwattr $C$DW$89, DW_AT_location[DW_OP_reg0]
    1703                    
    1704                    ;----------------------------------------------------------------------
    1705                    ; 1276 | EMACNumAddrGet(uint32_t ui32Base)                                      
TI ARM Assembler Unix v18.1.1 Fri Jul  3 20:08:24 2020

Tools Copyright (c) 1996-2017 Texas Instruments Incorporated
emac.asm                                                             PAGE   32

    1706                    ;----------------------------------------------------------------------
    1707                    
    1708                    ;*****************************************************************************
    1709                    ;* FUNCTION NAME: EMACNumAddrGet                                             *
    1710                    ;*                                                                           *
    1711                    ;*   Regs Modified     : A1,SP,SR                                            *
    1712                    ;*   Regs Used         : A1,SP,LR,SR                                         *
    1713                    ;*   Local Frame Size  : 0 Args + 4 Auto + 0 Save = 4 byte                   *
    1714                    ;*****************************************************************************
    1715 000002ae           EMACNumAddrGet:
    1716                    ;* --------------------------------------------------------------------------*
    1717                            .dwcfi  cfa_offset, 0
    1718 000002ae 0D08F1AD          SUB       SP, SP, #8            ; [DPU_V7M3_PIPE]  ; [KEEP 32-BIT INS]
    1719                            .dwcfi  cfa_offset, 8
    1720                    $C$DW$90        .dwtag  DW_TAG_variable
    1721                            .dwattr $C$DW$90, DW_AT_name("ui32Base")
    1722                            .dwattr $C$DW$90, DW_AT_TI_symbol_name("ui32Base")
    1723                            .dwattr $C$DW$90, DW_AT_type(*$C$DW$T$22)
    1724                            .dwattr $C$DW$90, DW_AT_location[DW_OP_breg13 0]
    1725                    
    1726                    ;----------------------------------------------------------------------
    1727                    ; 1278 | //                                                                     
    1728                    ; 1279 | // The only Ethernet controller on Snowflake supports 4 MAC addresses. 
    1729                    ; 1280 | //                                                                     
    1730                    ;----------------------------------------------------------------------
    1731 000002b2 9000              STR       A1, [SP, #0]          ; [DPU_V7M3_PIPE] |1277|  ; [ORIG 16-BIT INS]
    1732                            .dwpsn  file "../driverlib/emac.c",line 1281,column 5,is_stmt,isa 1
    1733                    ;----------------------------------------------------------------------
    1734                    ; 1281 | return(NUM_MAC_ADDR);                                                  
    1735                    ;----------------------------------------------------------------------
    1736 000002b4 2004              MOVS      A1, #4                ; [DPU_V7M3_PIPE] |1281|  ; [ORIG 16-BIT INS]
    1737                            .dwpsn  file "../driverlib/emac.c",line 1282,column 1,is_stmt,isa 1
    1738 000002b6 B002              ADD       SP, SP, #8            ; [DPU_V7M3_PIPE]  ; [ORIG 16-BIT INS]
    1739                            .dwcfi  cfa_offset, 0
    1740                    $C$DW$91        .dwtag  DW_TAG_TI_branch
    1741                            .dwattr $C$DW$91, DW_AT_low_pc(0x00)
    1742                            .dwattr $C$DW$91, DW_AT_TI_return
    1743                    
    1744 000002b8 4770              BX        LR                    ; [DPU_V7M3_PIPE]  ; [ORIG 16-BIT INS]
    1745                            ; BRANCH OCCURS                  ; [] 
    1746                            .dwattr $C$DW$88, DW_AT_TI_end_file("../driverlib/emac.c")
    1747                            .dwattr $C$DW$88, DW_AT_TI_end_line(0x502)
    1748                            .dwattr $C$DW$88, DW_AT_TI_end_column(0x01)
    1749                            .dwendentry
    1750                            .dwendtag $C$DW$88
    1751                    
    1752                    ;******************************************************************************
    1753                    ;* CONSTANT TABLE                                                             *
    1754                    ;******************************************************************************
    1755 000002ba                   .sect   ".text"
    1756                            .align  4
    1757 000002ba CC0046C0  ||$C$CON1||:    .bits   1074711552,32
         000002be 0000400E 
    1758 000002c0                   .sect   ".text"
    1759                            .clink
TI ARM Assembler Unix v18.1.1 Fri Jul  3 20:08:24 2020

Tools Copyright (c) 1996-2017 Texas Instruments Incorporated
emac.asm                                                             PAGE   33

    1760                            .thumbfunc EMACAddrFilterSet
    1761 000002c0                   .thumb
    1762                            .global EMACAddrFilterSet
    1763                    
    1764                    $C$DW$92        .dwtag  DW_TAG_subprogram
    1765                            .dwattr $C$DW$92, DW_AT_name("EMACAddrFilterSet")
    1766                            .dwattr $C$DW$92, DW_AT_low_pc(EMACAddrFilterSet)
    1767                            .dwattr $C$DW$92, DW_AT_high_pc(0x00)
    1768                            .dwattr $C$DW$92, DW_AT_TI_symbol_name("EMACAddrFilterSet")
    1769                            .dwattr $C$DW$92, DW_AT_external
    1770                            .dwattr $C$DW$92, DW_AT_TI_begin_file("../driverlib/emac.c")
    1771                            .dwattr $C$DW$92, DW_AT_TI_begin_line(0x534)
    1772                            .dwattr $C$DW$92, DW_AT_TI_begin_column(0x01)
    1773                            .dwattr $C$DW$92, DW_AT_decl_file("../driverlib/emac.c")
    1774                            .dwattr $C$DW$92, DW_AT_decl_line(0x534)
    1775                            .dwattr $C$DW$92, DW_AT_decl_column(0x01)
    1776                            .dwattr $C$DW$92, DW_AT_TI_max_frame_size(0x10)
    1777                            .dwpsn  file "../driverlib/emac.c",line 1333,column 1,is_stmt,address EMACAddrFilterSet,isa 1
    1778                    
    1779                            .dwfde $C$DW$CIE, EMACAddrFilterSet
    1780                    $C$DW$93        .dwtag  DW_TAG_formal_parameter
    1781                            .dwattr $C$DW$93, DW_AT_name("ui32Base")
    1782                            .dwattr $C$DW$93, DW_AT_TI_symbol_name("ui32Base")
    1783                            .dwattr $C$DW$93, DW_AT_type(*$C$DW$T$22)
    1784                            .dwattr $C$DW$93, DW_AT_location[DW_OP_reg0]
    1785                    
    1786                    $C$DW$94        .dwtag  DW_TAG_formal_parameter
    1787                            .dwattr $C$DW$94, DW_AT_name("ui32Index")
    1788                            .dwattr $C$DW$94, DW_AT_TI_symbol_name("ui32Index")
    1789                            .dwattr $C$DW$94, DW_AT_type(*$C$DW$T$22)
    1790                            .dwattr $C$DW$94, DW_AT_location[DW_OP_reg1]
    1791                    
    1792                    $C$DW$95        .dwtag  DW_TAG_formal_parameter
    1793                            .dwattr $C$DW$95, DW_AT_name("ui32Config")
    1794                            .dwattr $C$DW$95, DW_AT_TI_symbol_name("ui32Config")
    1795                            .dwattr $C$DW$95, DW_AT_type(*$C$DW$T$22)
    1796                            .dwattr $C$DW$95, DW_AT_location[DW_OP_reg2]
    1797                    
    1798                    ;----------------------------------------------------------------------
    1799                    ; 1332 | EMACAddrFilterSet(uint32_t ui32Base, uint32_t ui32Index, uint32_t ui32C
    1800                    ;     | onfig)                                                                 
    1801                    ;----------------------------------------------------------------------
    1802                    
    1803                    ;*****************************************************************************
    1804                    ;* FUNCTION NAME: EMACAddrFilterSet                                          *
    1805                    ;*                                                                           *
    1806                    ;*   Regs Modified     : A1,A2,A3,A4,SP,SR                                   *
    1807                    ;*   Regs Used         : A1,A2,A3,A4,SP,LR,SR                                *
    1808                    ;*   Local Frame Size  : 0 Args + 16 Auto + 0 Save = 16 byte                 *
    1809                    ;*****************************************************************************
    1810 000002c0           EMACAddrFilterSet:
    1811                    ;* --------------------------------------------------------------------------*
    1812                            .dwcfi  cfa_offset, 0
    1813 000002c0 0D10F1AD          SUB       SP, SP, #16           ; [DPU_V7M3_PIPE]  ; [KEEP 32-BIT INS]
    1814                            .dwcfi  cfa_offset, 16
TI ARM Assembler Unix v18.1.1 Fri Jul  3 20:08:24 2020

Tools Copyright (c) 1996-2017 Texas Instruments Incorporated
emac.asm                                                             PAGE   34

    1815                    $C$DW$96        .dwtag  DW_TAG_variable
    1816                            .dwattr $C$DW$96, DW_AT_name("ui32Base")
    1817                            .dwattr $C$DW$96, DW_AT_TI_symbol_name("ui32Base")
    1818                            .dwattr $C$DW$96, DW_AT_type(*$C$DW$T$22)
    1819                            .dwattr $C$DW$96, DW_AT_location[DW_OP_breg13 0]
    1820                    
    1821                    $C$DW$97        .dwtag  DW_TAG_variable
    1822                            .dwattr $C$DW$97, DW_AT_name("ui32Index")
    1823                            .dwattr $C$DW$97, DW_AT_TI_symbol_name("ui32Index")
    1824                            .dwattr $C$DW$97, DW_AT_type(*$C$DW$T$22)
    1825                            .dwattr $C$DW$97, DW_AT_location[DW_OP_breg13 4]
    1826                    
    1827                    $C$DW$98        .dwtag  DW_TAG_variable
    1828                            .dwattr $C$DW$98, DW_AT_name("ui32Config")
    1829                            .dwattr $C$DW$98, DW_AT_TI_symbol_name("ui32Config")
    1830                            .dwattr $C$DW$98, DW_AT_type(*$C$DW$T$22)
    1831                            .dwattr $C$DW$98, DW_AT_location[DW_OP_breg13 8]
    1832                    
    1833                    $C$DW$99        .dwtag  DW_TAG_variable
    1834                            .dwattr $C$DW$99, DW_AT_name("ui32Val")
    1835                            .dwattr $C$DW$99, DW_AT_TI_symbol_name("ui32Val")
    1836                            .dwattr $C$DW$99, DW_AT_type(*$C$DW$T$22)
    1837                            .dwattr $C$DW$99, DW_AT_location[DW_OP_breg13 12]
    1838                    
    1839                    ;----------------------------------------------------------------------
    1840                    ; 1334 | uint32_t ui32Val;                                                      
    1841                    ; 1336 | //                                                                     
    1842                    ; 1337 | // Parameter sanity check.                                             
    1843                    ; 1338 | //                                                                     
    1844                    ; 1339 | ASSERT(ui32Index < NUM_MAC_ADDR);                                      
    1845                    ; 1340 | ASSERT((ui32Config & ~(EMAC_FILTER_BYTE_MASK_M |                       
    1846                    ; 1341 |                        EMAC_FILTER_ADDR_ENABLE |                       
    1847                    ; 1342 |                        EMAC_FILTER_SOURCE_ADDR)) == 0);                
    1848                    ; 1343 | ASSERT(ui32Index);                                                     
    1849                    ; 1345 | //                                                                     
    1850                    ; 1346 | // Set the filter configuration for a particular MAC address.          
    1851                    ; 1347 | //                                                                     
    1852                    ;----------------------------------------------------------------------
    1853 000002c4 9202              STR       A3, [SP, #8]          ; [DPU_V7M3_PIPE] |1333|  ; [ORIG 16-BIT INS]
    1854 000002c6 9101              STR       A2, [SP, #4]          ; [DPU_V7M3_PIPE] |1333|  ; [ORIG 16-BIT INS]
    1855 000002c8 9000              STR       A1, [SP, #0]          ; [DPU_V7M3_PIPE] |1333|  ; [ORIG 16-BIT INS]
    1856                            .dwpsn  file "../driverlib/emac.c",line 1348,column 5,is_stmt,isa 1
    1857                    ;----------------------------------------------------------------------
    1858                    ; 1348 | HWREG(ui32Base + EMAC_O_ADDRH(ui32Index)) =                            
    1859                    ; 1349 |     (HWREG(ui32Base + EMAC_O_ADDRH(ui32Index)) & 0xFFFF) | ui32Config; 
    1860                    ; 1351 | //                                                                     
    1861                    ; 1352 | // Read and rewrite the low half of the MAC address register to ensure 
    1862                    ; 1353 | // that the upper half's data is latched.                              
    1863                    ; 1354 | //                                                                     
    1864                    ;----------------------------------------------------------------------
    1865 000002ca 9901              LDR       A2, [SP, #4]          ; [DPU_V7M3_PIPE] |1348|  ; [ORIG 16-BIT INS]
    1866 000002cc 9800              LDR       A1, [SP, #0]          ; [DPU_V7M3_PIPE] |1348|  ; [ORIG 16-BIT INS]
    1867 000002ce 9B01              LDR       A4, [SP, #4]          ; [DPU_V7M3_PIPE] |1348|  ; [ORIG 16-BIT INS]
    1868 000002d0 00C1EB00          ADD       A1, A1, A2, LSL #3    ; [DPU_V7M3_PIPE] |1348|  ; [KEEP 32-BIT INS]
    1869 000002d4 6C02              LDR       A3, [A1, #64]         ; [DPU_V7M3_PIPE] |1348|  ; [ORIG 16-BIT INS]
TI ARM Assembler Unix v18.1.1 Fri Jul  3 20:08:24 2020

Tools Copyright (c) 1996-2017 Texas Instruments Incorporated
emac.asm                                                             PAGE   35

    1870 000002d6 9900              LDR       A2, [SP, #0]          ; [DPU_V7M3_PIPE] |1348|  ; [ORIG 16-BIT INS]
    1871 000002d8 9802              LDR       A1, [SP, #8]          ; [DPU_V7M3_PIPE] |1348|  ; [ORIG 16-BIT INS]
    1872 000002da 421FF36F          BFC       A3, #16, #16          ; [DPU_V7M3_PIPE] |1348|  ; [KEEP 32-BIT INS]
    1873 000002de 01C3EB01          ADD       A2, A2, A4, LSL #3    ; [DPU_V7M3_PIPE] |1348|  ; [KEEP 32-BIT INS]
    1874 000002e2 4310              ORRS      A1, A1, A3            ; [DPU_V7M3_PIPE] |1348|  ; [ORIG 16-BIT INS]
    1875 000002e4 6408              STR       A1, [A2, #64]         ; [DPU_V7M3_PIPE] |1348|  ; [ORIG 16-BIT INS]
    1876                            .dwpsn  file "../driverlib/emac.c",line 1355,column 5,is_stmt,isa 1
    1877                    ;----------------------------------------------------------------------
    1878                    ; 1355 | ui32Val = HWREG(ui32Base + EMAC_O_ADDRL(ui32Index));                   
    1879                    ;----------------------------------------------------------------------
    1880 000002e6 9901              LDR       A2, [SP, #4]          ; [DPU_V7M3_PIPE] |1355|  ; [ORIG 16-BIT INS]
    1881 000002e8 9800              LDR       A1, [SP, #0]          ; [DPU_V7M3_PIPE] |1355|  ; [ORIG 16-BIT INS]
    1882 000002ea 00C1EB00          ADD       A1, A1, A2, LSL #3    ; [DPU_V7M3_PIPE] |1355|  ; [KEEP 32-BIT INS]
    1883 000002ee 6C40              LDR       A1, [A1, #68]         ; [DPU_V7M3_PIPE] |1355|  ; [ORIG 16-BIT INS]
    1884 000002f0 9003              STR       A1, [SP, #12]         ; [DPU_V7M3_PIPE] |1355|  ; [ORIG 16-BIT INS]
    1885                            .dwpsn  file "../driverlib/emac.c",line 1356,column 5,is_stmt,isa 1
    1886                    ;----------------------------------------------------------------------
    1887                    ; 1356 | HWREG(ui32Base + EMAC_O_ADDRL(ui32Index)) = ui32Val;                   
    1888                    ;----------------------------------------------------------------------
    1889 000002f2 9A01              LDR       A3, [SP, #4]          ; [DPU_V7M3_PIPE] |1356|  ; [ORIG 16-BIT INS]
    1890 000002f4 9800              LDR       A1, [SP, #0]          ; [DPU_V7M3_PIPE] |1356|  ; [ORIG 16-BIT INS]
    1891 000002f6 9903              LDR       A2, [SP, #12]         ; [DPU_V7M3_PIPE] |1356|  ; [ORIG 16-BIT INS]
    1892 000002f8 00C2EB00          ADD       A1, A1, A3, LSL #3    ; [DPU_V7M3_PIPE] |1356|  ; [KEEP 32-BIT INS]
    1893 000002fc 6441              STR       A2, [A1, #68]         ; [DPU_V7M3_PIPE] |1356|  ; [ORIG 16-BIT INS]
    1894                            .dwpsn  file "../driverlib/emac.c",line 1357,column 1,is_stmt,isa 1
    1895 000002fe B004              ADD       SP, SP, #16           ; [DPU_V7M3_PIPE]  ; [ORIG 16-BIT INS]
    1896                            .dwcfi  cfa_offset, 0
    1897                    $C$DW$100       .dwtag  DW_TAG_TI_branch
    1898                            .dwattr $C$DW$100, DW_AT_low_pc(0x00)
    1899                            .dwattr $C$DW$100, DW_AT_TI_return
    1900                    
    1901 00000300 4770              BX        LR                    ; [DPU_V7M3_PIPE]  ; [ORIG 16-BIT INS]
    1902                            ; BRANCH OCCURS                  ; [] 
    1903                            .dwattr $C$DW$92, DW_AT_TI_end_file("../driverlib/emac.c")
    1904                            .dwattr $C$DW$92, DW_AT_TI_end_line(0x54d)
    1905                            .dwattr $C$DW$92, DW_AT_TI_end_column(0x01)
    1906                            .dwendentry
    1907                            .dwendtag $C$DW$92
    1908                    
    1909 00000302                   .sect   ".text"
    1910                            .clink
    1911                            .thumbfunc EMACAddrFilterGet
    1912 00000302                   .thumb
    1913                            .global EMACAddrFilterGet
    1914                    
    1915                    $C$DW$101       .dwtag  DW_TAG_subprogram
    1916                            .dwattr $C$DW$101, DW_AT_name("EMACAddrFilterGet")
    1917                            .dwattr $C$DW$101, DW_AT_low_pc(EMACAddrFilterGet)
    1918                            .dwattr $C$DW$101, DW_AT_high_pc(0x00)
    1919                            .dwattr $C$DW$101, DW_AT_TI_symbol_name("EMACAddrFilterGet")
    1920                            .dwattr $C$DW$101, DW_AT_external
    1921                            .dwattr $C$DW$101, DW_AT_type(*$C$DW$T$22)
    1922                            .dwattr $C$DW$101, DW_AT_TI_begin_file("../driverlib/emac.c")
    1923                            .dwattr $C$DW$101, DW_AT_TI_begin_line(0x57b)
    1924                            .dwattr $C$DW$101, DW_AT_TI_begin_column(0x01)
TI ARM Assembler Unix v18.1.1 Fri Jul  3 20:08:24 2020

Tools Copyright (c) 1996-2017 Texas Instruments Incorporated
emac.asm                                                             PAGE   36

    1925                            .dwattr $C$DW$101, DW_AT_decl_file("../driverlib/emac.c")
    1926                            .dwattr $C$DW$101, DW_AT_decl_line(0x57b)
    1927                            .dwattr $C$DW$101, DW_AT_decl_column(0x01)
    1928                            .dwattr $C$DW$101, DW_AT_TI_max_frame_size(0x08)
    1929                            .dwpsn  file "../driverlib/emac.c",line 1404,column 1,is_stmt,address EMACAddrFilterGet,isa 1
    1930                    
    1931                            .dwfde $C$DW$CIE, EMACAddrFilterGet
    1932                    $C$DW$102       .dwtag  DW_TAG_formal_parameter
    1933                            .dwattr $C$DW$102, DW_AT_name("ui32Base")
    1934                            .dwattr $C$DW$102, DW_AT_TI_symbol_name("ui32Base")
    1935                            .dwattr $C$DW$102, DW_AT_type(*$C$DW$T$22)
    1936                            .dwattr $C$DW$102, DW_AT_location[DW_OP_reg0]
    1937                    
    1938                    $C$DW$103       .dwtag  DW_TAG_formal_parameter
    1939                            .dwattr $C$DW$103, DW_AT_name("ui32Index")
    1940                            .dwattr $C$DW$103, DW_AT_TI_symbol_name("ui32Index")
    1941                            .dwattr $C$DW$103, DW_AT_type(*$C$DW$T$22)
    1942                            .dwattr $C$DW$103, DW_AT_location[DW_OP_reg1]
    1943                    
    1944                    ;----------------------------------------------------------------------
    1945                    ; 1403 | EMACAddrFilterGet(uint32_t ui32Base, uint32_t ui32Index)               
    1946                    ;----------------------------------------------------------------------
    1947                    
    1948                    ;*****************************************************************************
    1949                    ;* FUNCTION NAME: EMACAddrFilterGet                                          *
    1950                    ;*                                                                           *
    1951                    ;*   Regs Modified     : A1,A2,SP                                            *
    1952                    ;*   Regs Used         : A1,A2,SP,LR                                         *
    1953                    ;*   Local Frame Size  : 0 Args + 8 Auto + 0 Save = 8 byte                   *
    1954                    ;*****************************************************************************
    1955 00000302           EMACAddrFilterGet:
    1956                    ;* --------------------------------------------------------------------------*
    1957                            .dwcfi  cfa_offset, 0
    1958 00000302 0D08F1AD          SUB       SP, SP, #8            ; [DPU_V7M3_PIPE]  ; [KEEP 32-BIT INS]
    1959                            .dwcfi  cfa_offset, 8
    1960                    $C$DW$104       .dwtag  DW_TAG_variable
    1961                            .dwattr $C$DW$104, DW_AT_name("ui32Base")
    1962                            .dwattr $C$DW$104, DW_AT_TI_symbol_name("ui32Base")
    1963                            .dwattr $C$DW$104, DW_AT_type(*$C$DW$T$22)
    1964                            .dwattr $C$DW$104, DW_AT_location[DW_OP_breg13 0]
    1965                    
    1966                    $C$DW$105       .dwtag  DW_TAG_variable
    1967                            .dwattr $C$DW$105, DW_AT_name("ui32Index")
    1968                            .dwattr $C$DW$105, DW_AT_TI_symbol_name("ui32Index")
    1969                            .dwattr $C$DW$105, DW_AT_type(*$C$DW$T$22)
    1970                            .dwattr $C$DW$105, DW_AT_location[DW_OP_breg13 4]
    1971                    
    1972                    ;----------------------------------------------------------------------
    1973                    ; 1405 | //                                                                     
    1974                    ; 1406 | // Parameter sanity check.                                             
    1975                    ; 1407 | //                                                                     
    1976                    ; 1408 | ASSERT(ui32Index < NUM_MAC_ADDR);                                      
    1977                    ; 1409 | ASSERT(ui32Index);                                                     
    1978                    ; 1411 | //                                                                     
    1979                    ; 1412 | // Read and return the filter settings for the requested MAC address sl
TI ARM Assembler Unix v18.1.1 Fri Jul  3 20:08:24 2020

Tools Copyright (c) 1996-2017 Texas Instruments Incorporated
emac.asm                                                             PAGE   37

    1980                    ;     | ot.                                                                    
    1981                    ; 1413 | //                                                                     
    1982                    ;----------------------------------------------------------------------
    1983 00000306 9101              STR       A2, [SP, #4]          ; [DPU_V7M3_PIPE] |1404|  ; [ORIG 16-BIT INS]
    1984 00000308 9000              STR       A1, [SP, #0]          ; [DPU_V7M3_PIPE] |1404|  ; [ORIG 16-BIT INS]
    1985                            .dwpsn  file "../driverlib/emac.c",line 1414,column 5,is_stmt,isa 1
    1986                    ;----------------------------------------------------------------------
    1987                    ; 1414 | return(HWREG(ui32Base + EMAC_O_ADDRH(ui32Index)) &                     
    1988                    ; 1415 |        (EMAC_FILTER_BYTE_MASK_M | EMAC_FILTER_ADDR_ENABLE |            
    1989                    ; 1416 |         EMAC_FILTER_SOURCE_ADDR));                                     
    1990                    ;----------------------------------------------------------------------
    1991 0000030a 9901              LDR       A2, [SP, #4]          ; [DPU_V7M3_PIPE] |1414|  ; [ORIG 16-BIT INS]
    1992 0000030c 9800              LDR       A1, [SP, #0]          ; [DPU_V7M3_PIPE] |1414|  ; [ORIG 16-BIT INS]
    1993 0000030e 00C1EB00          ADD       A1, A1, A2, LSL #3    ; [DPU_V7M3_PIPE] |1414|  ; [KEEP 32-BIT INS]
    1994 00000312 6C00              LDR       A1, [A1, #64]         ; [DPU_V7M3_PIPE] |1414|  ; [ORIG 16-BIT INS]
    1995 00000314 407FF000          AND       A1, A1, #-16777216    ; [DPU_V7M3_PIPE] |1414|  ; [KEEP 32-BIT INS]
    1996                            .dwpsn  file "../driverlib/emac.c",line 1417,column 1,is_stmt,isa 1
    1997 00000318 B002              ADD       SP, SP, #8            ; [DPU_V7M3_PIPE]  ; [ORIG 16-BIT INS]
    1998                            .dwcfi  cfa_offset, 0
    1999                    $C$DW$106       .dwtag  DW_TAG_TI_branch
    2000                            .dwattr $C$DW$106, DW_AT_low_pc(0x00)
    2001                            .dwattr $C$DW$106, DW_AT_TI_return
    2002                    
    2003 0000031a 4770              BX        LR                    ; [DPU_V7M3_PIPE]  ; [ORIG 16-BIT INS]
    2004                            ; BRANCH OCCURS                  ; [] 
    2005                            .dwattr $C$DW$101, DW_AT_TI_end_file("../driverlib/emac.c")
    2006                            .dwattr $C$DW$101, DW_AT_TI_end_line(0x589)
    2007                            .dwattr $C$DW$101, DW_AT_TI_end_column(0x01)
    2008                            .dwendentry
    2009                            .dwendtag $C$DW$101
    2010                    
    2011 0000031c                   .sect   ".text"
    2012                            .clink
    2013                            .thumbfunc EMACFrameFilterSet
    2014 0000031c                   .thumb
    2015                            .global EMACFrameFilterSet
    2016                    
    2017                    $C$DW$107       .dwtag  DW_TAG_subprogram
    2018                            .dwattr $C$DW$107, DW_AT_name("EMACFrameFilterSet")
    2019                            .dwattr $C$DW$107, DW_AT_low_pc(EMACFrameFilterSet)
    2020                            .dwattr $C$DW$107, DW_AT_high_pc(0x00)
    2021                            .dwattr $C$DW$107, DW_AT_TI_symbol_name("EMACFrameFilterSet")
    2022                            .dwattr $C$DW$107, DW_AT_external
    2023                            .dwattr $C$DW$107, DW_AT_TI_begin_file("../driverlib/emac.c")
    2024                            .dwattr $C$DW$107, DW_AT_TI_begin_line(0x5d5)
    2025                            .dwattr $C$DW$107, DW_AT_TI_begin_column(0x01)
    2026                            .dwattr $C$DW$107, DW_AT_decl_file("../driverlib/emac.c")
    2027                            .dwattr $C$DW$107, DW_AT_decl_line(0x5d5)
    2028                            .dwattr $C$DW$107, DW_AT_decl_column(0x01)
    2029                            .dwattr $C$DW$107, DW_AT_TI_max_frame_size(0x08)
    2030                            .dwpsn  file "../driverlib/emac.c",line 1494,column 1,is_stmt,address EMACFrameFilterSet,isa 1
    2031                    
    2032                            .dwfde $C$DW$CIE, EMACFrameFilterSet
    2033                    $C$DW$108       .dwtag  DW_TAG_formal_parameter
    2034                            .dwattr $C$DW$108, DW_AT_name("ui32Base")
TI ARM Assembler Unix v18.1.1 Fri Jul  3 20:08:24 2020

Tools Copyright (c) 1996-2017 Texas Instruments Incorporated
emac.asm                                                             PAGE   38

    2035                            .dwattr $C$DW$108, DW_AT_TI_symbol_name("ui32Base")
    2036                            .dwattr $C$DW$108, DW_AT_type(*$C$DW$T$22)
    2037                            .dwattr $C$DW$108, DW_AT_location[DW_OP_reg0]
    2038                    
    2039                    $C$DW$109       .dwtag  DW_TAG_formal_parameter
    2040                            .dwattr $C$DW$109, DW_AT_name("ui32FilterOpts")
    2041                            .dwattr $C$DW$109, DW_AT_TI_symbol_name("ui32FilterOpts")
    2042                            .dwattr $C$DW$109, DW_AT_type(*$C$DW$T$22)
    2043                            .dwattr $C$DW$109, DW_AT_location[DW_OP_reg1]
    2044                    
    2045                    ;----------------------------------------------------------------------
    2046                    ; 1493 | EMACFrameFilterSet(uint32_t ui32Base, uint32_t ui32FilterOpts)         
    2047                    ;----------------------------------------------------------------------
    2048                    
    2049                    ;*****************************************************************************
    2050                    ;* FUNCTION NAME: EMACFrameFilterSet                                         *
    2051                    ;*                                                                           *
    2052                    ;*   Regs Modified     : A1,A2,A3,A4,SP,SR                                   *
    2053                    ;*   Regs Used         : A1,A2,A3,A4,SP,LR,SR                                *
    2054                    ;*   Local Frame Size  : 0 Args + 8 Auto + 0 Save = 8 byte                   *
    2055                    ;*****************************************************************************
    2056 0000031c           EMACFrameFilterSet:
    2057                    ;* --------------------------------------------------------------------------*
    2058                            .dwcfi  cfa_offset, 0
    2059 0000031c 0D08F1AD          SUB       SP, SP, #8            ; [DPU_V7M3_PIPE]  ; [KEEP 32-BIT INS]
    2060                            .dwcfi  cfa_offset, 8
    2061                    $C$DW$110       .dwtag  DW_TAG_variable
    2062                            .dwattr $C$DW$110, DW_AT_name("ui32Base")
    2063                            .dwattr $C$DW$110, DW_AT_TI_symbol_name("ui32Base")
    2064                            .dwattr $C$DW$110, DW_AT_type(*$C$DW$T$22)
    2065                            .dwattr $C$DW$110, DW_AT_location[DW_OP_breg13 0]
    2066                    
    2067                    $C$DW$111       .dwtag  DW_TAG_variable
    2068                            .dwattr $C$DW$111, DW_AT_name("ui32FilterOpts")
    2069                            .dwattr $C$DW$111, DW_AT_TI_symbol_name("ui32FilterOpts")
    2070                            .dwattr $C$DW$111, DW_AT_type(*$C$DW$T$22)
    2071                            .dwattr $C$DW$111, DW_AT_location[DW_OP_breg13 4]
    2072                    
    2073                    ;----------------------------------------------------------------------
    2074                    ; 1495 | ASSERT((ui32FilterOpts & ~VALID_FRMFILTER_FLAGS) == 0);                
    2075                    ; 1497 | //                                                                     
    2076                    ; 1498 | // Set the Ethernet MAC frame filter according to the flags passed.    
    2077                    ; 1499 | //                                                                     
    2078                    ;----------------------------------------------------------------------
    2079 00000320 9101              STR       A2, [SP, #4]          ; [DPU_V7M3_PIPE] |1494|  ; [ORIG 16-BIT INS]
    2080 00000322 9000              STR       A1, [SP, #0]          ; [DPU_V7M3_PIPE] |1494|  ; [ORIG 16-BIT INS]
    2081                            .dwpsn  file "../driverlib/emac.c",line 1500,column 5,is_stmt,isa 1
    2082                    ;----------------------------------------------------------------------
    2083                    ; 1500 | HWREG(ui32Base + EMAC_O_FRAMEFLTR) =                                   
    2084                    ; 1501 |     ((HWREG(ui32Base + EMAC_O_FRAMEFLTR) & ~VALID_FRMFILTER_FLAGS) |   
    2085                    ; 1502 |      ui32FilterOpts);                                                  
    2086                    ;----------------------------------------------------------------------
    2087 00000324 48A6              LDR       A1, $C$CON10          ; [DPU_V7M3_PIPE] |1500|  ; [ORIG 16-BIT INS]
    2088 00000326 9900              LDR       A2, [SP, #0]          ; [DPU_V7M3_PIPE] |1500|  ; [ORIG 16-BIT INS]
    2089 00000328 9A00              LDR       A3, [SP, #0]          ; [DPU_V7M3_PIPE] |1500|  ; [ORIG 16-BIT INS]
TI ARM Assembler Unix v18.1.1 Fri Jul  3 20:08:24 2020

Tools Copyright (c) 1996-2017 Texas Instruments Incorporated
emac.asm                                                             PAGE   39

    2090 0000032a 684B              LDR       A4, [A2, #4]          ; [DPU_V7M3_PIPE] |1500|  ; [ORIG 16-BIT INS]
    2091 0000032c 9901              LDR       A2, [SP, #4]          ; [DPU_V7M3_PIPE] |1500|  ; [ORIG 16-BIT INS]
    2092 0000032e 4018              ANDS      A1, A1, A4            ; [DPU_V7M3_PIPE] |1500|  ; [ORIG 16-BIT INS]
    2093 00000330 4301              ORRS      A2, A2, A1            ; [DPU_V7M3_PIPE] |1500|  ; [ORIG 16-BIT INS]
    2094 00000332 6051              STR       A2, [A3, #4]          ; [DPU_V7M3_PIPE] |1500|  ; [ORIG 16-BIT INS]
    2095                            .dwpsn  file "../driverlib/emac.c",line 1503,column 1,is_stmt,isa 1
    2096 00000334 B002              ADD       SP, SP, #8            ; [DPU_V7M3_PIPE]  ; [ORIG 16-BIT INS]
    2097                            .dwcfi  cfa_offset, 0
    2098                    $C$DW$112       .dwtag  DW_TAG_TI_branch
    2099                            .dwattr $C$DW$112, DW_AT_low_pc(0x00)
    2100                            .dwattr $C$DW$112, DW_AT_TI_return
    2101                    
    2102 00000336 4770              BX        LR                    ; [DPU_V7M3_PIPE]  ; [ORIG 16-BIT INS]
    2103                            ; BRANCH OCCURS                  ; [] 
    2104                            .dwattr $C$DW$107, DW_AT_TI_end_file("../driverlib/emac.c")
    2105                            .dwattr $C$DW$107, DW_AT_TI_end_line(0x5df)
    2106                            .dwattr $C$DW$107, DW_AT_TI_end_column(0x01)
    2107                            .dwendentry
    2108                            .dwendtag $C$DW$107
    2109                    
    2110                    ;******************************************************************************
    2111                    ;* CONSTANT TABLE                                                             *
    2112                    ;******************************************************************************
    2113 00000338                   .sect   ".text"
    2114                            .align  4
    2115 00000338 00000014! ||$C$CON2||:    .bits   g_pi16MIIClockDiv+20,32
    2116 0000033c                   .sect   ".text"
    2117                            .clink
    2118                            .thumbfunc EMACFrameFilterGet
    2119 0000033c                   .thumb
    2120                            .global EMACFrameFilterGet
    2121                    
    2122                    $C$DW$113       .dwtag  DW_TAG_subprogram
    2123                            .dwattr $C$DW$113, DW_AT_name("EMACFrameFilterGet")
    2124                            .dwattr $C$DW$113, DW_AT_low_pc(EMACFrameFilterGet)
    2125                            .dwattr $C$DW$113, DW_AT_high_pc(0x00)
    2126                            .dwattr $C$DW$113, DW_AT_TI_symbol_name("EMACFrameFilterGet")
    2127                            .dwattr $C$DW$113, DW_AT_external
    2128                            .dwattr $C$DW$113, DW_AT_type(*$C$DW$T$22)
    2129                            .dwattr $C$DW$113, DW_AT_TI_begin_file("../driverlib/emac.c")
    2130                            .dwattr $C$DW$113, DW_AT_TI_begin_line(0x625)
    2131                            .dwattr $C$DW$113, DW_AT_TI_begin_column(0x01)
    2132                            .dwattr $C$DW$113, DW_AT_decl_file("../driverlib/emac.c")
    2133                            .dwattr $C$DW$113, DW_AT_decl_line(0x625)
    2134                            .dwattr $C$DW$113, DW_AT_decl_column(0x01)
    2135                            .dwattr $C$DW$113, DW_AT_TI_max_frame_size(0x08)
    2136                            .dwpsn  file "../driverlib/emac.c",line 1574,column 1,is_stmt,address EMACFrameFilterGet,isa 1
    2137                    
    2138                            .dwfde $C$DW$CIE, EMACFrameFilterGet
    2139                    $C$DW$114       .dwtag  DW_TAG_formal_parameter
    2140                            .dwattr $C$DW$114, DW_AT_name("ui32Base")
    2141                            .dwattr $C$DW$114, DW_AT_TI_symbol_name("ui32Base")
    2142                            .dwattr $C$DW$114, DW_AT_type(*$C$DW$T$22)
    2143                            .dwattr $C$DW$114, DW_AT_location[DW_OP_reg0]
    2144                    
TI ARM Assembler Unix v18.1.1 Fri Jul  3 20:08:24 2020

Tools Copyright (c) 1996-2017 Texas Instruments Incorporated
emac.asm                                                             PAGE   40

    2145                    ;----------------------------------------------------------------------
    2146                    ; 1573 | EMACFrameFilterGet(uint32_t ui32Base)                                  
    2147                    ;----------------------------------------------------------------------
    2148                    
    2149                    ;*****************************************************************************
    2150                    ;* FUNCTION NAME: EMACFrameFilterGet                                         *
    2151                    ;*                                                                           *
    2152                    ;*   Regs Modified     : A1,A2,SP,SR                                         *
    2153                    ;*   Regs Used         : A1,A2,SP,LR,SR                                      *
    2154                    ;*   Local Frame Size  : 0 Args + 4 Auto + 0 Save = 4 byte                   *
    2155                    ;*****************************************************************************
    2156 0000033c           EMACFrameFilterGet:
    2157                    ;* --------------------------------------------------------------------------*
    2158                            .dwcfi  cfa_offset, 0
    2159 0000033c 0D08F1AD          SUB       SP, SP, #8            ; [DPU_V7M3_PIPE]  ; [KEEP 32-BIT INS]
    2160                            .dwcfi  cfa_offset, 8
    2161                    $C$DW$115       .dwtag  DW_TAG_variable
    2162                            .dwattr $C$DW$115, DW_AT_name("ui32Base")
    2163                            .dwattr $C$DW$115, DW_AT_TI_symbol_name("ui32Base")
    2164                            .dwattr $C$DW$115, DW_AT_type(*$C$DW$T$22)
    2165                            .dwattr $C$DW$115, DW_AT_location[DW_OP_breg13 0]
    2166                    
    2167                    ;----------------------------------------------------------------------
    2168                    ; 1575 | //                                                                     
    2169                    ; 1576 | // Return the current MAC frame filter setting.                        
    2170                    ; 1577 | //                                                                     
    2171                    ;----------------------------------------------------------------------
    2172 00000340 9000              STR       A1, [SP, #0]          ; [DPU_V7M3_PIPE] |1574|  ; [ORIG 16-BIT INS]
    2173                            .dwpsn  file "../driverlib/emac.c",line 1578,column 5,is_stmt,isa 1
    2174                    ;----------------------------------------------------------------------
    2175                    ; 1578 | return(HWREG(ui32Base + EMAC_O_FRAMEFLTR) & VALID_FRMFILTER_FLAGS);    
    2176                    ;----------------------------------------------------------------------
    2177 00000342 9900              LDR       A2, [SP, #0]          ; [DPU_V7M3_PIPE] |1578|  ; [ORIG 16-BIT INS]
    2178 00000344 48B7              LDR       A1, $C$CON11          ; [DPU_V7M3_PIPE] |1578|  ; [ORIG 16-BIT INS]
    2179 00000346 6849              LDR       A2, [A2, #4]          ; [DPU_V7M3_PIPE] |1578|  ; [ORIG 16-BIT INS]
    2180 00000348 4008              ANDS      A1, A1, A2            ; [DPU_V7M3_PIPE] |1578|  ; [ORIG 16-BIT INS]
    2181                            .dwpsn  file "../driverlib/emac.c",line 1579,column 1,is_stmt,isa 1
    2182 0000034a B002              ADD       SP, SP, #8            ; [DPU_V7M3_PIPE]  ; [ORIG 16-BIT INS]
    2183                            .dwcfi  cfa_offset, 0
    2184                    $C$DW$116       .dwtag  DW_TAG_TI_branch
    2185                            .dwattr $C$DW$116, DW_AT_low_pc(0x00)
    2186                            .dwattr $C$DW$116, DW_AT_TI_return
    2187                    
    2188 0000034c 4770              BX        LR                    ; [DPU_V7M3_PIPE]  ; [ORIG 16-BIT INS]
    2189                            ; BRANCH OCCURS                  ; [] 
    2190                            .dwattr $C$DW$113, DW_AT_TI_end_file("../driverlib/emac.c")
    2191                            .dwattr $C$DW$113, DW_AT_TI_end_line(0x62b)
    2192                            .dwattr $C$DW$113, DW_AT_TI_end_column(0x01)
    2193                            .dwendentry
    2194                            .dwendtag $C$DW$113
    2195                    
    2196                    ;******************************************************************************
    2197                    ;* CONSTANT TABLE                                                             *
    2198                    ;******************************************************************************
    2199 0000034e                   .sect   ".text"
TI ARM Assembler Unix v18.1.1 Fri Jul  3 20:08:24 2020

Tools Copyright (c) 1996-2017 Texas Instruments Incorporated
emac.asm                                                             PAGE   41

    2200                            .align  4
    2201 0000034e 000046C0! ||$C$CON3||:    .bits   g_pi16MIIClockDiv,32
         00000352 00000000 
    2202                            .align  4
    2203 00000352 00040000! ||$C$CON4||:    .bits   g_pi16MIIClockDiv+4,32
         00000356 00000000 
    2204 00000358                   .sect   ".text"
    2205                            .clink
    2206                            .thumbfunc EMACHashFilterSet
    2207 00000358                   .thumb
    2208                            .global EMACHashFilterSet
    2209                    
    2210                    $C$DW$117       .dwtag  DW_TAG_subprogram
    2211                            .dwattr $C$DW$117, DW_AT_name("EMACHashFilterSet")
    2212                            .dwattr $C$DW$117, DW_AT_low_pc(EMACHashFilterSet)
    2213                            .dwattr $C$DW$117, DW_AT_high_pc(0x00)
    2214                            .dwattr $C$DW$117, DW_AT_TI_symbol_name("EMACHashFilterSet")
    2215                            .dwattr $C$DW$117, DW_AT_external
    2216                            .dwattr $C$DW$117, DW_AT_TI_begin_file("../driverlib/emac.c")
    2217                            .dwattr $C$DW$117, DW_AT_TI_begin_line(0x64c)
    2218                            .dwattr $C$DW$117, DW_AT_TI_begin_column(0x01)
    2219                            .dwattr $C$DW$117, DW_AT_decl_file("../driverlib/emac.c")
    2220                            .dwattr $C$DW$117, DW_AT_decl_line(0x64c)
    2221                            .dwattr $C$DW$117, DW_AT_decl_column(0x01)
    2222                            .dwattr $C$DW$117, DW_AT_TI_max_frame_size(0x10)
    2223                            .dwpsn  file "../driverlib/emac.c",line 1613,column 1,is_stmt,address EMACHashFilterSet,isa 1
    2224                    
    2225                            .dwfde $C$DW$CIE, EMACHashFilterSet
    2226                    $C$DW$118       .dwtag  DW_TAG_formal_parameter
    2227                            .dwattr $C$DW$118, DW_AT_name("ui32Base")
    2228                            .dwattr $C$DW$118, DW_AT_TI_symbol_name("ui32Base")
    2229                            .dwattr $C$DW$118, DW_AT_type(*$C$DW$T$22)
    2230                            .dwattr $C$DW$118, DW_AT_location[DW_OP_reg0]
    2231                    
    2232                    $C$DW$119       .dwtag  DW_TAG_formal_parameter
    2233                            .dwattr $C$DW$119, DW_AT_name("ui32HashHi")
    2234                            .dwattr $C$DW$119, DW_AT_TI_symbol_name("ui32HashHi")
    2235                            .dwattr $C$DW$119, DW_AT_type(*$C$DW$T$22)
    2236                            .dwattr $C$DW$119, DW_AT_location[DW_OP_reg1]
    2237                    
    2238                    $C$DW$120       .dwtag  DW_TAG_formal_parameter
    2239                            .dwattr $C$DW$120, DW_AT_name("ui32HashLo")
    2240                            .dwattr $C$DW$120, DW_AT_TI_symbol_name("ui32HashLo")
    2241                            .dwattr $C$DW$120, DW_AT_type(*$C$DW$T$22)
    2242                            .dwattr $C$DW$120, DW_AT_location[DW_OP_reg2]
    2243                    
    2244                    ;----------------------------------------------------------------------
    2245                    ; 1612 | EMACHashFilterSet(uint32_t ui32Base, uint32_t ui32HashHi, uint32_t ui32
    2246                    ;     | HashLo)                                                                
    2247                    ;----------------------------------------------------------------------
    2248                    
    2249                    ;*****************************************************************************
    2250                    ;* FUNCTION NAME: EMACHashFilterSet                                          *
    2251                    ;*                                                                           *
    2252                    ;*   Regs Modified     : A1,A2,SP                                            *
TI ARM Assembler Unix v18.1.1 Fri Jul  3 20:08:24 2020

Tools Copyright (c) 1996-2017 Texas Instruments Incorporated
emac.asm                                                             PAGE   42

    2253                    ;*   Regs Used         : A1,A2,A3,SP,LR                                      *
    2254                    ;*   Local Frame Size  : 0 Args + 12 Auto + 0 Save = 12 byte                 *
    2255                    ;*****************************************************************************
    2256 00000358           EMACHashFilterSet:
    2257                    ;* --------------------------------------------------------------------------*
    2258                            .dwcfi  cfa_offset, 0
    2259 00000358 0D10F1AD          SUB       SP, SP, #16           ; [DPU_V7M3_PIPE]  ; [KEEP 32-BIT INS]
    2260                            .dwcfi  cfa_offset, 16
    2261                    $C$DW$121       .dwtag  DW_TAG_variable
    2262                            .dwattr $C$DW$121, DW_AT_name("ui32Base")
    2263                            .dwattr $C$DW$121, DW_AT_TI_symbol_name("ui32Base")
    2264                            .dwattr $C$DW$121, DW_AT_type(*$C$DW$T$22)
    2265                            .dwattr $C$DW$121, DW_AT_location[DW_OP_breg13 0]
    2266                    
    2267                    $C$DW$122       .dwtag  DW_TAG_variable
    2268                            .dwattr $C$DW$122, DW_AT_name("ui32HashHi")
    2269                            .dwattr $C$DW$122, DW_AT_TI_symbol_name("ui32HashHi")
    2270                            .dwattr $C$DW$122, DW_AT_type(*$C$DW$T$22)
    2271                            .dwattr $C$DW$122, DW_AT_location[DW_OP_breg13 4]
    2272                    
    2273                    $C$DW$123       .dwtag  DW_TAG_variable
    2274                            .dwattr $C$DW$123, DW_AT_name("ui32HashLo")
    2275                            .dwattr $C$DW$123, DW_AT_TI_symbol_name("ui32HashLo")
    2276                            .dwattr $C$DW$123, DW_AT_type(*$C$DW$T$22)
    2277                            .dwattr $C$DW$123, DW_AT_location[DW_OP_breg13 8]
    2278                    
    2279                    ;----------------------------------------------------------------------
    2280                    ; 1614 | // Set the hash table with the values provided.                        
    2281                    ;----------------------------------------------------------------------
    2282 0000035c 9202              STR       A3, [SP, #8]          ; [DPU_V7M3_PIPE] |1613|  ; [ORIG 16-BIT INS]
    2283 0000035e 9101              STR       A2, [SP, #4]          ; [DPU_V7M3_PIPE] |1613|  ; [ORIG 16-BIT INS]
    2284 00000360 9000              STR       A1, [SP, #0]          ; [DPU_V7M3_PIPE] |1613|  ; [ORIG 16-BIT INS]
    2285                            .dwpsn  file "../driverlib/emac.c",line 1615,column 5,is_stmt,isa 1
    2286                    ;----------------------------------------------------------------------
    2287                    ; 1615 | HWREG(ui32Base + EMAC_O_HASHTBLL) = ui32HashLo;                        
    2288                    ;----------------------------------------------------------------------
    2289 00000362 9802              LDR       A1, [SP, #8]          ; [DPU_V7M3_PIPE] |1615|  ; [ORIG 16-BIT INS]
    2290 00000364 9900              LDR       A2, [SP, #0]          ; [DPU_V7M3_PIPE] |1615|  ; [ORIG 16-BIT INS]
    2291 00000366 60C8              STR       A1, [A2, #12]         ; [DPU_V7M3_PIPE] |1615|  ; [ORIG 16-BIT INS]
    2292                            .dwpsn  file "../driverlib/emac.c",line 1616,column 5,is_stmt,isa 1
    2293                    ;----------------------------------------------------------------------
    2294                    ; 1616 | HWREG(ui32Base + EMAC_O_HASHTBLH) = ui32HashHi;                        
    2295                    ;----------------------------------------------------------------------
    2296 00000368 9801              LDR       A1, [SP, #4]          ; [DPU_V7M3_PIPE] |1616|  ; [ORIG 16-BIT INS]
    2297 0000036a 9900              LDR       A2, [SP, #0]          ; [DPU_V7M3_PIPE] |1616|  ; [ORIG 16-BIT INS]
    2298 0000036c 6088              STR       A1, [A2, #8]          ; [DPU_V7M3_PIPE] |1616|  ; [ORIG 16-BIT INS]
    2299                            .dwpsn  file "../driverlib/emac.c",line 1617,column 1,is_stmt,isa 1
    2300 0000036e B004              ADD       SP, SP, #16           ; [DPU_V7M3_PIPE]  ; [ORIG 16-BIT INS]
    2301                            .dwcfi  cfa_offset, 0
    2302                    $C$DW$124       .dwtag  DW_TAG_TI_branch
    2303                            .dwattr $C$DW$124, DW_AT_low_pc(0x00)
    2304                            .dwattr $C$DW$124, DW_AT_TI_return
    2305                    
    2306 00000370 4770              BX        LR                    ; [DPU_V7M3_PIPE]  ; [ORIG 16-BIT INS]
    2307                            ; BRANCH OCCURS                  ; [] 
TI ARM Assembler Unix v18.1.1 Fri Jul  3 20:08:24 2020

Tools Copyright (c) 1996-2017 Texas Instruments Incorporated
emac.asm                                                             PAGE   43

    2308                            .dwattr $C$DW$117, DW_AT_TI_end_file("../driverlib/emac.c")
    2309                            .dwattr $C$DW$117, DW_AT_TI_end_line(0x651)
    2310                            .dwattr $C$DW$117, DW_AT_TI_end_column(0x01)
    2311                            .dwendentry
    2312                            .dwendtag $C$DW$117
    2313                    
    2314 00000372                   .sect   ".text"
    2315                            .clink
    2316                            .thumbfunc EMACHashFilterGet
    2317 00000372                   .thumb
    2318                            .global EMACHashFilterGet
    2319                    
    2320                    $C$DW$125       .dwtag  DW_TAG_subprogram
    2321                            .dwattr $C$DW$125, DW_AT_name("EMACHashFilterGet")
    2322                            .dwattr $C$DW$125, DW_AT_low_pc(EMACHashFilterGet)
    2323                            .dwattr $C$DW$125, DW_AT_high_pc(0x00)
    2324                            .dwattr $C$DW$125, DW_AT_TI_symbol_name("EMACHashFilterGet")
    2325                            .dwattr $C$DW$125, DW_AT_external
    2326                            .dwattr $C$DW$125, DW_AT_TI_begin_file("../driverlib/emac.c")
    2327                            .dwattr $C$DW$125, DW_AT_TI_begin_line(0x66f)
    2328                            .dwattr $C$DW$125, DW_AT_TI_begin_column(0x01)
    2329                            .dwattr $C$DW$125, DW_AT_decl_file("../driverlib/emac.c")
    2330                            .dwattr $C$DW$125, DW_AT_decl_line(0x66f)
    2331                            .dwattr $C$DW$125, DW_AT_decl_column(0x01)
    2332                            .dwattr $C$DW$125, DW_AT_TI_max_frame_size(0x10)
    2333                            .dwpsn  file "../driverlib/emac.c",line 1649,column 1,is_stmt,address EMACHashFilterGet,isa 1
    2334                    
    2335                            .dwfde $C$DW$CIE, EMACHashFilterGet
    2336                    $C$DW$126       .dwtag  DW_TAG_formal_parameter
    2337                            .dwattr $C$DW$126, DW_AT_name("ui32Base")
    2338                            .dwattr $C$DW$126, DW_AT_TI_symbol_name("ui32Base")
    2339                            .dwattr $C$DW$126, DW_AT_type(*$C$DW$T$22)
    2340                            .dwattr $C$DW$126, DW_AT_location[DW_OP_reg0]
    2341                    
    2342                    $C$DW$127       .dwtag  DW_TAG_formal_parameter
    2343                            .dwattr $C$DW$127, DW_AT_name("pui32HashHi")
    2344                            .dwattr $C$DW$127, DW_AT_TI_symbol_name("pui32HashHi")
    2345                            .dwattr $C$DW$127, DW_AT_type(*$C$DW$T$57)
    2346                            .dwattr $C$DW$127, DW_AT_location[DW_OP_reg1]
    2347                    
    2348                    $C$DW$128       .dwtag  DW_TAG_formal_parameter
    2349                            .dwattr $C$DW$128, DW_AT_name("pui32HashLo")
    2350                            .dwattr $C$DW$128, DW_AT_TI_symbol_name("pui32HashLo")
    2351                            .dwattr $C$DW$128, DW_AT_type(*$C$DW$T$57)
    2352                            .dwattr $C$DW$128, DW_AT_location[DW_OP_reg2]
    2353                    
    2354                    ;----------------------------------------------------------------------
    2355                    ; 1647 | EMACHashFilterGet(uint32_t ui32Base, uint32_t *pui32HashHi,            
    2356                    ; 1648 | uint32_t *pui32HashLo)                                                 
    2357                    ;----------------------------------------------------------------------
    2358                    
    2359                    ;*****************************************************************************
    2360                    ;* FUNCTION NAME: EMACHashFilterGet                                          *
    2361                    ;*                                                                           *
    2362                    ;*   Regs Modified     : A1,A2,SP                                            *
TI ARM Assembler Unix v18.1.1 Fri Jul  3 20:08:24 2020

Tools Copyright (c) 1996-2017 Texas Instruments Incorporated
emac.asm                                                             PAGE   44

    2363                    ;*   Regs Used         : A1,A2,A3,SP,LR                                      *
    2364                    ;*   Local Frame Size  : 0 Args + 12 Auto + 0 Save = 12 byte                 *
    2365                    ;*****************************************************************************
    2366 00000372           EMACHashFilterGet:
    2367                    ;* --------------------------------------------------------------------------*
    2368                            .dwcfi  cfa_offset, 0
    2369 00000372 0D10F1AD          SUB       SP, SP, #16           ; [DPU_V7M3_PIPE]  ; [KEEP 32-BIT INS]
    2370                            .dwcfi  cfa_offset, 16
    2371                    $C$DW$129       .dwtag  DW_TAG_variable
    2372                            .dwattr $C$DW$129, DW_AT_name("ui32Base")
    2373                            .dwattr $C$DW$129, DW_AT_TI_symbol_name("ui32Base")
    2374                            .dwattr $C$DW$129, DW_AT_type(*$C$DW$T$22)
    2375                            .dwattr $C$DW$129, DW_AT_location[DW_OP_breg13 0]
    2376                    
    2377                    $C$DW$130       .dwtag  DW_TAG_variable
    2378                            .dwattr $C$DW$130, DW_AT_name("pui32HashHi")
    2379                            .dwattr $C$DW$130, DW_AT_TI_symbol_name("pui32HashHi")
    2380                            .dwattr $C$DW$130, DW_AT_type(*$C$DW$T$57)
    2381                            .dwattr $C$DW$130, DW_AT_location[DW_OP_breg13 4]
    2382                    
    2383                    $C$DW$131       .dwtag  DW_TAG_variable
    2384                            .dwattr $C$DW$131, DW_AT_name("pui32HashLo")
    2385                            .dwattr $C$DW$131, DW_AT_TI_symbol_name("pui32HashLo")
    2386                            .dwattr $C$DW$131, DW_AT_type(*$C$DW$T$57)
    2387                            .dwattr $C$DW$131, DW_AT_location[DW_OP_breg13 8]
    2388                    
    2389                    ;----------------------------------------------------------------------
    2390                    ; 1650 | ASSERT(pui32HashHi);                                                   
    2391                    ; 1651 | ASSERT(pui32HashLo);                                                   
    2392                    ; 1653 | //                                                                     
    2393                    ; 1654 | // Get the current hash table values.                                  
    2394                    ; 1655 | //                                                                     
    2395                    ;----------------------------------------------------------------------
    2396 00000376 9202              STR       A3, [SP, #8]          ; [DPU_V7M3_PIPE] |1649|  ; [ORIG 16-BIT INS]
    2397 00000378 9101              STR       A2, [SP, #4]          ; [DPU_V7M3_PIPE] |1649|  ; [ORIG 16-BIT INS]
    2398 0000037a 9000              STR       A1, [SP, #0]          ; [DPU_V7M3_PIPE] |1649|  ; [ORIG 16-BIT INS]
    2399                            .dwpsn  file "../driverlib/emac.c",line 1656,column 5,is_stmt,isa 1
    2400                    ;----------------------------------------------------------------------
    2401                    ; 1656 | *pui32HashLo = HWREG(ui32Base + EMAC_O_HASHTBLL);                      
    2402                    ;----------------------------------------------------------------------
    2403 0000037c 9800              LDR       A1, [SP, #0]          ; [DPU_V7M3_PIPE] |1656|  ; [ORIG 16-BIT INS]
    2404 0000037e 9902              LDR       A2, [SP, #8]          ; [DPU_V7M3_PIPE] |1656|  ; [ORIG 16-BIT INS]
    2405 00000380 68C0              LDR       A1, [A1, #12]         ; [DPU_V7M3_PIPE] |1656|  ; [ORIG 16-BIT INS]
    2406 00000382 6008              STR       A1, [A2, #0]          ; [DPU_V7M3_PIPE] |1656|  ; [ORIG 16-BIT INS]
    2407                            .dwpsn  file "../driverlib/emac.c",line 1657,column 5,is_stmt,isa 1
    2408                    ;----------------------------------------------------------------------
    2409                    ; 1657 | *pui32HashHi = HWREG(ui32Base + EMAC_O_HASHTBLH);                      
    2410                    ;----------------------------------------------------------------------
    2411 00000384 9800              LDR       A1, [SP, #0]          ; [DPU_V7M3_PIPE] |1657|  ; [ORIG 16-BIT INS]
    2412 00000386 9901              LDR       A2, [SP, #4]          ; [DPU_V7M3_PIPE] |1657|  ; [ORIG 16-BIT INS]
    2413 00000388 6880              LDR       A1, [A1, #8]          ; [DPU_V7M3_PIPE] |1657|  ; [ORIG 16-BIT INS]
    2414 0000038a 6008              STR       A1, [A2, #0]          ; [DPU_V7M3_PIPE] |1657|  ; [ORIG 16-BIT INS]
    2415                            .dwpsn  file "../driverlib/emac.c",line 1658,column 1,is_stmt,isa 1
    2416 0000038c B004              ADD       SP, SP, #16           ; [DPU_V7M3_PIPE]  ; [ORIG 16-BIT INS]
    2417                            .dwcfi  cfa_offset, 0
TI ARM Assembler Unix v18.1.1 Fri Jul  3 20:08:24 2020

Tools Copyright (c) 1996-2017 Texas Instruments Incorporated
emac.asm                                                             PAGE   45

    2418                    $C$DW$132       .dwtag  DW_TAG_TI_branch
    2419                            .dwattr $C$DW$132, DW_AT_low_pc(0x00)
    2420                            .dwattr $C$DW$132, DW_AT_TI_return
    2421                    
    2422 0000038e 4770              BX        LR                    ; [DPU_V7M3_PIPE]  ; [ORIG 16-BIT INS]
    2423                            ; BRANCH OCCURS                  ; [] 
    2424                            .dwattr $C$DW$125, DW_AT_TI_end_file("../driverlib/emac.c")
    2425                            .dwattr $C$DW$125, DW_AT_TI_end_line(0x67a)
    2426                            .dwattr $C$DW$125, DW_AT_TI_end_column(0x01)
    2427                            .dwendentry
    2428                            .dwendtag $C$DW$125
    2429                    
    2430                    ;******************************************************************************
    2431                    ;* CONSTANT TABLE                                                             *
    2432                    ;******************************************************************************
    2433 00000390                   .sect   ".text"
    2434                            .align  4
    2435 00000390 F0003000  ||$C$CON5||:    .bits   -268423168,32
    2436 00000394                   .sect   ".text"
    2437                            .clink
    2438                            .thumbfunc EMACHashFilterBitCalculate
    2439 00000394                   .thumb
    2440                            .global EMACHashFilterBitCalculate
    2441                    
    2442                    $C$DW$133       .dwtag  DW_TAG_subprogram
    2443                            .dwattr $C$DW$133, DW_AT_name("EMACHashFilterBitCalculate")
    2444                            .dwattr $C$DW$133, DW_AT_low_pc(EMACHashFilterBitCalculate)
    2445                            .dwattr $C$DW$133, DW_AT_high_pc(0x00)
    2446                            .dwattr $C$DW$133, DW_AT_TI_symbol_name("EMACHashFilterBitCalculate")
    2447                            .dwattr $C$DW$133, DW_AT_external
    2448                            .dwattr $C$DW$133, DW_AT_type(*$C$DW$T$22)
    2449                            .dwattr $C$DW$133, DW_AT_TI_begin_file("../driverlib/emac.c")
    2450                            .dwattr $C$DW$133, DW_AT_TI_begin_line(0x691)
    2451                            .dwattr $C$DW$133, DW_AT_TI_begin_column(0x01)
    2452                            .dwattr $C$DW$133, DW_AT_decl_file("../driverlib/emac.c")
    2453                            .dwattr $C$DW$133, DW_AT_decl_line(0x691)
    2454                            .dwattr $C$DW$133, DW_AT_decl_column(0x01)
    2455                            .dwattr $C$DW$133, DW_AT_TI_max_frame_size(0x18)
    2456                            .dwpsn  file "../driverlib/emac.c",line 1682,column 1,is_stmt,address EMACHashFilterBitCalcula
    2457                    
    2458                            .dwfde $C$DW$CIE, EMACHashFilterBitCalculate
    2459                    $C$DW$134       .dwtag  DW_TAG_formal_parameter
    2460                            .dwattr $C$DW$134, DW_AT_name("pui8MACAddr")
    2461                            .dwattr $C$DW$134, DW_AT_TI_symbol_name("pui8MACAddr")
    2462                            .dwattr $C$DW$134, DW_AT_type(*$C$DW$T$62)
    2463                            .dwattr $C$DW$134, DW_AT_location[DW_OP_reg0]
    2464                    
    2465                    ;----------------------------------------------------------------------
    2466                    ; 1681 | EMACHashFilterBitCalculate(uint8_t *pui8MACAddr)                       
    2467                    ;----------------------------------------------------------------------
    2468                    
    2469                    ;*****************************************************************************
    2470                    ;* FUNCTION NAME: EMACHashFilterBitCalculate                                 *
    2471                    ;*                                                                           *
    2472                    ;*   Regs Modified     : A1,A2,A3,A4,V9,SP,LR,SR,D0,D0_hi,D1,D1_hi,D2,D2_hi, *
TI ARM Assembler Unix v18.1.1 Fri Jul  3 20:08:24 2020

Tools Copyright (c) 1996-2017 Texas Instruments Incorporated
emac.asm                                                             PAGE   46

    2473                    ;*                           D3,D3_hi,D4,D4_hi,D5,D5_hi,D6,D6_hi,D7,D7_hi,   *
    2474                    ;*                           FPEXC,FPSCR                                     *
    2475                    ;*   Regs Used         : A1,A2,A3,A4,V9,SP,LR,SR,D0,D0_hi,D1,D1_hi,D2,D2_hi, *
    2476                    ;*                           D3,D3_hi,D4,D4_hi,D5,D5_hi,D6,D6_hi,D7,D7_hi,   *
    2477                    ;*                           FPEXC,FPSCR                                     *
    2478                    ;*   Local Frame Size  : 0 Args + 16 Auto + 4 Save = 20 byte                 *
    2479                    ;*****************************************************************************
    2480 00000394           EMACHashFilterBitCalculate:
    2481                    ;* --------------------------------------------------------------------------*
    2482                            .dwcfi  cfa_offset, 0
    2483 00000394 B500              PUSH      {LR}                  ; [DPU_V7M3_PIPE]  ; [ORIG 16-BIT INS]
    2484                            .dwcfi  cfa_offset, 4
    2485                            .dwcfi  save_reg_to_mem, 14, -4
    2486 00000396 0D14F1AD          SUB       SP, SP, #20           ; [DPU_V7M3_PIPE]  ; [KEEP 32-BIT INS]
    2487                            .dwcfi  cfa_offset, 24
    2488                    $C$DW$135       .dwtag  DW_TAG_variable
    2489                            .dwattr $C$DW$135, DW_AT_name("pui8MACAddr")
    2490                            .dwattr $C$DW$135, DW_AT_TI_symbol_name("pui8MACAddr")
    2491                            .dwattr $C$DW$135, DW_AT_type(*$C$DW$T$62)
    2492                            .dwattr $C$DW$135, DW_AT_location[DW_OP_breg13 0]
    2493                    
    2494                    $C$DW$136       .dwtag  DW_TAG_variable
    2495                            .dwattr $C$DW$136, DW_AT_name("ui32CRC")
    2496                            .dwattr $C$DW$136, DW_AT_TI_symbol_name("ui32CRC")
    2497                            .dwattr $C$DW$136, DW_AT_type(*$C$DW$T$22)
    2498                            .dwattr $C$DW$136, DW_AT_location[DW_OP_breg13 4]
    2499                    
    2500                    $C$DW$137       .dwtag  DW_TAG_variable
    2501                            .dwattr $C$DW$137, DW_AT_name("ui32Mask")
    2502                            .dwattr $C$DW$137, DW_AT_TI_symbol_name("ui32Mask")
    2503                            .dwattr $C$DW$137, DW_AT_type(*$C$DW$T$22)
    2504                            .dwattr $C$DW$137, DW_AT_location[DW_OP_breg13 8]
    2505                    
    2506                    $C$DW$138       .dwtag  DW_TAG_variable
    2507                            .dwattr $C$DW$138, DW_AT_name("ui32Loop")
    2508                            .dwattr $C$DW$138, DW_AT_TI_symbol_name("ui32Loop")
    2509                            .dwattr $C$DW$138, DW_AT_type(*$C$DW$T$22)
    2510                            .dwattr $C$DW$138, DW_AT_location[DW_OP_breg13 12]
    2511                    
    2512                    ;----------------------------------------------------------------------
    2513                    ; 1683 | uint32_t ui32CRC, ui32Mask, ui32Loop;                                  
    2514                    ; 1685 | //                                                                     
    2515                    ; 1686 | // Parameter sanity check.                                             
    2516                    ; 1687 | //                                                                     
    2517                    ; 1688 | ASSERT(pui8MACAddr);                                                   
    2518                    ; 1690 | //                                                                     
    2519                    ; 1691 | // Calculate the CRC for the MAC address.                              
    2520                    ; 1692 | //                                                                     
    2521                    ;----------------------------------------------------------------------
    2522 0000039a 9000              STR       A1, [SP, #0]          ; [DPU_V7M3_PIPE] |1682|  ; [ORIG 16-BIT INS]
    2523                            .dwpsn  file "../driverlib/emac.c",line 1693,column 5,is_stmt,isa 1
    2524                    ;----------------------------------------------------------------------
    2525                    ; 1693 | ui32CRC = Crc32(0xFFFFFFFF, pui8MACAddr, 6);                           
    2526                    ;----------------------------------------------------------------------
    2527 0000039c 9900              LDR       A2, [SP, #0]          ; [DPU_V7M3_PIPE] |1693|  ; [ORIG 16-BIT INS]
TI ARM Assembler Unix v18.1.1 Fri Jul  3 20:08:24 2020

Tools Copyright (c) 1996-2017 Texas Instruments Incorporated
emac.asm                                                             PAGE   47

    2528 0000039e 2206              MOVS      A3, #6                ; [DPU_V7M3_PIPE] |1693|  ; [ORIG 16-BIT INS]
    2529 000003a0 30FFF04F          MOV       A1, #-1               ; [DPU_V7M3_PIPE] |1693|  ; [KEEP 32-BIT INS]
    2530                    $C$DW$139       .dwtag  DW_TAG_TI_branch
    2531                            .dwattr $C$DW$139, DW_AT_low_pc(0x00)
    2532                            .dwattr $C$DW$139, DW_AT_name("Crc32")
    2533                            .dwattr $C$DW$139, DW_AT_TI_call
    2534                    
    2535 000003a4 FFFEF7FF!         BL        Crc32                 ; [DPU_V7M3_PIPE] |1693|  ; [KEEP 32-BIT INS]
    2536                            ; CALL OCCURS {Crc32 }           ; [] |1693| 
    2537 000003a8 9001              STR       A1, [SP, #4]          ; [DPU_V7M3_PIPE] |1693|  ; [ORIG 16-BIT INS]
    2538                            .dwpsn  file "../driverlib/emac.c",line 1694,column 5,is_stmt,isa 1
    2539                    ;----------------------------------------------------------------------
    2540                    ; 1694 | ui32CRC ^= 0xFFFFFFFF;                                                 
    2541                    ; 1696 | //                                                                     
    2542                    ; 1697 | // Determine the hash bit to use from the calculated CRC.  This is the 
    2543                    ; 1698 | // top 6 bits of the reversed CRC (or the bottom 6 bits of the calculat
    2544                    ;     | ed                                                                     
    2545                    ; 1699 | // CRC with the bit order of those 6 bits reversed).                   
    2546                    ; 1700 | //                                                                     
    2547                    ;----------------------------------------------------------------------
    2548 000003aa 9801              LDR       A1, [SP, #4]          ; [DPU_V7M3_PIPE] |1694|  ; [ORIG 16-BIT INS]
    2549 000003ac 30FFF080          EOR       A1, A1, #-1           ; [DPU_V7M3_PIPE] |1694|  ; [KEEP 32-BIT INS]
    2550 000003b0 9001              STR       A1, [SP, #4]          ; [DPU_V7M3_PIPE] |1694|  ; [ORIG 16-BIT INS]
    2551                            .dwpsn  file "../driverlib/emac.c",line 1701,column 5,is_stmt,isa 1
    2552                    ;----------------------------------------------------------------------
    2553                    ; 1701 | ui32Mask = 0;                                                          
    2554                    ; 1703 | //                                                                     
    2555                    ; 1704 | // Reverse the order of the bottom 6 bits of the calculated CRC.       
    2556                    ; 1705 | //                                                                     
    2557                    ;----------------------------------------------------------------------
    2558 000003b2 2000              MOVS      A1, #0                ; [DPU_V7M3_PIPE] |1701|  ; [ORIG 16-BIT INS]
    2559 000003b4 9002              STR       A1, [SP, #8]          ; [DPU_V7M3_PIPE] |1701|  ; [ORIG 16-BIT INS]
    2560                            .dwpsn  file "../driverlib/emac.c",line 1706,column 9,is_stmt,isa 1
    2561                    ;----------------------------------------------------------------------
    2562                    ; 1706 | for(ui32Loop = 0; ui32Loop < 6; ui32Loop++)                            
    2563                    ;----------------------------------------------------------------------
    2564 000003b6 2000              MOVS      A1, #0                ; [DPU_V7M3_PIPE] |1706|  ; [ORIG 16-BIT INS]
    2565 000003b8 9003              STR       A1, [SP, #12]         ; [DPU_V7M3_PIPE] |1706|  ; [ORIG 16-BIT INS]
    2566                            .dwpsn  file "../driverlib/emac.c",line 1706,column 23,is_stmt,isa 1
    2567 000003ba 9803              LDR       A1, [SP, #12]         ; [DPU_V7M3_PIPE] |1706|  ; [ORIG 16-BIT INS]
    2568 000003bc 2806              CMP       A1, #6                ; [DPU_V7M3_PIPE] |1706|  ; [ORIG 16-BIT INS]
    2569 000003be D211              BCS       ||$C$L20||            ; [DPU_V7M3_PIPE] |1706|  ; [ORIG 16-BIT INS]
    2570                            ; BRANCHCC OCCURS {||$C$L20||}   ; [] |1706| 
    2571                    ;* --------------------------------------------------------------------------*
    2572                    ;*   BEGIN LOOP ||$C$L19||
    2573                    ;*
    2574                    ;*   Loop source line                : 1706
    2575                    ;*   Loop closing brace source line  : 1711
    2576                    ;*   Known Minimum Trip Count        : 1
    2577                    ;*   Known Maximum Trip Count        : 4294967295
    2578                    ;*   Known Max Trip Count Factor     : 1
    2579                    ;* --------------------------------------------------------------------------*
    2580 000003c0           ||$C$L19||:    
    2581                            .dwpsn  file "../driverlib/emac.c",line 1708,column 9,is_stmt,isa 1
    2582                    ;----------------------------------------------------------------------
TI ARM Assembler Unix v18.1.1 Fri Jul  3 20:08:24 2020

Tools Copyright (c) 1996-2017 Texas Instruments Incorporated
emac.asm                                                             PAGE   48

    2583                    ; 1708 | ui32Mask <<= 1;                                                        
    2584                    ;----------------------------------------------------------------------
    2585 000003c0 9802              LDR       A1, [SP, #8]          ; [DPU_V7M3_PIPE] |1708|  ; [ORIG 16-BIT INS]
    2586 000003c2 0040              LSLS      A1, A1, #1            ; [DPU_V7M3_PIPE] |1708|  ; [ORIG 16-BIT INS]
    2587 000003c4 9002              STR       A1, [SP, #8]          ; [DPU_V7M3_PIPE] |1708|  ; [ORIG 16-BIT INS]
    2588                            .dwpsn  file "../driverlib/emac.c",line 1709,column 9,is_stmt,isa 1
    2589                    ;----------------------------------------------------------------------
    2590                    ; 1709 | ui32Mask |= (ui32CRC & 1);                                             
    2591                    ;----------------------------------------------------------------------
    2592 000003c6 9801              LDR       A1, [SP, #4]          ; [DPU_V7M3_PIPE] |1709|  ; [ORIG 16-BIT INS]
    2593 000003c8 9902              LDR       A2, [SP, #8]          ; [DPU_V7M3_PIPE] |1709|  ; [ORIG 16-BIT INS]
    2594 000003ca 0001F000          AND       A1, A1, #1            ; [DPU_V7M3_PIPE] |1709|  ; [KEEP 32-BIT INS]
    2595 000003ce 4308              ORRS      A1, A1, A2            ; [DPU_V7M3_PIPE] |1709|  ; [ORIG 16-BIT INS]
    2596 000003d0 9002              STR       A1, [SP, #8]          ; [DPU_V7M3_PIPE] |1709|  ; [ORIG 16-BIT INS]
    2597                            .dwpsn  file "../driverlib/emac.c",line 1710,column 9,is_stmt,isa 1
    2598                    ;----------------------------------------------------------------------
    2599                    ; 1710 | ui32CRC >>= 1;                                                         
    2600                    ; 1713 | //                                                                     
    2601                    ; 1714 | // Return the final hash table bit index.                              
    2602                    ; 1715 | //                                                                     
    2603                    ;----------------------------------------------------------------------
    2604 000003d2 9801              LDR       A1, [SP, #4]          ; [DPU_V7M3_PIPE] |1710|  ; [ORIG 16-BIT INS]
    2605 000003d4 0840              LSRS      A1, A1, #1            ; [DPU_V7M3_PIPE] |1710|  ; [ORIG 16-BIT INS]
    2606 000003d6 9001              STR       A1, [SP, #4]          ; [DPU_V7M3_PIPE] |1710|  ; [ORIG 16-BIT INS]
    2607                            .dwpsn  file "../driverlib/emac.c",line 1706,column 37,is_stmt,isa 1
    2608 000003d8 9803              LDR       A1, [SP, #12]         ; [DPU_V7M3_PIPE] |1706|  ; [ORIG 16-BIT INS]
    2609 000003da 1C40              ADDS      A1, A1, #1            ; [DPU_V7M3_PIPE] |1706|  ; [ORIG 16-BIT INS]
    2610 000003dc 9003              STR       A1, [SP, #12]         ; [DPU_V7M3_PIPE] |1706|  ; [ORIG 16-BIT INS]
    2611                            .dwpsn  file "../driverlib/emac.c",line 1706,column 23,is_stmt,isa 1
    2612 000003de 9803              LDR       A1, [SP, #12]         ; [DPU_V7M3_PIPE] |1706|  ; [ORIG 16-BIT INS]
    2613 000003e0 2806              CMP       A1, #6                ; [DPU_V7M3_PIPE] |1706|  ; [ORIG 16-BIT INS]
    2614 000003e2 D3ED              BCC       ||$C$L19||            ; [DPU_V7M3_PIPE] |1706|  ; [ORIG 16-BIT INS]
    2615                            ; BRANCHCC OCCURS {||$C$L19||}   ; [] |1706| 
    2616                    ;* --------------------------------------------------------------------------*
    2617 000003e4           ||$C$L20||:    
    2618                            .dwpsn  file "../driverlib/emac.c",line 1716,column 5,is_stmt,isa 1
    2619                    ;----------------------------------------------------------------------
    2620                    ; 1716 | return(ui32Mask);                                                      
    2621                    ;----------------------------------------------------------------------
    2622 000003e4 9802              LDR       A1, [SP, #8]          ; [DPU_V7M3_PIPE] |1716|  ; [ORIG 16-BIT INS]
    2623                            .dwpsn  file "../driverlib/emac.c",line 1717,column 1,is_stmt,isa 1
    2624 000003e6 B005              ADD       SP, SP, #20           ; [DPU_V7M3_PIPE]  ; [ORIG 16-BIT INS]
    2625                            .dwcfi  cfa_offset, 4
    2626                    $C$DW$140       .dwtag  DW_TAG_TI_branch
    2627                            .dwattr $C$DW$140, DW_AT_low_pc(0x00)
    2628                            .dwattr $C$DW$140, DW_AT_TI_return
    2629                    
    2630 000003e8 BD00              POP       {PC}                  ; [DPU_V7M3_PIPE]  ; [ORIG 16-BIT INS]
    2631                            .dwcfi  cfa_offset, 0
    2632                            ; BRANCH OCCURS                  ; [] 
    2633                            .dwattr $C$DW$133, DW_AT_TI_end_file("../driverlib/emac.c")
    2634                            .dwattr $C$DW$133, DW_AT_TI_end_line(0x6b5)
    2635                            .dwattr $C$DW$133, DW_AT_TI_end_column(0x01)
    2636                            .dwendentry
    2637                            .dwendtag $C$DW$133
TI ARM Assembler Unix v18.1.1 Fri Jul  3 20:08:24 2020

Tools Copyright (c) 1996-2017 Texas Instruments Incorporated
emac.asm                                                             PAGE   49

    2638                    
    2639                    ;******************************************************************************
    2640                    ;* CONSTANT TABLE                                                             *
    2641                    ;******************************************************************************
    2642 000003ea                   .sect   ".text"
    2643                            .align  4
    2644 000003ea CFC846C0  ||$C$CON6||:    .bits   1074712520,32
         000003ee 0000400E 
    2645 000003f0                   .sect   ".text"
    2646                            .clink
    2647                            .thumbfunc EMACRxWatchdogTimerSet
    2648 000003f0                   .thumb
    2649                            .global EMACRxWatchdogTimerSet
    2650                    
    2651                    $C$DW$141       .dwtag  DW_TAG_subprogram
    2652                            .dwattr $C$DW$141, DW_AT_name("EMACRxWatchdogTimerSet")
    2653                            .dwattr $C$DW$141, DW_AT_low_pc(EMACRxWatchdogTimerSet)
    2654                            .dwattr $C$DW$141, DW_AT_high_pc(0x00)
    2655                            .dwattr $C$DW$141, DW_AT_TI_symbol_name("EMACRxWatchdogTimerSet")
    2656                            .dwattr $C$DW$141, DW_AT_external
    2657                            .dwattr $C$DW$141, DW_AT_TI_begin_file("../driverlib/emac.c")
    2658                            .dwattr $C$DW$141, DW_AT_TI_begin_line(0x6ce)
    2659                            .dwattr $C$DW$141, DW_AT_TI_begin_column(0x01)
    2660                            .dwattr $C$DW$141, DW_AT_decl_file("../driverlib/emac.c")
    2661                            .dwattr $C$DW$141, DW_AT_decl_line(0x6ce)
    2662                            .dwattr $C$DW$141, DW_AT_decl_column(0x01)
    2663                            .dwattr $C$DW$141, DW_AT_TI_max_frame_size(0x08)
    2664                            .dwpsn  file "../driverlib/emac.c",line 1743,column 1,is_stmt,address EMACRxWatchdogTimerSet,i
    2665                    
    2666                            .dwfde $C$DW$CIE, EMACRxWatchdogTimerSet
    2667                    $C$DW$142       .dwtag  DW_TAG_formal_parameter
    2668                            .dwattr $C$DW$142, DW_AT_name("ui32Base")
    2669                            .dwattr $C$DW$142, DW_AT_TI_symbol_name("ui32Base")
    2670                            .dwattr $C$DW$142, DW_AT_type(*$C$DW$T$22)
    2671                            .dwattr $C$DW$142, DW_AT_location[DW_OP_reg0]
    2672                    
    2673                    $C$DW$143       .dwtag  DW_TAG_formal_parameter
    2674                            .dwattr $C$DW$143, DW_AT_name("ui8Timeout")
    2675                            .dwattr $C$DW$143, DW_AT_TI_symbol_name("ui8Timeout")
    2676                            .dwattr $C$DW$143, DW_AT_type(*$C$DW$T$25)
    2677                            .dwattr $C$DW$143, DW_AT_location[DW_OP_reg1]
    2678                    
    2679                    ;----------------------------------------------------------------------
    2680                    ; 1742 | EMACRxWatchdogTimerSet(uint32_t ui32Base, uint8_t ui8Timeout)          
    2681                    ;----------------------------------------------------------------------
    2682                    
    2683                    ;*****************************************************************************
    2684                    ;* FUNCTION NAME: EMACRxWatchdogTimerSet                                     *
    2685                    ;*                                                                           *
    2686                    ;*   Regs Modified     : A1,A2,SP                                            *
    2687                    ;*   Regs Used         : A1,A2,SP,LR                                         *
    2688                    ;*   Local Frame Size  : 0 Args + 8 Auto + 0 Save = 8 byte                   *
    2689                    ;*****************************************************************************
    2690 000003f0           EMACRxWatchdogTimerSet:
    2691                    ;* --------------------------------------------------------------------------*
TI ARM Assembler Unix v18.1.1 Fri Jul  3 20:08:24 2020

Tools Copyright (c) 1996-2017 Texas Instruments Incorporated
emac.asm                                                             PAGE   50

    2692                            .dwcfi  cfa_offset, 0
    2693 000003f0 0D08F1AD          SUB       SP, SP, #8            ; [DPU_V7M3_PIPE]  ; [KEEP 32-BIT INS]
    2694                            .dwcfi  cfa_offset, 8
    2695                    $C$DW$144       .dwtag  DW_TAG_variable
    2696                            .dwattr $C$DW$144, DW_AT_name("ui32Base")
    2697                            .dwattr $C$DW$144, DW_AT_TI_symbol_name("ui32Base")
    2698                            .dwattr $C$DW$144, DW_AT_type(*$C$DW$T$22)
    2699                            .dwattr $C$DW$144, DW_AT_location[DW_OP_breg13 0]
    2700                    
    2701                    $C$DW$145       .dwtag  DW_TAG_variable
    2702                            .dwattr $C$DW$145, DW_AT_name("ui8Timeout")
    2703                            .dwattr $C$DW$145, DW_AT_TI_symbol_name("ui8Timeout")
    2704                            .dwattr $C$DW$145, DW_AT_type(*$C$DW$T$25)
    2705                            .dwattr $C$DW$145, DW_AT_location[DW_OP_breg13 4]
    2706                    
    2707                    ;----------------------------------------------------------------------
    2708                    ; 1744 | //                                                                     
    2709                    ; 1745 | // Set the receive interrupt watchdog timeout period.                  
    2710                    ; 1746 | //                                                                     
    2711                    ;----------------------------------------------------------------------
    2712 000003f4 1004F88D          STRB      A2, [SP, #4]          ; [DPU_V7M3_PIPE] |1743|  ; [KEEP 32-BIT INS]
    2713 000003f8 9000              STR       A1, [SP, #0]          ; [DPU_V7M3_PIPE] |1743|  ; [ORIG 16-BIT INS]
    2714                            .dwpsn  file "../driverlib/emac.c",line 1747,column 5,is_stmt,isa 1
    2715                    ;----------------------------------------------------------------------
    2716                    ; 1747 | HWREG(ui32Base + EMAC_O_RXINTWDT) = (uint32_t)ui8Timeout;              
    2717                    ;----------------------------------------------------------------------
    2718 000003fa 0004F89D          LDRB      A1, [SP, #4]          ; [DPU_V7M3_PIPE] |1747|  ; [KEEP 32-BIT INS]
    2719 000003fe 9900              LDR       A2, [SP, #0]          ; [DPU_V7M3_PIPE] |1747|  ; [ORIG 16-BIT INS]
    2720 00000400 0C24F8C1          STR       A1, [A2, #3108]       ; [DPU_V7M3_PIPE] |1747|  ; [KEEP 32-BIT INS]
    2721                            .dwpsn  file "../driverlib/emac.c",line 1748,column 1,is_stmt,isa 1
    2722 00000404 B002              ADD       SP, SP, #8            ; [DPU_V7M3_PIPE]  ; [ORIG 16-BIT INS]
    2723                            .dwcfi  cfa_offset, 0
    2724                    $C$DW$146       .dwtag  DW_TAG_TI_branch
    2725                            .dwattr $C$DW$146, DW_AT_low_pc(0x00)
    2726                            .dwattr $C$DW$146, DW_AT_TI_return
    2727                    
    2728 00000406 4770              BX        LR                    ; [DPU_V7M3_PIPE]  ; [ORIG 16-BIT INS]
    2729                            ; BRANCH OCCURS                  ; [] 
    2730                            .dwattr $C$DW$141, DW_AT_TI_end_file("../driverlib/emac.c")
    2731                            .dwattr $C$DW$141, DW_AT_TI_end_line(0x6d4)
    2732                            .dwattr $C$DW$141, DW_AT_TI_end_column(0x01)
    2733                            .dwendentry
    2734                            .dwendtag $C$DW$141
    2735                    
    2736                    ;******************************************************************************
    2737                    ;* CONSTANT TABLE                                                             *
    2738                    ;******************************************************************************
    2739 00000408                   .sect   ".text"
    2740                            .align  4
    2741 00000408 400EC000  ||$C$CON7||:    .bits   1074708480,32
    2742 0000040c                   .sect   ".text"
    2743                            .clink
    2744                            .thumbfunc EMACStatusGet
    2745 0000040c                   .thumb
    2746                            .global EMACStatusGet
TI ARM Assembler Unix v18.1.1 Fri Jul  3 20:08:24 2020

Tools Copyright (c) 1996-2017 Texas Instruments Incorporated
emac.asm                                                             PAGE   51

    2747                    
    2748                    $C$DW$147       .dwtag  DW_TAG_subprogram
    2749                            .dwattr $C$DW$147, DW_AT_name("EMACStatusGet")
    2750                            .dwattr $C$DW$147, DW_AT_low_pc(EMACStatusGet)
    2751                            .dwattr $C$DW$147, DW_AT_high_pc(0x00)
    2752                            .dwattr $C$DW$147, DW_AT_TI_symbol_name("EMACStatusGet")
