TI ARM Assembler Unix v18.1.1 Fri Jul  3 20:08:24 2020

Tools Copyright (c) 1996-2017 Texas Instruments Incorporated
flash.asm                                                            PAGE    1

       1                    ;******************************************************************************
       2                    ;* TI ARM C/C++ Codegen                                      Unix v18.1.1.LTS *
       3                    ;* Date/Time created: Fri Jul  3 20:08:24 2020                                *
       4                    ;******************************************************************************
       5                            .compiler_opts --abi=eabi --arm_vmrs_si_workaround=off --code_state=16 --diag_wrap=off --embed
       6 00000000                   .thumb
       7                    
       8                    $C$DW$CU        .dwtag  DW_TAG_compile_unit
       9                            .dwattr $C$DW$CU, DW_AT_name("../driverlib/flash.c")
      10                            .dwattr $C$DW$CU, DW_AT_producer("TI TI ARM C/C++ Codegen Unix v18.1.1.LTS Copyright (c) 1996-
      11                            .dwattr $C$DW$CU, DW_AT_TI_version(0x01)
      12                            .dwattr $C$DW$CU, DW_AT_comp_dir("/home/pola/workspace_v8/Microwave/Debug")
      13 00000000                   .sect   ".const:g_pui32FMPPERegs"
      14                            .clink
      15                            .align  4
      16                            .elfsym g_pui32FMPPERegs,SYM_SIZE(64)
      17 00000000           g_pui32FMPPERegs:
      18 00000000 400FE400          .bits   1074783232,32                   ; g_pui32FMPPERegs[0] @ 0
      19 00000004 400FE404          .bits   1074783236,32                   ; g_pui32FMPPERegs[1] @ 32
      20 00000008 400FE408          .bits   1074783240,32                   ; g_pui32FMPPERegs[2] @ 64
      21 0000000c 400FE40C          .bits   1074783244,32                   ; g_pui32FMPPERegs[3] @ 96
      22 00000010 400FE410          .bits   1074783248,32                   ; g_pui32FMPPERegs[4] @ 128
      23 00000014 400FE414          .bits   1074783252,32                   ; g_pui32FMPPERegs[5] @ 160
      24 00000018 400FE418          .bits   1074783256,32                   ; g_pui32FMPPERegs[6] @ 192
      25 0000001c 400FE41C          .bits   1074783260,32                   ; g_pui32FMPPERegs[7] @ 224
      26 00000020 400FE420          .bits   1074783264,32                   ; g_pui32FMPPERegs[8] @ 256
      27 00000024 400FE424          .bits   1074783268,32                   ; g_pui32FMPPERegs[9] @ 288
      28 00000028 400FE428          .bits   1074783272,32                   ; g_pui32FMPPERegs[10] @ 320
      29 0000002c 400FE42C          .bits   1074783276,32                   ; g_pui32FMPPERegs[11] @ 352
      30 00000030 400FE430          .bits   1074783280,32                   ; g_pui32FMPPERegs[12] @ 384
      31 00000034 400FE434          .bits   1074783284,32                   ; g_pui32FMPPERegs[13] @ 416
      32 00000038 400FE438          .bits   1074783288,32                   ; g_pui32FMPPERegs[14] @ 448
      33 0000003c 400FE43C          .bits   1074783292,32                   ; g_pui32FMPPERegs[15] @ 480
      34                    
      35                    $C$DW$1 .dwtag  DW_TAG_variable
      36                            .dwattr $C$DW$1, DW_AT_name("g_pui32FMPPERegs")
      37                            .dwattr $C$DW$1, DW_AT_TI_symbol_name("g_pui32FMPPERegs")
      38                            .dwattr $C$DW$1, DW_AT_type(*$C$DW$T$124)
      39                            .dwattr $C$DW$1, DW_AT_location[DW_OP_addr g_pui32FMPPERegs]
      40                            .dwattr $C$DW$1, DW_AT_decl_file("../driverlib/flash.c")
      41                            .dwattr $C$DW$1, DW_AT_decl_line(0x3f)
      42                            .dwattr $C$DW$1, DW_AT_decl_column(0x17)
      43                    
      44 00000000                   .sect   ".const:g_pui32FMPRERegs"
      45                            .clink
      46                            .align  4
      47                            .elfsym g_pui32FMPRERegs,SYM_SIZE(64)
      48 00000000           g_pui32FMPRERegs:
      49 00000000 400FE200          .bits   1074782720,32                   ; g_pui32FMPRERegs[0] @ 0
      50 00000004 400FE204          .bits   1074782724,32                   ; g_pui32FMPRERegs[1] @ 32
      51 00000008 400FE208          .bits   1074782728,32                   ; g_pui32FMPRERegs[2] @ 64
      52 0000000c 400FE20C          .bits   1074782732,32                   ; g_pui32FMPRERegs[3] @ 96
      53 00000010 400FE210          .bits   1074782736,32                   ; g_pui32FMPRERegs[4] @ 128
      54 00000014 400FE214          .bits   1074782740,32                   ; g_pui32FMPRERegs[5] @ 160
      55 00000018 400FE218          .bits   1074782744,32                   ; g_pui32FMPRERegs[6] @ 192
TI ARM Assembler Unix v18.1.1 Fri Jul  3 20:08:24 2020

Tools Copyright (c) 1996-2017 Texas Instruments Incorporated
flash.asm                                                            PAGE    2

      56 0000001c 400FE21C          .bits   1074782748,32                   ; g_pui32FMPRERegs[7] @ 224
      57 00000020 400FE220          .bits   1074782752,32                   ; g_pui32FMPRERegs[8] @ 256
      58 00000024 400FE224          .bits   1074782756,32                   ; g_pui32FMPRERegs[9] @ 288
      59 00000028 400FE228          .bits   1074782760,32                   ; g_pui32FMPRERegs[10] @ 320
      60 0000002c 400FE22C          .bits   1074782764,32                   ; g_pui32FMPRERegs[11] @ 352
      61 00000030 400FE230          .bits   1074782768,32                   ; g_pui32FMPRERegs[12] @ 384
      62 00000034 400FE234          .bits   1074782772,32                   ; g_pui32FMPRERegs[13] @ 416
      63 00000038 400FE238          .bits   1074782776,32                   ; g_pui32FMPRERegs[14] @ 448
      64 0000003c 400FE23C          .bits   1074782780,32                   ; g_pui32FMPRERegs[15] @ 480
      65                    
      66                    $C$DW$2 .dwtag  DW_TAG_variable
      67                            .dwattr $C$DW$2, DW_AT_name("g_pui32FMPRERegs")
      68                            .dwattr $C$DW$2, DW_AT_TI_symbol_name("g_pui32FMPRERegs")
      69                            .dwattr $C$DW$2, DW_AT_type(*$C$DW$T$124)
      70                            .dwattr $C$DW$2, DW_AT_location[DW_OP_addr g_pui32FMPRERegs]
      71                            .dwattr $C$DW$2, DW_AT_decl_file("../driverlib/flash.c")
      72                            .dwattr $C$DW$2, DW_AT_decl_line(0x59)
      73                            .dwattr $C$DW$2, DW_AT_decl_column(0x17)
      74                    
      75                    
      76                    $C$DW$3 .dwtag  DW_TAG_subprogram
      77                            .dwattr $C$DW$3, DW_AT_name("IntRegister")
      78                            .dwattr $C$DW$3, DW_AT_TI_symbol_name("IntRegister")
      79                            .dwattr $C$DW$3, DW_AT_declaration
      80                            .dwattr $C$DW$3, DW_AT_external
      81                            .dwattr $C$DW$3, DW_AT_decl_file("/home/pola/workspace_v8/Microwave/driverlib/interrupt.h")
      82                            .dwattr $C$DW$3, DW_AT_decl_line(0x45)
      83                            .dwattr $C$DW$3, DW_AT_decl_column(0x0d)
      84                    $C$DW$4 .dwtag  DW_TAG_formal_parameter
      85                            .dwattr $C$DW$4, DW_AT_type(*$C$DW$T$26)
      86                    
      87                    $C$DW$5 .dwtag  DW_TAG_formal_parameter
      88                            .dwattr $C$DW$5, DW_AT_type(*$C$DW$T$30)
      89                    
      90                            .dwendtag $C$DW$3
      91                    
      92                    
      93                    $C$DW$6 .dwtag  DW_TAG_subprogram
      94                            .dwattr $C$DW$6, DW_AT_name("IntEnable")
      95                            .dwattr $C$DW$6, DW_AT_TI_symbol_name("IntEnable")
      96                            .dwattr $C$DW$6, DW_AT_declaration
      97                            .dwattr $C$DW$6, DW_AT_external
      98                            .dwattr $C$DW$6, DW_AT_decl_file("/home/pola/workspace_v8/Microwave/driverlib/interrupt.h")
      99                            .dwattr $C$DW$6, DW_AT_decl_line(0x4c)
     100                            .dwattr $C$DW$6, DW_AT_decl_column(0x0d)
     101                    $C$DW$7 .dwtag  DW_TAG_formal_parameter
     102                            .dwattr $C$DW$7, DW_AT_type(*$C$DW$T$26)
     103                    
     104                            .dwendtag $C$DW$6
     105                    
     106                    
     107                    $C$DW$8 .dwtag  DW_TAG_subprogram
     108                            .dwattr $C$DW$8, DW_AT_name("IntDisable")
     109                            .dwattr $C$DW$8, DW_AT_TI_symbol_name("IntDisable")
     110                            .dwattr $C$DW$8, DW_AT_declaration
TI ARM Assembler Unix v18.1.1 Fri Jul  3 20:08:24 2020

Tools Copyright (c) 1996-2017 Texas Instruments Incorporated
flash.asm                                                            PAGE    3

     111                            .dwattr $C$DW$8, DW_AT_external
     112                            .dwattr $C$DW$8, DW_AT_decl_file("/home/pola/workspace_v8/Microwave/driverlib/interrupt.h")
     113                            .dwattr $C$DW$8, DW_AT_decl_line(0x4d)
     114                            .dwattr $C$DW$8, DW_AT_decl_column(0x0d)
     115                    $C$DW$9 .dwtag  DW_TAG_formal_parameter
     116                            .dwattr $C$DW$9, DW_AT_type(*$C$DW$T$26)
     117                    
     118                            .dwendtag $C$DW$8
     119                    
     120                    
     121                    $C$DW$10        .dwtag  DW_TAG_subprogram
     122                            .dwattr $C$DW$10, DW_AT_name("IntUnregister")
     123                            .dwattr $C$DW$10, DW_AT_TI_symbol_name("IntUnregister")
     124                            .dwattr $C$DW$10, DW_AT_declaration
     125                            .dwattr $C$DW$10, DW_AT_external
     126                            .dwattr $C$DW$10, DW_AT_decl_file("/home/pola/workspace_v8/Microwave/driverlib/interrupt.h")
     127                            .dwattr $C$DW$10, DW_AT_decl_line(0x46)
     128                            .dwattr $C$DW$10, DW_AT_decl_column(0x0d)
     129                    $C$DW$11        .dwtag  DW_TAG_formal_parameter
     130                            .dwattr $C$DW$11, DW_AT_type(*$C$DW$T$26)
     131                    
     132                            .dwendtag $C$DW$10
     133                    
     134                    ;       /home/pola/ti/ccsv8/tools/compiler/ti-cgt-arm_18.1.1.LTS/bin/armacpia -@/tmp/TI3PqQ1frN0 
     135 00000000                   .sect   ".text"
     136                            .clink
     137                            .thumbfunc FlashErase
     138 00000000                   .thumb
     139                            .global FlashErase
     140                    
     141                    $C$DW$12        .dwtag  DW_TAG_subprogram
     142                            .dwattr $C$DW$12, DW_AT_name("FlashErase")
     143                            .dwattr $C$DW$12, DW_AT_low_pc(FlashErase)
     144                            .dwattr $C$DW$12, DW_AT_high_pc(0x00)
     145                            .dwattr $C$DW$12, DW_AT_TI_symbol_name("FlashErase")
     146                            .dwattr $C$DW$12, DW_AT_external
     147                            .dwattr $C$DW$12, DW_AT_type(*$C$DW$T$86)
     148                            .dwattr $C$DW$12, DW_AT_TI_begin_file("../driverlib/flash.c")
     149                            .dwattr $C$DW$12, DW_AT_TI_begin_line(0x82)
     150                            .dwattr $C$DW$12, DW_AT_TI_begin_column(0x01)
     151                            .dwattr $C$DW$12, DW_AT_decl_file("../driverlib/flash.c")
     152                            .dwattr $C$DW$12, DW_AT_decl_line(0x82)
     153                            .dwattr $C$DW$12, DW_AT_decl_column(0x01)
     154                            .dwattr $C$DW$12, DW_AT_TI_max_frame_size(0x08)
     155                            .dwpsn  file "../driverlib/flash.c",line 131,column 1,is_stmt,address FlashErase,isa 1
     156                    
     157                            .dwfde $C$DW$CIE, FlashErase
     158                    $C$DW$13        .dwtag  DW_TAG_formal_parameter
     159                            .dwattr $C$DW$13, DW_AT_name("ui32Address")
     160                            .dwattr $C$DW$13, DW_AT_TI_symbol_name("ui32Address")
     161                            .dwattr $C$DW$13, DW_AT_type(*$C$DW$T$26)
     162                            .dwattr $C$DW$13, DW_AT_location[DW_OP_reg0]
     163                    
     164                    ;----------------------------------------------------------------------
     165                    ; 130 | FlashErase(uint32_t ui32Address)                                       
TI ARM Assembler Unix v18.1.1 Fri Jul  3 20:08:24 2020

Tools Copyright (c) 1996-2017 Texas Instruments Incorporated
flash.asm                                                            PAGE    4

     166                    ;----------------------------------------------------------------------
     167                    
     168                    ;*****************************************************************************
     169                    ;* FUNCTION NAME: FlashErase                                                 *
     170                    ;*                                                                           *
     171                    ;*   Regs Modified     : A1,A2,SP,SR                                         *
     172                    ;*   Regs Used         : A1,A2,SP,LR,SR                                      *
     173                    ;*   Local Frame Size  : 0 Args + 4 Auto + 0 Save = 4 byte                   *
     174                    ;*****************************************************************************
     175 00000000           FlashErase:
     176                    ;* --------------------------------------------------------------------------*
     177                            .dwcfi  cfa_offset, 0
     178 00000000 0D08F1AD          SUB       SP, SP, #8            ; [DPU_V7M3_PIPE]  ; [KEEP 32-BIT INS]
     179                            .dwcfi  cfa_offset, 8
     180                    $C$DW$14        .dwtag  DW_TAG_variable
     181                            .dwattr $C$DW$14, DW_AT_name("ui32Address")
     182                            .dwattr $C$DW$14, DW_AT_TI_symbol_name("ui32Address")
     183                            .dwattr $C$DW$14, DW_AT_type(*$C$DW$T$26)
     184                            .dwattr $C$DW$14, DW_AT_location[DW_OP_breg13 0]
     185                    
     186                    ;----------------------------------------------------------------------
     187                    ; 132 | //                                                                     
     188                    ; 133 | // Check the arguments.                                                
     189                    ; 134 | //                                                                     
     190                    ; 135 | ASSERT(!(ui32Address & (FLASH_ERASE_SIZE - 1)));                       
     191                    ; 137 | //                                                                     
     192                    ; 138 | // Clear the flash access and error interrupts.                        
     193                    ; 139 | //                                                                     
     194                    ;----------------------------------------------------------------------
     195 00000004 9000              STR       A1, [SP, #0]          ; [DPU_V7M3_PIPE] |131|  ; [ORIG 16-BIT INS]
     196                            .dwpsn  file "../driverlib/flash.c",line 140,column 5,is_stmt,isa 1
     197                    ;----------------------------------------------------------------------
     198                    ; 140 | HWREG(FLASH_FCMISC) = (FLASH_FCMISC_AMISC | FLASH_FCMISC_VOLTMISC |    
     199                    ; 141 |                        FLASH_FCMISC_ERMISC);                           
     200                    ; 143 | //                                                                     
     201                    ; 144 | // Erase the block.                                                    
     202                    ; 145 | //                                                                     
     203                    ;----------------------------------------------------------------------
     204 00000006 49AC              LDR       A2, $C$CON1           ; [DPU_V7M3_PIPE] |140|  ; [ORIG 16-BIT INS]
     205 00000008 2001F640          MOV       A1, #2561             ; [DPU_V7M3_PIPE] |140|  ; [KEEP 32-BIT INS]
     206 0000000c 6008              STR       A1, [A2, #0]          ; [DPU_V7M3_PIPE] |140|  ; [ORIG 16-BIT INS]
     207                            .dwpsn  file "../driverlib/flash.c",line 146,column 5,is_stmt,isa 1
     208                    ;----------------------------------------------------------------------
     209                    ; 146 | HWREG(FLASH_FMA) = ui32Address;                                        
     210                    ;----------------------------------------------------------------------
     211 0000000e 49AB              LDR       A2, $C$CON2           ; [DPU_V7M3_PIPE] |146|  ; [ORIG 16-BIT INS]
     212 00000010 9800              LDR       A1, [SP, #0]          ; [DPU_V7M3_PIPE] |146|  ; [ORIG 16-BIT INS]
     213 00000012 6008              STR       A1, [A2, #0]          ; [DPU_V7M3_PIPE] |146|  ; [ORIG 16-BIT INS]
     214                            .dwpsn  file "../driverlib/flash.c",line 147,column 5,is_stmt,isa 1
     215                    ;----------------------------------------------------------------------
     216                    ; 147 | HWREG(FLASH_FMC) = FLASH_FMC_WRKEY | FLASH_FMC_ERASE;                  
     217                    ; 149 | //                                                                     
     218                    ; 150 | // Wait until the block has been erased.                               
     219                    ; 151 | //                                                                     
     220                    ;----------------------------------------------------------------------
TI ARM Assembler Unix v18.1.1 Fri Jul  3 20:08:24 2020

Tools Copyright (c) 1996-2017 Texas Instruments Incorporated
flash.asm                                                            PAGE    5

     221 00000014 48AA              LDR       A1, $C$CON4           ; [DPU_V7M3_PIPE] |147|  ; [ORIG 16-BIT INS]
     222 00000016 49B2              LDR       A2, $C$CON3           ; [DPU_V7M3_PIPE] |147|  ; [ORIG 16-BIT INS]
     223 00000018 6008              STR       A1, [A2, #0]          ; [DPU_V7M3_PIPE] |147|  ; [ORIG 16-BIT INS]
     224                            .dwpsn  file "../driverlib/flash.c",line 152,column 5,is_stmt,isa 1
     225                    ;----------------------------------------------------------------------
     226                    ; 152 | while(HWREG(FLASH_FMC) & FLASH_FMC_ERASE)                              
     227                    ; 156 | //                                                                     
     228                    ; 157 | // Return an error if an access violation or erase error occurred.     
     229                    ; 158 | //                                                                     
     230                    ;----------------------------------------------------------------------
     231                    ;* --------------------------------------------------------------------------*
     232                    ;*   BEGIN LOOP ||$C$L1||
     233                    ;*
     234                    ;*   Loop source line                : 152
     235                    ;*   Loop closing brace source line  : 154
     236                    ;*   Known Minimum Trip Count        : 1
     237                    ;*   Known Maximum Trip Count        : 4294967295
     238                    ;*   Known Max Trip Count Factor     : 1
     239                    ;* --------------------------------------------------------------------------*
     240 0000001a           ||$C$L1||:    
     241 0000001a 48B1              LDR       A1, $C$CON3           ; [DPU_V7M3_PIPE] |152|  ; [ORIG 16-BIT INS]
     242 0000001c 6800              LDR       A1, [A1, #0]          ; [DPU_V7M3_PIPE] |152|  ; [ORIG 16-BIT INS]
     243 0000001e 0880              LSRS      A1, A1, #2            ; [DPU_V7M3_PIPE] |152|  ; [ORIG 16-BIT INS]
     244 00000020 D2FB              BCS       ||$C$L1||             ; [DPU_V7M3_PIPE] |152|  ; [ORIG 16-BIT INS]
     245                            ; BRANCHCC OCCURS {||$C$L1||}    ; [] |152| 
     246                    ;* --------------------------------------------------------------------------*
     247                            .dwpsn  file "../driverlib/flash.c",line 159,column 5,is_stmt,isa 1
     248                    ;----------------------------------------------------------------------
     249                    ; 159 | if(HWREG(FLASH_FCRIS) & (FLASH_FCRIS_ARIS | FLASH_FCRIS_VOLTRIS |      
     250                    ; 160 |                          FLASH_FCRIS_ERRIS))                           
     251                    ;----------------------------------------------------------------------
     252 00000022 48A8              LDR       A1, $C$CON5           ; [DPU_V7M3_PIPE] |159|  ; [ORIG 16-BIT INS]
     253 00000024 6800              LDR       A1, [A1, #0]          ; [DPU_V7M3_PIPE] |159|  ; [ORIG 16-BIT INS]
     254 00000026 2101F640          MOV       A2, #2561             ; [DPU_V7M3_PIPE] |159|  ; [KEEP 32-BIT INS]
     255 0000002a 4201              TST       A2, A1                ; [DPU_V7M3_PIPE] |159|  ; [ORIG 16-BIT INS]
     256 0000002c D002              BEQ       ||$C$L2||             ; [DPU_V7M3_PIPE] |159|  ; [ORIG 16-BIT INS]
     257                            ; BRANCHCC OCCURS {||$C$L2||}    ; [] |159| 
     258                    ;* --------------------------------------------------------------------------*
     259                            .dwpsn  file "../driverlib/flash.c",line 162,column 9,is_stmt,isa 1
     260                    ;----------------------------------------------------------------------
     261                    ; 162 | return(-1);                                                            
     262                    ; 165 | //                                                                     
     263                    ; 166 | // Success.                                                            
     264                    ; 167 | //                                                                     
     265                    ;----------------------------------------------------------------------
     266 0000002e 30FFF04F          MOV       A1, #-1               ; [DPU_V7M3_PIPE] |162|  ; [KEEP 32-BIT INS]
     267 00000032 E000              B         ||$C$L3||             ; [DPU_V7M3_PIPE] |162|  ; [ORIG 16-BIT INS]
     268                            ; BRANCH OCCURS {||$C$L3||}      ; [] |162| 
     269                    ;* --------------------------------------------------------------------------*
     270 00000034           ||$C$L2||:    
     271                            .dwpsn  file "../driverlib/flash.c",line 168,column 5,is_stmt,isa 1
     272                    ;----------------------------------------------------------------------
     273                    ; 168 | return(0);                                                             
     274                    ;----------------------------------------------------------------------
     275 00000034 2000              MOVS      A1, #0                ; [DPU_V7M3_PIPE] |168|  ; [ORIG 16-BIT INS]
TI ARM Assembler Unix v18.1.1 Fri Jul  3 20:08:24 2020

Tools Copyright (c) 1996-2017 Texas Instruments Incorporated
flash.asm                                                            PAGE    6

     276                    ;* --------------------------------------------------------------------------*
     277 00000036           ||$C$L3||:    
     278                            .dwpsn  file "../driverlib/flash.c",line 169,column 1,is_stmt,isa 1
     279 00000036 B002              ADD       SP, SP, #8            ; [DPU_V7M3_PIPE]  ; [ORIG 16-BIT INS]
     280                            .dwcfi  cfa_offset, 0
     281                    $C$DW$15        .dwtag  DW_TAG_TI_branch
     282                            .dwattr $C$DW$15, DW_AT_low_pc(0x00)
     283                            .dwattr $C$DW$15, DW_AT_TI_return
     284                    
     285 00000038 4770              BX        LR                    ; [DPU_V7M3_PIPE]  ; [ORIG 16-BIT INS]
     286                            ; BRANCH OCCURS                  ; [] 
     287                            .dwattr $C$DW$12, DW_AT_TI_end_file("../driverlib/flash.c")
     288                            .dwattr $C$DW$12, DW_AT_TI_end_line(0xa9)
     289                            .dwattr $C$DW$12, DW_AT_TI_end_column(0x01)
     290                            .dwendentry
     291                            .dwendtag $C$DW$12
     292                    
     293 0000003a                   .sect   ".text"
     294                            .clink
     295                            .thumbfunc FlashProgram
     296 0000003a                   .thumb
     297                            .global FlashProgram
     298                    
     299                    $C$DW$16        .dwtag  DW_TAG_subprogram
     300                            .dwattr $C$DW$16, DW_AT_name("FlashProgram")
     301                            .dwattr $C$DW$16, DW_AT_low_pc(FlashProgram)
     302                            .dwattr $C$DW$16, DW_AT_high_pc(0x00)
     303                            .dwattr $C$DW$16, DW_AT_TI_symbol_name("FlashProgram")
     304                            .dwattr $C$DW$16, DW_AT_external
     305                            .dwattr $C$DW$16, DW_AT_type(*$C$DW$T$86)
     306                            .dwattr $C$DW$16, DW_AT_TI_begin_file("../driverlib/flash.c")
     307                            .dwattr $C$DW$16, DW_AT_TI_begin_line(0xc0)
     308                            .dwattr $C$DW$16, DW_AT_TI_begin_column(0x01)
     309                            .dwattr $C$DW$16, DW_AT_decl_file("../driverlib/flash.c")
     310                            .dwattr $C$DW$16, DW_AT_decl_line(0xc0)
     311                            .dwattr $C$DW$16, DW_AT_decl_column(0x01)
     312                            .dwattr $C$DW$16, DW_AT_TI_max_frame_size(0x10)
     313                            .dwpsn  file "../driverlib/flash.c",line 193,column 1,is_stmt,address FlashProgram,isa 1
     314                    
     315                            .dwfde $C$DW$CIE, FlashProgram
     316                    $C$DW$17        .dwtag  DW_TAG_formal_parameter
     317                            .dwattr $C$DW$17, DW_AT_name("pui32Data")
     318                            .dwattr $C$DW$17, DW_AT_TI_symbol_name("pui32Data")
     319                            .dwattr $C$DW$17, DW_AT_type(*$C$DW$T$88)
     320                            .dwattr $C$DW$17, DW_AT_location[DW_OP_reg0]
     321                    
     322                    $C$DW$18        .dwtag  DW_TAG_formal_parameter
     323                            .dwattr $C$DW$18, DW_AT_name("ui32Address")
     324                            .dwattr $C$DW$18, DW_AT_TI_symbol_name("ui32Address")
     325                            .dwattr $C$DW$18, DW_AT_type(*$C$DW$T$26)
     326                            .dwattr $C$DW$18, DW_AT_location[DW_OP_reg1]
     327                    
     328                    $C$DW$19        .dwtag  DW_TAG_formal_parameter
     329                            .dwattr $C$DW$19, DW_AT_name("ui32Count")
     330                            .dwattr $C$DW$19, DW_AT_TI_symbol_name("ui32Count")
TI ARM Assembler Unix v18.1.1 Fri Jul  3 20:08:24 2020

Tools Copyright (c) 1996-2017 Texas Instruments Incorporated
flash.asm                                                            PAGE    7

     331                            .dwattr $C$DW$19, DW_AT_type(*$C$DW$T$26)
     332                            .dwattr $C$DW$19, DW_AT_location[DW_OP_reg2]
     333                    
     334                    ;----------------------------------------------------------------------
     335                    ; 192 | FlashProgram(uint32_t *pui32Data, uint32_t ui32Address, uint32_t ui32Co
     336                    ;     | unt)                                                                   
     337                    ;----------------------------------------------------------------------
     338                    
     339                    ;*****************************************************************************
     340                    ;* FUNCTION NAME: FlashProgram                                               *
     341                    ;*                                                                           *
     342                    ;*   Regs Modified     : A1,A2,A3,A4,SP,SR                                   *
     343                    ;*   Regs Used         : A1,A2,A3,A4,SP,LR,SR                                *
     344                    ;*   Local Frame Size  : 0 Args + 12 Auto + 0 Save = 12 byte                 *
     345                    ;*****************************************************************************
     346 0000003a           FlashProgram:
     347                    ;* --------------------------------------------------------------------------*
     348                            .dwcfi  cfa_offset, 0
     349 0000003a 0D10F1AD          SUB       SP, SP, #16           ; [DPU_V7M3_PIPE]  ; [KEEP 32-BIT INS]
     350                            .dwcfi  cfa_offset, 16
     351                    $C$DW$20        .dwtag  DW_TAG_variable
     352                            .dwattr $C$DW$20, DW_AT_name("pui32Data")
     353                            .dwattr $C$DW$20, DW_AT_TI_symbol_name("pui32Data")
     354                            .dwattr $C$DW$20, DW_AT_type(*$C$DW$T$88)
     355                            .dwattr $C$DW$20, DW_AT_location[DW_OP_breg13 0]
     356                    
     357                    $C$DW$21        .dwtag  DW_TAG_variable
     358                            .dwattr $C$DW$21, DW_AT_name("ui32Address")
     359                            .dwattr $C$DW$21, DW_AT_TI_symbol_name("ui32Address")
     360                            .dwattr $C$DW$21, DW_AT_type(*$C$DW$T$26)
     361                            .dwattr $C$DW$21, DW_AT_location[DW_OP_breg13 4]
     362                    
     363                    $C$DW$22        .dwtag  DW_TAG_variable
     364                            .dwattr $C$DW$22, DW_AT_name("ui32Count")
     365                            .dwattr $C$DW$22, DW_AT_TI_symbol_name("ui32Count")
     366                            .dwattr $C$DW$22, DW_AT_type(*$C$DW$T$26)
     367                            .dwattr $C$DW$22, DW_AT_location[DW_OP_breg13 8]
     368                    
     369                    ;----------------------------------------------------------------------
     370                    ; 194 | //                                                                     
     371                    ; 195 | // Check the arguments.                                                
     372                    ; 196 | //                                                                     
     373                    ; 197 | ASSERT(!(ui32Address & 3));                                            
     374                    ; 198 | ASSERT(!(ui32Count & 3));                                              
     375                    ; 200 | //                                                                     
     376                    ; 201 | // Clear the flash access and error interrupts.                        
     377                    ; 202 | //                                                                     
     378                    ;----------------------------------------------------------------------
     379 0000003e 9202              STR       A3, [SP, #8]          ; [DPU_V7M3_PIPE] |193|  ; [ORIG 16-BIT INS]
     380 00000040 9101              STR       A2, [SP, #4]          ; [DPU_V7M3_PIPE] |193|  ; [ORIG 16-BIT INS]
     381 00000042 9000              STR       A1, [SP, #0]          ; [DPU_V7M3_PIPE] |193|  ; [ORIG 16-BIT INS]
     382                            .dwpsn  file "../driverlib/flash.c",line 203,column 5,is_stmt,isa 1
     383                    ;----------------------------------------------------------------------
     384                    ; 203 | HWREG(FLASH_FCMISC) = (FLASH_FCMISC_AMISC | FLASH_FCMISC_VOLTMISC |    
     385                    ; 204 |                        FLASH_FCMISC_INVDMISC | FLASH_FCMISC_PROGMISC); 
TI ARM Assembler Unix v18.1.1 Fri Jul  3 20:08:24 2020

Tools Copyright (c) 1996-2017 Texas Instruments Incorporated
flash.asm                                                            PAGE    8

     386                    ; 206 | //                                                                     
     387                    ; 207 | // Loop over the words to be programmed.                               
     388                    ; 208 | //                                                                     
     389                    ;----------------------------------------------------------------------
     390 00000044 499C              LDR       A2, $C$CON1           ; [DPU_V7M3_PIPE] |203|  ; [ORIG 16-BIT INS]
     391 00000046 6001F242          MOV       A1, #9729             ; [DPU_V7M3_PIPE] |203|  ; [KEEP 32-BIT INS]
     392 0000004a 6008              STR       A1, [A2, #0]          ; [DPU_V7M3_PIPE] |203|  ; [ORIG 16-BIT INS]
     393                            .dwpsn  file "../driverlib/flash.c",line 209,column 5,is_stmt,isa 1
     394                    ;----------------------------------------------------------------------
     395                    ; 209 | while(ui32Count)                                                       
     396                    ; 211 |     //                                                                 
     397                    ; 212 |     // Set the address of this block of words.                         
     398                    ; 213 |     //                                                                 
     399                    ;----------------------------------------------------------------------
     400 0000004c 9802              LDR       A1, [SP, #8]          ; [DPU_V7M3_PIPE] |209|  ; [ORIG 16-BIT INS]
     401 0000004e 2800              CMP       A1, #0                ; [DPU_V7M3_PIPE] |209|  ; [ORIG 16-BIT INS]
     402 00000050 D028              BEQ       ||$C$L10||            ; [DPU_V7M3_PIPE] |209|  ; [ORIG 16-BIT INS]
     403                            ; BRANCHCC OCCURS {||$C$L10||}   ; [] |209| 
     404                    ;* --------------------------------------------------------------------------*
     405                    ;*   BEGIN LOOP ||$C$L4||
     406                    ;*
     407                    ;*   Loop source line                : 209
     408                    ;*   Loop closing brace source line  : 241
     409                    ;*   Known Minimum Trip Count        : 1
     410                    ;*   Known Maximum Trip Count        : 4294967295
     411                    ;*   Known Max Trip Count Factor     : 1
     412                    ;* --------------------------------------------------------------------------*
     413 00000052           ||$C$L4||:    
     414                            .dwpsn  file "../driverlib/flash.c",line 214,column 9,is_stmt,isa 1
     415                    ;----------------------------------------------------------------------
     416                    ; 214 | HWREG(FLASH_FMA) = ui32Address & ~(0x7f);                              
     417                    ; 216 | //                                                                     
     418                    ; 217 | // Loop over the words in this 32-word block.                          
     419                    ; 218 | //                                                                     
     420                    ;----------------------------------------------------------------------
     421 00000052 9801              LDR       A1, [SP, #4]          ; [DPU_V7M3_PIPE] |214|  ; [ORIG 16-BIT INS]
     422 00000054 4999              LDR       A2, $C$CON2           ; [DPU_V7M3_PIPE] |214|  ; [ORIG 16-BIT INS]
     423 00000056 007FF020          BIC       A1, A1, #127          ; [DPU_V7M3_PIPE] |214|  ; [KEEP 32-BIT INS]
     424 0000005a 6008              STR       A1, [A2, #0]          ; [DPU_V7M3_PIPE] |214|  ; [ORIG 16-BIT INS]
     425                            .dwpsn  file "../driverlib/flash.c",line 219,column 9,is_stmt,isa 1
     426                    ;----------------------------------------------------------------------
     427                    ; 219 | while(((ui32Address & 0x7c) || (HWREG(FLASH_FWBVAL) == 0)) &&          
     428                    ; 220 |       (ui32Count != 0))                                                
     429                    ; 222 |     //                                                                 
     430                    ; 223 |     // Write this word into the write buffer.                          
     431                    ; 224 |     //                                                                 
     432                    ;----------------------------------------------------------------------
     433 0000005c E00E              B         ||$C$L6||             ; [DPU_V7M3_PIPE] |219|  ; [ORIG 16-BIT INS]
     434                            ; BRANCH OCCURS {||$C$L6||}      ; [] |219| 
     435                    ;* --------------------------------------------------------------------------*
     436 0000005e           ||$C$L5||:    
     437                            .dwpsn  file "../driverlib/flash.c",line 225,column 13,is_stmt,isa 1
     438                    ;----------------------------------------------------------------------
     439                    ; 225 | HWREG(FLASH_FWBN + (ui32Address & 0x7c)) = *pui32Data++;               
     440                    ;----------------------------------------------------------------------
TI ARM Assembler Unix v18.1.1 Fri Jul  3 20:08:24 2020

Tools Copyright (c) 1996-2017 Texas Instruments Incorporated
flash.asm                                                            PAGE    9

     441 0000005e 9B00              LDR       A4, [SP, #0]          ; [DPU_V7M3_PIPE] |225|  ; [ORIG 16-BIT INS]
     442 00000060 9801              LDR       A1, [SP, #4]          ; [DPU_V7M3_PIPE] |225|  ; [ORIG 16-BIT INS]
     443 00000062 4AA6              LDR       A3, $C$CON6           ; [DPU_V7M3_PIPE] |225|  ; [ORIG 16-BIT INS]
     444 00000064 1B04F853          LDR       A2, [A4], #4          ; [DPU_V7M3_PIPE] |225|  ; [KEEP 32-BIT INS]
     445 00000068 9300              STR       A4, [SP, #0]          ; [DPU_V7M3_PIPE] |225|  ; [ORIG 16-BIT INS]
     446 0000006a 007CF000          AND       A1, A1, #124          ; [DPU_V7M3_PIPE] |225|  ; [KEEP 32-BIT INS]
     447 0000006e 5011              STR       A2, [A3, +A1]         ; [DPU_V7M3_PIPE] |225|  ; [ORIG 16-BIT INS]
     448                            .dwpsn  file "../driverlib/flash.c",line 226,column 13,is_stmt,isa 1
     449                    ;----------------------------------------------------------------------
     450                    ; 226 | ui32Address += 4;                                                      
     451                    ;----------------------------------------------------------------------
     452 00000070 9801              LDR       A1, [SP, #4]          ; [DPU_V7M3_PIPE] |226|  ; [ORIG 16-BIT INS]
     453 00000072 1D00              ADDS      A1, A1, #4            ; [DPU_V7M3_PIPE] |226|  ; [ORIG 16-BIT INS]
     454 00000074 9001              STR       A1, [SP, #4]          ; [DPU_V7M3_PIPE] |226|  ; [ORIG 16-BIT INS]
     455                            .dwpsn  file "../driverlib/flash.c",line 227,column 13,is_stmt,isa 1
     456                    ;----------------------------------------------------------------------
     457                    ; 227 | ui32Count -= 4;                                                        
     458                    ; 230 | //                                                                     
     459                    ; 231 | // Program the contents of the write buffer into flash.                
     460                    ; 232 | //                                                                     
     461                    ;----------------------------------------------------------------------
     462 00000076 9802              LDR       A1, [SP, #8]          ; [DPU_V7M3_PIPE] |227|  ; [ORIG 16-BIT INS]
     463 00000078 1F00              SUBS      A1, A1, #4            ; [DPU_V7M3_PIPE] |227|  ; [ORIG 16-BIT INS]
     464 0000007a 9002              STR       A1, [SP, #8]          ; [DPU_V7M3_PIPE] |227|  ; [ORIG 16-BIT INS]
     465                    ;* --------------------------------------------------------------------------*
     466                    ;*   BEGIN LOOP ||$C$L6||
     467                    ;* --------------------------------------------------------------------------*
     468 0000007c           ||$C$L6||:    
     469                            .dwpsn  file "../driverlib/flash.c",line 219,column 15,is_stmt,isa 1
     470 0000007c 9801              LDR       A1, [SP, #4]          ; [DPU_V7M3_PIPE] |219|  ; [ORIG 16-BIT INS]
     471 0000007e 0F7CF010          TST       A1, #124              ; [DPU_V7M3_PIPE] |219|  ; [KEEP 32-BIT INS]
     472 00000082 D102              BNE       ||$C$L7||             ; [DPU_V7M3_PIPE] |219|  ; [ORIG 16-BIT INS]
     473                            ; BRANCHCC OCCURS {||$C$L7||}    ; [] |219| 
     474                    ;* --------------------------------------------------------------------------*
     475 00000084 48B1              LDR       A1, $C$CON7           ; [DPU_V7M3_PIPE] |219|  ; [ORIG 16-BIT INS]
     476 00000086 6800              LDR       A1, [A1, #0]          ; [DPU_V7M3_PIPE] |219|  ; [ORIG 16-BIT INS]
     477 00000088 B910              CBNZ      A1, ||$C$L8||         ; []  ; [ORIG 16-BIT INS]
     478                            ; BRANCHCC OCCURS {||$C$L8||}    ; [] |219| 
     479                    ;* --------------------------------------------------------------------------*
     480 0000008a           ||$C$L7||:    
     481 0000008a 9802              LDR       A1, [SP, #8]          ; [DPU_V7M3_PIPE] |219|  ; [ORIG 16-BIT INS]
     482 0000008c 2800              CMP       A1, #0                ; [DPU_V7M3_PIPE] |219|  ; [ORIG 16-BIT INS]
     483 0000008e D1E6              BNE       ||$C$L5||             ; [DPU_V7M3_PIPE] |219|  ; [ORIG 16-BIT INS]
     484                            ; BRANCHCC OCCURS {||$C$L5||}    ; [] |219| 
     485                    ;* --------------------------------------------------------------------------*
     486 00000090           ||$C$L8||:    
     487                            .dwpsn  file "../driverlib/flash.c",line 233,column 9,is_stmt,isa 1
     488                    ;----------------------------------------------------------------------
     489                    ; 233 | HWREG(FLASH_FMC2) = FLASH_FMC2_WRKEY | FLASH_FMC2_WRBUF;               
     490                    ; 235 | //                                                                     
     491                    ; 236 | // Wait until the write buffer has been programmed.                    
     492                    ; 237 | //                                                                     
     493                    ;----------------------------------------------------------------------
     494 00000090 48B4              LDR       A1, $C$CON9           ; [DPU_V7M3_PIPE] |233|  ; [ORIG 16-BIT INS]
     495 00000092 49B3              LDR       A2, $C$CON8           ; [DPU_V7M3_PIPE] |233|  ; [ORIG 16-BIT INS]
TI ARM Assembler Unix v18.1.1 Fri Jul  3 20:08:24 2020

Tools Copyright (c) 1996-2017 Texas Instruments Incorporated
flash.asm                                                            PAGE   10

     496 00000094 6008              STR       A1, [A2, #0]          ; [DPU_V7M3_PIPE] |233|  ; [ORIG 16-BIT INS]
     497                            .dwpsn  file "../driverlib/flash.c",line 238,column 9,is_stmt,isa 1
     498                    ;----------------------------------------------------------------------
     499                    ; 238 | while(HWREG(FLASH_FMC2) & FLASH_FMC2_WRBUF)                            
     500                    ; 243 | //                                                                     
     501                    ; 244 | // Return an error if an access violation occurred.                    
     502                    ; 245 | //                                                                     
     503                    ;----------------------------------------------------------------------
     504                    ;* --------------------------------------------------------------------------*
     505                    ;*   BEGIN LOOP ||$C$L9||
     506                    ;*
     507                    ;*   Loop source line                : 238
     508                    ;*   Loop closing brace source line  : 240
     509                    ;*   Known Minimum Trip Count        : 1
     510                    ;*   Known Maximum Trip Count        : 4294967295
     511                    ;*   Known Max Trip Count Factor     : 1
     512                    ;* --------------------------------------------------------------------------*
     513 00000096           ||$C$L9||:    
     514 00000096 48B2              LDR       A1, $C$CON8           ; [DPU_V7M3_PIPE] |238|  ; [ORIG 16-BIT INS]
     515 00000098 6800              LDR       A1, [A1, #0]          ; [DPU_V7M3_PIPE] |238|  ; [ORIG 16-BIT INS]
     516 0000009a 0840              LSRS      A1, A1, #1            ; [DPU_V7M3_PIPE] |238|  ; [ORIG 16-BIT INS]
     517 0000009c D2FB              BCS       ||$C$L9||             ; [DPU_V7M3_PIPE] |238|  ; [ORIG 16-BIT INS]
     518                            ; BRANCHCC OCCURS {||$C$L9||}    ; [] |238| 
     519                    ;* --------------------------------------------------------------------------*
     520                            .dwpsn  file "../driverlib/flash.c",line 209,column 5,is_stmt,isa 1
     521 0000009e 9802              LDR       A1, [SP, #8]          ; [DPU_V7M3_PIPE] |209|  ; [ORIG 16-BIT INS]
     522 000000a0 2800              CMP       A1, #0                ; [DPU_V7M3_PIPE] |209|  ; [ORIG 16-BIT INS]
     523 000000a2 D1D6              BNE       ||$C$L4||             ; [DPU_V7M3_PIPE] |209|  ; [ORIG 16-BIT INS]
     524                            ; BRANCHCC OCCURS {||$C$L4||}    ; [] |209| 
     525                    ;* --------------------------------------------------------------------------*
     526 000000a4           ||$C$L10||:    
     527                            .dwpsn  file "../driverlib/flash.c",line 246,column 5,is_stmt,isa 1
     528                    ;----------------------------------------------------------------------
     529                    ; 246 | if(HWREG(FLASH_FCRIS) & (FLASH_FCRIS_ARIS | FLASH_FCRIS_VOLTRIS |      
     530                    ; 247 |                          FLASH_FCRIS_INVDRIS | FLASH_FCRIS_PROGRIS))   
     531                    ;----------------------------------------------------------------------
     532 000000a4 4887              LDR       A1, $C$CON5           ; [DPU_V7M3_PIPE] |246|  ; [ORIG 16-BIT INS]
     533 000000a6 6800              LDR       A1, [A1, #0]          ; [DPU_V7M3_PIPE] |246|  ; [ORIG 16-BIT INS]
     534 000000a8 6101F242          MOV       A2, #9729             ; [DPU_V7M3_PIPE] |246|  ; [KEEP 32-BIT INS]
     535 000000ac 4201              TST       A2, A1                ; [DPU_V7M3_PIPE] |246|  ; [ORIG 16-BIT INS]
     536 000000ae D002              BEQ       ||$C$L11||            ; [DPU_V7M3_PIPE] |246|  ; [ORIG 16-BIT INS]
     537                            ; BRANCHCC OCCURS {||$C$L11||}   ; [] |246| 
     538                    ;* --------------------------------------------------------------------------*
     539                            .dwpsn  file "../driverlib/flash.c",line 249,column 9,is_stmt,isa 1
     540                    ;----------------------------------------------------------------------
     541                    ; 249 | return(-1);                                                            
     542                    ; 252 | //                                                                     
     543                    ; 253 | // Success.                                                            
     544                    ; 254 | //                                                                     
     545                    ;----------------------------------------------------------------------
     546 000000b0 30FFF04F          MOV       A1, #-1               ; [DPU_V7M3_PIPE] |249|  ; [KEEP 32-BIT INS]
     547 000000b4 E000              B         ||$C$L12||            ; [DPU_V7M3_PIPE] |249|  ; [ORIG 16-BIT INS]
     548                            ; BRANCH OCCURS {||$C$L12||}     ; [] |249| 
     549                    ;* --------------------------------------------------------------------------*
     550 000000b6           ||$C$L11||:    
TI ARM Assembler Unix v18.1.1 Fri Jul  3 20:08:24 2020

Tools Copyright (c) 1996-2017 Texas Instruments Incorporated
flash.asm                                                            PAGE   11

     551                            .dwpsn  file "../driverlib/flash.c",line 255,column 5,is_stmt,isa 1
     552                    ;----------------------------------------------------------------------
     553                    ; 255 | return(0);                                                             
     554                    ;----------------------------------------------------------------------
     555 000000b6 2000              MOVS      A1, #0                ; [DPU_V7M3_PIPE] |255|  ; [ORIG 16-BIT INS]
     556                    ;* --------------------------------------------------------------------------*
     557 000000b8           ||$C$L12||:    
     558                            .dwpsn  file "../driverlib/flash.c",line 256,column 1,is_stmt,isa 1
     559 000000b8 B004              ADD       SP, SP, #16           ; [DPU_V7M3_PIPE]  ; [ORIG 16-BIT INS]
     560                            .dwcfi  cfa_offset, 0
     561                    $C$DW$23        .dwtag  DW_TAG_TI_branch
     562                            .dwattr $C$DW$23, DW_AT_low_pc(0x00)
     563                            .dwattr $C$DW$23, DW_AT_TI_return
     564                    
     565 000000ba 4770              BX        LR                    ; [DPU_V7M3_PIPE]  ; [ORIG 16-BIT INS]
     566                            ; BRANCH OCCURS                  ; [] 
     567                            .dwattr $C$DW$16, DW_AT_TI_end_file("../driverlib/flash.c")
     568                            .dwattr $C$DW$16, DW_AT_TI_end_line(0x100)
     569                            .dwattr $C$DW$16, DW_AT_TI_end_column(0x01)
     570                            .dwendentry
     571                            .dwendtag $C$DW$16
     572                    
     573 000000bc                   .sect   ".text"
     574                            .clink
     575                            .thumbfunc FlashProtectGet
     576 000000bc                   .thumb
     577                            .global FlashProtectGet
     578                    
     579                    $C$DW$24        .dwtag  DW_TAG_subprogram
     580                            .dwattr $C$DW$24, DW_AT_name("FlashProtectGet")
     581                            .dwattr $C$DW$24, DW_AT_low_pc(FlashProtectGet)
     582                            .dwattr $C$DW$24, DW_AT_high_pc(0x00)
     583                            .dwattr $C$DW$24, DW_AT_TI_symbol_name("FlashProtectGet")
     584                            .dwattr $C$DW$24, DW_AT_external
     585                            .dwattr $C$DW$24, DW_AT_type(*$C$DW$T$24)
     586                            .dwattr $C$DW$24, DW_AT_TI_begin_file("../driverlib/flash.c")
     587                            .dwattr $C$DW$24, DW_AT_TI_begin_line(0x114)
     588                            .dwattr $C$DW$24, DW_AT_TI_begin_column(0x01)
     589                            .dwattr $C$DW$24, DW_AT_decl_file("../driverlib/flash.c")
     590                            .dwattr $C$DW$24, DW_AT_decl_line(0x114)
     591                            .dwattr $C$DW$24, DW_AT_decl_column(0x01)
     592                            .dwattr $C$DW$24, DW_AT_TI_max_frame_size(0x10)
     593                            .dwpsn  file "../driverlib/flash.c",line 277,column 1,is_stmt,address FlashProtectGet,isa 1
     594                    
     595                            .dwfde $C$DW$CIE, FlashProtectGet
     596                    $C$DW$25        .dwtag  DW_TAG_formal_parameter
     597                            .dwattr $C$DW$25, DW_AT_name("ui32Address")
     598                            .dwattr $C$DW$25, DW_AT_TI_symbol_name("ui32Address")
     599                            .dwattr $C$DW$25, DW_AT_type(*$C$DW$T$26)
     600                            .dwattr $C$DW$25, DW_AT_location[DW_OP_reg0]
     601                    
     602                    ;----------------------------------------------------------------------
     603                    ; 276 | FlashProtectGet(uint32_t ui32Address)                                  
     604                    ;----------------------------------------------------------------------
     605                    
TI ARM Assembler Unix v18.1.1 Fri Jul  3 20:08:24 2020

Tools Copyright (c) 1996-2017 Texas Instruments Incorporated
flash.asm                                                            PAGE   12

     606                    ;*****************************************************************************
     607                    ;* FUNCTION NAME: FlashProtectGet                                            *
     608                    ;*                                                                           *
     609                    ;*   Regs Modified     : A1,A2,A3,A4,SP,SR                                   *
     610                    ;*   Regs Used         : A1,A2,A3,A4,SP,LR,SR                                *
     611                    ;*   Local Frame Size  : 0 Args + 16 Auto + 0 Save = 16 byte                 *
     612                    ;*****************************************************************************
     613 000000bc           FlashProtectGet:
     614                    ;* --------------------------------------------------------------------------*
     615                            .dwcfi  cfa_offset, 0
     616 000000bc 0D10F1AD          SUB       SP, SP, #16           ; [DPU_V7M3_PIPE]  ; [KEEP 32-BIT INS]
     617                            .dwcfi  cfa_offset, 16
     618                    $C$DW$26        .dwtag  DW_TAG_variable
     619                            .dwattr $C$DW$26, DW_AT_name("ui32Address")
     620                            .dwattr $C$DW$26, DW_AT_TI_symbol_name("ui32Address")
     621                            .dwattr $C$DW$26, DW_AT_type(*$C$DW$T$26)
     622                            .dwattr $C$DW$26, DW_AT_location[DW_OP_breg13 0]
     623                    
     624                    $C$DW$27        .dwtag  DW_TAG_variable
     625                            .dwattr $C$DW$27, DW_AT_name("ui32FMPRE")
     626                            .dwattr $C$DW$27, DW_AT_TI_symbol_name("ui32FMPRE")
     627                            .dwattr $C$DW$27, DW_AT_type(*$C$DW$T$26)
     628                            .dwattr $C$DW$27, DW_AT_location[DW_OP_breg13 4]
     629                    
     630                    $C$DW$28        .dwtag  DW_TAG_variable
     631                            .dwattr $C$DW$28, DW_AT_name("ui32FMPPE")
     632                            .dwattr $C$DW$28, DW_AT_TI_symbol_name("ui32FMPPE")
     633                            .dwattr $C$DW$28, DW_AT_type(*$C$DW$T$26)
     634                            .dwattr $C$DW$28, DW_AT_location[DW_OP_breg13 8]
     635                    
     636                    $C$DW$29        .dwtag  DW_TAG_variable
     637                            .dwattr $C$DW$29, DW_AT_name("ui32Bank")
     638                            .dwattr $C$DW$29, DW_AT_TI_symbol_name("ui32Bank")
     639                            .dwattr $C$DW$29, DW_AT_type(*$C$DW$T$26)
     640                            .dwattr $C$DW$29, DW_AT_location[DW_OP_breg13 12]
     641                    
     642                    ;----------------------------------------------------------------------
     643                    ; 278 | uint32_t ui32FMPRE, ui32FMPPE;                                         
     644                    ; 279 | uint32_t ui32Bank;                                                     
     645                    ; 281 | //                                                                     
     646                    ; 282 | // Check the argument.                                                 
     647                    ; 283 | //                                                                     
     648                    ; 284 | ASSERT(!(ui32Address & (FLASH_PROTECT_SIZE - 1)));                     
     649                    ; 286 | //                                                                     
     650                    ; 287 | // Calculate the Flash Bank from Base Address, and mask off the Bank   
     651                    ; 288 | // from ui32Address for subsequent reference.                          
     652                    ; 289 | //                                                                     
     653                    ;----------------------------------------------------------------------
     654 000000c0 9000              STR       A1, [SP, #0]          ; [DPU_V7M3_PIPE] |277|  ; [ORIG 16-BIT INS]
     655                            .dwpsn  file "../driverlib/flash.c",line 290,column 5,is_stmt,isa 1
     656                    ;----------------------------------------------------------------------
     657                    ; 290 | ui32Bank = (((ui32Address / FLASH_PROTECT_SIZE) / 32) % 4);            
     658                    ;----------------------------------------------------------------------
     659 000000c2 9800              LDR       A1, [SP, #0]          ; [DPU_V7M3_PIPE] |290|  ; [ORIG 16-BIT INS]
     660 000000c4 6100F44F          MOV       A2, #2048             ; [DPU_V7M3_PIPE] |290|  ; [KEEP 32-BIT INS]
TI ARM Assembler Unix v18.1.1 Fri Jul  3 20:08:24 2020

Tools Copyright (c) 1996-2017 Texas Instruments Incorporated
flash.asm                                                            PAGE   13

     661 000000c8 F0F1FBB0          UDIV      A1, A1, A2            ; [DPU_V7M3_PIPE] |290|  ; [KEEP 32-BIT INS]
     662 000000cc 1041F3C0          UBFX      A1, A1, #5, #2        ; [DPU_V7M3_PIPE] |290|  ; [KEEP 32-BIT INS]
     663 000000d0 9003              STR       A1, [SP, #12]         ; [DPU_V7M3_PIPE] |290|  ; [ORIG 16-BIT INS]
     664                            .dwpsn  file "../driverlib/flash.c",line 291,column 5,is_stmt,isa 1
     665                    ;----------------------------------------------------------------------
     666                    ; 291 | ui32Address &= ((FLASH_PROTECT_SIZE * 32) - 1);                        
     667                    ; 293 | //                                                                     
     668                    ; 294 | // Read the appropriate flash protection registers for the specified   
     669                    ; 295 | // flash bank.                                                         
     670                    ; 296 | //                                                                     
     671                    ;----------------------------------------------------------------------
     672 000000d2 9800              LDR       A1, [SP, #0]          ; [DPU_V7M3_PIPE] |291|  ; [ORIG 16-BIT INS]
     673 000000d4 401FF36F          BFC       A1, #16, #16          ; [DPU_V7M3_PIPE] |291|  ; [KEEP 32-BIT INS]
     674 000000d8 9000              STR       A1, [SP, #0]          ; [DPU_V7M3_PIPE] |291|  ; [ORIG 16-BIT INS]
     675                            .dwpsn  file "../driverlib/flash.c",line 297,column 5,is_stmt,isa 1
     676                    ;----------------------------------------------------------------------
     677                    ; 297 | ui32FMPRE = HWREG(g_pui32FMPRERegs[ui32Bank]);                         
     678                    ;----------------------------------------------------------------------
     679 000000da 49B4              LDR       A2, $C$CON10          ; [DPU_V7M3_PIPE] |297|  ; [ORIG 16-BIT INS]
     680 000000dc 9803              LDR       A1, [SP, #12]         ; [DPU_V7M3_PIPE] |297|  ; [ORIG 16-BIT INS]
     681 000000de 0020F851          LDR       A1, [A2, +A1, LSL #2] ; [DPU_V7M3_PIPE] |297|  ; [KEEP 32-BIT INS]
     682 000000e2 6800              LDR       A1, [A1, #0]          ; [DPU_V7M3_PIPE] |297|  ; [ORIG 16-BIT INS]
     683 000000e4 9001              STR       A1, [SP, #4]          ; [DPU_V7M3_PIPE] |297|  ; [ORIG 16-BIT INS]
     684                            .dwpsn  file "../driverlib/flash.c",line 298,column 5,is_stmt,isa 1
     685                    ;----------------------------------------------------------------------
     686                    ; 298 | ui32FMPPE = HWREG(g_pui32FMPPERegs[ui32Bank]);                         
     687                    ; 300 | //                                                                     
     688                    ; 301 | // Check the appropriate protection bits for the block of memory that  
     689                    ; 302 | // is specified by the address.                                        
     690                    ; 303 | //                                                                     
     691                    ;----------------------------------------------------------------------
     692 000000e6 49B2              LDR       A2, $C$CON11          ; [DPU_V7M3_PIPE] |298|  ; [ORIG 16-BIT INS]
     693 000000e8 9803              LDR       A1, [SP, #12]         ; [DPU_V7M3_PIPE] |298|  ; [ORIG 16-BIT INS]
     694 000000ea 0020F851          LDR       A1, [A2, +A1, LSL #2] ; [DPU_V7M3_PIPE] |298|  ; [KEEP 32-BIT INS]
     695 000000ee 6800              LDR       A1, [A1, #0]          ; [DPU_V7M3_PIPE] |298|  ; [ORIG 16-BIT INS]
     696 000000f0 9002              STR       A1, [SP, #8]          ; [DPU_V7M3_PIPE] |298|  ; [ORIG 16-BIT INS]
     697                            .dwpsn  file "../driverlib/flash.c",line 304,column 5,is_stmt,isa 1
     698                    ;----------------------------------------------------------------------
     699                    ; 304 | switch((((ui32FMPRE >> (ui32Address / FLASH_PROTECT_SIZE)) & 0x1) << 1)
     700                    ;     |  |                                                                     
     701                    ; 305 |        ((ui32FMPPE >> (ui32Address / FLASH_PROTECT_SIZE)) & 0x1))      
     702                    ; 307 |     //                                                                 
     703                    ; 308 |     // This block is marked as execute only (that is, it can not be era
     704                    ;     | sed                                                                    
     705                    ; 309 |     // or programmed, and the only reads allowed are via the instructio
     706                    ;     | n                                                                      
     707                    ; 310 |     // fetch interface).                                               
     708                    ; 311 |     //                                                                 
     709                    ; 312 |     case 0:                                                            
     710                    ; 313 |     case 1:                                                            
     711                    ;----------------------------------------------------------------------
     712 000000f2 E005              B         ||$C$L16||            ; [DPU_V7M3_PIPE] |304|  ; [ORIG 16-BIT INS]
     713                            ; BRANCH OCCURS {||$C$L16||}     ; [] |304| 
     714                    ;* --------------------------------------------------------------------------*
     715 000000f4           ||$C$L13||:    
TI ARM Assembler Unix v18.1.1 Fri Jul  3 20:08:24 2020

Tools Copyright (c) 1996-2017 Texas Instruments Incorporated
flash.asm                                                            PAGE   14

     716                            .dwpsn  file "../driverlib/flash.c",line 315,column 13,is_stmt,isa 1
     717                    ;----------------------------------------------------------------------
     718                    ; 315 | return(FlashExecuteOnly);                                              
     719                    ; 318 | //                                                                     
     720                    ; 319 | // This block is marked as read only (that is, it can not be erased or 
     721                    ; 320 | // programmed).                                                        
     722                    ; 321 | //                                                                     
     723                    ; 322 | case 2:                                                                
     724                    ;----------------------------------------------------------------------
     725 000000f4 2002              MOVS      A1, #2                ; [DPU_V7M3_PIPE] |315|  ; [ORIG 16-BIT INS]
     726 000000f6 E019              B         ||$C$L17||            ; [DPU_V7M3_PIPE] |315|  ; [ORIG 16-BIT INS]
     727                            ; BRANCH OCCURS {||$C$L17||}     ; [] |315| 
     728                    ;* --------------------------------------------------------------------------*
     729 000000f8           ||$C$L14||:    
     730                            .dwpsn  file "../driverlib/flash.c",line 324,column 13,is_stmt,isa 1
     731                    ;----------------------------------------------------------------------
     732                    ; 324 | return(FlashReadOnly);                                                 
     733                    ; 327 | //                                                                     
     734                    ; 328 | // This block is read/write; it can be read, erased, and programmed.   
     735                    ; 329 | //                                                                     
     736                    ; 330 | case 3:                                                                
     737                    ; 331 | default:                                                               
     738                    ;----------------------------------------------------------------------
     739 000000f8 2001              MOVS      A1, #1                ; [DPU_V7M3_PIPE] |324|  ; [ORIG 16-BIT INS]
     740 000000fa E017              B         ||$C$L17||            ; [DPU_V7M3_PIPE] |324|  ; [ORIG 16-BIT INS]
     741                            ; BRANCH OCCURS {||$C$L17||}     ; [] |324| 
     742                    ;* --------------------------------------------------------------------------*
     743 000000fc           ||$C$L15||:    
     744                            .dwpsn  file "../driverlib/flash.c",line 333,column 13,is_stmt,isa 1
     745                    ;----------------------------------------------------------------------
     746                    ; 333 | return(FlashReadWrite);                                                
     747                    ;----------------------------------------------------------------------
     748 000000fc 2000              MOVS      A1, #0                ; [DPU_V7M3_PIPE] |333|  ; [ORIG 16-BIT INS]
     749 000000fe E015              B         ||$C$L17||            ; [DPU_V7M3_PIPE] |333|  ; [ORIG 16-BIT INS]
     750                            ; BRANCH OCCURS {||$C$L17||}     ; [] |333| 
     751                    ;* --------------------------------------------------------------------------*
     752                    ;* --------------------------------------------------------------------------*
     753 00000100           ||$C$L16||:    
     754                            .dwpsn  file "../driverlib/flash.c",line 304,column 5,is_stmt,isa 1
     755 00000100 9B00              LDR       A4, [SP, #0]          ; [DPU_V7M3_PIPE] |304|  ; [ORIG 16-BIT INS]
     756 00000102 9A00              LDR       A3, [SP, #0]          ; [DPU_V7M3_PIPE] |304|  ; [ORIG 16-BIT INS]
     757 00000104 9801              LDR       A1, [SP, #4]          ; [DPU_V7M3_PIPE] |304|  ; [ORIG 16-BIT INS]
     758 00000106 9902              LDR       A2, [SP, #8]          ; [DPU_V7M3_PIPE] |304|  ; [ORIG 16-BIT INS]
     759 00000108 0ADB              LSRS      A4, A4, #11           ; [DPU_V7M3_PIPE] |304|  ; [ORIG 16-BIT INS]
     760 0000010a 0AD2              LSRS      A3, A3, #11           ; [DPU_V7M3_PIPE] |304|  ; [ORIG 16-BIT INS]
     761 0000010c 40D8              LSRS      A1, A1, A4            ; [DPU_V7M3_PIPE] |304|  ; [ORIG 16-BIT INS]
     762 0000010e 40D1              LSRS      A2, A2, A3            ; [DPU_V7M3_PIPE] |304|  ; [ORIG 16-BIT INS]
     763 00000110 0001F000          AND       A1, A1, #1            ; [DPU_V7M3_PIPE] |304|  ; [KEEP 32-BIT INS]
     764 00000114 0101F001          AND       A2, A2, #1            ; [DPU_V7M3_PIPE] |304|  ; [KEEP 32-BIT INS]
     765 00000118 0140EA51          ORRS      A2, A2, A1, LSL #1    ; [DPU_V7M3_PIPE] |304|  ; [KEEP 32-BIT INS]
     766 0000011c D0EA              BEQ       ||$C$L13||            ; [DPU_V7M3_PIPE] |304|  ; [ORIG 16-BIT INS]
     767                            ; BRANCHCC OCCURS {||$C$L13||}   ; [] |304| 
     768                    ;* --------------------------------------------------------------------------*
     769 0000011e 1E49              SUBS      A2, A2, #1            ; [DPU_V7M3_PIPE] |304|  ; [ORIG 16-BIT INS]
     770 00000120 D0E8              BEQ       ||$C$L13||            ; [DPU_V7M3_PIPE] |304|  ; [ORIG 16-BIT INS]
TI ARM Assembler Unix v18.1.1 Fri Jul  3 20:08:24 2020

Tools Copyright (c) 1996-2017 Texas Instruments Incorporated
flash.asm                                                            PAGE   15

     771                            ; BRANCHCC OCCURS {||$C$L13||}   ; [] |304| 
     772                    ;* --------------------------------------------------------------------------*
     773 00000122 1E49              SUBS      A2, A2, #1            ; [DPU_V7M3_PIPE] |304|  ; [ORIG 16-BIT INS]
     774 00000124 D0E8              BEQ       ||$C$L14||            ; [DPU_V7M3_PIPE] |304|  ; [ORIG 16-BIT INS]
     775                            ; BRANCHCC OCCURS {||$C$L14||}   ; [] |304| 
     776                    ;* --------------------------------------------------------------------------*
     777 00000126 1E49              SUBS      A2, A2, #1            ; [DPU_V7M3_PIPE] |304|  ; [ORIG 16-BIT INS]
     778 00000128 D0E8              BEQ       ||$C$L15||            ; [DPU_V7M3_PIPE] |304|  ; [ORIG 16-BIT INS]
     779                            ; BRANCHCC OCCURS {||$C$L15||}   ; [] |304| 
     780                    ;* --------------------------------------------------------------------------*
     781 0000012a E7E7              B         ||$C$L15||            ; [DPU_V7M3_PIPE] |304|  ; [ORIG 16-BIT INS]
     782                            ; BRANCH OCCURS {||$C$L15||}     ; [] |304| 
     783                    ;* --------------------------------------------------------------------------*
     784 0000012c           ||$C$L17||:    
     785                            .dwpsn  file "../driverlib/flash.c",line 336,column 1,is_stmt,isa 1
     786 0000012c B004              ADD       SP, SP, #16           ; [DPU_V7M3_PIPE]  ; [ORIG 16-BIT INS]
     787                            .dwcfi  cfa_offset, 0
     788                    $C$DW$30        .dwtag  DW_TAG_TI_branch
     789                            .dwattr $C$DW$30, DW_AT_low_pc(0x00)
     790                            .dwattr $C$DW$30, DW_AT_TI_return
     791                    
     792 0000012e 4770              BX        LR                    ; [DPU_V7M3_PIPE]  ; [ORIG 16-BIT INS]
     793                            ; BRANCH OCCURS                  ; [] 
     794                            .dwattr $C$DW$24, DW_AT_TI_end_file("../driverlib/flash.c")
     795                            .dwattr $C$DW$24, DW_AT_TI_end_line(0x150)
     796                            .dwattr $C$DW$24, DW_AT_TI_end_column(0x01)
     797                            .dwendentry
     798                            .dwendtag $C$DW$24
     799                    
     800 00000130                   .sect   ".text"
     801                            .clink
     802                            .thumbfunc FlashProtectSet
     803 00000130                   .thumb
     804                            .global FlashProtectSet
     805                    
     806                    $C$DW$31        .dwtag  DW_TAG_subprogram
     807                            .dwattr $C$DW$31, DW_AT_name("FlashProtectSet")
     808                            .dwattr $C$DW$31, DW_AT_low_pc(FlashProtectSet)
     809                            .dwattr $C$DW$31, DW_AT_high_pc(0x00)
     810                            .dwattr $C$DW$31, DW_AT_TI_symbol_name("FlashProtectSet")
     811                            .dwattr $C$DW$31, DW_AT_external
     812                            .dwattr $C$DW$31, DW_AT_type(*$C$DW$T$86)
     813                            .dwattr $C$DW$31, DW_AT_TI_begin_file("../driverlib/flash.c")
     814                            .dwattr $C$DW$31, DW_AT_TI_begin_line(0x16d)
     815                            .dwattr $C$DW$31, DW_AT_TI_begin_column(0x01)
     816                            .dwattr $C$DW$31, DW_AT_decl_file("../driverlib/flash.c")
     817                            .dwattr $C$DW$31, DW_AT_decl_line(0x16d)
     818                            .dwattr $C$DW$31, DW_AT_decl_column(0x01)
     819                            .dwattr $C$DW$31, DW_AT_TI_max_frame_size(0x18)
     820                            .dwpsn  file "../driverlib/flash.c",line 366,column 1,is_stmt,address FlashProtectSet,isa 1
     821                    
     822                            .dwfde $C$DW$CIE, FlashProtectSet
     823                    $C$DW$32        .dwtag  DW_TAG_formal_parameter
     824                            .dwattr $C$DW$32, DW_AT_name("ui32Address")
     825                            .dwattr $C$DW$32, DW_AT_TI_symbol_name("ui32Address")
TI ARM Assembler Unix v18.1.1 Fri Jul  3 20:08:24 2020

Tools Copyright (c) 1996-2017 Texas Instruments Incorporated
flash.asm                                                            PAGE   16

     826                            .dwattr $C$DW$32, DW_AT_type(*$C$DW$T$26)
     827                            .dwattr $C$DW$32, DW_AT_location[DW_OP_reg0]
     828                    
     829                    $C$DW$33        .dwtag  DW_TAG_formal_parameter
     830                            .dwattr $C$DW$33, DW_AT_name("eProtect")
     831                            .dwattr $C$DW$33, DW_AT_TI_symbol_name("eProtect")
     832                            .dwattr $C$DW$33, DW_AT_type(*$C$DW$T$24)
     833                            .dwattr $C$DW$33, DW_AT_location[DW_OP_reg1]
     834                    
     835                    ;----------------------------------------------------------------------
     836                    ; 365 | FlashProtectSet(uint32_t ui32Address, tFlashProtection eProtect)       
     837                    ;----------------------------------------------------------------------
     838                    
     839                    ;*****************************************************************************
     840                    ;* FUNCTION NAME: FlashProtectSet                                            *
     841                    ;*                                                                           *
     842                    ;*   Regs Modified     : A1,A2,A3,SP,SR                                      *
     843                    ;*   Regs Used         : A1,A2,A3,SP,LR,SR                                   *
     844                    ;*   Local Frame Size  : 0 Args + 20 Auto + 0 Save = 20 byte                 *
     845                    ;*****************************************************************************
     846 00000130           FlashProtectSet:
     847                    ;* --------------------------------------------------------------------------*
     848                            .dwcfi  cfa_offset, 0
     849 00000130 0D18F1AD          SUB       SP, SP, #24           ; [DPU_V7M3_PIPE]  ; [KEEP 32-BIT INS]
     850                            .dwcfi  cfa_offset, 24
     851                    $C$DW$34        .dwtag  DW_TAG_variable
     852                            .dwattr $C$DW$34, DW_AT_name("ui32Address")
     853                            .dwattr $C$DW$34, DW_AT_TI_symbol_name("ui32Address")
     854                            .dwattr $C$DW$34, DW_AT_type(*$C$DW$T$26)
     855                            .dwattr $C$DW$34, DW_AT_location[DW_OP_breg13 0]
     856                    
     857                    $C$DW$35        .dwtag  DW_TAG_variable
     858                            .dwattr $C$DW$35, DW_AT_name("ui32ProtectRE")
     859                            .dwattr $C$DW$35, DW_AT_TI_symbol_name("ui32ProtectRE")
     860                            .dwattr $C$DW$35, DW_AT_type(*$C$DW$T$26)
     861                            .dwattr $C$DW$35, DW_AT_location[DW_OP_breg13 4]
     862                    
     863                    $C$DW$36        .dwtag  DW_TAG_variable
     864                            .dwattr $C$DW$36, DW_AT_name("ui32ProtectPE")
     865                            .dwattr $C$DW$36, DW_AT_TI_symbol_name("ui32ProtectPE")
     866                            .dwattr $C$DW$36, DW_AT_type(*$C$DW$T$26)
     867                            .dwattr $C$DW$36, DW_AT_location[DW_OP_breg13 8]
     868                    
     869                    $C$DW$37        .dwtag  DW_TAG_variable
     870                            .dwattr $C$DW$37, DW_AT_name("ui32Bank")
     871                            .dwattr $C$DW$37, DW_AT_TI_symbol_name("ui32Bank")
     872                            .dwattr $C$DW$37, DW_AT_type(*$C$DW$T$26)
     873                            .dwattr $C$DW$37, DW_AT_location[DW_OP_breg13 12]
     874                    
     875                    $C$DW$38        .dwtag  DW_TAG_variable
     876                            .dwattr $C$DW$38, DW_AT_name("eProtect")
     877                            .dwattr $C$DW$38, DW_AT_TI_symbol_name("eProtect")
     878                            .dwattr $C$DW$38, DW_AT_type(*$C$DW$T$24)
     879                            .dwattr $C$DW$38, DW_AT_location[DW_OP_breg13 16]
     880                    
TI ARM Assembler Unix v18.1.1 Fri Jul  3 20:08:24 2020

Tools Copyright (c) 1996-2017 Texas Instruments Incorporated
flash.asm                                                            PAGE   17

     881                    ;----------------------------------------------------------------------
     882                    ; 367 | uint32_t ui32ProtectRE, ui32ProtectPE;                                 
     883                    ; 368 | uint32_t ui32Bank;                                                     
     884                    ; 370 | //                                                                     
     885                    ; 371 | // Check the argument.                                                 
     886                    ; 372 | //                                                                     
     887                    ; 373 | ASSERT(!(ui32Address & (FLASH_PROTECT_SIZE - 1)));                     
     888                    ; 374 | ASSERT((eProtect == FlashReadWrite) || (eProtect == FlashReadOnly) ||  
     889                    ; 375 |        (eProtect == FlashExecuteOnly));                                
     890                    ; 377 | //                                                                     
     891                    ; 378 | // Convert the address into a block number.                            
     892                    ; 379 | //                                                                     
     893                    ;----------------------------------------------------------------------
     894 00000134 1010F88D          STRB      A2, [SP, #16]         ; [DPU_V7M3_PIPE] |366|  ; [KEEP 32-BIT INS]
     895 00000138 9000              STR       A1, [SP, #0]          ; [DPU_V7M3_PIPE] |366|  ; [ORIG 16-BIT INS]
     896                            .dwpsn  file "../driverlib/flash.c",line 380,column 5,is_stmt,isa 1
     897                    ;----------------------------------------------------------------------
     898                    ; 380 | ui32Address /= FLASH_PROTECT_SIZE;                                     
     899                    ; 382 | //                                                                     
     900                    ; 383 | // ui32Address contains a "raw" block number.  Derive the Flash Bank fr
     901                    ;     | om                                                                     
     902                    ; 384 | // the "raw" block number, and convert ui32Address to a "relative"     
     903                    ; 385 | // block number.                                                       
     904                    ; 386 | //                                                                     
     905                    ;----------------------------------------------------------------------
     906 0000013a 9800              LDR       A1, [SP, #0]          ; [DPU_V7M3_PIPE] |380|  ; [ORIG 16-BIT INS]
     907 0000013c 0AC0              LSRS      A1, A1, #11           ; [DPU_V7M3_PIPE] |380|  ; [ORIG 16-BIT INS]
     908 0000013e 9000              STR       A1, [SP, #0]          ; [DPU_V7M3_PIPE] |380|  ; [ORIG 16-BIT INS]
     909                            .dwpsn  file "../driverlib/flash.c",line 387,column 5,is_stmt,isa 1
     910                    ;----------------------------------------------------------------------
     911                    ; 387 | ui32Bank = ((ui32Address / 32) % 4);                                   
     912                    ;----------------------------------------------------------------------
     913 00000140 9800              LDR       A1, [SP, #0]          ; [DPU_V7M3_PIPE] |387|  ; [ORIG 16-BIT INS]
     914 00000142 1041F3C0          UBFX      A1, A1, #5, #2        ; [DPU_V7M3_PIPE] |387|  ; [KEEP 32-BIT INS]
     915 00000146 9003              STR       A1, [SP, #12]         ; [DPU_V7M3_PIPE] |387|  ; [ORIG 16-BIT INS]
     916                            .dwpsn  file "../driverlib/flash.c",line 388,column 5,is_stmt,isa 1
     917                    ;----------------------------------------------------------------------
     918                    ; 388 | ui32Address %= 32;                                                     
     919                    ; 390 | //                                                                     
     920                    ; 391 | // Get the current protection for the specified flash bank.            
     921                    ; 392 | //                                                                     
     922                    ;----------------------------------------------------------------------
     923 00000148 9800              LDR       A1, [SP, #0]          ; [DPU_V7M3_PIPE] |388|  ; [ORIG 16-BIT INS]
     924 0000014a 001FF000          AND       A1, A1, #31           ; [DPU_V7M3_PIPE] |388|  ; [KEEP 32-BIT INS]
     925 0000014e 9000              STR       A1, [SP, #0]          ; [DPU_V7M3_PIPE] |388|  ; [ORIG 16-BIT INS]
     926                            .dwpsn  file "../driverlib/flash.c",line 393,column 5,is_stmt,isa 1
     927                    ;----------------------------------------------------------------------
     928                    ; 393 | ui32ProtectRE = HWREG(g_pui32FMPRERegs[ui32Bank]);                     
     929                    ;----------------------------------------------------------------------
     930 00000150 4996              LDR       A2, $C$CON10          ; [DPU_V7M3_PIPE] |393|  ; [ORIG 16-BIT INS]
     931 00000152 9803              LDR       A1, [SP, #12]         ; [DPU_V7M3_PIPE] |393|  ; [ORIG 16-BIT INS]
     932 00000154 0020F851          LDR       A1, [A2, +A1, LSL #2] ; [DPU_V7M3_PIPE] |393|  ; [KEEP 32-BIT INS]
     933 00000158 6800              LDR       A1, [A1, #0]          ; [DPU_V7M3_PIPE] |393|  ; [ORIG 16-BIT INS]
     934 0000015a 9001              STR       A1, [SP, #4]          ; [DPU_V7M3_PIPE] |393|  ; [ORIG 16-BIT INS]
     935                            .dwpsn  file "../driverlib/flash.c",line 394,column 5,is_stmt,isa 1
TI ARM Assembler Unix v18.1.1 Fri Jul  3 20:08:24 2020

Tools Copyright (c) 1996-2017 Texas Instruments Incorporated
flash.asm                                                            PAGE   18

     936                    ;----------------------------------------------------------------------
     937                    ; 394 | ui32ProtectPE = HWREG(g_pui32FMPPERegs[ui32Bank]);                     
     938                    ; 396 | //                                                                     
     939                    ; 397 | // Set the protection based on the requested protection.               
     940                    ; 398 | //                                                                     
     941                    ;----------------------------------------------------------------------
     942 0000015c 4994              LDR       A2, $C$CON11          ; [DPU_V7M3_PIPE] |394|  ; [ORIG 16-BIT INS]
     943 0000015e 9803              LDR       A1, [SP, #12]         ; [DPU_V7M3_PIPE] |394|  ; [ORIG 16-BIT INS]
     944 00000160 0020F851          LDR       A1, [A2, +A1, LSL #2] ; [DPU_V7M3_PIPE] |394|  ; [KEEP 32-BIT INS]
     945 00000164 6800              LDR       A1, [A1, #0]          ; [DPU_V7M3_PIPE] |394|  ; [ORIG 16-BIT INS]
     946 00000166 9002              STR       A1, [SP, #8]          ; [DPU_V7M3_PIPE] |394|  ; [ORIG 16-BIT INS]
     947                            .dwpsn  file "../driverlib/flash.c",line 399,column 5,is_stmt,isa 1
     948                    ;----------------------------------------------------------------------
     949                    ; 399 | switch(eProtect)                                                       
     950                    ; 401 |     //                                                                 
     951                    ; 402 |     // Make this block execute only.                                   
     952                    ; 403 |     //                                                                 
     953                    ; 404 |     case FlashExecuteOnly:                                             
     954                    ; 406 |         //                                                             
     955                    ; 407 |         // Turn off the read and program bits for this block.          
     956                    ; 408 |         //                                                             
     957                    ;----------------------------------------------------------------------
     958 00000168 E02A              B         ||$C$L24||            ; [DPU_V7M3_PIPE] |399|  ; [ORIG 16-BIT INS]
     959                            ; BRANCH OCCURS {||$C$L24||}     ; [] |399| 
     960                    ;* --------------------------------------------------------------------------*
     961 0000016a           ||$C$L18||:    
     962                            .dwpsn  file "../driverlib/flash.c",line 409,column 13,is_stmt,isa 1
     963                    ;----------------------------------------------------------------------
     964                    ; 409 | ui32ProtectRE &= ~(0x1 << ui32Address);                                
     965                    ;----------------------------------------------------------------------
     966 0000016a 9A00              LDR       A3, [SP, #0]          ; [DPU_V7M3_PIPE] |409|  ; [ORIG 16-BIT INS]
     967 0000016c 9901              LDR       A2, [SP, #4]          ; [DPU_V7M3_PIPE] |409|  ; [ORIG 16-BIT INS]
     968 0000016e 2001              MOVS      A1, #1                ; [DPU_V7M3_PIPE] |409|  ; [ORIG 16-BIT INS]
     969 00000170 4090              LSLS      A1, A1, A3            ; [DPU_V7M3_PIPE] |409|  ; [ORIG 16-BIT INS]
     970 00000172 4381              BICS      A2, A2, A1            ; [DPU_V7M3_PIPE] |409|  ; [ORIG 16-BIT INS]
     971 00000174 9101              STR       A2, [SP, #4]          ; [DPU_V7M3_PIPE] |409|  ; [ORIG 16-BIT INS]
     972                            .dwpsn  file "../driverlib/flash.c",line 410,column 13,is_stmt,isa 1
     973                    ;----------------------------------------------------------------------
     974                    ; 410 | ui32ProtectPE &= ~(0x1 << ui32Address);                                
     975                    ; 412 | //                                                                     
     976                    ; 413 | // We're done handling this protection.                                
     977                    ; 414 | //                                                                     
     978                    ;----------------------------------------------------------------------
     979 00000176 9A00              LDR       A3, [SP, #0]          ; [DPU_V7M3_PIPE] |410|  ; [ORIG 16-BIT INS]
     980 00000178 9902              LDR       A2, [SP, #8]          ; [DPU_V7M3_PIPE] |410|  ; [ORIG 16-BIT INS]
     981 0000017a 2001              MOVS      A1, #1                ; [DPU_V7M3_PIPE] |410|  ; [ORIG 16-BIT INS]
     982 0000017c 4090              LSLS      A1, A1, A3            ; [DPU_V7M3_PIPE] |410|  ; [ORIG 16-BIT INS]
     983 0000017e 4381              BICS      A2, A2, A1            ; [DPU_V7M3_PIPE] |410|  ; [ORIG 16-BIT INS]
     984 00000180 9102              STR       A2, [SP, #8]          ; [DPU_V7M3_PIPE] |410|  ; [ORIG 16-BIT INS]
     985                            .dwpsn  file "../driverlib/flash.c",line 415,column 13,is_stmt,isa 1
     986                    ;----------------------------------------------------------------------
     987                    ; 415 | break;                                                                 
     988                    ; 418 | //                                                                     
     989                    ; 419 | // Make this block read only.                                          
     990                    ; 420 | //                                                                     
TI ARM Assembler Unix v18.1.1 Fri Jul  3 20:08:24 2020

Tools Copyright (c) 1996-2017 Texas Instruments Incorporated
flash.asm                                                            PAGE   19

     991                    ; 421 | case FlashReadOnly:                                                    
     992                    ; 423 | //                                                                     
     993                    ; 424 | // The block can not be made read only if it is execute only.          
     994                    ; 425 | //                                                                     
     995                    ;----------------------------------------------------------------------
     996 00000182 E026              B         ||$C$L25||            ; [DPU_V7M3_PIPE] |415|  ; [ORIG 16-BIT INS]
     997                            ; BRANCH OCCURS {||$C$L25||}     ; [] |415| 
     998                    ;* --------------------------------------------------------------------------*
     999 00000184           ||$C$L19||:    
    1000                            .dwpsn  file "../driverlib/flash.c",line 426,column 13,is_stmt,isa 1
    1001                    ;----------------------------------------------------------------------
    1002                    ; 426 | if(((ui32ProtectRE >> ui32Address) & 0x1) != 0x1)                      
    1003                    ;----------------------------------------------------------------------
    1004 00000184 9900              LDR       A2, [SP, #0]          ; [DPU_V7M3_PIPE] |426|  ; [ORIG 16-BIT INS]
    1005 00000186 9801              LDR       A1, [SP, #4]          ; [DPU_V7M3_PIPE] |426|  ; [ORIG 16-BIT INS]
    1006 00000188 40C8              LSRS      A1, A1, A2            ; [DPU_V7M3_PIPE] |426|  ; [ORIG 16-BIT INS]
    1007 0000018a 0840              LSRS      A1, A1, #1            ; [DPU_V7M3_PIPE] |426|  ; [ORIG 16-BIT INS]
    1008 0000018c D202              BCS       ||$C$L20||            ; [DPU_V7M3_PIPE] |426|  ; [ORIG 16-BIT INS]
    1009                            ; BRANCHCC OCCURS {||$C$L20||}   ; [] |426| 
    1010                    ;* --------------------------------------------------------------------------*
    1011                            .dwpsn  file "../driverlib/flash.c",line 428,column 17,is_stmt,isa 1
    1012                    ;----------------------------------------------------------------------
    1013                    ; 428 | return(-1);                                                            
    1014                    ; 431 | //                                                                     
    1015                    ; 432 | // Make this block read only.                                          
    1016                    ; 433 | //                                                                     
    1017                    ;----------------------------------------------------------------------
    1018 0000018e 30FFF04F          MOV       A1, #-1               ; [DPU_V7M3_PIPE] |428|  ; [KEEP 32-BIT INS]
    1019 00000192 E02B              B         ||$C$L26||            ; [DPU_V7M3_PIPE] |428|  ; [ORIG 16-BIT INS]
    1020                            ; BRANCH OCCURS {||$C$L26||}     ; [] |428| 
    1021                    ;* --------------------------------------------------------------------------*
    1022 00000194           ||$C$L20||:    
    1023                            .dwpsn  file "../driverlib/flash.c",line 434,column 13,is_stmt,isa 1
    1024                    ;----------------------------------------------------------------------
    1025                    ; 434 | ui32ProtectPE &= ~(0x1 << ui32Address);                                
    1026                    ; 436 | //                                                                     
    1027                    ; 437 | // We're done handling this protection.                                
    1028                    ; 438 | //                                                                     
    1029                    ;----------------------------------------------------------------------
    1030 00000194 9A00              LDR       A3, [SP, #0]          ; [DPU_V7M3_PIPE] |434|  ; [ORIG 16-BIT INS]
    1031 00000196 9902              LDR       A2, [SP, #8]          ; [DPU_V7M3_PIPE] |434|  ; [ORIG 16-BIT INS]
    1032 00000198 2001              MOVS      A1, #1                ; [DPU_V7M3_PIPE] |434|  ; [ORIG 16-BIT INS]
    1033 0000019a 4090              LSLS      A1, A1, A3            ; [DPU_V7M3_PIPE] |434|  ; [ORIG 16-BIT INS]
    1034 0000019c 4381              BICS      A2, A2, A1            ; [DPU_V7M3_PIPE] |434|  ; [ORIG 16-BIT INS]
    1035 0000019e 9102              STR       A2, [SP, #8]          ; [DPU_V7M3_PIPE] |434|  ; [ORIG 16-BIT INS]
    1036                            .dwpsn  file "../driverlib/flash.c",line 439,column 13,is_stmt,isa 1
    1037                    ;----------------------------------------------------------------------
    1038                    ; 439 | break;                                                                 
    1039                    ; 442 | //                                                                     
    1040                    ; 443 | // Make this block read/write.                                         
    1041                    ; 444 | //                                                                     
    1042                    ; 445 | case FlashReadWrite:                                                   
    1043                    ; 446 | default:                                                               
    1044                    ; 448 | //                                                                     
    1045                    ; 449 | // The block can not be made read/write if it is not already           
TI ARM Assembler Unix v18.1.1 Fri Jul  3 20:08:24 2020

Tools Copyright (c) 1996-2017 Texas Instruments Incorporated
flash.asm                                                            PAGE   20

    1046                    ; 450 | // read/write.                                                         
    1047                    ; 451 | //                                                                     
    1048                    ;----------------------------------------------------------------------
    1049 000001a0 E017              B         ||$C$L25||            ; [DPU_V7M3_PIPE] |439|  ; [ORIG 16-BIT INS]
    1050                            ; BRANCH OCCURS {||$C$L25||}     ; [] |439| 
    1051                    ;* --------------------------------------------------------------------------*
    1052 000001a2           ||$C$L21||:    
    1053                            .dwpsn  file "../driverlib/flash.c",line 452,column 13,is_stmt,isa 1
    1054                    ;----------------------------------------------------------------------
    1055                    ; 452 | if((((ui32ProtectRE >> ui32Address) & 0x1) != 0x1) ||                  
    1056                    ; 453 |    (((ui32ProtectPE >> ui32Address) & 0x1) != 0x1))                    
    1057                    ;----------------------------------------------------------------------
    1058 000001a2 9900              LDR       A2, [SP, #0]          ; [DPU_V7M3_PIPE] |452|  ; [ORIG 16-BIT INS]
    1059 000001a4 9801              LDR       A1, [SP, #4]          ; [DPU_V7M3_PIPE] |452|  ; [ORIG 16-BIT INS]
    1060 000001a6 40C8              LSRS      A1, A1, A2            ; [DPU_V7M3_PIPE] |452|  ; [ORIG 16-BIT INS]
    1061 000001a8 0840              LSRS      A1, A1, #1            ; [DPU_V7M3_PIPE] |452|  ; [ORIG 16-BIT INS]
    1062 000001aa D304              BCC       ||$C$L22||            ; [DPU_V7M3_PIPE] |452|  ; [ORIG 16-BIT INS]
    1063                            ; BRANCHCC OCCURS {||$C$L22||}   ; [] |452| 
    1064                    ;* --------------------------------------------------------------------------*
    1065 000001ac 9900              LDR       A2, [SP, #0]          ; [DPU_V7M3_PIPE] |452|  ; [ORIG 16-BIT INS]
    1066 000001ae 9802              LDR       A1, [SP, #8]          ; [DPU_V7M3_PIPE] |452|  ; [ORIG 16-BIT INS]
    1067 000001b0 40C8              LSRS      A1, A1, A2            ; [DPU_V7M3_PIPE] |452|  ; [ORIG 16-BIT INS]
    1068 000001b2 0840              LSRS      A1, A1, #1            ; [DPU_V7M3_PIPE] |452|  ; [ORIG 16-BIT INS]
    1069 000001b4 D202              BCS       ||$C$L23||            ; [DPU_V7M3_PIPE] |452|  ; [ORIG 16-BIT INS]
    1070                            ; BRANCHCC OCCURS {||$C$L23||}   ; [] |452| 
    1071                    ;* --------------------------------------------------------------------------*
    1072 000001b6           ||$C$L22||:    
    1073                            .dwpsn  file "../driverlib/flash.c",line 455,column 17,is_stmt,isa 1
    1074                    ;----------------------------------------------------------------------
    1075                    ; 455 | return(-1);                                                            
    1076                    ; 458 | //                                                                     
    1077                    ; 459 | // The block is already read/write, so there is nothing to do.         
    1078                    ; 460 | //                                                                     
    1079                    ;----------------------------------------------------------------------
    1080 000001b6 30FFF04F          MOV       A1, #-1               ; [DPU_V7M3_PIPE] |455|  ; [KEEP 32-BIT INS]
    1081 000001ba E017              B         ||$C$L26||            ; [DPU_V7M3_PIPE] |455|  ; [ORIG 16-BIT INS]
    1082                            ; BRANCH OCCURS {||$C$L26||}     ; [] |455| 
    1083                    ;* --------------------------------------------------------------------------*
    1084 000001bc           ||$C$L23||:    
    1085                            .dwpsn  file "../driverlib/flash.c",line 461,column 13,is_stmt,isa 1
    1086                    ;----------------------------------------------------------------------
    1087                    ; 461 | return(0);                                                             
    1088                    ; 465 | //                                                                     
    1089                    ; 466 | // Set the new protection for the specified flash bank.                
    1090                    ; 467 | //                                                                     
    1091                    ;----------------------------------------------------------------------
    1092 000001bc 2000              MOVS      A1, #0                ; [DPU_V7M3_PIPE] |461|  ; [ORIG 16-BIT INS]
    1093 000001be E015              B         ||$C$L26||            ; [DPU_V7M3_PIPE] |461|  ; [ORIG 16-BIT INS]
    1094                            ; BRANCH OCCURS {||$C$L26||}     ; [] |461| 
    1095                    ;* --------------------------------------------------------------------------*
    1096                    ;* --------------------------------------------------------------------------*
    1097 000001c0           ||$C$L24||:    
    1098                            .dwpsn  file "../driverlib/flash.c",line 399,column 5,is_stmt,isa 1
    1099 000001c0 0010F89D          LDRB      A1, [SP, #16]         ; [DPU_V7M3_PIPE] |399|  ; [KEEP 32-BIT INS]
    1100 000001c4 2800              CMP       A1, #0                ; [DPU_V7M3_PIPE] |399|  ; [ORIG 16-BIT INS]
TI ARM Assembler Unix v18.1.1 Fri Jul  3 20:08:24 2020

Tools Copyright (c) 1996-2017 Texas Instruments Incorporated
flash.asm                                                            PAGE   21

    1101 000001c6 D0EC              BEQ       ||$C$L21||            ; [DPU_V7M3_PIPE] |399|  ; [ORIG 16-BIT INS]
    1102                            ; BRANCHCC OCCURS {||$C$L21||}   ; [] |399| 
    1103                    ;* --------------------------------------------------------------------------*
    1104 000001c8 1E40              SUBS      A1, A1, #1            ; [DPU_V7M3_PIPE] |399|  ; [ORIG 16-BIT INS]
    1105 000001ca D0DB              BEQ       ||$C$L19||            ; [DPU_V7M3_PIPE] |399|  ; [ORIG 16-BIT INS]
    1106                            ; BRANCHCC OCCURS {||$C$L19||}   ; [] |399| 
    1107                    ;* --------------------------------------------------------------------------*
    1108 000001cc 1E40              SUBS      A1, A1, #1            ; [DPU_V7M3_PIPE] |399|  ; [ORIG 16-BIT INS]
    1109 000001ce D0CC              BEQ       ||$C$L18||            ; [DPU_V7M3_PIPE] |399|  ; [ORIG 16-BIT INS]
    1110                            ; BRANCHCC OCCURS {||$C$L18||}   ; [] |399| 
    1111                    ;* --------------------------------------------------------------------------*
    1112 000001d0 E7E7              B         ||$C$L21||            ; [DPU_V7M3_PIPE] |399|  ; [ORIG 16-BIT INS]
    1113                            ; BRANCH OCCURS {||$C$L21||}     ; [] |399| 
    1114                    ;* --------------------------------------------------------------------------*
    1115 000001d2           ||$C$L25||:    
    1116                            .dwpsn  file "../driverlib/flash.c",line 468,column 5,is_stmt,isa 1
    1117                    ;----------------------------------------------------------------------
    1118                    ; 468 | HWREG(g_pui32FMPRERegs[ui32Bank]) = ui32ProtectRE;                     
    1119                    ;----------------------------------------------------------------------
    1120 000001d2 9903              LDR       A2, [SP, #12]         ; [DPU_V7M3_PIPE] |468|  ; [ORIG 16-BIT INS]
    1121 000001d4 4A75              LDR       A3, $C$CON10          ; [DPU_V7M3_PIPE] |468|  ; [ORIG 16-BIT INS]
    1122 000001d6 9801              LDR       A1, [SP, #4]          ; [DPU_V7M3_PIPE] |468|  ; [ORIG 16-BIT INS]
    1123 000001d8 1021F852          LDR       A2, [A3, +A2, LSL #2] ; [DPU_V7M3_PIPE] |468|  ; [KEEP 32-BIT INS]
    1124 000001dc 6008              STR       A1, [A2, #0]          ; [DPU_V7M3_PIPE] |468|  ; [ORIG 16-BIT INS]
    1125                            .dwpsn  file "../driverlib/flash.c",line 469,column 5,is_stmt,isa 1
    1126                    ;----------------------------------------------------------------------
    1127                    ; 469 | HWREG(g_pui32FMPPERegs[ui32Bank]) = ui32ProtectPE;                     
    1128                    ; 471 | //                                                                     
    1129                    ; 472 | // Success.                                                            
    1130                    ; 473 | //                                                                     
    1131                    ;----------------------------------------------------------------------
    1132 000001de 4A74              LDR       A3, $C$CON11          ; [DPU_V7M3_PIPE] |469|  ; [ORIG 16-BIT INS]
    1133 000001e0 9903              LDR       A2, [SP, #12]         ; [DPU_V7M3_PIPE] |469|  ; [ORIG 16-BIT INS]
    1134 000001e2 9802              LDR       A1, [SP, #8]          ; [DPU_V7M3_PIPE] |469|  ; [ORIG 16-BIT INS]
    1135 000001e4 1021F852          LDR       A2, [A3, +A2, LSL #2] ; [DPU_V7M3_PIPE] |469|  ; [KEEP 32-BIT INS]
    1136 000001e8 6008              STR       A1, [A2, #0]          ; [DPU_V7M3_PIPE] |469|  ; [ORIG 16-BIT INS]
    1137                            .dwpsn  file "../driverlib/flash.c",line 474,column 5,is_stmt,isa 1
    1138                    ;----------------------------------------------------------------------
    1139                    ; 474 | return(0);                                                             
    1140                    ;----------------------------------------------------------------------
    1141 000001ea 2000              MOVS      A1, #0                ; [DPU_V7M3_PIPE] |474|  ; [ORIG 16-BIT INS]
    1142                    ;* --------------------------------------------------------------------------*
    1143 000001ec           ||$C$L26||:    
    1144                            .dwpsn  file "../driverlib/flash.c",line 475,column 1,is_stmt,isa 1
    1145 000001ec B006              ADD       SP, SP, #24           ; [DPU_V7M3_PIPE]  ; [ORIG 16-BIT INS]
    1146                            .dwcfi  cfa_offset, 0
    1147                    $C$DW$39        .dwtag  DW_TAG_TI_branch
    1148                            .dwattr $C$DW$39, DW_AT_low_pc(0x00)
    1149                            .dwattr $C$DW$39, DW_AT_TI_return
    1150                    
    1151 000001ee 4770              BX        LR                    ; [DPU_V7M3_PIPE]  ; [ORIG 16-BIT INS]
    1152                            ; BRANCH OCCURS                  ; [] 
    1153                            .dwattr $C$DW$31, DW_AT_TI_end_file("../driverlib/flash.c")
    1154                            .dwattr $C$DW$31, DW_AT_TI_end_line(0x1db)
    1155                            .dwattr $C$DW$31, DW_AT_TI_end_column(0x01)
TI ARM Assembler Unix v18.1.1 Fri Jul  3 20:08:24 2020

Tools Copyright (c) 1996-2017 Texas Instruments Incorporated
flash.asm                                                            PAGE   22

    1156                            .dwendentry
    1157                            .dwendtag $C$DW$31
    1158                    
    1159 000001f0                   .sect   ".text"
    1160                            .clink
    1161                            .thumbfunc FlashProtectSave
    1162 000001f0                   .thumb
    1163                            .global FlashProtectSave
    1164                    
    1165                    $C$DW$40        .dwtag  DW_TAG_subprogram
    1166                            .dwattr $C$DW$40, DW_AT_name("FlashProtectSave")
    1167                            .dwattr $C$DW$40, DW_AT_low_pc(FlashProtectSave)
    1168                            .dwattr $C$DW$40, DW_AT_high_pc(0x00)
    1169                            .dwattr $C$DW$40, DW_AT_TI_symbol_name("FlashProtectSave")
    1170                            .dwattr $C$DW$40, DW_AT_external
    1171                            .dwattr $C$DW$40, DW_AT_type(*$C$DW$T$86)
    1172                            .dwattr $C$DW$40, DW_AT_TI_begin_file("../driverlib/flash.c")
    1173                            .dwattr $C$DW$40, DW_AT_TI_begin_line(0x1eb)
    1174                            .dwattr $C$DW$40, DW_AT_TI_begin_column(0x01)
    1175                            .dwattr $C$DW$40, DW_AT_decl_file("../driverlib/flash.c")
    1176                            .dwattr $C$DW$40, DW_AT_decl_line(0x1eb)
    1177                            .dwattr $C$DW$40, DW_AT_decl_column(0x01)
    1178                            .dwattr $C$DW$40, DW_AT_TI_max_frame_size(0x08)
    1179                            .dwpsn  file "../driverlib/flash.c",line 492,column 1,is_stmt,address FlashProtectSave,isa 1
    1180                    
    1181                            .dwfde $C$DW$CIE, FlashProtectSave
    1182                    ;----------------------------------------------------------------------
    1183                    ; 491 | FlashProtectSave(void)                                                 
    1184                    ; 493 | uint32_t ui32Temp;                                                     
    1185                    ; 495 | //                                                                     
    1186                    ; 496 | // Save the entire bank of 8 flash protection registers.               
    1187                    ; 497 | //                                                                     
    1188                    ;----------------------------------------------------------------------
    1189                    
    1190                    ;*****************************************************************************
    1191                    ;* FUNCTION NAME: FlashProtectSave                                           *
    1192                    ;*                                                                           *
    1193                    ;*   Regs Modified     : A1,A2,SP,SR                                         *
    1194                    ;*   Regs Used         : A1,A2,SP,LR,SR                                      *
    1195                    ;*   Local Frame Size  : 0 Args + 4 Auto + 0 Save = 4 byte                   *
    1196                    ;*****************************************************************************
    1197 000001f0           FlashProtectSave:
    1198                    ;* --------------------------------------------------------------------------*
    1199                            .dwcfi  cfa_offset, 0
    1200 000001f0 0D08F1AD          SUB       SP, SP, #8            ; [DPU_V7M3_PIPE]  ; [KEEP 32-BIT INS]
    1201                            .dwcfi  cfa_offset, 8
    1202                    $C$DW$41        .dwtag  DW_TAG_variable
    1203                            .dwattr $C$DW$41, DW_AT_name("ui32Temp")
    1204                            .dwattr $C$DW$41, DW_AT_TI_symbol_name("ui32Temp")
    1205                            .dwattr $C$DW$41, DW_AT_type(*$C$DW$T$26)
    1206                            .dwattr $C$DW$41, DW_AT_location[DW_OP_breg13 0]
    1207                    
    1208                            .dwpsn  file "../driverlib/flash.c",line 498,column 9,is_stmt,isa 1
    1209                    ;----------------------------------------------------------------------
    1210                    ; 498 | for(ui32Temp = 0; ui32Temp < 8; ui32Temp++)                            
TI ARM Assembler Unix v18.1.1 Fri Jul  3 20:08:24 2020

Tools Copyright (c) 1996-2017 Texas Instruments Incorporated
flash.asm                                                            PAGE   23

    1211                    ;----------------------------------------------------------------------
    1212 000001f4 2000              MOVS      A1, #0                ; [DPU_V7M3_PIPE] |498|  ; [ORIG 16-BIT INS]
    1213 000001f6 9000              STR       A1, [SP, #0]          ; [DPU_V7M3_PIPE] |498|  ; [ORIG 16-BIT INS]
    1214                            .dwpsn  file "../driverlib/flash.c",line 498,column 23,is_stmt,isa 1
    1215                    ;----------------------------------------------------------------------
    1216                    ; 500 | //                                                                     
    1217                    ; 501 | // Tell the flash controller to write the flash protection register.   
    1218                    ; 502 | //                                                                     
    1219                    ;----------------------------------------------------------------------
    1220 000001f8 9800              LDR       A1, [SP, #0]          ; [DPU_V7M3_PIPE] |498|  ; [ORIG 16-BIT INS]
    1221 000001fa 2808              CMP       A1, #8                ; [DPU_V7M3_PIPE] |498|  ; [ORIG 16-BIT INS]
    1222 000001fc D20F              BCS       ||$C$L29||            ; [DPU_V7M3_PIPE] |498|  ; [ORIG 16-BIT INS]
    1223                            ; BRANCHCC OCCURS {||$C$L29||}   ; [] |498| 
    1224                    ;* --------------------------------------------------------------------------*
    1225                    ;*   BEGIN LOOP ||$C$L27||
    1226                    ;*
    1227                    ;*   Loop source line                : 498
    1228                    ;*   Loop closing brace source line  : 512
    1229                    ;*   Known Minimum Trip Count        : 1
    1230                    ;*   Known Maximum Trip Count        : 4294967295
    1231                    ;*   Known Max Trip Count Factor     : 1
    1232                    ;* --------------------------------------------------------------------------*
    1233 000001fe           ||$C$L27||:    
    1234                            .dwpsn  file "../driverlib/flash.c",line 503,column 9,is_stmt,isa 1
    1235                    ;----------------------------------------------------------------------
    1236                    ; 503 | HWREG(FLASH_FMA) = ui32Temp;                                           
    1237                    ;----------------------------------------------------------------------
    1238 000001fe 9800              LDR       A1, [SP, #0]          ; [DPU_V7M3_PIPE] |503|  ; [ORIG 16-BIT INS]
    1239 00000200 492E              LDR       A2, $C$CON2           ; [DPU_V7M3_PIPE] |503|  ; [ORIG 16-BIT INS]
    1240 00000202 6008              STR       A1, [A2, #0]          ; [DPU_V7M3_PIPE] |503|  ; [ORIG 16-BIT INS]
    1241                            .dwpsn  file "../driverlib/flash.c",line 504,column 9,is_stmt,isa 1
    1242                    ;----------------------------------------------------------------------
    1243                    ; 504 | HWREG(FLASH_FMC) = FLASH_FMC_WRKEY | FLASH_FMC_COMT;                   
    1244                    ; 506 | //                                                                     
    1245                    ; 507 | // Wait until the write has completed.                                 
    1246                    ; 508 | //                                                                     
    1247                    ;----------------------------------------------------------------------
    1248 00000204 486F              LDR       A1, $C$CON12          ; [DPU_V7M3_PIPE] |504|  ; [ORIG 16-BIT INS]
    1249 00000206 4936              LDR       A2, $C$CON3           ; [DPU_V7M3_PIPE] |504|  ; [ORIG 16-BIT INS]
    1250 00000208 6008              STR       A1, [A2, #0]          ; [DPU_V7M3_PIPE] |504|  ; [ORIG 16-BIT INS]
    1251                            .dwpsn  file "../driverlib/flash.c",line 509,column 9,is_stmt,isa 1
    1252                    ;----------------------------------------------------------------------
    1253                    ; 509 | while(HWREG(FLASH_FMC) & FLASH_FMC_COMT)                               
    1254                    ; 514 | //                                                                     
    1255                    ; 515 | // Success.                                                            
    1256                    ; 516 | //                                                                     
    1257                    ;----------------------------------------------------------------------
    1258                    ;* --------------------------------------------------------------------------*
    1259                    ;*   BEGIN LOOP ||$C$L28||
    1260                    ;*
    1261                    ;*   Loop source line                : 509
    1262                    ;*   Loop closing brace source line  : 511
    1263                    ;*   Known Minimum Trip Count        : 1
    1264                    ;*   Known Maximum Trip Count        : 4294967295
    1265                    ;*   Known Max Trip Count Factor     : 1
TI ARM Assembler Unix v18.1.1 Fri Jul  3 20:08:24 2020

Tools Copyright (c) 1996-2017 Texas Instruments Incorporated
flash.asm                                                            PAGE   24

    1266                    ;* --------------------------------------------------------------------------*
    1267 0000020a           ||$C$L28||:    
    1268 0000020a 4835              LDR       A1, $C$CON3           ; [DPU_V7M3_PIPE] |509|  ; [ORIG 16-BIT INS]
    1269 0000020c 6800              LDR       A1, [A1, #0]          ; [DPU_V7M3_PIPE] |509|  ; [ORIG 16-BIT INS]
    1270 0000020e 0900              LSRS      A1, A1, #4            ; [DPU_V7M3_PIPE] |509|  ; [ORIG 16-BIT INS]
    1271 00000210 D2FB              BCS       ||$C$L28||            ; [DPU_V7M3_PIPE] |509|  ; [ORIG 16-BIT INS]
    1272                            ; BRANCHCC OCCURS {||$C$L28||}   ; [] |509| 
    1273                    ;* --------------------------------------------------------------------------*
    1274                            .dwpsn  file "../driverlib/flash.c",line 498,column 37,is_stmt,isa 1
    1275 00000212 9800              LDR       A1, [SP, #0]          ; [DPU_V7M3_PIPE] |498|  ; [ORIG 16-BIT INS]
    1276 00000214 1C40              ADDS      A1, A1, #1            ; [DPU_V7M3_PIPE] |498|  ; [ORIG 16-BIT INS]
    1277 00000216 9000              STR       A1, [SP, #0]          ; [DPU_V7M3_PIPE] |498|  ; [ORIG 16-BIT INS]
    1278                            .dwpsn  file "../driverlib/flash.c",line 498,column 23,is_stmt,isa 1
    1279 00000218 9800              LDR       A1, [SP, #0]          ; [DPU_V7M3_PIPE] |498|  ; [ORIG 16-BIT INS]
    1280 0000021a 2808              CMP       A1, #8                ; [DPU_V7M3_PIPE] |498|  ; [ORIG 16-BIT INS]
    1281 0000021c D3EF              BCC       ||$C$L27||            ; [DPU_V7M3_PIPE] |498|  ; [ORIG 16-BIT INS]
    1282                            ; BRANCHCC OCCURS {||$C$L27||}   ; [] |498| 
    1283                    ;* --------------------------------------------------------------------------*
    1284 0000021e           ||$C$L29||:    
    1285                            .dwpsn  file "../driverlib/flash.c",line 517,column 5,is_stmt,isa 1
    1286                    ;----------------------------------------------------------------------
    1287                    ; 517 | return(0);                                                             
    1288                    ;----------------------------------------------------------------------
    1289 0000021e 2000              MOVS      A1, #0                ; [DPU_V7M3_PIPE] |517|  ; [ORIG 16-BIT INS]
    1290                            .dwpsn  file "../driverlib/flash.c",line 518,column 1,is_stmt,isa 1
    1291 00000220 B002              ADD       SP, SP, #8            ; [DPU_V7M3_PIPE]  ; [ORIG 16-BIT INS]
    1292                            .dwcfi  cfa_offset, 0
    1293                    $C$DW$42        .dwtag  DW_TAG_TI_branch
    1294                            .dwattr $C$DW$42, DW_AT_low_pc(0x00)
    1295                            .dwattr $C$DW$42, DW_AT_TI_return
    1296                    
    1297 00000222 4770              BX        LR                    ; [DPU_V7M3_PIPE]  ; [ORIG 16-BIT INS]
    1298                            ; BRANCH OCCURS                  ; [] 
    1299                            .dwattr $C$DW$40, DW_AT_TI_end_file("../driverlib/flash.c")
    1300                            .dwattr $C$DW$40, DW_AT_TI_end_line(0x206)
    1301                            .dwattr $C$DW$40, DW_AT_TI_end_column(0x01)
    1302                            .dwendentry
    1303                            .dwendtag $C$DW$40
    1304                    
    1305 00000224                   .sect   ".text"
    1306                            .clink
    1307                            .thumbfunc FlashUserGet
    1308 00000224                   .thumb
    1309                            .global FlashUserGet
    1310                    
    1311                    $C$DW$43        .dwtag  DW_TAG_subprogram
    1312                            .dwattr $C$DW$43, DW_AT_name("FlashUserGet")
    1313                            .dwattr $C$DW$43, DW_AT_low_pc(FlashUserGet)
    1314                            .dwattr $C$DW$43, DW_AT_high_pc(0x00)
    1315                            .dwattr $C$DW$43, DW_AT_TI_symbol_name("FlashUserGet")
    1316                            .dwattr $C$DW$43, DW_AT_external
    1317                            .dwattr $C$DW$43, DW_AT_type(*$C$DW$T$86)
    1318                            .dwattr $C$DW$43, DW_AT_TI_begin_file("../driverlib/flash.c")
    1319                            .dwattr $C$DW$43, DW_AT_TI_begin_line(0x216)
    1320                            .dwattr $C$DW$43, DW_AT_TI_begin_column(0x01)
TI ARM Assembler Unix v18.1.1 Fri Jul  3 20:08:24 2020

Tools Copyright (c) 1996-2017 Texas Instruments Incorporated
flash.asm                                                            PAGE   25

    1321                            .dwattr $C$DW$43, DW_AT_decl_file("../driverlib/flash.c")
    1322                            .dwattr $C$DW$43, DW_AT_decl_line(0x216)
    1323                            .dwattr $C$DW$43, DW_AT_decl_column(0x01)
    1324                            .dwattr $C$DW$43, DW_AT_TI_max_frame_size(0x08)
    1325                            .dwpsn  file "../driverlib/flash.c",line 535,column 1,is_stmt,address FlashUserGet,isa 1
    1326                    
    1327                            .dwfde $C$DW$CIE, FlashUserGet
    1328                    $C$DW$44        .dwtag  DW_TAG_formal_parameter
    1329                            .dwattr $C$DW$44, DW_AT_name("pui32User0")
    1330                            .dwattr $C$DW$44, DW_AT_TI_symbol_name("pui32User0")
    1331                            .dwattr $C$DW$44, DW_AT_type(*$C$DW$T$88)
    1332                            .dwattr $C$DW$44, DW_AT_location[DW_OP_reg0]
    1333                    
    1334                    $C$DW$45        .dwtag  DW_TAG_formal_parameter
    1335                            .dwattr $C$DW$45, DW_AT_name("pui32User1")
    1336                            .dwattr $C$DW$45, DW_AT_TI_symbol_name("pui32User1")
    1337                            .dwattr $C$DW$45, DW_AT_type(*$C$DW$T$88)
    1338                            .dwattr $C$DW$45, DW_AT_location[DW_OP_reg1]
    1339                    
    1340                    ;----------------------------------------------------------------------
    1341                    ; 534 | FlashUserGet(uint32_t *pui32User0, uint32_t *pui32User1)               
    1342                    ;----------------------------------------------------------------------
    1343                    
    1344                    ;*****************************************************************************
    1345                    ;* FUNCTION NAME: FlashUserGet                                               *
    1346                    ;*                                                                           *
    1347                    ;*   Regs Modified     : A1,A2,SP,SR                                         *
    1348                    ;*   Regs Used         : A1,A2,SP,LR,SR                                      *
    1349                    ;*   Local Frame Size  : 0 Args + 8 Auto + 0 Save = 8 byte                   *
    1350                    ;*****************************************************************************
    1351 00000224           FlashUserGet:
    1352                    ;* --------------------------------------------------------------------------*
    1353                            .dwcfi  cfa_offset, 0
    1354 00000224 0D08F1AD          SUB       SP, SP, #8            ; [DPU_V7M3_PIPE]  ; [KEEP 32-BIT INS]
    1355                            .dwcfi  cfa_offset, 8
    1356                    $C$DW$46        .dwtag  DW_TAG_variable
    1357                            .dwattr $C$DW$46, DW_AT_name("pui32User0")
    1358                            .dwattr $C$DW$46, DW_AT_TI_symbol_name("pui32User0")
    1359                            .dwattr $C$DW$46, DW_AT_type(*$C$DW$T$88)
    1360                            .dwattr $C$DW$46, DW_AT_location[DW_OP_breg13 0]
    1361                    
    1362                    $C$DW$47        .dwtag  DW_TAG_variable
    1363                            .dwattr $C$DW$47, DW_AT_name("pui32User1")
    1364                            .dwattr $C$DW$47, DW_AT_TI_symbol_name("pui32User1")
    1365                            .dwattr $C$DW$47, DW_AT_type(*$C$DW$T$88)
    1366                            .dwattr $C$DW$47, DW_AT_location[DW_OP_breg13 4]
    1367                    
    1368                    ;----------------------------------------------------------------------
    1369                    ; 536 | //                                                                     
    1370                    ; 537 | // Verify that the pointers are valid.                                 
    1371                    ; 538 | //                                                                     
    1372                    ; 539 | ASSERT(pui32User0 != 0);                                               
    1373                    ; 540 | ASSERT(pui32User1 != 0);                                               
    1374                    ; 542 | //                                                                     
    1375                    ; 543 | // Get and store the current value of the user registers.              
TI ARM Assembler Unix v18.1.1 Fri Jul  3 20:08:24 2020

Tools Copyright (c) 1996-2017 Texas Instruments Incorporated
flash.asm                                                            PAGE   26

    1376                    ; 544 | //                                                                     
    1377                    ;----------------------------------------------------------------------
    1378 00000228 9101              STR       A2, [SP, #4]          ; [DPU_V7M3_PIPE] |535|  ; [ORIG 16-BIT INS]
    1379 0000022a 9000              STR       A1, [SP, #0]          ; [DPU_V7M3_PIPE] |535|  ; [ORIG 16-BIT INS]
    1380                            .dwpsn  file "../driverlib/flash.c",line 545,column 5,is_stmt,isa 1
    1381                    ;----------------------------------------------------------------------
    1382                    ; 545 | *pui32User0 = HWREG(FLASH_USERREG0);                                   
    1383                    ;----------------------------------------------------------------------
    1384 0000022c 4866              LDR       A1, $C$CON13          ; [DPU_V7M3_PIPE] |545|  ; [ORIG 16-BIT INS]
    1385 0000022e 9900              LDR       A2, [SP, #0]          ; [DPU_V7M3_PIPE] |545|  ; [ORIG 16-BIT INS]
    1386 00000230 6800              LDR       A1, [A1, #0]          ; [DPU_V7M3_PIPE] |545|  ; [ORIG 16-BIT INS]
    1387 00000232 6008              STR       A1, [A2, #0]          ; [DPU_V7M3_PIPE] |545|  ; [ORIG 16-BIT INS]
    1388                            .dwpsn  file "../driverlib/flash.c",line 546,column 5,is_stmt,isa 1
    1389                    ;----------------------------------------------------------------------
    1390                    ; 546 | *pui32User1 = HWREG(FLASH_USERREG1);                                   
    1391                    ; 548 | //                                                                     
    1392                    ; 549 | // Success.                                                            
    1393                    ; 550 | //                                                                     
    1394                    ;----------------------------------------------------------------------
    1395 00000234 4865              LDR       A1, $C$CON14          ; [DPU_V7M3_PIPE] |546|  ; [ORIG 16-BIT INS]
    1396 00000236 9901              LDR       A2, [SP, #4]          ; [DPU_V7M3_PIPE] |546|  ; [ORIG 16-BIT INS]
    1397 00000238 6800              LDR       A1, [A1, #0]          ; [DPU_V7M3_PIPE] |546|  ; [ORIG 16-BIT INS]
    1398 0000023a 6008              STR       A1, [A2, #0]          ; [DPU_V7M3_PIPE] |546|  ; [ORIG 16-BIT INS]
    1399                            .dwpsn  file "../driverlib/flash.c",line 551,column 5,is_stmt,isa 1
    1400                    ;----------------------------------------------------------------------
    1401                    ; 551 | return(0);                                                             
    1402                    ;----------------------------------------------------------------------
    1403 0000023c 2000              MOVS      A1, #0                ; [DPU_V7M3_PIPE] |551|  ; [ORIG 16-BIT INS]
    1404                            .dwpsn  file "../driverlib/flash.c",line 552,column 1,is_stmt,isa 1
    1405 0000023e B002              ADD       SP, SP, #8            ; [DPU_V7M3_PIPE]  ; [ORIG 16-BIT INS]
    1406                            .dwcfi  cfa_offset, 0
    1407                    $C$DW$48        .dwtag  DW_TAG_TI_branch
    1408                            .dwattr $C$DW$48, DW_AT_low_pc(0x00)
    1409                            .dwattr $C$DW$48, DW_AT_TI_return
    1410                    
    1411 00000240 4770              BX        LR                    ; [DPU_V7M3_PIPE]  ; [ORIG 16-BIT INS]
    1412                            ; BRANCH OCCURS                  ; [] 
    1413                            .dwattr $C$DW$43, DW_AT_TI_end_file("../driverlib/flash.c")
    1414                            .dwattr $C$DW$43, DW_AT_TI_end_line(0x228)
    1415                            .dwattr $C$DW$43, DW_AT_TI_end_column(0x01)
    1416                            .dwendentry
    1417                            .dwendtag $C$DW$43
    1418                    
    1419 00000242                   .sect   ".text"
    1420                            .clink
    1421                            .thumbfunc FlashUserSet
    1422 00000242                   .thumb
    1423                            .global FlashUserSet
    1424                    
    1425                    $C$DW$49        .dwtag  DW_TAG_subprogram
    1426                            .dwattr $C$DW$49, DW_AT_name("FlashUserSet")
    1427                            .dwattr $C$DW$49, DW_AT_low_pc(FlashUserSet)
    1428                            .dwattr $C$DW$49, DW_AT_high_pc(0x00)
    1429                            .dwattr $C$DW$49, DW_AT_TI_symbol_name("FlashUserSet")
    1430                            .dwattr $C$DW$49, DW_AT_external
TI ARM Assembler Unix v18.1.1 Fri Jul  3 20:08:24 2020

Tools Copyright (c) 1996-2017 Texas Instruments Incorporated
flash.asm                                                            PAGE   27

    1431                            .dwattr $C$DW$49, DW_AT_type(*$C$DW$T$86)
    1432                            .dwattr $C$DW$49, DW_AT_TI_begin_file("../driverlib/flash.c")
    1433                            .dwattr $C$DW$49, DW_AT_TI_begin_line(0x238)
    1434                            .dwattr $C$DW$49, DW_AT_TI_begin_column(0x01)
    1435                            .dwattr $C$DW$49, DW_AT_decl_file("../driverlib/flash.c")
    1436                            .dwattr $C$DW$49, DW_AT_decl_line(0x238)
    1437                            .dwattr $C$DW$49, DW_AT_decl_column(0x01)
    1438                            .dwattr $C$DW$49, DW_AT_TI_max_frame_size(0x08)
    1439                            .dwpsn  file "../driverlib/flash.c",line 569,column 1,is_stmt,address FlashUserSet,isa 1
    1440                    
    1441                            .dwfde $C$DW$CIE, FlashUserSet
    1442                    $C$DW$50        .dwtag  DW_TAG_formal_parameter
    1443                            .dwattr $C$DW$50, DW_AT_name("ui32User0")
    1444                            .dwattr $C$DW$50, DW_AT_TI_symbol_name("ui32User0")
    1445                            .dwattr $C$DW$50, DW_AT_type(*$C$DW$T$26)
    1446                            .dwattr $C$DW$50, DW_AT_location[DW_OP_reg0]
    1447                    
    1448                    $C$DW$51        .dwtag  DW_TAG_formal_parameter
    1449                            .dwattr $C$DW$51, DW_AT_name("ui32User1")
    1450                            .dwattr $C$DW$51, DW_AT_TI_symbol_name("ui32User1")
    1451                            .dwattr $C$DW$51, DW_AT_type(*$C$DW$T$26)
    1452                            .dwattr $C$DW$51, DW_AT_location[DW_OP_reg1]
    1453                    
    1454                    ;----------------------------------------------------------------------
    1455                    ; 568 | FlashUserSet(uint32_t ui32User0, uint32_t ui32User1)                   
    1456                    ;----------------------------------------------------------------------
    1457                    
    1458                    ;*****************************************************************************
    1459                    ;* FUNCTION NAME: FlashUserSet                                               *
    1460                    ;*                                                                           *
    1461                    ;*   Regs Modified     : A1,A2,SP,SR                                         *
    1462                    ;*   Regs Used         : A1,A2,SP,LR,SR                                      *
    1463                    ;*   Local Frame Size  : 0 Args + 8 Auto + 0 Save = 8 byte                   *
    1464                    ;*****************************************************************************
    1465 00000242           FlashUserSet:
    1466                    ;* --------------------------------------------------------------------------*
    1467                            .dwcfi  cfa_offset, 0
    1468 00000242 0D08F1AD          SUB       SP, SP, #8            ; [DPU_V7M3_PIPE]  ; [KEEP 32-BIT INS]
    1469                            .dwcfi  cfa_offset, 8
    1470                    $C$DW$52        .dwtag  DW_TAG_variable
    1471                            .dwattr $C$DW$52, DW_AT_name("ui32User0")
    1472                            .dwattr $C$DW$52, DW_AT_TI_symbol_name("ui32User0")
    1473                            .dwattr $C$DW$52, DW_AT_type(*$C$DW$T$26)
    1474                            .dwattr $C$DW$52, DW_AT_location[DW_OP_breg13 0]
    1475                    
    1476                    $C$DW$53        .dwtag  DW_TAG_variable
    1477                            .dwattr $C$DW$53, DW_AT_name("ui32User1")
    1478                            .dwattr $C$DW$53, DW_AT_TI_symbol_name("ui32User1")
    1479                            .dwattr $C$DW$53, DW_AT_type(*$C$DW$T$26)
    1480                            .dwattr $C$DW$53, DW_AT_location[DW_OP_breg13 4]
    1481                    
    1482                    ;----------------------------------------------------------------------
    1483                    ; 570 | //                                                                     
    1484                    ; 571 | // Save the new values into the user registers.                        
    1485                    ; 572 | //                                                                     
TI ARM Assembler Unix v18.1.1 Fri Jul  3 20:08:24 2020

Tools Copyright (c) 1996-2017 Texas Instruments Incorporated
flash.asm                                                            PAGE   28

    1486                    ;----------------------------------------------------------------------
    1487 00000246 9101              STR       A2, [SP, #4]          ; [DPU_V7M3_PIPE] |569|  ; [ORIG 16-BIT INS]
    1488 00000248 9000              STR       A1, [SP, #0]          ; [DPU_V7M3_PIPE] |569|  ; [ORIG 16-BIT INS]
    1489                            .dwpsn  file "../driverlib/flash.c",line 573,column 5,is_stmt,isa 1
    1490                    ;----------------------------------------------------------------------
    1491                    ; 573 | HWREG(FLASH_USERREG0) = ui32User0;                                     
    1492                    ;----------------------------------------------------------------------
    1493 0000024a 495F              LDR       A2, $C$CON13          ; [DPU_V7M3_PIPE] |573|  ; [ORIG 16-BIT INS]
    1494 0000024c 9800              LDR       A1, [SP, #0]          ; [DPU_V7M3_PIPE] |573|  ; [ORIG 16-BIT INS]
    1495 0000024e 6008              STR       A1, [A2, #0]          ; [DPU_V7M3_PIPE] |573|  ; [ORIG 16-BIT INS]
    1496                            .dwpsn  file "../driverlib/flash.c",line 574,column 5,is_stmt,isa 1
    1497                    ;----------------------------------------------------------------------
    1498                    ; 574 | HWREG(FLASH_USERREG1) = ui32User1;                                     
    1499                    ; 576 | //                                                                     
    1500                    ; 577 | // Success.                                                            
    1501                    ; 578 | //                                                                     
    1502                    ;----------------------------------------------------------------------
    1503 00000250 495E              LDR       A2, $C$CON14          ; [DPU_V7M3_PIPE] |574|  ; [ORIG 16-BIT INS]
    1504 00000252 9801              LDR       A1, [SP, #4]          ; [DPU_V7M3_PIPE] |574|  ; [ORIG 16-BIT INS]
    1505 00000254 6008              STR       A1, [A2, #0]          ; [DPU_V7M3_PIPE] |574|  ; [ORIG 16-BIT INS]
    1506                            .dwpsn  file "../driverlib/flash.c",line 579,column 5,is_stmt,isa 1
    1507                    ;----------------------------------------------------------------------
    1508                    ; 579 | return(0);                                                             
    1509                    ;----------------------------------------------------------------------
    1510 00000256 2000              MOVS      A1, #0                ; [DPU_V7M3_PIPE] |579|  ; [ORIG 16-BIT INS]
    1511                            .dwpsn  file "../driverlib/flash.c",line 580,column 1,is_stmt,isa 1
    1512 00000258 B002              ADD       SP, SP, #8            ; [DPU_V7M3_PIPE]  ; [ORIG 16-BIT INS]
    1513                            .dwcfi  cfa_offset, 0
    1514                    $C$DW$54        .dwtag  DW_TAG_TI_branch
    1515                            .dwattr $C$DW$54, DW_AT_low_pc(0x00)
    1516                            .dwattr $C$DW$54, DW_AT_TI_return
    1517                    
    1518 0000025a 4770              BX        LR                    ; [DPU_V7M3_PIPE]  ; [ORIG 16-BIT INS]
    1519                            ; BRANCH OCCURS                  ; [] 
    1520                            .dwattr $C$DW$49, DW_AT_TI_end_file("../driverlib/flash.c")
    1521                            .dwattr $C$DW$49, DW_AT_TI_end_line(0x244)
    1522                            .dwattr $C$DW$49, DW_AT_TI_end_column(0x01)
    1523                            .dwendentry
    1524                            .dwendtag $C$DW$49
    1525                    
    1526 0000025c                   .sect   ".text"
    1527                            .clink
    1528                            .thumbfunc FlashAllUserRegisterGet
    1529 0000025c                   .thumb
    1530                            .global FlashAllUserRegisterGet
    1531                    
    1532                    $C$DW$55        .dwtag  DW_TAG_subprogram
    1533                            .dwattr $C$DW$55, DW_AT_name("FlashAllUserRegisterGet")
    1534                            .dwattr $C$DW$55, DW_AT_low_pc(FlashAllUserRegisterGet)
    1535                            .dwattr $C$DW$55, DW_AT_high_pc(0x00)
    1536                            .dwattr $C$DW$55, DW_AT_TI_symbol_name("FlashAllUserRegisterGet")
    1537                            .dwattr $C$DW$55, DW_AT_external
    1538                            .dwattr $C$DW$55, DW_AT_type(*$C$DW$T$86)
    1539                            .dwattr $C$DW$55, DW_AT_TI_begin_file("../driverlib/flash.c")
    1540                            .dwattr $C$DW$55, DW_AT_TI_begin_line(0x256)
TI ARM Assembler Unix v18.1.1 Fri Jul  3 20:08:24 2020

Tools Copyright (c) 1996-2017 Texas Instruments Incorporated
flash.asm                                                            PAGE   29

    1541                            .dwattr $C$DW$55, DW_AT_TI_begin_column(0x01)
    1542                            .dwattr $C$DW$55, DW_AT_decl_file("../driverlib/flash.c")
    1543                            .dwattr $C$DW$55, DW_AT_decl_line(0x256)
    1544                            .dwattr $C$DW$55, DW_AT_decl_column(0x01)
    1545                            .dwattr $C$DW$55, DW_AT_TI_max_frame_size(0x10)
    1546                            .dwpsn  file "../driverlib/flash.c",line 600,column 1,is_stmt,address FlashAllUserRegisterGet,
    1547                    
    1548                            .dwfde $C$DW$CIE, FlashAllUserRegisterGet
    1549                    $C$DW$56        .dwtag  DW_TAG_formal_parameter
    1550                            .dwattr $C$DW$56, DW_AT_name("pui32User0")
    1551                            .dwattr $C$DW$56, DW_AT_TI_symbol_name("pui32User0")
    1552                            .dwattr $C$DW$56, DW_AT_type(*$C$DW$T$88)
    1553                            .dwattr $C$DW$56, DW_AT_location[DW_OP_reg0]
    1554                    
    1555                    $C$DW$57        .dwtag  DW_TAG_formal_parameter
    1556                            .dwattr $C$DW$57, DW_AT_name("pui32User1")
    1557                            .dwattr $C$DW$57, DW_AT_TI_symbol_name("pui32User1")
    1558                            .dwattr $C$DW$57, DW_AT_type(*$C$DW$T$88)
    1559                            .dwattr $C$DW$57, DW_AT_location[DW_OP_reg1]
    1560                    
    1561                    $C$DW$58        .dwtag  DW_TAG_formal_parameter
    1562                            .dwattr $C$DW$58, DW_AT_name("pui32User2")
    1563                            .dwattr $C$DW$58, DW_AT_TI_symbol_name("pui32User2")
    1564                            .dwattr $C$DW$58, DW_AT_type(*$C$DW$T$88)
    1565                            .dwattr $C$DW$58, DW_AT_location[DW_OP_reg2]
    1566                    
    1567                    $C$DW$59        .dwtag  DW_TAG_formal_parameter
    1568                            .dwattr $C$DW$59, DW_AT_name("pui32User3")
    1569                            .dwattr $C$DW$59, DW_AT_TI_symbol_name("pui32User3")
    1570                            .dwattr $C$DW$59, DW_AT_type(*$C$DW$T$88)
    1571                            .dwattr $C$DW$59, DW_AT_location[DW_OP_reg3]
    1572                    
    1573                    ;----------------------------------------------------------------------
    1574                    ; 598 | FlashAllUserRegisterGet(uint32_t *pui32User0, uint32_t *pui32User1,    
    1575                    ; 599 | uint32_t *pui32User2, uint32_t *pui32User3)                            
    1576                    ;----------------------------------------------------------------------
    1577                    
    1578                    ;*****************************************************************************
    1579                    ;* FUNCTION NAME: FlashAllUserRegisterGet                                    *
    1580                    ;*                                                                           *
    1581                    ;*   Regs Modified     : A1,A2,SP,SR                                         *
    1582                    ;*   Regs Used         : A1,A2,A3,A4,SP,LR,SR                                *
    1583                    ;*   Local Frame Size  : 0 Args + 16 Auto + 0 Save = 16 byte                 *
    1584                    ;*****************************************************************************
    1585 0000025c           FlashAllUserRegisterGet:
    1586                    ;* --------------------------------------------------------------------------*
    1587                            .dwcfi  cfa_offset, 0
    1588 0000025c 0D10F1AD          SUB       SP, SP, #16           ; [DPU_V7M3_PIPE]  ; [KEEP 32-BIT INS]
    1589                            .dwcfi  cfa_offset, 16
    1590                    $C$DW$60        .dwtag  DW_TAG_variable
    1591                            .dwattr $C$DW$60, DW_AT_name("pui32User0")
    1592                            .dwattr $C$DW$60, DW_AT_TI_symbol_name("pui32User0")
    1593                            .dwattr $C$DW$60, DW_AT_type(*$C$DW$T$88)
    1594                            .dwattr $C$DW$60, DW_AT_location[DW_OP_breg13 0]
    1595                    
TI ARM Assembler Unix v18.1.1 Fri Jul  3 20:08:24 2020

Tools Copyright (c) 1996-2017 Texas Instruments Incorporated
flash.asm                                                            PAGE   30

    1596                    $C$DW$61        .dwtag  DW_TAG_variable
    1597                            .dwattr $C$DW$61, DW_AT_name("pui32User1")
    1598                            .dwattr $C$DW$61, DW_AT_TI_symbol_name("pui32User1")
    1599                            .dwattr $C$DW$61, DW_AT_type(*$C$DW$T$88)
    1600                            .dwattr $C$DW$61, DW_AT_location[DW_OP_breg13 4]
    1601                    
    1602                    $C$DW$62        .dwtag  DW_TAG_variable
    1603                            .dwattr $C$DW$62, DW_AT_name("pui32User2")
    1604                            .dwattr $C$DW$62, DW_AT_TI_symbol_name("pui32User2")
    1605                            .dwattr $C$DW$62, DW_AT_type(*$C$DW$T$88)
    1606                            .dwattr $C$DW$62, DW_AT_location[DW_OP_breg13 8]
    1607                    
    1608                    $C$DW$63        .dwtag  DW_TAG_variable
    1609                            .dwattr $C$DW$63, DW_AT_name("pui32User3")
    1610                            .dwattr $C$DW$63, DW_AT_TI_symbol_name("pui32User3")
    1611                            .dwattr $C$DW$63, DW_AT_type(*$C$DW$T$88)
    1612                            .dwattr $C$DW$63, DW_AT_location[DW_OP_breg13 12]
    1613                    
    1614                    ;----------------------------------------------------------------------
    1615                    ; 601 | //                                                                     
    1616                    ; 602 | // Verify that the pointers are valid.                                 
    1617                    ; 603 | //                                                                     
    1618                    ; 604 | ASSERT(pui32User0 != 0);                                               
    1619                    ; 605 | ASSERT(pui32User1 != 0);                                               
    1620                    ; 606 | ASSERT(pui32User2 != 0);                                               
    1621                    ; 607 | ASSERT(pui32User3 != 0);                                               
    1622                    ; 609 | //                                                                     
    1623                    ; 610 | // Get and store the current value of the user registers.              
    1624                    ; 611 | //                                                                     
    1625                    ;----------------------------------------------------------------------
    1626 00000260 9303              STR       A4, [SP, #12]         ; [DPU_V7M3_PIPE] |600|  ; [ORIG 16-BIT INS]
    1627 00000262 9202              STR       A3, [SP, #8]          ; [DPU_V7M3_PIPE] |600|  ; [ORIG 16-BIT INS]
    1628 00000264 9101              STR       A2, [SP, #4]          ; [DPU_V7M3_PIPE] |600|  ; [ORIG 16-BIT INS]
    1629 00000266 9000              STR       A1, [SP, #0]          ; [DPU_V7M3_PIPE] |600|  ; [ORIG 16-BIT INS]
    1630                            .dwpsn  file "../driverlib/flash.c",line 612,column 5,is_stmt,isa 1
    1631                    ;----------------------------------------------------------------------
    1632                    ; 612 | *pui32User0 = HWREG(FLASH_USERREG0);                                   
    1633                    ;----------------------------------------------------------------------
    1634 00000268 4857              LDR       A1, $C$CON13          ; [DPU_V7M3_PIPE] |612|  ; [ORIG 16-BIT INS]
    1635 0000026a 9900              LDR       A2, [SP, #0]          ; [DPU_V7M3_PIPE] |612|  ; [ORIG 16-BIT INS]
    1636 0000026c 6800              LDR       A1, [A1, #0]          ; [DPU_V7M3_PIPE] |612|  ; [ORIG 16-BIT INS]
    1637 0000026e 6008              STR       A1, [A2, #0]          ; [DPU_V7M3_PIPE] |612|  ; [ORIG 16-BIT INS]
    1638                            .dwpsn  file "../driverlib/flash.c",line 613,column 5,is_stmt,isa 1
    1639                    ;----------------------------------------------------------------------
    1640                    ; 613 | *pui32User1 = HWREG(FLASH_USERREG1);                                   
    1641                    ;----------------------------------------------------------------------
    1642 00000270 4856              LDR       A1, $C$CON14          ; [DPU_V7M3_PIPE] |613|  ; [ORIG 16-BIT INS]
    1643 00000272 9901              LDR       A2, [SP, #4]          ; [DPU_V7M3_PIPE] |613|  ; [ORIG 16-BIT INS]
    1644 00000274 6800              LDR       A1, [A1, #0]          ; [DPU_V7M3_PIPE] |613|  ; [ORIG 16-BIT INS]
    1645 00000276 6008              STR       A1, [A2, #0]          ; [DPU_V7M3_PIPE] |613|  ; [ORIG 16-BIT INS]
    1646                            .dwpsn  file "../driverlib/flash.c",line 614,column 5,is_stmt,isa 1
    1647                    ;----------------------------------------------------------------------
    1648                    ; 614 | *pui32User2 = HWREG(FLASH_USERREG2);                                   
    1649                    ;----------------------------------------------------------------------
    1650 00000278 4855              LDR       A1, $C$CON15          ; [DPU_V7M3_PIPE] |614|  ; [ORIG 16-BIT INS]
TI ARM Assembler Unix v18.1.1 Fri Jul  3 20:08:24 2020

Tools Copyright (c) 1996-2017 Texas Instruments Incorporated
flash.asm                                                            PAGE   31

    1651 0000027a 9902              LDR       A2, [SP, #8]          ; [DPU_V7M3_PIPE] |614|  ; [ORIG 16-BIT INS]
    1652 0000027c 6800              LDR       A1, [A1, #0]          ; [DPU_V7M3_PIPE] |614|  ; [ORIG 16-BIT INS]
    1653 0000027e 6008              STR       A1, [A2, #0]          ; [DPU_V7M3_PIPE] |614|  ; [ORIG 16-BIT INS]
    1654                            .dwpsn  file "../driverlib/flash.c",line 615,column 5,is_stmt,isa 1
    1655                    ;----------------------------------------------------------------------
    1656                    ; 615 | *pui32User3 = HWREG(FLASH_USERREG3);                                   
    1657                    ; 617 | //                                                                     
    1658                    ; 618 | // Success.                                                            
    1659                    ; 619 | //                                                                     
    1660                    ;----------------------------------------------------------------------
    1661 00000280 4854              LDR       A1, $C$CON16          ; [DPU_V7M3_PIPE] |615|  ; [ORIG 16-BIT INS]
    1662 00000282 9903              LDR       A2, [SP, #12]         ; [DPU_V7M3_PIPE] |615|  ; [ORIG 16-BIT INS]
    1663 00000284 6800              LDR       A1, [A1, #0]          ; [DPU_V7M3_PIPE] |615|  ; [ORIG 16-BIT INS]
    1664 00000286 6008              STR       A1, [A2, #0]          ; [DPU_V7M3_PIPE] |615|  ; [ORIG 16-BIT INS]
    1665                            .dwpsn  file "../driverlib/flash.c",line 620,column 5,is_stmt,isa 1
    1666                    ;----------------------------------------------------------------------
    1667                    ; 620 | return(0);                                                             
    1668                    ;----------------------------------------------------------------------
    1669 00000288 2000              MOVS      A1, #0                ; [DPU_V7M3_PIPE] |620|  ; [ORIG 16-BIT INS]
    1670                            .dwpsn  file "../driverlib/flash.c",line 621,column 1,is_stmt,isa 1
    1671 0000028a B004              ADD       SP, SP, #16           ; [DPU_V7M3_PIPE]  ; [ORIG 16-BIT INS]
    1672                            .dwcfi  cfa_offset, 0
    1673                    $C$DW$64        .dwtag  DW_TAG_TI_branch
    1674                            .dwattr $C$DW$64, DW_AT_low_pc(0x00)
    1675                            .dwattr $C$DW$64, DW_AT_TI_return
    1676                    
    1677 0000028c 4770              BX        LR                    ; [DPU_V7M3_PIPE]  ; [ORIG 16-BIT INS]
    1678                            ; BRANCH OCCURS                  ; [] 
    1679                            .dwattr $C$DW$55, DW_AT_TI_end_file("../driverlib/flash.c")
    1680                            .dwattr $C$DW$55, DW_AT_TI_end_line(0x26d)
    1681                            .dwattr $C$DW$55, DW_AT_TI_end_column(0x01)
    1682                            .dwendentry
    1683                            .dwendtag $C$DW$55
    1684                    
    1685 0000028e                   .sect   ".text"
    1686                            .clink
    1687                            .thumbfunc FlashAllUserRegisterSet
    1688 0000028e                   .thumb
    1689                            .global FlashAllUserRegisterSet
    1690                    
    1691                    $C$DW$65        .dwtag  DW_TAG_subprogram
    1692                            .dwattr $C$DW$65, DW_AT_name("FlashAllUserRegisterSet")
    1693                            .dwattr $C$DW$65, DW_AT_low_pc(FlashAllUserRegisterSet)
    1694                            .dwattr $C$DW$65, DW_AT_high_pc(0x00)
    1695                            .dwattr $C$DW$65, DW_AT_TI_symbol_name("FlashAllUserRegisterSet")
    1696                            .dwattr $C$DW$65, DW_AT_external
    1697                            .dwattr $C$DW$65, DW_AT_type(*$C$DW$T$86)
    1698                            .dwattr $C$DW$65, DW_AT_TI_begin_file("../driverlib/flash.c")
    1699                            .dwattr $C$DW$65, DW_AT_TI_begin_line(0x27f)
    1700                            .dwattr $C$DW$65, DW_AT_TI_begin_column(0x01)
    1701                            .dwattr $C$DW$65, DW_AT_decl_file("../driverlib/flash.c")
    1702                            .dwattr $C$DW$65, DW_AT_decl_line(0x27f)
    1703                            .dwattr $C$DW$65, DW_AT_decl_column(0x01)
    1704                            .dwattr $C$DW$65, DW_AT_TI_max_frame_size(0x10)
    1705                            .dwpsn  file "../driverlib/flash.c",line 641,column 1,is_stmt,address FlashAllUserRegisterSet,
TI ARM Assembler Unix v18.1.1 Fri Jul  3 20:08:24 2020

Tools Copyright (c) 1996-2017 Texas Instruments Incorporated
flash.asm                                                            PAGE   32

    1706                    
    1707                            .dwfde $C$DW$CIE, FlashAllUserRegisterSet
    1708                    $C$DW$66        .dwtag  DW_TAG_formal_parameter
    1709                            .dwattr $C$DW$66, DW_AT_name("ui32User0")
    1710                            .dwattr $C$DW$66, DW_AT_TI_symbol_name("ui32User0")
    1711                            .dwattr $C$DW$66, DW_AT_type(*$C$DW$T$26)
    1712                            .dwattr $C$DW$66, DW_AT_location[DW_OP_reg0]
    1713                    
    1714                    $C$DW$67        .dwtag  DW_TAG_formal_parameter
    1715                            .dwattr $C$DW$67, DW_AT_name("ui32User1")
    1716                            .dwattr $C$DW$67, DW_AT_TI_symbol_name("ui32User1")
    1717                            .dwattr $C$DW$67, DW_AT_type(*$C$DW$T$26)
    1718                            .dwattr $C$DW$67, DW_AT_location[DW_OP_reg1]
    1719                    
    1720                    $C$DW$68        .dwtag  DW_TAG_formal_parameter
    1721                            .dwattr $C$DW$68, DW_AT_name("ui32User2")
    1722                            .dwattr $C$DW$68, DW_AT_TI_symbol_name("ui32User2")
    1723                            .dwattr $C$DW$68, DW_AT_type(*$C$DW$T$26)
    1724                            .dwattr $C$DW$68, DW_AT_location[DW_OP_reg2]
    1725                    
    1726                    $C$DW$69        .dwtag  DW_TAG_formal_parameter
    1727                            .dwattr $C$DW$69, DW_AT_name("ui32User3")
    1728                            .dwattr $C$DW$69, DW_AT_TI_symbol_name("ui32User3")
    1729                            .dwattr $C$DW$69, DW_AT_type(*$C$DW$T$26)
    1730                            .dwattr $C$DW$69, DW_AT_location[DW_OP_reg3]
    1731                    
    1732                    ;----------------------------------------------------------------------
    1733                    ; 639 | FlashAllUserRegisterSet(uint32_t ui32User0, uint32_t ui32User1,        
    1734                    ; 640 | uint32_t ui32User2, uint32_t ui32User3)                                
    1735                    ;----------------------------------------------------------------------
    1736                    
    1737                    ;*****************************************************************************
    1738                    ;* FUNCTION NAME: FlashAllUserRegisterSet                                    *
    1739                    ;*                                                                           *
    1740                    ;*   Regs Modified     : A1,A2,SP,SR                                         *
    1741                    ;*   Regs Used         : A1,A2,A3,A4,SP,LR,SR                                *
    1742                    ;*   Local Frame Size  : 0 Args + 16 Auto + 0 Save = 16 byte                 *
    1743                    ;*****************************************************************************
    1744 0000028e           FlashAllUserRegisterSet:
    1745                    ;* --------------------------------------------------------------------------*
    1746                            .dwcfi  cfa_offset, 0
    1747 0000028e 0D10F1AD          SUB       SP, SP, #16           ; [DPU_V7M3_PIPE]  ; [KEEP 32-BIT INS]
    1748                            .dwcfi  cfa_offset, 16
    1749                    $C$DW$70        .dwtag  DW_TAG_variable
    1750                            .dwattr $C$DW$70, DW_AT_name("ui32User0")
    1751                            .dwattr $C$DW$70, DW_AT_TI_symbol_name("ui32User0")
    1752                            .dwattr $C$DW$70, DW_AT_type(*$C$DW$T$26)
    1753                            .dwattr $C$DW$70, DW_AT_location[DW_OP_breg13 0]
    1754                    
    1755                    $C$DW$71        .dwtag  DW_TAG_variable
    1756                            .dwattr $C$DW$71, DW_AT_name("ui32User1")
    1757                            .dwattr $C$DW$71, DW_AT_TI_symbol_name("ui32User1")
    1758                            .dwattr $C$DW$71, DW_AT_type(*$C$DW$T$26)
    1759                            .dwattr $C$DW$71, DW_AT_location[DW_OP_breg13 4]
    1760                    
TI ARM Assembler Unix v18.1.1 Fri Jul  3 20:08:24 2020

Tools Copyright (c) 1996-2017 Texas Instruments Incorporated
flash.asm                                                            PAGE   33

    1761                    $C$DW$72        .dwtag  DW_TAG_variable
    1762                            .dwattr $C$DW$72, DW_AT_name("ui32User2")
    1763                            .dwattr $C$DW$72, DW_AT_TI_symbol_name("ui32User2")
    1764                            .dwattr $C$DW$72, DW_AT_type(*$C$DW$T$26)
    1765                            .dwattr $C$DW$72, DW_AT_location[DW_OP_breg13 8]
    1766                    
    1767                    $C$DW$73        .dwtag  DW_TAG_variable
    1768                            .dwattr $C$DW$73, DW_AT_name("ui32User3")
    1769                            .dwattr $C$DW$73, DW_AT_TI_symbol_name("ui32User3")
    1770                            .dwattr $C$DW$73, DW_AT_type(*$C$DW$T$26)
    1771                            .dwattr $C$DW$73, DW_AT_location[DW_OP_breg13 12]
    1772                    
    1773                    ;----------------------------------------------------------------------
    1774                    ; 642 | //                                                                     
    1775                    ; 643 | // Save the new values into the user registers.                        
    1776                    ; 644 | //                                                                     
    1777                    ;----------------------------------------------------------------------
    1778 00000292 9303              STR       A4, [SP, #12]         ; [DPU_V7M3_PIPE] |641|  ; [ORIG 16-BIT INS]
    1779 00000294 9202              STR       A3, [SP, #8]          ; [DPU_V7M3_PIPE] |641|  ; [ORIG 16-BIT INS]
    1780 00000296 9101              STR       A2, [SP, #4]          ; [DPU_V7M3_PIPE] |641|  ; [ORIG 16-BIT INS]
    1781 00000298 9000              STR       A1, [SP, #0]          ; [DPU_V7M3_PIPE] |641|  ; [ORIG 16-BIT INS]
    1782                            .dwpsn  file "../driverlib/flash.c",line 645,column 5,is_stmt,isa 1
    1783                    ;----------------------------------------------------------------------
    1784                    ; 645 | HWREG(FLASH_USERREG0) = ui32User0;                                     
    1785                    ;----------------------------------------------------------------------
    1786 0000029a 494B              LDR       A2, $C$CON13          ; [DPU_V7M3_PIPE] |645|  ; [ORIG 16-BIT INS]
    1787 0000029c 9800              LDR       A1, [SP, #0]          ; [DPU_V7M3_PIPE] |645|  ; [ORIG 16-BIT INS]
    1788 0000029e 6008              STR       A1, [A2, #0]          ; [DPU_V7M3_PIPE] |645|  ; [ORIG 16-BIT INS]
    1789                            .dwpsn  file "../driverlib/flash.c",line 646,column 5,is_stmt,isa 1
    1790                    ;----------------------------------------------------------------------
    1791                    ; 646 | HWREG(FLASH_USERREG1) = ui32User1;                                     
    1792                    ;----------------------------------------------------------------------
    1793 000002a0 494A              LDR       A2, $C$CON14          ; [DPU_V7M3_PIPE] |646|  ; [ORIG 16-BIT INS]
    1794 000002a2 9801              LDR       A1, [SP, #4]          ; [DPU_V7M3_PIPE] |646|  ; [ORIG 16-BIT INS]
    1795 000002a4 6008              STR       A1, [A2, #0]          ; [DPU_V7M3_PIPE] |646|  ; [ORIG 16-BIT INS]
    1796                            .dwpsn  file "../driverlib/flash.c",line 647,column 5,is_stmt,isa 1
    1797                    ;----------------------------------------------------------------------
    1798                    ; 647 | HWREG(FLASH_USERREG2) = ui32User2;                                     
    1799                    ;----------------------------------------------------------------------
    1800 000002a6 494A              LDR       A2, $C$CON15          ; [DPU_V7M3_PIPE] |647|  ; [ORIG 16-BIT INS]
    1801 000002a8 9802              LDR       A1, [SP, #8]          ; [DPU_V7M3_PIPE] |647|  ; [ORIG 16-BIT INS]
    1802 000002aa 6008              STR       A1, [A2, #0]          ; [DPU_V7M3_PIPE] |647|  ; [ORIG 16-BIT INS]
    1803                            .dwpsn  file "../driverlib/flash.c",line 648,column 5,is_stmt,isa 1
    1804                    ;----------------------------------------------------------------------
    1805                    ; 648 | HWREG(FLASH_USERREG3) = ui32User3;                                     
    1806                    ; 650 | //                                                                     
    1807                    ; 651 | // Success.                                                            
    1808                    ; 652 | //                                                                     
    1809                    ;----------------------------------------------------------------------
    1810 000002ac 4949              LDR       A2, $C$CON16          ; [DPU_V7M3_PIPE] |648|  ; [ORIG 16-BIT INS]
    1811 000002ae 9803              LDR       A1, [SP, #12]         ; [DPU_V7M3_PIPE] |648|  ; [ORIG 16-BIT INS]
    1812 000002b0 6008              STR       A1, [A2, #0]          ; [DPU_V7M3_PIPE] |648|  ; [ORIG 16-BIT INS]
    1813                            .dwpsn  file "../driverlib/flash.c",line 653,column 5,is_stmt,isa 1
    1814                    ;----------------------------------------------------------------------
    1815                    ; 653 | return(0);                                                             
TI ARM Assembler Unix v18.1.1 Fri Jul  3 20:08:24 2020

Tools Copyright (c) 1996-2017 Texas Instruments Incorporated
flash.asm                                                            PAGE   34

    1816                    ;----------------------------------------------------------------------
    1817 000002b2 2000              MOVS      A1, #0                ; [DPU_V7M3_PIPE] |653|  ; [ORIG 16-BIT INS]
    1818                            .dwpsn  file "../driverlib/flash.c",line 654,column 1,is_stmt,isa 1
    1819 000002b4 B004              ADD       SP, SP, #16           ; [DPU_V7M3_PIPE]  ; [ORIG 16-BIT INS]
    1820                            .dwcfi  cfa_offset, 0
    1821                    $C$DW$74        .dwtag  DW_TAG_TI_branch
    1822                            .dwattr $C$DW$74, DW_AT_low_pc(0x00)
    1823                            .dwattr $C$DW$74, DW_AT_TI_return
    1824                    
    1825 000002b6 4770              BX        LR                    ; [DPU_V7M3_PIPE]  ; [ORIG 16-BIT INS]
    1826                            ; BRANCH OCCURS                  ; [] 
    1827                            .dwattr $C$DW$65, DW_AT_TI_end_file("../driverlib/flash.c")
    1828                            .dwattr $C$DW$65, DW_AT_TI_end_line(0x28e)
    1829                            .dwattr $C$DW$65, DW_AT_TI_end_column(0x01)
    1830                            .dwendentry
    1831                            .dwendtag $C$DW$65
    1832                    
    1833                    ;******************************************************************************
    1834                    ;* CONSTANT TABLE                                                             *
    1835                    ;******************************************************************************
    1836 000002b8                   .sect   ".text"
    1837                            .align  4
    1838 000002b8 400FD014  ||$C$CON1||:    .bits   1074778132,32
    1839                            .align  4
    1840 000002bc 400FD000  ||$C$CON2||:    .bits   1074778112,32
    1841                            .align  4
    1842 000002c0 A4420002  ||$C$CON4||:    .bits   -1539178494,32
    1843                            .align  4
    1844 000002c4 400FD00C  ||$C$CON5||:    .bits   1074778124,32
    1845 000002c8                   .sect   ".text"
    1846                            .clink
    1847                            .thumbfunc FlashUserSave
    1848 000002c8                   .thumb
    1849                            .global FlashUserSave
    1850                    
    1851                    $C$DW$75        .dwtag  DW_TAG_subprogram
    1852                            .dwattr $C$DW$75, DW_AT_name("FlashUserSave")
    1853                            .dwattr $C$DW$75, DW_AT_low_pc(FlashUserSave)
    1854                            .dwattr $C$DW$75, DW_AT_high_pc(0x00)
    1855                            .dwattr $C$DW$75, DW_AT_TI_symbol_name("FlashUserSave")
    1856                            .dwattr $C$DW$75, DW_AT_external
    1857                            .dwattr $C$DW$75, DW_AT_type(*$C$DW$T$86)
    1858                            .dwattr $C$DW$75, DW_AT_TI_begin_file("../driverlib/flash.c")
    1859                            .dwattr $C$DW$75, DW_AT_TI_begin_line(0x29e)
    1860                            .dwattr $C$DW$75, DW_AT_TI_begin_column(0x01)
    1861                            .dwattr $C$DW$75, DW_AT_decl_file("../driverlib/flash.c")
    1862                            .dwattr $C$DW$75, DW_AT_decl_line(0x29e)
    1863                            .dwattr $C$DW$75, DW_AT_decl_column(0x01)
    1864                            .dwattr $C$DW$75, DW_AT_TI_max_frame_size(0x00)
    1865                            .dwpsn  file "../driverlib/flash.c",line 671,column 1,is_stmt,address FlashUserSave,isa 1
    1866                    
    1867                            .dwfde $C$DW$CIE, FlashUserSave
    1868                    ;----------------------------------------------------------------------
    1869                    ; 670 | FlashUserSave(void)                                                    
    1870                    ; 672 | //                                                                     
TI ARM Assembler Unix v18.1.1 Fri Jul  3 20:08:24 2020

Tools Copyright (c) 1996-2017 Texas Instruments Incorporated
flash.asm                                                            PAGE   35

    1871                    ; 673 | // Setting the MSB of FMA will trigger a permanent save of a USER      
    1872                    ; 674 | // register.  Bit 0 will indicate User 0 (0) or User 1 (1).            
    1873                    ; 675 | //                                                                     
    1874                    ;----------------------------------------------------------------------
    1875                    
    1876                    ;*****************************************************************************
    1877                    ;* FUNCTION NAME: FlashUserSave                                              *
    1878                    ;*                                                                           *
    1879                    ;*   Regs Modified     : A1,A2,SR                                            *
    1880                    ;*   Regs Used         : A1,A2,LR,SR                                         *
    1881                    ;*   Local Frame Size  : 0 Args + 0 Auto + 0 Save = 0 byte                   *
    1882                    ;*****************************************************************************
    1883 000002c8           FlashUserSave:
    1884                    ;* --------------------------------------------------------------------------*
    1885                            .dwcfi  cfa_offset, 0
    1886                            .dwpsn  file "../driverlib/flash.c",line 676,column 5,is_stmt,isa 1
    1887                    ;----------------------------------------------------------------------
    1888                    ; 676 | HWREG(FLASH_FMA) = 0x80000000;                                         
    1889                    ;----------------------------------------------------------------------
    1890 000002c8 4945              LDR       A2, $C$CON19          ; [DPU_V7M3_PIPE] |676|  ; [ORIG 16-BIT INS]
    1891 000002ca 4000F04F          MOV       A1, #-2147483648      ; [DPU_V7M3_PIPE] |676|  ; [KEEP 32-BIT INS]
    1892 000002ce 6008              STR       A1, [A2, #0]          ; [DPU_V7M3_PIPE] |676|  ; [ORIG 16-BIT INS]
    1893                            .dwpsn  file "../driverlib/flash.c",line 677,column 5,is_stmt,isa 1
    1894                    ;----------------------------------------------------------------------
    1895                    ; 677 | HWREG(FLASH_FMC) = FLASH_FMC_WRKEY | FLASH_FMC_COMT;                   
    1896                    ; 679 | //                                                                     
    1897                    ; 680 | // Wait until the write has completed.                                 
    1898                    ; 681 | //                                                                     
    1899                    ;----------------------------------------------------------------------
    1900 000002d0 483C              LDR       A1, $C$CON12          ; [DPU_V7M3_PIPE] |677|  ; [ORIG 16-BIT INS]
    1901 000002d2 4942              LDR       A2, $C$CON18          ; [DPU_V7M3_PIPE] |677|  ; [ORIG 16-BIT INS]
    1902 000002d4 6008              STR       A1, [A2, #0]          ; [DPU_V7M3_PIPE] |677|  ; [ORIG 16-BIT INS]
    1903                            .dwpsn  file "../driverlib/flash.c",line 682,column 5,is_stmt,isa 1
    1904                    ;----------------------------------------------------------------------
    1905                    ; 682 | while(HWREG(FLASH_FMC) & FLASH_FMC_COMT)                               
    1906                    ; 686 | //                                                                     
    1907                    ; 687 | // Tell the flash controller to write the USER1 Register.              
    1908                    ; 688 | //                                                                     
    1909                    ;----------------------------------------------------------------------
    1910                    ;* --------------------------------------------------------------------------*
    1911                    ;*   BEGIN LOOP ||$C$L30||
    1912                    ;*
    1913                    ;*   Loop source line                : 682
    1914                    ;*   Loop closing brace source line  : 684
    1915                    ;*   Known Minimum Trip Count        : 1
    1916                    ;*   Known Maximum Trip Count        : 4294967295
    1917                    ;*   Known Max Trip Count Factor     : 1
    1918                    ;* --------------------------------------------------------------------------*
    1919 000002d6           ||$C$L30||:    
    1920 000002d6 4841              LDR       A1, $C$CON18          ; [DPU_V7M3_PIPE] |682|  ; [ORIG 16-BIT INS]
    1921 000002d8 6800              LDR       A1, [A1, #0]          ; [DPU_V7M3_PIPE] |682|  ; [ORIG 16-BIT INS]
    1922 000002da 0900              LSRS      A1, A1, #4            ; [DPU_V7M3_PIPE] |682|  ; [ORIG 16-BIT INS]
    1923 000002dc D2FB              BCS       ||$C$L30||            ; [DPU_V7M3_PIPE] |682|  ; [ORIG 16-BIT INS]
    1924                            ; BRANCHCC OCCURS {||$C$L30||}   ; [] |682| 
    1925                    ;* --------------------------------------------------------------------------*
TI ARM Assembler Unix v18.1.1 Fri Jul  3 20:08:24 2020

Tools Copyright (c) 1996-2017 Texas Instruments Incorporated
flash.asm                                                            PAGE   36

    1926 000002de E001              B         ||$C$L31||            ; []  ; [ORIG 16-BIT INS]
    1927                            ; BRANCH OCCURS {||$C$L31||}     ; [] 
    1928                    ;******************************************************************************
    1929                    ;* CONSTANT TABLE                                                             *
    1930                    ;******************************************************************************
    1931 000002e0                   .sect   ".text"
    1932                            .align  4
    1933 000002e0 400FD008  ||$C$CON3||:    .bits   1074778120,32
    1934                    ;* --------------------------------------------------------------------------*
    1935 000002e4           ||$C$L31||:    
    1936                            .dwpsn  file "../driverlib/flash.c",line 689,column 5,is_stmt,isa 1
    1937                    ;----------------------------------------------------------------------
    1938                    ; 689 | HWREG(FLASH_FMA) = 0x80000001;                                         
    1939                    ;----------------------------------------------------------------------
    1940 000002e4 483C              LDR       A1, $C$CON17          ; [DPU_V7M3_PIPE] |689|  ; [ORIG 16-BIT INS]
    1941 000002e6 493E              LDR       A2, $C$CON19          ; [DPU_V7M3_PIPE] |689|  ; [ORIG 16-BIT INS]
    1942 000002e8 6008              STR       A1, [A2, #0]          ; [DPU_V7M3_PIPE] |689|  ; [ORIG 16-BIT INS]
    1943                            .dwpsn  file "../driverlib/flash.c",line 690,column 5,is_stmt,isa 1
    1944                    ;----------------------------------------------------------------------
    1945                    ; 690 | HWREG(FLASH_FMC) = FLASH_FMC_WRKEY | FLASH_FMC_COMT;                   
    1946                    ; 692 | //                                                                     
    1947                    ; 693 | // Wait until the write has completed.                                 
    1948                    ; 694 | //                                                                     
    1949                    ;----------------------------------------------------------------------
    1950 000002ea 4836              LDR       A1, $C$CON12          ; [DPU_V7M3_PIPE] |690|  ; [ORIG 16-BIT INS]
    1951 000002ec 493B              LDR       A2, $C$CON18          ; [DPU_V7M3_PIPE] |690|  ; [ORIG 16-BIT INS]
    1952 000002ee 6008              STR       A1, [A2, #0]          ; [DPU_V7M3_PIPE] |690|  ; [ORIG 16-BIT INS]
    1953                            .dwpsn  file "../driverlib/flash.c",line 695,column 5,is_stmt,isa 1
    1954                    ;----------------------------------------------------------------------
    1955                    ; 695 | while(HWREG(FLASH_FMC) & FLASH_FMC_COMT)                               
    1956                    ; 699 | //                                                                     
    1957                    ; 700 | // Success.                                                            
    1958                    ; 701 | //                                                                     
    1959                    ;----------------------------------------------------------------------
    1960                    ;* --------------------------------------------------------------------------*
    1961                    ;*   BEGIN LOOP ||$C$L32||
    1962                    ;*
    1963                    ;*   Loop source line                : 695
    1964                    ;*   Loop closing brace source line  : 697
    1965                    ;*   Known Minimum Trip Count        : 1
    1966                    ;*   Known Maximum Trip Count        : 4294967295
    1967                    ;*   Known Max Trip Count Factor     : 1
    1968                    ;* --------------------------------------------------------------------------*
    1969 000002f0           ||$C$L32||:    
    1970 000002f0 483A              LDR       A1, $C$CON18          ; [DPU_V7M3_PIPE] |695|  ; [ORIG 16-BIT INS]
    1971 000002f2 6800              LDR       A1, [A1, #0]          ; [DPU_V7M3_PIPE] |695|  ; [ORIG 16-BIT INS]
    1972 000002f4 0900              LSRS      A1, A1, #4            ; [DPU_V7M3_PIPE] |695|  ; [ORIG 16-BIT INS]
    1973 000002f6 D2FB              BCS       ||$C$L32||            ; [DPU_V7M3_PIPE] |695|  ; [ORIG 16-BIT INS]
    1974                            ; BRANCHCC OCCURS {||$C$L32||}   ; [] |695| 
    1975                    ;* --------------------------------------------------------------------------*
    1976                            .dwpsn  file "../driverlib/flash.c",line 702,column 5,is_stmt,isa 1
    1977                    ;----------------------------------------------------------------------
    1978                    ; 702 | return(0);                                                             
    1979                    ;----------------------------------------------------------------------
    1980 000002f8 2000              MOVS      A1, #0                ; [DPU_V7M3_PIPE] |702|  ; [ORIG 16-BIT INS]
TI ARM Assembler Unix v18.1.1 Fri Jul  3 20:08:24 2020

Tools Copyright (c) 1996-2017 Texas Instruments Incorporated
flash.asm                                                            PAGE   37

    1981                            .dwpsn  file "../driverlib/flash.c",line 703,column 1,is_stmt,isa 1
    1982                    $C$DW$76        .dwtag  DW_TAG_TI_branch
    1983                            .dwattr $C$DW$76, DW_AT_low_pc(0x00)
    1984                            .dwattr $C$DW$76, DW_AT_TI_return
    1985                    
    1986 000002fa 4770              BX        LR                    ; [DPU_V7M3_PIPE]  ; [ORIG 16-BIT INS]
    1987                            ; BRANCH OCCURS                  ; [] 
    1988                            .dwattr $C$DW$75, DW_AT_TI_end_file("../driverlib/flash.c")
    1989                            .dwattr $C$DW$75, DW_AT_TI_end_line(0x2bf)
    1990                            .dwattr $C$DW$75, DW_AT_TI_end_column(0x01)
    1991                            .dwendentry
    1992                            .dwendtag $C$DW$75
    1993                    
    1994                    ;******************************************************************************
    1995                    ;* CONSTANT TABLE                                                             *
    1996                    ;******************************************************************************
    1997 000002fc                   .sect   ".text"
    1998                            .align  4
    1999 000002fc 400FD100  ||$C$CON6||:    .bits   1074778368,32
    2000 00000300                   .sect   ".text"
    2001                            .clink
    2002                            .thumbfunc FlashAllUserRegisterSave
    2003 00000300                   .thumb
    2004                            .global FlashAllUserRegisterSave
    2005                    
    2006                    $C$DW$77        .dwtag  DW_TAG_subprogram
    2007                            .dwattr $C$DW$77, DW_AT_name("FlashAllUserRegisterSave")
    2008                            .dwattr $C$DW$77, DW_AT_low_pc(FlashAllUserRegisterSave)
    2009                            .dwattr $C$DW$77, DW_AT_high_pc(0x00)
    2010                            .dwattr $C$DW$77, DW_AT_TI_symbol_name("FlashAllUserRegisterSave")
    2011                            .dwattr $C$DW$77, DW_AT_external
    2012                            .dwattr $C$DW$77, DW_AT_type(*$C$DW$T$86)
    2013                            .dwattr $C$DW$77, DW_AT_TI_begin_file("../driverlib/flash.c")
    2014                            .dwattr $C$DW$77, DW_AT_TI_begin_line(0x2d2)
    2015                            .dwattr $C$DW$77, DW_AT_TI_begin_column(0x01)
    2016                            .dwattr $C$DW$77, DW_AT_decl_file("../driverlib/flash.c")
    2017                            .dwattr $C$DW$77, DW_AT_decl_line(0x2d2)
    2018                            .dwattr $C$DW$77, DW_AT_decl_column(0x01)
    2019                            .dwattr $C$DW$77, DW_AT_TI_max_frame_size(0x08)
    2020                            .dwpsn  file "../driverlib/flash.c",line 723,column 1,is_stmt,address FlashAllUserRegisterSave
    2021                    
    2022                            .dwfde $C$DW$CIE, FlashAllUserRegisterSave
    2023                    ;----------------------------------------------------------------------
    2024                    ; 722 | FlashAllUserRegisterSave(void)                                         
    2025                    ; 724 | uint32_t ui32Index;                                                    
    2026                    ; 726 | //                                                                     
    2027                    ; 727 | // Setting the MSB of FMA will trigger a permanent save of a USER Regis
    2028                    ;     | ter.                                                                   
    2029                    ; 728 | // The 2 least signigicant bits, specify the exact User Register to sav
    2030                    ;     | e.                                                                     
    2031                    ; 729 | // The value of the least significant bits for                         
    2032                    ; 730 | // USER Register 0 is 00,                                              
    2033                    ; 731 | // USER Register 1 is 01,                                              
    2034                    ; 732 | // USER Register 2 is 10 and                                           
    2035                    ; 733 | // USER Register 3 is 11.                                              
TI ARM Assembler Unix v18.1.1 Fri Jul  3 20:08:24 2020

Tools Copyright (c) 1996-2017 Texas Instruments Incorporated
flash.asm                                                            PAGE   38

    2036                    ; 734 | //                                                                     
    2037                    ;----------------------------------------------------------------------
    2038                    
    2039                    ;*****************************************************************************
    2040                    ;* FUNCTION NAME: FlashAllUserRegisterSave                                   *
    2041                    ;*                                                                           *
    2042                    ;*   Regs Modified     : A1,A2,SP,SR                                         *
    2043                    ;*   Regs Used         : A1,A2,SP,LR,SR                                      *
    2044                    ;*   Local Frame Size  : 0 Args + 4 Auto + 0 Save = 4 byte                   *
    2045                    ;*****************************************************************************
    2046 00000300           FlashAllUserRegisterSave:
    2047                    ;* --------------------------------------------------------------------------*
    2048                            .dwcfi  cfa_offset, 0
    2049 00000300 0D08F1AD          SUB       SP, SP, #8            ; [DPU_V7M3_PIPE]  ; [KEEP 32-BIT INS]
    2050                            .dwcfi  cfa_offset, 8
    2051                    $C$DW$78        .dwtag  DW_TAG_variable
    2052                            .dwattr $C$DW$78, DW_AT_name("ui32Index")
    2053                            .dwattr $C$DW$78, DW_AT_TI_symbol_name("ui32Index")
    2054                            .dwattr $C$DW$78, DW_AT_type(*$C$DW$T$26)
    2055                            .dwattr $C$DW$78, DW_AT_location[DW_OP_breg13 0]
    2056                    
    2057                            .dwpsn  file "../driverlib/flash.c",line 735,column 9,is_stmt,isa 1
    2058                    ;----------------------------------------------------------------------
    2059                    ; 735 | for(ui32Index = 0; ui32Index < 4; ui32Index++)                         
    2060                    ;----------------------------------------------------------------------
    2061 00000304 2000              MOVS      A1, #0                ; [DPU_V7M3_PIPE] |735|  ; [ORIG 16-BIT INS]
    2062 00000306 9000              STR       A1, [SP, #0]          ; [DPU_V7M3_PIPE] |735|  ; [ORIG 16-BIT INS]
    2063                            .dwpsn  file "../driverlib/flash.c",line 735,column 24,is_stmt,isa 1
    2064                    ;----------------------------------------------------------------------
    2065                    ; 737 | //                                                                     
    2066                    ; 738 | // Tell the flash controller to commit a USER Register.                
    2067                    ; 739 | //                                                                     
    2068                    ;----------------------------------------------------------------------
    2069 00000308 9800              LDR       A1, [SP, #0]          ; [DPU_V7M3_PIPE] |735|  ; [ORIG 16-BIT INS]
    2070 0000030a 2804              CMP       A1, #4                ; [DPU_V7M3_PIPE] |735|  ; [ORIG 16-BIT INS]
    2071 0000030c D211              BCS       ||$C$L35||            ; [DPU_V7M3_PIPE] |735|  ; [ORIG 16-BIT INS]
    2072                            ; BRANCHCC OCCURS {||$C$L35||}   ; [] |735| 
    2073                    ;* --------------------------------------------------------------------------*
    2074                    ;*   BEGIN LOOP ||$C$L33||
    2075                    ;*
    2076                    ;*   Loop source line                : 735
    2077                    ;*   Loop closing brace source line  : 749
    2078                    ;*   Known Minimum Trip Count        : 1
    2079                    ;*   Known Maximum Trip Count        : 4294967295
    2080                    ;*   Known Max Trip Count Factor     : 1
    2081                    ;* --------------------------------------------------------------------------*
    2082 0000030e           ||$C$L33||:    
    2083                            .dwpsn  file "../driverlib/flash.c",line 740,column 9,is_stmt,isa 1
    2084                    ;----------------------------------------------------------------------
    2085                    ; 740 | HWREG(FLASH_FMA) = (0x80000000 + ui32Index);                           
    2086                    ;----------------------------------------------------------------------
    2087 0000030e 9800              LDR       A1, [SP, #0]          ; [DPU_V7M3_PIPE] |740|  ; [ORIG 16-BIT INS]
    2088 00000310 4933              LDR       A2, $C$CON19          ; [DPU_V7M3_PIPE] |740|  ; [ORIG 16-BIT INS]
    2089 00000312 4000F100          ADD       A1, A1, #-2147483648  ; [DPU_V7M3_PIPE] |740|  ; [KEEP 32-BIT INS]
    2090 00000316 6008              STR       A1, [A2, #0]          ; [DPU_V7M3_PIPE] |740|  ; [ORIG 16-BIT INS]
TI ARM Assembler Unix v18.1.1 Fri Jul  3 20:08:24 2020

Tools Copyright (c) 1996-2017 Texas Instruments Incorporated
flash.asm                                                            PAGE   39

    2091                            .dwpsn  file "../driverlib/flash.c",line 741,column 9,is_stmt,isa 1
    2092                    ;----------------------------------------------------------------------
    2093                    ; 741 | HWREG(FLASH_FMC) = FLASH_FMC_WRKEY | FLASH_FMC_COMT;                   
    2094                    ; 743 | //                                                                     
    2095                    ; 744 | // Wait until the write has completed.                                 
    2096                    ; 745 | //                                                                     
    2097                    ;----------------------------------------------------------------------
    2098 00000318 482A              LDR       A1, $C$CON12          ; [DPU_V7M3_PIPE] |741|  ; [ORIG 16-BIT INS]
    2099 0000031a 4930              LDR       A2, $C$CON18          ; [DPU_V7M3_PIPE] |741|  ; [ORIG 16-BIT INS]
    2100 0000031c 6008              STR       A1, [A2, #0]          ; [DPU_V7M3_PIPE] |741|  ; [ORIG 16-BIT INS]
    2101                            .dwpsn  file "../driverlib/flash.c",line 746,column 9,is_stmt,isa 1
    2102                    ;----------------------------------------------------------------------
    2103                    ; 746 | while(HWREG(FLASH_FMC) & FLASH_FMC_COMT)                               
    2104                    ; 751 | //                                                                     
    2105                    ; 752 | // Success.                                                            
    2106                    ; 753 | //                                                                     
    2107                    ;----------------------------------------------------------------------
    2108                    ;* --------------------------------------------------------------------------*
    2109                    ;*   BEGIN LOOP ||$C$L34||
    2110                    ;*
    2111                    ;*   Loop source line                : 746
    2112                    ;*   Loop closing brace source line  : 748
    2113                    ;*   Known Minimum Trip Count        : 1
    2114                    ;*   Known Maximum Trip Count        : 4294967295
    2115                    ;*   Known Max Trip Count Factor     : 1
    2116                    ;* --------------------------------------------------------------------------*
    2117 0000031e           ||$C$L34||:    
    2118 0000031e 482F              LDR       A1, $C$CON18          ; [DPU_V7M3_PIPE] |746|  ; [ORIG 16-BIT INS]
    2119 00000320 6800              LDR       A1, [A1, #0]          ; [DPU_V7M3_PIPE] |746|  ; [ORIG 16-BIT INS]
    2120 00000322 0900              LSRS      A1, A1, #4            ; [DPU_V7M3_PIPE] |746|  ; [ORIG 16-BIT INS]
    2121 00000324 D2FB              BCS       ||$C$L34||            ; [DPU_V7M3_PIPE] |746|  ; [ORIG 16-BIT INS]
    2122                            ; BRANCHCC OCCURS {||$C$L34||}   ; [] |746| 
    2123                    ;* --------------------------------------------------------------------------*
    2124                            .dwpsn  file "../driverlib/flash.c",line 735,column 39,is_stmt,isa 1
    2125 00000326 9800              LDR       A1, [SP, #0]          ; [DPU_V7M3_PIPE] |735|  ; [ORIG 16-BIT INS]
    2126 00000328 1C40              ADDS      A1, A1, #1            ; [DPU_V7M3_PIPE] |735|  ; [ORIG 16-BIT INS]
    2127 0000032a 9000              STR       A1, [SP, #0]          ; [DPU_V7M3_PIPE] |735|  ; [ORIG 16-BIT INS]
    2128                            .dwpsn  file "../driverlib/flash.c",line 735,column 24,is_stmt,isa 1
    2129 0000032c 9800              LDR       A1, [SP, #0]          ; [DPU_V7M3_PIPE] |735|  ; [ORIG 16-BIT INS]
    2130 0000032e 2804              CMP       A1, #4                ; [DPU_V7M3_PIPE] |735|  ; [ORIG 16-BIT INS]
    2131 00000330 D3ED              BCC       ||$C$L33||            ; [DPU_V7M3_PIPE] |735|  ; [ORIG 16-BIT INS]
    2132                            ; BRANCHCC OCCURS {||$C$L33||}   ; [] |735| 
    2133                    ;* --------------------------------------------------------------------------*
    2134 00000332           ||$C$L35||:    
    2135                            .dwpsn  file "../driverlib/flash.c",line 754,column 5,is_stmt,isa 1
    2136                    ;----------------------------------------------------------------------
    2137                    ; 754 | return(0);                                                             
    2138                    ;----------------------------------------------------------------------
    2139 00000332 2000              MOVS      A1, #0                ; [DPU_V7M3_PIPE] |754|  ; [ORIG 16-BIT INS]
    2140                            .dwpsn  file "../driverlib/flash.c",line 755,column 1,is_stmt,isa 1
    2141 00000334 B002              ADD       SP, SP, #8            ; [DPU_V7M3_PIPE]  ; [ORIG 16-BIT INS]
    2142                            .dwcfi  cfa_offset, 0
    2143                    $C$DW$79        .dwtag  DW_TAG_TI_branch
    2144                            .dwattr $C$DW$79, DW_AT_low_pc(0x00)
    2145                            .dwattr $C$DW$79, DW_AT_TI_return
TI ARM Assembler Unix v18.1.1 Fri Jul  3 20:08:24 2020

Tools Copyright (c) 1996-2017 Texas Instruments Incorporated
flash.asm                                                            PAGE   40

    2146                    
    2147 00000336 4770              BX        LR                    ; [DPU_V7M3_PIPE]  ; [ORIG 16-BIT INS]
    2148                            ; BRANCH OCCURS                  ; [] 
    2149                            .dwattr $C$DW$77, DW_AT_TI_end_file("../driverlib/flash.c")
    2150                            .dwattr $C$DW$77, DW_AT_TI_end_line(0x2f3)
    2151                            .dwattr $C$DW$77, DW_AT_TI_end_column(0x01)
    2152                            .dwendentry
    2153                            .dwendtag $C$DW$77
    2154                    
    2155 00000338                   .sect   ".text"
    2156                            .clink
    2157                            .thumbfunc FlashIntRegister
    2158 00000338                   .thumb
    2159                            .global FlashIntRegister
    2160                    
    2161                    $C$DW$80        .dwtag  DW_TAG_subprogram
    2162                            .dwattr $C$DW$80, DW_AT_name("FlashIntRegister")
    2163                            .dwattr $C$DW$80, DW_AT_low_pc(FlashIntRegister)
    2164                            .dwattr $C$DW$80, DW_AT_high_pc(0x00)
    2165                            .dwattr $C$DW$80, DW_AT_TI_symbol_name("FlashIntRegister")
    2166                            .dwattr $C$DW$80, DW_AT_external
    2167                            .dwattr $C$DW$80, DW_AT_TI_begin_file("../driverlib/flash.c")
    2168                            .dwattr $C$DW$80, DW_AT_TI_begin_line(0x30a)
    2169                            .dwattr $C$DW$80, DW_AT_TI_begin_column(0x01)
    2170                            .dwattr $C$DW$80, DW_AT_decl_file("../driverlib/flash.c")
    2171                            .dwattr $C$DW$80, DW_AT_decl_line(0x30a)
    2172                            .dwattr $C$DW$80, DW_AT_decl_column(0x01)
    2173                            .dwattr $C$DW$80, DW_AT_TI_max_frame_size(0x08)
    2174                            .dwpsn  file "../driverlib/flash.c",line 779,column 1,is_stmt,address FlashIntRegister,isa 1
    2175                    
    2176                            .dwfde $C$DW$CIE, FlashIntRegister
    2177                    $C$DW$81        .dwtag  DW_TAG_formal_parameter
    2178                            .dwattr $C$DW$81, DW_AT_name("pfnHandler")
    2179                            .dwattr $C$DW$81, DW_AT_TI_symbol_name("pfnHandler")
    2180                            .dwattr $C$DW$81, DW_AT_type(*$C$DW$T$30)
    2181                            .dwattr $C$DW$81, DW_AT_location[DW_OP_reg0]
    2182                    
    2183                    ;----------------------------------------------------------------------
    2184                    ; 778 | FlashIntRegister(void (*pfnHandler)(void))                             
    2185                    ;----------------------------------------------------------------------
    2186                    
    2187                    ;*****************************************************************************
    2188                    ;* FUNCTION NAME: FlashIntRegister                                           *
    2189                    ;*                                                                           *
    2190                    ;*   Regs Modified     : A1,A2,A3,A4,V9,SP,LR,SR,D0,D0_hi,D1,D1_hi,D2,D2_hi, *
    2191                    ;*                           D3,D3_hi,D4,D4_hi,D5,D5_hi,D6,D6_hi,D7,D7_hi,   *
    2192                    ;*                           FPEXC,FPSCR                                     *
    2193                    ;*   Regs Used         : A1,A2,A3,A4,V9,SP,LR,SR,D0,D0_hi,D1,D1_hi,D2,D2_hi, *
    2194                    ;*                           D3,D3_hi,D4,D4_hi,D5,D5_hi,D6,D6_hi,D7,D7_hi,   *
    2195                    ;*                           FPEXC,FPSCR                                     *
    2196                    ;*   Local Frame Size  : 0 Args + 4 Auto + 4 Save = 8 byte                   *
    2197                    ;*****************************************************************************
    2198 00000338           FlashIntRegister:
    2199                    ;* --------------------------------------------------------------------------*
    2200                            .dwcfi  cfa_offset, 0
TI ARM Assembler Unix v18.1.1 Fri Jul  3 20:08:24 2020

Tools Copyright (c) 1996-2017 Texas Instruments Incorporated
flash.asm                                                            PAGE   41

    2201 00000338 B508              PUSH      {A4, LR}              ; [DPU_V7M3_PIPE]  ; [ORIG 16-BIT INS]
    2202                            .dwcfi  cfa_offset, 8
    2203                            .dwcfi  save_reg_to_mem, 14, -4
    2204                            .dwcfi  save_reg_to_mem, 3, -8
    2205                    $C$DW$82        .dwtag  DW_TAG_variable
    2206                            .dwattr $C$DW$82, DW_AT_name("pfnHandler")
    2207                            .dwattr $C$DW$82, DW_AT_TI_symbol_name("pfnHandler")
    2208                            .dwattr $C$DW$82, DW_AT_type(*$C$DW$T$30)
    2209                            .dwattr $C$DW$82, DW_AT_location[DW_OP_breg13 0]
    2210                    
    2211                    ;----------------------------------------------------------------------
    2212                    ; 780 | //                                                                     
    2213                    ; 781 | // Register the interrupt handler, returning an error if an error occur
    2214                    ;     | s.                                                                     
    2215                    ; 782 | //                                                                     
    2216                    ;----------------------------------------------------------------------
    2217 0000033a 9000              STR       A1, [SP, #0]          ; [DPU_V7M3_PIPE] |779|  ; [ORIG 16-BIT INS]
    2218                            .dwpsn  file "../driverlib/flash.c",line 783,column 5,is_stmt,isa 1
    2219                    ;----------------------------------------------------------------------
    2220                    ; 783 | IntRegister(INT_FLASH_TM4C123, pfnHandler);                            
    2221                    ; 785 | //                                                                     
    2222                    ; 786 | // Enable the flash interrupt.                                         
    2223                    ; 787 | //                                                                     
    2224                    ;----------------------------------------------------------------------
    2225 0000033c 9900              LDR       A2, [SP, #0]          ; [DPU_V7M3_PIPE] |783|  ; [ORIG 16-BIT INS]
    2226 0000033e 202D              MOVS      A1, #45               ; [DPU_V7M3_PIPE] |783|  ; [ORIG 16-BIT INS]
    2227                    $C$DW$83        .dwtag  DW_TAG_TI_branch
    2228                            .dwattr $C$DW$83, DW_AT_low_pc(0x00)
    2229                            .dwattr $C$DW$83, DW_AT_name("IntRegister")
    2230                            .dwattr $C$DW$83, DW_AT_TI_call
    2231                    
    2232 00000340 FFFEF7FF!         BL        IntRegister           ; [DPU_V7M3_PIPE] |783|  ; [KEEP 32-BIT INS]
    2233                            ; CALL OCCURS {IntRegister }     ; [] |783| 
    2234                            .dwpsn  file "../driverlib/flash.c",line 788,column 5,is_stmt,isa 1
    2235                    ;----------------------------------------------------------------------
    2236                    ; 788 | IntEnable(INT_FLASH_TM4C123);                                          
    2237                    ;----------------------------------------------------------------------
    2238 00000344 202D              MOVS      A1, #45               ; [DPU_V7M3_PIPE] |788|  ; [ORIG 16-BIT INS]
    2239                    $C$DW$84        .dwtag  DW_TAG_TI_branch
    2240                            .dwattr $C$DW$84, DW_AT_low_pc(0x00)
    2241                            .dwattr $C$DW$84, DW_AT_name("IntEnable")
    2242                            .dwattr $C$DW$84, DW_AT_TI_call
    2243                    
    2244 00000346 FFFEF7FF!         BL        IntEnable             ; [DPU_V7M3_PIPE] |788|  ; [KEEP 32-BIT INS]
    2245                            ; CALL OCCURS {IntEnable }       ; [] |788| 
    2246                            .dwpsn  file "../driverlib/flash.c",line 789,column 1,is_stmt,isa 1
    2247                    $C$DW$85        .dwtag  DW_TAG_TI_branch
    2248                            .dwattr $C$DW$85, DW_AT_low_pc(0x00)
    2249                            .dwattr $C$DW$85, DW_AT_TI_return
    2250                    
    2251 0000034a BD08              POP       {A4, PC}              ; [DPU_V7M3_PIPE]  ; [ORIG 16-BIT INS]
    2252                            .dwcfi  cfa_offset, 0
    2253                            .dwcfi  restore_reg, 3
    2254                            ; BRANCH OCCURS                  ; [] 
    2255                            .dwattr $C$DW$80, DW_AT_TI_end_file("../driverlib/flash.c")
TI ARM Assembler Unix v18.1.1 Fri Jul  3 20:08:24 2020

Tools Copyright (c) 1996-2017 Texas Instruments Incorporated
flash.asm                                                            PAGE   42

    2256                            .dwattr $C$DW$80, DW_AT_TI_end_line(0x315)
    2257                            .dwattr $C$DW$80, DW_AT_TI_end_column(0x01)
    2258                            .dwendentry
    2259                            .dwendtag $C$DW$80
    2260                    
    2261                    ;******************************************************************************
    2262                    ;* CONSTANT TABLE                                                             *
    2263                    ;******************************************************************************
    2264 0000034c                   .sect   ".text"
    2265                            .align  4
    2266 0000034c 400FD030  ||$C$CON7||:    .bits   1074778160,32
    2267 00000350                   .sect   ".text"
    2268                            .clink
    2269                            .thumbfunc FlashIntUnregister
    2270 00000350                   .thumb
    2271                            .global FlashIntUnregister
    2272                    
    2273                    $C$DW$86        .dwtag  DW_TAG_subprogram
    2274                            .dwattr $C$DW$86, DW_AT_name("FlashIntUnregister")
    2275                            .dwattr $C$DW$86, DW_AT_low_pc(FlashIntUnregister)
    2276                            .dwattr $C$DW$86, DW_AT_high_pc(0x00)
    2277                            .dwattr $C$DW$86, DW_AT_TI_symbol_name("FlashIntUnregister")
    2278                            .dwattr $C$DW$86, DW_AT_external
    2279                            .dwattr $C$DW$86, DW_AT_TI_begin_file("../driverlib/flash.c")
    2280                            .dwattr $C$DW$86, DW_AT_TI_begin_line(0x326)
    2281                            .dwattr $C$DW$86, DW_AT_TI_begin_column(0x01)
    2282                            .dwattr $C$DW$86, DW_AT_decl_file("../driverlib/flash.c")
    2283                            .dwattr $C$DW$86, DW_AT_decl_line(0x326)
    2284                            .dwattr $C$DW$86, DW_AT_decl_column(0x01)
    2285                            .dwattr $C$DW$86, DW_AT_TI_max_frame_size(0x08)
    2286                            .dwpsn  file "../driverlib/flash.c",line 807,column 1,is_stmt,address FlashIntUnregister,isa 1
    2287                    
    2288                            .dwfde $C$DW$CIE, FlashIntUnregister
    2289                    ;----------------------------------------------------------------------
    2290                    ; 806 | FlashIntUnregister(void)                                               
    2291                    ; 808 | //                                                                     
    2292                    ; 809 | // Disable the interrupt.                                              
    2293                    ; 810 | //                                                                     
    2294                    ;----------------------------------------------------------------------
    2295                    
    2296                    ;*****************************************************************************
    2297                    ;* FUNCTION NAME: FlashIntUnregister                                         *
    2298                    ;*                                                                           *
    2299                    ;*   Regs Modified     : A1,A2,A3,A4,V9,SP,LR,SR,D0,D0_hi,D1,D1_hi,D2,D2_hi, *
    2300                    ;*                           D3,D3_hi,D4,D4_hi,D5,D5_hi,D6,D6_hi,D7,D7_hi,   *
    2301                    ;*                           FPEXC,FPSCR                                     *
    2302                    ;*   Regs Used         : A1,A2,A3,A4,V9,SP,LR,SR,D0,D0_hi,D1,D1_hi,D2,D2_hi, *
    2303                    ;*                           D3,D3_hi,D4,D4_hi,D5,D5_hi,D6,D6_hi,D7,D7_hi,   *
    2304                    ;*                           FPEXC,FPSCR                                     *
    2305                    ;*   Local Frame Size  : 0 Args + 0 Auto + 4 Save = 4 byte                   *
    2306                    ;*****************************************************************************
    2307 00000350           FlashIntUnregister:
    2308                    ;* --------------------------------------------------------------------------*
    2309                            .dwcfi  cfa_offset, 0
    2310 00000350 B508              PUSH      {A4, LR}              ; [DPU_V7M3_PIPE]  ; [ORIG 16-BIT INS]
TI ARM Assembler Unix v18.1.1 Fri Jul  3 20:08:24 2020

Tools Copyright (c) 1996-2017 Texas Instruments Incorporated
flash.asm                                                            PAGE   43

    2311                            .dwcfi  cfa_offset, 8
    2312                            .dwcfi  save_reg_to_mem, 14, -4
    2313                            .dwcfi  save_reg_to_mem, 3, -8
    2314                            .dwpsn  file "../driverlib/flash.c",line 811,column 5,is_stmt,isa 1
    2315                    ;----------------------------------------------------------------------
    2316                    ; 811 | IntDisable(INT_FLASH_TM4C123);                                         
    2317                    ; 813 | //                                                                     
    2318                    ; 814 | // Unregister the interrupt handler.                                   
    2319                    ; 815 | //                                                                     
    2320                    ;----------------------------------------------------------------------
    2321 00000352 202D              MOVS      A1, #45               ; [DPU_V7M3_PIPE] |811|  ; [ORIG 16-BIT INS]
    2322                    $C$DW$87        .dwtag  DW_TAG_TI_branch
    2323                            .dwattr $C$DW$87, DW_AT_low_pc(0x00)
    2324                            .dwattr $C$DW$87, DW_AT_name("IntDisable")
    2325                            .dwattr $C$DW$87, DW_AT_TI_call
    2326                    
    2327 00000354 FFFEF7FF!         BL        IntDisable            ; [DPU_V7M3_PIPE] |811|  ; [KEEP 32-BIT INS]
    2328                            ; CALL OCCURS {IntDisable }      ; [] |811| 
    2329                            .dwpsn  file "../driverlib/flash.c",line 816,column 5,is_stmt,isa 1
    2330                    ;----------------------------------------------------------------------
    2331                    ; 816 | IntUnregister(INT_FLASH_TM4C123);                                      
    2332                    ;----------------------------------------------------------------------
    2333 00000358 202D              MOVS      A1, #45               ; [DPU_V7M3_PIPE] |816|  ; [ORIG 16-BIT INS]
    2334                    $C$DW$88        .dwtag  DW_TAG_TI_branch
    2335                            .dwattr $C$DW$88, DW_AT_low_pc(0x00)
    2336                            .dwattr $C$DW$88, DW_AT_name("IntUnregister")
    2337                            .dwattr $C$DW$88, DW_AT_TI_call
    2338                    
    2339 0000035a FFFEF7FF!         BL        IntUnregister         ; [DPU_V7M3_PIPE] |816|  ; [KEEP 32-BIT INS]
    2340                            ; CALL OCCURS {IntUnregister }   ; [] |816| 
    2341                            .dwpsn  file "../driverlib/flash.c",line 817,column 1,is_stmt,isa 1
    2342                    $C$DW$89        .dwtag  DW_TAG_TI_branch
    2343                            .dwattr $C$DW$89, DW_AT_low_pc(0x00)
    2344                            .dwattr $C$DW$89, DW_AT_TI_return
    2345                    
    2346 0000035e BD08              POP       {A4, PC}              ; [DPU_V7M3_PIPE]  ; [ORIG 16-BIT INS]
    2347                            .dwcfi  cfa_offset, 0
    2348                            .dwcfi  restore_reg, 3
    2349                            ; BRANCH OCCURS                  ; [] 
    2350                            .dwattr $C$DW$86, DW_AT_TI_end_file("../driverlib/flash.c")
    2351                            .dwattr $C$DW$86, DW_AT_TI_end_line(0x331)
    2352                            .dwattr $C$DW$86, DW_AT_TI_end_column(0x01)
    2353                            .dwendentry
    2354                            .dwendtag $C$DW$86
    2355                    
    2356                    ;******************************************************************************
    2357                    ;* CONSTANT TABLE                                                             *
    2358                    ;******************************************************************************
    2359 00000360                   .sect   ".text"
    2360                            .align  4
    2361 00000360 400FD020  ||$C$CON8||:    .bits   1074778144,32
    2362                            .align  4
    2363 00000364 A4420001  ||$C$CON9||:    .bits   -1539178495,32
    2364 00000368                   .sect   ".text"
    2365                            .clink
TI ARM Assembler Unix v18.1.1 Fri Jul  3 20:08:24 2020

Tools Copyright (c) 1996-2017 Texas Instruments Incorporated
flash.asm                                                            PAGE   44

    2366                            .thumbfunc FlashIntEnable
    2367 00000368                   .thumb
    2368                            .global FlashIntEnable
    2369                    
    2370                    $C$DW$90        .dwtag  DW_TAG_subprogram
    2371                            .dwattr $C$DW$90, DW_AT_name("FlashIntEnable")
    2372                            .dwattr $C$DW$90, DW_AT_low_pc(FlashIntEnable)
    2373                            .dwattr $C$DW$90, DW_AT_high_pc(0x00)
    2374                            .dwattr $C$DW$90, DW_AT_TI_symbol_name("FlashIntEnable")
    2375                            .dwattr $C$DW$90, DW_AT_external
    2376                            .dwattr $C$DW$90, DW_AT_TI_begin_file("../driverlib/flash.c")
    2377                            .dwattr $C$DW$90, DW_AT_TI_begin_line(0x34f)
    2378                            .dwattr $C$DW$90, DW_AT_TI_begin_column(0x01)
    2379                            .dwattr $C$DW$90, DW_AT_decl_file("../driverlib/flash.c")
    2380                            .dwattr $C$DW$90, DW_AT_decl_line(0x34f)
    2381                            .dwattr $C$DW$90, DW_AT_decl_column(0x01)
    2382                            .dwattr $C$DW$90, DW_AT_TI_max_frame_size(0x08)
    2383                            .dwpsn  file "../driverlib/flash.c",line 848,column 1,is_stmt,address FlashIntEnable,isa 1
    2384                    
    2385                            .dwfde $C$DW$CIE, FlashIntEnable
    2386                    $C$DW$91        .dwtag  DW_TAG_formal_parameter
    2387                            .dwattr $C$DW$91, DW_AT_name("ui32IntFlags")
    2388                            .dwattr $C$DW$91, DW_AT_TI_symbol_name("ui32IntFlags")
    2389                            .dwattr $C$DW$91, DW_AT_type(*$C$DW$T$26)
    2390                            .dwattr $C$DW$91, DW_AT_location[DW_OP_reg0]
    2391                    
    2392                    ;----------------------------------------------------------------------
    2393                    ; 847 | FlashIntEnable(uint32_t ui32IntFlags)                                  
    2394                    ;----------------------------------------------------------------------
    2395                    
    2396                    ;*****************************************************************************
    2397                    ;* FUNCTION NAME: FlashIntEnable                                             *
    2398                    ;*                                                                           *
    2399                    ;*   Regs Modified     : A1,A2,A3,SP,SR                                      *
    2400                    ;*   Regs Used         : A1,A2,A3,SP,LR,SR                                   *
    2401                    ;*   Local Frame Size  : 0 Args + 4 Auto + 0 Save = 4 byte                   *
    2402                    ;*****************************************************************************
    2403 00000368           FlashIntEnable:
    2404                    ;* --------------------------------------------------------------------------*
    2405                            .dwcfi  cfa_offset, 0
    2406 00000368 0D08F1AD          SUB       SP, SP, #8            ; [DPU_V7M3_PIPE]  ; [KEEP 32-BIT INS]
    2407                            .dwcfi  cfa_offset, 8
    2408                    $C$DW$92        .dwtag  DW_TAG_variable
    2409                            .dwattr $C$DW$92, DW_AT_name("ui32IntFlags")
    2410                            .dwattr $C$DW$92, DW_AT_TI_symbol_name("ui32IntFlags")
    2411                            .dwattr $C$DW$92, DW_AT_type(*$C$DW$T$26)
    2412                            .dwattr $C$DW$92, DW_AT_location[DW_OP_breg13 0]
    2413                    
    2414                    ;----------------------------------------------------------------------
    2415                    ; 849 | //                                                                     
    2416                    ; 850 | // Enable the specified interrupts.                                    
    2417                    ; 851 | //                                                                     
    2418                    ;----------------------------------------------------------------------
    2419 0000036c 9000              STR       A1, [SP, #0]          ; [DPU_V7M3_PIPE] |848|  ; [ORIG 16-BIT INS]
    2420                            .dwpsn  file "../driverlib/flash.c",line 852,column 5,is_stmt,isa 1
TI ARM Assembler Unix v18.1.1 Fri Jul  3 20:08:24 2020

Tools Copyright (c) 1996-2017 Texas Instruments Incorporated
flash.asm                                                            PAGE   45

    2421                    ;----------------------------------------------------------------------
    2422                    ; 852 | HWREG(FLASH_FCIM) |= ui32IntFlags;                                     
    2423                    ;----------------------------------------------------------------------
    2424 0000036e 491D              LDR       A2, $C$CON20          ; [DPU_V7M3_PIPE] |852|  ; [ORIG 16-BIT INS]
    2425 00000370 9800              LDR       A1, [SP, #0]          ; [DPU_V7M3_PIPE] |852|  ; [ORIG 16-BIT INS]
    2426 00000372 680A              LDR       A3, [A2, #0]          ; [DPU_V7M3_PIPE] |852|  ; [ORIG 16-BIT INS]
    2427 00000374 4310              ORRS      A1, A1, A3            ; [DPU_V7M3_PIPE] |852|  ; [ORIG 16-BIT INS]
    2428 00000376 6008              STR       A1, [A2, #0]          ; [DPU_V7M3_PIPE] |852|  ; [ORIG 16-BIT INS]
    2429                            .dwpsn  file "../driverlib/flash.c",line 853,column 1,is_stmt,isa 1
    2430 00000378 B002              ADD       SP, SP, #8            ; [DPU_V7M3_PIPE]  ; [ORIG 16-BIT INS]
    2431                            .dwcfi  cfa_offset, 0
    2432                    $C$DW$93        .dwtag  DW_TAG_TI_branch
    2433                            .dwattr $C$DW$93, DW_AT_low_pc(0x00)
    2434                            .dwattr $C$DW$93, DW_AT_TI_return
    2435                    
    2436 0000037a 4770              BX        LR                    ; [DPU_V7M3_PIPE]  ; [ORIG 16-BIT INS]
    2437                            ; BRANCH OCCURS                  ; [] 
    2438                            .dwattr $C$DW$90, DW_AT_TI_end_file("../driverlib/flash.c")
    2439                            .dwattr $C$DW$90, DW_AT_TI_end_line(0x355)
    2440                            .dwattr $C$DW$90, DW_AT_TI_end_column(0x01)
    2441                            .dwendentry
    2442                            .dwendtag $C$DW$90
    2443                    
    2444 0000037c                   .sect   ".text"
    2445                            .clink
    2446                            .thumbfunc FlashIntDisable
    2447 0000037c                   .thumb
    2448                            .global FlashIntDisable
    2449                    
    2450                    $C$DW$94        .dwtag  DW_TAG_subprogram
    2451                            .dwattr $C$DW$94, DW_AT_name("FlashIntDisable")
    2452                            .dwattr $C$DW$94, DW_AT_low_pc(FlashIntDisable)
    2453                            .dwattr $C$DW$94, DW_AT_high_pc(0x00)
    2454                            .dwattr $C$DW$94, DW_AT_TI_symbol_name("FlashIntDisable")
    2455                            .dwattr $C$DW$94, DW_AT_external
    2456                            .dwattr $C$DW$94, DW_AT_TI_begin_file("../driverlib/flash.c")
    2457                            .dwattr $C$DW$94, DW_AT_TI_begin_line(0x373)
    2458                            .dwattr $C$DW$94, DW_AT_TI_begin_column(0x01)
    2459                            .dwattr $C$DW$94, DW_AT_decl_file("../driverlib/flash.c")
    2460                            .dwattr $C$DW$94, DW_AT_decl_line(0x373)
    2461                            .dwattr $C$DW$94, DW_AT_decl_column(0x01)
    2462                            .dwattr $C$DW$94, DW_AT_TI_max_frame_size(0x08)
    2463                            .dwpsn  file "../driverlib/flash.c",line 884,column 1,is_stmt,address FlashIntDisable,isa 1
    2464                    
    2465                            .dwfde $C$DW$CIE, FlashIntDisable
    2466                    $C$DW$95        .dwtag  DW_TAG_formal_parameter
    2467                            .dwattr $C$DW$95, DW_AT_name("ui32IntFlags")
    2468                            .dwattr $C$DW$95, DW_AT_TI_symbol_name("ui32IntFlags")
    2469                            .dwattr $C$DW$95, DW_AT_type(*$C$DW$T$26)
    2470                            .dwattr $C$DW$95, DW_AT_location[DW_OP_reg0]
    2471                    
    2472                    ;----------------------------------------------------------------------
    2473                    ; 883 | FlashIntDisable(uint32_t ui32IntFlags)                                 
    2474                    ;----------------------------------------------------------------------
    2475                    
TI ARM Assembler Unix v18.1.1 Fri Jul  3 20:08:24 2020

Tools Copyright (c) 1996-2017 Texas Instruments Incorporated
flash.asm                                                            PAGE   46

    2476                    ;*****************************************************************************
    2477                    ;* FUNCTION NAME: FlashIntDisable                                            *
    2478                    ;*                                                                           *
    2479                    ;*   Regs Modified     : A1,A2,A3,SP,SR                                      *
    2480                    ;*   Regs Used         : A1,A2,A3,SP,LR,SR                                   *
    2481                    ;*   Local Frame Size  : 0 Args + 4 Auto + 0 Save = 4 byte                   *
    2482                    ;*****************************************************************************
    2483 0000037c           FlashIntDisable:
    2484                    ;* --------------------------------------------------------------------------*
    2485                            .dwcfi  cfa_offset, 0
    2486 0000037c 0D08F1AD          SUB       SP, SP, #8            ; [DPU_V7M3_PIPE]  ; [KEEP 32-BIT INS]
    2487                            .dwcfi  cfa_offset, 8
    2488                    $C$DW$96        .dwtag  DW_TAG_variable
    2489                            .dwattr $C$DW$96, DW_AT_name("ui32IntFlags")
    2490                            .dwattr $C$DW$96, DW_AT_TI_symbol_name("ui32IntFlags")
    2491                            .dwattr $C$DW$96, DW_AT_type(*$C$DW$T$26)
    2492                            .dwattr $C$DW$96, DW_AT_location[DW_OP_breg13 0]
    2493                    
    2494                    ;----------------------------------------------------------------------
    2495                    ; 885 | //                                                                     
    2496                    ; 886 | // Disable the specified interrupts.                                   
    2497                    ; 887 | //                                                                     
    2498                    ;----------------------------------------------------------------------
    2499 00000380 9000              STR       A1, [SP, #0]          ; [DPU_V7M3_PIPE] |884|  ; [ORIG 16-BIT INS]
    2500                            .dwpsn  file "../driverlib/flash.c",line 888,column 5,is_stmt,isa 1
    2501                    ;----------------------------------------------------------------------
    2502                    ; 888 | HWREG(FLASH_FCIM) &= ~(ui32IntFlags);                                  
    2503                    ;----------------------------------------------------------------------
    2504 00000382 4918              LDR       A2, $C$CON20          ; [DPU_V7M3_PIPE] |888|  ; [ORIG 16-BIT INS]
    2505 00000384 9A00              LDR       A3, [SP, #0]          ; [DPU_V7M3_PIPE] |888|  ; [ORIG 16-BIT INS]
    2506 00000386 6808              LDR       A1, [A2, #0]          ; [DPU_V7M3_PIPE] |888|  ; [ORIG 16-BIT INS]
    2507 00000388 4390              BICS      A1, A1, A3            ; [DPU_V7M3_PIPE] |888|  ; [ORIG 16-BIT INS]
    2508 0000038a 6008              STR       A1, [A2, #0]          ; [DPU_V7M3_PIPE] |888|  ; [ORIG 16-BIT INS]
    2509                            .dwpsn  file "../driverlib/flash.c",line 889,column 1,is_stmt,isa 1
    2510 0000038c B002              ADD       SP, SP, #8            ; [DPU_V7M3_PIPE]  ; [ORIG 16-BIT INS]
    2511                            .dwcfi  cfa_offset, 0
    2512                    $C$DW$97        .dwtag  DW_TAG_TI_branch
    2513                            .dwattr $C$DW$97, DW_AT_low_pc(0x00)
    2514                            .dwattr $C$DW$97, DW_AT_TI_return
    2515                    
    2516 0000038e 4770              BX        LR                    ; [DPU_V7M3_PIPE]  ; [ORIG 16-BIT INS]
    2517                            ; BRANCH OCCURS                  ; [] 
    2518                            .dwattr $C$DW$94, DW_AT_TI_end_file("../driverlib/flash.c")
    2519                            .dwattr $C$DW$94, DW_AT_TI_end_line(0x379)
    2520                            .dwattr $C$DW$94, DW_AT_TI_end_column(0x01)
    2521                            .dwendentry
    2522                            .dwendtag $C$DW$94
    2523                    
    2524 00000390                   .sect   ".text"
    2525                            .clink
    2526                            .thumbfunc FlashIntStatus
    2527 00000390                   .thumb
    2528                            .global FlashIntStatus
    2529                    
    2530                    $C$DW$98        .dwtag  DW_TAG_subprogram
TI ARM Assembler Unix v18.1.1 Fri Jul  3 20:08:24 2020

Tools Copyright (c) 1996-2017 Texas Instruments Incorporated
flash.asm                                                            PAGE   47

    2531                            .dwattr $C$DW$98, DW_AT_name("FlashIntStatus")
    2532                            .dwattr $C$DW$98, DW_AT_low_pc(FlashIntStatus)
    2533                            .dwattr $C$DW$98, DW_AT_high_pc(0x00)
    2534                            .dwattr $C$DW$98, DW_AT_TI_symbol_name("FlashIntStatus")
    2535                            .dwattr $C$DW$98, DW_AT_external
    2536                            .dwattr $C$DW$98, DW_AT_type(*$C$DW$T$26)
    2537                            .dwattr $C$DW$98, DW_AT_TI_begin_file("../driverlib/flash.c")
    2538                            .dwattr $C$DW$98, DW_AT_TI_begin_line(0x38d)
    2539                            .dwattr $C$DW$98, DW_AT_TI_begin_column(0x01)
    2540                            .dwattr $C$DW$98, DW_AT_decl_file("../driverlib/flash.c")
    2541                            .dwattr $C$DW$98, DW_AT_decl_line(0x38d)
    2542                            .dwattr $C$DW$98, DW_AT_decl_column(0x01)
    2543                            .dwattr $C$DW$98, DW_AT_TI_max_frame_size(0x08)
    2544                            .dwpsn  file "../driverlib/flash.c",line 910,column 1,is_stmt,address FlashIntStatus,isa 1
    2545                    
    2546                            .dwfde $C$DW$CIE, FlashIntStatus
    2547                    $C$DW$99        .dwtag  DW_TAG_formal_parameter
    2548                            .dwattr $C$DW$99, DW_AT_name("bMasked")
    2549                            .dwattr $C$DW$99, DW_AT_TI_symbol_name("bMasked")
    2550                            .dwattr $C$DW$99, DW_AT_type(*$C$DW$T$121)
    2551                            .dwattr $C$DW$99, DW_AT_location[DW_OP_reg0]
    2552                    
    2553                    ;----------------------------------------------------------------------
    2554                    ; 909 | FlashIntStatus(bool bMasked)                                           
    2555                    ;----------------------------------------------------------------------
    2556                    
    2557                    ;*****************************************************************************
    2558                    ;* FUNCTION NAME: FlashIntStatus                                             *
    2559                    ;*                                                                           *
    2560                    ;*   Regs Modified     : A1,SP                                               *
    2561                    ;*   Regs Used         : A1,SP,LR                                            *
    2562                    ;*   Local Frame Size  : 0 Args + 4 Auto + 0 Save = 4 byte                   *
    2563                    ;*****************************************************************************
    2564 00000390           FlashIntStatus:
    2565                    ;* --------------------------------------------------------------------------*
    2566                            .dwcfi  cfa_offset, 0
    2567 00000390 0D08F1AD          SUB       SP, SP, #8            ; [DPU_V7M3_PIPE]  ; [KEEP 32-BIT INS]
    2568                            .dwcfi  cfa_offset, 8
    2569                    $C$DW$100       .dwtag  DW_TAG_variable
    2570                            .dwattr $C$DW$100, DW_AT_name("bMasked")
    2571                            .dwattr $C$DW$100, DW_AT_TI_symbol_name("bMasked")
    2572                            .dwattr $C$DW$100, DW_AT_type(*$C$DW$T$121)
    2573                            .dwattr $C$DW$100, DW_AT_location[DW_OP_breg13 0]
    2574                    
    2575                    ;----------------------------------------------------------------------
    2576                    ; 911 | //                                                                     
    2577                    ; 912 | // Return either the interrupt status or the raw interrupt status as   
    2578                    ; 913 | // requested.                                                          
    2579                    ; 914 | //                                                                     
    2580                    ;----------------------------------------------------------------------
    2581 00000394 0000F88D          STRB      A1, [SP, #0]          ; [DPU_V7M3_PIPE] |910|  ; [KEEP 32-BIT INS]
    2582                            .dwpsn  file "../driverlib/flash.c",line 915,column 5,is_stmt,isa 1
    2583                    ;----------------------------------------------------------------------
    2584                    ; 915 | if(bMasked)                                                            
    2585                    ;----------------------------------------------------------------------
TI ARM Assembler Unix v18.1.1 Fri Jul  3 20:08:24 2020

Tools Copyright (c) 1996-2017 Texas Instruments Incorporated
flash.asm                                                            PAGE   48

    2586 00000398 0000F89D          LDRB      A1, [SP, #0]          ; [DPU_V7M3_PIPE] |915|  ; [KEEP 32-BIT INS]
    2587 0000039c B110              CBZ       A1, ||$C$L36||        ; []  ; [ORIG 16-BIT INS]
    2588                            ; BRANCHCC OCCURS {||$C$L36||}   ; [] |915| 
    2589                    ;* --------------------------------------------------------------------------*
    2590                            .dwpsn  file "../driverlib/flash.c",line 917,column 9,is_stmt,isa 1
    2591                    ;----------------------------------------------------------------------
    2592                    ; 917 | return(HWREG(FLASH_FCMISC));                                           
    2593                    ; 919 | else                                                                   
    2594                    ;----------------------------------------------------------------------
    2595 0000039e 4812              LDR       A1, $C$CON21          ; [DPU_V7M3_PIPE] |917|  ; [ORIG 16-BIT INS]
    2596 000003a0 6800              LDR       A1, [A1, #0]          ; [DPU_V7M3_PIPE] |917|  ; [ORIG 16-BIT INS]
    2597 000003a2 E001              B         ||$C$L37||            ; [DPU_V7M3_PIPE] |917|  ; [ORIG 16-BIT INS]
    2598                            ; BRANCH OCCURS {||$C$L37||}     ; [] |917| 
    2599                    ;* --------------------------------------------------------------------------*
    2600                    ;* --------------------------------------------------------------------------*
    2601 000003a4           ||$C$L36||:    
    2602                            .dwpsn  file "../driverlib/flash.c",line 921,column 9,is_stmt,isa 1
    2603                    ;----------------------------------------------------------------------
    2604                    ; 921 | return(HWREG(FLASH_FCRIS));                                            
    2605                    ;----------------------------------------------------------------------
    2606 000003a4 4811              LDR       A1, $C$CON22          ; [DPU_V7M3_PIPE] |921|  ; [ORIG 16-BIT INS]
    2607 000003a6 6800              LDR       A1, [A1, #0]          ; [DPU_V7M3_PIPE] |921|  ; [ORIG 16-BIT INS]
    2608                    ;* --------------------------------------------------------------------------*
    2609 000003a8           ||$C$L37||:    
    2610                            .dwpsn  file "../driverlib/flash.c",line 923,column 1,is_stmt,isa 1
    2611 000003a8 B002              ADD       SP, SP, #8            ; [DPU_V7M3_PIPE]  ; [ORIG 16-BIT INS]
    2612                            .dwcfi  cfa_offset, 0
    2613                    $C$DW$101       .dwtag  DW_TAG_TI_branch
    2614                            .dwattr $C$DW$101, DW_AT_low_pc(0x00)
    2615                            .dwattr $C$DW$101, DW_AT_TI_return
    2616                    
    2617 000003aa 4770              BX        LR                    ; [DPU_V7M3_PIPE]  ; [ORIG 16-BIT INS]
    2618                            ; BRANCH OCCURS                  ; [] 
    2619                            .dwattr $C$DW$98, DW_AT_TI_end_file("../driverlib/flash.c")
    2620                            .dwattr $C$DW$98, DW_AT_TI_end_line(0x39b)
    2621                            .dwattr $C$DW$98, DW_AT_TI_end_column(0x01)
    2622                            .dwendentry
    2623                            .dwendtag $C$DW$98
    2624                    
    2625                    ;******************************************************************************
    2626                    ;* CONSTANT TABLE                                                             *
    2627                    ;******************************************************************************
    2628 000003ac                   .sect   ".text"
    2629                            .align  4
    2630 000003ac 00000000! ||$C$CON10||:   .bits   g_pui32FMPRERegs,32
    2631                            .align  4
    2632 000003b0 00000000! ||$C$CON11||:   .bits   g_pui32FMPPERegs,32
    2633 000003b4                   .sect   ".text"
    2634                            .clink
    2635                            .thumbfunc FlashIntClear
    2636 000003b4                   .thumb
    2637                            .global FlashIntClear
    2638                    
    2639                    $C$DW$102       .dwtag  DW_TAG_subprogram
    2640                            .dwattr $C$DW$102, DW_AT_name("FlashIntClear")
TI ARM Assembler Unix v18.1.1 Fri Jul  3 20:08:24 2020

Tools Copyright (c) 1996-2017 Texas Instruments Incorporated
flash.asm                                                            PAGE   49

    2641                            .dwattr $C$DW$102, DW_AT_low_pc(FlashIntClear)
    2642                            .dwattr $C$DW$102, DW_AT_high_pc(0x00)
    2643                            .dwattr $C$DW$102, DW_AT_TI_symbol_name("FlashIntClear")
    2644                            .dwattr $C$DW$102, DW_AT_external
    2645                            .dwattr $C$DW$102, DW_AT_TI_begin_file("../driverlib/flash.c")
    2646                            .dwattr $C$DW$102, DW_AT_TI_begin_line(0x3c4)
    2647                            .dwattr $C$DW$102, DW_AT_TI_begin_column(0x01)
    2648                            .dwattr $C$DW$102, DW_AT_decl_file("../driverlib/flash.c")
    2649                            .dwattr $C$DW$102, DW_AT_decl_line(0x3c4)
    2650                            .dwattr $C$DW$102, DW_AT_decl_column(0x01)
    2651                            .dwattr $C$DW$102, DW_AT_TI_max_frame_size(0x08)
    2652                            .dwpsn  file "../driverlib/flash.c",line 965,column 1,is_stmt,address FlashIntClear,isa 1
    2653                    
    2654                            .dwfde $C$DW$CIE, FlashIntClear
    2655                    $C$DW$103       .dwtag  DW_TAG_formal_parameter
    2656                            .dwattr $C$DW$103, DW_AT_name("ui32IntFlags")
    2657                            .dwattr $C$DW$103, DW_AT_TI_symbol_name("ui32IntFlags")
    2658                            .dwattr $C$DW$103, DW_AT_type(*$C$DW$T$26)
    2659                            .dwattr $C$DW$103, DW_AT_location[DW_OP_reg0]
    2660                    
    2661                    ;----------------------------------------------------------------------
    2662                    ; 964 | FlashIntClear(uint32_t ui32IntFlags)                                   
    2663                    ;----------------------------------------------------------------------
    2664                    
    2665                    ;*****************************************************************************
    2666                    ;* FUNCTION NAME: FlashIntClear                                              *
    2667                    ;*                                                                           *
    2668                    ;*   Regs Modified     : A1,A2,SP                                            *
    2669                    ;*   Regs Used         : A1,A2,SP,LR                                         *
    2670                    ;*   Local Frame Size  : 0 Args + 4 Auto + 0 Save = 4 byte                   *
    2671                    ;*****************************************************************************
    2672 000003b4           FlashIntClear:
    2673                    ;* --------------------------------------------------------------------------*
    2674                            .dwcfi  cfa_offset, 0
    2675 000003b4 0D08F1AD          SUB       SP, SP, #8            ; [DPU_V7M3_PIPE]  ; [KEEP 32-BIT INS]
    2676                            .dwcfi  cfa_offset, 8
    2677                    $C$DW$104       .dwtag  DW_TAG_variable
    2678                            .dwattr $C$DW$104, DW_AT_name("ui32IntFlags")
    2679                            .dwattr $C$DW$104, DW_AT_TI_symbol_name("ui32IntFlags")
    2680                            .dwattr $C$DW$104, DW_AT_type(*$C$DW$T$26)
    2681                            .dwattr $C$DW$104, DW_AT_location[DW_OP_breg13 0]
    2682                    
    2683                    ;----------------------------------------------------------------------
    2684                    ; 966 | //                                                                     
    2685                    ; 967 | // Clear the flash interrupt.                                          
    2686                    ; 968 | //                                                                     
    2687                    ;----------------------------------------------------------------------
    2688 000003b8 9000              STR       A1, [SP, #0]          ; [DPU_V7M3_PIPE] |965|  ; [ORIG 16-BIT INS]
    2689                            .dwpsn  file "../driverlib/flash.c",line 969,column 5,is_stmt,isa 1
    2690                    ;----------------------------------------------------------------------
    2691                    ; 969 | HWREG(FLASH_FCMISC) = ui32IntFlags;                                    
    2692                    ;----------------------------------------------------------------------
    2693 000003ba 490B              LDR       A2, $C$CON21          ; [DPU_V7M3_PIPE] |969|  ; [ORIG 16-BIT INS]
    2694 000003bc 9800              LDR       A1, [SP, #0]          ; [DPU_V7M3_PIPE] |969|  ; [ORIG 16-BIT INS]
    2695 000003be 6008              STR       A1, [A2, #0]          ; [DPU_V7M3_PIPE] |969|  ; [ORIG 16-BIT INS]
TI ARM Assembler Unix v18.1.1 Fri Jul  3 20:08:24 2020

Tools Copyright (c) 1996-2017 Texas Instruments Incorporated
flash.asm                                                            PAGE   50

    2696                            .dwpsn  file "../driverlib/flash.c",line 970,column 1,is_stmt,isa 1
    2697 000003c0 B002              ADD       SP, SP, #8            ; [DPU_V7M3_PIPE]  ; [ORIG 16-BIT INS]
    2698                            .dwcfi  cfa_offset, 0
    2699                    $C$DW$105       .dwtag  DW_TAG_TI_branch
    2700                            .dwattr $C$DW$105, DW_AT_low_pc(0x00)
    2701                            .dwattr $C$DW$105, DW_AT_TI_return
    2702                    
    2703 000003c2 4770              BX        LR                    ; [DPU_V7M3_PIPE]  ; [ORIG 16-BIT INS]
    2704                            ; BRANCH OCCURS                  ; [] 
    2705                            .dwattr $C$DW$102, DW_AT_TI_end_file("../driverlib/flash.c")
    2706                            .dwattr $C$DW$102, DW_AT_TI_end_line(0x3ca)
    2707                            .dwattr $C$DW$102, DW_AT_TI_end_column(0x01)
    2708                            .dwendentry
    2709                            .dwendtag $C$DW$102
    2710                    
    2711                    ;******************************************************************************
    2712                    ;* CONSTANT TABLE                                                             *
    2713                    ;******************************************************************************
    2714 000003c4                   .sect   ".text"
    2715                            .align  4
    2716 000003c4 A4420008  ||$C$CON12||:   .bits   -1539178488,32
