TI ARM Assembler Unix v18.1.1 Fri Jul  3 20:08:24 2020

Tools Copyright (c) 1996-2017 Texas Instruments Incorporated
fpu.asm                                                              PAGE    1

       1                    ;******************************************************************************
       2                    ;* TI ARM C/C++ Codegen                                      Unix v18.1.1.LTS *
       3                    ;* Date/Time created: Fri Jul  3 20:08:24 2020                                *
       4                    ;******************************************************************************
       5                            .compiler_opts --abi=eabi --arm_vmrs_si_workaround=off --code_state=16 --diag_wrap=off --embed
       6 00000000                   .thumb
       7                    
       8                    $C$DW$CU        .dwtag  DW_TAG_compile_unit
       9                            .dwattr $C$DW$CU, DW_AT_name("../driverlib/fpu.c")
      10                            .dwattr $C$DW$CU, DW_AT_producer("TI TI ARM C/C++ Codegen Unix v18.1.1.LTS Copyright (c) 1996-
      11                            .dwattr $C$DW$CU, DW_AT_TI_version(0x01)
      12                            .dwattr $C$DW$CU, DW_AT_comp_dir("/home/pola/workspace_v8/Microwave/Debug")
      13                    ;       /home/pola/ti/ccsv8/tools/compiler/ti-cgt-arm_18.1.1.LTS/bin/armacpia -@/tmp/TI3PwoyZRy1 
      14 00000000                   .sect   ".text"
      15                            .clink
      16                            .thumbfunc FPUEnable
      17 00000000                   .thumb
      18                            .global FPUEnable
      19                    
      20                    $C$DW$1 .dwtag  DW_TAG_subprogram
      21                            .dwattr $C$DW$1, DW_AT_name("FPUEnable")
      22                            .dwattr $C$DW$1, DW_AT_low_pc(FPUEnable)
      23                            .dwattr $C$DW$1, DW_AT_high_pc(0x00)
      24                            .dwattr $C$DW$1, DW_AT_TI_symbol_name("FPUEnable")
      25                            .dwattr $C$DW$1, DW_AT_external
      26                            .dwattr $C$DW$1, DW_AT_TI_begin_file("../driverlib/fpu.c")
      27                            .dwattr $C$DW$1, DW_AT_TI_begin_line(0x42)
      28                            .dwattr $C$DW$1, DW_AT_TI_begin_column(0x01)
      29                            .dwattr $C$DW$1, DW_AT_decl_file("../driverlib/fpu.c")
      30                            .dwattr $C$DW$1, DW_AT_decl_line(0x42)
      31                            .dwattr $C$DW$1, DW_AT_decl_column(0x01)
      32                            .dwattr $C$DW$1, DW_AT_TI_max_frame_size(0x00)
      33                            .dwpsn  file "../driverlib/fpu.c",line 67,column 1,is_stmt,address FPUEnable,isa 1
      34                    
      35                            .dwfde $C$DW$CIE, FPUEnable
      36                    ;----------------------------------------------------------------------
      37                    ;  66 | FPUEnable(void)                                                        
      38                    ;  68 | //                                                                     
      39                    ;  69 | // Enable the coprocessors used by the floating-point unit.            
      40                    ;  70 | //                                                                     
      41                    ;----------------------------------------------------------------------
      42                    
      43                    ;*****************************************************************************
      44                    ;* FUNCTION NAME: FPUEnable                                                  *
      45                    ;*                                                                           *
      46                    ;*   Regs Modified     : A1,A2                                               *
      47                    ;*   Regs Used         : A1,A2,LR                                            *
      48                    ;*   Local Frame Size  : 0 Args + 0 Auto + 0 Save = 0 byte                   *
      49                    ;*****************************************************************************
      50 00000000           FPUEnable:
      51                    ;* --------------------------------------------------------------------------*
      52                            .dwcfi  cfa_offset, 0
      53                            .dwpsn  file "../driverlib/fpu.c",line 71,column 5,is_stmt,isa 1
      54                    ;----------------------------------------------------------------------
      55                    ;  71 | HWREG(NVIC_CPAC) = ((HWREG(NVIC_CPAC) &                                
TI ARM Assembler Unix v18.1.1 Fri Jul  3 20:08:24 2020

Tools Copyright (c) 1996-2017 Texas Instruments Incorporated
fpu.asm                                                              PAGE    2

      56                    ;  72 |                      ~(NVIC_CPAC_CP10_M | NVIC_CPAC_CP11_M)) |         
      57                    ;  73 |                     NVIC_CPAC_CP10_FULL | NVIC_CPAC_CP11_FULL);        
      58                    ;----------------------------------------------------------------------
      59 00000000 482C              LDR       A1, $C$CON1           ; [DPU_V7M3_PIPE] |71|  ; [ORIG 16-BIT INS]
      60 00000002 492C              LDR       A2, $C$CON1           ; [DPU_V7M3_PIPE] |71|  ; [ORIG 16-BIT INS]
      61 00000004 6800              LDR       A1, [A1, #0]          ; [DPU_V7M3_PIPE] |71|  ; [ORIG 16-BIT INS]
      62 00000006 0070F420          BIC       A1, A1, #15728640     ; [DPU_V7M3_PIPE] |71|  ; [KEEP 32-BIT INS]
      63 0000000a 0070F440          ORR       A1, A1, #15728640     ; [DPU_V7M3_PIPE] |71|  ; [KEEP 32-BIT INS]
      64 0000000e 6008              STR       A1, [A2, #0]          ; [DPU_V7M3_PIPE] |71|  ; [ORIG 16-BIT INS]
      65                            .dwpsn  file "../driverlib/fpu.c",line 74,column 1,is_stmt,isa 1
      66                    $C$DW$2 .dwtag  DW_TAG_TI_branch
      67                            .dwattr $C$DW$2, DW_AT_low_pc(0x00)
      68                            .dwattr $C$DW$2, DW_AT_TI_return
      69                    
      70 00000010 4770              BX        LR                    ; [DPU_V7M3_PIPE]  ; [ORIG 16-BIT INS]
      71                            ; BRANCH OCCURS                  ; [] 
      72                            .dwattr $C$DW$1, DW_AT_TI_end_file("../driverlib/fpu.c")
      73                            .dwattr $C$DW$1, DW_AT_TI_end_line(0x4a)
      74                            .dwattr $C$DW$1, DW_AT_TI_end_column(0x01)
      75                            .dwendentry
      76                            .dwendtag $C$DW$1
      77                    
      78 00000012                   .sect   ".text"
      79                            .clink
      80                            .thumbfunc FPUDisable
      81 00000012                   .thumb
      82                            .global FPUDisable
      83                    
      84                    $C$DW$3 .dwtag  DW_TAG_subprogram
      85                            .dwattr $C$DW$3, DW_AT_name("FPUDisable")
      86                            .dwattr $C$DW$3, DW_AT_low_pc(FPUDisable)
      87                            .dwattr $C$DW$3, DW_AT_high_pc(0x00)
      88                            .dwattr $C$DW$3, DW_AT_TI_symbol_name("FPUDisable")
      89                            .dwattr $C$DW$3, DW_AT_external
      90                            .dwattr $C$DW$3, DW_AT_TI_begin_file("../driverlib/fpu.c")
      91                            .dwattr $C$DW$3, DW_AT_TI_begin_line(0x57)
      92                            .dwattr $C$DW$3, DW_AT_TI_begin_column(0x01)
      93                            .dwattr $C$DW$3, DW_AT_decl_file("../driverlib/fpu.c")
      94                            .dwattr $C$DW$3, DW_AT_decl_line(0x57)
      95                            .dwattr $C$DW$3, DW_AT_decl_column(0x01)
      96                            .dwattr $C$DW$3, DW_AT_TI_max_frame_size(0x00)
      97                            .dwpsn  file "../driverlib/fpu.c",line 88,column 1,is_stmt,address FPUDisable,isa 1
      98                    
      99                            .dwfde $C$DW$CIE, FPUDisable
     100                    ;----------------------------------------------------------------------
     101                    ;  87 | FPUDisable(void)                                                       
     102                    ;  89 | //                                                                     
     103                    ;  90 | // Disable the coprocessors used by the floating-point unit.           
     104                    ;  91 | //                                                                     
     105                    ;----------------------------------------------------------------------
     106                    
     107                    ;*****************************************************************************
     108                    ;* FUNCTION NAME: FPUDisable                                                 *
     109                    ;*                                                                           *
     110                    ;*   Regs Modified     : A1,A2                                               *
TI ARM Assembler Unix v18.1.1 Fri Jul  3 20:08:24 2020

Tools Copyright (c) 1996-2017 Texas Instruments Incorporated
fpu.asm                                                              PAGE    3

     111                    ;*   Regs Used         : A1,A2,LR                                            *
     112                    ;*   Local Frame Size  : 0 Args + 0 Auto + 0 Save = 0 byte                   *
     113                    ;*****************************************************************************
     114 00000012           FPUDisable:
     115                    ;* --------------------------------------------------------------------------*
     116                            .dwcfi  cfa_offset, 0
     117                            .dwpsn  file "../driverlib/fpu.c",line 92,column 5,is_stmt,isa 1
     118                    ;----------------------------------------------------------------------
     119                    ;  92 | HWREG(NVIC_CPAC) = ((HWREG(NVIC_CPAC) &                                
     120                    ;  93 |                      ~(NVIC_CPAC_CP10_M | NVIC_CPAC_CP11_M)) |         
     121                    ;  94 |                     NVIC_CPAC_CP10_DIS | NVIC_CPAC_CP11_DIS);          
     122                    ;----------------------------------------------------------------------
     123 00000012 4828              LDR       A1, $C$CON1           ; [DPU_V7M3_PIPE] |92|  ; [ORIG 16-BIT INS]
     124 00000014 4927              LDR       A2, $C$CON1           ; [DPU_V7M3_PIPE] |92|  ; [ORIG 16-BIT INS]
     125 00000016 6800              LDR       A1, [A1, #0]          ; [DPU_V7M3_PIPE] |92|  ; [ORIG 16-BIT INS]
     126 00000018 0070F420          BIC       A1, A1, #15728640     ; [DPU_V7M3_PIPE] |92|  ; [KEEP 32-BIT INS]
     127 0000001c 6008              STR       A1, [A2, #0]          ; [DPU_V7M3_PIPE] |92|  ; [ORIG 16-BIT INS]
     128                            .dwpsn  file "../driverlib/fpu.c",line 95,column 1,is_stmt,isa 1
     129                    $C$DW$4 .dwtag  DW_TAG_TI_branch
     130                            .dwattr $C$DW$4, DW_AT_low_pc(0x00)
     131                            .dwattr $C$DW$4, DW_AT_TI_return
     132                    
     133 0000001e 4770              BX        LR                    ; [DPU_V7M3_PIPE]  ; [ORIG 16-BIT INS]
     134                            ; BRANCH OCCURS                  ; [] 
     135                            .dwattr $C$DW$3, DW_AT_TI_end_file("../driverlib/fpu.c")
     136                            .dwattr $C$DW$3, DW_AT_TI_end_line(0x5f)
     137                            .dwattr $C$DW$3, DW_AT_TI_end_column(0x01)
     138                            .dwendentry
     139                            .dwendtag $C$DW$3
     140                    
     141 00000020                   .sect   ".text"
     142                            .clink
     143                            .thumbfunc FPUStackingEnable
     144 00000020                   .thumb
     145                            .global FPUStackingEnable
     146                    
     147                    $C$DW$5 .dwtag  DW_TAG_subprogram
     148                            .dwattr $C$DW$5, DW_AT_name("FPUStackingEnable")
     149                            .dwattr $C$DW$5, DW_AT_low_pc(FPUStackingEnable)
     150                            .dwattr $C$DW$5, DW_AT_high_pc(0x00)
     151                            .dwattr $C$DW$5, DW_AT_TI_symbol_name("FPUStackingEnable")
     152                            .dwattr $C$DW$5, DW_AT_external
     153                            .dwattr $C$DW$5, DW_AT_TI_begin_file("../driverlib/fpu.c")
     154                            .dwattr $C$DW$5, DW_AT_TI_begin_line(0x76)
     155                            .dwattr $C$DW$5, DW_AT_TI_begin_column(0x01)
     156                            .dwattr $C$DW$5, DW_AT_decl_file("../driverlib/fpu.c")
     157                            .dwattr $C$DW$5, DW_AT_decl_line(0x76)
     158                            .dwattr $C$DW$5, DW_AT_decl_column(0x01)
     159                            .dwattr $C$DW$5, DW_AT_TI_max_frame_size(0x00)
     160                            .dwpsn  file "../driverlib/fpu.c",line 119,column 1,is_stmt,address FPUStackingEnable,isa 1
     161                    
     162                            .dwfde $C$DW$CIE, FPUStackingEnable
     163                    ;----------------------------------------------------------------------
     164                    ; 118 | FPUStackingEnable(void)                                                
     165                    ; 120 | //                                                                     
TI ARM Assembler Unix v18.1.1 Fri Jul  3 20:08:24 2020

Tools Copyright (c) 1996-2017 Texas Instruments Incorporated
fpu.asm                                                              PAGE    4

     166                    ; 121 | // Enable automatic state preservation for the floating-point unit, and
     167                    ; 122 | // disable lazy state preservation (meaning that the floating-point sta
     168                    ;     | te                                                                     
     169                    ; 123 | // is always stacked when floating-point instructions are used).       
     170                    ; 124 | //                                                                     
     171                    ;----------------------------------------------------------------------
     172                    
     173                    ;*****************************************************************************
     174                    ;* FUNCTION NAME: FPUStackingEnable                                          *
     175                    ;*                                                                           *
     176                    ;*   Regs Modified     : A1,A2                                               *
     177                    ;*   Regs Used         : A1,A2,LR                                            *
     178                    ;*   Local Frame Size  : 0 Args + 0 Auto + 0 Save = 0 byte                   *
     179                    ;*****************************************************************************
     180 00000020           FPUStackingEnable:
     181                    ;* --------------------------------------------------------------------------*
     182                            .dwcfi  cfa_offset, 0
     183                            .dwpsn  file "../driverlib/fpu.c",line 125,column 5,is_stmt,isa 1
     184                    ;----------------------------------------------------------------------
     185                    ; 125 | HWREG(NVIC_FPCC) = (HWREG(NVIC_FPCC) & ~NVIC_FPCC_LSPEN) | NVIC_FPCC_AS
     186                    ;     | PEN;                                                                   
     187                    ;----------------------------------------------------------------------
     188 00000020 4825              LDR       A1, $C$CON2           ; [DPU_V7M3_PIPE] |125|  ; [ORIG 16-BIT INS]
     189 00000022 4925              LDR       A2, $C$CON2           ; [DPU_V7M3_PIPE] |125|  ; [ORIG 16-BIT INS]
     190 00000024 6800              LDR       A1, [A1, #0]          ; [DPU_V7M3_PIPE] |125|  ; [ORIG 16-BIT INS]
     191 00000026 4080F020          BIC       A1, A1, #1073741824   ; [DPU_V7M3_PIPE] |125|  ; [KEEP 32-BIT INS]
     192 0000002a 4000F040          ORR       A1, A1, #-2147483648  ; [DPU_V7M3_PIPE] |125|  ; [KEEP 32-BIT INS]
     193 0000002e 6008              STR       A1, [A2, #0]          ; [DPU_V7M3_PIPE] |125|  ; [ORIG 16-BIT INS]
     194                            .dwpsn  file "../driverlib/fpu.c",line 126,column 1,is_stmt,isa 1
     195                    $C$DW$6 .dwtag  DW_TAG_TI_branch
     196                            .dwattr $C$DW$6, DW_AT_low_pc(0x00)
     197                            .dwattr $C$DW$6, DW_AT_TI_return
     198                    
     199 00000030 4770              BX        LR                    ; [DPU_V7M3_PIPE]  ; [ORIG 16-BIT INS]
     200                            ; BRANCH OCCURS                  ; [] 
     201                            .dwattr $C$DW$5, DW_AT_TI_end_file("../driverlib/fpu.c")
     202                            .dwattr $C$DW$5, DW_AT_TI_end_line(0x7e)
     203                            .dwattr $C$DW$5, DW_AT_TI_end_column(0x01)
     204                            .dwendentry
     205                            .dwendtag $C$DW$5
     206                    
     207 00000032                   .sect   ".text"
     208                            .clink
     209                            .thumbfunc FPULazyStackingEnable
     210 00000032                   .thumb
     211                            .global FPULazyStackingEnable
     212                    
     213                    $C$DW$7 .dwtag  DW_TAG_subprogram
     214                            .dwattr $C$DW$7, DW_AT_name("FPULazyStackingEnable")
     215                            .dwattr $C$DW$7, DW_AT_low_pc(FPULazyStackingEnable)
     216                            .dwattr $C$DW$7, DW_AT_high_pc(0x00)
     217                            .dwattr $C$DW$7, DW_AT_TI_symbol_name("FPULazyStackingEnable")
     218                            .dwattr $C$DW$7, DW_AT_external
     219                            .dwattr $C$DW$7, DW_AT_TI_begin_file("../driverlib/fpu.c")
     220                            .dwattr $C$DW$7, DW_AT_TI_begin_line(0x96)
TI ARM Assembler Unix v18.1.1 Fri Jul  3 20:08:24 2020

Tools Copyright (c) 1996-2017 Texas Instruments Incorporated
fpu.asm                                                              PAGE    5

     221                            .dwattr $C$DW$7, DW_AT_TI_begin_column(0x01)
     222                            .dwattr $C$DW$7, DW_AT_decl_file("../driverlib/fpu.c")
     223                            .dwattr $C$DW$7, DW_AT_decl_line(0x96)
     224                            .dwattr $C$DW$7, DW_AT_decl_column(0x01)
     225                            .dwattr $C$DW$7, DW_AT_TI_max_frame_size(0x00)
     226                            .dwpsn  file "../driverlib/fpu.c",line 151,column 1,is_stmt,address FPULazyStackingEnable,isa 
     227                    
     228                            .dwfde $C$DW$CIE, FPULazyStackingEnable
     229                    ;----------------------------------------------------------------------
     230                    ; 150 | FPULazyStackingEnable(void)                                            
     231                    ; 152 | //                                                                     
     232                    ; 153 | // Enable automatic and lazy state preservation for the floating-point 
     233                    ; 154 | // unit.                                                               
     234                    ; 155 | //                                                                     
     235                    ;----------------------------------------------------------------------
     236                    
     237                    ;*****************************************************************************
     238                    ;* FUNCTION NAME: FPULazyStackingEnable                                      *
     239                    ;*                                                                           *
     240                    ;*   Regs Modified     : A1,A2                                               *
     241                    ;*   Regs Used         : A1,A2,LR                                            *
     242                    ;*   Local Frame Size  : 0 Args + 0 Auto + 0 Save = 0 byte                   *
     243                    ;*****************************************************************************
     244 00000032           FPULazyStackingEnable:
     245                    ;* --------------------------------------------------------------------------*
     246                            .dwcfi  cfa_offset, 0
     247                            .dwpsn  file "../driverlib/fpu.c",line 156,column 5,is_stmt,isa 1
     248                    ;----------------------------------------------------------------------
     249                    ; 156 | HWREG(NVIC_FPCC) |= NVIC_FPCC_ASPEN | NVIC_FPCC_LSPEN;                 
     250                    ;----------------------------------------------------------------------
     251 00000032 4921              LDR       A2, $C$CON2           ; [DPU_V7M3_PIPE] |156|  ; [ORIG 16-BIT INS]
     252 00000034 6808              LDR       A1, [A2, #0]          ; [DPU_V7M3_PIPE] |156|  ; [ORIG 16-BIT INS]
     253 00000036 4040F040          ORR       A1, A1, #-1073741824  ; [DPU_V7M3_PIPE] |156|  ; [KEEP 32-BIT INS]
     254 0000003a 6008              STR       A1, [A2, #0]          ; [DPU_V7M3_PIPE] |156|  ; [ORIG 16-BIT INS]
     255                            .dwpsn  file "../driverlib/fpu.c",line 157,column 1,is_stmt,isa 1
     256                    $C$DW$8 .dwtag  DW_TAG_TI_branch
     257                            .dwattr $C$DW$8, DW_AT_low_pc(0x00)
     258                            .dwattr $C$DW$8, DW_AT_TI_return
     259                    
     260 0000003c 4770              BX        LR                    ; [DPU_V7M3_PIPE]  ; [ORIG 16-BIT INS]
     261                            ; BRANCH OCCURS                  ; [] 
     262                            .dwattr $C$DW$7, DW_AT_TI_end_file("../driverlib/fpu.c")
     263                            .dwattr $C$DW$7, DW_AT_TI_end_line(0x9d)
     264                            .dwattr $C$DW$7, DW_AT_TI_end_column(0x01)
     265                            .dwendentry
     266                            .dwendtag $C$DW$7
     267                    
     268 0000003e                   .sect   ".text"
     269                            .clink
     270                            .thumbfunc FPUStackingDisable
     271 0000003e                   .thumb
     272                            .global FPUStackingDisable
     273                    
     274                    $C$DW$9 .dwtag  DW_TAG_subprogram
     275                            .dwattr $C$DW$9, DW_AT_name("FPUStackingDisable")
TI ARM Assembler Unix v18.1.1 Fri Jul  3 20:08:24 2020

Tools Copyright (c) 1996-2017 Texas Instruments Incorporated
fpu.asm                                                              PAGE    6

     276                            .dwattr $C$DW$9, DW_AT_low_pc(FPUStackingDisable)
     277                            .dwattr $C$DW$9, DW_AT_high_pc(0x00)
     278                            .dwattr $C$DW$9, DW_AT_TI_symbol_name("FPUStackingDisable")
     279                            .dwattr $C$DW$9, DW_AT_external
     280                            .dwattr $C$DW$9, DW_AT_TI_begin_file("../driverlib/fpu.c")
     281                            .dwattr $C$DW$9, DW_AT_TI_begin_line(0xac)
     282                            .dwattr $C$DW$9, DW_AT_TI_begin_column(0x01)
     283                            .dwattr $C$DW$9, DW_AT_decl_file("../driverlib/fpu.c")
     284                            .dwattr $C$DW$9, DW_AT_decl_line(0xac)
     285                            .dwattr $C$DW$9, DW_AT_decl_column(0x01)
     286                            .dwattr $C$DW$9, DW_AT_TI_max_frame_size(0x00)
     287                            .dwpsn  file "../driverlib/fpu.c",line 173,column 1,is_stmt,address FPUStackingDisable,isa 1
     288                    
     289                            .dwfde $C$DW$CIE, FPUStackingDisable
     290                    ;----------------------------------------------------------------------
     291                    ; 172 | FPUStackingDisable(void)                                               
     292                    ; 174 | //                                                                     
     293                    ; 175 | // Disable automatic and lazy state preservation for the floating-point
     294                    ; 176 | // unit.                                                               
     295                    ; 177 | //                                                                     
     296                    ;----------------------------------------------------------------------
     297                    
     298                    ;*****************************************************************************
     299                    ;* FUNCTION NAME: FPUStackingDisable                                         *
     300                    ;*                                                                           *
     301                    ;*   Regs Modified     : A1,A2                                               *
     302                    ;*   Regs Used         : A1,A2,LR                                            *
     303                    ;*   Local Frame Size  : 0 Args + 0 Auto + 0 Save = 0 byte                   *
     304                    ;*****************************************************************************
     305 0000003e           FPUStackingDisable:
     306                    ;* --------------------------------------------------------------------------*
     307                            .dwcfi  cfa_offset, 0
     308                            .dwpsn  file "../driverlib/fpu.c",line 178,column 5,is_stmt,isa 1
     309                    ;----------------------------------------------------------------------
     310                    ; 178 | HWREG(NVIC_FPCC) &= ~(NVIC_FPCC_ASPEN | NVIC_FPCC_LSPEN);              
     311                    ;----------------------------------------------------------------------
     312 0000003e 491E              LDR       A2, $C$CON2           ; [DPU_V7M3_PIPE] |178|  ; [ORIG 16-BIT INS]
     313 00000040 6808              LDR       A1, [A2, #0]          ; [DPU_V7M3_PIPE] |178|  ; [ORIG 16-BIT INS]
     314 00000042 4040F020          BIC       A1, A1, #-1073741824  ; [DPU_V7M3_PIPE] |178|  ; [KEEP 32-BIT INS]
     315 00000046 6008              STR       A1, [A2, #0]          ; [DPU_V7M3_PIPE] |178|  ; [ORIG 16-BIT INS]
     316                            .dwpsn  file "../driverlib/fpu.c",line 179,column 1,is_stmt,isa 1
     317                    $C$DW$10        .dwtag  DW_TAG_TI_branch
     318                            .dwattr $C$DW$10, DW_AT_low_pc(0x00)
     319                            .dwattr $C$DW$10, DW_AT_TI_return
     320                    
     321 00000048 4770              BX        LR                    ; [DPU_V7M3_PIPE]  ; [ORIG 16-BIT INS]
     322                            ; BRANCH OCCURS                  ; [] 
     323                            .dwattr $C$DW$9, DW_AT_TI_end_file("../driverlib/fpu.c")
     324                            .dwattr $C$DW$9, DW_AT_TI_end_line(0xb3)
     325                            .dwattr $C$DW$9, DW_AT_TI_end_column(0x01)
     326                            .dwendentry
     327                            .dwendtag $C$DW$9
     328                    
     329 0000004a                   .sect   ".text"
     330                            .clink
TI ARM Assembler Unix v18.1.1 Fri Jul  3 20:08:24 2020

Tools Copyright (c) 1996-2017 Texas Instruments Incorporated
fpu.asm                                                              PAGE    7

     331                            .thumbfunc FPUHalfPrecisionModeSet
     332 0000004a                   .thumb
     333                            .global FPUHalfPrecisionModeSet
     334                    
     335                    $C$DW$11        .dwtag  DW_TAG_subprogram
     336                            .dwattr $C$DW$11, DW_AT_name("FPUHalfPrecisionModeSet")
     337                            .dwattr $C$DW$11, DW_AT_low_pc(FPUHalfPrecisionModeSet)
     338                            .dwattr $C$DW$11, DW_AT_high_pc(0x00)
     339                            .dwattr $C$DW$11, DW_AT_TI_symbol_name("FPUHalfPrecisionModeSet")
     340                            .dwattr $C$DW$11, DW_AT_external
     341                            .dwattr $C$DW$11, DW_AT_TI_begin_file("../driverlib/fpu.c")
     342                            .dwattr $C$DW$11, DW_AT_TI_begin_line(0xc9)
     343                            .dwattr $C$DW$11, DW_AT_TI_begin_column(0x01)
     344                            .dwattr $C$DW$11, DW_AT_decl_file("../driverlib/fpu.c")
     345                            .dwattr $C$DW$11, DW_AT_decl_line(0xc9)
     346                            .dwattr $C$DW$11, DW_AT_decl_column(0x01)
     347                            .dwattr $C$DW$11, DW_AT_TI_max_frame_size(0x08)
     348                            .dwpsn  file "../driverlib/fpu.c",line 202,column 1,is_stmt,address FPUHalfPrecisionModeSet,is
     349                    
     350                            .dwfde $C$DW$CIE, FPUHalfPrecisionModeSet
     351                    $C$DW$12        .dwtag  DW_TAG_formal_parameter
     352                            .dwattr $C$DW$12, DW_AT_name("ui32Mode")
     353                            .dwattr $C$DW$12, DW_AT_TI_symbol_name("ui32Mode")
     354                            .dwattr $C$DW$12, DW_AT_type(*$C$DW$T$26)
     355                            .dwattr $C$DW$12, DW_AT_location[DW_OP_reg0]
     356                    
     357                    ;----------------------------------------------------------------------
     358                    ; 201 | FPUHalfPrecisionModeSet(uint32_t ui32Mode)                             
     359                    ;----------------------------------------------------------------------
     360                    
     361                    ;*****************************************************************************
     362                    ;* FUNCTION NAME: FPUHalfPrecisionModeSet                                    *
     363                    ;*                                                                           *
     364                    ;*   Regs Modified     : A1,A2,A3,SP,SR                                      *
     365                    ;*   Regs Used         : A1,A2,A3,SP,LR,SR                                   *
     366                    ;*   Local Frame Size  : 0 Args + 4 Auto + 0 Save = 4 byte                   *
     367                    ;*****************************************************************************
     368 0000004a           FPUHalfPrecisionModeSet:
     369                    ;* --------------------------------------------------------------------------*
     370                            .dwcfi  cfa_offset, 0
     371 0000004a 0D08F1AD          SUB       SP, SP, #8            ; [DPU_V7M3_PIPE]  ; [KEEP 32-BIT INS]
     372                            .dwcfi  cfa_offset, 8
     373                    $C$DW$13        .dwtag  DW_TAG_variable
     374                            .dwattr $C$DW$13, DW_AT_name("ui32Mode")
     375                            .dwattr $C$DW$13, DW_AT_TI_symbol_name("ui32Mode")
     376                            .dwattr $C$DW$13, DW_AT_type(*$C$DW$T$26)
     377                            .dwattr $C$DW$13, DW_AT_location[DW_OP_breg13 0]
     378                    
     379                    ;----------------------------------------------------------------------
     380                    ; 203 | //                                                                     
     381                    ; 204 | // Set the half-precision floating-point format.                       
     382                    ; 205 | //                                                                     
     383                    ;----------------------------------------------------------------------
     384 0000004e 9000              STR       A1, [SP, #0]          ; [DPU_V7M3_PIPE] |202|  ; [ORIG 16-BIT INS]
     385                            .dwpsn  file "../driverlib/fpu.c",line 206,column 5,is_stmt,isa 1
TI ARM Assembler Unix v18.1.1 Fri Jul  3 20:08:24 2020

Tools Copyright (c) 1996-2017 Texas Instruments Incorporated
fpu.asm                                                              PAGE    8

     386                    ;----------------------------------------------------------------------
     387                    ; 206 | HWREG(NVIC_FPDSC) = (HWREG(NVIC_FPDSC) & ~(NVIC_FPDSC_AHP)) | ui32Mode;
     388                    ;----------------------------------------------------------------------
     389 00000050 481A              LDR       A1, $C$CON3           ; [DPU_V7M3_PIPE] |206|  ; [ORIG 16-BIT INS]
     390 00000052 4A1A              LDR       A3, $C$CON3           ; [DPU_V7M3_PIPE] |206|  ; [ORIG 16-BIT INS]
     391 00000054 9900              LDR       A2, [SP, #0]          ; [DPU_V7M3_PIPE] |206|  ; [ORIG 16-BIT INS]
     392 00000056 6800              LDR       A1, [A1, #0]          ; [DPU_V7M3_PIPE] |206|  ; [ORIG 16-BIT INS]
     393 00000058 6080F020          BIC       A1, A1, #67108864     ; [DPU_V7M3_PIPE] |206|  ; [KEEP 32-BIT INS]
     394 0000005c 4301              ORRS      A2, A2, A1            ; [DPU_V7M3_PIPE] |206|  ; [ORIG 16-BIT INS]
     395 0000005e 6011              STR       A2, [A3, #0]          ; [DPU_V7M3_PIPE] |206|  ; [ORIG 16-BIT INS]
     396                            .dwpsn  file "../driverlib/fpu.c",line 207,column 1,is_stmt,isa 1
     397 00000060 B002              ADD       SP, SP, #8            ; [DPU_V7M3_PIPE]  ; [ORIG 16-BIT INS]
     398                            .dwcfi  cfa_offset, 0
     399                    $C$DW$14        .dwtag  DW_TAG_TI_branch
     400                            .dwattr $C$DW$14, DW_AT_low_pc(0x00)
     401                            .dwattr $C$DW$14, DW_AT_TI_return
     402                    
     403 00000062 4770              BX        LR                    ; [DPU_V7M3_PIPE]  ; [ORIG 16-BIT INS]
     404                            ; BRANCH OCCURS                  ; [] 
     405                            .dwattr $C$DW$11, DW_AT_TI_end_file("../driverlib/fpu.c")
     406                            .dwattr $C$DW$11, DW_AT_TI_end_line(0xcf)
     407                            .dwattr $C$DW$11, DW_AT_TI_end_column(0x01)
     408                            .dwendentry
     409                            .dwendtag $C$DW$11
     410                    
     411 00000064                   .sect   ".text"
     412                            .clink
     413                            .thumbfunc FPUNaNModeSet
     414 00000064                   .thumb
     415                            .global FPUNaNModeSet
     416                    
     417                    $C$DW$15        .dwtag  DW_TAG_subprogram
     418                            .dwattr $C$DW$15, DW_AT_name("FPUNaNModeSet")
     419                            .dwattr $C$DW$15, DW_AT_low_pc(FPUNaNModeSet)
     420                            .dwattr $C$DW$15, DW_AT_high_pc(0x00)
     421                            .dwattr $C$DW$15, DW_AT_TI_symbol_name("FPUNaNModeSet")
     422                            .dwattr $C$DW$15, DW_AT_external
     423                            .dwattr $C$DW$15, DW_AT_TI_begin_file("../driverlib/fpu.c")
     424                            .dwattr $C$DW$15, DW_AT_TI_begin_line(0xe3)
     425                            .dwattr $C$DW$15, DW_AT_TI_begin_column(0x01)
     426                            .dwattr $C$DW$15, DW_AT_decl_file("../driverlib/fpu.c")
     427                            .dwattr $C$DW$15, DW_AT_decl_line(0xe3)
     428                            .dwattr $C$DW$15, DW_AT_decl_column(0x01)
     429                            .dwattr $C$DW$15, DW_AT_TI_max_frame_size(0x08)
     430                            .dwpsn  file "../driverlib/fpu.c",line 228,column 1,is_stmt,address FPUNaNModeSet,isa 1
     431                    
     432                            .dwfde $C$DW$CIE, FPUNaNModeSet
     433                    $C$DW$16        .dwtag  DW_TAG_formal_parameter
     434                            .dwattr $C$DW$16, DW_AT_name("ui32Mode")
     435                            .dwattr $C$DW$16, DW_AT_TI_symbol_name("ui32Mode")
     436                            .dwattr $C$DW$16, DW_AT_type(*$C$DW$T$26)
     437                            .dwattr $C$DW$16, DW_AT_location[DW_OP_reg0]
     438                    
     439                    ;----------------------------------------------------------------------
     440                    ; 227 | FPUNaNModeSet(uint32_t ui32Mode)                                       
TI ARM Assembler Unix v18.1.1 Fri Jul  3 20:08:24 2020

Tools Copyright (c) 1996-2017 Texas Instruments Incorporated
fpu.asm                                                              PAGE    9

     441                    ;----------------------------------------------------------------------
     442                    
     443                    ;*****************************************************************************
     444                    ;* FUNCTION NAME: FPUNaNModeSet                                              *
     445                    ;*                                                                           *
     446                    ;*   Regs Modified     : A1,A2,A3,SP,SR                                      *
     447                    ;*   Regs Used         : A1,A2,A3,SP,LR,SR                                   *
     448                    ;*   Local Frame Size  : 0 Args + 4 Auto + 0 Save = 4 byte                   *
     449                    ;*****************************************************************************
     450 00000064           FPUNaNModeSet:
     451                    ;* --------------------------------------------------------------------------*
     452                            .dwcfi  cfa_offset, 0
     453 00000064 0D08F1AD          SUB       SP, SP, #8            ; [DPU_V7M3_PIPE]  ; [KEEP 32-BIT INS]
     454                            .dwcfi  cfa_offset, 8
     455                    $C$DW$17        .dwtag  DW_TAG_variable
     456                            .dwattr $C$DW$17, DW_AT_name("ui32Mode")
     457                            .dwattr $C$DW$17, DW_AT_TI_symbol_name("ui32Mode")
     458                            .dwattr $C$DW$17, DW_AT_type(*$C$DW$T$26)
     459                            .dwattr $C$DW$17, DW_AT_location[DW_OP_breg13 0]
     460                    
     461                    ;----------------------------------------------------------------------
     462                    ; 229 | //                                                                     
     463                    ; 230 | // Set the NaN mode.                                                   
     464                    ; 231 | //                                                                     
     465                    ;----------------------------------------------------------------------
     466 00000068 9000              STR       A1, [SP, #0]          ; [DPU_V7M3_PIPE] |228|  ; [ORIG 16-BIT INS]
     467                            .dwpsn  file "../driverlib/fpu.c",line 232,column 5,is_stmt,isa 1
     468                    ;----------------------------------------------------------------------
     469                    ; 232 | HWREG(NVIC_FPDSC) = (HWREG(NVIC_FPDSC) & ~(NVIC_FPDSC_DN)) | ui32Mode; 
     470                    ;----------------------------------------------------------------------
     471 0000006a 4814              LDR       A1, $C$CON3           ; [DPU_V7M3_PIPE] |232|  ; [ORIG 16-BIT INS]
     472 0000006c 4A13              LDR       A3, $C$CON3           ; [DPU_V7M3_PIPE] |232|  ; [ORIG 16-BIT INS]
     473 0000006e 9900              LDR       A2, [SP, #0]          ; [DPU_V7M3_PIPE] |232|  ; [ORIG 16-BIT INS]
     474 00000070 6800              LDR       A1, [A1, #0]          ; [DPU_V7M3_PIPE] |232|  ; [ORIG 16-BIT INS]
     475 00000072 7000F020          BIC       A1, A1, #33554432     ; [DPU_V7M3_PIPE] |232|  ; [KEEP 32-BIT INS]
     476 00000076 4301              ORRS      A2, A2, A1            ; [DPU_V7M3_PIPE] |232|  ; [ORIG 16-BIT INS]
     477 00000078 6011              STR       A2, [A3, #0]          ; [DPU_V7M3_PIPE] |232|  ; [ORIG 16-BIT INS]
     478                            .dwpsn  file "../driverlib/fpu.c",line 233,column 1,is_stmt,isa 1
     479 0000007a B002              ADD       SP, SP, #8            ; [DPU_V7M3_PIPE]  ; [ORIG 16-BIT INS]
     480                            .dwcfi  cfa_offset, 0
     481                    $C$DW$18        .dwtag  DW_TAG_TI_branch
     482                            .dwattr $C$DW$18, DW_AT_low_pc(0x00)
     483                            .dwattr $C$DW$18, DW_AT_TI_return
     484                    
     485 0000007c 4770              BX        LR                    ; [DPU_V7M3_PIPE]  ; [ORIG 16-BIT INS]
     486                            ; BRANCH OCCURS                  ; [] 
     487                            .dwattr $C$DW$15, DW_AT_TI_end_file("../driverlib/fpu.c")
     488                            .dwattr $C$DW$15, DW_AT_TI_end_line(0xe9)
     489                            .dwattr $C$DW$15, DW_AT_TI_end_column(0x01)
     490                            .dwendentry
     491                            .dwendtag $C$DW$15
     492                    
     493 0000007e                   .sect   ".text"
     494                            .clink
     495                            .thumbfunc FPUFlushToZeroModeSet
TI ARM Assembler Unix v18.1.1 Fri Jul  3 20:08:24 2020

Tools Copyright (c) 1996-2017 Texas Instruments Incorporated
fpu.asm                                                              PAGE   10

     496 0000007e                   .thumb
     497                            .global FPUFlushToZeroModeSet
     498                    
     499                    $C$DW$19        .dwtag  DW_TAG_subprogram
     500                            .dwattr $C$DW$19, DW_AT_name("FPUFlushToZeroModeSet")
     501                            .dwattr $C$DW$19, DW_AT_low_pc(FPUFlushToZeroModeSet)
     502                            .dwattr $C$DW$19, DW_AT_high_pc(0x00)
     503                            .dwattr $C$DW$19, DW_AT_TI_symbol_name("FPUFlushToZeroModeSet")
     504                            .dwattr $C$DW$19, DW_AT_external
     505                            .dwattr $C$DW$19, DW_AT_TI_begin_file("../driverlib/fpu.c")
     506                            .dwattr $C$DW$19, DW_AT_TI_begin_line(0xff)
     507                            .dwattr $C$DW$19, DW_AT_TI_begin_column(0x01)
     508                            .dwattr $C$DW$19, DW_AT_decl_file("../driverlib/fpu.c")
     509                            .dwattr $C$DW$19, DW_AT_decl_line(0xff)
     510                            .dwattr $C$DW$19, DW_AT_decl_column(0x01)
     511                            .dwattr $C$DW$19, DW_AT_TI_max_frame_size(0x08)
     512                            .dwpsn  file "../driverlib/fpu.c",line 256,column 1,is_stmt,address FPUFlushToZeroModeSet,isa 
     513                    
     514                            .dwfde $C$DW$CIE, FPUFlushToZeroModeSet
     515                    $C$DW$20        .dwtag  DW_TAG_formal_parameter
     516                            .dwattr $C$DW$20, DW_AT_name("ui32Mode")
     517                            .dwattr $C$DW$20, DW_AT_TI_symbol_name("ui32Mode")
     518                            .dwattr $C$DW$20, DW_AT_type(*$C$DW$T$26)
     519                            .dwattr $C$DW$20, DW_AT_location[DW_OP_reg0]
     520                    
     521                    ;----------------------------------------------------------------------
     522                    ; 255 | FPUFlushToZeroModeSet(uint32_t ui32Mode)                               
     523                    ;----------------------------------------------------------------------
     524                    
     525                    ;*****************************************************************************
     526                    ;* FUNCTION NAME: FPUFlushToZeroModeSet                                      *
     527                    ;*                                                                           *
     528                    ;*   Regs Modified     : A1,A2,A3,SP,SR                                      *
     529                    ;*   Regs Used         : A1,A2,A3,SP,LR,SR                                   *
     530                    ;*   Local Frame Size  : 0 Args + 4 Auto + 0 Save = 4 byte                   *
     531                    ;*****************************************************************************
     532 0000007e           FPUFlushToZeroModeSet:
     533                    ;* --------------------------------------------------------------------------*
     534                            .dwcfi  cfa_offset, 0
     535 0000007e 0D08F1AD          SUB       SP, SP, #8            ; [DPU_V7M3_PIPE]  ; [KEEP 32-BIT INS]
     536                            .dwcfi  cfa_offset, 8
     537                    $C$DW$21        .dwtag  DW_TAG_variable
     538                            .dwattr $C$DW$21, DW_AT_name("ui32Mode")
     539                            .dwattr $C$DW$21, DW_AT_TI_symbol_name("ui32Mode")
     540                            .dwattr $C$DW$21, DW_AT_type(*$C$DW$T$26)
     541                            .dwattr $C$DW$21, DW_AT_location[DW_OP_breg13 0]
     542                    
     543                    ;----------------------------------------------------------------------
     544                    ; 257 | //                                                                     
     545                    ; 258 | // Set the flush-to-zero mode.                                         
     546                    ; 259 | //                                                                     
     547                    ;----------------------------------------------------------------------
     548 00000082 9000              STR       A1, [SP, #0]          ; [DPU_V7M3_PIPE] |256|  ; [ORIG 16-BIT INS]
     549                            .dwpsn  file "../driverlib/fpu.c",line 260,column 5,is_stmt,isa 1
     550                    ;----------------------------------------------------------------------
TI ARM Assembler Unix v18.1.1 Fri Jul  3 20:08:24 2020

Tools Copyright (c) 1996-2017 Texas Instruments Incorporated
fpu.asm                                                              PAGE   11

     551                    ; 260 | HWREG(NVIC_FPDSC) = (HWREG(NVIC_FPDSC) & ~(NVIC_FPDSC_FZ)) | ui32Mode; 
     552                    ;----------------------------------------------------------------------
     553 00000084 480D              LDR       A1, $C$CON3           ; [DPU_V7M3_PIPE] |260|  ; [ORIG 16-BIT INS]
     554 00000086 4A0D              LDR       A3, $C$CON3           ; [DPU_V7M3_PIPE] |260|  ; [ORIG 16-BIT INS]
     555 00000088 9900              LDR       A2, [SP, #0]          ; [DPU_V7M3_PIPE] |260|  ; [ORIG 16-BIT INS]
     556 0000008a 6800              LDR       A1, [A1, #0]          ; [DPU_V7M3_PIPE] |260|  ; [ORIG 16-BIT INS]
     557 0000008c 7080F020          BIC       A1, A1, #16777216     ; [DPU_V7M3_PIPE] |260|  ; [KEEP 32-BIT INS]
     558 00000090 4301              ORRS      A2, A2, A1            ; [DPU_V7M3_PIPE] |260|  ; [ORIG 16-BIT INS]
     559 00000092 6011              STR       A2, [A3, #0]          ; [DPU_V7M3_PIPE] |260|  ; [ORIG 16-BIT INS]
     560                            .dwpsn  file "../driverlib/fpu.c",line 261,column 1,is_stmt,isa 1
     561 00000094 B002              ADD       SP, SP, #8            ; [DPU_V7M3_PIPE]  ; [ORIG 16-BIT INS]
     562                            .dwcfi  cfa_offset, 0
     563                    $C$DW$22        .dwtag  DW_TAG_TI_branch
     564                            .dwattr $C$DW$22, DW_AT_low_pc(0x00)
     565                            .dwattr $C$DW$22, DW_AT_TI_return
     566                    
     567 00000096 4770              BX        LR                    ; [DPU_V7M3_PIPE]  ; [ORIG 16-BIT INS]
     568                            ; BRANCH OCCURS                  ; [] 
     569                            .dwattr $C$DW$19, DW_AT_TI_end_file("../driverlib/fpu.c")
     570                            .dwattr $C$DW$19, DW_AT_TI_end_line(0x105)
     571                            .dwattr $C$DW$19, DW_AT_TI_end_column(0x01)
     572                            .dwendentry
     573                            .dwendtag $C$DW$19
     574                    
     575 00000098                   .sect   ".text"
     576                            .clink
     577                            .thumbfunc FPURoundingModeSet
     578 00000098                   .thumb
     579                            .global FPURoundingModeSet
     580                    
     581                    $C$DW$23        .dwtag  DW_TAG_subprogram
     582                            .dwattr $C$DW$23, DW_AT_name("FPURoundingModeSet")
     583                            .dwattr $C$DW$23, DW_AT_low_pc(FPURoundingModeSet)
     584                            .dwattr $C$DW$23, DW_AT_high_pc(0x00)
     585                            .dwattr $C$DW$23, DW_AT_TI_symbol_name("FPURoundingModeSet")
     586                            .dwattr $C$DW$23, DW_AT_external
     587                            .dwattr $C$DW$23, DW_AT_TI_begin_file("../driverlib/fpu.c")
     588                            .dwattr $C$DW$23, DW_AT_TI_begin_line(0x11f)
     589                            .dwattr $C$DW$23, DW_AT_TI_begin_column(0x01)
     590                            .dwattr $C$DW$23, DW_AT_decl_file("../driverlib/fpu.c")
     591                            .dwattr $C$DW$23, DW_AT_decl_line(0x11f)
     592                            .dwattr $C$DW$23, DW_AT_decl_column(0x01)
     593                            .dwattr $C$DW$23, DW_AT_TI_max_frame_size(0x08)
     594                            .dwpsn  file "../driverlib/fpu.c",line 288,column 1,is_stmt,address FPURoundingModeSet,isa 1
     595                    
     596                            .dwfde $C$DW$CIE, FPURoundingModeSet
     597                    $C$DW$24        .dwtag  DW_TAG_formal_parameter
     598                            .dwattr $C$DW$24, DW_AT_name("ui32Mode")
     599                            .dwattr $C$DW$24, DW_AT_TI_symbol_name("ui32Mode")
     600                            .dwattr $C$DW$24, DW_AT_type(*$C$DW$T$26)
     601                            .dwattr $C$DW$24, DW_AT_location[DW_OP_reg0]
     602                    
     603                    ;----------------------------------------------------------------------
     604                    ; 287 | FPURoundingModeSet(uint32_t ui32Mode)                                  
     605                    ;----------------------------------------------------------------------
TI ARM Assembler Unix v18.1.1 Fri Jul  3 20:08:24 2020

Tools Copyright (c) 1996-2017 Texas Instruments Incorporated
fpu.asm                                                              PAGE   12

     606                    
     607                    ;*****************************************************************************
     608                    ;* FUNCTION NAME: FPURoundingModeSet                                         *
     609                    ;*                                                                           *
     610                    ;*   Regs Modified     : A1,A2,A3,SP,SR                                      *
     611                    ;*   Regs Used         : A1,A2,A3,SP,LR,SR                                   *
     612                    ;*   Local Frame Size  : 0 Args + 4 Auto + 0 Save = 4 byte                   *
     613                    ;*****************************************************************************
     614 00000098           FPURoundingModeSet:
     615                    ;* --------------------------------------------------------------------------*
     616                            .dwcfi  cfa_offset, 0
     617 00000098 0D08F1AD          SUB       SP, SP, #8            ; [DPU_V7M3_PIPE]  ; [KEEP 32-BIT INS]
     618                            .dwcfi  cfa_offset, 8
     619                    $C$DW$25        .dwtag  DW_TAG_variable
     620                            .dwattr $C$DW$25, DW_AT_name("ui32Mode")
     621                            .dwattr $C$DW$25, DW_AT_TI_symbol_name("ui32Mode")
     622                            .dwattr $C$DW$25, DW_AT_type(*$C$DW$T$26)
     623                            .dwattr $C$DW$25, DW_AT_location[DW_OP_breg13 0]
     624                    
     625                    ;----------------------------------------------------------------------
     626                    ; 289 | //                                                                     
     627                    ; 290 | // Set the rounding mode.                                              
     628                    ; 291 | //                                                                     
     629                    ;----------------------------------------------------------------------
     630 0000009c 9000              STR       A1, [SP, #0]          ; [DPU_V7M3_PIPE] |288|  ; [ORIG 16-BIT INS]
     631                            .dwpsn  file "../driverlib/fpu.c",line 292,column 5,is_stmt,isa 1
     632                    ;----------------------------------------------------------------------
     633                    ; 292 | HWREG(NVIC_FPDSC) = (HWREG(NVIC_FPDSC) & ~(NVIC_FPDSC_RMODE_M)) | ui32M
     634                    ;     | ode;                                                                   
     635                    ;----------------------------------------------------------------------
     636 0000009e 4807              LDR       A1, $C$CON3           ; [DPU_V7M3_PIPE] |292|  ; [ORIG 16-BIT INS]
     637 000000a0 4A06              LDR       A3, $C$CON3           ; [DPU_V7M3_PIPE] |292|  ; [ORIG 16-BIT INS]
     638 000000a2 9900              LDR       A2, [SP, #0]          ; [DPU_V7M3_PIPE] |292|  ; [ORIG 16-BIT INS]
     639 000000a4 6800              LDR       A1, [A1, #0]          ; [DPU_V7M3_PIPE] |292|  ; [ORIG 16-BIT INS]
     640 000000a6 0040F420          BIC       A1, A1, #12582912     ; [DPU_V7M3_PIPE] |292|  ; [KEEP 32-BIT INS]
     641 000000aa 4301              ORRS      A2, A2, A1            ; [DPU_V7M3_PIPE] |292|  ; [ORIG 16-BIT INS]
     642 000000ac 6011              STR       A2, [A3, #0]          ; [DPU_V7M3_PIPE] |292|  ; [ORIG 16-BIT INS]
     643                            .dwpsn  file "../driverlib/fpu.c",line 293,column 1,is_stmt,isa 1
     644 000000ae B002              ADD       SP, SP, #8            ; [DPU_V7M3_PIPE]  ; [ORIG 16-BIT INS]
     645                            .dwcfi  cfa_offset, 0
     646                    $C$DW$26        .dwtag  DW_TAG_TI_branch
     647                            .dwattr $C$DW$26, DW_AT_low_pc(0x00)
     648                            .dwattr $C$DW$26, DW_AT_TI_return
     649                    
     650 000000b0 4770              BX        LR                    ; [DPU_V7M3_PIPE]  ; [ORIG 16-BIT INS]
     651                            ; BRANCH OCCURS                  ; [] 
     652                            .dwattr $C$DW$23, DW_AT_TI_end_file("../driverlib/fpu.c")
     653                            .dwattr $C$DW$23, DW_AT_TI_end_line(0x125)
     654                            .dwattr $C$DW$23, DW_AT_TI_end_column(0x01)
     655                            .dwendentry
     656                            .dwendtag $C$DW$23
     657                    
     658                    ;******************************************************************************
     659                    ;* CONSTANT TABLE                                                             *
     660                    ;******************************************************************************
TI ARM Assembler Unix v18.1.1 Fri Jul  3 20:08:24 2020

Tools Copyright (c) 1996-2017 Texas Instruments Incorporated
fpu.asm                                                              PAGE   13

     661 000000b2                   .sect   ".text"
     662                            .align  4
     663 000000b2 ED8846C0  ||$C$CON1||:    .bits   -536810104,32
         000000b6 0000E000 
     664                            .align  4
     665 000000b6 EF34E000  ||$C$CON2||:    .bits   -536809676,32
         000000ba 0000E000 
     666                            .align  4
     667 000000ba EF3CE000  ||$C$CON3||:    .bits   -536809668,32
         000000be 0000E000 
     668                    
     669                    ;******************************************************************************
     670                    ;* BUILD ATTRIBUTES                                                           *
     671                    ;******************************************************************************
     672                            .battr "aeabi", Tag_File, 1, Tag_ABI_PCS_wchar_t(2)
     673                            .battr "aeabi", Tag_File, 1, Tag_ABI_FP_rounding(0)
     674                            .battr "aeabi", Tag_File, 1, Tag_ABI_FP_denormal(0)
     675                            .battr "aeabi", Tag_File, 1, Tag_ABI_FP_exceptions(0)
     676                            .battr "aeabi", Tag_File, 1, Tag_ABI_FP_number_model(1)
     677                            .battr "aeabi", Tag_File, 1, Tag_ABI_enum_size(0)
     678                            .battr "aeabi", Tag_File, 1, Tag_ABI_optimization_goals(5)
     679                            .battr "aeabi", Tag_File, 1, Tag_ABI_FP_optimization_goals(0)
     680                            .battr "TI", Tag_File, 1, Tag_Bitfield_layout(2)
     681                            .battr "aeabi", Tag_File, 1, Tag_ABI_VFP_args(3)
     682                            .battr "TI", Tag_File, 1, Tag_FP_interface(1)
     683                    
     684                    ;******************************************************************************
     685                    ;* TYPE INFORMATION                                                           *
     686                    ;******************************************************************************
     687                    
     688                    $C$DW$T$21      .dwtag  DW_TAG_structure_type
     689                            .dwattr $C$DW$T$21, DW_AT_byte_size(0x10)
     690                    $C$DW$27        .dwtag  DW_TAG_member
     691                            .dwattr $C$DW$27, DW_AT_type(*$C$DW$T$14)
     692                            .dwattr $C$DW$27, DW_AT_name("__max_align1")
     693                            .dwattr $C$DW$27, DW_AT_TI_symbol_name("__max_align1")
     694                            .dwattr $C$DW$27, DW_AT_data_member_location[DW_OP_plus_uconst 0x0]
     695                            .dwattr $C$DW$27, DW_AT_accessibility(DW_ACCESS_public)
     696                            .dwattr $C$DW$27, DW_AT_decl_file("/home/pola/ti/ccsv8/tools/compiler/ti-cgt-arm_18.1.1.LTS/in
     697                            .dwattr $C$DW$27, DW_AT_decl_line(0x70)
     698                            .dwattr $C$DW$27, DW_AT_decl_column(0x0c)
     699                    
     700                    $C$DW$28        .dwtag  DW_TAG_member
     701                            .dwattr $C$DW$28, DW_AT_type(*$C$DW$T$18)
     702                            .dwattr $C$DW$28, DW_AT_name("__max_align2")
     703                            .dwattr $C$DW$28, DW_AT_TI_symbol_name("__max_align2")
     704                            .dwattr $C$DW$28, DW_AT_data_member_location[DW_OP_plus_uconst 0x8]
     705                            .dwattr $C$DW$28, DW_AT_accessibility(DW_ACCESS_public)
     706                            .dwattr $C$DW$28, DW_AT_decl_file("/home/pola/ti/ccsv8/tools/compiler/ti-cgt-arm_18.1.1.LTS/in
     707                            .dwattr $C$DW$28, DW_AT_decl_line(0x71)
     708                            .dwattr $C$DW$28, DW_AT_decl_column(0x0e)
     709                    
     710                            .dwattr $C$DW$T$21, DW_AT_decl_file("/home/pola/ti/ccsv8/tools/compiler/ti-cgt-arm_18.1.1.LTS/
     711                            .dwattr $C$DW$T$21, DW_AT_decl_line(0x6f)
     712                            .dwattr $C$DW$T$21, DW_AT_decl_column(0x10)
TI ARM Assembler Unix v18.1.1 Fri Jul  3 20:08:24 2020

Tools Copyright (c) 1996-2017 Texas Instruments Incorporated
fpu.asm                                                              PAGE   14

     713                            .dwendtag $C$DW$T$21
     714                    
     715                    $C$DW$T$23      .dwtag  DW_TAG_typedef
     716                            .dwattr $C$DW$T$23, DW_AT_name("__max_align_t")
     717                            .dwattr $C$DW$T$23, DW_AT_type(*$C$DW$T$21)
     718                            .dwattr $C$DW$T$23, DW_AT_language(DW_LANG_C)
     719                            .dwattr $C$DW$T$23, DW_AT_decl_file("/home/pola/ti/ccsv8/tools/compiler/ti-cgt-arm_18.1.1.LTS/
     720                            .dwattr $C$DW$T$23, DW_AT_decl_line(0x72)
     721                            .dwattr $C$DW$T$23, DW_AT_decl_column(0x03)
     722                    
     723                    $C$DW$T$2       .dwtag  DW_TAG_unspecified_type
     724                            .dwattr $C$DW$T$2, DW_AT_name("void")
     725                    
     726                    $C$DW$T$3       .dwtag  DW_TAG_pointer_type
     727                            .dwattr $C$DW$T$3, DW_AT_type(*$C$DW$T$2)
     728                            .dwattr $C$DW$T$3, DW_AT_address_class(0x20)
     729                    
     730                    $C$DW$T$4       .dwtag  DW_TAG_base_type
     731                            .dwattr $C$DW$T$4, DW_AT_encoding(DW_ATE_boolean)
     732                            .dwattr $C$DW$T$4, DW_AT_name("bool")
     733                            .dwattr $C$DW$T$4, DW_AT_byte_size(0x01)
     734                    
     735                    $C$DW$T$5       .dwtag  DW_TAG_base_type
     736                            .dwattr $C$DW$T$5, DW_AT_encoding(DW_ATE_signed_char)
     737                            .dwattr $C$DW$T$5, DW_AT_name("signed char")
     738                            .dwattr $C$DW$T$5, DW_AT_byte_size(0x01)
     739                    
     740                    $C$DW$T$28      .dwtag  DW_TAG_typedef
     741                            .dwattr $C$DW$T$28, DW_AT_name("__int8_t")
     742                            .dwattr $C$DW$T$28, DW_AT_type(*$C$DW$T$5)
     743                            .dwattr $C$DW$T$28, DW_AT_language(DW_LANG_C)
     744                            .dwattr $C$DW$T$28, DW_AT_decl_file("/home/pola/ti/ccsv8/tools/compiler/ti-cgt-arm_18.1.1.LTS/
     745                            .dwattr $C$DW$T$28, DW_AT_decl_line(0x39)
     746                            .dwattr $C$DW$T$28, DW_AT_decl_column(0x16)
     747                    
     748                    $C$DW$T$29      .dwtag  DW_TAG_typedef
     749                            .dwattr $C$DW$T$29, DW_AT_name("__int_least8_t")
     750                            .dwattr $C$DW$T$29, DW_AT_type(*$C$DW$T$28)
     751                            .dwattr $C$DW$T$29, DW_AT_language(DW_LANG_C)
     752                            .dwattr $C$DW$T$29, DW_AT_decl_file("/home/pola/ti/ccsv8/tools/compiler/ti-cgt-arm_18.1.1.LTS/
     753                            .dwattr $C$DW$T$29, DW_AT_decl_line(0x58)
     754                            .dwattr $C$DW$T$29, DW_AT_decl_column(0x12)
     755                    
     756                    $C$DW$T$30      .dwtag  DW_TAG_typedef
     757                            .dwattr $C$DW$T$30, DW_AT_name("int_least8_t")
     758                            .dwattr $C$DW$T$30, DW_AT_type(*$C$DW$T$29)
     759                            .dwattr $C$DW$T$30, DW_AT_language(DW_LANG_C)
     760                            .dwattr $C$DW$T$30, DW_AT_decl_file("/home/pola/ti/ccsv8/tools/compiler/ti-cgt-arm_18.1.1.LTS/
     761                            .dwattr $C$DW$T$30, DW_AT_decl_line(0x28)
     762                            .dwattr $C$DW$T$30, DW_AT_decl_column(0x19)
     763                    
     764                    $C$DW$T$31      .dwtag  DW_TAG_typedef
     765                            .dwattr $C$DW$T$31, DW_AT_name("int8_t")
     766                            .dwattr $C$DW$T$31, DW_AT_type(*$C$DW$T$28)
     767                            .dwattr $C$DW$T$31, DW_AT_language(DW_LANG_C)
TI ARM Assembler Unix v18.1.1 Fri Jul  3 20:08:24 2020

Tools Copyright (c) 1996-2017 Texas Instruments Incorporated
fpu.asm                                                              PAGE   15

     768                            .dwattr $C$DW$T$31, DW_AT_decl_file("/home/pola/ti/ccsv8/tools/compiler/ti-cgt-arm_18.1.1.LTS/
     769                            .dwattr $C$DW$T$31, DW_AT_decl_line(0x24)
     770                            .dwattr $C$DW$T$31, DW_AT_decl_column(0x13)
     771                    
     772                    $C$DW$T$6       .dwtag  DW_TAG_base_type
     773                            .dwattr $C$DW$T$6, DW_AT_encoding(DW_ATE_unsigned_char)
     774                            .dwattr $C$DW$T$6, DW_AT_name("unsigned char")
     775                            .dwattr $C$DW$T$6, DW_AT_byte_size(0x01)
     776                    
     777                    $C$DW$T$32      .dwtag  DW_TAG_typedef
     778                            .dwattr $C$DW$T$32, DW_AT_name("__uint8_t")
     779                            .dwattr $C$DW$T$32, DW_AT_type(*$C$DW$T$6)
     780                            .dwattr $C$DW$T$32, DW_AT_language(DW_LANG_C)
     781                            .dwattr $C$DW$T$32, DW_AT_decl_file("/home/pola/ti/ccsv8/tools/compiler/ti-cgt-arm_18.1.1.LTS/
     782                            .dwattr $C$DW$T$32, DW_AT_decl_line(0x3a)
     783                            .dwattr $C$DW$T$32, DW_AT_decl_column(0x18)
     784                    
     785                    $C$DW$T$33      .dwtag  DW_TAG_typedef
     786                            .dwattr $C$DW$T$33, DW_AT_name("__sa_family_t")
     787                            .dwattr $C$DW$T$33, DW_AT_type(*$C$DW$T$32)
     788                            .dwattr $C$DW$T$33, DW_AT_language(DW_LANG_C)
     789                            .dwattr $C$DW$T$33, DW_AT_decl_file("/home/pola/ti/ccsv8/tools/compiler/ti-cgt-arm_18.1.1.LTS/
     790                            .dwattr $C$DW$T$33, DW_AT_decl_line(0x43)
     791                            .dwattr $C$DW$T$33, DW_AT_decl_column(0x13)
     792                    
     793                    $C$DW$T$34      .dwtag  DW_TAG_typedef
     794                            .dwattr $C$DW$T$34, DW_AT_name("__uint_least8_t")
     795                            .dwattr $C$DW$T$34, DW_AT_type(*$C$DW$T$32)
     796                            .dwattr $C$DW$T$34, DW_AT_language(DW_LANG_C)
     797                            .dwattr $C$DW$T$34, DW_AT_decl_file("/home/pola/ti/ccsv8/tools/compiler/ti-cgt-arm_18.1.1.LTS/
     798                            .dwattr $C$DW$T$34, DW_AT_decl_line(0x6d)
     799                            .dwattr $C$DW$T$34, DW_AT_decl_column(0x13)
     800                    
     801                    $C$DW$T$35      .dwtag  DW_TAG_typedef
     802                            .dwattr $C$DW$T$35, DW_AT_name("uint_least8_t")
     803                            .dwattr $C$DW$T$35, DW_AT_type(*$C$DW$T$34)
     804                            .dwattr $C$DW$T$35, DW_AT_language(DW_LANG_C)
     805                            .dwattr $C$DW$T$35, DW_AT_decl_file("/home/pola/ti/ccsv8/tools/compiler/ti-cgt-arm_18.1.1.LTS/
     806                            .dwattr $C$DW$T$35, DW_AT_decl_line(0x2d)
     807                            .dwattr $C$DW$T$35, DW_AT_decl_column(0x1a)
     808                    
     809                    $C$DW$T$36      .dwtag  DW_TAG_typedef
     810                            .dwattr $C$DW$T$36, DW_AT_name("uint8_t")
     811                            .dwattr $C$DW$T$36, DW_AT_type(*$C$DW$T$32)
     812                            .dwattr $C$DW$T$36, DW_AT_language(DW_LANG_C)
     813                            .dwattr $C$DW$T$36, DW_AT_decl_file("/home/pola/ti/ccsv8/tools/compiler/ti-cgt-arm_18.1.1.LTS/
     814                            .dwattr $C$DW$T$36, DW_AT_decl_line(0x38)
     815                            .dwattr $C$DW$T$36, DW_AT_decl_column(0x14)
     816                    
     817                    $C$DW$T$7       .dwtag  DW_TAG_base_type
     818                            .dwattr $C$DW$T$7, DW_AT_encoding(DW_ATE_signed_char)
     819                            .dwattr $C$DW$T$7, DW_AT_name("wchar_t")
     820                            .dwattr $C$DW$T$7, DW_AT_byte_size(0x02)
     821                    
     822                    $C$DW$T$8       .dwtag  DW_TAG_base_type
TI ARM Assembler Unix v18.1.1 Fri Jul  3 20:08:24 2020

Tools Copyright (c) 1996-2017 Texas Instruments Incorporated
fpu.asm                                                              PAGE   16

     823                            .dwattr $C$DW$T$8, DW_AT_encoding(DW_ATE_signed)
     824                            .dwattr $C$DW$T$8, DW_AT_name("short")
     825                            .dwattr $C$DW$T$8, DW_AT_byte_size(0x02)
     826                    
     827                    $C$DW$T$37      .dwtag  DW_TAG_typedef
     828                            .dwattr $C$DW$T$37, DW_AT_name("__int16_t")
     829                            .dwattr $C$DW$T$37, DW_AT_type(*$C$DW$T$8)
     830                            .dwattr $C$DW$T$37, DW_AT_language(DW_LANG_C)
     831                            .dwattr $C$DW$T$37, DW_AT_decl_file("/home/pola/ti/ccsv8/tools/compiler/ti-cgt-arm_18.1.1.LTS/
     832                            .dwattr $C$DW$T$37, DW_AT_decl_line(0x3b)
     833                            .dwattr $C$DW$T$37, DW_AT_decl_column(0x11)
     834                    
     835                    $C$DW$T$38      .dwtag  DW_TAG_typedef
     836                            .dwattr $C$DW$T$38, DW_AT_name("__int_least16_t")
     837                            .dwattr $C$DW$T$38, DW_AT_type(*$C$DW$T$37)
     838                            .dwattr $C$DW$T$38, DW_AT_language(DW_LANG_C)
     839                            .dwattr $C$DW$T$38, DW_AT_decl_file("/home/pola/ti/ccsv8/tools/compiler/ti-cgt-arm_18.1.1.LTS/
     840                            .dwattr $C$DW$T$38, DW_AT_decl_line(0x59)
     841                            .dwattr $C$DW$T$38, DW_AT_decl_column(0x13)
     842                    
     843                    $C$DW$T$39      .dwtag  DW_TAG_typedef
     844                            .dwattr $C$DW$T$39, DW_AT_name("int_least16_t")
     845                            .dwattr $C$DW$T$39, DW_AT_type(*$C$DW$T$38)
     846                            .dwattr $C$DW$T$39, DW_AT_language(DW_LANG_C)
     847                            .dwattr $C$DW$T$39, DW_AT_decl_file("/home/pola/ti/ccsv8/tools/compiler/ti-cgt-arm_18.1.1.LTS/
     848                            .dwattr $C$DW$T$39, DW_AT_decl_line(0x29)
     849                            .dwattr $C$DW$T$39, DW_AT_decl_column(0x1a)
     850                    
     851                    $C$DW$T$40      .dwtag  DW_TAG_typedef
     852                            .dwattr $C$DW$T$40, DW_AT_name("int16_t")
     853                            .dwattr $C$DW$T$40, DW_AT_type(*$C$DW$T$37)
     854                            .dwattr $C$DW$T$40, DW_AT_language(DW_LANG_C)
     855                            .dwattr $C$DW$T$40, DW_AT_decl_file("/home/pola/ti/ccsv8/tools/compiler/ti-cgt-arm_18.1.1.LTS/
     856                            .dwattr $C$DW$T$40, DW_AT_decl_line(0x29)
     857                            .dwattr $C$DW$T$40, DW_AT_decl_column(0x14)
     858                    
     859                    $C$DW$T$9       .dwtag  DW_TAG_base_type
     860                            .dwattr $C$DW$T$9, DW_AT_encoding(DW_ATE_unsigned)
     861                            .dwattr $C$DW$T$9, DW_AT_name("unsigned short")
     862                            .dwattr $C$DW$T$9, DW_AT_byte_size(0x02)
     863                    
     864                    $C$DW$T$41      .dwtag  DW_TAG_typedef
     865                            .dwattr $C$DW$T$41, DW_AT_name("___wchar_t")
     866                            .dwattr $C$DW$T$41, DW_AT_type(*$C$DW$T$9)
     867                            .dwattr $C$DW$T$41, DW_AT_language(DW_LANG_C)
     868                            .dwattr $C$DW$T$41, DW_AT_decl_file("/home/pola/ti/ccsv8/tools/compiler/ti-cgt-arm_18.1.1.LTS/
     869                            .dwattr $C$DW$T$41, DW_AT_decl_line(0x76)
     870                            .dwattr $C$DW$T$41, DW_AT_decl_column(0x1a)
     871                    
     872                    $C$DW$T$42      .dwtag  DW_TAG_typedef
     873                            .dwattr $C$DW$T$42, DW_AT_name("__uint16_t")
     874                            .dwattr $C$DW$T$42, DW_AT_type(*$C$DW$T$9)
     875                            .dwattr $C$DW$T$42, DW_AT_language(DW_LANG_C)
     876                            .dwattr $C$DW$T$42, DW_AT_decl_file("/home/pola/ti/ccsv8/tools/compiler/ti-cgt-arm_18.1.1.LTS/
     877                            .dwattr $C$DW$T$42, DW_AT_decl_line(0x3c)
TI ARM Assembler Unix v18.1.1 Fri Jul  3 20:08:24 2020

Tools Copyright (c) 1996-2017 Texas Instruments Incorporated
fpu.asm                                                              PAGE   17

     878                            .dwattr $C$DW$T$42, DW_AT_decl_column(0x19)
     879                    
     880                    $C$DW$T$43      .dwtag  DW_TAG_typedef
     881                            .dwattr $C$DW$T$43, DW_AT_name("__mode_t")
     882                            .dwattr $C$DW$T$43, DW_AT_type(*$C$DW$T$42)
     883                            .dwattr $C$DW$T$43, DW_AT_language(DW_LANG_C)
     884                            .dwattr $C$DW$T$43, DW_AT_decl_file("/home/pola/ti/ccsv8/tools/compiler/ti-cgt-arm_18.1.1.LTS/
     885                            .dwattr $C$DW$T$43, DW_AT_decl_line(0x39)
     886                            .dwattr $C$DW$T$43, DW_AT_decl_column(0x14)
     887                    
     888                    $C$DW$T$44      .dwtag  DW_TAG_typedef
     889                            .dwattr $C$DW$T$44, DW_AT_name("__uint_least16_t")
     890                            .dwattr $C$DW$T$44, DW_AT_type(*$C$DW$T$42)
     891                            .dwattr $C$DW$T$44, DW_AT_language(DW_LANG_C)
     892                            .dwattr $C$DW$T$44, DW_AT_decl_file("/home/pola/ti/ccsv8/tools/compiler/ti-cgt-arm_18.1.1.LTS/
     893                            .dwattr $C$DW$T$44, DW_AT_decl_line(0x6e)
     894                            .dwattr $C$DW$T$44, DW_AT_decl_column(0x14)
     895                    
     896                    $C$DW$T$45      .dwtag  DW_TAG_typedef
     897                            .dwattr $C$DW$T$45, DW_AT_name("__char16_t")
     898                            .dwattr $C$DW$T$45, DW_AT_type(*$C$DW$T$44)
     899                            .dwattr $C$DW$T$45, DW_AT_language(DW_LANG_C)
     900                            .dwattr $C$DW$T$45, DW_AT_decl_file("/home/pola/ti/ccsv8/tools/compiler/ti-cgt-arm_18.1.1.LTS/
     901                            .dwattr $C$DW$T$45, DW_AT_decl_line(0x66)
     902                            .dwattr $C$DW$T$45, DW_AT_decl_column(0x1a)
     903                    
     904                    $C$DW$T$46      .dwtag  DW_TAG_typedef
     905                            .dwattr $C$DW$T$46, DW_AT_name("uint_least16_t")
     906                            .dwattr $C$DW$T$46, DW_AT_type(*$C$DW$T$44)
     907                            .dwattr $C$DW$T$46, DW_AT_language(DW_LANG_C)
     908                            .dwattr $C$DW$T$46, DW_AT_decl_file("/home/pola/ti/ccsv8/tools/compiler/ti-cgt-arm_18.1.1.LTS/
     909                            .dwattr $C$DW$T$46, DW_AT_decl_line(0x2e)
     910                            .dwattr $C$DW$T$46, DW_AT_decl_column(0x1a)
     911                    
     912                    $C$DW$T$47      .dwtag  DW_TAG_typedef
     913                            .dwattr $C$DW$T$47, DW_AT_name("uint16_t")
     914                            .dwattr $C$DW$T$47, DW_AT_type(*$C$DW$T$42)
     915                            .dwattr $C$DW$T$47, DW_AT_language(DW_LANG_C)
     916                            .dwattr $C$DW$T$47, DW_AT_decl_file("/home/pola/ti/ccsv8/tools/compiler/ti-cgt-arm_18.1.1.LTS/
     917                            .dwattr $C$DW$T$47, DW_AT_decl_line(0x3d)
     918                            .dwattr $C$DW$T$47, DW_AT_decl_column(0x15)
     919                    
     920                    $C$DW$T$10      .dwtag  DW_TAG_base_type
     921                            .dwattr $C$DW$T$10, DW_AT_encoding(DW_ATE_signed)
     922                            .dwattr $C$DW$T$10, DW_AT_name("int")
     923                            .dwattr $C$DW$T$10, DW_AT_byte_size(0x04)
     924                    
     925                    $C$DW$T$48      .dwtag  DW_TAG_typedef
     926                            .dwattr $C$DW$T$48, DW_AT_name("_Mbstatet")
     927                            .dwattr $C$DW$T$48, DW_AT_type(*$C$DW$T$10)
     928                            .dwattr $C$DW$T$48, DW_AT_language(DW_LANG_C)
     929                            .dwattr $C$DW$T$48, DW_AT_decl_file("/home/pola/ti/ccsv8/tools/compiler/ti-cgt-arm_18.1.1.LTS/
     930                            .dwattr $C$DW$T$48, DW_AT_decl_line(0x84)
     931                            .dwattr $C$DW$T$48, DW_AT_decl_column(0x0d)
     932                    
TI ARM Assembler Unix v18.1.1 Fri Jul  3 20:08:24 2020

Tools Copyright (c) 1996-2017 Texas Instruments Incorporated
fpu.asm                                                              PAGE   18

     933                    $C$DW$T$49      .dwtag  DW_TAG_typedef
     934                            .dwattr $C$DW$T$49, DW_AT_name("__mbstate_t")
     935                            .dwattr $C$DW$T$49, DW_AT_type(*$C$DW$T$48)
     936                            .dwattr $C$DW$T$49, DW_AT_language(DW_LANG_C)
     937                            .dwattr $C$DW$T$49, DW_AT_decl_file("/home/pola/ti/ccsv8/tools/compiler/ti-cgt-arm_18.1.1.LTS/
     938                            .dwattr $C$DW$T$49, DW_AT_decl_line(0x87)
     939                            .dwattr $C$DW$T$49, DW_AT_decl_column(0x13)
     940                    
     941                    $C$DW$T$50      .dwtag  DW_TAG_typedef
     942                            .dwattr $C$DW$T$50, DW_AT_name("__accmode_t")
     943                            .dwattr $C$DW$T$50, DW_AT_type(*$C$DW$T$10)
     944                            .dwattr $C$DW$T$50, DW_AT_language(DW_LANG_C)
     945                            .dwattr $C$DW$T$50, DW_AT_decl_file("/home/pola/ti/ccsv8/tools/compiler/ti-cgt-arm_18.1.1.LTS/
     946                            .dwattr $C$DW$T$50, DW_AT_decl_line(0x3a)
     947                            .dwattr $C$DW$T$50, DW_AT_decl_column(0x0e)
     948                    
     949                    $C$DW$T$51      .dwtag  DW_TAG_typedef
     950                            .dwattr $C$DW$T$51, DW_AT_name("__cpulevel_t")
     951                            .dwattr $C$DW$T$51, DW_AT_type(*$C$DW$T$10)
     952                            .dwattr $C$DW$T$51, DW_AT_language(DW_LANG_C)
     953                            .dwattr $C$DW$T$51, DW_AT_decl_file("/home/pola/ti/ccsv8/tools/compiler/ti-cgt-arm_18.1.1.LTS/
     954                            .dwattr $C$DW$T$51, DW_AT_decl_line(0x4b)
     955                            .dwattr $C$DW$T$51, DW_AT_decl_column(0x0e)
     956                    
     957                    $C$DW$T$52      .dwtag  DW_TAG_typedef
     958                            .dwattr $C$DW$T$52, DW_AT_name("__cpusetid_t")
     959                            .dwattr $C$DW$T$52, DW_AT_type(*$C$DW$T$10)
     960                            .dwattr $C$DW$T$52, DW_AT_language(DW_LANG_C)
     961                            .dwattr $C$DW$T$52, DW_AT_decl_file("/home/pola/ti/ccsv8/tools/compiler/ti-cgt-arm_18.1.1.LTS/
     962                            .dwattr $C$DW$T$52, DW_AT_decl_line(0x4c)
     963                            .dwattr $C$DW$T$52, DW_AT_decl_column(0x0e)
     964                    
     965                    $C$DW$T$53      .dwtag  DW_TAG_typedef
     966                            .dwattr $C$DW$T$53, DW_AT_name("__cpuwhich_t")
     967                            .dwattr $C$DW$T$53, DW_AT_type(*$C$DW$T$10)
     968                            .dwattr $C$DW$T$53, DW_AT_language(DW_LANG_C)
     969                            .dwattr $C$DW$T$53, DW_AT_decl_file("/home/pola/ti/ccsv8/tools/compiler/ti-cgt-arm_18.1.1.LTS/
     970                            .dwattr $C$DW$T$53, DW_AT_decl_line(0x4a)
     971                            .dwattr $C$DW$T$53, DW_AT_decl_column(0x0e)
     972                    
     973                    $C$DW$T$54      .dwtag  DW_TAG_typedef
     974                            .dwattr $C$DW$T$54, DW_AT_name("__ct_rune_t")
     975                            .dwattr $C$DW$T$54, DW_AT_type(*$C$DW$T$10)
     976                            .dwattr $C$DW$T$54, DW_AT_language(DW_LANG_C)
     977                            .dwattr $C$DW$T$54, DW_AT_decl_file("/home/pola/ti/ccsv8/tools/compiler/ti-cgt-arm_18.1.1.LTS/
     978                            .dwattr $C$DW$T$54, DW_AT_decl_line(0x60)
     979                            .dwattr $C$DW$T$54, DW_AT_decl_column(0x0e)
     980                    
     981                    $C$DW$T$55      .dwtag  DW_TAG_typedef
     982                            .dwattr $C$DW$T$55, DW_AT_name("__rune_t")
     983                            .dwattr $C$DW$T$55, DW_AT_type(*$C$DW$T$54)
     984                            .dwattr $C$DW$T$55, DW_AT_language(DW_LANG_C)
     985                            .dwattr $C$DW$T$55, DW_AT_decl_file("/home/pola/ti/ccsv8/tools/compiler/ti-cgt-arm_18.1.1.LTS/
     986                            .dwattr $C$DW$T$55, DW_AT_decl_line(0x61)
     987                            .dwattr $C$DW$T$55, DW_AT_decl_column(0x15)
TI ARM Assembler Unix v18.1.1 Fri Jul  3 20:08:24 2020

Tools Copyright (c) 1996-2017 Texas Instruments Incorporated
fpu.asm                                                              PAGE   19

     988                    
     989                    $C$DW$T$56      .dwtag  DW_TAG_typedef
     990                            .dwattr $C$DW$T$56, DW_AT_name("__wint_t")
     991                            .dwattr $C$DW$T$56, DW_AT_type(*$C$DW$T$54)
     992                            .dwattr $C$DW$T$56, DW_AT_language(DW_LANG_C)
     993                            .dwattr $C$DW$T$56, DW_AT_decl_file("/home/pola/ti/ccsv8/tools/compiler/ti-cgt-arm_18.1.1.LTS/
     994                            .dwattr $C$DW$T$56, DW_AT_decl_line(0x62)
     995                            .dwattr $C$DW$T$56, DW_AT_decl_column(0x15)
     996                    
     997                    $C$DW$T$57      .dwtag  DW_TAG_typedef
     998                            .dwattr $C$DW$T$57, DW_AT_name("__int32_t")
     999                            .dwattr $C$DW$T$57, DW_AT_type(*$C$DW$T$10)
    1000                            .dwattr $C$DW$T$57, DW_AT_language(DW_LANG_C)
    1001                            .dwattr $C$DW$T$57, DW_AT_decl_file("/home/pola/ti/ccsv8/tools/compiler/ti-cgt-arm_18.1.1.LTS/
    1002                            .dwattr $C$DW$T$57, DW_AT_decl_line(0x3d)
    1003                            .dwattr $C$DW$T$57, DW_AT_decl_column(0x0f)
    1004                    
    1005                    $C$DW$T$58      .dwtag  DW_TAG_typedef
    1006                            .dwattr $C$DW$T$58, DW_AT_name("__blksize_t")
    1007                            .dwattr $C$DW$T$58, DW_AT_type(*$C$DW$T$57)
    1008                            .dwattr $C$DW$T$58, DW_AT_language(DW_LANG_C)
    1009                            .dwattr $C$DW$T$58, DW_AT_decl_file("/home/pola/ti/ccsv8/tools/compiler/ti-cgt-arm_18.1.1.LTS/
    1010                            .dwattr $C$DW$T$58, DW_AT_decl_line(0x2e)
    1011                            .dwattr $C$DW$T$58, DW_AT_decl_column(0x13)
    1012                    
    1013                    $C$DW$T$59      .dwtag  DW_TAG_typedef
    1014                            .dwattr $C$DW$T$59, DW_AT_name("__clockid_t")
    1015                            .dwattr $C$DW$T$59, DW_AT_type(*$C$DW$T$57)
    1016                            .dwattr $C$DW$T$59, DW_AT_language(DW_LANG_C)
    1017                            .dwattr $C$DW$T$59, DW_AT_decl_file("/home/pola/ti/ccsv8/tools/compiler/ti-cgt-arm_18.1.1.LTS/
    1018                            .dwattr $C$DW$T$59, DW_AT_decl_line(0x30)
    1019                            .dwattr $C$DW$T$59, DW_AT_decl_column(0x13)
    1020                    
    1021                    $C$DW$T$60      .dwtag  DW_TAG_typedef
    1022                            .dwattr $C$DW$T$60, DW_AT_name("__critical_t")
    1023                            .dwattr $C$DW$T$60, DW_AT_type(*$C$DW$T$57)
    1024                            .dwattr $C$DW$T$60, DW_AT_language(DW_LANG_C)
    1025                            .dwattr $C$DW$T$60, DW_AT_decl_file("/home/pola/ti/ccsv8/tools/compiler/ti-cgt-arm_18.1.1.LTS/
    1026                            .dwattr $C$DW$T$60, DW_AT_decl_line(0x4e)
    1027                            .dwattr $C$DW$T$60, DW_AT_decl_column(0x13)
    1028                    
    1029                    $C$DW$T$61      .dwtag  DW_TAG_typedef
    1030                            .dwattr $C$DW$T$61, DW_AT_name("__int_fast16_t")
    1031                            .dwattr $C$DW$T$61, DW_AT_type(*$C$DW$T$57)
    1032                            .dwattr $C$DW$T$61, DW_AT_language(DW_LANG_C)
    1033                            .dwattr $C$DW$T$61, DW_AT_decl_file("/home/pola/ti/ccsv8/tools/compiler/ti-cgt-arm_18.1.1.LTS/
    1034                            .dwattr $C$DW$T$61, DW_AT_decl_line(0x55)
    1035                            .dwattr $C$DW$T$61, DW_AT_decl_column(0x13)
    1036                    
    1037                    $C$DW$T$62      .dwtag  DW_TAG_typedef
    1038                            .dwattr $C$DW$T$62, DW_AT_name("int_fast16_t")
    1039                            .dwattr $C$DW$T$62, DW_AT_type(*$C$DW$T$61)
    1040                            .dwattr $C$DW$T$62, DW_AT_language(DW_LANG_C)
    1041                            .dwattr $C$DW$T$62, DW_AT_decl_file("/home/pola/ti/ccsv8/tools/compiler/ti-cgt-arm_18.1.1.LTS/
    1042                            .dwattr $C$DW$T$62, DW_AT_decl_line(0x33)
TI ARM Assembler Unix v18.1.1 Fri Jul  3 20:08:24 2020

Tools Copyright (c) 1996-2017 Texas Instruments Incorporated
fpu.asm                                                              PAGE   20

    1043                            .dwattr $C$DW$T$62, DW_AT_decl_column(0x19)
    1044                    
    1045                    $C$DW$T$63      .dwtag  DW_TAG_typedef
    1046                            .dwattr $C$DW$T$63, DW_AT_name("__int_fast32_t")
    1047                            .dwattr $C$DW$T$63, DW_AT_type(*$C$DW$T$57)
    1048                            .dwattr $C$DW$T$63, DW_AT_language(DW_LANG_C)
    1049                            .dwattr $C$DW$T$63, DW_AT_decl_file("/home/pola/ti/ccsv8/tools/compiler/ti-cgt-arm_18.1.1.LTS/
    1050                            .dwattr $C$DW$T$63, DW_AT_decl_line(0x56)
    1051                            .dwattr $C$DW$T$63, DW_AT_decl_column(0x13)
    1052                    
    1053                    $C$DW$T$64      .dwtag  DW_TAG_typedef
    1054                            .dwattr $C$DW$T$64, DW_AT_name("int_fast32_t")
    1055                            .dwattr $C$DW$T$64, DW_AT_type(*$C$DW$T$63)
    1056                            .dwattr $C$DW$T$64, DW_AT_language(DW_LANG_C)
    1057                            .dwattr $C$DW$T$64, DW_AT_decl_file("/home/pola/ti/ccsv8/tools/compiler/ti-cgt-arm_18.1.1.LTS/
    1058                            .dwattr $C$DW$T$64, DW_AT_decl_line(0x34)
    1059                            .dwattr $C$DW$T$64, DW_AT_decl_column(0x19)
    1060                    
    1061                    $C$DW$T$65      .dwtag  DW_TAG_typedef
    1062                            .dwattr $C$DW$T$65, DW_AT_name("__int_fast8_t")
    1063                            .dwattr $C$DW$T$65, DW_AT_type(*$C$DW$T$57)
    1064                            .dwattr $C$DW$T$65, DW_AT_language(DW_LANG_C)
    1065                            .dwattr $C$DW$T$65, DW_AT_decl_file("/home/pola/ti/ccsv8/tools/compiler/ti-cgt-arm_18.1.1.LTS/
    1066                            .dwattr $C$DW$T$65, DW_AT_decl_line(0x54)
    1067                            .dwattr $C$DW$T$65, DW_AT_decl_column(0x13)
    1068                    
    1069                    $C$DW$T$66      .dwtag  DW_TAG_typedef
    1070                            .dwattr $C$DW$T$66, DW_AT_name("int_fast8_t")
    1071                            .dwattr $C$DW$T$66, DW_AT_type(*$C$DW$T$65)
    1072                            .dwattr $C$DW$T$66, DW_AT_language(DW_LANG_C)
    1073                            .dwattr $C$DW$T$66, DW_AT_decl_file("/home/pola/ti/ccsv8/tools/compiler/ti-cgt-arm_18.1.1.LTS/
    1074                            .dwattr $C$DW$T$66, DW_AT_decl_line(0x32)
    1075                            .dwattr $C$DW$T$66, DW_AT_decl_column(0x18)
    1076                    
    1077                    $C$DW$T$67      .dwtag  DW_TAG_typedef
    1078                            .dwattr $C$DW$T$67, DW_AT_name("__int_least32_t")
    1079                            .dwattr $C$DW$T$67, DW_AT_type(*$C$DW$T$57)
    1080                            .dwattr $C$DW$T$67, DW_AT_language(DW_LANG_C)
    1081                            .dwattr $C$DW$T$67, DW_AT_decl_file("/home/pola/ti/ccsv8/tools/compiler/ti-cgt-arm_18.1.1.LTS/
    1082                            .dwattr $C$DW$T$67, DW_AT_decl_line(0x5a)
    1083                            .dwattr $C$DW$T$67, DW_AT_decl_column(0x13)
    1084                    
    1085                    $C$DW$T$68      .dwtag  DW_TAG_typedef
    1086                            .dwattr $C$DW$T$68, DW_AT_name("int_least32_t")
    1087                            .dwattr $C$DW$T$68, DW_AT_type(*$C$DW$T$67)
    1088                            .dwattr $C$DW$T$68, DW_AT_language(DW_LANG_C)
    1089                            .dwattr $C$DW$T$68, DW_AT_decl_file("/home/pola/ti/ccsv8/tools/compiler/ti-cgt-arm_18.1.1.LTS/
    1090                            .dwattr $C$DW$T$68, DW_AT_decl_line(0x2a)
    1091                            .dwattr $C$DW$T$68, DW_AT_decl_column(0x1a)
    1092                    
    1093                    $C$DW$T$69      .dwtag  DW_TAG_typedef
    1094                            .dwattr $C$DW$T$69, DW_AT_name("__intfptr_t")
    1095                            .dwattr $C$DW$T$69, DW_AT_type(*$C$DW$T$57)
    1096                            .dwattr $C$DW$T$69, DW_AT_language(DW_LANG_C)
    1097                            .dwattr $C$DW$T$69, DW_AT_decl_file("/home/pola/ti/ccsv8/tools/compiler/ti-cgt-arm_18.1.1.LTS/
TI ARM Assembler Unix v18.1.1 Fri Jul  3 20:08:24 2020

Tools Copyright (c) 1996-2017 Texas Instruments Incorporated
fpu.asm                                                              PAGE   21

    1098                            .dwattr $C$DW$T$69, DW_AT_decl_line(0x51)
    1099                            .dwattr $C$DW$T$69, DW_AT_decl_column(0x13)
    1100                    
    1101                    $C$DW$T$70      .dwtag  DW_TAG_typedef
    1102                            .dwattr $C$DW$T$70, DW_AT_name("__intptr_t")
    1103                            .dwattr $C$DW$T$70, DW_AT_type(*$C$DW$T$57)
    1104                            .dwattr $C$DW$T$70, DW_AT_language(DW_LANG_C)
    1105                            .dwattr $C$DW$T$70, DW_AT_decl_file("/home/pola/ti/ccsv8/tools/compiler/ti-cgt-arm_18.1.1.LTS/
    1106                            .dwattr $C$DW$T$70, DW_AT_decl_line(0x53)
    1107                            .dwattr $C$DW$T$70, DW_AT_decl_column(0x13)
    1108                    
    1109                    $C$DW$T$71      .dwtag  DW_TAG_typedef
    1110                            .dwattr $C$DW$T$71, DW_AT_name("intptr_t")
    1111                            .dwattr $C$DW$T$71, DW_AT_type(*$C$DW$T$70)
    1112                            .dwattr $C$DW$T$71, DW_AT_language(DW_LANG_C)
    1113                            .dwattr $C$DW$T$71, DW_AT_decl_file("/home/pola/ti/ccsv8/tools/compiler/ti-cgt-arm_18.1.1.LTS/
    1114                            .dwattr $C$DW$T$71, DW_AT_decl_line(0x4c)
    1115                            .dwattr $C$DW$T$71, DW_AT_decl_column(0x15)
    1116                    
    1117                    $C$DW$T$72      .dwtag  DW_TAG_typedef
    1118                            .dwattr $C$DW$T$72, DW_AT_name("__lwpid_t")
    1119                            .dwattr $C$DW$T$72, DW_AT_type(*$C$DW$T$57)
    1120                            .dwattr $C$DW$T$72, DW_AT_language(DW_LANG_C)
    1121                            .dwattr $C$DW$T$72, DW_AT_decl_file("/home/pola/ti/ccsv8/tools/compiler/ti-cgt-arm_18.1.1.LTS/
    1122                            .dwattr $C$DW$T$72, DW_AT_decl_line(0x38)
    1123                            .dwattr $C$DW$T$72, DW_AT_decl_column(0x13)
    1124                    
    1125                    $C$DW$T$73      .dwtag  DW_TAG_typedef
    1126                            .dwattr $C$DW$T$73, DW_AT_name("__pid_t")
    1127                            .dwattr $C$DW$T$73, DW_AT_type(*$C$DW$T$57)
    1128                            .dwattr $C$DW$T$73, DW_AT_language(DW_LANG_C)
    1129                            .dwattr $C$DW$T$73, DW_AT_decl_file("/home/pola/ti/ccsv8/tools/compiler/ti-cgt-arm_18.1.1.LTS/
    1130                            .dwattr $C$DW$T$73, DW_AT_decl_line(0x3f)
    1131                            .dwattr $C$DW$T$73, DW_AT_decl_column(0x13)
    1132                    
    1133                    $C$DW$T$74      .dwtag  DW_TAG_typedef
    1134                            .dwattr $C$DW$T$74, DW_AT_name("__ptrdiff_t")
    1135                            .dwattr $C$DW$T$74, DW_AT_type(*$C$DW$T$57)
    1136                            .dwattr $C$DW$T$74, DW_AT_language(DW_LANG_C)
    1137                            .dwattr $C$DW$T$74, DW_AT_decl_file("/home/pola/ti/ccsv8/tools/compiler/ti-cgt-arm_18.1.1.LTS/
    1138                            .dwattr $C$DW$T$74, DW_AT_decl_line(0x5c)
    1139                            .dwattr $C$DW$T$74, DW_AT_decl_column(0x13)
    1140                    
    1141                    $C$DW$T$75      .dwtag  DW_TAG_typedef
    1142                            .dwattr $C$DW$T$75, DW_AT_name("__register_t")
    1143                            .dwattr $C$DW$T$75, DW_AT_type(*$C$DW$T$57)
    1144                            .dwattr $C$DW$T$75, DW_AT_language(DW_LANG_C)
    1145                            .dwattr $C$DW$T$75, DW_AT_decl_file("/home/pola/ti/ccsv8/tools/compiler/ti-cgt-arm_18.1.1.LTS/
    1146                            .dwattr $C$DW$T$75, DW_AT_decl_line(0x5d)
    1147                            .dwattr $C$DW$T$75, DW_AT_decl_column(0x13)
    1148                    
    1149                    $C$DW$T$76      .dwtag  DW_TAG_typedef
    1150                            .dwattr $C$DW$T$76, DW_AT_name("__segsz_t")
    1151                            .dwattr $C$DW$T$76, DW_AT_type(*$C$DW$T$57)
    1152                            .dwattr $C$DW$T$76, DW_AT_language(DW_LANG_C)
TI ARM Assembler Unix v18.1.1 Fri Jul  3 20:08:24 2020

Tools Copyright (c) 1996-2017 Texas Instruments Incorporated
fpu.asm                                                              PAGE   22

    1153                            .dwattr $C$DW$T$76, DW_AT_decl_file("/home/pola/ti/ccsv8/tools/compiler/ti-cgt-arm_18.1.1.LTS/
    1154                            .dwattr $C$DW$T$76, DW_AT_decl_line(0x5e)
    1155                            .dwattr $C$DW$T$76, DW_AT_decl_column(0x13)
    1156                    
    1157                    $C$DW$T$77      .dwtag  DW_TAG_typedef
    1158                            .dwattr $C$DW$T$77, DW_AT_name("__ssize_t")
    1159                            .dwattr $C$DW$T$77, DW_AT_type(*$C$DW$T$57)
    1160                            .dwattr $C$DW$T$77, DW_AT_language(DW_LANG_C)
    1161                            .dwattr $C$DW$T$77, DW_AT_decl_file("/home/pola/ti/ccsv8/tools/compiler/ti-cgt-arm_18.1.1.LTS/
    1162                            .dwattr $C$DW$T$77, DW_AT_decl_line(0x60)
    1163                            .dwattr $C$DW$T$77, DW_AT_decl_column(0x13)
    1164                    
    1165                    $C$DW$T$78      .dwtag  DW_TAG_typedef
    1166                            .dwattr $C$DW$T$78, DW_AT_name("int32_t")
    1167                            .dwattr $C$DW$T$78, DW_AT_type(*$C$DW$T$57)
    1168                            .dwattr $C$DW$T$78, DW_AT_language(DW_LANG_C)
    1169                            .dwattr $C$DW$T$78, DW_AT_decl_file("/home/pola/ti/ccsv8/tools/compiler/ti-cgt-arm_18.1.1.LTS/
    1170                            .dwattr $C$DW$T$78, DW_AT_decl_line(0x2e)
    1171                            .dwattr $C$DW$T$78, DW_AT_decl_column(0x14)
    1172                    
    1173                    $C$DW$T$79      .dwtag  DW_TAG_typedef
    1174                            .dwattr $C$DW$T$79, DW_AT_name("__nl_item")
    1175                            .dwattr $C$DW$T$79, DW_AT_type(*$C$DW$T$10)
    1176                            .dwattr $C$DW$T$79, DW_AT_language(DW_LANG_C)
    1177                            .dwattr $C$DW$T$79, DW_AT_decl_file("/home/pola/ti/ccsv8/tools/compiler/ti-cgt-arm_18.1.1.LTS/
    1178                            .dwattr $C$DW$T$79, DW_AT_decl_line(0x3b)
    1179                            .dwattr $C$DW$T$79, DW_AT_decl_column(0x0e)
    1180                    
    1181                    $C$DW$T$11      .dwtag  DW_TAG_base_type
    1182                            .dwattr $C$DW$T$11, DW_AT_encoding(DW_ATE_unsigned)
    1183                            .dwattr $C$DW$T$11, DW_AT_name("unsigned int")
    1184                            .dwattr $C$DW$T$11, DW_AT_byte_size(0x04)
    1185                    
    1186                    $C$DW$T$25      .dwtag  DW_TAG_typedef
    1187                            .dwattr $C$DW$T$25, DW_AT_name("__uint32_t")
    1188                            .dwattr $C$DW$T$25, DW_AT_type(*$C$DW$T$11)
    1189                            .dwattr $C$DW$T$25, DW_AT_language(DW_LANG_C)
    1190                            .dwattr $C$DW$T$25, DW_AT_decl_file("/home/pola/ti/ccsv8/tools/compiler/ti-cgt-arm_18.1.1.LTS/
    1191                            .dwattr $C$DW$T$25, DW_AT_decl_line(0x3e)
    1192                            .dwattr $C$DW$T$25, DW_AT_decl_column(0x17)
    1193                    
    1194                    $C$DW$T$80      .dwtag  DW_TAG_typedef
    1195                            .dwattr $C$DW$T$80, DW_AT_name("__clock_t")
    1196                            .dwattr $C$DW$T$80, DW_AT_type(*$C$DW$T$25)
    1197                            .dwattr $C$DW$T$80, DW_AT_language(DW_LANG_C)
    1198                            .dwattr $C$DW$T$80, DW_AT_decl_file("/home/pola/ti/ccsv8/tools/compiler/ti-cgt-arm_18.1.1.LTS/
    1199                            .dwattr $C$DW$T$80, DW_AT_decl_line(0x4d)
    1200                            .dwattr $C$DW$T$80, DW_AT_decl_column(0x14)
    1201                    
    1202                    $C$DW$T$81      .dwtag  DW_TAG_typedef
    1203                            .dwattr $C$DW$T$81, DW_AT_name("__fflags_t")
    1204                            .dwattr $C$DW$T$81, DW_AT_type(*$C$DW$T$25)
    1205                            .dwattr $C$DW$T$81, DW_AT_language(DW_LANG_C)
    1206                            .dwattr $C$DW$T$81, DW_AT_decl_file("/home/pola/ti/ccsv8/tools/compiler/ti-cgt-arm_18.1.1.LTS/
    1207                            .dwattr $C$DW$T$81, DW_AT_decl_line(0x31)
TI ARM Assembler Unix v18.1.1 Fri Jul  3 20:08:24 2020

Tools Copyright (c) 1996-2017 Texas Instruments Incorporated
fpu.asm                                                              PAGE   23

    1208                            .dwattr $C$DW$T$81, DW_AT_decl_column(0x14)
    1209                    
    1210                    $C$DW$T$82      .dwtag  DW_TAG_typedef
    1211                            .dwattr $C$DW$T$82, DW_AT_name("__fixpt_t")
    1212                            .dwattr $C$DW$T$82, DW_AT_type(*$C$DW$T$25)
    1213                            .dwattr $C$DW$T$82, DW_AT_language(DW_LANG_C)
    1214                            .dwattr $C$DW$T$82, DW_AT_decl_file("/home/pola/ti/ccsv8/tools/compiler/ti-cgt-arm_18.1.1.LTS/
    1215                            .dwattr $C$DW$T$82, DW_AT_decl_line(0x76)
    1216                            .dwattr $C$DW$T$82, DW_AT_decl_column(0x14)
    1217                    
    1218                    $C$DW$T$83      .dwtag  DW_TAG_typedef
    1219                            .dwattr $C$DW$T$83, DW_AT_name("__gid_t")
    1220                            .dwattr $C$DW$T$83, DW_AT_type(*$C$DW$T$25)
    1221                            .dwattr $C$DW$T$83, DW_AT_language(DW_LANG_C)
    1222                            .dwattr $C$DW$T$83, DW_AT_decl_file("/home/pola/ti/ccsv8/tools/compiler/ti-cgt-arm_18.1.1.LTS/
    1223                            .dwattr $C$DW$T$83, DW_AT_decl_line(0x34)
    1224                            .dwattr $C$DW$T$83, DW_AT_decl_column(0x14)
    1225                    
    1226                    $C$DW$T$84      .dwtag  DW_TAG_typedef
    1227                            .dwattr $C$DW$T$84, DW_AT_name("__size_t")
    1228                            .dwattr $C$DW$T$84, DW_AT_type(*$C$DW$T$25)
    1229                            .dwattr $C$DW$T$84, DW_AT_language(DW_LANG_C)
    1230                            .dwattr $C$DW$T$84, DW_AT_decl_file("/home/pola/ti/ccsv8/tools/compiler/ti-cgt-arm_18.1.1.LTS/
    1231                            .dwattr $C$DW$T$84, DW_AT_decl_line(0x5f)
    1232                            .dwattr $C$DW$T$84, DW_AT_decl_column(0x14)
    1233                    
    1234                    $C$DW$T$85      .dwtag  DW_TAG_typedef
    1235                            .dwattr $C$DW$T$85, DW_AT_name("__socklen_t")
    1236                            .dwattr $C$DW$T$85, DW_AT_type(*$C$DW$T$25)
    1237                            .dwattr $C$DW$T$85, DW_AT_language(DW_LANG_C)
    1238                            .dwattr $C$DW$T$85, DW_AT_decl_file("/home/pola/ti/ccsv8/tools/compiler/ti-cgt-arm_18.1.1.LTS/
    1239                            .dwattr $C$DW$T$85, DW_AT_decl_line(0x44)
    1240                            .dwattr $C$DW$T$85, DW_AT_decl_column(0x14)
    1241                    
    1242                    $C$DW$T$86      .dwtag  DW_TAG_typedef
    1243                            .dwattr $C$DW$T$86, DW_AT_name("__time_t")
    1244                            .dwattr $C$DW$T$86, DW_AT_type(*$C$DW$T$25)
    1245                            .dwattr $C$DW$T$86, DW_AT_language(DW_LANG_C)
    1246                            .dwattr $C$DW$T$86, DW_AT_decl_file("/home/pola/ti/ccsv8/tools/compiler/ti-cgt-arm_18.1.1.LTS/
    1247                            .dwattr $C$DW$T$86, DW_AT_decl_line(0x64)
    1248                            .dwattr $C$DW$T$86, DW_AT_decl_column(0x19)
    1249                    
    1250                    $C$DW$T$87      .dwtag  DW_TAG_typedef
    1251                            .dwattr $C$DW$T$87, DW_AT_name("__u_register_t")
    1252                            .dwattr $C$DW$T$87, DW_AT_type(*$C$DW$T$25)
    1253                            .dwattr $C$DW$T$87, DW_AT_language(DW_LANG_C)
    1254                            .dwattr $C$DW$T$87, DW_AT_decl_file("/home/pola/ti/ccsv8/tools/compiler/ti-cgt-arm_18.1.1.LTS/
    1255                            .dwattr $C$DW$T$87, DW_AT_decl_line(0x71)
    1256                            .dwattr $C$DW$T$87, DW_AT_decl_column(0x14)
    1257                    
    1258                    $C$DW$T$88      .dwtag  DW_TAG_typedef
    1259                            .dwattr $C$DW$T$88, DW_AT_name("__uid_t")
    1260                            .dwattr $C$DW$T$88, DW_AT_type(*$C$DW$T$25)
    1261                            .dwattr $C$DW$T$88, DW_AT_language(DW_LANG_C)
    1262                            .dwattr $C$DW$T$88, DW_AT_decl_file("/home/pola/ti/ccsv8/tools/compiler/ti-cgt-arm_18.1.1.LTS/
TI ARM Assembler Unix v18.1.1 Fri Jul  3 20:08:24 2020

Tools Copyright (c) 1996-2017 Texas Instruments Incorporated
fpu.asm                                                              PAGE   24

    1263                            .dwattr $C$DW$T$88, DW_AT_decl_line(0x48)
    1264                            .dwattr $C$DW$T$88, DW_AT_decl_column(0x14)
    1265                    
    1266                    $C$DW$T$89      .dwtag  DW_TAG_typedef
    1267                            .dwattr $C$DW$T$89, DW_AT_name("__uint_fast16_t")
    1268                            .dwattr $C$DW$T$89, DW_AT_type(*$C$DW$T$25)
    1269                            .dwattr $C$DW$T$89, DW_AT_language(DW_LANG_C)
    1270                            .dwattr $C$DW$T$89, DW_AT_decl_file("/home/pola/ti/ccsv8/tools/compiler/ti-cgt-arm_18.1.1.LTS/
    1271                            .dwattr $C$DW$T$89, DW_AT_decl_line(0x6a)
    1272                            .dwattr $C$DW$T$89, DW_AT_decl_column(0x14)
    1273                    
    1274                    $C$DW$T$90      .dwtag  DW_TAG_typedef
    1275                            .dwattr $C$DW$T$90, DW_AT_name("uint_fast16_t")
    1276                            .dwattr $C$DW$T$90, DW_AT_type(*$C$DW$T$89)
    1277                            .dwattr $C$DW$T$90, DW_AT_language(DW_LANG_C)
    1278                            .dwattr $C$DW$T$90, DW_AT_decl_file("/home/pola/ti/ccsv8/tools/compiler/ti-cgt-arm_18.1.1.LTS/
    1279                            .dwattr $C$DW$T$90, DW_AT_decl_line(0x38)
    1280                            .dwattr $C$DW$T$90, DW_AT_decl_column(0x1a)
    1281                    
    1282                    $C$DW$T$91      .dwtag  DW_TAG_typedef
    1283                            .dwattr $C$DW$T$91, DW_AT_name("__uint_fast32_t")
    1284                            .dwattr $C$DW$T$91, DW_AT_type(*$C$DW$T$25)
    1285                            .dwattr $C$DW$T$91, DW_AT_language(DW_LANG_C)
    1286                            .dwattr $C$DW$T$91, DW_AT_decl_file("/home/pola/ti/ccsv8/tools/compiler/ti-cgt-arm_18.1.1.LTS/
    1287                            .dwattr $C$DW$T$91, DW_AT_decl_line(0x6b)
    1288                            .dwattr $C$DW$T$91, DW_AT_decl_column(0x14)
    1289                    
    1290                    $C$DW$T$92      .dwtag  DW_TAG_typedef
    1291                            .dwattr $C$DW$T$92, DW_AT_name("uint_fast32_t")
    1292                            .dwattr $C$DW$T$92, DW_AT_type(*$C$DW$T$91)
    1293                            .dwattr $C$DW$T$92, DW_AT_language(DW_LANG_C)
    1294                            .dwattr $C$DW$T$92, DW_AT_decl_file("/home/pola/ti/ccsv8/tools/compiler/ti-cgt-arm_18.1.1.LTS/
    1295                            .dwattr $C$DW$T$92, DW_AT_decl_line(0x39)
    1296                            .dwattr $C$DW$T$92, DW_AT_decl_column(0x1a)
    1297                    
    1298                    $C$DW$T$93      .dwtag  DW_TAG_typedef
    1299                            .dwattr $C$DW$T$93, DW_AT_name("__uint_fast8_t")
    1300                            .dwattr $C$DW$T$93, DW_AT_type(*$C$DW$T$25)
    1301                            .dwattr $C$DW$T$93, DW_AT_language(DW_LANG_C)
    1302                            .dwattr $C$DW$T$93, DW_AT_decl_file("/home/pola/ti/ccsv8/tools/compiler/ti-cgt-arm_18.1.1.LTS/
    1303                            .dwattr $C$DW$T$93, DW_AT_decl_line(0x69)
    1304                            .dwattr $C$DW$T$93, DW_AT_decl_column(0x14)
    1305                    
    1306                    $C$DW$T$94      .dwtag  DW_TAG_typedef
    1307                            .dwattr $C$DW$T$94, DW_AT_name("uint_fast8_t")
    1308                            .dwattr $C$DW$T$94, DW_AT_type(*$C$DW$T$93)
    1309                            .dwattr $C$DW$T$94, DW_AT_language(DW_LANG_C)
    1310                            .dwattr $C$DW$T$94, DW_AT_decl_file("/home/pola/ti/ccsv8/tools/compiler/ti-cgt-arm_18.1.1.LTS/
    1311                            .dwattr $C$DW$T$94, DW_AT_decl_line(0x37)
    1312                            .dwattr $C$DW$T$94, DW_AT_decl_column(0x19)
    1313                    
    1314                    $C$DW$T$95      .dwtag  DW_TAG_typedef
    1315                            .dwattr $C$DW$T$95, DW_AT_name("__uint_least32_t")
    1316                            .dwattr $C$DW$T$95, DW_AT_type(*$C$DW$T$25)
    1317                            .dwattr $C$DW$T$95, DW_AT_language(DW_LANG_C)
TI ARM Assembler Unix v18.1.1 Fri Jul  3 20:08:24 2020

Tools Copyright (c) 1996-2017 Texas Instruments Incorporated
fpu.asm                                                              PAGE   25

    1318                            .dwattr $C$DW$T$95, DW_AT_decl_file("/home/pola/ti/ccsv8/tools/compiler/ti-cgt-arm_18.1.1.LTS/
    1319                            .dwattr $C$DW$T$95, DW_AT_decl_line(0x6f)
    1320                            .dwattr $C$DW$T$95, DW_AT_decl_column(0x14)
    1321                    
    1322                    $C$DW$T$96      .dwtag  DW_TAG_typedef
    1323                            .dwattr $C$DW$T$96, DW_AT_name("__char32_t")
    1324                            .dwattr $C$DW$T$96, DW_AT_type(*$C$DW$T$95)
    1325                            .dwattr $C$DW$T$96, DW_AT_language(DW_LANG_C)
    1326                            .dwattr $C$DW$T$96, DW_AT_decl_file("/home/pola/ti/ccsv8/tools/compiler/ti-cgt-arm_18.1.1.LTS/
    1327                            .dwattr $C$DW$T$96, DW_AT_decl_line(0x67)
    1328                            .dwattr $C$DW$T$96, DW_AT_decl_column(0x1a)
    1329                    
    1330                    $C$DW$T$97      .dwtag  DW_TAG_typedef
    1331                            .dwattr $C$DW$T$97, DW_AT_name("uint_least32_t")
    1332                            .dwattr $C$DW$T$97, DW_AT_type(*$C$DW$T$95)
    1333                            .dwattr $C$DW$T$97, DW_AT_language(DW_LANG_C)
    1334                            .dwattr $C$DW$T$97, DW_AT_decl_file("/home/pola/ti/ccsv8/tools/compiler/ti-cgt-arm_18.1.1.LTS/
    1335                            .dwattr $C$DW$T$97, DW_AT_decl_line(0x2f)
    1336                            .dwattr $C$DW$T$97, DW_AT_decl_column(0x1a)
    1337                    
    1338                    $C$DW$T$98      .dwtag  DW_TAG_typedef
    1339                            .dwattr $C$DW$T$98, DW_AT_name("__uintfptr_t")
    1340                            .dwattr $C$DW$T$98, DW_AT_type(*$C$DW$T$25)
    1341                            .dwattr $C$DW$T$98, DW_AT_language(DW_LANG_C)
    1342                            .dwattr $C$DW$T$98, DW_AT_decl_file("/home/pola/ti/ccsv8/tools/compiler/ti-cgt-arm_18.1.1.LTS/
    1343                            .dwattr $C$DW$T$98, DW_AT_decl_line(0x66)
    1344                            .dwattr $C$DW$T$98, DW_AT_decl_column(0x14)
    1345                    
    1346                    $C$DW$T$99      .dwtag  DW_TAG_typedef
    1347                            .dwattr $C$DW$T$99, DW_AT_name("__uintptr_t")
    1348                            .dwattr $C$DW$T$99, DW_AT_type(*$C$DW$T$25)
    1349                            .dwattr $C$DW$T$99, DW_AT_language(DW_LANG_C)
    1350                            .dwattr $C$DW$T$99, DW_AT_decl_file("/home/pola/ti/ccsv8/tools/compiler/ti-cgt-arm_18.1.1.LTS/
    1351                            .dwattr $C$DW$T$99, DW_AT_decl_line(0x68)
    1352                            .dwattr $C$DW$T$99, DW_AT_decl_column(0x14)
    1353                    
    1354                    $C$DW$T$100     .dwtag  DW_TAG_typedef
    1355                            .dwattr $C$DW$T$100, DW_AT_name("uintptr_t")
    1356                            .dwattr $C$DW$T$100, DW_AT_type(*$C$DW$T$99)
    1357                            .dwattr $C$DW$T$100, DW_AT_language(DW_LANG_C)
    1358                            .dwattr $C$DW$T$100, DW_AT_decl_file("/home/pola/ti/ccsv8/tools/compiler/ti-cgt-arm_18.1.1.LTS
    1359                            .dwattr $C$DW$T$100, DW_AT_decl_line(0x50)
    1360                            .dwattr $C$DW$T$100, DW_AT_decl_column(0x16)
    1361                    
    1362                    $C$DW$T$101     .dwtag  DW_TAG_typedef
    1363                            .dwattr $C$DW$T$101, DW_AT_name("__vm_offset_t")
    1364                            .dwattr $C$DW$T$101, DW_AT_type(*$C$DW$T$25)
    1365                            .dwattr $C$DW$T$101, DW_AT_language(DW_LANG_C)
    1366                            .dwattr $C$DW$T$101, DW_AT_decl_file("/home/pola/ti/ccsv8/tools/compiler/ti-cgt-arm_18.1.1.LTS
    1367                            .dwattr $C$DW$T$101, DW_AT_decl_line(0x72)
    1368                            .dwattr $C$DW$T$101, DW_AT_decl_column(0x14)
    1369                    
    1370                    $C$DW$T$102     .dwtag  DW_TAG_typedef
    1371                            .dwattr $C$DW$T$102, DW_AT_name("__vm_paddr_t")
    1372                            .dwattr $C$DW$T$102, DW_AT_type(*$C$DW$T$25)
TI ARM Assembler Unix v18.1.1 Fri Jul  3 20:08:24 2020

Tools Copyright (c) 1996-2017 Texas Instruments Incorporated
fpu.asm                                                              PAGE   26

    1373                            .dwattr $C$DW$T$102, DW_AT_language(DW_LANG_C)
    1374                            .dwattr $C$DW$T$102, DW_AT_decl_file("/home/pola/ti/ccsv8/tools/compiler/ti-cgt-arm_18.1.1.LTS
    1375                            .dwattr $C$DW$T$102, DW_AT_decl_line(0x73)
    1376                            .dwattr $C$DW$T$102, DW_AT_decl_column(0x14)
    1377                    
    1378                    $C$DW$T$103     .dwtag  DW_TAG_typedef
    1379                            .dwattr $C$DW$T$103, DW_AT_name("__vm_size_t")
    1380                            .dwattr $C$DW$T$103, DW_AT_type(*$C$DW$T$25)
    1381                            .dwattr $C$DW$T$103, DW_AT_language(DW_LANG_C)
    1382                            .dwattr $C$DW$T$103, DW_AT_decl_file("/home/pola/ti/ccsv8/tools/compiler/ti-cgt-arm_18.1.1.LTS
    1383                            .dwattr $C$DW$T$103, DW_AT_decl_line(0x74)
    1384                            .dwattr $C$DW$T$103, DW_AT_decl_column(0x14)
    1385                    
    1386                    $C$DW$T$26      .dwtag  DW_TAG_typedef
    1387                            .dwattr $C$DW$T$26, DW_AT_name("uint32_t")
    1388                            .dwattr $C$DW$T$26, DW_AT_type(*$C$DW$T$25)
    1389                            .dwattr $C$DW$T$26, DW_AT_language(DW_LANG_C)
    1390                            .dwattr $C$DW$T$26, DW_AT_decl_file("/home/pola/ti/ccsv8/tools/compiler/ti-cgt-arm_18.1.1.LTS/
    1391                            .dwattr $C$DW$T$26, DW_AT_decl_line(0x42)
    1392                            .dwattr $C$DW$T$26, DW_AT_decl_column(0x15)
    1393                    
    1394                    $C$DW$T$106     .dwtag  DW_TAG_typedef
    1395                            .dwattr $C$DW$T$106, DW_AT_name("__useconds_t")
    1396                            .dwattr $C$DW$T$106, DW_AT_type(*$C$DW$T$11)
    1397                            .dwattr $C$DW$T$106, DW_AT_language(DW_LANG_C)
    1398                            .dwattr $C$DW$T$106, DW_AT_decl_file("/home/pola/ti/ccsv8/tools/compiler/ti-cgt-arm_18.1.1.LTS
    1399                            .dwattr $C$DW$T$106, DW_AT_decl_line(0x49)
    1400                            .dwattr $C$DW$T$106, DW_AT_decl_column(0x16)
    1401                    
    1402                    $C$DW$T$12      .dwtag  DW_TAG_base_type
    1403                            .dwattr $C$DW$T$12, DW_AT_encoding(DW_ATE_signed)
    1404                            .dwattr $C$DW$T$12, DW_AT_name("long")
    1405                            .dwattr $C$DW$T$12, DW_AT_byte_size(0x04)
    1406                    
    1407                    $C$DW$T$107     .dwtag  DW_TAG_typedef
    1408                            .dwattr $C$DW$T$107, DW_AT_name("__key_t")
    1409                            .dwattr $C$DW$T$107, DW_AT_type(*$C$DW$T$12)
    1410                            .dwattr $C$DW$T$107, DW_AT_language(DW_LANG_C)
    1411                            .dwattr $C$DW$T$107, DW_AT_decl_file("/home/pola/ti/ccsv8/tools/compiler/ti-cgt-arm_18.1.1.LTS
    1412                            .dwattr $C$DW$T$107, DW_AT_decl_line(0x37)
    1413                            .dwattr $C$DW$T$107, DW_AT_decl_column(0x0f)
    1414                    
    1415                    $C$DW$T$108     .dwtag  DW_TAG_typedef
    1416                            .dwattr $C$DW$T$108, DW_AT_name("__suseconds_t")
    1417                            .dwattr $C$DW$T$108, DW_AT_type(*$C$DW$T$12)
    1418                            .dwattr $C$DW$T$108, DW_AT_language(DW_LANG_C)
    1419                            .dwattr $C$DW$T$108, DW_AT_decl_file("/home/pola/ti/ccsv8/tools/compiler/ti-cgt-arm_18.1.1.LTS
    1420                            .dwattr $C$DW$T$108, DW_AT_decl_line(0x45)
    1421                            .dwattr $C$DW$T$108, DW_AT_decl_column(0x0f)
    1422                    
    1423                    $C$DW$T$13      .dwtag  DW_TAG_base_type
    1424                            .dwattr $C$DW$T$13, DW_AT_encoding(DW_ATE_unsigned)
    1425                            .dwattr $C$DW$T$13, DW_AT_name("unsigned long")
    1426                            .dwattr $C$DW$T$13, DW_AT_byte_size(0x04)
    1427                    
TI ARM Assembler Unix v18.1.1 Fri Jul  3 20:08:24 2020

Tools Copyright (c) 1996-2017 Texas Instruments Incorporated
fpu.asm                                                              PAGE   27

    1428                    $C$DW$T$14      .dwtag  DW_TAG_base_type
    1429                            .dwattr $C$DW$T$14, DW_AT_encoding(DW_ATE_signed)
    1430                            .dwattr $C$DW$T$14, DW_AT_name("long long")
    1431                            .dwattr $C$DW$T$14, DW_AT_byte_size(0x08)
    1432                    
    1433                    $C$DW$T$109     .dwtag  DW_TAG_typedef
    1434                            .dwattr $C$DW$T$109, DW_AT_name("__int64_t")
    1435                            .dwattr $C$DW$T$109, DW_AT_type(*$C$DW$T$14)
    1436                            .dwattr $C$DW$T$109, DW_AT_language(DW_LANG_C)
    1437                            .dwattr $C$DW$T$109, DW_AT_decl_file("/home/pola/ti/ccsv8/tools/compiler/ti-cgt-arm_18.1.1.LTS
    1438                            .dwattr $C$DW$T$109, DW_AT_decl_line(0x43)
    1439                            .dwattr $C$DW$T$109, DW_AT_decl_column(0x14)
    1440                    
    1441                    $C$DW$T$110     .dwtag  DW_TAG_typedef
    1442                            .dwattr $C$DW$T$110, DW_AT_name("__blkcnt_t")
    1443                            .dwattr $C$DW$T$110, DW_AT_type(*$C$DW$T$109)
    1444                            .dwattr $C$DW$T$110, DW_AT_language(DW_LANG_C)
    1445                            .dwattr $C$DW$T$110, DW_AT_decl_file("/home/pola/ti/ccsv8/tools/compiler/ti-cgt-arm_18.1.1.LTS
    1446                            .dwattr $C$DW$T$110, DW_AT_decl_line(0x2f)
    1447                            .dwattr $C$DW$T$110, DW_AT_decl_column(0x13)
    1448                    
    1449                    $C$DW$T$111     .dwtag  DW_TAG_typedef
    1450                            .dwattr $C$DW$T$111, DW_AT_name("__id_t")
    1451                            .dwattr $C$DW$T$111, DW_AT_type(*$C$DW$T$109)
    1452                            .dwattr $C$DW$T$111, DW_AT_language(DW_LANG_C)
    1453                            .dwattr $C$DW$T$111, DW_AT_decl_file("/home/pola/ti/ccsv8/tools/compiler/ti-cgt-arm_18.1.1.LTS
    1454                            .dwattr $C$DW$T$111, DW_AT_decl_line(0x35)
    1455                            .dwattr $C$DW$T$111, DW_AT_decl_column(0x13)
    1456                    
    1457                    $C$DW$T$112     .dwtag  DW_TAG_typedef
    1458                            .dwattr $C$DW$T$112, DW_AT_name("__int_fast64_t")
    1459                            .dwattr $C$DW$T$112, DW_AT_type(*$C$DW$T$109)
    1460                            .dwattr $C$DW$T$112, DW_AT_language(DW_LANG_C)
    1461                            .dwattr $C$DW$T$112, DW_AT_decl_file("/home/pola/ti/ccsv8/tools/compiler/ti-cgt-arm_18.1.1.LTS
    1462                            .dwattr $C$DW$T$112, DW_AT_decl_line(0x57)
    1463                            .dwattr $C$DW$T$112, DW_AT_decl_column(0x13)
    1464                    
    1465                    $C$DW$T$113     .dwtag  DW_TAG_typedef
    1466                            .dwattr $C$DW$T$113, DW_AT_name("int_fast64_t")
    1467                            .dwattr $C$DW$T$113, DW_AT_type(*$C$DW$T$112)
    1468                            .dwattr $C$DW$T$113, DW_AT_language(DW_LANG_C)
    1469                            .dwattr $C$DW$T$113, DW_AT_decl_file("/home/pola/ti/ccsv8/tools/compiler/ti-cgt-arm_18.1.1.LTS
    1470                            .dwattr $C$DW$T$113, DW_AT_decl_line(0x35)
    1471                            .dwattr $C$DW$T$113, DW_AT_decl_column(0x19)
    1472                    
    1473                    $C$DW$T$114     .dwtag  DW_TAG_typedef
    1474                            .dwattr $C$DW$T$114, DW_AT_name("__int_least64_t")
    1475                            .dwattr $C$DW$T$114, DW_AT_type(*$C$DW$T$109)
    1476                            .dwattr $C$DW$T$114, DW_AT_language(DW_LANG_C)
    1477                            .dwattr $C$DW$T$114, DW_AT_decl_file("/home/pola/ti/ccsv8/tools/compiler/ti-cgt-arm_18.1.1.LTS
    1478                            .dwattr $C$DW$T$114, DW_AT_decl_line(0x5b)
    1479                            .dwattr $C$DW$T$114, DW_AT_decl_column(0x13)
    1480                    
    1481                    $C$DW$T$115     .dwtag  DW_TAG_typedef
    1482                            .dwattr $C$DW$T$115, DW_AT_name("int_least64_t")
TI ARM Assembler Unix v18.1.1 Fri Jul  3 20:08:24 2020

Tools Copyright (c) 1996-2017 Texas Instruments Incorporated
fpu.asm                                                              PAGE   28

    1483                            .dwattr $C$DW$T$115, DW_AT_type(*$C$DW$T$114)
    1484                            .dwattr $C$DW$T$115, DW_AT_language(DW_LANG_C)
    1485                            .dwattr $C$DW$T$115, DW_AT_decl_file("/home/pola/ti/ccsv8/tools/compiler/ti-cgt-arm_18.1.1.LTS
    1486                            .dwattr $C$DW$T$115, DW_AT_decl_line(0x2b)
    1487                            .dwattr $C$DW$T$115, DW_AT_decl_column(0x1a)
    1488                    
    1489                    $C$DW$T$116     .dwtag  DW_TAG_typedef
    1490                            .dwattr $C$DW$T$116, DW_AT_name("__intmax_t")
    1491                            .dwattr $C$DW$T$116, DW_AT_type(*$C$DW$T$109)
    1492                            .dwattr $C$DW$T$116, DW_AT_language(DW_LANG_C)
    1493                            .dwattr $C$DW$T$116, DW_AT_decl_file("/home/pola/ti/ccsv8/tools/compiler/ti-cgt-arm_18.1.1.LTS
    1494                            .dwattr $C$DW$T$116, DW_AT_decl_line(0x52)
    1495                            .dwattr $C$DW$T$116, DW_AT_decl_column(0x13)
    1496                    
    1497                    $C$DW$T$117     .dwtag  DW_TAG_typedef
    1498                            .dwattr $C$DW$T$117, DW_AT_name("intmax_t")
    1499                            .dwattr $C$DW$T$117, DW_AT_type(*$C$DW$T$116)
    1500                            .dwattr $C$DW$T$117, DW_AT_language(DW_LANG_C)
    1501                            .dwattr $C$DW$T$117, DW_AT_decl_file("/home/pola/ti/ccsv8/tools/compiler/ti-cgt-arm_18.1.1.LTS
    1502                            .dwattr $C$DW$T$117, DW_AT_decl_line(0x54)
    1503                            .dwattr $C$DW$T$117, DW_AT_decl_column(0x15)
    1504                    
    1505                    $C$DW$T$118     .dwtag  DW_TAG_typedef
    1506                            .dwattr $C$DW$T$118, DW_AT_name("__off64_t")
    1507                            .dwattr $C$DW$T$118, DW_AT_type(*$C$DW$T$109)
    1508                            .dwattr $C$DW$T$118, DW_AT_language(DW_LANG_C)
    1509                            .dwattr $C$DW$T$118, DW_AT_decl_file("/home/pola/ti/ccsv8/tools/compiler/ti-cgt-arm_18.1.1.LTS
    1510                            .dwattr $C$DW$T$118, DW_AT_decl_line(0x3e)
    1511                            .dwattr $C$DW$T$118, DW_AT_decl_column(0x13)
    1512                    
    1513                    $C$DW$T$119     .dwtag  DW_TAG_typedef
    1514                            .dwattr $C$DW$T$119, DW_AT_name("__off_t")
    1515                            .dwattr $C$DW$T$119, DW_AT_type(*$C$DW$T$109)
    1516                            .dwattr $C$DW$T$119, DW_AT_language(DW_LANG_C)
    1517                            .dwattr $C$DW$T$119, DW_AT_decl_file("/home/pola/ti/ccsv8/tools/compiler/ti-cgt-arm_18.1.1.LTS
    1518                            .dwattr $C$DW$T$119, DW_AT_decl_line(0x3d)
    1519                            .dwattr $C$DW$T$119, DW_AT_decl_column(0x13)
    1520                    
    1521                    $C$DW$T$120     .dwtag  DW_TAG_typedef
    1522                            .dwattr $C$DW$T$120, DW_AT_name("__rlim_t")
    1523                            .dwattr $C$DW$T$120, DW_AT_type(*$C$DW$T$109)
    1524                            .dwattr $C$DW$T$120, DW_AT_language(DW_LANG_C)
    1525                            .dwattr $C$DW$T$120, DW_AT_decl_file("/home/pola/ti/ccsv8/tools/compiler/ti-cgt-arm_18.1.1.LTS
    1526                            .dwattr $C$DW$T$120, DW_AT_decl_line(0x40)
    1527                            .dwattr $C$DW$T$120, DW_AT_decl_column(0x13)
    1528                    
    1529                    $C$DW$T$121     .dwtag  DW_TAG_typedef
    1530                            .dwattr $C$DW$T$121, DW_AT_name("int64_t")
    1531                            .dwattr $C$DW$T$121, DW_AT_type(*$C$DW$T$109)
    1532                            .dwattr $C$DW$T$121, DW_AT_language(DW_LANG_C)
    1533                            .dwattr $C$DW$T$121, DW_AT_decl_file("/home/pola/ti/ccsv8/tools/compiler/ti-cgt-arm_18.1.1.LTS
    1534                            .dwattr $C$DW$T$121, DW_AT_decl_line(0x33)
    1535                            .dwattr $C$DW$T$121, DW_AT_decl_column(0x14)
    1536                    
    1537                    $C$DW$T$15      .dwtag  DW_TAG_base_type
TI ARM Assembler Unix v18.1.1 Fri Jul  3 20:08:24 2020

Tools Copyright (c) 1996-2017 Texas Instruments Incorporated
fpu.asm                                                              PAGE   29

    1538                            .dwattr $C$DW$T$15, DW_AT_encoding(DW_ATE_unsigned)
    1539                            .dwattr $C$DW$T$15, DW_AT_name("unsigned long long")
    1540                            .dwattr $C$DW$T$15, DW_AT_byte_size(0x08)
    1541                    
    1542                    $C$DW$T$122     .dwtag  DW_TAG_typedef
    1543                            .dwattr $C$DW$T$122, DW_AT_name("__uint64_t")
    1544                            .dwattr $C$DW$T$122, DW_AT_type(*$C$DW$T$15)
    1545                            .dwattr $C$DW$T$122, DW_AT_language(DW_LANG_C)
    1546                            .dwattr $C$DW$T$122, DW_AT_decl_file("/home/pola/ti/ccsv8/tools/compiler/ti-cgt-arm_18.1.1.LTS
    1547                            .dwattr $C$DW$T$122, DW_AT_decl_line(0x48)
    1548                            .dwattr $C$DW$T$122, DW_AT_decl_column(0x1c)
    1549                    
    1550                    $C$DW$T$123     .dwtag  DW_TAG_typedef
    1551                            .dwattr $C$DW$T$123, DW_AT_name("__dev_t")
    1552                            .dwattr $C$DW$T$123, DW_AT_type(*$C$DW$T$122)
    1553                            .dwattr $C$DW$T$123, DW_AT_language(DW_LANG_C)
    1554                            .dwattr $C$DW$T$123, DW_AT_decl_file("/home/pola/ti/ccsv8/tools/compiler/ti-cgt-arm_18.1.1.LTS
    1555                            .dwattr $C$DW$T$123, DW_AT_decl_line(0x74)
    1556                            .dwattr $C$DW$T$123, DW_AT_decl_column(0x14)
    1557                    
    1558                    $C$DW$T$124     .dwtag  DW_TAG_typedef
    1559                            .dwattr $C$DW$T$124, DW_AT_name("__fsblkcnt_t")
    1560                            .dwattr $C$DW$T$124, DW_AT_type(*$C$DW$T$122)
    1561                            .dwattr $C$DW$T$124, DW_AT_language(DW_LANG_C)
    1562                            .dwattr $C$DW$T$124, DW_AT_decl_file("/home/pola/ti/ccsv8/tools/compiler/ti-cgt-arm_18.1.1.LTS
    1563                            .dwattr $C$DW$T$124, DW_AT_decl_line(0x32)
    1564                            .dwattr $C$DW$T$124, DW_AT_decl_column(0x14)
    1565                    
    1566                    $C$DW$T$125     .dwtag  DW_TAG_typedef
    1567                            .dwattr $C$DW$T$125, DW_AT_name("__fsfilcnt_t")
    1568                            .dwattr $C$DW$T$125, DW_AT_type(*$C$DW$T$122)
    1569                            .dwattr $C$DW$T$125, DW_AT_language(DW_LANG_C)
    1570                            .dwattr $C$DW$T$125, DW_AT_decl_file("/home/pola/ti/ccsv8/tools/compiler/ti-cgt-arm_18.1.1.LTS
    1571                            .dwattr $C$DW$T$125, DW_AT_decl_line(0x33)
    1572                            .dwattr $C$DW$T$125, DW_AT_decl_column(0x14)
    1573                    
    1574                    $C$DW$T$126     .dwtag  DW_TAG_typedef
    1575                            .dwattr $C$DW$T$126, DW_AT_name("__ino_t")
    1576                            .dwattr $C$DW$T$126, DW_AT_type(*$C$DW$T$122)
    1577                            .dwattr $C$DW$T$126, DW_AT_language(DW_LANG_C)
    1578                            .dwattr $C$DW$T$126, DW_AT_decl_file("/home/pola/ti/ccsv8/tools/compiler/ti-cgt-arm_18.1.1.LTS
    1579                            .dwattr $C$DW$T$126, DW_AT_decl_line(0x36)
    1580                            .dwattr $C$DW$T$126, DW_AT_decl_column(0x14)
    1581                    
    1582                    $C$DW$T$127     .dwtag  DW_TAG_typedef
    1583                            .dwattr $C$DW$T$127, DW_AT_name("__nlink_t")
    1584                            .dwattr $C$DW$T$127, DW_AT_type(*$C$DW$T$122)
    1585                            .dwattr $C$DW$T$127, DW_AT_language(DW_LANG_C)
    1586                            .dwattr $C$DW$T$127, DW_AT_decl_file("/home/pola/ti/ccsv8/tools/compiler/ti-cgt-arm_18.1.1.LTS
    1587                            .dwattr $C$DW$T$127, DW_AT_decl_line(0x3c)
    1588                            .dwattr $C$DW$T$127, DW_AT_decl_column(0x14)
    1589                    
    1590                    $C$DW$T$128     .dwtag  DW_TAG_typedef
    1591                            .dwattr $C$DW$T$128, DW_AT_name("__uint_fast64_t")
    1592                            .dwattr $C$DW$T$128, DW_AT_type(*$C$DW$T$122)
TI ARM Assembler Unix v18.1.1 Fri Jul  3 20:08:24 2020

Tools Copyright (c) 1996-2017 Texas Instruments Incorporated
fpu.asm                                                              PAGE   30

    1593                            .dwattr $C$DW$T$128, DW_AT_language(DW_LANG_C)
    1594                            .dwattr $C$DW$T$128, DW_AT_decl_file("/home/pola/ti/ccsv8/tools/compiler/ti-cgt-arm_18.1.1.LTS
    1595                            .dwattr $C$DW$T$128, DW_AT_decl_line(0x6c)
    1596                            .dwattr $C$DW$T$128, DW_AT_decl_column(0x14)
    1597                    
    1598                    $C$DW$T$129     .dwtag  DW_TAG_typedef
    1599                            .dwattr $C$DW$T$129, DW_AT_name("uint_fast64_t")
    1600                            .dwattr $C$DW$T$129, DW_AT_type(*$C$DW$T$128)
    1601                            .dwattr $C$DW$T$129, DW_AT_language(DW_LANG_C)
    1602                            .dwattr $C$DW$T$129, DW_AT_decl_file("/home/pola/ti/ccsv8/tools/compiler/ti-cgt-arm_18.1.1.LTS
    1603                            .dwattr $C$DW$T$129, DW_AT_decl_line(0x3a)
    1604                            .dwattr $C$DW$T$129, DW_AT_decl_column(0x1a)
    1605                    
    1606                    $C$DW$T$130     .dwtag  DW_TAG_typedef
    1607                            .dwattr $C$DW$T$130, DW_AT_name("__uint_least64_t")
    1608                            .dwattr $C$DW$T$130, DW_AT_type(*$C$DW$T$122)
    1609                            .dwattr $C$DW$T$130, DW_AT_language(DW_LANG_C)
    1610                            .dwattr $C$DW$T$130, DW_AT_decl_file("/home/pola/ti/ccsv8/tools/compiler/ti-cgt-arm_18.1.1.LTS
    1611                            .dwattr $C$DW$T$130, DW_AT_decl_line(0x70)
    1612                            .dwattr $C$DW$T$130, DW_AT_decl_column(0x14)
    1613                    
    1614                    $C$DW$T$131     .dwtag  DW_TAG_typedef
    1615                            .dwattr $C$DW$T$131, DW_AT_name("uint_least64_t")
    1616                            .dwattr $C$DW$T$131, DW_AT_type(*$C$DW$T$130)
    1617                            .dwattr $C$DW$T$131, DW_AT_language(DW_LANG_C)
    1618                            .dwattr $C$DW$T$131, DW_AT_decl_file("/home/pola/ti/ccsv8/tools/compiler/ti-cgt-arm_18.1.1.LTS
    1619                            .dwattr $C$DW$T$131, DW_AT_decl_line(0x30)
    1620                            .dwattr $C$DW$T$131, DW_AT_decl_column(0x1a)
    1621                    
    1622                    $C$DW$T$132     .dwtag  DW_TAG_typedef
    1623                            .dwattr $C$DW$T$132, DW_AT_name("__uintmax_t")
    1624                            .dwattr $C$DW$T$132, DW_AT_type(*$C$DW$T$122)
    1625                            .dwattr $C$DW$T$132, DW_AT_language(DW_LANG_C)
    1626                            .dwattr $C$DW$T$132, DW_AT_decl_file("/home/pola/ti/ccsv8/tools/compiler/ti-cgt-arm_18.1.1.LTS
    1627                            .dwattr $C$DW$T$132, DW_AT_decl_line(0x67)
    1628                            .dwattr $C$DW$T$132, DW_AT_decl_column(0x14)
    1629                    
    1630                    $C$DW$T$133     .dwtag  DW_TAG_typedef
    1631                            .dwattr $C$DW$T$133, DW_AT_name("__rman_res_t")
    1632                            .dwattr $C$DW$T$133, DW_AT_type(*$C$DW$T$132)
    1633                            .dwattr $C$DW$T$133, DW_AT_language(DW_LANG_C)
    1634                            .dwattr $C$DW$T$133, DW_AT_decl_file("/home/pola/ti/ccsv8/tools/compiler/ti-cgt-arm_18.1.1.LTS
    1635                            .dwattr $C$DW$T$133, DW_AT_decl_line(0x8f)
    1636                            .dwattr $C$DW$T$133, DW_AT_decl_column(0x19)
    1637                    
    1638                    $C$DW$T$134     .dwtag  DW_TAG_typedef
    1639                            .dwattr $C$DW$T$134, DW_AT_name("uintmax_t")
    1640                            .dwattr $C$DW$T$134, DW_AT_type(*$C$DW$T$132)
    1641                            .dwattr $C$DW$T$134, DW_AT_language(DW_LANG_C)
    1642                            .dwattr $C$DW$T$134, DW_AT_decl_file("/home/pola/ti/ccsv8/tools/compiler/ti-cgt-arm_18.1.1.LTS
    1643                            .dwattr $C$DW$T$134, DW_AT_decl_line(0x58)
    1644                            .dwattr $C$DW$T$134, DW_AT_decl_column(0x16)
    1645                    
    1646                    $C$DW$T$135     .dwtag  DW_TAG_typedef
    1647                            .dwattr $C$DW$T$135, DW_AT_name("uint64_t")
TI ARM Assembler Unix v18.1.1 Fri Jul  3 20:08:24 2020

Tools Copyright (c) 1996-2017 Texas Instruments Incorporated
fpu.asm                                                              PAGE   31

    1648                            .dwattr $C$DW$T$135, DW_AT_type(*$C$DW$T$122)
    1649                            .dwattr $C$DW$T$135, DW_AT_language(DW_LANG_C)
    1650                            .dwattr $C$DW$T$135, DW_AT_decl_file("/home/pola/ti/ccsv8/tools/compiler/ti-cgt-arm_18.1.1.LTS
    1651                            .dwattr $C$DW$T$135, DW_AT_decl_line(0x47)
    1652                            .dwattr $C$DW$T$135, DW_AT_decl_column(0x15)
    1653                    
    1654                    $C$DW$T$16      .dwtag  DW_TAG_base_type
    1655                            .dwattr $C$DW$T$16, DW_AT_encoding(DW_ATE_float)
    1656                            .dwattr $C$DW$T$16, DW_AT_name("float")
    1657                            .dwattr $C$DW$T$16, DW_AT_byte_size(0x04)
    1658                    
    1659                    $C$DW$T$136     .dwtag  DW_TAG_typedef
    1660                            .dwattr $C$DW$T$136, DW_AT_name("__float_t")
    1661                            .dwattr $C$DW$T$136, DW_AT_type(*$C$DW$T$16)
    1662                            .dwattr $C$DW$T$136, DW_AT_language(DW_LANG_C)
    1663                            .dwattr $C$DW$T$136, DW_AT_decl_file("/home/pola/ti/ccsv8/tools/compiler/ti-cgt-arm_18.1.1.LTS
    1664                            .dwattr $C$DW$T$136, DW_AT_decl_line(0x50)
    1665                            .dwattr $C$DW$T$136, DW_AT_decl_column(0x10)
    1666                    
    1667                    $C$DW$T$17      .dwtag  DW_TAG_base_type
    1668                            .dwattr $C$DW$T$17, DW_AT_encoding(DW_ATE_float)
    1669                            .dwattr $C$DW$T$17, DW_AT_name("double")
    1670                            .dwattr $C$DW$T$17, DW_AT_byte_size(0x08)
    1671                    
    1672                    $C$DW$T$137     .dwtag  DW_TAG_typedef
    1673                            .dwattr $C$DW$T$137, DW_AT_name("__double_t")
    1674                            .dwattr $C$DW$T$137, DW_AT_type(*$C$DW$T$17)
    1675                            .dwattr $C$DW$T$137, DW_AT_language(DW_LANG_C)
    1676                            .dwattr $C$DW$T$137, DW_AT_decl_file("/home/pola/ti/ccsv8/tools/compiler/ti-cgt-arm_18.1.1.LTS
    1677                            .dwattr $C$DW$T$137, DW_AT_decl_line(0x4f)
    1678                            .dwattr $C$DW$T$137, DW_AT_decl_column(0x11)
    1679                    
    1680                    $C$DW$T$18      .dwtag  DW_TAG_base_type
    1681                            .dwattr $C$DW$T$18, DW_AT_encoding(DW_ATE_float)
    1682                            .dwattr $C$DW$T$18, DW_AT_name("long double")
    1683                            .dwattr $C$DW$T$18, DW_AT_byte_size(0x08)
    1684                    
    1685                    
    1686                    $C$DW$T$19      .dwtag  DW_TAG_structure_type
    1687                            .dwattr $C$DW$T$19, DW_AT_name("__mq")
    1688                            .dwattr $C$DW$T$19, DW_AT_declaration
    1689                            .dwattr $C$DW$T$19, DW_AT_decl_file("/home/pola/ti/ccsv8/tools/compiler/ti-cgt-arm_18.1.1.LTS/
    1690                            .dwattr $C$DW$T$19, DW_AT_decl_line(0x47)
    1691                            .dwattr $C$DW$T$19, DW_AT_decl_column(0x10)
    1692                            .dwendtag $C$DW$T$19
    1693                    
    1694                    $C$DW$T$138     .dwtag  DW_TAG_pointer_type
    1695                            .dwattr $C$DW$T$138, DW_AT_type(*$C$DW$T$19)
    1696                            .dwattr $C$DW$T$138, DW_AT_address_class(0x20)
    1697                    
    1698                    $C$DW$T$139     .dwtag  DW_TAG_typedef
    1699                            .dwattr $C$DW$T$139, DW_AT_name("__mqd_t")
    1700                            .dwattr $C$DW$T$139, DW_AT_type(*$C$DW$T$138)
    1701                            .dwattr $C$DW$T$139, DW_AT_language(DW_LANG_C)
    1702                            .dwattr $C$DW$T$139, DW_AT_decl_file("/home/pola/ti/ccsv8/tools/compiler/ti-cgt-arm_18.1.1.LTS
TI ARM Assembler Unix v18.1.1 Fri Jul  3 20:08:24 2020

Tools Copyright (c) 1996-2017 Texas Instruments Incorporated
fpu.asm                                                              PAGE   32

    1703                            .dwattr $C$DW$T$139, DW_AT_decl_line(0x47)
    1704                            .dwattr $C$DW$T$139, DW_AT_decl_column(0x16)
    1705                    
    1706                    
    1707                    $C$DW$T$20      .dwtag  DW_TAG_structure_type
    1708                            .dwattr $C$DW$T$20, DW_AT_name("__timer")
    1709                            .dwattr $C$DW$T$20, DW_AT_declaration
    1710                            .dwattr $C$DW$T$20, DW_AT_decl_file("/home/pola/ti/ccsv8/tools/compiler/ti-cgt-arm_18.1.1.LTS/
    1711                            .dwattr $C$DW$T$20, DW_AT_decl_line(0x46)
    1712                            .dwattr $C$DW$T$20, DW_AT_decl_column(0x10)
    1713                            .dwendtag $C$DW$T$20
    1714                    
    1715                    $C$DW$T$140     .dwtag  DW_TAG_pointer_type
    1716                            .dwattr $C$DW$T$140, DW_AT_type(*$C$DW$T$20)
    1717                            .dwattr $C$DW$T$140, DW_AT_address_class(0x20)
    1718                    
    1719                    $C$DW$T$141     .dwtag  DW_TAG_typedef
    1720                            .dwattr $C$DW$T$141, DW_AT_name("__timer_t")
    1721                            .dwattr $C$DW$T$141, DW_AT_type(*$C$DW$T$140)
    1722                            .dwattr $C$DW$T$141, DW_AT_language(DW_LANG_C)
    1723                            .dwattr $C$DW$T$141, DW_AT_decl_file("/home/pola/ti/ccsv8/tools/compiler/ti-cgt-arm_18.1.1.LTS
    1724                            .dwattr $C$DW$T$141, DW_AT_decl_line(0x46)
    1725                            .dwattr $C$DW$T$141, DW_AT_decl_column(0x19)
    1726                    
    1727                    
    1728                    $C$DW$T$22      .dwtag  DW_TAG_structure_type
    1729                            .dwattr $C$DW$T$22, DW_AT_name("__va_list_t")
    1730                            .dwattr $C$DW$T$22, DW_AT_byte_size(0x04)
    1731                    $C$DW$29        .dwtag  DW_TAG_member
    1732                            .dwattr $C$DW$29, DW_AT_type(*$C$DW$T$3)
    1733                            .dwattr $C$DW$29, DW_AT_name("__ap")
    1734                            .dwattr $C$DW$29, DW_AT_TI_symbol_name("__ap")
    1735                            .dwattr $C$DW$29, DW_AT_data_member_location[DW_OP_plus_uconst 0x0]
    1736                            .dwattr $C$DW$29, DW_AT_accessibility(DW_ACCESS_public)
    1737                            .dwattr $C$DW$29, DW_AT_decl_file("/home/pola/ti/ccsv8/tools/compiler/ti-cgt-arm_18.1.1.LTS/in
    1738                            .dwattr $C$DW$29, DW_AT_decl_line(0x88)
    1739                            .dwattr $C$DW$29, DW_AT_decl_column(0x0c)
    1740                    
    1741                            .dwattr $C$DW$T$22, DW_AT_decl_file("/home/pola/ti/ccsv8/tools/compiler/ti-cgt-arm_18.1.1.LTS/
    1742                            .dwattr $C$DW$T$22, DW_AT_decl_line(0x87)
    1743                            .dwattr $C$DW$T$22, DW_AT_decl_column(0x10)
    1744                            .dwendtag $C$DW$T$22
    1745                    
    1746                    $C$DW$T$142     .dwtag  DW_TAG_typedef
    1747                            .dwattr $C$DW$T$142, DW_AT_name("__va_list")
    1748                            .dwattr $C$DW$T$142, DW_AT_type(*$C$DW$T$22)
    1749                            .dwattr $C$DW$T$142, DW_AT_language(DW_LANG_C)
    1750                            .dwattr $C$DW$T$142, DW_AT_decl_file("/home/pola/ti/ccsv8/tools/compiler/ti-cgt-arm_18.1.1.LTS
    1751                            .dwattr $C$DW$T$142, DW_AT_decl_line(0x89)
    1752                            .dwattr $C$DW$T$142, DW_AT_decl_column(0x03)
    1753                    
    1754                            .dwattr $C$DW$CU, DW_AT_language(DW_LANG_C)
    1755                    
    1756                    ;***************************************************************
    1757                    ;* DWARF CIE ENTRIES                                           *
TI ARM Assembler Unix v18.1.1 Fri Jul  3 20:08:24 2020

Tools Copyright (c) 1996-2017 Texas Instruments Incorporated
fpu.asm                                                              PAGE   33

    1758                    ;***************************************************************
    1759                    
    1760                    $C$DW$CIE       .dwcie 14
    1761                            .dwcfi  cfa_register, 13
    1762                            .dwcfi  cfa_offset, 0
    1763                            .dwcfi  same_value, 4
    1764                            .dwcfi  same_value, 5
    1765                            .dwcfi  same_value, 6
    1766                            .dwcfi  same_value, 7
    1767                            .dwcfi  same_value, 8
    1768                            .dwcfi  same_value, 9
    1769                            .dwcfi  same_value, 10
    1770                            .dwcfi  same_value, 11
    1771                            .dwcfi  same_value, 80
    1772                            .dwcfi  same_value, 81
    1773                            .dwcfi  same_value, 82
    1774                            .dwcfi  same_value, 83
    1775                            .dwcfi  same_value, 84
    1776                            .dwcfi  same_value, 85
    1777                            .dwcfi  same_value, 86
    1778                            .dwcfi  same_value, 87
    1779                            .dwcfi  same_value, 88
    1780                            .dwcfi  same_value, 89
    1781                            .dwcfi  same_value, 90
    1782                            .dwcfi  same_value, 91
    1783                            .dwcfi  same_value, 92
    1784                            .dwcfi  same_value, 93
    1785                            .dwcfi  same_value, 94
    1786                            .dwcfi  same_value, 95
    1787                            .dwendentry
    1788                    
    1789                    ;***************************************************************
    1790                    ;* DWARF REGISTER MAP                                          *
    1791                    ;***************************************************************
    1792                    
    1793                    $C$DW$30        .dwtag  DW_TAG_TI_assign_register
    1794                            .dwattr $C$DW$30, DW_AT_name("A1")
    1795                            .dwattr $C$DW$30, DW_AT_location[DW_OP_reg0]
    1796                    
    1797                    $C$DW$31        .dwtag  DW_TAG_TI_assign_register
    1798                            .dwattr $C$DW$31, DW_AT_name("A2")
    1799                            .dwattr $C$DW$31, DW_AT_location[DW_OP_reg1]
    1800                    
    1801                    $C$DW$32        .dwtag  DW_TAG_TI_assign_register
    1802                            .dwattr $C$DW$32, DW_AT_name("A3")
    1803                            .dwattr $C$DW$32, DW_AT_location[DW_OP_reg2]
    1804                    
    1805                    $C$DW$33        .dwtag  DW_TAG_TI_assign_register
    1806                            .dwattr $C$DW$33, DW_AT_name("A4")
    1807                            .dwattr $C$DW$33, DW_AT_location[DW_OP_reg3]
    1808                    
    1809                    $C$DW$34        .dwtag  DW_TAG_TI_assign_register
    1810                            .dwattr $C$DW$34, DW_AT_name("V1")
    1811                            .dwattr $C$DW$34, DW_AT_location[DW_OP_reg4]
    1812                    
TI ARM Assembler Unix v18.1.1 Fri Jul  3 20:08:24 2020

Tools Copyright (c) 1996-2017 Texas Instruments Incorporated
fpu.asm                                                              PAGE   34

    1813                    $C$DW$35        .dwtag  DW_TAG_TI_assign_register
    1814                            .dwattr $C$DW$35, DW_AT_name("V2")
    1815                            .dwattr $C$DW$35, DW_AT_location[DW_OP_reg5]
    1816                    
    1817                    $C$DW$36        .dwtag  DW_TAG_TI_assign_register
    1818                            .dwattr $C$DW$36, DW_AT_name("V3")
    1819                            .dwattr $C$DW$36, DW_AT_location[DW_OP_reg6]
    1820                    
    1821                    $C$DW$37        .dwtag  DW_TAG_TI_assign_register
    1822                            .dwattr $C$DW$37, DW_AT_name("V4")
    1823                            .dwattr $C$DW$37, DW_AT_location[DW_OP_reg7]
    1824                    
    1825                    $C$DW$38        .dwtag  DW_TAG_TI_assign_register
    1826                            .dwattr $C$DW$38, DW_AT_name("V5")
    1827                            .dwattr $C$DW$38, DW_AT_location[DW_OP_reg8]
    1828                    
    1829                    $C$DW$39        .dwtag  DW_TAG_TI_assign_register
    1830                            .dwattr $C$DW$39, DW_AT_name("V6")
    1831                            .dwattr $C$DW$39, DW_AT_location[DW_OP_reg9]
    1832                    
    1833                    $C$DW$40        .dwtag  DW_TAG_TI_assign_register
    1834                            .dwattr $C$DW$40, DW_AT_name("V7")
    1835                            .dwattr $C$DW$40, DW_AT_location[DW_OP_reg10]
    1836                    
    1837                    $C$DW$41        .dwtag  DW_TAG_TI_assign_register
    1838                            .dwattr $C$DW$41, DW_AT_name("V8")
    1839                            .dwattr $C$DW$41, DW_AT_location[DW_OP_reg11]
    1840                    
    1841                    $C$DW$42        .dwtag  DW_TAG_TI_assign_register
    1842                            .dwattr $C$DW$42, DW_AT_name("V9")
    1843                            .dwattr $C$DW$42, DW_AT_location[DW_OP_reg12]
    1844                    
    1845                    $C$DW$43        .dwtag  DW_TAG_TI_assign_register
    1846                            .dwattr $C$DW$43, DW_AT_name("SP")
    1847                            .dwattr $C$DW$43, DW_AT_location[DW_OP_reg13]
    1848                    
    1849                    $C$DW$44        .dwtag  DW_TAG_TI_assign_register
    1850                            .dwattr $C$DW$44, DW_AT_name("LR")
    1851                            .dwattr $C$DW$44, DW_AT_location[DW_OP_reg14]
    1852                    
    1853                    $C$DW$45        .dwtag  DW_TAG_TI_assign_register
    1854                            .dwattr $C$DW$45, DW_AT_name("PC")
    1855                            .dwattr $C$DW$45, DW_AT_location[DW_OP_reg15]
    1856                    
    1857                    $C$DW$46        .dwtag  DW_TAG_TI_assign_register
    1858                            .dwattr $C$DW$46, DW_AT_name("SR")
    1859                            .dwattr $C$DW$46, DW_AT_location[DW_OP_reg17]
    1860                    
    1861                    $C$DW$47        .dwtag  DW_TAG_TI_assign_register
    1862                            .dwattr $C$DW$47, DW_AT_name("AP")
    1863                            .dwattr $C$DW$47, DW_AT_location[DW_OP_reg7]
    1864                    
    1865                    $C$DW$48        .dwtag  DW_TAG_TI_assign_register
    1866                            .dwattr $C$DW$48, DW_AT_name("D0")
    1867                            .dwattr $C$DW$48, DW_AT_location[DW_OP_regx 0x40]
TI ARM Assembler Unix v18.1.1 Fri Jul  3 20:08:24 2020

Tools Copyright (c) 1996-2017 Texas Instruments Incorporated
fpu.asm                                                              PAGE   35

    1868                    
    1869                    $C$DW$49        .dwtag  DW_TAG_TI_assign_register
    1870                            .dwattr $C$DW$49, DW_AT_name("D0_hi")
    1871                            .dwattr $C$DW$49, DW_AT_location[DW_OP_regx 0x41]
    1872                    
    1873                    $C$DW$50        .dwtag  DW_TAG_TI_assign_register
    1874                            .dwattr $C$DW$50, DW_AT_name("D1")
    1875                            .dwattr $C$DW$50, DW_AT_location[DW_OP_regx 0x42]
    1876                    
    1877                    $C$DW$51        .dwtag  DW_TAG_TI_assign_register
    1878                            .dwattr $C$DW$51, DW_AT_name("D1_hi")
    1879                            .dwattr $C$DW$51, DW_AT_location[DW_OP_regx 0x43]
    1880                    
    1881                    $C$DW$52        .dwtag  DW_TAG_TI_assign_register
    1882                            .dwattr $C$DW$52, DW_AT_name("D2")
    1883                            .dwattr $C$DW$52, DW_AT_location[DW_OP_regx 0x44]
    1884                    
    1885                    $C$DW$53        .dwtag  DW_TAG_TI_assign_register
    1886                            .dwattr $C$DW$53, DW_AT_name("D2_hi")
    1887                            .dwattr $C$DW$53, DW_AT_location[DW_OP_regx 0x45]
    1888                    
    1889                    $C$DW$54        .dwtag  DW_TAG_TI_assign_register
    1890                            .dwattr $C$DW$54, DW_AT_name("D3")
    1891                            .dwattr $C$DW$54, DW_AT_location[DW_OP_regx 0x46]
    1892                    
    1893                    $C$DW$55        .dwtag  DW_TAG_TI_assign_register
    1894                            .dwattr $C$DW$55, DW_AT_name("D3_hi")
    1895                            .dwattr $C$DW$55, DW_AT_location[DW_OP_regx 0x47]
    1896                    
    1897                    $C$DW$56        .dwtag  DW_TAG_TI_assign_register
    1898                            .dwattr $C$DW$56, DW_AT_name("D4")
    1899                            .dwattr $C$DW$56, DW_AT_location[DW_OP_regx 0x48]
    1900                    
    1901                    $C$DW$57        .dwtag  DW_TAG_TI_assign_register
    1902                            .dwattr $C$DW$57, DW_AT_name("D4_hi")
    1903                            .dwattr $C$DW$57, DW_AT_location[DW_OP_regx 0x49]
    1904                    
    1905                    $C$DW$58        .dwtag  DW_TAG_TI_assign_register
    1906                            .dwattr $C$DW$58, DW_AT_name("D5")
    1907                            .dwattr $C$DW$58, DW_AT_location[DW_OP_regx 0x4a]
    1908                    
    1909                    $C$DW$59        .dwtag  DW_TAG_TI_assign_register
    1910                            .dwattr $C$DW$59, DW_AT_name("D5_hi")
    1911                            .dwattr $C$DW$59, DW_AT_location[DW_OP_regx 0x4b]
    1912                    
    1913                    $C$DW$60        .dwtag  DW_TAG_TI_assign_register
    1914                            .dwattr $C$DW$60, DW_AT_name("D6")
    1915                            .dwattr $C$DW$60, DW_AT_location[DW_OP_regx 0x4c]
    1916                    
    1917                    $C$DW$61        .dwtag  DW_TAG_TI_assign_register
    1918                            .dwattr $C$DW$61, DW_AT_name("D6_hi")
    1919                            .dwattr $C$DW$61, DW_AT_location[DW_OP_regx 0x4d]
    1920                    
    1921                    $C$DW$62        .dwtag  DW_TAG_TI_assign_register
    1922                            .dwattr $C$DW$62, DW_AT_name("D7")
TI ARM Assembler Unix v18.1.1 Fri Jul  3 20:08:24 2020

Tools Copyright (c) 1996-2017 Texas Instruments Incorporated
fpu.asm                                                              PAGE   36

    1923                            .dwattr $C$DW$62, DW_AT_location[DW_OP_regx 0x4e]
    1924                    
    1925                    $C$DW$63        .dwtag  DW_TAG_TI_assign_register
    1926                            .dwattr $C$DW$63, DW_AT_name("D7_hi")
    1927                            .dwattr $C$DW$63, DW_AT_location[DW_OP_regx 0x4f]
    1928                    
    1929                    $C$DW$64        .dwtag  DW_TAG_TI_assign_register
    1930                            .dwattr $C$DW$64, DW_AT_name("D8")
    1931                            .dwattr $C$DW$64, DW_AT_location[DW_OP_regx 0x50]
    1932                    
    1933                    $C$DW$65        .dwtag  DW_TAG_TI_assign_register
    1934                            .dwattr $C$DW$65, DW_AT_name("D8_hi")
    1935                            .dwattr $C$DW$65, DW_AT_location[DW_OP_regx 0x51]
    1936                    
    1937                    $C$DW$66        .dwtag  DW_TAG_TI_assign_register
    1938                            .dwattr $C$DW$66, DW_AT_name("D9")
    1939                            .dwattr $C$DW$66, DW_AT_location[DW_OP_regx 0x52]
    1940                    
    1941                    $C$DW$67        .dwtag  DW_TAG_TI_assign_register
    1942                            .dwattr $C$DW$67, DW_AT_name("D9_hi")
    1943                            .dwattr $C$DW$67, DW_AT_location[DW_OP_regx 0x53]
    1944                    
    1945                    $C$DW$68        .dwtag  DW_TAG_TI_assign_register
    1946                            .dwattr $C$DW$68, DW_AT_name("D10")
    1947                            .dwattr $C$DW$68, DW_AT_location[DW_OP_regx 0x54]
    1948                    
    1949                    $C$DW$69        .dwtag  DW_TAG_TI_assign_register
    1950                            .dwattr $C$DW$69, DW_AT_name("D10_hi")
    1951                            .dwattr $C$DW$69, DW_AT_location[DW_OP_regx 0x55]
    1952                    
    1953                    $C$DW$70        .dwtag  DW_TAG_TI_assign_register
    1954                            .dwattr $C$DW$70, DW_AT_name("D11")
    1955                            .dwattr $C$DW$70, DW_AT_location[DW_OP_regx 0x56]
    1956                    
    1957                    $C$DW$71        .dwtag  DW_TAG_TI_assign_register
    1958                            .dwattr $C$DW$71, DW_AT_name("D11_hi")
    1959                            .dwattr $C$DW$71, DW_AT_location[DW_OP_regx 0x57]
    1960                    
    1961                    $C$DW$72        .dwtag  DW_TAG_TI_assign_register
    1962                            .dwattr $C$DW$72, DW_AT_name("D12")
    1963                            .dwattr $C$DW$72, DW_AT_location[DW_OP_regx 0x58]
    1964                    
    1965                    $C$DW$73        .dwtag  DW_TAG_TI_assign_register
    1966                            .dwattr $C$DW$73, DW_AT_name("D12_hi")
    1967                            .dwattr $C$DW$73, DW_AT_location[DW_OP_regx 0x59]
    1968                    
    1969                    $C$DW$74        .dwtag  DW_TAG_TI_assign_register
    1970                            .dwattr $C$DW$74, DW_AT_name("D13")
    1971                            .dwattr $C$DW$74, DW_AT_location[DW_OP_regx 0x5a]
    1972                    
    1973                    $C$DW$75        .dwtag  DW_TAG_TI_assign_register
    1974                            .dwattr $C$DW$75, DW_AT_name("D13_hi")
    1975                            .dwattr $C$DW$75, DW_AT_location[DW_OP_regx 0x5b]
    1976                    
    1977                    $C$DW$76        .dwtag  DW_TAG_TI_assign_register
TI ARM Assembler Unix v18.1.1 Fri Jul  3 20:08:24 2020

Tools Copyright (c) 1996-2017 Texas Instruments Incorporated
fpu.asm                                                              PAGE   37

    1978                            .dwattr $C$DW$76, DW_AT_name("D14")
    1979                            .dwattr $C$DW$76, DW_AT_location[DW_OP_regx 0x5c]
    1980                    
    1981                    $C$DW$77        .dwtag  DW_TAG_TI_assign_register
    1982                            .dwattr $C$DW$77, DW_AT_name("D14_hi")
    1983                            .dwattr $C$DW$77, DW_AT_location[DW_OP_regx 0x5d]
    1984                    
    1985                    $C$DW$78        .dwtag  DW_TAG_TI_assign_register
    1986                            .dwattr $C$DW$78, DW_AT_name("D15")
    1987                            .dwattr $C$DW$78, DW_AT_location[DW_OP_regx 0x5e]
    1988                    
    1989                    $C$DW$79        .dwtag  DW_TAG_TI_assign_register
    1990                            .dwattr $C$DW$79, DW_AT_name("D15_hi")
    1991                            .dwattr $C$DW$79, DW_AT_location[DW_OP_regx 0x5f]
    1992                    
    1993                    $C$DW$80        .dwtag  DW_TAG_TI_assign_register
    1994                            .dwattr $C$DW$80, DW_AT_name("FPEXC")
    1995                            .dwattr $C$DW$80, DW_AT_location[DW_OP_reg18]
    1996                    
    1997                    $C$DW$81        .dwtag  DW_TAG_TI_assign_register
    1998                            .dwattr $C$DW$81, DW_AT_name("FPSCR")
    1999                            .dwattr $C$DW$81, DW_AT_location[DW_OP_reg19]
    2000                    
    2001                            .dwendtag $C$DW$CU
    2002                    

--------------------------
Thumb2 Statistics
--------------------------
Number of Thumb2 ins converted to Thumb = 0 (0%)
Number of Thumb ins in input = 75 (83%)
Number of Thumb2 ins encoded as Thumb2 = 15 (100%)
Number of Thumb2 ins converted to 2 OPND Thumb = 8


No Assembly Errors, No Assembly Warnings
