TI ARM Assembler Unix v18.1.1 Fri Jul  3 20:08:24 2020

Tools Copyright (c) 1996-2017 Texas Instruments Incorporated
hibernate.asm                                                        PAGE    1

       1                    ;******************************************************************************
       2                    ;* TI ARM C/C++ Codegen                                      Unix v18.1.1.LTS *
       3                    ;* Date/Time created: Fri Jul  3 20:08:24 2020                                *
       4                    ;******************************************************************************
       5                            .compiler_opts --abi=eabi --arm_vmrs_si_workaround=off --code_state=16 --diag_wrap=off --embed
       6 00000000                   .thumb
       7                    
       8                    $C$DW$CU        .dwtag  DW_TAG_compile_unit
       9                            .dwattr $C$DW$CU, DW_AT_name("../driverlib/hibernate.c")
      10                            .dwattr $C$DW$CU, DW_AT_producer("TI TI ARM C/C++ Codegen Unix v18.1.1.LTS Copyright (c) 1996-
      11                            .dwattr $C$DW$CU, DW_AT_TI_version(0x01)
      12                            .dwattr $C$DW$CU, DW_AT_comp_dir("/home/pola/workspace_v8/Microwave/Debug")
      13                    
      14                    $C$DW$1 .dwtag  DW_TAG_subprogram
      15                            .dwattr $C$DW$1, DW_AT_name("IntRegister")
      16                            .dwattr $C$DW$1, DW_AT_TI_symbol_name("IntRegister")
      17                            .dwattr $C$DW$1, DW_AT_declaration
      18                            .dwattr $C$DW$1, DW_AT_external
      19                            .dwattr $C$DW$1, DW_AT_decl_file("/home/pola/workspace_v8/Microwave/driverlib/interrupt.h")
      20                            .dwattr $C$DW$1, DW_AT_decl_line(0x45)
      21                            .dwattr $C$DW$1, DW_AT_decl_column(0x0d)
      22                    $C$DW$2 .dwtag  DW_TAG_formal_parameter
      23                            .dwattr $C$DW$2, DW_AT_type(*$C$DW$T$33)
      24                    
      25                    $C$DW$3 .dwtag  DW_TAG_formal_parameter
      26                            .dwattr $C$DW$3, DW_AT_type(*$C$DW$T$31)
      27                    
      28                            .dwendtag $C$DW$1
      29                    
      30                    
      31                    $C$DW$4 .dwtag  DW_TAG_subprogram
      32                            .dwattr $C$DW$4, DW_AT_name("IntEnable")
      33                            .dwattr $C$DW$4, DW_AT_TI_symbol_name("IntEnable")
      34                            .dwattr $C$DW$4, DW_AT_declaration
      35                            .dwattr $C$DW$4, DW_AT_external
      36                            .dwattr $C$DW$4, DW_AT_decl_file("/home/pola/workspace_v8/Microwave/driverlib/interrupt.h")
      37                            .dwattr $C$DW$4, DW_AT_decl_line(0x4c)
      38                            .dwattr $C$DW$4, DW_AT_decl_column(0x0d)
      39                    $C$DW$5 .dwtag  DW_TAG_formal_parameter
      40                            .dwattr $C$DW$5, DW_AT_type(*$C$DW$T$33)
      41                    
      42                            .dwendtag $C$DW$4
      43                    
      44                    
      45                    $C$DW$6 .dwtag  DW_TAG_subprogram
      46                            .dwattr $C$DW$6, DW_AT_name("IntDisable")
      47                            .dwattr $C$DW$6, DW_AT_TI_symbol_name("IntDisable")
      48                            .dwattr $C$DW$6, DW_AT_declaration
      49                            .dwattr $C$DW$6, DW_AT_external
      50                            .dwattr $C$DW$6, DW_AT_decl_file("/home/pola/workspace_v8/Microwave/driverlib/interrupt.h")
      51                            .dwattr $C$DW$6, DW_AT_decl_line(0x4d)
      52                            .dwattr $C$DW$6, DW_AT_decl_column(0x0d)
      53                    $C$DW$7 .dwtag  DW_TAG_formal_parameter
      54                            .dwattr $C$DW$7, DW_AT_type(*$C$DW$T$33)
      55                    
TI ARM Assembler Unix v18.1.1 Fri Jul  3 20:08:24 2020

Tools Copyright (c) 1996-2017 Texas Instruments Incorporated
hibernate.asm                                                        PAGE    2

      56                            .dwendtag $C$DW$6
      57                    
      58                    
      59                    $C$DW$8 .dwtag  DW_TAG_subprogram
      60                            .dwattr $C$DW$8, DW_AT_name("IntUnregister")
      61                            .dwattr $C$DW$8, DW_AT_TI_symbol_name("IntUnregister")
      62                            .dwattr $C$DW$8, DW_AT_declaration
      63                            .dwattr $C$DW$8, DW_AT_external
      64                            .dwattr $C$DW$8, DW_AT_decl_file("/home/pola/workspace_v8/Microwave/driverlib/interrupt.h")
      65                            .dwattr $C$DW$8, DW_AT_decl_line(0x46)
      66                            .dwattr $C$DW$8, DW_AT_decl_column(0x0d)
      67                    $C$DW$9 .dwtag  DW_TAG_formal_parameter
      68                            .dwattr $C$DW$9, DW_AT_type(*$C$DW$T$33)
      69                    
      70                            .dwendtag $C$DW$8
      71                    
      72                    ;       /home/pola/ti/ccsv8/tools/compiler/ti-cgt-arm_18.1.1.LTS/bin/armacpia -@/tmp/TI3PVncZQBr 
      73 00000000                   .sect   ".text"
      74                            .clink
      75                            .thumbfunc _HibernateWriteComplete
      76 00000000                   .thumb
      77                    
      78                    $C$DW$10        .dwtag  DW_TAG_subprogram
      79                            .dwattr $C$DW$10, DW_AT_name("_HibernateWriteComplete")
      80                            .dwattr $C$DW$10, DW_AT_low_pc(_HibernateWriteComplete)
      81                            .dwattr $C$DW$10, DW_AT_high_pc(0x00)
      82                            .dwattr $C$DW$10, DW_AT_TI_symbol_name("_HibernateWriteComplete")
      83                            .dwattr $C$DW$10, DW_AT_TI_begin_file("../driverlib/hibernate.c")
      84                            .dwattr $C$DW$10, DW_AT_TI_begin_line(0x6b)
      85                            .dwattr $C$DW$10, DW_AT_TI_begin_column(0x01)
      86                            .dwattr $C$DW$10, DW_AT_decl_file("../driverlib/hibernate.c")
      87                            .dwattr $C$DW$10, DW_AT_decl_line(0x6b)
      88                            .dwattr $C$DW$10, DW_AT_decl_column(0x01)
      89                            .dwattr $C$DW$10, DW_AT_TI_max_frame_size(0x00)
      90                            .dwpsn  file "../driverlib/hibernate.c",line 108,column 1,is_stmt,address _HibernateWriteCompl
      91                    
      92                            .dwfde $C$DW$CIE, _HibernateWriteComplete
      93                    ;----------------------------------------------------------------------
      94                    ; 107 | _HibernateWriteComplete(void)                                          
      95                    ; 109 | //                                                                     
      96                    ; 110 | // Spin until the write complete bit is set.                           
      97                    ; 111 | //                                                                     
      98                    ;----------------------------------------------------------------------
      99                    
     100                    ;*****************************************************************************
     101                    ;* FUNCTION NAME: _HibernateWriteComplete                                    *
     102                    ;*                                                                           *
     103                    ;*   Regs Modified     : A1,SR                                               *
     104                    ;*   Regs Used         : A1,LR,SR                                            *
     105                    ;*   Local Frame Size  : 0 Args + 0 Auto + 0 Save = 0 byte                   *
     106                    ;*****************************************************************************
     107 00000000           _HibernateWriteComplete:
     108                    ;* --------------------------------------------------------------------------*
     109                            .dwcfi  cfa_offset, 0
     110                            .dwpsn  file "../driverlib/hibernate.c",line 112,column 5,is_stmt,isa 1
TI ARM Assembler Unix v18.1.1 Fri Jul  3 20:08:24 2020

Tools Copyright (c) 1996-2017 Texas Instruments Incorporated
hibernate.asm                                                        PAGE    3

     111                    ;----------------------------------------------------------------------
     112                    ; 112 | while(!(HWREG(HIB_CTL) & HIB_CTL_WRC))                                 
     113                    ;----------------------------------------------------------------------
     114                    ;* --------------------------------------------------------------------------*
     115                    ;*   BEGIN LOOP ||$C$L1||
     116                    ;*
     117                    ;*   Loop source line                : 112
     118                    ;*   Loop closing brace source line  : 114
     119                    ;*   Known Minimum Trip Count        : 1
     120                    ;*   Known Maximum Trip Count        : 4294967295
     121                    ;*   Known Max Trip Count Factor     : 1
     122                    ;* --------------------------------------------------------------------------*
     123 00000000           ||$C$L1||:    
     124                            .dwpsn  file "../driverlib/hibernate.c",line 112,column 11,is_stmt,isa 1
     125 00000000 48BC              LDR       A1, $C$CON1           ; [DPU_V7M3_PIPE] |112|  ; [ORIG 16-BIT INS]
     126 00000002 6800              LDR       A1, [A1, #0]          ; [DPU_V7M3_PIPE] |112|  ; [ORIG 16-BIT INS]
     127 00000004 0800              LSRS      A1, A1, #32           ; [DPU_V7M3_PIPE] |112|  ; [ORIG 16-BIT INS]
     128 00000006 D3FB              BCC       ||$C$L1||             ; [DPU_V7M3_PIPE] |112|  ; [ORIG 16-BIT INS]
     129                            ; BRANCHCC OCCURS {||$C$L1||}    ; [] |112| 
     130                    ;* --------------------------------------------------------------------------*
     131                            .dwpsn  file "../driverlib/hibernate.c",line 115,column 1,is_stmt,isa 1
     132                    $C$DW$11        .dwtag  DW_TAG_TI_branch
     133                            .dwattr $C$DW$11, DW_AT_low_pc(0x00)
     134                            .dwattr $C$DW$11, DW_AT_TI_return
     135                    
     136 00000008 4770              BX        LR                    ; [DPU_V7M3_PIPE]  ; [ORIG 16-BIT INS]
     137                            ; BRANCH OCCURS                  ; [] 
     138                            .dwattr $C$DW$10, DW_AT_TI_end_file("../driverlib/hibernate.c")
     139                            .dwattr $C$DW$10, DW_AT_TI_end_line(0x73)
     140                            .dwattr $C$DW$10, DW_AT_TI_end_column(0x01)
     141                            .dwendentry
     142                            .dwendtag $C$DW$10
     143                    
     144 0000000a                   .sect   ".text"
     145                            .clink
     146                            .thumbfunc HibernateEnableExpClk
     147 0000000a                   .thumb
     148                            .global HibernateEnableExpClk
     149                    
     150                    $C$DW$12        .dwtag  DW_TAG_subprogram
     151                            .dwattr $C$DW$12, DW_AT_name("HibernateEnableExpClk")
     152                            .dwattr $C$DW$12, DW_AT_low_pc(HibernateEnableExpClk)
     153                            .dwattr $C$DW$12, DW_AT_high_pc(0x00)
     154                            .dwattr $C$DW$12, DW_AT_TI_symbol_name("HibernateEnableExpClk")
     155                            .dwattr $C$DW$12, DW_AT_external
     156                            .dwattr $C$DW$12, DW_AT_TI_begin_file("../driverlib/hibernate.c")
     157                            .dwattr $C$DW$12, DW_AT_TI_begin_line(0x8a)
     158                            .dwattr $C$DW$12, DW_AT_TI_begin_column(0x01)
     159                            .dwattr $C$DW$12, DW_AT_decl_file("../driverlib/hibernate.c")
     160                            .dwattr $C$DW$12, DW_AT_decl_line(0x8a)
     161                            .dwattr $C$DW$12, DW_AT_decl_column(0x01)
     162                            .dwattr $C$DW$12, DW_AT_TI_max_frame_size(0x08)
     163                            .dwpsn  file "../driverlib/hibernate.c",line 139,column 1,is_stmt,address HibernateEnableExpCl
     164                    
     165                            .dwfde $C$DW$CIE, HibernateEnableExpClk
TI ARM Assembler Unix v18.1.1 Fri Jul  3 20:08:24 2020

Tools Copyright (c) 1996-2017 Texas Instruments Incorporated
hibernate.asm                                                        PAGE    4

     166                    $C$DW$13        .dwtag  DW_TAG_formal_parameter
     167                            .dwattr $C$DW$13, DW_AT_name("ui32HibClk")
     168                            .dwattr $C$DW$13, DW_AT_TI_symbol_name("ui32HibClk")
     169                            .dwattr $C$DW$13, DW_AT_type(*$C$DW$T$33)
     170                            .dwattr $C$DW$13, DW_AT_location[DW_OP_reg0]
     171                    
     172                    ;----------------------------------------------------------------------
     173                    ; 138 | HibernateEnableExpClk(uint32_t ui32HibClk)                             
     174                    ;----------------------------------------------------------------------
     175                    
     176                    ;*****************************************************************************
     177                    ;* FUNCTION NAME: HibernateEnableExpClk                                      *
     178                    ;*                                                                           *
     179                    ;*   Regs Modified     : A1,A2,A4,SP,LR,SR,FPEXC,FPSCR                       *
     180                    ;*   Regs Used         : A1,A2,A4,SP,LR,SR,FPEXC,FPSCR                       *
     181                    ;*   Local Frame Size  : 0 Args + 4 Auto + 4 Save = 8 byte                   *
     182                    ;*****************************************************************************
     183 0000000a           HibernateEnableExpClk:
     184                    ;* --------------------------------------------------------------------------*
     185                            .dwcfi  cfa_offset, 0
     186 0000000a B508              PUSH      {A4, LR}              ; [DPU_V7M3_PIPE]  ; [ORIG 16-BIT INS]
     187                            .dwcfi  cfa_offset, 8
     188                            .dwcfi  save_reg_to_mem, 14, -4
     189                            .dwcfi  save_reg_to_mem, 3, -8
     190                    $C$DW$14        .dwtag  DW_TAG_variable
     191                            .dwattr $C$DW$14, DW_AT_name("ui32HibClk")
     192                            .dwattr $C$DW$14, DW_AT_TI_symbol_name("ui32HibClk")
     193                            .dwattr $C$DW$14, DW_AT_type(*$C$DW$T$33)
     194                            .dwattr $C$DW$14, DW_AT_location[DW_OP_breg13 0]
     195                    
     196                    ;----------------------------------------------------------------------
     197                    ; 140 | //                                                                     
     198                    ; 141 | // Turn on the clock enable bit.                                       
     199                    ; 142 | //                                                                     
     200                    ;----------------------------------------------------------------------
     201 0000000c 9000              STR       A1, [SP, #0]          ; [DPU_V7M3_PIPE] |139|  ; [ORIG 16-BIT INS]
     202                            .dwpsn  file "../driverlib/hibernate.c",line 143,column 5,is_stmt,isa 1
     203                    ;----------------------------------------------------------------------
     204                    ; 143 | HWREG(HIB_CTL) |= HIB_CTL_CLK32EN;                                     
     205                    ; 145 | //                                                                     
     206                    ; 146 | // Wait for write complete following register load (above).            
     207                    ; 147 | //                                                                     
     208                    ;----------------------------------------------------------------------
     209 0000000e 49B9              LDR       A2, $C$CON1           ; [DPU_V7M3_PIPE] |143|  ; [ORIG 16-BIT INS]
     210 00000010 6808              LDR       A1, [A2, #0]          ; [DPU_V7M3_PIPE] |143|  ; [ORIG 16-BIT INS]
     211 00000012 0040F040          ORR       A1, A1, #64           ; [DPU_V7M3_PIPE] |143|  ; [KEEP 32-BIT INS]
     212 00000016 6008              STR       A1, [A2, #0]          ; [DPU_V7M3_PIPE] |143|  ; [ORIG 16-BIT INS]
     213                            .dwpsn  file "../driverlib/hibernate.c",line 148,column 5,is_stmt,isa 1
     214                    ;----------------------------------------------------------------------
     215                    ; 148 | _HibernateWriteComplete();                                             
     216                    ;----------------------------------------------------------------------
     217                    $C$DW$15        .dwtag  DW_TAG_TI_branch
     218                            .dwattr $C$DW$15, DW_AT_low_pc(0x00)
     219                            .dwattr $C$DW$15, DW_AT_name("_HibernateWriteComplete")
     220                            .dwattr $C$DW$15, DW_AT_TI_call
TI ARM Assembler Unix v18.1.1 Fri Jul  3 20:08:24 2020

Tools Copyright (c) 1996-2017 Texas Instruments Incorporated
hibernate.asm                                                        PAGE    5

     221                    
     222 00000018 FFFEF7FF!         BL        _HibernateWriteComplete ; [DPU_V7M3_PIPE] |148|  ; [KEEP 32-BIT INS]
     223                            ; CALL OCCURS {_HibernateWriteComplete }  ; [] |148| 
     224                            .dwpsn  file "../driverlib/hibernate.c",line 149,column 1,is_stmt,isa 1
     225                    $C$DW$16        .dwtag  DW_TAG_TI_branch
     226                            .dwattr $C$DW$16, DW_AT_low_pc(0x00)
     227                            .dwattr $C$DW$16, DW_AT_TI_return
     228                    
     229 0000001c BD08              POP       {A4, PC}              ; [DPU_V7M3_PIPE]  ; [ORIG 16-BIT INS]
     230                            .dwcfi  cfa_offset, 0
     231                            .dwcfi  restore_reg, 3
     232                            ; BRANCH OCCURS                  ; [] 
     233                            .dwattr $C$DW$12, DW_AT_TI_end_file("../driverlib/hibernate.c")
     234                            .dwattr $C$DW$12, DW_AT_TI_end_line(0x95)
     235                            .dwattr $C$DW$12, DW_AT_TI_end_column(0x01)
     236                            .dwendentry
     237                            .dwendtag $C$DW$12
     238                    
     239 0000001e                   .sect   ".text"
     240                            .clink
     241                            .thumbfunc HibernateDisable
     242 0000001e                   .thumb
     243                            .global HibernateDisable
     244                    
     245                    $C$DW$17        .dwtag  DW_TAG_subprogram
     246                            .dwattr $C$DW$17, DW_AT_name("HibernateDisable")
     247                            .dwattr $C$DW$17, DW_AT_low_pc(HibernateDisable)
     248                            .dwattr $C$DW$17, DW_AT_high_pc(0x00)
     249                            .dwattr $C$DW$17, DW_AT_TI_symbol_name("HibernateDisable")
     250                            .dwattr $C$DW$17, DW_AT_external
     251                            .dwattr $C$DW$17, DW_AT_TI_begin_file("../driverlib/hibernate.c")
     252                            .dwattr $C$DW$17, DW_AT_TI_begin_line(0xa2)
     253                            .dwattr $C$DW$17, DW_AT_TI_begin_column(0x01)
     254                            .dwattr $C$DW$17, DW_AT_decl_file("../driverlib/hibernate.c")
     255                            .dwattr $C$DW$17, DW_AT_decl_line(0xa2)
     256                            .dwattr $C$DW$17, DW_AT_decl_column(0x01)
     257                            .dwattr $C$DW$17, DW_AT_TI_max_frame_size(0x08)
     258                            .dwpsn  file "../driverlib/hibernate.c",line 163,column 1,is_stmt,address HibernateDisable,isa
     259                    
     260                            .dwfde $C$DW$CIE, HibernateDisable
     261                    ;----------------------------------------------------------------------
     262                    ; 162 | HibernateDisable(void)                                                 
     263                    ; 164 | //                                                                     
     264                    ; 165 | // Turn off the clock enable bit.                                      
     265                    ; 166 | //                                                                     
     266                    ;----------------------------------------------------------------------
     267                    
     268                    ;*****************************************************************************
     269                    ;* FUNCTION NAME: HibernateDisable                                           *
     270                    ;*                                                                           *
     271                    ;*   Regs Modified     : A1,A2,A4,SP,LR,SR,FPEXC,FPSCR                       *
     272                    ;*   Regs Used         : A1,A2,A4,SP,LR,SR,FPEXC,FPSCR                       *
     273                    ;*   Local Frame Size  : 0 Args + 0 Auto + 4 Save = 4 byte                   *
     274                    ;*****************************************************************************
     275 0000001e           HibernateDisable:
TI ARM Assembler Unix v18.1.1 Fri Jul  3 20:08:24 2020

Tools Copyright (c) 1996-2017 Texas Instruments Incorporated
hibernate.asm                                                        PAGE    6

     276                    ;* --------------------------------------------------------------------------*
     277                            .dwcfi  cfa_offset, 0
     278 0000001e B508              PUSH      {A4, LR}              ; [DPU_V7M3_PIPE]  ; [ORIG 16-BIT INS]
     279                            .dwcfi  cfa_offset, 8
     280                            .dwcfi  save_reg_to_mem, 14, -4
     281                            .dwcfi  save_reg_to_mem, 3, -8
     282                            .dwpsn  file "../driverlib/hibernate.c",line 167,column 5,is_stmt,isa 1
     283                    ;----------------------------------------------------------------------
     284                    ; 167 | HWREG(HIB_CTL) &= ~HIB_CTL_CLK32EN;                                    
     285                    ; 169 | //                                                                     
     286                    ; 170 | // Wait for write completion                                           
     287                    ; 171 | //                                                                     
     288                    ;----------------------------------------------------------------------
     289 00000020 49B4              LDR       A2, $C$CON1           ; [DPU_V7M3_PIPE] |167|  ; [ORIG 16-BIT INS]
     290 00000022 6808              LDR       A1, [A2, #0]          ; [DPU_V7M3_PIPE] |167|  ; [ORIG 16-BIT INS]
     291 00000024 0040F020          BIC       A1, A1, #64           ; [DPU_V7M3_PIPE] |167|  ; [KEEP 32-BIT INS]
     292 00000028 6008              STR       A1, [A2, #0]          ; [DPU_V7M3_PIPE] |167|  ; [ORIG 16-BIT INS]
     293                            .dwpsn  file "../driverlib/hibernate.c",line 172,column 5,is_stmt,isa 1
     294                    ;----------------------------------------------------------------------
     295                    ; 172 | _HibernateWriteComplete();                                             
     296                    ;----------------------------------------------------------------------
     297                    $C$DW$18        .dwtag  DW_TAG_TI_branch
     298                            .dwattr $C$DW$18, DW_AT_low_pc(0x00)
     299                            .dwattr $C$DW$18, DW_AT_name("_HibernateWriteComplete")
     300                            .dwattr $C$DW$18, DW_AT_TI_call
     301                    
     302 0000002a FFFEF7FF!         BL        _HibernateWriteComplete ; [DPU_V7M3_PIPE] |172|  ; [KEEP 32-BIT INS]
     303                            ; CALL OCCURS {_HibernateWriteComplete }  ; [] |172| 
     304                            .dwpsn  file "../driverlib/hibernate.c",line 173,column 1,is_stmt,isa 1
     305                    $C$DW$19        .dwtag  DW_TAG_TI_branch
     306                            .dwattr $C$DW$19, DW_AT_low_pc(0x00)
     307                            .dwattr $C$DW$19, DW_AT_TI_return
     308                    
     309 0000002e BD08              POP       {A4, PC}              ; [DPU_V7M3_PIPE]  ; [ORIG 16-BIT INS]
     310                            .dwcfi  cfa_offset, 0
     311                            .dwcfi  restore_reg, 3
     312                            ; BRANCH OCCURS                  ; [] 
     313                            .dwattr $C$DW$17, DW_AT_TI_end_file("../driverlib/hibernate.c")
     314                            .dwattr $C$DW$17, DW_AT_TI_end_line(0xad)
     315                            .dwattr $C$DW$17, DW_AT_TI_end_column(0x01)
     316                            .dwendentry
     317                            .dwendtag $C$DW$17
     318                    
     319 00000030                   .sect   ".text"
     320                            .clink
     321                            .thumbfunc HibernateClockConfig
     322 00000030                   .thumb
     323                            .global HibernateClockConfig
     324                    
     325                    $C$DW$20        .dwtag  DW_TAG_subprogram
     326                            .dwattr $C$DW$20, DW_AT_name("HibernateClockConfig")
     327                            .dwattr $C$DW$20, DW_AT_low_pc(HibernateClockConfig)
     328                            .dwattr $C$DW$20, DW_AT_high_pc(0x00)
     329                            .dwattr $C$DW$20, DW_AT_TI_symbol_name("HibernateClockConfig")
     330                            .dwattr $C$DW$20, DW_AT_external
TI ARM Assembler Unix v18.1.1 Fri Jul  3 20:08:24 2020

Tools Copyright (c) 1996-2017 Texas Instruments Incorporated
hibernate.asm                                                        PAGE    7

     331                            .dwattr $C$DW$20, DW_AT_TI_begin_file("../driverlib/hibernate.c")
     332                            .dwattr $C$DW$20, DW_AT_TI_begin_line(0xe3)
     333                            .dwattr $C$DW$20, DW_AT_TI_begin_column(0x01)
     334                            .dwattr $C$DW$20, DW_AT_decl_file("../driverlib/hibernate.c")
     335                            .dwattr $C$DW$20, DW_AT_decl_line(0xe3)
     336                            .dwattr $C$DW$20, DW_AT_decl_column(0x01)
     337                            .dwattr $C$DW$20, DW_AT_TI_max_frame_size(0x10)
     338                            .dwpsn  file "../driverlib/hibernate.c",line 228,column 1,is_stmt,address HibernateClockConfig
     339                    
     340                            .dwfde $C$DW$CIE, HibernateClockConfig
     341                    $C$DW$21        .dwtag  DW_TAG_formal_parameter
     342                            .dwattr $C$DW$21, DW_AT_name("ui32Config")
     343                            .dwattr $C$DW$21, DW_AT_TI_symbol_name("ui32Config")
     344                            .dwattr $C$DW$21, DW_AT_type(*$C$DW$T$33)
     345                            .dwattr $C$DW$21, DW_AT_location[DW_OP_reg0]
     346                    
     347                    ;----------------------------------------------------------------------
     348                    ; 227 | HibernateClockConfig(uint32_t ui32Config)                              
     349                    ;----------------------------------------------------------------------
     350                    
     351                    ;*****************************************************************************
     352                    ;* FUNCTION NAME: HibernateClockConfig                                       *
     353                    ;*                                                                           *
     354                    ;*   Regs Modified     : A1,A2,A3,A4,SP,LR,SR,FPEXC,FPSCR                    *
     355                    ;*   Regs Used         : A1,A2,A3,A4,SP,LR,SR,FPEXC,FPSCR                    *
     356                    ;*   Local Frame Size  : 0 Args + 8 Auto + 4 Save = 12 byte                  *
     357                    ;*****************************************************************************
     358 00000030           HibernateClockConfig:
     359                    ;* --------------------------------------------------------------------------*
     360                            .dwcfi  cfa_offset, 0
     361 00000030 B50E              PUSH      {A2, A3, A4, LR}      ; [DPU_V7M3_PIPE]  ; [ORIG 16-BIT INS]
     362                            .dwcfi  cfa_offset, 16
     363                            .dwcfi  save_reg_to_mem, 14, -4
     364                            .dwcfi  save_reg_to_mem, 3, -8
     365                            .dwcfi  save_reg_to_mem, 2, -12
     366                            .dwcfi  save_reg_to_mem, 1, -16
     367                    $C$DW$22        .dwtag  DW_TAG_variable
     368                            .dwattr $C$DW$22, DW_AT_name("ui32Config")
     369                            .dwattr $C$DW$22, DW_AT_TI_symbol_name("ui32Config")
     370                            .dwattr $C$DW$22, DW_AT_type(*$C$DW$T$33)
     371                            .dwattr $C$DW$22, DW_AT_location[DW_OP_breg13 0]
     372                    
     373                    $C$DW$23        .dwtag  DW_TAG_variable
     374                            .dwattr $C$DW$23, DW_AT_name("ui32HIBCtl")
     375                            .dwattr $C$DW$23, DW_AT_TI_symbol_name("ui32HIBCtl")
     376                            .dwattr $C$DW$23, DW_AT_type(*$C$DW$T$33)
     377                            .dwattr $C$DW$23, DW_AT_location[DW_OP_breg13 4]
     378                    
     379                    ;----------------------------------------------------------------------
     380                    ; 229 | uint32_t ui32HIBCtl;                                                   
     381                    ; 231 | ASSERT((ui32Config & ~(HIBERNATE_OSC_HIGHDRIVE | HIBERNATE_OSC_LOWDRIVE
     382                    ;     |  |                                                                     
     383                    ; 232 |                        HIBERNATE_OSC_DISABLE)) == 0);                  
     384                    ;----------------------------------------------------------------------
     385 00000032 9000              STR       A1, [SP, #0]          ; [DPU_V7M3_PIPE] |228|  ; [ORIG 16-BIT INS]
TI ARM Assembler Unix v18.1.1 Fri Jul  3 20:08:24 2020

Tools Copyright (c) 1996-2017 Texas Instruments Incorporated
hibernate.asm                                                        PAGE    8

     386                            .dwpsn  file "../driverlib/hibernate.c",line 234,column 5,is_stmt,isa 1
     387                    ;----------------------------------------------------------------------
     388                    ; 234 | ui32HIBCtl = HWREG(HIB_CTL);                                           
     389                    ; 236 | //                                                                     
     390                    ; 237 | // Clear the current configuration bits.                               
     391                    ; 238 | //                                                                     
     392                    ;----------------------------------------------------------------------
     393 00000034 48AF              LDR       A1, $C$CON1           ; [DPU_V7M3_PIPE] |234|  ; [ORIG 16-BIT INS]
     394 00000036 6800              LDR       A1, [A1, #0]          ; [DPU_V7M3_PIPE] |234|  ; [ORIG 16-BIT INS]
     395 00000038 9001              STR       A1, [SP, #4]          ; [DPU_V7M3_PIPE] |234|  ; [ORIG 16-BIT INS]
     396                            .dwpsn  file "../driverlib/hibernate.c",line 239,column 5,is_stmt,isa 1
     397                    ;----------------------------------------------------------------------
     398                    ; 239 | ui32HIBCtl &= ~(HIBERNATE_OSC_HIGHDRIVE | HIBERNATE_OSC_LOWDRIVE |     
     399                    ; 240 |                 HIBERNATE_OSC_LFIOSC | HIBERNATE_OSC_DISABLE);         
     400                    ; 242 | //                                                                     
     401                    ; 243 | // Set the new configuration bits.                                     
     402                    ; 244 | //                                                                     
     403                    ;----------------------------------------------------------------------
     404 0000003a 9801              LDR       A1, [SP, #4]          ; [DPU_V7M3_PIPE] |239|  ; [ORIG 16-BIT INS]
     405 0000003c 2030F420          BIC       A1, A1, #720896       ; [DPU_V7M3_PIPE] |239|  ; [KEEP 32-BIT INS]
     406 00000040 9001              STR       A1, [SP, #4]          ; [DPU_V7M3_PIPE] |239|  ; [ORIG 16-BIT INS]
     407                            .dwpsn  file "../driverlib/hibernate.c",line 245,column 5,is_stmt,isa 1
     408                    ;----------------------------------------------------------------------
     409                    ; 245 | ui32HIBCtl |= ui32Config & (HIBERNATE_OSC_HIGHDRIVE |                  
     410                    ; 246 |                             HIBERNATE_OSC_LOWDRIVE |                   
     411                    ; 247 |                             HIBERNATE_OSC_LFIOSC |                     
     412                    ; 248 |                             HIBERNATE_OSC_DISABLE);                    
     413                    ; 250 | //                                                                     
     414                    ; 251 | // Must be sure that the 32KHz clock is enabled if the hibernate is abo
     415                    ;     | ut                                                                     
     416                    ; 252 | // to switch to it.                                                    
     417                    ; 253 | //                                                                     
     418                    ;----------------------------------------------------------------------
     419 00000042 9800              LDR       A1, [SP, #0]          ; [DPU_V7M3_PIPE] |245|  ; [ORIG 16-BIT INS]
     420 00000044 9901              LDR       A2, [SP, #4]          ; [DPU_V7M3_PIPE] |245|  ; [ORIG 16-BIT INS]
     421 00000046 2030F400          AND       A1, A1, #720896       ; [DPU_V7M3_PIPE] |245|  ; [KEEP 32-BIT INS]
     422 0000004a 4308              ORRS      A1, A1, A2            ; [DPU_V7M3_PIPE] |245|  ; [ORIG 16-BIT INS]
     423 0000004c 9001              STR       A1, [SP, #4]          ; [DPU_V7M3_PIPE] |245|  ; [ORIG 16-BIT INS]
     424                            .dwpsn  file "../driverlib/hibernate.c",line 254,column 5,is_stmt,isa 1
     425                    ;----------------------------------------------------------------------
     426                    ; 254 | if(ui32Config & HIBERNATE_OSC_LFIOSC)                                  
     427                    ;----------------------------------------------------------------------
     428 0000004e 9800              LDR       A1, [SP, #0]          ; [DPU_V7M3_PIPE] |254|  ; [ORIG 16-BIT INS]
     429 00000050 0D00              LSRS      A1, A1, #20           ; [DPU_V7M3_PIPE] |254|  ; [ORIG 16-BIT INS]
     430 00000052 D303              BCC       ||$C$L2||             ; [DPU_V7M3_PIPE] |254|  ; [ORIG 16-BIT INS]
     431                            ; BRANCHCC OCCURS {||$C$L2||}    ; [] |254| 
     432                    ;* --------------------------------------------------------------------------*
     433                            .dwpsn  file "../driverlib/hibernate.c",line 256,column 9,is_stmt,isa 1
     434                    ;----------------------------------------------------------------------
     435                    ; 256 | ui32HIBCtl |= HIB_CTL_CLK32EN;                                         
     436                    ; 259 | //                                                                     
     437                    ; 260 | // Set the hibernation clocking configuration.                         
     438                    ; 261 | //                                                                     
     439                    ;----------------------------------------------------------------------
     440 00000054 9801              LDR       A1, [SP, #4]          ; [DPU_V7M3_PIPE] |256|  ; [ORIG 16-BIT INS]
TI ARM Assembler Unix v18.1.1 Fri Jul  3 20:08:24 2020

Tools Copyright (c) 1996-2017 Texas Instruments Incorporated
hibernate.asm                                                        PAGE    9

     441 00000056 0040F040          ORR       A1, A1, #64           ; [DPU_V7M3_PIPE] |256|  ; [KEEP 32-BIT INS]
     442 0000005a 9001              STR       A1, [SP, #4]          ; [DPU_V7M3_PIPE] |256|  ; [ORIG 16-BIT INS]
     443                    ;* --------------------------------------------------------------------------*
     444 0000005c           ||$C$L2||:    
     445                            .dwpsn  file "../driverlib/hibernate.c",line 262,column 5,is_stmt,isa 1
     446                    ;----------------------------------------------------------------------
     447                    ; 262 | HWREG(HIB_CTL) = ui32HIBCtl;                                           
     448                    ; 264 | //                                                                     
     449                    ; 265 | // Wait for write completion                                           
     450                    ; 266 | //                                                                     
     451                    ;----------------------------------------------------------------------
     452 0000005c 9801              LDR       A1, [SP, #4]          ; [DPU_V7M3_PIPE] |262|  ; [ORIG 16-BIT INS]
     453 0000005e 49A5              LDR       A2, $C$CON1           ; [DPU_V7M3_PIPE] |262|  ; [ORIG 16-BIT INS]
     454 00000060 6008              STR       A1, [A2, #0]          ; [DPU_V7M3_PIPE] |262|  ; [ORIG 16-BIT INS]
     455                            .dwpsn  file "../driverlib/hibernate.c",line 267,column 5,is_stmt,isa 1
     456                    ;----------------------------------------------------------------------
     457                    ; 267 | _HibernateWriteComplete();                                             
     458                    ; 269 | //                                                                     
     459                    ; 270 | // Write the output clock configuration for devices that support       
     460                    ; 271 | // controlling the output clocks from the hibernate module.            
     461                    ; 272 | //                                                                     
     462                    ;----------------------------------------------------------------------
     463                    $C$DW$24        .dwtag  DW_TAG_TI_branch
     464                            .dwattr $C$DW$24, DW_AT_low_pc(0x00)
     465                            .dwattr $C$DW$24, DW_AT_name("_HibernateWriteComplete")
     466                            .dwattr $C$DW$24, DW_AT_TI_call
     467                    
     468 00000062 FFFEF7FF!         BL        _HibernateWriteComplete ; [DPU_V7M3_PIPE] |267|  ; [KEEP 32-BIT INS]
     469                            ; CALL OCCURS {_HibernateWriteComplete }  ; [] |267| 
     470                            .dwpsn  file "../driverlib/hibernate.c",line 273,column 5,is_stmt,isa 1
     471                    ;----------------------------------------------------------------------
     472                    ; 273 | if(HIBERNATE_CLOCK_OUTPUT)                                             
     473                    ;----------------------------------------------------------------------
     474 00000066 49C0              LDR       A2, $C$CON3           ; [DPU_V7M3_PIPE] |273|  ; [ORIG 16-BIT INS]
     475 00000068 48BE              LDR       A1, $C$CON2           ; [DPU_V7M3_PIPE] |273|  ; [ORIG 16-BIT INS]
     476 0000006a 680A              LDR       A3, [A2, #0]          ; [DPU_V7M3_PIPE] |273|  ; [ORIG 16-BIT INS]
     477 0000006c 49BF              LDR       A2, $C$CON4           ; [DPU_V7M3_PIPE] |273|  ; [ORIG 16-BIT INS]
     478 0000006e 4010              ANDS      A1, A1, A3            ; [DPU_V7M3_PIPE] |273|  ; [ORIG 16-BIT INS]
     479 00000070 4281              CMP       A2, A1                ; [DPU_V7M3_PIPE] |273|  ; [ORIG 16-BIT INS]
     480 00000072 D104              BNE       ||$C$L3||             ; [DPU_V7M3_PIPE] |273|  ; [ORIG 16-BIT INS]
     481                            ; BRANCHCC OCCURS {||$C$L3||}    ; [] |273| 
     482                    ;* --------------------------------------------------------------------------*
     483                            .dwpsn  file "../driverlib/hibernate.c",line 275,column 13,is_stmt,isa 1
     484                    ;----------------------------------------------------------------------
     485                    ; 275 | HWREG(HIB_CC) = ui32Config & (HIBERNATE_OUT_SYSCLK);                   
     486                    ;----------------------------------------------------------------------
     487 00000074 9800              LDR       A1, [SP, #0]          ; [DPU_V7M3_PIPE] |275|  ; [ORIG 16-BIT INS]
     488 00000076 49C3              LDR       A2, $C$CON5           ; [DPU_V7M3_PIPE] |275|  ; [ORIG 16-BIT INS]
     489 00000078 0001F000          AND       A1, A1, #1            ; [DPU_V7M3_PIPE] |275|  ; [KEEP 32-BIT INS]
     490 0000007c 6008              STR       A1, [A2, #0]          ; [DPU_V7M3_PIPE] |275|  ; [ORIG 16-BIT INS]
     491                            .dwpsn  file "../driverlib/hibernate.c",line 277,column 1,is_stmt,isa 1
     492                    ;* --------------------------------------------------------------------------*
     493                    ||$C$L3||:    
     494                    $C$DW$25        .dwtag  DW_TAG_TI_branch
     495                            .dwattr $C$DW$25, DW_AT_low_pc(0x00)
TI ARM Assembler Unix v18.1.1 Fri Jul  3 20:08:24 2020

Tools Copyright (c) 1996-2017 Texas Instruments Incorporated
hibernate.asm                                                        PAGE   10

     496                            .dwattr $C$DW$25, DW_AT_TI_return
     497                    
     498 0000007e BD0E              POP       {A2, A3, A4, PC}      ; [DPU_V7M3_PIPE]  ; [ORIG 16-BIT INS]
     499                            .dwcfi  cfa_offset, 0
     500                            .dwcfi  restore_reg, 3
     501                            .dwcfi  restore_reg, 2
     502                            .dwcfi  restore_reg, 1
     503                            ; BRANCH OCCURS                  ; [] 
     504                            .dwattr $C$DW$20, DW_AT_TI_end_file("../driverlib/hibernate.c")
     505                            .dwattr $C$DW$20, DW_AT_TI_end_line(0x115)
     506                            .dwattr $C$DW$20, DW_AT_TI_end_column(0x01)
     507                            .dwendentry
     508                            .dwendtag $C$DW$20
     509                    
     510 00000080                   .sect   ".text"
     511                            .clink
     512                            .thumbfunc HibernateRTCEnable
     513 00000080                   .thumb
     514                            .global HibernateRTCEnable
     515                    
     516                    $C$DW$26        .dwtag  DW_TAG_subprogram
     517                            .dwattr $C$DW$26, DW_AT_name("HibernateRTCEnable")
     518                            .dwattr $C$DW$26, DW_AT_low_pc(HibernateRTCEnable)
     519                            .dwattr $C$DW$26, DW_AT_high_pc(0x00)
     520                            .dwattr $C$DW$26, DW_AT_TI_symbol_name("HibernateRTCEnable")
     521                            .dwattr $C$DW$26, DW_AT_external
     522                            .dwattr $C$DW$26, DW_AT_TI_begin_file("../driverlib/hibernate.c")
     523                            .dwattr $C$DW$26, DW_AT_TI_begin_line(0x124)
     524                            .dwattr $C$DW$26, DW_AT_TI_begin_column(0x01)
     525                            .dwattr $C$DW$26, DW_AT_decl_file("../driverlib/hibernate.c")
     526                            .dwattr $C$DW$26, DW_AT_decl_line(0x124)
     527                            .dwattr $C$DW$26, DW_AT_decl_column(0x01)
     528                            .dwattr $C$DW$26, DW_AT_TI_max_frame_size(0x08)
     529                            .dwpsn  file "../driverlib/hibernate.c",line 293,column 1,is_stmt,address HibernateRTCEnable,i
     530                    
     531                            .dwfde $C$DW$CIE, HibernateRTCEnable
     532                    ;----------------------------------------------------------------------
     533                    ; 292 | HibernateRTCEnable(void)                                               
     534                    ; 294 | //                                                                     
     535                    ; 295 | // Turn on the RTC enable bit.                                         
     536                    ; 296 | //                                                                     
     537                    ;----------------------------------------------------------------------
     538                    
     539                    ;*****************************************************************************
     540                    ;* FUNCTION NAME: HibernateRTCEnable                                         *
     541                    ;*                                                                           *
     542                    ;*   Regs Modified     : A1,A2,A4,SP,LR,SR,FPEXC,FPSCR                       *
     543                    ;*   Regs Used         : A1,A2,A4,SP,LR,SR,FPEXC,FPSCR                       *
     544                    ;*   Local Frame Size  : 0 Args + 0 Auto + 4 Save = 4 byte                   *
     545                    ;*****************************************************************************
     546 00000080           HibernateRTCEnable:
     547                    ;* --------------------------------------------------------------------------*
     548                            .dwcfi  cfa_offset, 0
     549 00000080 B508              PUSH      {A4, LR}              ; [DPU_V7M3_PIPE]  ; [ORIG 16-BIT INS]
     550                            .dwcfi  cfa_offset, 8
TI ARM Assembler Unix v18.1.1 Fri Jul  3 20:08:24 2020

Tools Copyright (c) 1996-2017 Texas Instruments Incorporated
hibernate.asm                                                        PAGE   11

     551                            .dwcfi  save_reg_to_mem, 14, -4
     552                            .dwcfi  save_reg_to_mem, 3, -8
     553                            .dwpsn  file "../driverlib/hibernate.c",line 297,column 5,is_stmt,isa 1
     554                    ;----------------------------------------------------------------------
     555                    ; 297 | HWREG(HIB_CTL) |= HIB_CTL_RTCEN;                                       
     556                    ; 299 | //                                                                     
     557                    ; 300 | // Wait for write completion                                           
     558                    ; 301 | //                                                                     
     559                    ;----------------------------------------------------------------------
     560 00000082 499C              LDR       A2, $C$CON1           ; [DPU_V7M3_PIPE] |297|  ; [ORIG 16-BIT INS]
     561 00000084 6808              LDR       A1, [A2, #0]          ; [DPU_V7M3_PIPE] |297|  ; [ORIG 16-BIT INS]
     562 00000086 0001F040          ORR       A1, A1, #1            ; [DPU_V7M3_PIPE] |297|  ; [KEEP 32-BIT INS]
     563 0000008a 6008              STR       A1, [A2, #0]          ; [DPU_V7M3_PIPE] |297|  ; [ORIG 16-BIT INS]
     564                            .dwpsn  file "../driverlib/hibernate.c",line 302,column 5,is_stmt,isa 1
     565                    ;----------------------------------------------------------------------
     566                    ; 302 | _HibernateWriteComplete();                                             
     567                    ;----------------------------------------------------------------------
     568                    $C$DW$27        .dwtag  DW_TAG_TI_branch
     569                            .dwattr $C$DW$27, DW_AT_low_pc(0x00)
     570                            .dwattr $C$DW$27, DW_AT_name("_HibernateWriteComplete")
     571                            .dwattr $C$DW$27, DW_AT_TI_call
     572                    
     573 0000008c FFFEF7FF!         BL        _HibernateWriteComplete ; [DPU_V7M3_PIPE] |302|  ; [KEEP 32-BIT INS]
     574                            ; CALL OCCURS {_HibernateWriteComplete }  ; [] |302| 
     575                            .dwpsn  file "../driverlib/hibernate.c",line 303,column 1,is_stmt,isa 1
     576                    $C$DW$28        .dwtag  DW_TAG_TI_branch
     577                            .dwattr $C$DW$28, DW_AT_low_pc(0x00)
     578                            .dwattr $C$DW$28, DW_AT_TI_return
     579                    
     580 00000090 BD08              POP       {A4, PC}              ; [DPU_V7M3_PIPE]  ; [ORIG 16-BIT INS]
     581                            .dwcfi  cfa_offset, 0
     582                            .dwcfi  restore_reg, 3
     583                            ; BRANCH OCCURS                  ; [] 
     584                            .dwattr $C$DW$26, DW_AT_TI_end_file("../driverlib/hibernate.c")
     585                            .dwattr $C$DW$26, DW_AT_TI_end_line(0x12f)
     586                            .dwattr $C$DW$26, DW_AT_TI_end_column(0x01)
     587                            .dwendentry
     588                            .dwendtag $C$DW$26
     589                    
     590 00000092                   .sect   ".text"
     591                            .clink
     592                            .thumbfunc HibernateRTCDisable
     593 00000092                   .thumb
     594                            .global HibernateRTCDisable
     595                    
     596                    $C$DW$29        .dwtag  DW_TAG_subprogram
     597                            .dwattr $C$DW$29, DW_AT_name("HibernateRTCDisable")
     598                            .dwattr $C$DW$29, DW_AT_low_pc(HibernateRTCDisable)
     599                            .dwattr $C$DW$29, DW_AT_high_pc(0x00)
     600                            .dwattr $C$DW$29, DW_AT_TI_symbol_name("HibernateRTCDisable")
     601                            .dwattr $C$DW$29, DW_AT_external
     602                            .dwattr $C$DW$29, DW_AT_TI_begin_file("../driverlib/hibernate.c")
     603                            .dwattr $C$DW$29, DW_AT_TI_begin_line(0x13d)
     604                            .dwattr $C$DW$29, DW_AT_TI_begin_column(0x01)
     605                            .dwattr $C$DW$29, DW_AT_decl_file("../driverlib/hibernate.c")
TI ARM Assembler Unix v18.1.1 Fri Jul  3 20:08:24 2020

Tools Copyright (c) 1996-2017 Texas Instruments Incorporated
hibernate.asm                                                        PAGE   12

     606                            .dwattr $C$DW$29, DW_AT_decl_line(0x13d)
     607                            .dwattr $C$DW$29, DW_AT_decl_column(0x01)
     608                            .dwattr $C$DW$29, DW_AT_TI_max_frame_size(0x08)
     609                            .dwpsn  file "../driverlib/hibernate.c",line 318,column 1,is_stmt,address HibernateRTCDisable,
     610                    
     611                            .dwfde $C$DW$CIE, HibernateRTCDisable
     612                    ;----------------------------------------------------------------------
     613                    ; 317 | HibernateRTCDisable(void)                                              
     614                    ; 319 | //                                                                     
     615                    ; 320 | // Turn off the RTC enable bit.                                        
     616                    ; 321 | //                                                                     
     617                    ;----------------------------------------------------------------------
     618                    
     619                    ;*****************************************************************************
     620                    ;* FUNCTION NAME: HibernateRTCDisable                                        *
     621                    ;*                                                                           *
     622                    ;*   Regs Modified     : A1,A2,A4,SP,LR,SR,FPEXC,FPSCR                       *
     623                    ;*   Regs Used         : A1,A2,A4,SP,LR,SR,FPEXC,FPSCR                       *
     624                    ;*   Local Frame Size  : 0 Args + 0 Auto + 4 Save = 4 byte                   *
     625                    ;*****************************************************************************
     626 00000092           HibernateRTCDisable:
     627                    ;* --------------------------------------------------------------------------*
     628                            .dwcfi  cfa_offset, 0
     629 00000092 B508              PUSH      {A4, LR}              ; [DPU_V7M3_PIPE]  ; [ORIG 16-BIT INS]
     630                            .dwcfi  cfa_offset, 8
     631                            .dwcfi  save_reg_to_mem, 14, -4
     632                            .dwcfi  save_reg_to_mem, 3, -8
     633                            .dwpsn  file "../driverlib/hibernate.c",line 322,column 5,is_stmt,isa 1
     634                    ;----------------------------------------------------------------------
     635                    ; 322 | HWREG(HIB_CTL) &= ~HIB_CTL_RTCEN;                                      
     636                    ; 324 | //                                                                     
     637                    ; 325 | // Wait for write completion                                           
     638                    ; 326 | //                                                                     
     639                    ;----------------------------------------------------------------------
     640 00000094 4997              LDR       A2, $C$CON1           ; [DPU_V7M3_PIPE] |322|  ; [ORIG 16-BIT INS]
     641 00000096 6808              LDR       A1, [A2, #0]          ; [DPU_V7M3_PIPE] |322|  ; [ORIG 16-BIT INS]
     642 00000098 0001F020          BIC       A1, A1, #1            ; [DPU_V7M3_PIPE] |322|  ; [KEEP 32-BIT INS]
     643 0000009c 6008              STR       A1, [A2, #0]          ; [DPU_V7M3_PIPE] |322|  ; [ORIG 16-BIT INS]
     644                            .dwpsn  file "../driverlib/hibernate.c",line 327,column 5,is_stmt,isa 1
     645                    ;----------------------------------------------------------------------
     646                    ; 327 | _HibernateWriteComplete();                                             
     647                    ;----------------------------------------------------------------------
     648                    $C$DW$30        .dwtag  DW_TAG_TI_branch
     649                            .dwattr $C$DW$30, DW_AT_low_pc(0x00)
     650                            .dwattr $C$DW$30, DW_AT_name("_HibernateWriteComplete")
     651                            .dwattr $C$DW$30, DW_AT_TI_call
     652                    
     653 0000009e FFFEF7FF!         BL        _HibernateWriteComplete ; [DPU_V7M3_PIPE] |327|  ; [KEEP 32-BIT INS]
     654                            ; CALL OCCURS {_HibernateWriteComplete }  ; [] |327| 
     655                            .dwpsn  file "../driverlib/hibernate.c",line 328,column 1,is_stmt,isa 1
     656                    $C$DW$31        .dwtag  DW_TAG_TI_branch
     657                            .dwattr $C$DW$31, DW_AT_low_pc(0x00)
     658                            .dwattr $C$DW$31, DW_AT_TI_return
     659                    
     660 000000a2 BD08              POP       {A4, PC}              ; [DPU_V7M3_PIPE]  ; [ORIG 16-BIT INS]
TI ARM Assembler Unix v18.1.1 Fri Jul  3 20:08:24 2020

Tools Copyright (c) 1996-2017 Texas Instruments Incorporated
hibernate.asm                                                        PAGE   13

     661                            .dwcfi  cfa_offset, 0
     662                            .dwcfi  restore_reg, 3
     663                            ; BRANCH OCCURS                  ; [] 
     664                            .dwattr $C$DW$29, DW_AT_TI_end_file("../driverlib/hibernate.c")
     665                            .dwattr $C$DW$29, DW_AT_TI_end_line(0x148)
     666                            .dwattr $C$DW$29, DW_AT_TI_end_column(0x01)
     667                            .dwendentry
     668                            .dwendtag $C$DW$29
     669                    
     670 000000a4                   .sect   ".text"
     671                            .clink
     672                            .thumbfunc HibernateBatCheckStart
     673 000000a4                   .thumb
     674                            .global HibernateBatCheckStart
     675                    
     676                    $C$DW$32        .dwtag  DW_TAG_subprogram
     677                            .dwattr $C$DW$32, DW_AT_name("HibernateBatCheckStart")
     678                            .dwattr $C$DW$32, DW_AT_low_pc(HibernateBatCheckStart)
     679                            .dwattr $C$DW$32, DW_AT_high_pc(0x00)
     680                            .dwattr $C$DW$32, DW_AT_TI_symbol_name("HibernateBatCheckStart")
     681                            .dwattr $C$DW$32, DW_AT_external
     682                            .dwattr $C$DW$32, DW_AT_TI_begin_file("../driverlib/hibernate.c")
     683                            .dwattr $C$DW$32, DW_AT_TI_begin_line(0x15e)
     684                            .dwattr $C$DW$32, DW_AT_TI_begin_column(0x01)
     685                            .dwattr $C$DW$32, DW_AT_decl_file("../driverlib/hibernate.c")
     686                            .dwattr $C$DW$32, DW_AT_decl_line(0x15e)
     687                            .dwattr $C$DW$32, DW_AT_decl_column(0x01)
     688                            .dwattr $C$DW$32, DW_AT_TI_max_frame_size(0x08)
     689                            .dwpsn  file "../driverlib/hibernate.c",line 351,column 1,is_stmt,address HibernateBatCheckSta
     690                    
     691                            .dwfde $C$DW$CIE, HibernateBatCheckStart
     692                    ;----------------------------------------------------------------------
     693                    ; 350 | HibernateBatCheckStart(void)                                           
     694                    ; 352 | //                                                                     
     695                    ; 353 | // Initiated a forced battery check.                                   
     696                    ; 354 | //                                                                     
     697                    ;----------------------------------------------------------------------
     698                    
     699                    ;*****************************************************************************
     700                    ;* FUNCTION NAME: HibernateBatCheckStart                                     *
     701                    ;*                                                                           *
     702                    ;*   Regs Modified     : A1,A2,A4,SP,LR,SR,FPEXC,FPSCR                       *
     703                    ;*   Regs Used         : A1,A2,A4,SP,LR,SR,FPEXC,FPSCR                       *
     704                    ;*   Local Frame Size  : 0 Args + 0 Auto + 4 Save = 4 byte                   *
     705                    ;*****************************************************************************
     706 000000a4           HibernateBatCheckStart:
     707                    ;* --------------------------------------------------------------------------*
     708                            .dwcfi  cfa_offset, 0
     709 000000a4 B508              PUSH      {A4, LR}              ; [DPU_V7M3_PIPE]  ; [ORIG 16-BIT INS]
     710                            .dwcfi  cfa_offset, 8
     711                            .dwcfi  save_reg_to_mem, 14, -4
     712                            .dwcfi  save_reg_to_mem, 3, -8
     713                            .dwpsn  file "../driverlib/hibernate.c",line 355,column 5,is_stmt,isa 1
     714                    ;----------------------------------------------------------------------
     715                    ; 355 | HWREG(HIB_CTL) |= HIB_CTL_BATCHK;                                      
TI ARM Assembler Unix v18.1.1 Fri Jul  3 20:08:24 2020

Tools Copyright (c) 1996-2017 Texas Instruments Incorporated
hibernate.asm                                                        PAGE   14

     716                    ; 357 | //                                                                     
     717                    ; 358 | // Wait for write completion                                           
     718                    ; 359 | //                                                                     
     719                    ;----------------------------------------------------------------------
     720 000000a6 4993              LDR       A2, $C$CON1           ; [DPU_V7M3_PIPE] |355|  ; [ORIG 16-BIT INS]
     721 000000a8 6808              LDR       A1, [A2, #0]          ; [DPU_V7M3_PIPE] |355|  ; [ORIG 16-BIT INS]
     722 000000aa 6080F440          ORR       A1, A1, #1024         ; [DPU_V7M3_PIPE] |355|  ; [KEEP 32-BIT INS]
     723 000000ae 6008              STR       A1, [A2, #0]          ; [DPU_V7M3_PIPE] |355|  ; [ORIG 16-BIT INS]
     724                            .dwpsn  file "../driverlib/hibernate.c",line 360,column 5,is_stmt,isa 1
     725                    ;----------------------------------------------------------------------
     726                    ; 360 | _HibernateWriteComplete();                                             
     727                    ;----------------------------------------------------------------------
     728                    $C$DW$33        .dwtag  DW_TAG_TI_branch
     729                            .dwattr $C$DW$33, DW_AT_low_pc(0x00)
     730                            .dwattr $C$DW$33, DW_AT_name("_HibernateWriteComplete")
     731                            .dwattr $C$DW$33, DW_AT_TI_call
     732                    
     733 000000b0 FFFEF7FF!         BL        _HibernateWriteComplete ; [DPU_V7M3_PIPE] |360|  ; [KEEP 32-BIT INS]
     734                            ; CALL OCCURS {_HibernateWriteComplete }  ; [] |360| 
     735                            .dwpsn  file "../driverlib/hibernate.c",line 361,column 1,is_stmt,isa 1
     736                    $C$DW$34        .dwtag  DW_TAG_TI_branch
     737                            .dwattr $C$DW$34, DW_AT_low_pc(0x00)
     738                            .dwattr $C$DW$34, DW_AT_TI_return
     739                    
     740 000000b4 BD08              POP       {A4, PC}              ; [DPU_V7M3_PIPE]  ; [ORIG 16-BIT INS]
     741                            .dwcfi  cfa_offset, 0
     742                            .dwcfi  restore_reg, 3
     743                            ; BRANCH OCCURS                  ; [] 
     744                            .dwattr $C$DW$32, DW_AT_TI_end_file("../driverlib/hibernate.c")
     745                            .dwattr $C$DW$32, DW_AT_TI_end_line(0x169)
     746                            .dwattr $C$DW$32, DW_AT_TI_end_column(0x01)
     747                            .dwendentry
     748                            .dwendtag $C$DW$32
     749                    
     750 000000b6                   .sect   ".text"
     751                            .clink
     752                            .thumbfunc HibernateBatCheckDone
     753 000000b6                   .thumb
     754                            .global HibernateBatCheckDone
     755                    
     756                    $C$DW$35        .dwtag  DW_TAG_subprogram
     757                            .dwattr $C$DW$35, DW_AT_name("HibernateBatCheckDone")
     758                            .dwattr $C$DW$35, DW_AT_low_pc(HibernateBatCheckDone)
     759                            .dwattr $C$DW$35, DW_AT_high_pc(0x00)
     760                            .dwattr $C$DW$35, DW_AT_TI_symbol_name("HibernateBatCheckDone")
     761                            .dwattr $C$DW$35, DW_AT_external
     762                            .dwattr $C$DW$35, DW_AT_type(*$C$DW$T$33)
     763                            .dwattr $C$DW$35, DW_AT_TI_begin_file("../driverlib/hibernate.c")
     764                            .dwattr $C$DW$35, DW_AT_TI_begin_line(0x17c)
     765                            .dwattr $C$DW$35, DW_AT_TI_begin_column(0x01)
     766                            .dwattr $C$DW$35, DW_AT_decl_file("../driverlib/hibernate.c")
     767                            .dwattr $C$DW$35, DW_AT_decl_line(0x17c)
     768                            .dwattr $C$DW$35, DW_AT_decl_column(0x01)
     769                            .dwattr $C$DW$35, DW_AT_TI_max_frame_size(0x00)
     770                            .dwpsn  file "../driverlib/hibernate.c",line 381,column 1,is_stmt,address HibernateBatCheckDon
TI ARM Assembler Unix v18.1.1 Fri Jul  3 20:08:24 2020

Tools Copyright (c) 1996-2017 Texas Instruments Incorporated
hibernate.asm                                                        PAGE   15

     771                    
     772                            .dwfde $C$DW$CIE, HibernateBatCheckDone
     773                    ;----------------------------------------------------------------------
     774                    ; 380 | HibernateBatCheckDone(void)                                            
     775                    ; 382 | //                                                                     
     776                    ; 383 | // Read the current state of the battery check.                        
     777                    ; 384 | //                                                                     
     778                    ;----------------------------------------------------------------------
     779                    
     780                    ;*****************************************************************************
     781                    ;* FUNCTION NAME: HibernateBatCheckDone                                      *
     782                    ;*                                                                           *
     783                    ;*   Regs Modified     : A1                                                  *
     784                    ;*   Regs Used         : A1,LR                                               *
     785                    ;*   Local Frame Size  : 0 Args + 0 Auto + 0 Save = 0 byte                   *
     786                    ;*****************************************************************************
     787 000000b6           HibernateBatCheckDone:
     788                    ;* --------------------------------------------------------------------------*
     789                            .dwcfi  cfa_offset, 0
     790                            .dwpsn  file "../driverlib/hibernate.c",line 385,column 5,is_stmt,isa 1
     791                    ;----------------------------------------------------------------------
     792                    ; 385 | return(HWREG(HIB_CTL) & HIB_CTL_BATCHK);                               
     793                    ;----------------------------------------------------------------------
     794 000000b6 488F              LDR       A1, $C$CON1           ; [DPU_V7M3_PIPE] |385|  ; [ORIG 16-BIT INS]
     795 000000b8 6800              LDR       A1, [A1, #0]          ; [DPU_V7M3_PIPE] |385|  ; [ORIG 16-BIT INS]
     796 000000ba 6080F400          AND       A1, A1, #1024         ; [DPU_V7M3_PIPE] |385|  ; [KEEP 32-BIT INS]
     797                            .dwpsn  file "../driverlib/hibernate.c",line 386,column 1,is_stmt,isa 1
     798                    $C$DW$36        .dwtag  DW_TAG_TI_branch
     799                            .dwattr $C$DW$36, DW_AT_low_pc(0x00)
     800                            .dwattr $C$DW$36, DW_AT_TI_return
     801                    
     802 000000be 4770              BX        LR                    ; [DPU_V7M3_PIPE]  ; [ORIG 16-BIT INS]
     803                            ; BRANCH OCCURS                  ; [] 
     804                            .dwattr $C$DW$35, DW_AT_TI_end_file("../driverlib/hibernate.c")
     805                            .dwattr $C$DW$35, DW_AT_TI_end_line(0x182)
     806                            .dwattr $C$DW$35, DW_AT_TI_end_column(0x01)
     807                            .dwendentry
     808                            .dwendtag $C$DW$35
     809                    
     810 000000c0                   .sect   ".text"
     811                            .clink
     812                            .thumbfunc HibernateWakeSet
     813 000000c0                   .thumb
     814                            .global HibernateWakeSet
     815                    
     816                    $C$DW$37        .dwtag  DW_TAG_subprogram
     817                            .dwattr $C$DW$37, DW_AT_name("HibernateWakeSet")
     818                            .dwattr $C$DW$37, DW_AT_low_pc(HibernateWakeSet)
     819                            .dwattr $C$DW$37, DW_AT_high_pc(0x00)
     820                            .dwattr $C$DW$37, DW_AT_TI_symbol_name("HibernateWakeSet")
     821                            .dwattr $C$DW$37, DW_AT_external
     822                            .dwattr $C$DW$37, DW_AT_TI_begin_file("../driverlib/hibernate.c")
     823                            .dwattr $C$DW$37, DW_AT_TI_begin_line(0x1a5)
     824                            .dwattr $C$DW$37, DW_AT_TI_begin_column(0x01)
     825                            .dwattr $C$DW$37, DW_AT_decl_file("../driverlib/hibernate.c")
TI ARM Assembler Unix v18.1.1 Fri Jul  3 20:08:24 2020

Tools Copyright (c) 1996-2017 Texas Instruments Incorporated
hibernate.asm                                                        PAGE   16

     826                            .dwattr $C$DW$37, DW_AT_decl_line(0x1a5)
     827                            .dwattr $C$DW$37, DW_AT_decl_column(0x01)
     828                            .dwattr $C$DW$37, DW_AT_TI_max_frame_size(0x08)
     829                            .dwpsn  file "../driverlib/hibernate.c",line 422,column 1,is_stmt,address HibernateWakeSet,isa
     830                    
     831                            .dwfde $C$DW$CIE, HibernateWakeSet
     832                    $C$DW$38        .dwtag  DW_TAG_formal_parameter
     833                            .dwattr $C$DW$38, DW_AT_name("ui32WakeFlags")
     834                            .dwattr $C$DW$38, DW_AT_TI_symbol_name("ui32WakeFlags")
     835                            .dwattr $C$DW$38, DW_AT_type(*$C$DW$T$33)
     836                            .dwattr $C$DW$38, DW_AT_location[DW_OP_reg0]
     837                    
     838                    ;----------------------------------------------------------------------
     839                    ; 421 | HibernateWakeSet(uint32_t ui32WakeFlags)                               
     840                    ;----------------------------------------------------------------------
     841                    
     842                    ;*****************************************************************************
     843                    ;* FUNCTION NAME: HibernateWakeSet                                           *
     844                    ;*                                                                           *
     845                    ;*   Regs Modified     : A1,A2,A3,A4,SP,LR,SR,FPEXC,FPSCR                    *
     846                    ;*   Regs Used         : A1,A2,A3,A4,SP,LR,SR,FPEXC,FPSCR                    *
     847                    ;*   Local Frame Size  : 0 Args + 4 Auto + 4 Save = 8 byte                   *
     848                    ;*****************************************************************************
     849 000000c0           HibernateWakeSet:
     850                    ;* --------------------------------------------------------------------------*
     851                            .dwcfi  cfa_offset, 0
     852 000000c0 B508              PUSH      {A4, LR}              ; [DPU_V7M3_PIPE]  ; [ORIG 16-BIT INS]
     853                            .dwcfi  cfa_offset, 8
     854                            .dwcfi  save_reg_to_mem, 14, -4
     855                            .dwcfi  save_reg_to_mem, 3, -8
     856                    $C$DW$39        .dwtag  DW_TAG_variable
     857                            .dwattr $C$DW$39, DW_AT_name("ui32WakeFlags")
     858                            .dwattr $C$DW$39, DW_AT_TI_symbol_name("ui32WakeFlags")
     859                            .dwattr $C$DW$39, DW_AT_type(*$C$DW$T$33)
     860                            .dwattr $C$DW$39, DW_AT_location[DW_OP_breg13 0]
     861                    
     862                    ;----------------------------------------------------------------------
     863                    ; 423 | //                                                                     
     864                    ; 424 | // Check the arguments.                                                
     865                    ; 425 | //                                                                     
     866                    ; 426 | ASSERT(!(ui32WakeFlags & ~(HIBERNATE_WAKE_PIN | HIBERNATE_WAKE_RTC |   
     867                    ; 427 |                            HIBERNATE_WAKE_GPIO | HIBERNATE_WAKE_RESET |
     868                    ; 428 |                            HIBERNATE_WAKE_LOW_BAT)));                  
     869                    ; 430 | //                                                                     
     870                    ; 431 | // Set the specified wake flags in the control register.               
     871                    ; 432 | //                                                                     
     872                    ;----------------------------------------------------------------------
     873 000000c2 9000              STR       A1, [SP, #0]          ; [DPU_V7M3_PIPE] |422|  ; [ORIG 16-BIT INS]
     874                            .dwpsn  file "../driverlib/hibernate.c",line 433,column 5,is_stmt,isa 1
     875                    ;----------------------------------------------------------------------
     876                    ; 433 | HWREG(HIB_CTL) = (ui32WakeFlags | (HWREG(HIB_CTL) &                    
     877                    ; 434 |                                    ~(HIBERNATE_WAKE_PIN |              
     878                    ; 435 |                                      HIBERNATE_WAKE_RTC |              
     879                    ; 436 |                                      HIBERNATE_WAKE_LOW_BAT)));        
     880                    ; 438 | //                                                                     
TI ARM Assembler Unix v18.1.1 Fri Jul  3 20:08:24 2020

Tools Copyright (c) 1996-2017 Texas Instruments Incorporated
hibernate.asm                                                        PAGE   17

     881                    ; 439 | // Wait for write completion                                           
     882                    ; 440 | //                                                                     
     883                    ;----------------------------------------------------------------------
     884 000000c4 488B              LDR       A1, $C$CON1           ; [DPU_V7M3_PIPE] |433|  ; [ORIG 16-BIT INS]
     885 000000c6 498B              LDR       A2, $C$CON1           ; [DPU_V7M3_PIPE] |433|  ; [ORIG 16-BIT INS]
     886 000000c8 9A00              LDR       A3, [SP, #0]          ; [DPU_V7M3_PIPE] |433|  ; [ORIG 16-BIT INS]
     887 000000ca 6800              LDR       A1, [A1, #0]          ; [DPU_V7M3_PIPE] |433|  ; [ORIG 16-BIT INS]
     888 000000cc 7006F420          BIC       A1, A1, #536          ; [DPU_V7M3_PIPE] |433|  ; [KEEP 32-BIT INS]
     889 000000d0 4310              ORRS      A1, A1, A3            ; [DPU_V7M3_PIPE] |433|  ; [ORIG 16-BIT INS]
     890 000000d2 6008              STR       A1, [A2, #0]          ; [DPU_V7M3_PIPE] |433|  ; [ORIG 16-BIT INS]
     891                            .dwpsn  file "../driverlib/hibernate.c",line 441,column 5,is_stmt,isa 1
     892                    ;----------------------------------------------------------------------
     893                    ; 441 | _HibernateWriteComplete();                                             
     894                    ; 443 | //                                                                     
     895                    ; 444 | // Write the hibernate IO register if requested.                       
     896                    ; 445 | //                                                                     
     897                    ;----------------------------------------------------------------------
     898                    $C$DW$40        .dwtag  DW_TAG_TI_branch
     899                            .dwattr $C$DW$40, DW_AT_low_pc(0x00)
     900                            .dwattr $C$DW$40, DW_AT_name("_HibernateWriteComplete")
     901                            .dwattr $C$DW$40, DW_AT_TI_call
     902                    
     903 000000d4 FFFEF7FF!         BL        _HibernateWriteComplete ; [DPU_V7M3_PIPE] |441|  ; [KEEP 32-BIT INS]
     904                            ; CALL OCCURS {_HibernateWriteComplete }  ; [] |441| 
     905                            .dwpsn  file "../driverlib/hibernate.c",line 446,column 5,is_stmt,isa 1
     906                    ;----------------------------------------------------------------------
     907                    ; 446 | if(HIBERNATE_WAKE_IO)                                                  
     908                    ; 448 |     //                                                                 
     909                    ; 449 |     // If the reset or GPIOs are begin used as a wake source then the  
     910                    ; 450 |     // the VDD3ON needs to be set to allow the pads to remained        
     911                    ; 451 |     // powered.                                                        
     912                    ; 452 |     //                                                                 
     913                    ;----------------------------------------------------------------------
     914 000000d8 49A3              LDR       A2, $C$CON3           ; [DPU_V7M3_PIPE] |446|  ; [ORIG 16-BIT INS]
     915 000000da 48A2              LDR       A1, $C$CON2           ; [DPU_V7M3_PIPE] |446|  ; [ORIG 16-BIT INS]
     916 000000dc 680A              LDR       A3, [A2, #0]          ; [DPU_V7M3_PIPE] |446|  ; [ORIG 16-BIT INS]
     917 000000de 49A3              LDR       A2, $C$CON4           ; [DPU_V7M3_PIPE] |446|  ; [ORIG 16-BIT INS]
     918 000000e0 4010              ANDS      A1, A1, A3            ; [DPU_V7M3_PIPE] |446|  ; [ORIG 16-BIT INS]
     919 000000e2 4281              CMP       A2, A1                ; [DPU_V7M3_PIPE] |446|  ; [ORIG 16-BIT INS]
     920 000000e4 D11D              BNE       ||$C$L6||             ; [DPU_V7M3_PIPE] |446|  ; [ORIG 16-BIT INS]
     921                            ; BRANCHCC OCCURS {||$C$L6||}    ; [] |446| 
     922                    ;* --------------------------------------------------------------------------*
     923                            .dwpsn  file "../driverlib/hibernate.c",line 453,column 9,is_stmt,isa 1
     924                    ;----------------------------------------------------------------------
     925                    ; 453 | if((ui32WakeFlags & (HIBERNATE_WAKE_RESET | HIBERNATE_WAKE_GPIO)) &&   
     926                    ; 454 |    ((HWREG(HIB_CTL) & HIB_CTL_VDD3ON) == 0))                           
     927                    ; 456 |     //                                                                 
     928                    ; 457 |     // Make sure that VDD3ON mode is enabled so that the pads can      
     929                    ; 458 |     // retain their state.                                             
     930                    ; 459 |     //                                                                 
     931                    ;----------------------------------------------------------------------
     932 000000e6 9800              LDR       A1, [SP, #0]          ; [DPU_V7M3_PIPE] |453|  ; [ORIG 16-BIT INS]
     933 000000e8 1F10F010          TST       A1, #1048592          ; [DPU_V7M3_PIPE] |453|  ; [KEEP 32-BIT INS]
     934 000000ec D00A              BEQ       ||$C$L4||             ; [DPU_V7M3_PIPE] |453|  ; [ORIG 16-BIT INS]
     935                            ; BRANCHCC OCCURS {||$C$L4||}    ; [] |453| 
TI ARM Assembler Unix v18.1.1 Fri Jul  3 20:08:24 2020

Tools Copyright (c) 1996-2017 Texas Instruments Incorporated
hibernate.asm                                                        PAGE   18

     936                    ;* --------------------------------------------------------------------------*
     937 000000ee 4881              LDR       A1, $C$CON1           ; [DPU_V7M3_PIPE] |453|  ; [ORIG 16-BIT INS]
     938 000000f0 6800              LDR       A1, [A1, #0]          ; [DPU_V7M3_PIPE] |453|  ; [ORIG 16-BIT INS]
     939 000000f2 0A40              LSRS      A1, A1, #9            ; [DPU_V7M3_PIPE] |453|  ; [ORIG 16-BIT INS]
     940 000000f4 D206              BCS       ||$C$L4||             ; [DPU_V7M3_PIPE] |453|  ; [ORIG 16-BIT INS]
     941                            ; BRANCHCC OCCURS {||$C$L4||}    ; [] |453| 
     942                    ;* --------------------------------------------------------------------------*
     943                            .dwpsn  file "../driverlib/hibernate.c",line 460,column 13,is_stmt,isa 1
     944                    ;----------------------------------------------------------------------
     945                    ; 460 | HWREG(HIB_CTL) |= HIB_CTL_VDD3ON;                                      
     946                    ; 462 | //                                                                     
     947                    ; 463 | // Wait for write completion                                           
     948                    ; 464 | //                                                                     
     949                    ;----------------------------------------------------------------------
     950 000000f6 497F              LDR       A2, $C$CON1           ; [DPU_V7M3_PIPE] |460|  ; [ORIG 16-BIT INS]
     951 000000f8 6808              LDR       A1, [A2, #0]          ; [DPU_V7M3_PIPE] |460|  ; [ORIG 16-BIT INS]
     952 000000fa 7080F440          ORR       A1, A1, #256          ; [DPU_V7M3_PIPE] |460|  ; [KEEP 32-BIT INS]
     953 000000fe 6008              STR       A1, [A2, #0]          ; [DPU_V7M3_PIPE] |460|  ; [ORIG 16-BIT INS]
     954                            .dwpsn  file "../driverlib/hibernate.c",line 465,column 13,is_stmt,isa 1
     955                    ;----------------------------------------------------------------------
     956                    ; 465 | _HibernateWriteComplete();                                             
     957                    ; 468 | //                                                                     
     958                    ; 469 | // Set the requested flags.                                            
     959                    ; 470 | //                                                                     
     960                    ;----------------------------------------------------------------------
     961                    $C$DW$41        .dwtag  DW_TAG_TI_branch
     962                            .dwattr $C$DW$41, DW_AT_low_pc(0x00)
     963                            .dwattr $C$DW$41, DW_AT_name("_HibernateWriteComplete")
     964                            .dwattr $C$DW$41, DW_AT_TI_call
     965                    
     966 00000100 FFFEF7FF!         BL        _HibernateWriteComplete ; [DPU_V7M3_PIPE] |465|  ; [KEEP 32-BIT INS]
     967                            ; CALL OCCURS {_HibernateWriteComplete }  ; [] |465| 
     968                    ;* --------------------------------------------------------------------------*
     969 00000104           ||$C$L4||:    
     970                            .dwpsn  file "../driverlib/hibernate.c",line 471,column 9,is_stmt,isa 1
     971                    ;----------------------------------------------------------------------
     972                    ; 471 | HWREG(HIB_IO) = (ui32WakeFlags >> 16) | HIB_IO_WUUNLK;                 
     973                    ; 473 | //                                                                     
     974                    ; 474 | // Spin until the write complete bit is set.                           
     975                    ; 475 | //                                                                     
     976                    ;----------------------------------------------------------------------
     977 00000104 9800              LDR       A1, [SP, #0]          ; [DPU_V7M3_PIPE] |471|  ; [ORIG 16-BIT INS]
     978 00000106 49AA              LDR       A2, $C$CON6           ; [DPU_V7M3_PIPE] |471|  ; [ORIG 16-BIT INS]
     979 00000108 0C00              LSRS      A1, A1, #16           ; [DPU_V7M3_PIPE] |471|  ; [ORIG 16-BIT INS]
     980 0000010a 0001F040          ORR       A1, A1, #1            ; [DPU_V7M3_PIPE] |471|  ; [KEEP 32-BIT INS]
     981 0000010e 6008              STR       A1, [A2, #0]          ; [DPU_V7M3_PIPE] |471|  ; [ORIG 16-BIT INS]
     982                            .dwpsn  file "../driverlib/hibernate.c",line 476,column 9,is_stmt,isa 1
     983                    ;----------------------------------------------------------------------
     984                    ; 476 | while((HWREG(HIB_IO) & HIB_IO_IOWRC) == 0)                             
     985                    ;----------------------------------------------------------------------
     986                    ;* --------------------------------------------------------------------------*
     987                    ;*   BEGIN LOOP ||$C$L5||
     988                    ;*
     989                    ;*   Loop source line                : 476
     990                    ;*   Loop closing brace source line  : 478
TI ARM Assembler Unix v18.1.1 Fri Jul  3 20:08:24 2020

Tools Copyright (c) 1996-2017 Texas Instruments Incorporated
hibernate.asm                                                        PAGE   19

     991                    ;*   Known Minimum Trip Count        : 1
     992                    ;*   Known Maximum Trip Count        : 4294967295
     993                    ;*   Known Max Trip Count Factor     : 1
     994                    ;* --------------------------------------------------------------------------*
     995 00000110           ||$C$L5||:    
     996                            .dwpsn  file "../driverlib/hibernate.c",line 476,column 15,is_stmt,isa 1
     997                    ;----------------------------------------------------------------------
     998                    ; 480 | //                                                                     
     999                    ; 481 | // Clear the write unlock bit.                                         
    1000                    ; 482 | //                                                                     
    1001                    ;----------------------------------------------------------------------
    1002 00000110 48A7              LDR       A1, $C$CON6           ; [DPU_V7M3_PIPE] |476|  ; [ORIG 16-BIT INS]
    1003 00000112 6800              LDR       A1, [A1, #0]          ; [DPU_V7M3_PIPE] |476|  ; [ORIG 16-BIT INS]
    1004 00000114 0800              LSRS      A1, A1, #32           ; [DPU_V7M3_PIPE] |476|  ; [ORIG 16-BIT INS]
    1005 00000116 D3FB              BCC       ||$C$L5||             ; [DPU_V7M3_PIPE] |476|  ; [ORIG 16-BIT INS]
    1006                            ; BRANCHCC OCCURS {||$C$L5||}    ; [] |476| 
    1007                    ;* --------------------------------------------------------------------------*
    1008                            .dwpsn  file "../driverlib/hibernate.c",line 483,column 9,is_stmt,isa 1
    1009                    ;----------------------------------------------------------------------
    1010                    ; 483 | HWREG(HIB_IO) &= ~HIB_IO_WUUNLK;                                       
    1011                    ;----------------------------------------------------------------------
    1012 00000118 49A5              LDR       A2, $C$CON6           ; [DPU_V7M3_PIPE] |483|  ; [ORIG 16-BIT INS]
    1013 0000011a 6808              LDR       A1, [A2, #0]          ; [DPU_V7M3_PIPE] |483|  ; [ORIG 16-BIT INS]
    1014 0000011c 0001F020          BIC       A1, A1, #1            ; [DPU_V7M3_PIPE] |483|  ; [KEEP 32-BIT INS]
    1015 00000120 6008              STR       A1, [A2, #0]          ; [DPU_V7M3_PIPE] |483|  ; [ORIG 16-BIT INS]
    1016                            .dwpsn  file "../driverlib/hibernate.c",line 485,column 1,is_stmt,isa 1
    1017                    ;* --------------------------------------------------------------------------*
    1018                    ||$C$L6||:    
    1019                    $C$DW$42        .dwtag  DW_TAG_TI_branch
    1020                            .dwattr $C$DW$42, DW_AT_low_pc(0x00)
    1021                            .dwattr $C$DW$42, DW_AT_TI_return
    1022                    
    1023 00000122 BD08              POP       {A4, PC}              ; [DPU_V7M3_PIPE]  ; [ORIG 16-BIT INS]
    1024                            .dwcfi  cfa_offset, 0
    1025                            .dwcfi  restore_reg, 3
    1026                            ; BRANCH OCCURS                  ; [] 
    1027                            .dwattr $C$DW$37, DW_AT_TI_end_file("../driverlib/hibernate.c")
    1028                            .dwattr $C$DW$37, DW_AT_TI_end_line(0x1e5)
    1029                            .dwattr $C$DW$37, DW_AT_TI_end_column(0x01)
    1030                            .dwendentry
    1031                            .dwendtag $C$DW$37
    1032                    
    1033 00000124                   .sect   ".text"
    1034                            .clink
    1035                            .thumbfunc HibernateWakeGet
    1036 00000124                   .thumb
    1037                            .global HibernateWakeGet
    1038                    
    1039                    $C$DW$43        .dwtag  DW_TAG_subprogram
    1040                            .dwattr $C$DW$43, DW_AT_name("HibernateWakeGet")
    1041                            .dwattr $C$DW$43, DW_AT_low_pc(HibernateWakeGet)
    1042                            .dwattr $C$DW$43, DW_AT_high_pc(0x00)
    1043                            .dwattr $C$DW$43, DW_AT_TI_symbol_name("HibernateWakeGet")
    1044                            .dwattr $C$DW$43, DW_AT_external
    1045                            .dwattr $C$DW$43, DW_AT_type(*$C$DW$T$33)
TI ARM Assembler Unix v18.1.1 Fri Jul  3 20:08:24 2020

Tools Copyright (c) 1996-2017 Texas Instruments Incorporated
hibernate.asm                                                        PAGE   20

    1046                            .dwattr $C$DW$43, DW_AT_TI_begin_file("../driverlib/hibernate.c")
    1047                            .dwattr $C$DW$43, DW_AT_TI_begin_line(0x201)
    1048                            .dwattr $C$DW$43, DW_AT_TI_begin_column(0x01)
    1049                            .dwattr $C$DW$43, DW_AT_decl_file("../driverlib/hibernate.c")
    1050                            .dwattr $C$DW$43, DW_AT_decl_line(0x201)
    1051                            .dwattr $C$DW$43, DW_AT_decl_column(0x01)
    1052                            .dwattr $C$DW$43, DW_AT_TI_max_frame_size(0x08)
    1053                            .dwpsn  file "../driverlib/hibernate.c",line 514,column 1,is_stmt,address HibernateWakeGet,isa
    1054                    
    1055                            .dwfde $C$DW$CIE, HibernateWakeGet
    1056                    ;----------------------------------------------------------------------
    1057                    ; 513 | HibernateWakeGet(void)                                                 
    1058                    ; 515 | uint32_t ui32Ctrl;                                                     
    1059                    ; 517 | //                                                                     
    1060                    ; 518 | // Read the wake bits from the control register and return those bits t
    1061                    ;     | o                                                                      
    1062                    ; 519 | // the caller.                                                         
    1063                    ; 520 | //                                                                     
    1064                    ;----------------------------------------------------------------------
    1065                    
    1066                    ;*****************************************************************************
    1067                    ;* FUNCTION NAME: HibernateWakeGet                                           *
    1068                    ;*                                                                           *
    1069                    ;*   Regs Modified     : A1,A2,A3,SP,SR                                      *
    1070                    ;*   Regs Used         : A1,A2,A3,SP,LR,SR                                   *
    1071                    ;*   Local Frame Size  : 0 Args + 4 Auto + 0 Save = 4 byte                   *
    1072                    ;*****************************************************************************
    1073 00000124           HibernateWakeGet:
    1074                    ;* --------------------------------------------------------------------------*
    1075                            .dwcfi  cfa_offset, 0
    1076 00000124 0D08F1AD          SUB       SP, SP, #8            ; [DPU_V7M3_PIPE]  ; [KEEP 32-BIT INS]
    1077                            .dwcfi  cfa_offset, 8
    1078                    $C$DW$44        .dwtag  DW_TAG_variable
    1079                            .dwattr $C$DW$44, DW_AT_name("ui32Ctrl")
    1080                            .dwattr $C$DW$44, DW_AT_TI_symbol_name("ui32Ctrl")
    1081                            .dwattr $C$DW$44, DW_AT_type(*$C$DW$T$33)
    1082                            .dwattr $C$DW$44, DW_AT_location[DW_OP_breg13 0]
    1083                    
    1084                            .dwpsn  file "../driverlib/hibernate.c",line 521,column 5,is_stmt,isa 1
    1085                    ;----------------------------------------------------------------------
    1086                    ; 521 | if(HIBERNATE_WAKE_IO)                                                  
    1087                    ;----------------------------------------------------------------------
    1088 00000128 498F              LDR       A2, $C$CON3           ; [DPU_V7M3_PIPE] |521|  ; [ORIG 16-BIT INS]
    1089 0000012a 488E              LDR       A1, $C$CON2           ; [DPU_V7M3_PIPE] |521|  ; [ORIG 16-BIT INS]
    1090 0000012c 680A              LDR       A3, [A2, #0]          ; [DPU_V7M3_PIPE] |521|  ; [ORIG 16-BIT INS]
    1091 0000012e 498F              LDR       A2, $C$CON4           ; [DPU_V7M3_PIPE] |521|  ; [ORIG 16-BIT INS]
    1092 00000130 4010              ANDS      A1, A1, A3            ; [DPU_V7M3_PIPE] |521|  ; [ORIG 16-BIT INS]
    1093 00000132 4281              CMP       A2, A1                ; [DPU_V7M3_PIPE] |521|  ; [ORIG 16-BIT INS]
    1094 00000134 D10C              BNE       ||$C$L7||             ; [DPU_V7M3_PIPE] |521|  ; [ORIG 16-BIT INS]
    1095                            ; BRANCHCC OCCURS {||$C$L7||}    ; [] |521| 
    1096                    ;* --------------------------------------------------------------------------*
    1097                            .dwpsn  file "../driverlib/hibernate.c",line 523,column 9,is_stmt,isa 1
    1098                    ;----------------------------------------------------------------------
    1099                    ; 523 | ui32Ctrl = HWREG(HIB_CTL);                                             
    1100                    ;----------------------------------------------------------------------
TI ARM Assembler Unix v18.1.1 Fri Jul  3 20:08:24 2020

Tools Copyright (c) 1996-2017 Texas Instruments Incorporated
hibernate.asm                                                        PAGE   21

    1101 00000136 486F              LDR       A1, $C$CON1           ; [DPU_V7M3_PIPE] |523|  ; [ORIG 16-BIT INS]
    1102 00000138 6800              LDR       A1, [A1, #0]          ; [DPU_V7M3_PIPE] |523|  ; [ORIG 16-BIT INS]
    1103 0000013a 9000              STR       A1, [SP, #0]          ; [DPU_V7M3_PIPE] |523|  ; [ORIG 16-BIT INS]
    1104                            .dwpsn  file "../driverlib/hibernate.c",line 524,column 9,is_stmt,isa 1
    1105                    ;----------------------------------------------------------------------
    1106                    ; 524 | return((ui32Ctrl & (HIBERNATE_WAKE_PIN | HIBERNATE_WAKE_RTC |          
    1107                    ; 525 |                     HIBERNATE_WAKE_LOW_BAT)) |                         
    1108                    ; 526 |        ((HWREG(HIB_IO) << 16) & (HIBERNATE_WAKE_RESET |                
    1109                    ; 527 |                                  HIBERNATE_WAKE_GPIO)));               
    1110                    ; 529 | else                                                                   
    1111                    ;----------------------------------------------------------------------
    1112 0000013c 489C              LDR       A1, $C$CON6           ; [DPU_V7M3_PIPE] |524|  ; [ORIG 16-BIT INS]
    1113 0000013e 9900              LDR       A2, [SP, #0]          ; [DPU_V7M3_PIPE] |524|  ; [ORIG 16-BIT INS]
    1114 00000140 6800              LDR       A1, [A1, #0]          ; [DPU_V7M3_PIPE] |524|  ; [ORIG 16-BIT INS]
    1115 00000142 7106F401          AND       A2, A2, #536          ; [DPU_V7M3_PIPE] |524|  ; [KEEP 32-BIT INS]
    1116 00000146 0400              LSLS      A1, A1, #16           ; [DPU_V7M3_PIPE] |524|  ; [ORIG 16-BIT INS]
    1117 00000148 1010F000          AND       A1, A1, #1048592      ; [DPU_V7M3_PIPE] |524|  ; [KEEP 32-BIT INS]
    1118 0000014c 4308              ORRS      A1, A1, A2            ; [DPU_V7M3_PIPE] |524|  ; [ORIG 16-BIT INS]
    1119 0000014e E003              B         ||$C$L8||             ; [DPU_V7M3_PIPE] |524|  ; [ORIG 16-BIT INS]
    1120                            ; BRANCH OCCURS {||$C$L8||}      ; [] |524| 
    1121                    ;* --------------------------------------------------------------------------*
    1122                    ;* --------------------------------------------------------------------------*
    1123 00000150           ||$C$L7||:    
    1124                            .dwpsn  file "../driverlib/hibernate.c",line 531,column 9,is_stmt,isa 1
    1125                    ;----------------------------------------------------------------------
    1126                    ; 531 | return(HWREG(HIB_CTL) & (HIBERNATE_WAKE_PIN | HIBERNATE_WAKE_RTC |     
    1127                    ; 532 |                          HIBERNATE_WAKE_LOW_BAT));                     
    1128                    ;----------------------------------------------------------------------
    1129 00000150 4868              LDR       A1, $C$CON1           ; [DPU_V7M3_PIPE] |531|  ; [ORIG 16-BIT INS]
    1130 00000152 6800              LDR       A1, [A1, #0]          ; [DPU_V7M3_PIPE] |531|  ; [ORIG 16-BIT INS]
    1131 00000154 7006F400          AND       A1, A1, #536          ; [DPU_V7M3_PIPE] |531|  ; [KEEP 32-BIT INS]
    1132                    ;* --------------------------------------------------------------------------*
    1133 00000158           ||$C$L8||:    
    1134                            .dwpsn  file "../driverlib/hibernate.c",line 534,column 1,is_stmt,isa 1
    1135 00000158 B002              ADD       SP, SP, #8            ; [DPU_V7M3_PIPE]  ; [ORIG 16-BIT INS]
    1136                            .dwcfi  cfa_offset, 0
    1137                    $C$DW$45        .dwtag  DW_TAG_TI_branch
    1138                            .dwattr $C$DW$45, DW_AT_low_pc(0x00)
    1139                            .dwattr $C$DW$45, DW_AT_TI_return
    1140                    
    1141 0000015a 4770              BX        LR                    ; [DPU_V7M3_PIPE]  ; [ORIG 16-BIT INS]
    1142                            ; BRANCH OCCURS                  ; [] 
    1143                            .dwattr $C$DW$43, DW_AT_TI_end_file("../driverlib/hibernate.c")
    1144                            .dwattr $C$DW$43, DW_AT_TI_end_line(0x216)
    1145                            .dwattr $C$DW$43, DW_AT_TI_end_column(0x01)
    1146                            .dwendentry
    1147                            .dwendtag $C$DW$43
    1148                    
    1149 0000015c                   .sect   ".text"
    1150                            .clink
    1151                            .thumbfunc HibernateLowBatSet
    1152 0000015c                   .thumb
    1153                            .global HibernateLowBatSet
    1154                    
    1155                    $C$DW$46        .dwtag  DW_TAG_subprogram
TI ARM Assembler Unix v18.1.1 Fri Jul  3 20:08:24 2020

Tools Copyright (c) 1996-2017 Texas Instruments Incorporated
hibernate.asm                                                        PAGE   22

    1156                            .dwattr $C$DW$46, DW_AT_name("HibernateLowBatSet")
    1157                            .dwattr $C$DW$46, DW_AT_low_pc(HibernateLowBatSet)
    1158                            .dwattr $C$DW$46, DW_AT_high_pc(0x00)
    1159                            .dwattr $C$DW$46, DW_AT_TI_symbol_name("HibernateLowBatSet")
    1160                            .dwattr $C$DW$46, DW_AT_external
    1161                            .dwattr $C$DW$46, DW_AT_TI_begin_file("../driverlib/hibernate.c")
    1162                            .dwattr $C$DW$46, DW_AT_TI_begin_line(0x23c)
    1163                            .dwattr $C$DW$46, DW_AT_TI_begin_column(0x01)
    1164                            .dwattr $C$DW$46, DW_AT_decl_file("../driverlib/hibernate.c")
    1165                            .dwattr $C$DW$46, DW_AT_decl_line(0x23c)
    1166                            .dwattr $C$DW$46, DW_AT_decl_column(0x01)
    1167                            .dwattr $C$DW$46, DW_AT_TI_max_frame_size(0x08)
    1168                            .dwpsn  file "../driverlib/hibernate.c",line 573,column 1,is_stmt,address HibernateLowBatSet,i
    1169                    
    1170                            .dwfde $C$DW$CIE, HibernateLowBatSet
    1171                    $C$DW$47        .dwtag  DW_TAG_formal_parameter
    1172                            .dwattr $C$DW$47, DW_AT_name("ui32LowBatFlags")
    1173                            .dwattr $C$DW$47, DW_AT_TI_symbol_name("ui32LowBatFlags")
    1174                            .dwattr $C$DW$47, DW_AT_type(*$C$DW$T$33)
    1175                            .dwattr $C$DW$47, DW_AT_location[DW_OP_reg0]
    1176                    
    1177                    ;----------------------------------------------------------------------
    1178                    ; 572 | HibernateLowBatSet(uint32_t ui32LowBatFlags)                           
    1179                    ;----------------------------------------------------------------------
    1180                    
    1181                    ;*****************************************************************************
    1182                    ;* FUNCTION NAME: HibernateLowBatSet                                         *
    1183                    ;*                                                                           *
    1184                    ;*   Regs Modified     : A1,A2,A3,A4,SP,LR,SR,FPEXC,FPSCR                    *
    1185                    ;*   Regs Used         : A1,A2,A3,A4,SP,LR,SR,FPEXC,FPSCR                    *
    1186                    ;*   Local Frame Size  : 0 Args + 4 Auto + 4 Save = 8 byte                   *
    1187                    ;*****************************************************************************
    1188 0000015c           HibernateLowBatSet:
    1189                    ;* --------------------------------------------------------------------------*
    1190                            .dwcfi  cfa_offset, 0
    1191 0000015c B508              PUSH      {A4, LR}              ; [DPU_V7M3_PIPE]  ; [ORIG 16-BIT INS]
    1192                            .dwcfi  cfa_offset, 8
    1193                            .dwcfi  save_reg_to_mem, 14, -4
    1194                            .dwcfi  save_reg_to_mem, 3, -8
    1195                    $C$DW$48        .dwtag  DW_TAG_variable
    1196                            .dwattr $C$DW$48, DW_AT_name("ui32LowBatFlags")
    1197                            .dwattr $C$DW$48, DW_AT_TI_symbol_name("ui32LowBatFlags")
    1198                            .dwattr $C$DW$48, DW_AT_type(*$C$DW$T$33)
    1199                            .dwattr $C$DW$48, DW_AT_location[DW_OP_breg13 0]
    1200                    
    1201                    ;----------------------------------------------------------------------
    1202                    ; 574 | //                                                                     
    1203                    ; 575 | // Check the arguments.                                                
    1204                    ; 576 | //                                                                     
    1205                    ; 577 | ASSERT(!(ui32LowBatFlags &                                             
    1206                    ; 578 |          ~(HIB_CTL_VBATSEL_M | HIBERNATE_LOW_BAT_ABORT)));             
    1207                    ; 580 | //                                                                     
    1208                    ; 581 | // Set the low-battery detect and abort bits in the control register,  
    1209                    ; 582 | // according to the parameter.                                         
    1210                    ; 583 | //                                                                     
TI ARM Assembler Unix v18.1.1 Fri Jul  3 20:08:24 2020

Tools Copyright (c) 1996-2017 Texas Instruments Incorporated
hibernate.asm                                                        PAGE   23

    1211                    ;----------------------------------------------------------------------
    1212 0000015e 9000              STR       A1, [SP, #0]          ; [DPU_V7M3_PIPE] |573|  ; [ORIG 16-BIT INS]
    1213                            .dwpsn  file "../driverlib/hibernate.c",line 584,column 5,is_stmt,isa 1
    1214                    ;----------------------------------------------------------------------
    1215                    ; 584 | HWREG(HIB_CTL) = (ui32LowBatFlags |                                    
    1216                    ; 585 |                   (HWREG(HIB_CTL) & ~(HIB_CTL_VBATSEL_M |              
    1217                    ; 586 |                                       HIBERNATE_LOW_BAT_ABORT)));      
    1218                    ; 588 | //                                                                     
    1219                    ; 589 | // Wait for write completion                                           
    1220                    ; 590 | //                                                                     
    1221                    ;----------------------------------------------------------------------
    1222 00000160 4964              LDR       A2, $C$CON1           ; [DPU_V7M3_PIPE] |584|  ; [ORIG 16-BIT INS]
    1223 00000162 4894              LDR       A1, $C$CON7           ; [DPU_V7M3_PIPE] |584|  ; [ORIG 16-BIT INS]
    1224 00000164 680B              LDR       A4, [A2, #0]          ; [DPU_V7M3_PIPE] |584|  ; [ORIG 16-BIT INS]
    1225 00000166 9A00              LDR       A3, [SP, #0]          ; [DPU_V7M3_PIPE] |584|  ; [ORIG 16-BIT INS]
    1226 00000168 4962              LDR       A2, $C$CON1           ; [DPU_V7M3_PIPE] |584|  ; [ORIG 16-BIT INS]
    1227 0000016a 4018              ANDS      A1, A1, A4            ; [DPU_V7M3_PIPE] |584|  ; [ORIG 16-BIT INS]
    1228 0000016c 4310              ORRS      A1, A1, A3            ; [DPU_V7M3_PIPE] |584|  ; [ORIG 16-BIT INS]
    1229 0000016e 6008              STR       A1, [A2, #0]          ; [DPU_V7M3_PIPE] |584|  ; [ORIG 16-BIT INS]
    1230                            .dwpsn  file "../driverlib/hibernate.c",line 591,column 5,is_stmt,isa 1
    1231                    ;----------------------------------------------------------------------
    1232                    ; 591 | _HibernateWriteComplete();                                             
    1233                    ;----------------------------------------------------------------------
    1234                    $C$DW$49        .dwtag  DW_TAG_TI_branch
    1235                            .dwattr $C$DW$49, DW_AT_low_pc(0x00)
    1236                            .dwattr $C$DW$49, DW_AT_name("_HibernateWriteComplete")
    1237                            .dwattr $C$DW$49, DW_AT_TI_call
    1238                    
    1239 00000170 FFFEF7FF!         BL        _HibernateWriteComplete ; [DPU_V7M3_PIPE] |591|  ; [KEEP 32-BIT INS]
    1240                            ; CALL OCCURS {_HibernateWriteComplete }  ; [] |591| 
    1241                            .dwpsn  file "../driverlib/hibernate.c",line 592,column 1,is_stmt,isa 1
    1242                    $C$DW$50        .dwtag  DW_TAG_TI_branch
    1243                            .dwattr $C$DW$50, DW_AT_low_pc(0x00)
    1244                            .dwattr $C$DW$50, DW_AT_TI_return
    1245                    
    1246 00000174 BD08              POP       {A4, PC}              ; [DPU_V7M3_PIPE]  ; [ORIG 16-BIT INS]
    1247                            .dwcfi  cfa_offset, 0
    1248                            .dwcfi  restore_reg, 3
    1249                            ; BRANCH OCCURS                  ; [] 
    1250                            .dwattr $C$DW$46, DW_AT_TI_end_file("../driverlib/hibernate.c")
    1251                            .dwattr $C$DW$46, DW_AT_TI_end_line(0x250)
    1252                            .dwattr $C$DW$46, DW_AT_TI_end_column(0x01)
    1253                            .dwendentry
    1254                            .dwendtag $C$DW$46
    1255                    
    1256 00000176                   .sect   ".text"
    1257                            .clink
    1258                            .thumbfunc HibernateLowBatGet
    1259 00000176                   .thumb
    1260                            .global HibernateLowBatGet
    1261                    
    1262                    $C$DW$51        .dwtag  DW_TAG_subprogram
    1263                            .dwattr $C$DW$51, DW_AT_name("HibernateLowBatGet")
    1264                            .dwattr $C$DW$51, DW_AT_low_pc(HibernateLowBatGet)
    1265                            .dwattr $C$DW$51, DW_AT_high_pc(0x00)
TI ARM Assembler Unix v18.1.1 Fri Jul  3 20:08:24 2020

Tools Copyright (c) 1996-2017 Texas Instruments Incorporated
hibernate.asm                                                        PAGE   24

    1266                            .dwattr $C$DW$51, DW_AT_TI_symbol_name("HibernateLowBatGet")
    1267                            .dwattr $C$DW$51, DW_AT_external
    1268                            .dwattr $C$DW$51, DW_AT_type(*$C$DW$T$33)
    1269                            .dwattr $C$DW$51, DW_AT_TI_begin_file("../driverlib/hibernate.c")
    1270                            .dwattr $C$DW$51, DW_AT_TI_begin_line(0x260)
    1271                            .dwattr $C$DW$51, DW_AT_TI_begin_column(0x01)
    1272                            .dwattr $C$DW$51, DW_AT_decl_file("../driverlib/hibernate.c")
    1273                            .dwattr $C$DW$51, DW_AT_decl_line(0x260)
    1274                            .dwattr $C$DW$51, DW_AT_decl_column(0x01)
    1275                            .dwattr $C$DW$51, DW_AT_TI_max_frame_size(0x00)
    1276                            .dwpsn  file "../driverlib/hibernate.c",line 609,column 1,is_stmt,address HibernateLowBatGet,i
    1277                    
    1278                            .dwfde $C$DW$CIE, HibernateLowBatGet
    1279                    ;----------------------------------------------------------------------
    1280                    ; 608 | HibernateLowBatGet(void)                                               
    1281                    ; 610 | //                                                                     
    1282                    ; 611 | // Read the supported low bat bits from the control register and return
    1283                    ; 612 | // those bits to the caller.                                           
    1284                    ; 613 | //                                                                     
    1285                    ;----------------------------------------------------------------------
    1286                    
    1287                    ;*****************************************************************************
    1288                    ;* FUNCTION NAME: HibernateLowBatGet                                         *
    1289                    ;*                                                                           *
    1290                    ;*   Regs Modified     : A1,A2,SR                                            *
    1291                    ;*   Regs Used         : A1,A2,LR,SR                                         *
    1292                    ;*   Local Frame Size  : 0 Args + 0 Auto + 0 Save = 0 byte                   *
    1293                    ;*****************************************************************************
    1294 00000176           HibernateLowBatGet:
    1295                    ;* --------------------------------------------------------------------------*
    1296                            .dwcfi  cfa_offset, 0
    1297                            .dwpsn  file "../driverlib/hibernate.c",line 614,column 5,is_stmt,isa 1
    1298                    ;----------------------------------------------------------------------
    1299                    ; 614 | return(HWREG(HIB_CTL) & (HIB_CTL_VBATSEL_M | HIBERNATE_LOW_BAT_ABORT));
    1300                    ;----------------------------------------------------------------------
    1301 00000176 485F              LDR       A1, $C$CON1           ; [DPU_V7M3_PIPE] |614|  ; [ORIG 16-BIT INS]
    1302 00000178 6801              LDR       A2, [A1, #0]          ; [DPU_V7M3_PIPE] |614|  ; [ORIG 16-BIT INS]
    1303 0000017a 00A0F246          MOV       A1, #24736            ; [DPU_V7M3_PIPE] |614|  ; [KEEP 32-BIT INS]
    1304 0000017e 4008              ANDS      A1, A1, A2            ; [DPU_V7M3_PIPE] |614|  ; [ORIG 16-BIT INS]
    1305                            .dwpsn  file "../driverlib/hibernate.c",line 615,column 1,is_stmt,isa 1
    1306                    $C$DW$52        .dwtag  DW_TAG_TI_branch
    1307                            .dwattr $C$DW$52, DW_AT_low_pc(0x00)
    1308                            .dwattr $C$DW$52, DW_AT_TI_return
    1309                    
    1310 00000180 4770              BX        LR                    ; [DPU_V7M3_PIPE]  ; [ORIG 16-BIT INS]
    1311                            ; BRANCH OCCURS                  ; [] 
    1312                            .dwattr $C$DW$51, DW_AT_TI_end_file("../driverlib/hibernate.c")
    1313                            .dwattr $C$DW$51, DW_AT_TI_end_line(0x267)
    1314                            .dwattr $C$DW$51, DW_AT_TI_end_column(0x01)
    1315                            .dwendentry
    1316                            .dwendtag $C$DW$51
    1317                    
    1318 00000182                   .sect   ".text"
    1319                            .clink
    1320                            .thumbfunc HibernateRTCSet
TI ARM Assembler Unix v18.1.1 Fri Jul  3 20:08:24 2020

Tools Copyright (c) 1996-2017 Texas Instruments Incorporated
hibernate.asm                                                        PAGE   25

    1321 00000182                   .thumb
    1322                            .global HibernateRTCSet
    1323                    
    1324                    $C$DW$53        .dwtag  DW_TAG_subprogram
    1325                            .dwattr $C$DW$53, DW_AT_name("HibernateRTCSet")
    1326                            .dwattr $C$DW$53, DW_AT_low_pc(HibernateRTCSet)
    1327                            .dwattr $C$DW$53, DW_AT_high_pc(0x00)
    1328                            .dwattr $C$DW$53, DW_AT_TI_symbol_name("HibernateRTCSet")
    1329                            .dwattr $C$DW$53, DW_AT_external
    1330                            .dwattr $C$DW$53, DW_AT_TI_begin_file("../driverlib/hibernate.c")
    1331                            .dwattr $C$DW$53, DW_AT_TI_begin_line(0x277)
    1332                            .dwattr $C$DW$53, DW_AT_TI_begin_column(0x01)
    1333                            .dwattr $C$DW$53, DW_AT_decl_file("../driverlib/hibernate.c")
    1334                            .dwattr $C$DW$53, DW_AT_decl_line(0x277)
    1335                            .dwattr $C$DW$53, DW_AT_decl_column(0x01)
    1336                            .dwattr $C$DW$53, DW_AT_TI_max_frame_size(0x08)
    1337                            .dwpsn  file "../driverlib/hibernate.c",line 632,column 1,is_stmt,address HibernateRTCSet,isa 
    1338                    
    1339                            .dwfde $C$DW$CIE, HibernateRTCSet
    1340                    $C$DW$54        .dwtag  DW_TAG_formal_parameter
    1341                            .dwattr $C$DW$54, DW_AT_name("ui32RTCValue")
    1342                            .dwattr $C$DW$54, DW_AT_TI_symbol_name("ui32RTCValue")
    1343                            .dwattr $C$DW$54, DW_AT_type(*$C$DW$T$33)
    1344                            .dwattr $C$DW$54, DW_AT_location[DW_OP_reg0]
    1345                    
    1346                    ;----------------------------------------------------------------------
    1347                    ; 631 | HibernateRTCSet(uint32_t ui32RTCValue)                                 
    1348                    ;----------------------------------------------------------------------
    1349                    
    1350                    ;*****************************************************************************
    1351                    ;* FUNCTION NAME: HibernateRTCSet                                            *
    1352                    ;*                                                                           *
    1353                    ;*   Regs Modified     : A1,A2,A4,SP,LR,SR,FPEXC,FPSCR                       *
    1354                    ;*   Regs Used         : A1,A2,A4,SP,LR,SR,FPEXC,FPSCR                       *
    1355                    ;*   Local Frame Size  : 0 Args + 4 Auto + 4 Save = 8 byte                   *
    1356                    ;*****************************************************************************
    1357 00000182           HibernateRTCSet:
    1358                    ;* --------------------------------------------------------------------------*
    1359                            .dwcfi  cfa_offset, 0
    1360 00000182 B508              PUSH      {A4, LR}              ; [DPU_V7M3_PIPE]  ; [ORIG 16-BIT INS]
    1361                            .dwcfi  cfa_offset, 8
    1362                            .dwcfi  save_reg_to_mem, 14, -4
    1363                            .dwcfi  save_reg_to_mem, 3, -8
    1364                    $C$DW$55        .dwtag  DW_TAG_variable
    1365                            .dwattr $C$DW$55, DW_AT_name("ui32RTCValue")
    1366                            .dwattr $C$DW$55, DW_AT_TI_symbol_name("ui32RTCValue")
    1367                            .dwattr $C$DW$55, DW_AT_type(*$C$DW$T$33)
    1368                            .dwattr $C$DW$55, DW_AT_location[DW_OP_breg13 0]
    1369                    
    1370                    ;----------------------------------------------------------------------
    1371                    ; 633 | //                                                                     
    1372                    ; 634 | // Load register requires unlock.                                      
    1373                    ; 635 | //                                                                     
    1374                    ;----------------------------------------------------------------------
    1375 00000184 9000              STR       A1, [SP, #0]          ; [DPU_V7M3_PIPE] |632|  ; [ORIG 16-BIT INS]
TI ARM Assembler Unix v18.1.1 Fri Jul  3 20:08:24 2020

Tools Copyright (c) 1996-2017 Texas Instruments Incorporated
hibernate.asm                                                        PAGE   26

    1376                            .dwpsn  file "../driverlib/hibernate.c",line 636,column 5,is_stmt,isa 1
    1377                    ;----------------------------------------------------------------------
    1378                    ; 636 | HWREG(HIB_LOCK) = HIB_LOCK_HIBLOCK_KEY;                                
    1379                    ;----------------------------------------------------------------------
    1380 00000186 498C              LDR       A2, $C$CON8           ; [DPU_V7M3_PIPE] |636|  ; [ORIG 16-BIT INS]
    1381 00000188 488C              LDR       A1, $C$CON9           ; [DPU_V7M3_PIPE] |636|  ; [ORIG 16-BIT INS]
    1382 0000018a 6008              STR       A1, [A2, #0]          ; [DPU_V7M3_PIPE] |636|  ; [ORIG 16-BIT INS]
    1383                            .dwpsn  file "../driverlib/hibernate.c",line 637,column 5,is_stmt,isa 1
    1384                    ;----------------------------------------------------------------------
    1385                    ; 637 | _HibernateWriteComplete();                                             
    1386                    ; 639 | //                                                                     
    1387                    ; 640 | // Write the new RTC value to the RTC load register.                   
    1388                    ; 641 | //                                                                     
    1389                    ;----------------------------------------------------------------------
    1390                    $C$DW$56        .dwtag  DW_TAG_TI_branch
    1391                            .dwattr $C$DW$56, DW_AT_low_pc(0x00)
    1392                            .dwattr $C$DW$56, DW_AT_name("_HibernateWriteComplete")
    1393                            .dwattr $C$DW$56, DW_AT_TI_call
    1394                    
    1395 0000018c FFFEF7FF!         BL        _HibernateWriteComplete ; [DPU_V7M3_PIPE] |637|  ; [KEEP 32-BIT INS]
    1396                            ; CALL OCCURS {_HibernateWriteComplete }  ; [] |637| 
    1397                            .dwpsn  file "../driverlib/hibernate.c",line 642,column 5,is_stmt,isa 1
    1398                    ;----------------------------------------------------------------------
    1399                    ; 642 | HWREG(HIB_RTCLD) = ui32RTCValue;                                       
    1400                    ; 644 | //                                                                     
    1401                    ; 645 | // Wait for write completion                                           
    1402                    ; 646 | //                                                                     
    1403                    ;----------------------------------------------------------------------
    1404 00000190 498B              LDR       A2, $C$CON10          ; [DPU_V7M3_PIPE] |642|  ; [ORIG 16-BIT INS]
    1405 00000192 9800              LDR       A1, [SP, #0]          ; [DPU_V7M3_PIPE] |642|  ; [ORIG 16-BIT INS]
    1406 00000194 6008              STR       A1, [A2, #0]          ; [DPU_V7M3_PIPE] |642|  ; [ORIG 16-BIT INS]
    1407                            .dwpsn  file "../driverlib/hibernate.c",line 647,column 5,is_stmt,isa 1
    1408                    ;----------------------------------------------------------------------
    1409                    ; 647 | _HibernateWriteComplete();                                             
    1410                    ; 649 | //                                                                     
    1411                    ; 650 | // Unlock.                                                             
    1412                    ; 651 | //                                                                     
    1413                    ;----------------------------------------------------------------------
    1414                    $C$DW$57        .dwtag  DW_TAG_TI_branch
    1415                            .dwattr $C$DW$57, DW_AT_low_pc(0x00)
    1416                            .dwattr $C$DW$57, DW_AT_name("_HibernateWriteComplete")
    1417                            .dwattr $C$DW$57, DW_AT_TI_call
    1418                    
    1419 00000196 FFFEF7FF!         BL        _HibernateWriteComplete ; [DPU_V7M3_PIPE] |647|  ; [KEEP 32-BIT INS]
    1420                            ; CALL OCCURS {_HibernateWriteComplete }  ; [] |647| 
    1421                            .dwpsn  file "../driverlib/hibernate.c",line 652,column 5,is_stmt,isa 1
    1422                    ;----------------------------------------------------------------------
    1423                    ; 652 | HWREG(HIB_LOCK) = 0;                                                   
    1424                    ;----------------------------------------------------------------------
    1425 0000019a 4987              LDR       A2, $C$CON8           ; [DPU_V7M3_PIPE] |652|  ; [ORIG 16-BIT INS]
    1426 0000019c 2000              MOVS      A1, #0                ; [DPU_V7M3_PIPE] |652|  ; [ORIG 16-BIT INS]
    1427 0000019e 6008              STR       A1, [A2, #0]          ; [DPU_V7M3_PIPE] |652|  ; [ORIG 16-BIT INS]
    1428                            .dwpsn  file "../driverlib/hibernate.c",line 653,column 5,is_stmt,isa 1
    1429                    ;----------------------------------------------------------------------
    1430                    ; 653 | _HibernateWriteComplete();                                             
TI ARM Assembler Unix v18.1.1 Fri Jul  3 20:08:24 2020

Tools Copyright (c) 1996-2017 Texas Instruments Incorporated
hibernate.asm                                                        PAGE   27

    1431                    ;----------------------------------------------------------------------
    1432                    $C$DW$58        .dwtag  DW_TAG_TI_branch
    1433                            .dwattr $C$DW$58, DW_AT_low_pc(0x00)
    1434                            .dwattr $C$DW$58, DW_AT_name("_HibernateWriteComplete")
    1435                            .dwattr $C$DW$58, DW_AT_TI_call
    1436                    
    1437 000001a0 FFFEF7FF!         BL        _HibernateWriteComplete ; [DPU_V7M3_PIPE] |653|  ; [KEEP 32-BIT INS]
    1438                            ; CALL OCCURS {_HibernateWriteComplete }  ; [] |653| 
    1439                            .dwpsn  file "../driverlib/hibernate.c",line 654,column 1,is_stmt,isa 1
    1440                    $C$DW$59        .dwtag  DW_TAG_TI_branch
    1441                            .dwattr $C$DW$59, DW_AT_low_pc(0x00)
    1442                            .dwattr $C$DW$59, DW_AT_TI_return
    1443                    
    1444 000001a4 BD08              POP       {A4, PC}              ; [DPU_V7M3_PIPE]  ; [ORIG 16-BIT INS]
    1445                            .dwcfi  cfa_offset, 0
    1446                            .dwcfi  restore_reg, 3
    1447                            ; BRANCH OCCURS                  ; [] 
    1448                            .dwattr $C$DW$53, DW_AT_TI_end_file("../driverlib/hibernate.c")
    1449                            .dwattr $C$DW$53, DW_AT_TI_end_line(0x28e)
    1450                            .dwattr $C$DW$53, DW_AT_TI_end_column(0x01)
    1451                            .dwendentry
    1452                            .dwendtag $C$DW$53
    1453                    
    1454 000001a6                   .sect   ".text"
    1455                            .clink
    1456                            .thumbfunc HibernateRTCGet
    1457 000001a6                   .thumb
    1458                            .global HibernateRTCGet
    1459                    
    1460                    $C$DW$60        .dwtag  DW_TAG_subprogram
    1461                            .dwattr $C$DW$60, DW_AT_name("HibernateRTCGet")
    1462                            .dwattr $C$DW$60, DW_AT_low_pc(HibernateRTCGet)
    1463                            .dwattr $C$DW$60, DW_AT_high_pc(0x00)
    1464                            .dwattr $C$DW$60, DW_AT_TI_symbol_name("HibernateRTCGet")
    1465                            .dwattr $C$DW$60, DW_AT_external
    1466                            .dwattr $C$DW$60, DW_AT_type(*$C$DW$T$33)
    1467                            .dwattr $C$DW$60, DW_AT_TI_begin_file("../driverlib/hibernate.c")
    1468                            .dwattr $C$DW$60, DW_AT_TI_begin_line(0x29a)
    1469                            .dwattr $C$DW$60, DW_AT_TI_begin_column(0x01)
    1470                            .dwattr $C$DW$60, DW_AT_decl_file("../driverlib/hibernate.c")
    1471                            .dwattr $C$DW$60, DW_AT_decl_line(0x29a)
    1472                            .dwattr $C$DW$60, DW_AT_decl_column(0x01)
    1473                            .dwattr $C$DW$60, DW_AT_TI_max_frame_size(0x00)
    1474                            .dwpsn  file "../driverlib/hibernate.c",line 667,column 1,is_stmt,address HibernateRTCGet,isa 
    1475                    
    1476                            .dwfde $C$DW$CIE, HibernateRTCGet
    1477                    ;----------------------------------------------------------------------
    1478                    ; 666 | HibernateRTCGet(void)                                                  
    1479                    ; 668 | //                                                                     
    1480                    ; 669 | // Return the value of the RTC counter register to the caller.         
    1481                    ; 670 | //                                                                     
    1482                    ;----------------------------------------------------------------------
    1483                    
    1484                    ;*****************************************************************************
    1485                    ;* FUNCTION NAME: HibernateRTCGet                                            *
TI ARM Assembler Unix v18.1.1 Fri Jul  3 20:08:24 2020

Tools Copyright (c) 1996-2017 Texas Instruments Incorporated
hibernate.asm                                                        PAGE   28

    1486                    ;*                                                                           *
    1487                    ;*   Regs Modified     : A1                                                  *
    1488                    ;*   Regs Used         : A1,LR                                               *
    1489                    ;*   Local Frame Size  : 0 Args + 0 Auto + 0 Save = 0 byte                   *
    1490                    ;*****************************************************************************
    1491 000001a6           HibernateRTCGet:
    1492                    ;* --------------------------------------------------------------------------*
    1493                            .dwcfi  cfa_offset, 0
    1494                            .dwpsn  file "../driverlib/hibernate.c",line 671,column 5,is_stmt,isa 1
    1495                    ;----------------------------------------------------------------------
    1496                    ; 671 | return(HWREG(HIB_RTCC));                                               
    1497                    ;----------------------------------------------------------------------
    1498 000001a6 4887              LDR       A1, $C$CON11          ; [DPU_V7M3_PIPE] |671|  ; [ORIG 16-BIT INS]
    1499 000001a8 6800              LDR       A1, [A1, #0]          ; [DPU_V7M3_PIPE] |671|  ; [ORIG 16-BIT INS]
    1500                            .dwpsn  file "../driverlib/hibernate.c",line 672,column 1,is_stmt,isa 1
    1501                    $C$DW$61        .dwtag  DW_TAG_TI_branch
    1502                            .dwattr $C$DW$61, DW_AT_low_pc(0x00)
    1503                            .dwattr $C$DW$61, DW_AT_TI_return
    1504                    
    1505 000001aa 4770              BX        LR                    ; [DPU_V7M3_PIPE]  ; [ORIG 16-BIT INS]
    1506                            ; BRANCH OCCURS                  ; [] 
    1507                            .dwattr $C$DW$60, DW_AT_TI_end_file("../driverlib/hibernate.c")
    1508                            .dwattr $C$DW$60, DW_AT_TI_end_line(0x2a0)
    1509                            .dwattr $C$DW$60, DW_AT_TI_end_column(0x01)
    1510                            .dwendentry
    1511                            .dwendtag $C$DW$60
    1512                    
    1513 000001ac                   .sect   ".text"
    1514                            .clink
    1515                            .thumbfunc HibernateRTCMatchSet
    1516 000001ac                   .thumb
    1517                            .global HibernateRTCMatchSet
    1518                    
    1519                    $C$DW$62        .dwtag  DW_TAG_subprogram
    1520                            .dwattr $C$DW$62, DW_AT_name("HibernateRTCMatchSet")
    1521                            .dwattr $C$DW$62, DW_AT_low_pc(HibernateRTCMatchSet)
    1522                            .dwattr $C$DW$62, DW_AT_high_pc(0x00)
    1523                            .dwattr $C$DW$62, DW_AT_TI_symbol_name("HibernateRTCMatchSet")
    1524                            .dwattr $C$DW$62, DW_AT_external
    1525                            .dwattr $C$DW$62, DW_AT_TI_begin_file("../driverlib/hibernate.c")
    1526                            .dwattr $C$DW$62, DW_AT_TI_begin_line(0x2b2)
    1527                            .dwattr $C$DW$62, DW_AT_TI_begin_column(0x01)
    1528                            .dwattr $C$DW$62, DW_AT_decl_file("../driverlib/hibernate.c")
    1529                            .dwattr $C$DW$62, DW_AT_decl_line(0x2b2)
    1530                            .dwattr $C$DW$62, DW_AT_decl_column(0x01)
    1531                            .dwattr $C$DW$62, DW_AT_TI_max_frame_size(0x10)
    1532                            .dwpsn  file "../driverlib/hibernate.c",line 691,column 1,is_stmt,address HibernateRTCMatchSet
    1533                    
    1534                            .dwfde $C$DW$CIE, HibernateRTCMatchSet
    1535                    $C$DW$63        .dwtag  DW_TAG_formal_parameter
    1536                            .dwattr $C$DW$63, DW_AT_name("ui32Match")
    1537                            .dwattr $C$DW$63, DW_AT_TI_symbol_name("ui32Match")
    1538                            .dwattr $C$DW$63, DW_AT_type(*$C$DW$T$33)
    1539                            .dwattr $C$DW$63, DW_AT_location[DW_OP_reg0]
    1540                    
TI ARM Assembler Unix v18.1.1 Fri Jul  3 20:08:24 2020

Tools Copyright (c) 1996-2017 Texas Instruments Incorporated
hibernate.asm                                                        PAGE   29

    1541                    $C$DW$64        .dwtag  DW_TAG_formal_parameter
    1542                            .dwattr $C$DW$64, DW_AT_name("ui32Value")
    1543                            .dwattr $C$DW$64, DW_AT_TI_symbol_name("ui32Value")
    1544                            .dwattr $C$DW$64, DW_AT_type(*$C$DW$T$33)
    1545                            .dwattr $C$DW$64, DW_AT_location[DW_OP_reg1]
    1546                    
    1547                    ;----------------------------------------------------------------------
    1548                    ; 690 | HibernateRTCMatchSet(uint32_t ui32Match, uint32_t ui32Value)           
    1549                    ;----------------------------------------------------------------------
    1550                    
    1551                    ;*****************************************************************************
    1552                    ;* FUNCTION NAME: HibernateRTCMatchSet                                       *
    1553                    ;*                                                                           *
    1554                    ;*   Regs Modified     : A1,A2,A3,A4,SP,LR,SR,FPEXC,FPSCR                    *
    1555                    ;*   Regs Used         : A1,A2,A3,A4,SP,LR,SR,FPEXC,FPSCR                    *
    1556                    ;*   Local Frame Size  : 0 Args + 8 Auto + 4 Save = 12 byte                  *
    1557                    ;*****************************************************************************
    1558 000001ac           HibernateRTCMatchSet:
    1559                    ;* --------------------------------------------------------------------------*
    1560                            .dwcfi  cfa_offset, 0
    1561 000001ac B50E              PUSH      {A2, A3, A4, LR}      ; [DPU_V7M3_PIPE]  ; [ORIG 16-BIT INS]
    1562                            .dwcfi  cfa_offset, 16
    1563                            .dwcfi  save_reg_to_mem, 14, -4
    1564                            .dwcfi  save_reg_to_mem, 3, -8
    1565                            .dwcfi  save_reg_to_mem, 2, -12
    1566                            .dwcfi  save_reg_to_mem, 1, -16
    1567                    $C$DW$65        .dwtag  DW_TAG_variable
    1568                            .dwattr $C$DW$65, DW_AT_name("ui32Match")
    1569                            .dwattr $C$DW$65, DW_AT_TI_symbol_name("ui32Match")
    1570                            .dwattr $C$DW$65, DW_AT_type(*$C$DW$T$33)
    1571                            .dwattr $C$DW$65, DW_AT_location[DW_OP_breg13 0]
    1572                    
    1573                    $C$DW$66        .dwtag  DW_TAG_variable
    1574                            .dwattr $C$DW$66, DW_AT_name("ui32Value")
    1575                            .dwattr $C$DW$66, DW_AT_TI_symbol_name("ui32Value")
    1576                            .dwattr $C$DW$66, DW_AT_type(*$C$DW$T$33)
    1577                            .dwattr $C$DW$66, DW_AT_location[DW_OP_breg13 4]
    1578                    
    1579                    ;----------------------------------------------------------------------
    1580                    ; 692 | ASSERT(ui32Match == 0);                                                
    1581                    ; 694 | //                                                                     
    1582                    ; 695 | // Write the new match value to the match register.                    
    1583                    ; 696 | //                                                                     
    1584                    ;----------------------------------------------------------------------
    1585 000001ae 9101              STR       A2, [SP, #4]          ; [DPU_V7M3_PIPE] |691|  ; [ORIG 16-BIT INS]
    1586 000001b0 9000              STR       A1, [SP, #0]          ; [DPU_V7M3_PIPE] |691|  ; [ORIG 16-BIT INS]
    1587                            .dwpsn  file "../driverlib/hibernate.c",line 697,column 5,is_stmt,isa 1
    1588                    ;----------------------------------------------------------------------
    1589                    ; 697 | HWREG(HIB_RTCM0) = ui32Value;                                          
    1590                    ; 699 | //                                                                     
    1591                    ; 700 | // Wait for write completion                                           
    1592                    ; 701 | //                                                                     
    1593                    ;----------------------------------------------------------------------
    1594 000001b2 4985              LDR       A2, $C$CON12          ; [DPU_V7M3_PIPE] |697|  ; [ORIG 16-BIT INS]
    1595 000001b4 9801              LDR       A1, [SP, #4]          ; [DPU_V7M3_PIPE] |697|  ; [ORIG 16-BIT INS]
TI ARM Assembler Unix v18.1.1 Fri Jul  3 20:08:24 2020

Tools Copyright (c) 1996-2017 Texas Instruments Incorporated
hibernate.asm                                                        PAGE   30

    1596 000001b6 6008              STR       A1, [A2, #0]          ; [DPU_V7M3_PIPE] |697|  ; [ORIG 16-BIT INS]
    1597                            .dwpsn  file "../driverlib/hibernate.c",line 702,column 5,is_stmt,isa 1
    1598                    ;----------------------------------------------------------------------
    1599                    ; 702 | _HibernateWriteComplete();                                             
    1600                    ;----------------------------------------------------------------------
    1601                    $C$DW$67        .dwtag  DW_TAG_TI_branch
    1602                            .dwattr $C$DW$67, DW_AT_low_pc(0x00)
    1603                            .dwattr $C$DW$67, DW_AT_name("_HibernateWriteComplete")
    1604                            .dwattr $C$DW$67, DW_AT_TI_call
    1605                    
    1606 000001b8 FFFEF7FF!         BL        _HibernateWriteComplete ; [DPU_V7M3_PIPE] |702|  ; [KEEP 32-BIT INS]
    1607                            ; CALL OCCURS {_HibernateWriteComplete }  ; [] |702| 
    1608                            .dwpsn  file "../driverlib/hibernate.c",line 703,column 1,is_stmt,isa 1
    1609                    $C$DW$68        .dwtag  DW_TAG_TI_branch
    1610                            .dwattr $C$DW$68, DW_AT_low_pc(0x00)
    1611                            .dwattr $C$DW$68, DW_AT_TI_return
    1612                    
    1613 000001bc BD0E              POP       {A2, A3, A4, PC}      ; [DPU_V7M3_PIPE]  ; [ORIG 16-BIT INS]
    1614                            .dwcfi  cfa_offset, 0
    1615                            .dwcfi  restore_reg, 3
    1616                            .dwcfi  restore_reg, 2
    1617                            .dwcfi  restore_reg, 1
    1618                            ; BRANCH OCCURS                  ; [] 
    1619                            .dwattr $C$DW$62, DW_AT_TI_end_file("../driverlib/hibernate.c")
    1620                            .dwattr $C$DW$62, DW_AT_TI_end_line(0x2bf)
    1621                            .dwattr $C$DW$62, DW_AT_TI_end_column(0x01)
    1622                            .dwendentry
    1623                            .dwendtag $C$DW$62
    1624                    
    1625 000001be                   .sect   ".text"
    1626                            .clink
    1627                            .thumbfunc HibernateRTCMatchGet
    1628 000001be                   .thumb
    1629                            .global HibernateRTCMatchGet
    1630                    
    1631                    $C$DW$69        .dwtag  DW_TAG_subprogram
    1632                            .dwattr $C$DW$69, DW_AT_name("HibernateRTCMatchGet")
    1633                            .dwattr $C$DW$69, DW_AT_low_pc(HibernateRTCMatchGet)
    1634                            .dwattr $C$DW$69, DW_AT_high_pc(0x00)
    1635                            .dwattr $C$DW$69, DW_AT_TI_symbol_name("HibernateRTCMatchGet")
    1636                            .dwattr $C$DW$69, DW_AT_external
    1637                            .dwattr $C$DW$69, DW_AT_type(*$C$DW$T$33)
    1638                            .dwattr $C$DW$69, DW_AT_TI_begin_file("../driverlib/hibernate.c")
    1639                            .dwattr $C$DW$69, DW_AT_TI_begin_line(0x2cf)
    1640                            .dwattr $C$DW$69, DW_AT_TI_begin_column(0x01)
    1641                            .dwattr $C$DW$69, DW_AT_decl_file("../driverlib/hibernate.c")
    1642                            .dwattr $C$DW$69, DW_AT_decl_line(0x2cf)
    1643                            .dwattr $C$DW$69, DW_AT_decl_column(0x01)
    1644                            .dwattr $C$DW$69, DW_AT_TI_max_frame_size(0x08)
    1645                            .dwpsn  file "../driverlib/hibernate.c",line 720,column 1,is_stmt,address HibernateRTCMatchGet
    1646                    
    1647                            .dwfde $C$DW$CIE, HibernateRTCMatchGet
    1648                    $C$DW$70        .dwtag  DW_TAG_formal_parameter
    1649                            .dwattr $C$DW$70, DW_AT_name("ui32Match")
    1650                            .dwattr $C$DW$70, DW_AT_TI_symbol_name("ui32Match")
TI ARM Assembler Unix v18.1.1 Fri Jul  3 20:08:24 2020

Tools Copyright (c) 1996-2017 Texas Instruments Incorporated
hibernate.asm                                                        PAGE   31

    1651                            .dwattr $C$DW$70, DW_AT_type(*$C$DW$T$33)
    1652                            .dwattr $C$DW$70, DW_AT_location[DW_OP_reg0]
    1653                    
    1654                    ;----------------------------------------------------------------------
    1655                    ; 719 | HibernateRTCMatchGet(uint32_t ui32Match)                               
    1656                    ;----------------------------------------------------------------------
    1657                    
    1658                    ;*****************************************************************************
    1659                    ;* FUNCTION NAME: HibernateRTCMatchGet                                       *
    1660                    ;*                                                                           *
    1661                    ;*   Regs Modified     : A1,SP                                               *
    1662                    ;*   Regs Used         : A1,SP,LR                                            *
    1663                    ;*   Local Frame Size  : 0 Args + 4 Auto + 0 Save = 4 byte                   *
    1664                    ;*****************************************************************************
    1665 000001be           HibernateRTCMatchGet:
    1666                    ;* --------------------------------------------------------------------------*
    1667                            .dwcfi  cfa_offset, 0
    1668 000001be 0D08F1AD          SUB       SP, SP, #8            ; [DPU_V7M3_PIPE]  ; [KEEP 32-BIT INS]
    1669                            .dwcfi  cfa_offset, 8
    1670                    $C$DW$71        .dwtag  DW_TAG_variable
    1671                            .dwattr $C$DW$71, DW_AT_name("ui32Match")
    1672                            .dwattr $C$DW$71, DW_AT_TI_symbol_name("ui32Match")
    1673                            .dwattr $C$DW$71, DW_AT_type(*$C$DW$T$33)
    1674                            .dwattr $C$DW$71, DW_AT_location[DW_OP_breg13 0]
    1675                    
    1676                    ;----------------------------------------------------------------------
    1677                    ; 721 | ASSERT(ui32Match == 0);                                                
    1678                    ; 723 | //                                                                     
    1679                    ; 724 | // Return the value of the match register to the caller.               
    1680                    ; 725 | //                                                                     
    1681                    ;----------------------------------------------------------------------
    1682 000001c2 9000              STR       A1, [SP, #0]          ; [DPU_V7M3_PIPE] |720|  ; [ORIG 16-BIT INS]
    1683                            .dwpsn  file "../driverlib/hibernate.c",line 726,column 5,is_stmt,isa 1
    1684                    ;----------------------------------------------------------------------
    1685                    ; 726 | return(HWREG(HIB_RTCM0));                                              
    1686                    ;----------------------------------------------------------------------
    1687 000001c4 4880              LDR       A1, $C$CON12          ; [DPU_V7M3_PIPE] |726|  ; [ORIG 16-BIT INS]
    1688 000001c6 6800              LDR       A1, [A1, #0]          ; [DPU_V7M3_PIPE] |726|  ; [ORIG 16-BIT INS]
    1689                            .dwpsn  file "../driverlib/hibernate.c",line 727,column 1,is_stmt,isa 1
    1690 000001c8 B002              ADD       SP, SP, #8            ; [DPU_V7M3_PIPE]  ; [ORIG 16-BIT INS]
    1691                            .dwcfi  cfa_offset, 0
    1692                    $C$DW$72        .dwtag  DW_TAG_TI_branch
    1693                            .dwattr $C$DW$72, DW_AT_low_pc(0x00)
    1694                            .dwattr $C$DW$72, DW_AT_TI_return
    1695                    
    1696 000001ca 4770              BX        LR                    ; [DPU_V7M3_PIPE]  ; [ORIG 16-BIT INS]
    1697                            ; BRANCH OCCURS                  ; [] 
    1698                            .dwattr $C$DW$69, DW_AT_TI_end_file("../driverlib/hibernate.c")
    1699                            .dwattr $C$DW$69, DW_AT_TI_end_line(0x2d7)
    1700                            .dwattr $C$DW$69, DW_AT_TI_end_column(0x01)
    1701                            .dwendentry
    1702                            .dwendtag $C$DW$69
    1703                    
    1704 000001cc                   .sect   ".text"
    1705                            .clink
TI ARM Assembler Unix v18.1.1 Fri Jul  3 20:08:24 2020

Tools Copyright (c) 1996-2017 Texas Instruments Incorporated
hibernate.asm                                                        PAGE   32

    1706                            .thumbfunc HibernateRTCSSMatchSet
    1707 000001cc                   .thumb
    1708                            .global HibernateRTCSSMatchSet
    1709                    
    1710                    $C$DW$73        .dwtag  DW_TAG_subprogram
    1711                            .dwattr $C$DW$73, DW_AT_name("HibernateRTCSSMatchSet")
    1712                            .dwattr $C$DW$73, DW_AT_low_pc(HibernateRTCSSMatchSet)
    1713                            .dwattr $C$DW$73, DW_AT_high_pc(0x00)
    1714                            .dwattr $C$DW$73, DW_AT_TI_symbol_name("HibernateRTCSSMatchSet")
    1715                            .dwattr $C$DW$73, DW_AT_external
    1716                            .dwattr $C$DW$73, DW_AT_TI_begin_file("../driverlib/hibernate.c")
    1717                            .dwattr $C$DW$73, DW_AT_TI_begin_line(0x2eb)
    1718                            .dwattr $C$DW$73, DW_AT_TI_begin_column(0x01)
    1719                            .dwattr $C$DW$73, DW_AT_decl_file("../driverlib/hibernate.c")
    1720                            .dwattr $C$DW$73, DW_AT_decl_line(0x2eb)
    1721                            .dwattr $C$DW$73, DW_AT_decl_column(0x01)
    1722                            .dwattr $C$DW$73, DW_AT_TI_max_frame_size(0x10)
    1723                            .dwpsn  file "../driverlib/hibernate.c",line 748,column 1,is_stmt,address HibernateRTCSSMatchS
    1724                    
    1725                            .dwfde $C$DW$CIE, HibernateRTCSSMatchSet
    1726                    $C$DW$74        .dwtag  DW_TAG_formal_parameter
    1727                            .dwattr $C$DW$74, DW_AT_name("ui32Match")
    1728                            .dwattr $C$DW$74, DW_AT_TI_symbol_name("ui32Match")
    1729                            .dwattr $C$DW$74, DW_AT_type(*$C$DW$T$33)
    1730                            .dwattr $C$DW$74, DW_AT_location[DW_OP_reg0]
    1731                    
    1732                    $C$DW$75        .dwtag  DW_TAG_formal_parameter
    1733                            .dwattr $C$DW$75, DW_AT_name("ui32Value")
    1734                            .dwattr $C$DW$75, DW_AT_TI_symbol_name("ui32Value")
    1735                            .dwattr $C$DW$75, DW_AT_type(*$C$DW$T$33)
    1736                            .dwattr $C$DW$75, DW_AT_location[DW_OP_reg1]
    1737                    
    1738                    ;----------------------------------------------------------------------
    1739                    ; 747 | HibernateRTCSSMatchSet(uint32_t ui32Match, uint32_t ui32Value)         
    1740                    ;----------------------------------------------------------------------
    1741                    
    1742                    ;*****************************************************************************
    1743                    ;* FUNCTION NAME: HibernateRTCSSMatchSet                                     *
    1744                    ;*                                                                           *
    1745                    ;*   Regs Modified     : A1,A2,A3,A4,SP,LR,SR,FPEXC,FPSCR                    *
    1746                    ;*   Regs Used         : A1,A2,A3,A4,SP,LR,SR,FPEXC,FPSCR                    *
    1747                    ;*   Local Frame Size  : 0 Args + 8 Auto + 4 Save = 12 byte                  *
    1748                    ;*****************************************************************************
    1749 000001cc           HibernateRTCSSMatchSet:
    1750                    ;* --------------------------------------------------------------------------*
    1751                            .dwcfi  cfa_offset, 0
    1752 000001cc B50E              PUSH      {A2, A3, A4, LR}      ; [DPU_V7M3_PIPE]  ; [ORIG 16-BIT INS]
    1753                            .dwcfi  cfa_offset, 16
    1754                            .dwcfi  save_reg_to_mem, 14, -4
    1755                            .dwcfi  save_reg_to_mem, 3, -8
    1756                            .dwcfi  save_reg_to_mem, 2, -12
    1757                            .dwcfi  save_reg_to_mem, 1, -16
    1758                    $C$DW$76        .dwtag  DW_TAG_variable
    1759                            .dwattr $C$DW$76, DW_AT_name("ui32Match")
    1760                            .dwattr $C$DW$76, DW_AT_TI_symbol_name("ui32Match")
TI ARM Assembler Unix v18.1.1 Fri Jul  3 20:08:24 2020

Tools Copyright (c) 1996-2017 Texas Instruments Incorporated
hibernate.asm                                                        PAGE   33

    1761                            .dwattr $C$DW$76, DW_AT_type(*$C$DW$T$33)
    1762                            .dwattr $C$DW$76, DW_AT_location[DW_OP_breg13 0]
    1763                    
    1764                    $C$DW$77        .dwtag  DW_TAG_variable
    1765                            .dwattr $C$DW$77, DW_AT_name("ui32Value")
    1766                            .dwattr $C$DW$77, DW_AT_TI_symbol_name("ui32Value")
    1767                            .dwattr $C$DW$77, DW_AT_type(*$C$DW$T$33)
    1768                            .dwattr $C$DW$77, DW_AT_location[DW_OP_breg13 4]
    1769                    
    1770                    ;----------------------------------------------------------------------
    1771                    ; 749 | ASSERT(ui32Match == 0);                                                
    1772                    ; 751 | //                                                                     
    1773                    ; 752 | // Write the new sub second match value to the sub second match registe
    1774                    ;     | r.                                                                     
    1775                    ; 753 | //                                                                     
    1776                    ;----------------------------------------------------------------------
    1777 000001ce 9101              STR       A2, [SP, #4]          ; [DPU_V7M3_PIPE] |748|  ; [ORIG 16-BIT INS]
    1778 000001d0 9000              STR       A1, [SP, #0]          ; [DPU_V7M3_PIPE] |748|  ; [ORIG 16-BIT INS]
    1779                            .dwpsn  file "../driverlib/hibernate.c",line 754,column 5,is_stmt,isa 1
    1780                    ;----------------------------------------------------------------------
    1781                    ; 754 | HWREG(HIB_RTCSS) = ui32Value << HIB_RTCSS_RTCSSM_S;                    
    1782                    ; 756 | //                                                                     
    1783                    ; 757 | // Wait for write complete to be signaled on later devices.            
    1784                    ; 758 | //                                                                     
    1785                    ;----------------------------------------------------------------------
    1786 000001d2 497E              LDR       A2, $C$CON13          ; [DPU_V7M3_PIPE] |754|  ; [ORIG 16-BIT INS]
    1787 000001d4 9801              LDR       A1, [SP, #4]          ; [DPU_V7M3_PIPE] |754|  ; [ORIG 16-BIT INS]
    1788 000001d6 0400              LSLS      A1, A1, #16           ; [DPU_V7M3_PIPE] |754|  ; [ORIG 16-BIT INS]
    1789 000001d8 6008              STR       A1, [A2, #0]          ; [DPU_V7M3_PIPE] |754|  ; [ORIG 16-BIT INS]
    1790                            .dwpsn  file "../driverlib/hibernate.c",line 759,column 5,is_stmt,isa 1
    1791                    ;----------------------------------------------------------------------
    1792                    ; 759 | _HibernateWriteComplete();                                             
    1793                    ;----------------------------------------------------------------------
    1794                    $C$DW$78        .dwtag  DW_TAG_TI_branch
    1795                            .dwattr $C$DW$78, DW_AT_low_pc(0x00)
    1796                            .dwattr $C$DW$78, DW_AT_name("_HibernateWriteComplete")
    1797                            .dwattr $C$DW$78, DW_AT_TI_call
    1798                    
    1799 000001da FFFEF7FF!         BL        _HibernateWriteComplete ; [DPU_V7M3_PIPE] |759|  ; [KEEP 32-BIT INS]
    1800                            ; CALL OCCURS {_HibernateWriteComplete }  ; [] |759| 
    1801                            .dwpsn  file "../driverlib/hibernate.c",line 760,column 1,is_stmt,isa 1
    1802                    $C$DW$79        .dwtag  DW_TAG_TI_branch
    1803                            .dwattr $C$DW$79, DW_AT_low_pc(0x00)
    1804                            .dwattr $C$DW$79, DW_AT_TI_return
    1805                    
    1806 000001de BD0E              POP       {A2, A3, A4, PC}      ; [DPU_V7M3_PIPE]  ; [ORIG 16-BIT INS]
    1807                            .dwcfi  cfa_offset, 0
    1808                            .dwcfi  restore_reg, 3
    1809                            .dwcfi  restore_reg, 2
    1810                            .dwcfi  restore_reg, 1
    1811                            ; BRANCH OCCURS                  ; [] 
    1812                            .dwattr $C$DW$73, DW_AT_TI_end_file("../driverlib/hibernate.c")
    1813                            .dwattr $C$DW$73, DW_AT_TI_end_line(0x2f8)
    1814                            .dwattr $C$DW$73, DW_AT_TI_end_column(0x01)
    1815                            .dwendentry
TI ARM Assembler Unix v18.1.1 Fri Jul  3 20:08:24 2020

Tools Copyright (c) 1996-2017 Texas Instruments Incorporated
hibernate.asm                                                        PAGE   34

    1816                            .dwendtag $C$DW$73
    1817                    
    1818 000001e0                   .sect   ".text"
    1819                            .clink
    1820                            .thumbfunc HibernateRTCSSMatchGet
    1821 000001e0                   .thumb
    1822                            .global HibernateRTCSSMatchGet
    1823                    
    1824                    $C$DW$80        .dwtag  DW_TAG_subprogram
    1825                            .dwattr $C$DW$80, DW_AT_name("HibernateRTCSSMatchGet")
    1826                            .dwattr $C$DW$80, DW_AT_low_pc(HibernateRTCSSMatchGet)
    1827                            .dwattr $C$DW$80, DW_AT_high_pc(0x00)
    1828                            .dwattr $C$DW$80, DW_AT_TI_symbol_name("HibernateRTCSSMatchGet")
    1829                            .dwattr $C$DW$80, DW_AT_external
    1830                            .dwattr $C$DW$80, DW_AT_type(*$C$DW$T$33)
    1831                            .dwattr $C$DW$80, DW_AT_TI_begin_file("../driverlib/hibernate.c")
    1832                            .dwattr $C$DW$80, DW_AT_TI_begin_line(0x309)
    1833                            .dwattr $C$DW$80, DW_AT_TI_begin_column(0x01)
    1834                            .dwattr $C$DW$80, DW_AT_decl_file("../driverlib/hibernate.c")
    1835                            .dwattr $C$DW$80, DW_AT_decl_line(0x309)
    1836                            .dwattr $C$DW$80, DW_AT_decl_column(0x01)
    1837                            .dwattr $C$DW$80, DW_AT_TI_max_frame_size(0x08)
    1838                            .dwpsn  file "../driverlib/hibernate.c",line 778,column 1,is_stmt,address HibernateRTCSSMatchG
    1839                    
    1840                            .dwfde $C$DW$CIE, HibernateRTCSSMatchGet
    1841                    $C$DW$81        .dwtag  DW_TAG_formal_parameter
    1842                            .dwattr $C$DW$81, DW_AT_name("ui32Match")
    1843                            .dwattr $C$DW$81, DW_AT_TI_symbol_name("ui32Match")
    1844                            .dwattr $C$DW$81, DW_AT_type(*$C$DW$T$33)
    1845                            .dwattr $C$DW$81, DW_AT_location[DW_OP_reg0]
    1846                    
    1847                    ;----------------------------------------------------------------------
    1848                    ; 777 | HibernateRTCSSMatchGet(uint32_t ui32Match)                             
    1849                    ;----------------------------------------------------------------------
    1850                    
    1851                    ;*****************************************************************************
    1852                    ;* FUNCTION NAME: HibernateRTCSSMatchGet                                     *
    1853                    ;*                                                                           *
    1854                    ;*   Regs Modified     : A1,SP,SR                                            *
    1855                    ;*   Regs Used         : A1,SP,LR,SR                                         *
    1856                    ;*   Local Frame Size  : 0 Args + 4 Auto + 0 Save = 4 byte                   *
    1857                    ;*****************************************************************************
    1858 000001e0           HibernateRTCSSMatchGet:
    1859                    ;* --------------------------------------------------------------------------*
    1860                            .dwcfi  cfa_offset, 0
    1861 000001e0 0D08F1AD          SUB       SP, SP, #8            ; [DPU_V7M3_PIPE]  ; [KEEP 32-BIT INS]
    1862                            .dwcfi  cfa_offset, 8
    1863                    $C$DW$82        .dwtag  DW_TAG_variable
    1864                            .dwattr $C$DW$82, DW_AT_name("ui32Match")
    1865                            .dwattr $C$DW$82, DW_AT_TI_symbol_name("ui32Match")
    1866                            .dwattr $C$DW$82, DW_AT_type(*$C$DW$T$33)
    1867                            .dwattr $C$DW$82, DW_AT_location[DW_OP_breg13 0]
    1868                    
    1869                    ;----------------------------------------------------------------------
    1870                    ; 779 | ASSERT(ui32Match == 0);                                                
TI ARM Assembler Unix v18.1.1 Fri Jul  3 20:08:24 2020

Tools Copyright (c) 1996-2017 Texas Instruments Incorporated
hibernate.asm                                                        PAGE   35

    1871                    ; 781 | //                                                                     
    1872                    ; 782 | // Read the current second RTC count.                                  
    1873                    ; 783 | //                                                                     
    1874                    ;----------------------------------------------------------------------
    1875 000001e4 9000              STR       A1, [SP, #0]          ; [DPU_V7M3_PIPE] |778|  ; [ORIG 16-BIT INS]
    1876                            .dwpsn  file "../driverlib/hibernate.c",line 784,column 5,is_stmt,isa 1
    1877                    ;----------------------------------------------------------------------
    1878                    ; 784 | return(HWREG(HIB_RTCSS) >> HIB_RTCSS_RTCSSM_S);                        
    1879                    ;----------------------------------------------------------------------
    1880 000001e6 4879              LDR       A1, $C$CON13          ; [DPU_V7M3_PIPE] |784|  ; [ORIG 16-BIT INS]
    1881 000001e8 6800              LDR       A1, [A1, #0]          ; [DPU_V7M3_PIPE] |784|  ; [ORIG 16-BIT INS]
    1882 000001ea 0C00              LSRS      A1, A1, #16           ; [DPU_V7M3_PIPE] |784|  ; [ORIG 16-BIT INS]
    1883                            .dwpsn  file "../driverlib/hibernate.c",line 785,column 1,is_stmt,isa 1
    1884 000001ec B002              ADD       SP, SP, #8            ; [DPU_V7M3_PIPE]  ; [ORIG 16-BIT INS]
    1885                            .dwcfi  cfa_offset, 0
    1886                    $C$DW$83        .dwtag  DW_TAG_TI_branch
    1887                            .dwattr $C$DW$83, DW_AT_low_pc(0x00)
    1888                            .dwattr $C$DW$83, DW_AT_TI_return
    1889                    
    1890 000001ee 4770              BX        LR                    ; [DPU_V7M3_PIPE]  ; [ORIG 16-BIT INS]
    1891                            ; BRANCH OCCURS                  ; [] 
    1892                            .dwattr $C$DW$80, DW_AT_TI_end_file("../driverlib/hibernate.c")
    1893                            .dwattr $C$DW$80, DW_AT_TI_end_line(0x311)
    1894                            .dwattr $C$DW$80, DW_AT_TI_end_column(0x01)
    1895                            .dwendentry
    1896                            .dwendtag $C$DW$80
    1897                    
    1898 000001f0                   .sect   ".text"
    1899                            .clink
    1900                            .thumbfunc HibernateRTCSSGet
    1901 000001f0                   .thumb
    1902                            .global HibernateRTCSSGet
    1903                    
    1904                    $C$DW$84        .dwtag  DW_TAG_subprogram
    1905                            .dwattr $C$DW$84, DW_AT_name("HibernateRTCSSGet")
    1906                            .dwattr $C$DW$84, DW_AT_low_pc(HibernateRTCSSGet)
    1907                            .dwattr $C$DW$84, DW_AT_high_pc(0x00)
    1908                            .dwattr $C$DW$84, DW_AT_TI_symbol_name("HibernateRTCSSGet")
    1909                            .dwattr $C$DW$84, DW_AT_external
    1910                            .dwattr $C$DW$84, DW_AT_type(*$C$DW$T$33)
    1911                            .dwattr $C$DW$84, DW_AT_TI_begin_file("../driverlib/hibernate.c")
    1912                            .dwattr $C$DW$84, DW_AT_TI_begin_line(0x320)
    1913                            .dwattr $C$DW$84, DW_AT_TI_begin_column(0x01)
    1914                            .dwattr $C$DW$84, DW_AT_decl_file("../driverlib/hibernate.c")
    1915                            .dwattr $C$DW$84, DW_AT_decl_line(0x320)
    1916                            .dwattr $C$DW$84, DW_AT_decl_column(0x01)
    1917                            .dwattr $C$DW$84, DW_AT_TI_max_frame_size(0x00)
    1918                            .dwpsn  file "../driverlib/hibernate.c",line 801,column 1,is_stmt,address HibernateRTCSSGet,is
    1919                    
    1920                            .dwfde $C$DW$CIE, HibernateRTCSSGet
    1921                    ;----------------------------------------------------------------------
    1922                    ; 800 | HibernateRTCSSGet(void)                                                
    1923                    ; 802 | //                                                                     
    1924                    ; 803 | // Read the current second RTC count.                                  
    1925                    ; 804 | //                                                                     
TI ARM Assembler Unix v18.1.1 Fri Jul  3 20:08:24 2020

Tools Copyright (c) 1996-2017 Texas Instruments Incorporated
hibernate.asm                                                        PAGE   36

    1926                    ;----------------------------------------------------------------------
    1927                    
    1928                    ;*****************************************************************************
    1929                    ;* FUNCTION NAME: HibernateRTCSSGet                                          *
    1930                    ;*                                                                           *
    1931                    ;*   Regs Modified     : A1                                                  *
    1932                    ;*   Regs Used         : A1,LR                                               *
    1933                    ;*   Local Frame Size  : 0 Args + 0 Auto + 0 Save = 0 byte                   *
    1934                    ;*****************************************************************************
    1935 000001f0           HibernateRTCSSGet:
    1936                    ;* --------------------------------------------------------------------------*
    1937                            .dwcfi  cfa_offset, 0
    1938                            .dwpsn  file "../driverlib/hibernate.c",line 805,column 5,is_stmt,isa 1
    1939                    ;----------------------------------------------------------------------
    1940                    ; 805 | return(HWREG(HIB_RTCSS) & HIB_RTCSS_RTCSSC_M);                         
    1941                    ;----------------------------------------------------------------------
    1942 000001f0 4876              LDR       A1, $C$CON13          ; [DPU_V7M3_PIPE] |805|  ; [ORIG 16-BIT INS]
    1943 000001f2 6800              LDR       A1, [A1, #0]          ; [DPU_V7M3_PIPE] |805|  ; [ORIG 16-BIT INS]
    1944 000001f4 000EF3C0          UBFX      A1, A1, #0, #15       ; [DPU_V7M3_PIPE] |805|  ; [KEEP 32-BIT INS]
    1945                            .dwpsn  file "../driverlib/hibernate.c",line 806,column 1,is_stmt,isa 1
    1946                    $C$DW$85        .dwtag  DW_TAG_TI_branch
    1947                            .dwattr $C$DW$85, DW_AT_low_pc(0x00)
    1948                            .dwattr $C$DW$85, DW_AT_TI_return
    1949                    
    1950 000001f8 4770              BX        LR                    ; [DPU_V7M3_PIPE]  ; [ORIG 16-BIT INS]
    1951                            ; BRANCH OCCURS                  ; [] 
    1952                            .dwattr $C$DW$84, DW_AT_TI_end_file("../driverlib/hibernate.c")
    1953                            .dwattr $C$DW$84, DW_AT_TI_end_line(0x326)
    1954                            .dwattr $C$DW$84, DW_AT_TI_end_column(0x01)
    1955                            .dwendentry
    1956                            .dwendtag $C$DW$84
    1957                    
    1958 000001fa                   .sect   ".text"
    1959                            .clink
    1960                            .thumbfunc HibernateRTCTrimSet
    1961 000001fa                   .thumb
    1962                            .global HibernateRTCTrimSet
    1963                    
    1964                    $C$DW$86        .dwtag  DW_TAG_subprogram
    1965                            .dwattr $C$DW$86, DW_AT_name("HibernateRTCTrimSet")
    1966                            .dwattr $C$DW$86, DW_AT_low_pc(HibernateRTCTrimSet)
    1967                            .dwattr $C$DW$86, DW_AT_high_pc(0x00)
    1968                            .dwattr $C$DW$86, DW_AT_TI_symbol_name("HibernateRTCTrimSet")
    1969                            .dwattr $C$DW$86, DW_AT_external
    1970                            .dwattr $C$DW$86, DW_AT_TI_begin_file("../driverlib/hibernate.c")
    1971                            .dwattr $C$DW$86, DW_AT_TI_begin_line(0x33b)
    1972                            .dwattr $C$DW$86, DW_AT_TI_begin_column(0x01)
    1973                            .dwattr $C$DW$86, DW_AT_decl_file("../driverlib/hibernate.c")
    1974                            .dwattr $C$DW$86, DW_AT_decl_line(0x33b)
    1975                            .dwattr $C$DW$86, DW_AT_decl_column(0x01)
    1976                            .dwattr $C$DW$86, DW_AT_TI_max_frame_size(0x08)
    1977                            .dwpsn  file "../driverlib/hibernate.c",line 828,column 1,is_stmt,address HibernateRTCTrimSet,
    1978                    
    1979                            .dwfde $C$DW$CIE, HibernateRTCTrimSet
    1980                    $C$DW$87        .dwtag  DW_TAG_formal_parameter
TI ARM Assembler Unix v18.1.1 Fri Jul  3 20:08:24 2020

Tools Copyright (c) 1996-2017 Texas Instruments Incorporated
hibernate.asm                                                        PAGE   37

    1981                            .dwattr $C$DW$87, DW_AT_name("ui32Trim")
    1982                            .dwattr $C$DW$87, DW_AT_TI_symbol_name("ui32Trim")
    1983                            .dwattr $C$DW$87, DW_AT_type(*$C$DW$T$33)
    1984                            .dwattr $C$DW$87, DW_AT_location[DW_OP_reg0]
    1985                    
    1986                    ;----------------------------------------------------------------------
    1987                    ; 827 | HibernateRTCTrimSet(uint32_t ui32Trim)                                 
    1988                    ;----------------------------------------------------------------------
    1989                    
    1990                    ;*****************************************************************************
    1991                    ;* FUNCTION NAME: HibernateRTCTrimSet                                        *
    1992                    ;*                                                                           *
    1993                    ;*   Regs Modified     : A1,A2,A4,SP,LR,SR,FPEXC,FPSCR                       *
    1994                    ;*   Regs Used         : A1,A2,A4,SP,LR,SR,FPEXC,FPSCR                       *
    1995                    ;*   Local Frame Size  : 0 Args + 4 Auto + 4 Save = 8 byte                   *
    1996                    ;*****************************************************************************
    1997 000001fa           HibernateRTCTrimSet:
    1998                    ;* --------------------------------------------------------------------------*
    1999                            .dwcfi  cfa_offset, 0
    2000 000001fa B508              PUSH      {A4, LR}              ; [DPU_V7M3_PIPE]  ; [ORIG 16-BIT INS]
    2001                            .dwcfi  cfa_offset, 8
    2002                            .dwcfi  save_reg_to_mem, 14, -4
    2003                            .dwcfi  save_reg_to_mem, 3, -8
    2004                    $C$DW$88        .dwtag  DW_TAG_variable
    2005                            .dwattr $C$DW$88, DW_AT_name("ui32Trim")
    2006                            .dwattr $C$DW$88, DW_AT_TI_symbol_name("ui32Trim")
    2007                            .dwattr $C$DW$88, DW_AT_type(*$C$DW$T$33)
    2008                            .dwattr $C$DW$88, DW_AT_location[DW_OP_breg13 0]
    2009                    
    2010                    ;----------------------------------------------------------------------
    2011                    ; 829 | //                                                                     
    2012                    ; 830 | // Check the arguments.                                                
    2013                    ; 831 | //                                                                     
    2014                    ; 832 | ASSERT(ui32Trim < 0x10000);                                            
    2015                    ; 834 | //                                                                     
    2016                    ; 835 | // Write the new trim value to the trim register.                      
    2017                    ; 836 | //                                                                     
    2018                    ;----------------------------------------------------------------------
    2019 000001fc 9000              STR       A1, [SP, #0]          ; [DPU_V7M3_PIPE] |828|  ; [ORIG 16-BIT INS]
    2020                            .dwpsn  file "../driverlib/hibernate.c",line 837,column 5,is_stmt,isa 1
    2021                    ;----------------------------------------------------------------------
    2022                    ; 837 | HWREG(HIB_RTCT) = ui32Trim;                                            
    2023                    ; 839 | //                                                                     
    2024                    ; 840 | // Wait for write completion                                           
    2025                    ; 841 | //                                                                     
    2026                    ;----------------------------------------------------------------------
    2027 000001fe 4974              LDR       A2, $C$CON14          ; [DPU_V7M3_PIPE] |837|  ; [ORIG 16-BIT INS]
    2028 00000200 9800              LDR       A1, [SP, #0]          ; [DPU_V7M3_PIPE] |837|  ; [ORIG 16-BIT INS]
    2029 00000202 6008              STR       A1, [A2, #0]          ; [DPU_V7M3_PIPE] |837|  ; [ORIG 16-BIT INS]
    2030                            .dwpsn  file "../driverlib/hibernate.c",line 842,column 5,is_stmt,isa 1
    2031                    ;----------------------------------------------------------------------
    2032                    ; 842 | _HibernateWriteComplete();                                             
    2033                    ;----------------------------------------------------------------------
    2034                    $C$DW$89        .dwtag  DW_TAG_TI_branch
    2035                            .dwattr $C$DW$89, DW_AT_low_pc(0x00)
TI ARM Assembler Unix v18.1.1 Fri Jul  3 20:08:24 2020

Tools Copyright (c) 1996-2017 Texas Instruments Incorporated
hibernate.asm                                                        PAGE   38

    2036                            .dwattr $C$DW$89, DW_AT_name("_HibernateWriteComplete")
    2037                            .dwattr $C$DW$89, DW_AT_TI_call
    2038                    
    2039 00000204 FFFEF7FF!         BL        _HibernateWriteComplete ; [DPU_V7M3_PIPE] |842|  ; [KEEP 32-BIT INS]
    2040                            ; CALL OCCURS {_HibernateWriteComplete }  ; [] |842| 
    2041                            .dwpsn  file "../driverlib/hibernate.c",line 843,column 1,is_stmt,isa 1
    2042                    $C$DW$90        .dwtag  DW_TAG_TI_branch
    2043                            .dwattr $C$DW$90, DW_AT_low_pc(0x00)
    2044                            .dwattr $C$DW$90, DW_AT_TI_return
    2045                    
    2046 00000208 BD08              POP       {A4, PC}              ; [DPU_V7M3_PIPE]  ; [ORIG 16-BIT INS]
    2047                            .dwcfi  cfa_offset, 0
    2048                            .dwcfi  restore_reg, 3
    2049                            ; BRANCH OCCURS                  ; [] 
    2050                            .dwattr $C$DW$86, DW_AT_TI_end_file("../driverlib/hibernate.c")
    2051                            .dwattr $C$DW$86, DW_AT_TI_end_line(0x34b)
    2052                            .dwattr $C$DW$86, DW_AT_TI_end_column(0x01)
    2053                            .dwendentry
    2054                            .dwendtag $C$DW$86
    2055                    
    2056 0000020a                   .sect   ".text"
    2057                            .clink
    2058                            .thumbfunc HibernateRTCTrimGet
    2059 0000020a                   .thumb
    2060                            .global HibernateRTCTrimGet
    2061                    
    2062                    $C$DW$91        .dwtag  DW_TAG_subprogram
    2063                            .dwattr $C$DW$91, DW_AT_name("HibernateRTCTrimGet")
    2064                            .dwattr $C$DW$91, DW_AT_low_pc(HibernateRTCTrimGet)
    2065                            .dwattr $C$DW$91, DW_AT_high_pc(0x00)
    2066                            .dwattr $C$DW$91, DW_AT_TI_symbol_name("HibernateRTCTrimGet")
    2067                            .dwattr $C$DW$91, DW_AT_external
    2068                            .dwattr $C$DW$91, DW_AT_type(*$C$DW$T$33)
    2069                            .dwattr $C$DW$91, DW_AT_TI_begin_file("../driverlib/hibernate.c")
    2070                            .dwattr $C$DW$91, DW_AT_TI_begin_line(0x359)
    2071                            .dwattr $C$DW$91, DW_AT_TI_begin_column(0x01)
    2072                            .dwattr $C$DW$91, DW_AT_decl_file("../driverlib/hibernate.c")
    2073                            .dwattr $C$DW$91, DW_AT_decl_line(0x359)
    2074                            .dwattr $C$DW$91, DW_AT_decl_column(0x01)
    2075                            .dwattr $C$DW$91, DW_AT_TI_max_frame_size(0x00)
    2076                            .dwpsn  file "../driverlib/hibernate.c",line 858,column 1,is_stmt,address HibernateRTCTrimGet,
    2077                    
    2078                            .dwfde $C$DW$CIE, HibernateRTCTrimGet
    2079                    ;----------------------------------------------------------------------
    2080                    ; 857 | HibernateRTCTrimGet(void)                                              
    2081                    ; 859 | //                                                                     
    2082                    ; 860 | // Return the value of the trim register to the caller.                
    2083                    ; 861 | //                                                                     
    2084                    ;----------------------------------------------------------------------
    2085                    
    2086                    ;*****************************************************************************
    2087                    ;* FUNCTION NAME: HibernateRTCTrimGet                                        *
    2088                    ;*                                                                           *
    2089                    ;*   Regs Modified     : A1                                                  *
    2090                    ;*   Regs Used         : A1,LR                                               *
TI ARM Assembler Unix v18.1.1 Fri Jul  3 20:08:24 2020

Tools Copyright (c) 1996-2017 Texas Instruments Incorporated
hibernate.asm                                                        PAGE   39

    2091                    ;*   Local Frame Size  : 0 Args + 0 Auto + 0 Save = 0 byte                   *
    2092                    ;*****************************************************************************
    2093 0000020a           HibernateRTCTrimGet:
    2094                    ;* --------------------------------------------------------------------------*
    2095                            .dwcfi  cfa_offset, 0
    2096                            .dwpsn  file "../driverlib/hibernate.c",line 862,column 5,is_stmt,isa 1
    2097                    ;----------------------------------------------------------------------
    2098                    ; 862 | return(HWREG(HIB_RTCT));                                               
    2099                    ;----------------------------------------------------------------------
    2100 0000020a 4871              LDR       A1, $C$CON14          ; [DPU_V7M3_PIPE] |862|  ; [ORIG 16-BIT INS]
    2101 0000020c 6800              LDR       A1, [A1, #0]          ; [DPU_V7M3_PIPE] |862|  ; [ORIG 16-BIT INS]
    2102                            .dwpsn  file "../driverlib/hibernate.c",line 863,column 1,is_stmt,isa 1
    2103                    $C$DW$92        .dwtag  DW_TAG_TI_branch
    2104                            .dwattr $C$DW$92, DW_AT_low_pc(0x00)
    2105                            .dwattr $C$DW$92, DW_AT_TI_return
    2106                    
    2107 0000020e 4770              BX        LR                    ; [DPU_V7M3_PIPE]  ; [ORIG 16-BIT INS]
    2108                            ; BRANCH OCCURS                  ; [] 
    2109                            .dwattr $C$DW$91, DW_AT_TI_end_file("../driverlib/hibernate.c")
    2110                            .dwattr $C$DW$91, DW_AT_TI_end_line(0x35f)
    2111                            .dwattr $C$DW$91, DW_AT_TI_end_column(0x01)
    2112                            .dwendentry
    2113                            .dwendtag $C$DW$91
    2114                    
    2115 00000210                   .sect   ".text"
    2116                            .clink
    2117                            .thumbfunc HibernateDataSet
    2118 00000210                   .thumb
    2119                            .global HibernateDataSet
    2120                    
    2121                    $C$DW$93        .dwtag  DW_TAG_subprogram
    2122                            .dwattr $C$DW$93, DW_AT_name("HibernateDataSet")
    2123                            .dwattr $C$DW$93, DW_AT_low_pc(HibernateDataSet)
    2124                            .dwattr $C$DW$93, DW_AT_high_pc(0x00)
    2125                            .dwattr $C$DW$93, DW_AT_TI_symbol_name("HibernateDataSet")
    2126                            .dwattr $C$DW$93, DW_AT_external
    2127                            .dwattr $C$DW$93, DW_AT_TI_begin_file("../driverlib/hibernate.c")
    2128                            .dwattr $C$DW$93, DW_AT_TI_begin_line(0x374)
    2129                            .dwattr $C$DW$93, DW_AT_TI_begin_column(0x01)
    2130                            .dwattr $C$DW$93, DW_AT_decl_file("../driverlib/hibernate.c")
    2131                            .dwattr $C$DW$93, DW_AT_decl_line(0x374)
    2132                            .dwattr $C$DW$93, DW_AT_decl_column(0x01)
    2133                            .dwattr $C$DW$93, DW_AT_TI_max_frame_size(0x10)
    2134                            .dwpsn  file "../driverlib/hibernate.c",line 885,column 1,is_stmt,address HibernateDataSet,isa
    2135                    
    2136                            .dwfde $C$DW$CIE, HibernateDataSet
    2137                    $C$DW$94        .dwtag  DW_TAG_formal_parameter
    2138                            .dwattr $C$DW$94, DW_AT_name("pui32Data")
    2139                            .dwattr $C$DW$94, DW_AT_TI_symbol_name("pui32Data")
    2140                            .dwattr $C$DW$94, DW_AT_type(*$C$DW$T$39)
    2141                            .dwattr $C$DW$94, DW_AT_location[DW_OP_reg0]
    2142                    
    2143                    $C$DW$95        .dwtag  DW_TAG_formal_parameter
    2144                            .dwattr $C$DW$95, DW_AT_name("ui32Count")
    2145                            .dwattr $C$DW$95, DW_AT_TI_symbol_name("ui32Count")
TI ARM Assembler Unix v18.1.1 Fri Jul  3 20:08:24 2020

Tools Copyright (c) 1996-2017 Texas Instruments Incorporated
hibernate.asm                                                        PAGE   40

    2146                            .dwattr $C$DW$95, DW_AT_type(*$C$DW$T$33)
    2147                            .dwattr $C$DW$95, DW_AT_location[DW_OP_reg1]
    2148                    
    2149                    ;----------------------------------------------------------------------
    2150                    ; 884 | HibernateDataSet(uint32_t *pui32Data, uint32_t ui32Count)              
    2151                    ;----------------------------------------------------------------------
    2152                    
    2153                    ;*****************************************************************************
    2154                    ;* FUNCTION NAME: HibernateDataSet                                           *
    2155                    ;*                                                                           *
    2156                    ;*   Regs Modified     : A1,A2,A3,A4,SP,LR,SR,FPEXC,FPSCR                    *
    2157                    ;*   Regs Used         : A1,A2,A3,A4,SP,LR,SR,FPEXC,FPSCR                    *
    2158                    ;*   Local Frame Size  : 0 Args + 12 Auto + 4 Save = 16 byte                 *
    2159                    ;*****************************************************************************
    2160 00000210           HibernateDataSet:
    2161                    ;* --------------------------------------------------------------------------*
    2162                            .dwcfi  cfa_offset, 0
    2163 00000210 B50E              PUSH      {A2, A3, A4, LR}      ; [DPU_V7M3_PIPE]  ; [ORIG 16-BIT INS]
    2164                            .dwcfi  cfa_offset, 16
    2165                            .dwcfi  save_reg_to_mem, 14, -4
    2166                            .dwcfi  save_reg_to_mem, 3, -8
    2167                            .dwcfi  save_reg_to_mem, 2, -12
    2168                            .dwcfi  save_reg_to_mem, 1, -16
    2169                    $C$DW$96        .dwtag  DW_TAG_variable
    2170                            .dwattr $C$DW$96, DW_AT_name("pui32Data")
    2171                            .dwattr $C$DW$96, DW_AT_TI_symbol_name("pui32Data")
    2172                            .dwattr $C$DW$96, DW_AT_type(*$C$DW$T$39)
    2173                            .dwattr $C$DW$96, DW_AT_location[DW_OP_breg13 0]
    2174                    
    2175                    $C$DW$97        .dwtag  DW_TAG_variable
    2176                            .dwattr $C$DW$97, DW_AT_name("ui32Count")
    2177                            .dwattr $C$DW$97, DW_AT_TI_symbol_name("ui32Count")
    2178                            .dwattr $C$DW$97, DW_AT_type(*$C$DW$T$33)
    2179                            .dwattr $C$DW$97, DW_AT_location[DW_OP_breg13 4]
    2180                    
    2181                    $C$DW$98        .dwtag  DW_TAG_variable
    2182                            .dwattr $C$DW$98, DW_AT_name("ui32Idx")
    2183                            .dwattr $C$DW$98, DW_AT_TI_symbol_name("ui32Idx")
    2184                            .dwattr $C$DW$98, DW_AT_type(*$C$DW$T$33)
    2185                            .dwattr $C$DW$98, DW_AT_location[DW_OP_breg13 8]
    2186                    
    2187                    ;----------------------------------------------------------------------
    2188                    ; 886 | uint32_t ui32Idx;                                                      
    2189                    ; 888 | //                                                                     
    2190                    ; 889 | // Check the arguments.                                                
    2191                    ; 890 | //                                                                     
    2192                    ; 891 | ASSERT(ui32Count <= 64);                                               
    2193                    ; 892 | ASSERT(pui32Data != 0);                                                
    2194                    ; 894 | //                                                                     
    2195                    ; 895 | // Loop through all the words to be stored, storing one at a time.     
    2196                    ; 896 | //                                                                     
    2197                    ;----------------------------------------------------------------------
    2198 00000212 9101              STR       A2, [SP, #4]          ; [DPU_V7M3_PIPE] |885|  ; [ORIG 16-BIT INS]
    2199 00000214 9000              STR       A1, [SP, #0]          ; [DPU_V7M3_PIPE] |885|  ; [ORIG 16-BIT INS]
    2200                            .dwpsn  file "../driverlib/hibernate.c",line 897,column 9,is_stmt,isa 1
TI ARM Assembler Unix v18.1.1 Fri Jul  3 20:08:24 2020

Tools Copyright (c) 1996-2017 Texas Instruments Incorporated
hibernate.asm                                                        PAGE   41

    2201                    ;----------------------------------------------------------------------
    2202                    ; 897 | for(ui32Idx = 0; ui32Idx < ui32Count; ui32Idx++)                       
    2203                    ;----------------------------------------------------------------------
    2204 00000216 2000              MOVS      A1, #0                ; [DPU_V7M3_PIPE] |897|  ; [ORIG 16-BIT INS]
    2205 00000218 9002              STR       A1, [SP, #8]          ; [DPU_V7M3_PIPE] |897|  ; [ORIG 16-BIT INS]
    2206                            .dwpsn  file "../driverlib/hibernate.c",line 897,column 22,is_stmt,isa 1
    2207                    ;----------------------------------------------------------------------
    2208                    ; 899 | //                                                                     
    2209                    ; 900 | // Write a word to the battery-backed storage area.                    
    2210                    ; 901 | //                                                                     
    2211                    ;----------------------------------------------------------------------
    2212 0000021a 9801              LDR       A1, [SP, #4]          ; [DPU_V7M3_PIPE] |897|  ; [ORIG 16-BIT INS]
    2213 0000021c 9902              LDR       A2, [SP, #8]          ; [DPU_V7M3_PIPE] |897|  ; [ORIG 16-BIT INS]
    2214 0000021e 4288              CMP       A1, A2                ; [DPU_V7M3_PIPE] |897|  ; [ORIG 16-BIT INS]
    2215 00000220 D910              BLS       ||$C$L10||            ; [DPU_V7M3_PIPE] |897|  ; [ORIG 16-BIT INS]
    2216                            ; BRANCHCC OCCURS {||$C$L10||}   ; [] |897| 
    2217                    ;* --------------------------------------------------------------------------*
    2218                    ;*   BEGIN LOOP ||$C$L9||
    2219                    ;*
    2220                    ;*   Loop source line                : 897
    2221                    ;*   Loop closing brace source line  : 908
    2222                    ;*   Known Minimum Trip Count        : 1
    2223                    ;*   Known Maximum Trip Count        : 4294967295
    2224                    ;*   Known Max Trip Count Factor     : 1
    2225                    ;* --------------------------------------------------------------------------*
    2226 00000222           ||$C$L9||:    
    2227                            .dwpsn  file "../driverlib/hibernate.c",line 902,column 9,is_stmt,isa 1
    2228                    ;----------------------------------------------------------------------
    2229                    ; 902 | HWREG(HIB_DATA + (ui32Idx * 4)) = pui32Data[ui32Idx];                  
    2230                    ; 904 | //                                                                     
    2231                    ; 905 | // Wait for write completion                                           
    2232                    ; 906 | //                                                                     
    2233                    ;----------------------------------------------------------------------
    2234 00000222 9902              LDR       A2, [SP, #8]          ; [DPU_V7M3_PIPE] |902|  ; [ORIG 16-BIT INS]
    2235 00000224 9A00              LDR       A3, [SP, #0]          ; [DPU_V7M3_PIPE] |902|  ; [ORIG 16-BIT INS]
    2236 00000226 9B02              LDR       A4, [SP, #8]          ; [DPU_V7M3_PIPE] |902|  ; [ORIG 16-BIT INS]
    2237 00000228 48B6              LDR       A1, $C$CON15          ; [DPU_V7M3_PIPE] |902|  ; [ORIG 16-BIT INS]
    2238 0000022a 1021F852          LDR       A2, [A3, +A2, LSL #2] ; [DPU_V7M3_PIPE] |902|  ; [KEEP 32-BIT INS]
    2239 0000022e 1023F840          STR       A2, [A1, +A4, LSL #2] ; [DPU_V7M3_PIPE] |902|  ; [KEEP 32-BIT INS]
    2240                            .dwpsn  file "../driverlib/hibernate.c",line 907,column 9,is_stmt,isa 1
    2241                    ;----------------------------------------------------------------------
    2242                    ; 907 | _HibernateWriteComplete();                                             
    2243                    ;----------------------------------------------------------------------
    2244                    $C$DW$99        .dwtag  DW_TAG_TI_branch
    2245                            .dwattr $C$DW$99, DW_AT_low_pc(0x00)
    2246                            .dwattr $C$DW$99, DW_AT_name("_HibernateWriteComplete")
    2247                            .dwattr $C$DW$99, DW_AT_TI_call
    2248                    
    2249 00000232 FFFEF7FF!         BL        _HibernateWriteComplete ; [DPU_V7M3_PIPE] |907|  ; [KEEP 32-BIT INS]
    2250                            ; CALL OCCURS {_HibernateWriteComplete }  ; [] |907| 
    2251                            .dwpsn  file "../driverlib/hibernate.c",line 897,column 43,is_stmt,isa 1
    2252 00000236 9802              LDR       A1, [SP, #8]          ; [DPU_V7M3_PIPE] |897|  ; [ORIG 16-BIT INS]
    2253 00000238 1C40              ADDS      A1, A1, #1            ; [DPU_V7M3_PIPE] |897|  ; [ORIG 16-BIT INS]
    2254 0000023a 9002              STR       A1, [SP, #8]          ; [DPU_V7M3_PIPE] |897|  ; [ORIG 16-BIT INS]
    2255                            .dwpsn  file "../driverlib/hibernate.c",line 897,column 22,is_stmt,isa 1
TI ARM Assembler Unix v18.1.1 Fri Jul  3 20:08:24 2020

Tools Copyright (c) 1996-2017 Texas Instruments Incorporated
hibernate.asm                                                        PAGE   42

    2256 0000023c 9801              LDR       A1, [SP, #4]          ; [DPU_V7M3_PIPE] |897|  ; [ORIG 16-BIT INS]
    2257 0000023e 9902              LDR       A2, [SP, #8]          ; [DPU_V7M3_PIPE] |897|  ; [ORIG 16-BIT INS]
    2258 00000240 4288              CMP       A1, A2                ; [DPU_V7M3_PIPE] |897|  ; [ORIG 16-BIT INS]
    2259 00000242 D8EE              BHI       ||$C$L9||             ; [DPU_V7M3_PIPE] |897|  ; [ORIG 16-BIT INS]
    2260                            ; BRANCHCC OCCURS {||$C$L9||}    ; [] |897| 
    2261                    ;* --------------------------------------------------------------------------*
    2262                            .dwpsn  file "../driverlib/hibernate.c",line 909,column 1,is_stmt,isa 1
    2263                    ;* --------------------------------------------------------------------------*
    2264                    ||$C$L10||:    
    2265                    $C$DW$100       .dwtag  DW_TAG_TI_branch
    2266                            .dwattr $C$DW$100, DW_AT_low_pc(0x00)
    2267                            .dwattr $C$DW$100, DW_AT_TI_return
    2268                    
    2269 00000244 BD0E              POP       {A2, A3, A4, PC}      ; [DPU_V7M3_PIPE]  ; [ORIG 16-BIT INS]
    2270                            .dwcfi  cfa_offset, 0
    2271                            .dwcfi  restore_reg, 3
    2272                            .dwcfi  restore_reg, 2
    2273                            .dwcfi  restore_reg, 1
    2274                            ; BRANCH OCCURS                  ; [] 
    2275                            .dwattr $C$DW$93, DW_AT_TI_end_file("../driverlib/hibernate.c")
    2276                            .dwattr $C$DW$93, DW_AT_TI_end_line(0x38d)
    2277                            .dwattr $C$DW$93, DW_AT_TI_end_column(0x01)
    2278                            .dwendentry
    2279                            .dwendtag $C$DW$93
    2280                    
    2281 00000246                   .sect   ".text"
    2282                            .clink
    2283                            .thumbfunc HibernateDataGet
    2284 00000246                   .thumb
    2285                            .global HibernateDataGet
    2286                    
    2287                    $C$DW$101       .dwtag  DW_TAG_subprogram
    2288                            .dwattr $C$DW$101, DW_AT_name("HibernateDataGet")
    2289                            .dwattr $C$DW$101, DW_AT_low_pc(HibernateDataGet)
    2290                            .dwattr $C$DW$101, DW_AT_high_pc(0x00)
    2291                            .dwattr $C$DW$101, DW_AT_TI_symbol_name("HibernateDataGet")
    2292                            .dwattr $C$DW$101, DW_AT_external
    2293                            .dwattr $C$DW$101, DW_AT_TI_begin_file("../driverlib/hibernate.c")
    2294                            .dwattr $C$DW$101, DW_AT_TI_begin_line(0x3a2)
    2295                            .dwattr $C$DW$101, DW_AT_TI_begin_column(0x01)
    2296                            .dwattr $C$DW$101, DW_AT_decl_file("../driverlib/hibernate.c")
    2297                            .dwattr $C$DW$101, DW_AT_decl_line(0x3a2)
    2298                            .dwattr $C$DW$101, DW_AT_decl_column(0x01)
    2299                            .dwattr $C$DW$101, DW_AT_TI_max_frame_size(0x10)
    2300                            .dwpsn  file "../driverlib/hibernate.c",line 931,column 1,is_stmt,address HibernateDataGet,isa
    2301                    
    2302                            .dwfde $C$DW$CIE, HibernateDataGet
    2303                    $C$DW$102       .dwtag  DW_TAG_formal_parameter
    2304                            .dwattr $C$DW$102, DW_AT_name("pui32Data")
    2305                            .dwattr $C$DW$102, DW_AT_TI_symbol_name("pui32Data")
    2306                            .dwattr $C$DW$102, DW_AT_type(*$C$DW$T$39)
    2307                            .dwattr $C$DW$102, DW_AT_location[DW_OP_reg0]
    2308                    
    2309                    $C$DW$103       .dwtag  DW_TAG_formal_parameter
    2310                            .dwattr $C$DW$103, DW_AT_name("ui32Count")
TI ARM Assembler Unix v18.1.1 Fri Jul  3 20:08:24 2020

Tools Copyright (c) 1996-2017 Texas Instruments Incorporated
hibernate.asm                                                        PAGE   43

    2311                            .dwattr $C$DW$103, DW_AT_TI_symbol_name("ui32Count")
    2312                            .dwattr $C$DW$103, DW_AT_type(*$C$DW$T$33)
    2313                            .dwattr $C$DW$103, DW_AT_location[DW_OP_reg1]
    2314                    
    2315                    ;----------------------------------------------------------------------
    2316                    ; 930 | HibernateDataGet(uint32_t *pui32Data, uint32_t ui32Count)              
    2317                    ;----------------------------------------------------------------------
    2318                    
    2319                    ;*****************************************************************************
    2320                    ;* FUNCTION NAME: HibernateDataGet                                           *
    2321                    ;*                                                                           *
    2322                    ;*   Regs Modified     : A1,A2,A3,A4,SP,SR                                   *
    2323                    ;*   Regs Used         : A1,A2,A3,A4,SP,LR,SR                                *
    2324                    ;*   Local Frame Size  : 0 Args + 12 Auto + 0 Save = 12 byte                 *
    2325                    ;*****************************************************************************
    2326 00000246           HibernateDataGet:
    2327                    ;* --------------------------------------------------------------------------*
    2328                            .dwcfi  cfa_offset, 0
    2329 00000246 0D10F1AD          SUB       SP, SP, #16           ; [DPU_V7M3_PIPE]  ; [KEEP 32-BIT INS]
    2330                            .dwcfi  cfa_offset, 16
    2331                    $C$DW$104       .dwtag  DW_TAG_variable
    2332                            .dwattr $C$DW$104, DW_AT_name("pui32Data")
    2333                            .dwattr $C$DW$104, DW_AT_TI_symbol_name("pui32Data")
    2334                            .dwattr $C$DW$104, DW_AT_type(*$C$DW$T$39)
    2335                            .dwattr $C$DW$104, DW_AT_location[DW_OP_breg13 0]
    2336                    
    2337                    $C$DW$105       .dwtag  DW_TAG_variable
    2338                            .dwattr $C$DW$105, DW_AT_name("ui32Count")
    2339                            .dwattr $C$DW$105, DW_AT_TI_symbol_name("ui32Count")
    2340                            .dwattr $C$DW$105, DW_AT_type(*$C$DW$T$33)
    2341                            .dwattr $C$DW$105, DW_AT_location[DW_OP_breg13 4]
    2342                    
    2343                    $C$DW$106       .dwtag  DW_TAG_variable
    2344                            .dwattr $C$DW$106, DW_AT_name("ui32Idx")
    2345                            .dwattr $C$DW$106, DW_AT_TI_symbol_name("ui32Idx")
    2346                            .dwattr $C$DW$106, DW_AT_type(*$C$DW$T$33)
    2347                            .dwattr $C$DW$106, DW_AT_location[DW_OP_breg13 8]
    2348                    
    2349                    ;----------------------------------------------------------------------
    2350                    ; 932 | uint32_t ui32Idx;                                                      
    2351                    ; 934 | //                                                                     
    2352                    ; 935 | // Check the arguments.                                                
    2353                    ; 936 | //                                                                     
    2354                    ; 937 | ASSERT(ui32Count <= 64);                                               
    2355                    ; 938 | ASSERT(pui32Data != 0);                                                
    2356                    ; 940 | //                                                                     
    2357                    ; 941 | // Loop through all the words to be restored, reading one at a time.   
    2358                    ; 942 | //                                                                     
    2359                    ;----------------------------------------------------------------------
    2360 0000024a 9101              STR       A2, [SP, #4]          ; [DPU_V7M3_PIPE] |931|  ; [ORIG 16-BIT INS]
    2361 0000024c 9000              STR       A1, [SP, #0]          ; [DPU_V7M3_PIPE] |931|  ; [ORIG 16-BIT INS]
    2362                            .dwpsn  file "../driverlib/hibernate.c",line 943,column 9,is_stmt,isa 1
    2363                    ;----------------------------------------------------------------------
    2364                    ; 943 | for(ui32Idx = 0; ui32Idx < ui32Count; ui32Idx++)                       
    2365                    ;----------------------------------------------------------------------
TI ARM Assembler Unix v18.1.1 Fri Jul  3 20:08:24 2020

Tools Copyright (c) 1996-2017 Texas Instruments Incorporated
hibernate.asm                                                        PAGE   44

    2366 0000024e 2000              MOVS      A1, #0                ; [DPU_V7M3_PIPE] |943|  ; [ORIG 16-BIT INS]
    2367 00000250 9002              STR       A1, [SP, #8]          ; [DPU_V7M3_PIPE] |943|  ; [ORIG 16-BIT INS]
    2368                            .dwpsn  file "../driverlib/hibernate.c",line 943,column 22,is_stmt,isa 1
    2369                    ;----------------------------------------------------------------------
    2370                    ; 945 | //                                                                     
    2371                    ; 946 | // Read a word from the battery-backed storage area.  No delay is      
    2372                    ; 947 | // required between reads.                                             
    2373                    ; 948 | //                                                                     
    2374                    ;----------------------------------------------------------------------
    2375 00000252 9902              LDR       A2, [SP, #8]          ; [DPU_V7M3_PIPE] |943|  ; [ORIG 16-BIT INS]
    2376 00000254 9801              LDR       A1, [SP, #4]          ; [DPU_V7M3_PIPE] |943|  ; [ORIG 16-BIT INS]
    2377 00000256 4288              CMP       A1, A2                ; [DPU_V7M3_PIPE] |943|  ; [ORIG 16-BIT INS]
    2378 00000258 D90E              BLS       ||$C$L12||            ; [DPU_V7M3_PIPE] |943|  ; [ORIG 16-BIT INS]
    2379                            ; BRANCHCC OCCURS {||$C$L12||}   ; [] |943| 
    2380                    ;* --------------------------------------------------------------------------*
    2381                    ;*   BEGIN LOOP ||$C$L11||
    2382                    ;*
    2383                    ;*   Loop source line                : 943
    2384                    ;*   Loop closing brace source line  : 950
    2385                    ;*   Known Minimum Trip Count        : 1
    2386                    ;*   Known Maximum Trip Count        : 4294967295
    2387                    ;*   Known Max Trip Count Factor     : 1
    2388                    ;* --------------------------------------------------------------------------*
    2389 0000025a           ||$C$L11||:    
    2390                            .dwpsn  file "../driverlib/hibernate.c",line 949,column 9,is_stmt,isa 1
    2391                    ;----------------------------------------------------------------------
    2392                    ; 949 | pui32Data[ui32Idx] = HWREG(HIB_DATA + (ui32Idx * 4));                  
    2393                    ;----------------------------------------------------------------------
    2394 0000025a 9902              LDR       A2, [SP, #8]          ; [DPU_V7M3_PIPE] |949|  ; [ORIG 16-BIT INS]
    2395 0000025c 48A9              LDR       A1, $C$CON15          ; [DPU_V7M3_PIPE] |949|  ; [ORIG 16-BIT INS]
    2396 0000025e 9A02              LDR       A3, [SP, #8]          ; [DPU_V7M3_PIPE] |949|  ; [ORIG 16-BIT INS]
    2397 00000260 9B00              LDR       A4, [SP, #0]          ; [DPU_V7M3_PIPE] |949|  ; [ORIG 16-BIT INS]
    2398 00000262 0021F850          LDR       A1, [A1, +A2, LSL #2] ; [DPU_V7M3_PIPE] |949|  ; [KEEP 32-BIT INS]
    2399 00000266 0022F843          STR       A1, [A4, +A3, LSL #2] ; [DPU_V7M3_PIPE] |949|  ; [KEEP 32-BIT INS]
    2400                            .dwpsn  file "../driverlib/hibernate.c",line 943,column 43,is_stmt,isa 1
    2401 0000026a 9802              LDR       A1, [SP, #8]          ; [DPU_V7M3_PIPE] |943|  ; [ORIG 16-BIT INS]
    2402 0000026c 1C40              ADDS      A1, A1, #1            ; [DPU_V7M3_PIPE] |943|  ; [ORIG 16-BIT INS]
    2403 0000026e 9002              STR       A1, [SP, #8]          ; [DPU_V7M3_PIPE] |943|  ; [ORIG 16-BIT INS]
    2404                            .dwpsn  file "../driverlib/hibernate.c",line 943,column 22,is_stmt,isa 1
    2405 00000270 9801              LDR       A1, [SP, #4]          ; [DPU_V7M3_PIPE] |943|  ; [ORIG 16-BIT INS]
    2406 00000272 9902              LDR       A2, [SP, #8]          ; [DPU_V7M3_PIPE] |943|  ; [ORIG 16-BIT INS]
    2407 00000274 4288              CMP       A1, A2                ; [DPU_V7M3_PIPE] |943|  ; [ORIG 16-BIT INS]
    2408 00000276 D8F0              BHI       ||$C$L11||            ; [DPU_V7M3_PIPE] |943|  ; [ORIG 16-BIT INS]
    2409                            ; BRANCHCC OCCURS {||$C$L11||}   ; [] |943| 
    2410                    ;* --------------------------------------------------------------------------*
    2411                            .dwpsn  file "../driverlib/hibernate.c",line 951,column 1,is_stmt,isa 1
    2412                    ;* --------------------------------------------------------------------------*
    2413 00000278           ||$C$L12||:    
    2414 00000278 B004              ADD       SP, SP, #16           ; [DPU_V7M3_PIPE]  ; [ORIG 16-BIT INS]
    2415                            .dwcfi  cfa_offset, 0
    2416                    $C$DW$107       .dwtag  DW_TAG_TI_branch
    2417                            .dwattr $C$DW$107, DW_AT_low_pc(0x00)
    2418                            .dwattr $C$DW$107, DW_AT_TI_return
    2419                    
    2420 0000027a 4770              BX        LR                    ; [DPU_V7M3_PIPE]  ; [ORIG 16-BIT INS]
TI ARM Assembler Unix v18.1.1 Fri Jul  3 20:08:24 2020

Tools Copyright (c) 1996-2017 Texas Instruments Incorporated
hibernate.asm                                                        PAGE   45

    2421                            ; BRANCH OCCURS                  ; [] 
    2422                            .dwattr $C$DW$101, DW_AT_TI_end_file("../driverlib/hibernate.c")
    2423                            .dwattr $C$DW$101, DW_AT_TI_end_line(0x3b7)
    2424                            .dwattr $C$DW$101, DW_AT_TI_end_column(0x01)
    2425                            .dwendentry
    2426                            .dwendtag $C$DW$101
    2427                    
    2428 0000027c                   .sect   ".text"
    2429                            .clink
    2430                            .thumbfunc HibernateRequest
    2431 0000027c                   .thumb
    2432                            .global HibernateRequest
    2433                    
    2434                    $C$DW$108       .dwtag  DW_TAG_subprogram
    2435                            .dwattr $C$DW$108, DW_AT_name("HibernateRequest")
    2436                            .dwattr $C$DW$108, DW_AT_low_pc(HibernateRequest)
    2437                            .dwattr $C$DW$108, DW_AT_high_pc(0x00)
    2438                            .dwattr $C$DW$108, DW_AT_TI_symbol_name("HibernateRequest")
    2439                            .dwattr $C$DW$108, DW_AT_external
    2440                            .dwattr $C$DW$108, DW_AT_TI_begin_file("../driverlib/hibernate.c")
    2441                            .dwattr $C$DW$108, DW_AT_TI_begin_line(0x3dd)
    2442                            .dwattr $C$DW$108, DW_AT_TI_begin_column(0x01)
    2443                            .dwattr $C$DW$108, DW_AT_decl_file("../driverlib/hibernate.c")
    2444                            .dwattr $C$DW$108, DW_AT_decl_line(0x3dd)
    2445                            .dwattr $C$DW$108, DW_AT_decl_column(0x01)
    2446                            .dwattr $C$DW$108, DW_AT_TI_max_frame_size(0x08)
    2447                            .dwpsn  file "../driverlib/hibernate.c",line 990,column 1,is_stmt,address HibernateRequest,isa
    2448                    
    2449                            .dwfde $C$DW$CIE, HibernateRequest
    2450                    ;----------------------------------------------------------------------
    2451                    ; 989 | HibernateRequest(void)                                                 
    2452                    ; 991 | //                                                                     
    2453                    ; 992 | // Set the bit in the control register to cut main power to the process
    2454                    ;     | or.                                                                    
    2455                    ; 993 | //                                                                     
    2456                    ;----------------------------------------------------------------------
    2457                    
    2458                    ;*****************************************************************************
    2459                    ;* FUNCTION NAME: HibernateRequest                                           *
    2460                    ;*                                                                           *
    2461                    ;*   Regs Modified     : A1,A2,A4,SP,LR,SR,FPEXC,FPSCR                       *
    2462                    ;*   Regs Used         : A1,A2,A4,SP,LR,SR,FPEXC,FPSCR                       *
    2463                    ;*   Local Frame Size  : 0 Args + 0 Auto + 4 Save = 4 byte                   *
    2464                    ;*****************************************************************************
    2465 0000027c           HibernateRequest:
    2466                    ;* --------------------------------------------------------------------------*
    2467                            .dwcfi  cfa_offset, 0
    2468 0000027c B508              PUSH      {A4, LR}              ; [DPU_V7M3_PIPE]  ; [ORIG 16-BIT INS]
    2469                            .dwcfi  cfa_offset, 8
    2470                            .dwcfi  save_reg_to_mem, 14, -4
    2471                            .dwcfi  save_reg_to_mem, 3, -8
    2472                            .dwpsn  file "../driverlib/hibernate.c",line 994,column 5,is_stmt,isa 1
    2473                    ;----------------------------------------------------------------------
    2474                    ; 994 | HWREG(HIB_CTL) |= HIB_CTL_HIBREQ;                                      
    2475                    ; 996 | //                                                                     
TI ARM Assembler Unix v18.1.1 Fri Jul  3 20:08:24 2020

Tools Copyright (c) 1996-2017 Texas Instruments Incorporated
hibernate.asm                                                        PAGE   46

    2476                    ; 997 | // Wait for write completion                                           
    2477                    ; 998 | //                                                                     
    2478                    ;----------------------------------------------------------------------
    2479 0000027e 491D              LDR       A2, $C$CON1           ; [DPU_V7M3_PIPE] |994|  ; [ORIG 16-BIT INS]
    2480 00000280 6808              LDR       A1, [A2, #0]          ; [DPU_V7M3_PIPE] |994|  ; [ORIG 16-BIT INS]
    2481 00000282 0002F040          ORR       A1, A1, #2            ; [DPU_V7M3_PIPE] |994|  ; [KEEP 32-BIT INS]
    2482 00000286 6008              STR       A1, [A2, #0]          ; [DPU_V7M3_PIPE] |994|  ; [ORIG 16-BIT INS]
    2483                            .dwpsn  file "../driverlib/hibernate.c",line 999,column 5,is_stmt,isa 1
    2484                    ;----------------------------------------------------------------------
    2485                    ; 999 | _HibernateWriteComplete();                                             
    2486                    ;----------------------------------------------------------------------
    2487                    $C$DW$109       .dwtag  DW_TAG_TI_branch
    2488                            .dwattr $C$DW$109, DW_AT_low_pc(0x00)
    2489                            .dwattr $C$DW$109, DW_AT_name("_HibernateWriteComplete")
    2490                            .dwattr $C$DW$109, DW_AT_TI_call
    2491                    
    2492 00000288 FFFEF7FF!         BL        _HibernateWriteComplete ; [DPU_V7M3_PIPE] |999|  ; [KEEP 32-BIT INS]
    2493                            ; CALL OCCURS {_HibernateWriteComplete }  ; [] |999| 
    2494                            .dwpsn  file "../driverlib/hibernate.c",line 1000,column 1,is_stmt,isa 1
    2495                    $C$DW$110       .dwtag  DW_TAG_TI_branch
    2496                            .dwattr $C$DW$110, DW_AT_low_pc(0x00)
    2497                            .dwattr $C$DW$110, DW_AT_TI_return
    2498                    
    2499 0000028c BD08              POP       {A4, PC}              ; [DPU_V7M3_PIPE]  ; [ORIG 16-BIT INS]
    2500                            .dwcfi  cfa_offset, 0
    2501                            .dwcfi  restore_reg, 3
    2502                            ; BRANCH OCCURS                  ; [] 
    2503                            .dwattr $C$DW$108, DW_AT_TI_end_file("../driverlib/hibernate.c")
    2504                            .dwattr $C$DW$108, DW_AT_TI_end_line(0x3e8)
    2505                            .dwattr $C$DW$108, DW_AT_TI_end_column(0x01)
    2506                            .dwendentry
    2507                            .dwendtag $C$DW$108
    2508                    
    2509 0000028e                   .sect   ".text"
    2510                            .clink
    2511                            .thumbfunc HibernateIntEnable
    2512 0000028e                   .thumb
    2513                            .global HibernateIntEnable
    2514                    
    2515                    $C$DW$111       .dwtag  DW_TAG_subprogram
    2516                            .dwattr $C$DW$111, DW_AT_name("HibernateIntEnable")
    2517                            .dwattr $C$DW$111, DW_AT_low_pc(HibernateIntEnable)
    2518                            .dwattr $C$DW$111, DW_AT_high_pc(0x00)
    2519                            .dwattr $C$DW$111, DW_AT_TI_symbol_name("HibernateIntEnable")
    2520                            .dwattr $C$DW$111, DW_AT_external
    2521                            .dwattr $C$DW$111, DW_AT_TI_begin_file("../driverlib/hibernate.c")
    2522                            .dwattr $C$DW$111, DW_AT_TI_begin_line(0x407)
    2523                            .dwattr $C$DW$111, DW_AT_TI_begin_column(0x01)
    2524                            .dwattr $C$DW$111, DW_AT_decl_file("../driverlib/hibernate.c")
    2525                            .dwattr $C$DW$111, DW_AT_decl_line(0x407)
    2526                            .dwattr $C$DW$111, DW_AT_decl_column(0x01)
    2527                            .dwattr $C$DW$111, DW_AT_TI_max_frame_size(0x08)
    2528                            .dwpsn  file "../driverlib/hibernate.c",line 1032,column 1,is_stmt,address HibernateIntEnable,
    2529                    
    2530                            .dwfde $C$DW$CIE, HibernateIntEnable
TI ARM Assembler Unix v18.1.1 Fri Jul  3 20:08:24 2020

Tools Copyright (c) 1996-2017 Texas Instruments Incorporated
hibernate.asm                                                        PAGE   47

    2531                    $C$DW$112       .dwtag  DW_TAG_formal_parameter
    2532                            .dwattr $C$DW$112, DW_AT_name("ui32IntFlags")
    2533                            .dwattr $C$DW$112, DW_AT_TI_symbol_name("ui32IntFlags")
    2534                            .dwattr $C$DW$112, DW_AT_type(*$C$DW$T$33)
    2535                            .dwattr $C$DW$112, DW_AT_location[DW_OP_reg0]
    2536                    
    2537                    ;----------------------------------------------------------------------
    2538                    ; 1031 | HibernateIntEnable(uint32_t ui32IntFlags)                              
    2539                    ;----------------------------------------------------------------------
    2540                    
    2541                    ;*****************************************************************************
    2542                    ;* FUNCTION NAME: HibernateIntEnable                                         *
    2543                    ;*                                                                           *
    2544                    ;*   Regs Modified     : A1,A2,A3,A4,SP,LR,SR,FPEXC,FPSCR                    *
    2545                    ;*   Regs Used         : A1,A2,A3,A4,SP,LR,SR,FPEXC,FPSCR                    *
    2546                    ;*   Local Frame Size  : 0 Args + 4 Auto + 4 Save = 8 byte                   *
    2547                    ;*****************************************************************************
    2548 0000028e           HibernateIntEnable:
    2549                    ;* --------------------------------------------------------------------------*
    2550                            .dwcfi  cfa_offset, 0
    2551 0000028e B508              PUSH      {A4, LR}              ; [DPU_V7M3_PIPE]  ; [ORIG 16-BIT INS]
    2552                            .dwcfi  cfa_offset, 8
    2553                            .dwcfi  save_reg_to_mem, 14, -4
    2554                            .dwcfi  save_reg_to_mem, 3, -8
    2555                    $C$DW$113       .dwtag  DW_TAG_variable
    2556                            .dwattr $C$DW$113, DW_AT_name("ui32IntFlags")
    2557                            .dwattr $C$DW$113, DW_AT_TI_symbol_name("ui32IntFlags")
    2558                            .dwattr $C$DW$113, DW_AT_type(*$C$DW$T$33)
    2559                            .dwattr $C$DW$113, DW_AT_location[DW_OP_breg13 0]
    2560                    
    2561                    ;----------------------------------------------------------------------
    2562                    ; 1033 | //                                                                     
    2563                    ; 1034 | // Check the arguments.                                                
    2564                    ; 1035 | //                                                                     
    2565                    ; 1036 | ASSERT(!(ui32IntFlags & ~(HIBERNATE_INT_PIN_WAKE | HIBERNATE_INT_LOW_BA
    2566                    ;     | T |                                                                    
    2567                    ; 1037 |                           HIBERNATE_INT_VDDFAIL |                      
    2568                    ; 1038 |                           HIBERNATE_INT_RESET_WAKE |                   
    2569                    ; 1039 |                           HIBERNATE_INT_GPIO_WAKE |                    
    2570                    ; 1040 |                           HIBERNATE_INT_RTC_MATCH_0 |                  
    2571                    ; 1041 |                           HIBERNATE_INT_WR_COMPLETE)));                
    2572                    ; 1043 | //                                                                     
    2573                    ; 1044 | // Set the specified interrupt mask bits.                              
    2574                    ; 1045 | //                                                                     
    2575                    ;----------------------------------------------------------------------
    2576 00000290 9000              STR       A1, [SP, #0]          ; [DPU_V7M3_PIPE] |1032|  ; [ORIG 16-BIT INS]
    2577                            .dwpsn  file "../driverlib/hibernate.c",line 1046,column 5,is_stmt,isa 1
    2578                    ;----------------------------------------------------------------------
    2579                    ; 1046 | HWREG(HIB_IM) |= ui32IntFlags;                                         
    2580                    ; 1048 | //                                                                     
    2581                    ; 1049 | // Wait for write completion                                           
    2582                    ; 1050 | //                                                                     
    2583                    ;----------------------------------------------------------------------
    2584 00000292 499D              LDR       A2, $C$CON16          ; [DPU_V7M3_PIPE] |1046|  ; [ORIG 16-BIT INS]
    2585 00000294 9800              LDR       A1, [SP, #0]          ; [DPU_V7M3_PIPE] |1046|  ; [ORIG 16-BIT INS]
TI ARM Assembler Unix v18.1.1 Fri Jul  3 20:08:24 2020

Tools Copyright (c) 1996-2017 Texas Instruments Incorporated
hibernate.asm                                                        PAGE   48

    2586 00000296 680A              LDR       A3, [A2, #0]          ; [DPU_V7M3_PIPE] |1046|  ; [ORIG 16-BIT INS]
    2587 00000298 4310              ORRS      A1, A1, A3            ; [DPU_V7M3_PIPE] |1046|  ; [ORIG 16-BIT INS]
    2588 0000029a 6008              STR       A1, [A2, #0]          ; [DPU_V7M3_PIPE] |1046|  ; [ORIG 16-BIT INS]
    2589                            .dwpsn  file "../driverlib/hibernate.c",line 1051,column 5,is_stmt,isa 1
    2590                    ;----------------------------------------------------------------------
    2591                    ; 1051 | _HibernateWriteComplete();                                             
    2592                    ;----------------------------------------------------------------------
    2593                    $C$DW$114       .dwtag  DW_TAG_TI_branch
    2594                            .dwattr $C$DW$114, DW_AT_low_pc(0x00)
    2595                            .dwattr $C$DW$114, DW_AT_name("_HibernateWriteComplete")
    2596                            .dwattr $C$DW$114, DW_AT_TI_call
    2597                    
    2598 0000029c FFFEF7FF!         BL        _HibernateWriteComplete ; [DPU_V7M3_PIPE] |1051|  ; [KEEP 32-BIT INS]
    2599                            ; CALL OCCURS {_HibernateWriteComplete }  ; [] |1051| 
    2600                            .dwpsn  file "../driverlib/hibernate.c",line 1052,column 1,is_stmt,isa 1
    2601                    $C$DW$115       .dwtag  DW_TAG_TI_branch
    2602                            .dwattr $C$DW$115, DW_AT_low_pc(0x00)
    2603                            .dwattr $C$DW$115, DW_AT_TI_return
    2604                    
    2605 000002a0 BD08              POP       {A4, PC}              ; [DPU_V7M3_PIPE]  ; [ORIG 16-BIT INS]
    2606                            .dwcfi  cfa_offset, 0
    2607                            .dwcfi  restore_reg, 3
    2608                            ; BRANCH OCCURS                  ; [] 
    2609                            .dwattr $C$DW$111, DW_AT_TI_end_file("../driverlib/hibernate.c")
    2610                            .dwattr $C$DW$111, DW_AT_TI_end_line(0x41c)
    2611                            .dwattr $C$DW$111, DW_AT_TI_end_column(0x01)
    2612                            .dwendentry
    2613                            .dwendtag $C$DW$111
    2614                    
    2615 000002a2                   .sect   ".text"
    2616                            .clink
    2617                            .thumbfunc HibernateIntDisable
    2618 000002a2                   .thumb
    2619                            .global HibernateIntDisable
    2620                    
    2621                    $C$DW$116       .dwtag  DW_TAG_subprogram
    2622                            .dwattr $C$DW$116, DW_AT_name("HibernateIntDisable")
    2623                            .dwattr $C$DW$116, DW_AT_low_pc(HibernateIntDisable)
    2624                            .dwattr $C$DW$116, DW_AT_high_pc(0x00)
    2625                            .dwattr $C$DW$116, DW_AT_TI_symbol_name("HibernateIntDisable")
    2626                            .dwattr $C$DW$116, DW_AT_external
    2627                            .dwattr $C$DW$116, DW_AT_TI_begin_file("../driverlib/hibernate.c")
    2628                            .dwattr $C$DW$116, DW_AT_TI_begin_line(0x42e)
    2629                            .dwattr $C$DW$116, DW_AT_TI_begin_column(0x01)
    2630                            .dwattr $C$DW$116, DW_AT_decl_file("../driverlib/hibernate.c")
    2631                            .dwattr $C$DW$116, DW_AT_decl_line(0x42e)
    2632                            .dwattr $C$DW$116, DW_AT_decl_column(0x01)
    2633                            .dwattr $C$DW$116, DW_AT_TI_max_frame_size(0x08)
    2634                            .dwpsn  file "../driverlib/hibernate.c",line 1071,column 1,is_stmt,address HibernateIntDisable
    2635                    
    2636                            .dwfde $C$DW$CIE, HibernateIntDisable
    2637                    $C$DW$117       .dwtag  DW_TAG_formal_parameter
    2638                            .dwattr $C$DW$117, DW_AT_name("ui32IntFlags")
    2639                            .dwattr $C$DW$117, DW_AT_TI_symbol_name("ui32IntFlags")
    2640                            .dwattr $C$DW$117, DW_AT_type(*$C$DW$T$33)
TI ARM Assembler Unix v18.1.1 Fri Jul  3 20:08:24 2020

Tools Copyright (c) 1996-2017 Texas Instruments Incorporated
hibernate.asm                                                        PAGE   49

    2641                            .dwattr $C$DW$117, DW_AT_location[DW_OP_reg0]
    2642                    
    2643                    ;----------------------------------------------------------------------
    2644                    ; 1070 | HibernateIntDisable(uint32_t ui32IntFlags)                             
    2645                    ;----------------------------------------------------------------------
    2646                    
    2647                    ;*****************************************************************************
    2648                    ;* FUNCTION NAME: HibernateIntDisable                                        *
    2649                    ;*                                                                           *
    2650                    ;*   Regs Modified     : A1,A2,A3,A4,SP,LR,SR,FPEXC,FPSCR                    *
    2651                    ;*   Regs Used         : A1,A2,A3,A4,SP,LR,SR,FPEXC,FPSCR                    *
    2652                    ;*   Local Frame Size  : 0 Args + 4 Auto + 4 Save = 8 byte                   *
    2653                    ;*****************************************************************************
    2654 000002a2           HibernateIntDisable:
    2655                    ;* --------------------------------------------------------------------------*
    2656                            .dwcfi  cfa_offset, 0
    2657 000002a2 B508              PUSH      {A4, LR}              ; [DPU_V7M3_PIPE]  ; [ORIG 16-BIT INS]
    2658                            .dwcfi  cfa_offset, 8
    2659                            .dwcfi  save_reg_to_mem, 14, -4
    2660                            .dwcfi  save_reg_to_mem, 3, -8
    2661                    $C$DW$118       .dwtag  DW_TAG_variable
    2662                            .dwattr $C$DW$118, DW_AT_name("ui32IntFlags")
    2663                            .dwattr $C$DW$118, DW_AT_TI_symbol_name("ui32IntFlags")
    2664                            .dwattr $C$DW$118, DW_AT_type(*$C$DW$T$33)
    2665                            .dwattr $C$DW$118, DW_AT_location[DW_OP_breg13 0]
    2666                    
    2667                    ;----------------------------------------------------------------------
    2668                    ; 1072 | //                                                                     
    2669                    ; 1073 | // Check the arguments.                                                
    2670                    ; 1074 | //                                                                     
    2671                    ; 1075 | ASSERT(!(ui32IntFlags & ~(HIBERNATE_INT_PIN_WAKE | HIBERNATE_INT_LOW_BA
    2672                    ;     | T |                                                                    
    2673                    ; 1076 |                           HIBERNATE_INT_VDDFAIL |                      
    2674                    ; 1077 |                           HIBERNATE_INT_RESET_WAKE |                   
    2675                    ; 1078 |                           HIBERNATE_INT_GPIO_WAKE |                    
    2676                    ; 1079 |                           HIBERNATE_INT_RTC_MATCH_0 |                  
    2677                    ; 1080 |                           HIBERNATE_INT_WR_COMPLETE)));                
    2678                    ; 1082 | //                                                                     
    2679                    ; 1083 | // Clear the specified interrupt mask bits.                            
    2680                    ; 1084 | //                                                                     
    2681                    ;----------------------------------------------------------------------
    2682 000002a4 9000              STR       A1, [SP, #0]          ; [DPU_V7M3_PIPE] |1071|  ; [ORIG 16-BIT INS]
    2683                            .dwpsn  file "../driverlib/hibernate.c",line 1085,column 5,is_stmt,isa 1
    2684                    ;----------------------------------------------------------------------
    2685                    ; 1085 | HWREG(HIB_IM) &= ~ui32IntFlags;                                        
    2686                    ; 1087 | //                                                                     
    2687                    ; 1088 | // Wait for write completion                                           
    2688                    ; 1089 | //                                                                     
    2689                    ;----------------------------------------------------------------------
    2690 000002a6 4998              LDR       A2, $C$CON16          ; [DPU_V7M3_PIPE] |1085|  ; [ORIG 16-BIT INS]
    2691 000002a8 9A00              LDR       A3, [SP, #0]          ; [DPU_V7M3_PIPE] |1085|  ; [ORIG 16-BIT INS]
    2692 000002aa 6808              LDR       A1, [A2, #0]          ; [DPU_V7M3_PIPE] |1085|  ; [ORIG 16-BIT INS]
    2693 000002ac 4390              BICS      A1, A1, A3            ; [DPU_V7M3_PIPE] |1085|  ; [ORIG 16-BIT INS]
    2694 000002ae 6008              STR       A1, [A2, #0]          ; [DPU_V7M3_PIPE] |1085|  ; [ORIG 16-BIT INS]
    2695                            .dwpsn  file "../driverlib/hibernate.c",line 1090,column 5,is_stmt,isa 1
TI ARM Assembler Unix v18.1.1 Fri Jul  3 20:08:24 2020

Tools Copyright (c) 1996-2017 Texas Instruments Incorporated
hibernate.asm                                                        PAGE   50

    2696                    ;----------------------------------------------------------------------
    2697                    ; 1090 | _HibernateWriteComplete();                                             
    2698                    ;----------------------------------------------------------------------
    2699                    $C$DW$119       .dwtag  DW_TAG_TI_branch
    2700                            .dwattr $C$DW$119, DW_AT_low_pc(0x00)
    2701                            .dwattr $C$DW$119, DW_AT_name("_HibernateWriteComplete")
    2702                            .dwattr $C$DW$119, DW_AT_TI_call
    2703                    
    2704 000002b0 FFFEF7FF!         BL        _HibernateWriteComplete ; [DPU_V7M3_PIPE] |1090|  ; [KEEP 32-BIT INS]
    2705                            ; CALL OCCURS {_HibernateWriteComplete }  ; [] |1090| 
    2706                            .dwpsn  file "../driverlib/hibernate.c",line 1091,column 1,is_stmt,isa 1
    2707                    $C$DW$120       .dwtag  DW_TAG_TI_branch
    2708                            .dwattr $C$DW$120, DW_AT_low_pc(0x00)
    2709                            .dwattr $C$DW$120, DW_AT_TI_return
    2710                    
    2711 000002b4 BD08              POP       {A4, PC}              ; [DPU_V7M3_PIPE]  ; [ORIG 16-BIT INS]
    2712                            .dwcfi  cfa_offset, 0
    2713                            .dwcfi  restore_reg, 3
    2714                            ; BRANCH OCCURS                  ; [] 
    2715                            .dwattr $C$DW$116, DW_AT_TI_end_file("../driverlib/hibernate.c")
    2716                            .dwattr $C$DW$116, DW_AT_TI_end_line(0x443)
    2717                            .dwattr $C$DW$116, DW_AT_TI_end_column(0x01)
    2718                            .dwendentry
    2719                            .dwendtag $C$DW$116
    2720                    
    2721 000002b6                   .sect   ".text"
    2722                            .clink
    2723                            .thumbfunc _HibernateIntNumberGet
    2724 000002b6                   .thumb
    2725                    
    2726                    $C$DW$121       .dwtag  DW_TAG_subprogram
    2727                            .dwattr $C$DW$121, DW_AT_name("_HibernateIntNumberGet")
    2728                            .dwattr $C$DW$121, DW_AT_low_pc(_HibernateIntNumberGet)
    2729                            .dwattr $C$DW$121, DW_AT_high_pc(0x00)
    2730                            .dwattr $C$DW$121, DW_AT_TI_symbol_name("_HibernateIntNumberGet")
    2731                            .dwattr $C$DW$121, DW_AT_type(*$C$DW$T$33)
    2732                            .dwattr $C$DW$121, DW_AT_TI_begin_file("../driverlib/hibernate.c")
    2733                            .dwattr $C$DW$121, DW_AT_TI_begin_line(0x450)
    2734                            .dwattr $C$DW$121, DW_AT_TI_begin_column(0x01)
    2735                            .dwattr $C$DW$121, DW_AT_decl_file("../driverlib/hibernate.c")
    2736                            .dwattr $C$DW$121, DW_AT_decl_line(0x450)
    2737                            .dwattr $C$DW$121, DW_AT_decl_column(0x01)
    2738                            .dwattr $C$DW$121, DW_AT_TI_max_frame_size(0x08)
    2739                            .dwpsn  file "../driverlib/hibernate.c",line 1105,column 1,is_stmt,address _HibernateIntNumber
    2740                    
    2741                            .dwfde $C$DW$CIE, _HibernateIntNumberGet
    2742                    ;----------------------------------------------------------------------
    2743                    ; 1104 | _HibernateIntNumberGet(void)                                           
    2744                    ; 1106 | uint32_t ui32Int;                                                      
    2745                    ; 1108 | //                                                                     
    2746                    ; 1109 | // Find the valid interrupt number for the hibernate module.           
    2747                    ; 1110 | //                                                                     
    2748                    ;----------------------------------------------------------------------
    2749                    
    2750                    ;*****************************************************************************
TI ARM Assembler Unix v18.1.1 Fri Jul  3 20:08:24 2020

Tools Copyright (c) 1996-2017 Texas Instruments Incorporated
hibernate.asm                                                        PAGE   51

    2751                    ;* FUNCTION NAME: _HibernateIntNumberGet                                     *
    2752                    ;*                                                                           *
    2753                    ;*   Regs Modified     : A1,A2,A3,SP,SR                                      *
    2754                    ;*   Regs Used         : A1,A2,A3,SP,LR,SR                                   *
    2755                    ;*   Local Frame Size  : 0 Args + 4 Auto + 0 Save = 4 byte                   *
    2756                    ;*****************************************************************************
    2757 000002b6           _HibernateIntNumberGet:
    2758                    ;* --------------------------------------------------------------------------*
    2759                            .dwcfi  cfa_offset, 0
    2760 000002b6 0D08F1AD          SUB       SP, SP, #8            ; [DPU_V7M3_PIPE]  ; [KEEP 32-BIT INS]
    2761                            .dwcfi  cfa_offset, 8
    2762                    $C$DW$122       .dwtag  DW_TAG_variable
    2763                            .dwattr $C$DW$122, DW_AT_name("ui32Int")
    2764                            .dwattr $C$DW$122, DW_AT_TI_symbol_name("ui32Int")
    2765                            .dwattr $C$DW$122, DW_AT_type(*$C$DW$T$33)
    2766                            .dwattr $C$DW$122, DW_AT_location[DW_OP_breg13 0]
    2767                    
    2768                            .dwpsn  file "../driverlib/hibernate.c",line 1111,column 5,is_stmt,isa 1
    2769                    ;----------------------------------------------------------------------
    2770                    ; 1111 | if(CLASS_IS_TM4C129)                                                   
    2771                    ;----------------------------------------------------------------------
    2772 000002ba 492B              LDR       A2, $C$CON3           ; [DPU_V7M3_PIPE] |1111|  ; [ORIG 16-BIT INS]
    2773 000002bc 4829              LDR       A1, $C$CON2           ; [DPU_V7M3_PIPE] |1111|  ; [ORIG 16-BIT INS]
    2774 000002be 680A              LDR       A3, [A2, #0]          ; [DPU_V7M3_PIPE] |1111|  ; [ORIG 16-BIT INS]
    2775 000002c0 492A              LDR       A2, $C$CON4           ; [DPU_V7M3_PIPE] |1111|  ; [ORIG 16-BIT INS]
    2776 000002c2 4010              ANDS      A1, A1, A3            ; [DPU_V7M3_PIPE] |1111|  ; [ORIG 16-BIT INS]
    2777 000002c4 4281              CMP       A2, A1                ; [DPU_V7M3_PIPE] |1111|  ; [ORIG 16-BIT INS]
    2778 000002c6 D102              BNE       ||$C$L13||            ; [DPU_V7M3_PIPE] |1111|  ; [ORIG 16-BIT INS]
    2779                            ; BRANCHCC OCCURS {||$C$L13||}   ; [] |1111| 
    2780                    ;* --------------------------------------------------------------------------*
    2781                            .dwpsn  file "../driverlib/hibernate.c",line 1113,column 9,is_stmt,isa 1
    2782                    ;----------------------------------------------------------------------
    2783                    ; 1113 | ui32Int = INT_HIBERNATE_TM4C129;                                       
    2784                    ;----------------------------------------------------------------------
    2785 000002c8 2039              MOVS      A1, #57               ; [DPU_V7M3_PIPE] |1113|  ; [ORIG 16-BIT INS]
    2786 000002ca 9000              STR       A1, [SP, #0]          ; [DPU_V7M3_PIPE] |1113|  ; [ORIG 16-BIT INS]
    2787                            .dwpsn  file "../driverlib/hibernate.c",line 1114,column 5,is_stmt,isa 1
    2788                    ;----------------------------------------------------------------------
    2789                    ; 1115 | else                                                                   
    2790                    ;----------------------------------------------------------------------
    2791 000002cc E001              B         ||$C$L14||            ; [DPU_V7M3_PIPE] |1114|  ; [ORIG 16-BIT INS]
    2792                            ; BRANCH OCCURS {||$C$L14||}     ; [] |1114| 
    2793                    ;* --------------------------------------------------------------------------*
    2794 000002ce           ||$C$L13||:    
