TI ARM Assembler Unix v18.1.1 Fri Jul  3 20:08:24 2020

Tools Copyright (c) 1996-2017 Texas Instruments Incorporated
hibernate.asm                                                        PAGE    1

       1                    ;******************************************************************************
       2                    ;* TI ARM C/C++ Codegen                                      Unix v18.1.1.LTS *
       3                    ;* Date/Time created: Fri Jul  3 20:08:24 2020                                *
       4                    ;******************************************************************************
       5                            .compiler_opts --abi=eabi --arm_vmrs_si_workaround=off --code_state=16 --diag_wrap=off --embed
       6 00000000                   .thumb
       7                    
       8                    $C$DW$CU        .dwtag  DW_TAG_compile_unit
       9                            .dwattr $C$DW$CU, DW_AT_name("../driverlib/hibernate.c")
      10                            .dwattr $C$DW$CU, DW_AT_producer("TI TI ARM C/C++ Codegen Unix v18.1.1.LTS Copyright (c) 1996-
      11                            .dwattr $C$DW$CU, DW_AT_TI_version(0x01)
      12                            .dwattr $C$DW$CU, DW_AT_comp_dir("/home/pola/workspace_v8/Microwave/Debug")
      13                    
      14                    $C$DW$1 .dwtag  DW_TAG_subprogram
      15                            .dwattr $C$DW$1, DW_AT_name("IntRegister")
      16                            .dwattr $C$DW$1, DW_AT_TI_symbol_name("IntRegister")
      17                            .dwattr $C$DW$1, DW_AT_declaration
      18                            .dwattr $C$DW$1, DW_AT_external
      19                            .dwattr $C$DW$1, DW_AT_decl_file("/home/pola/workspace_v8/Microwave/driverlib/interrupt.h")
      20                            .dwattr $C$DW$1, DW_AT_decl_line(0x45)
      21                            .dwattr $C$DW$1, DW_AT_decl_column(0x0d)
      22                    $C$DW$2 .dwtag  DW_TAG_formal_parameter
      23                            .dwattr $C$DW$2, DW_AT_type(*$C$DW$T$33)
      24                    
      25                    $C$DW$3 .dwtag  DW_TAG_formal_parameter
      26                            .dwattr $C$DW$3, DW_AT_type(*$C$DW$T$31)
      27                    
      28                            .dwendtag $C$DW$1
      29                    
      30                    
      31                    $C$DW$4 .dwtag  DW_TAG_subprogram
      32                            .dwattr $C$DW$4, DW_AT_name("IntEnable")
      33                            .dwattr $C$DW$4, DW_AT_TI_symbol_name("IntEnable")
      34                            .dwattr $C$DW$4, DW_AT_declaration
      35                            .dwattr $C$DW$4, DW_AT_external
      36                            .dwattr $C$DW$4, DW_AT_decl_file("/home/pola/workspace_v8/Microwave/driverlib/interrupt.h")
      37                            .dwattr $C$DW$4, DW_AT_decl_line(0x4c)
      38                            .dwattr $C$DW$4, DW_AT_decl_column(0x0d)
      39                    $C$DW$5 .dwtag  DW_TAG_formal_parameter
      40                            .dwattr $C$DW$5, DW_AT_type(*$C$DW$T$33)
      41                    
      42                            .dwendtag $C$DW$4
      43                    
      44                    
      45                    $C$DW$6 .dwtag  DW_TAG_subprogram
      46                            .dwattr $C$DW$6, DW_AT_name("IntDisable")
      47                            .dwattr $C$DW$6, DW_AT_TI_symbol_name("IntDisable")
      48                            .dwattr $C$DW$6, DW_AT_declaration
      49                            .dwattr $C$DW$6, DW_AT_external
      50                            .dwattr $C$DW$6, DW_AT_decl_file("/home/pola/workspace_v8/Microwave/driverlib/interrupt.h")
      51                            .dwattr $C$DW$6, DW_AT_decl_line(0x4d)
      52                            .dwattr $C$DW$6, DW_AT_decl_column(0x0d)
      53                    $C$DW$7 .dwtag  DW_TAG_formal_parameter
      54                            .dwattr $C$DW$7, DW_AT_type(*$C$DW$T$33)
      55                    
TI ARM Assembler Unix v18.1.1 Fri Jul  3 20:08:24 2020

Tools Copyright (c) 1996-2017 Texas Instruments Incorporated
hibernate.asm                                                        PAGE    2

      56                            .dwendtag $C$DW$6
      57                    
      58                    
      59                    $C$DW$8 .dwtag  DW_TAG_subprogram
      60                            .dwattr $C$DW$8, DW_AT_name("IntUnregister")
      61                            .dwattr $C$DW$8, DW_AT_TI_symbol_name("IntUnregister")
      62                            .dwattr $C$DW$8, DW_AT_declaration
      63                            .dwattr $C$DW$8, DW_AT_external
      64                            .dwattr $C$DW$8, DW_AT_decl_file("/home/pola/workspace_v8/Microwave/driverlib/interrupt.h")
      65                            .dwattr $C$DW$8, DW_AT_decl_line(0x46)
      66                            .dwattr $C$DW$8, DW_AT_decl_column(0x0d)
      67                    $C$DW$9 .dwtag  DW_TAG_formal_parameter
      68                            .dwattr $C$DW$9, DW_AT_type(*$C$DW$T$33)
      69                    
      70                            .dwendtag $C$DW$8
      71                    
      72                    ;       /home/pola/ti/ccsv8/tools/compiler/ti-cgt-arm_18.1.1.LTS/bin/armacpia -@/tmp/TI3PVncZQBr 
      73 00000000                   .sect   ".text"
      74                            .clink
      75                            .thumbfunc _HibernateWriteComplete
      76 00000000                   .thumb
      77                    
      78                    $C$DW$10        .dwtag  DW_TAG_subprogram
      79                            .dwattr $C$DW$10, DW_AT_name("_HibernateWriteComplete")
      80                            .dwattr $C$DW$10, DW_AT_low_pc(_HibernateWriteComplete)
      81                            .dwattr $C$DW$10, DW_AT_high_pc(0x00)
      82                            .dwattr $C$DW$10, DW_AT_TI_symbol_name("_HibernateWriteComplete")
      83                            .dwattr $C$DW$10, DW_AT_TI_begin_file("../driverlib/hibernate.c")
      84                            .dwattr $C$DW$10, DW_AT_TI_begin_line(0x6b)
      85                            .dwattr $C$DW$10, DW_AT_TI_begin_column(0x01)
      86                            .dwattr $C$DW$10, DW_AT_decl_file("../driverlib/hibernate.c")
      87                            .dwattr $C$DW$10, DW_AT_decl_line(0x6b)
      88                            .dwattr $C$DW$10, DW_AT_decl_column(0x01)
      89                            .dwattr $C$DW$10, DW_AT_TI_max_frame_size(0x00)
      90                            .dwpsn  file "../driverlib/hibernate.c",line 108,column 1,is_stmt,address _HibernateWriteCompl
      91                    
      92                            .dwfde $C$DW$CIE, _HibernateWriteComplete
      93                    ;----------------------------------------------------------------------
      94                    ; 107 | _HibernateWriteComplete(void)                                          
      95                    ; 109 | //                                                                     
      96                    ; 110 | // Spin until the write complete bit is set.                           
      97                    ; 111 | //                                                                     
      98                    ;----------------------------------------------------------------------
      99                    
     100                    ;*****************************************************************************
     101                    ;* FUNCTION NAME: _HibernateWriteComplete                                    *
     102                    ;*                                                                           *
     103                    ;*   Regs Modified     : A1,SR                                               *
     104                    ;*   Regs Used         : A1,LR,SR                                            *
     105                    ;*   Local Frame Size  : 0 Args + 0 Auto + 0 Save = 0 byte                   *
     106                    ;*****************************************************************************
     107 00000000           _HibernateWriteComplete:
     108                    ;* --------------------------------------------------------------------------*
     109                            .dwcfi  cfa_offset, 0
     110                            .dwpsn  file "../driverlib/hibernate.c",line 112,column 5,is_stmt,isa 1
TI ARM Assembler Unix v18.1.1 Fri Jul  3 20:08:24 2020

Tools Copyright (c) 1996-2017 Texas Instruments Incorporated
hibernate.asm                                                        PAGE    3

     111                    ;----------------------------------------------------------------------
     112                    ; 112 | while(!(HWREG(HIB_CTL) & HIB_CTL_WRC))                                 
     113                    ;----------------------------------------------------------------------
     114                    ;* --------------------------------------------------------------------------*
     115                    ;*   BEGIN LOOP ||$C$L1||
     116                    ;*
     117                    ;*   Loop source line                : 112
     118                    ;*   Loop closing brace source line  : 114
     119                    ;*   Known Minimum Trip Count        : 1
     120                    ;*   Known Maximum Trip Count        : 4294967295
     121                    ;*   Known Max Trip Count Factor     : 1
     122                    ;* --------------------------------------------------------------------------*
     123 00000000           ||$C$L1||:    
     124                            .dwpsn  file "../driverlib/hibernate.c",line 112,column 11,is_stmt,isa 1
     125 00000000 48BC              LDR       A1, $C$CON1           ; [DPU_V7M3_PIPE] |112|  ; [ORIG 16-BIT INS]
     126 00000002 6800              LDR       A1, [A1, #0]          ; [DPU_V7M3_PIPE] |112|  ; [ORIG 16-BIT INS]
     127 00000004 0800              LSRS      A1, A1, #32           ; [DPU_V7M3_PIPE] |112|  ; [ORIG 16-BIT INS]
     128 00000006 D3FB              BCC       ||$C$L1||             ; [DPU_V7M3_PIPE] |112|  ; [ORIG 16-BIT INS]
     129                            ; BRANCHCC OCCURS {||$C$L1||}    ; [] |112| 
     130                    ;* --------------------------------------------------------------------------*
     131                            .dwpsn  file "../driverlib/hibernate.c",line 115,column 1,is_stmt,isa 1
     132                    $C$DW$11        .dwtag  DW_TAG_TI_branch
     133                            .dwattr $C$DW$11, DW_AT_low_pc(0x00)
     134                            .dwattr $C$DW$11, DW_AT_TI_return
     135                    
     136 00000008 4770              BX        LR                    ; [DPU_V7M3_PIPE]  ; [ORIG 16-BIT INS]
     137                            ; BRANCH OCCURS                  ; [] 
     138                            .dwattr $C$DW$10, DW_AT_TI_end_file("../driverlib/hibernate.c")
     139                            .dwattr $C$DW$10, DW_AT_TI_end_line(0x73)
     140                            .dwattr $C$DW$10, DW_AT_TI_end_column(0x01)
     141                            .dwendentry
     142                            .dwendtag $C$DW$10
     143                    
     144 0000000a                   .sect   ".text"
     145                            .clink
     146                            .thumbfunc HibernateEnableExpClk
     147 0000000a                   .thumb
     148                            .global HibernateEnableExpClk
     149                    
     150                    $C$DW$12        .dwtag  DW_TAG_subprogram
     151                            .dwattr $C$DW$12, DW_AT_name("HibernateEnableExpClk")
     152                            .dwattr $C$DW$12, DW_AT_low_pc(HibernateEnableExpClk)
     153                            .dwattr $C$DW$12, DW_AT_high_pc(0x00)
     154                            .dwattr $C$DW$12, DW_AT_TI_symbol_name("HibernateEnableExpClk")
     155                            .dwattr $C$DW$12, DW_AT_external
     156                            .dwattr $C$DW$12, DW_AT_TI_begin_file("../driverlib/hibernate.c")
     157                            .dwattr $C$DW$12, DW_AT_TI_begin_line(0x8a)
     158                            .dwattr $C$DW$12, DW_AT_TI_begin_column(0x01)
     159                            .dwattr $C$DW$12, DW_AT_decl_file("../driverlib/hibernate.c")
     160                            .dwattr $C$DW$12, DW_AT_decl_line(0x8a)
     161                            .dwattr $C$DW$12, DW_AT_decl_column(0x01)
     162                            .dwattr $C$DW$12, DW_AT_TI_max_frame_size(0x08)
     163                            .dwpsn  file "../driverlib/hibernate.c",line 139,column 1,is_stmt,address HibernateEnableExpCl
     164                    
     165                            .dwfde $C$DW$CIE, HibernateEnableExpClk
TI ARM Assembler Unix v18.1.1 Fri Jul  3 20:08:24 2020

Tools Copyright (c) 1996-2017 Texas Instruments Incorporated
hibernate.asm                                                        PAGE    4

     166                    $C$DW$13        .dwtag  DW_TAG_formal_parameter
     167                            .dwattr $C$DW$13, DW_AT_name("ui32HibClk")
     168                            .dwattr $C$DW$13, DW_AT_TI_symbol_name("ui32HibClk")
     169                            .dwattr $C$DW$13, DW_AT_type(*$C$DW$T$33)
     170                            .dwattr $C$DW$13, DW_AT_location[DW_OP_reg0]
     171                    
     172                    ;----------------------------------------------------------------------
     173                    ; 138 | HibernateEnableExpClk(uint32_t ui32HibClk)                             
     174                    ;----------------------------------------------------------------------
     175                    
     176                    ;*****************************************************************************
     177                    ;* FUNCTION NAME: HibernateEnableExpClk                                      *
     178                    ;*                                                                           *
     179                    ;*   Regs Modified     : A1,A2,A4,SP,LR,SR,FPEXC,FPSCR                       *
     180                    ;*   Regs Used         : A1,A2,A4,SP,LR,SR,FPEXC,FPSCR                       *
     181                    ;*   Local Frame Size  : 0 Args + 4 Auto + 4 Save = 8 byte                   *
     182                    ;*****************************************************************************
     183 0000000a           HibernateEnableExpClk:
     184                    ;* --------------------------------------------------------------------------*
     185                            .dwcfi  cfa_offset, 0
     186 0000000a B508              PUSH      {A4, LR}              ; [DPU_V7M3_PIPE]  ; [ORIG 16-BIT INS]
     187                            .dwcfi  cfa_offset, 8
     188                            .dwcfi  save_reg_to_mem, 14, -4
     189                            .dwcfi  save_reg_to_mem, 3, -8
     190                    $C$DW$14        .dwtag  DW_TAG_variable
     191                            .dwattr $C$DW$14, DW_AT_name("ui32HibClk")
     192                            .dwattr $C$DW$14, DW_AT_TI_symbol_name("ui32HibClk")
     193                            .dwattr $C$DW$14, DW_AT_type(*$C$DW$T$33)
     194                            .dwattr $C$DW$14, DW_AT_location[DW_OP_breg13 0]
     195                    
     196                    ;----------------------------------------------------------------------
     197                    ; 140 | //                                                                     
     198                    ; 141 | // Turn on the clock enable bit.                                       
     199                    ; 142 | //                                                                     
     200                    ;----------------------------------------------------------------------
     201 0000000c 9000              STR       A1, [SP, #0]          ; [DPU_V7M3_PIPE] |139|  ; [ORIG 16-BIT INS]
     202                            .dwpsn  file "../driverlib/hibernate.c",line 143,column 5,is_stmt,isa 1
     203                    ;----------------------------------------------------------------------
     204                    ; 143 | HWREG(HIB_CTL) |= HIB_CTL_CLK32EN;                                     
     205                    ; 145 | //                                                                     
     206                    ; 146 | // Wait for write complete following register load (above).            
     207                    ; 147 | //                                                                     
     208                    ;----------------------------------------------------------------------
     209 0000000e 49B9              LDR       A2, $C$CON1           ; [DPU_V7M3_PIPE] |143|  ; [ORIG 16-BIT INS]
     210 00000010 6808              LDR       A1, [A2, #0]          ; [DPU_V7M3_PIPE] |143|  ; [ORIG 16-BIT INS]
     211 00000012 0040F040          ORR       A1, A1, #64           ; [DPU_V7M3_PIPE] |143|  ; [KEEP 32-BIT INS]
     212 00000016 6008              STR       A1, [A2, #0]          ; [DPU_V7M3_PIPE] |143|  ; [ORIG 16-BIT INS]
     213                            .dwpsn  file "../driverlib/hibernate.c",line 148,column 5,is_stmt,isa 1
     214                    ;----------------------------------------------------------------------
     215                    ; 148 | _HibernateWriteComplete();                                             
     216                    ;----------------------------------------------------------------------
     217                    $C$DW$15        .dwtag  DW_TAG_TI_branch
     218                            .dwattr $C$DW$15, DW_AT_low_pc(0x00)
     219                            .dwattr $C$DW$15, DW_AT_name("_HibernateWriteComplete")
     220                            .dwattr $C$DW$15, DW_AT_TI_call
TI ARM Assembler Unix v18.1.1 Fri Jul  3 20:08:24 2020

Tools Copyright (c) 1996-2017 Texas Instruments Incorporated
hibernate.asm                                                        PAGE    5

     221                    
     222 00000018 FFFEF7FF!         BL        _HibernateWriteComplete ; [DPU_V7M3_PIPE] |148|  ; [KEEP 32-BIT INS]
     223                            ; CALL OCCURS {_HibernateWriteComplete }  ; [] |148| 
     224                            .dwpsn  file "../driverlib/hibernate.c",line 149,column 1,is_stmt,isa 1
     225                    $C$DW$16        .dwtag  DW_TAG_TI_branch
     226                            .dwattr $C$DW$16, DW_AT_low_pc(0x00)
     227                            .dwattr $C$DW$16, DW_AT_TI_return
     228                    
     229 0000001c BD08              POP       {A4, PC}              ; [DPU_V7M3_PIPE]  ; [ORIG 16-BIT INS]
     230                            .dwcfi  cfa_offset, 0
     231                            .dwcfi  restore_reg, 3
     232                            ; BRANCH OCCURS                  ; [] 
     233                            .dwattr $C$DW$12, DW_AT_TI_end_file("../driverlib/hibernate.c")
     234                            .dwattr $C$DW$12, DW_AT_TI_end_line(0x95)
     235                            .dwattr $C$DW$12, DW_AT_TI_end_column(0x01)
     236                            .dwendentry
     237                            .dwendtag $C$DW$12
     238                    
     239 0000001e                   .sect   ".text"
     240                            .clink
     241                            .thumbfunc HibernateDisable
     242 0000001e                   .thumb
     243                            .global HibernateDisable
     244                    
     245                    $C$DW$17        .dwtag  DW_TAG_subprogram
     246                            .dwattr $C$DW$17, DW_AT_name("HibernateDisable")
     247                            .dwattr $C$DW$17, DW_AT_low_pc(HibernateDisable)
     248                            .dwattr $C$DW$17, DW_AT_high_pc(0x00)
     249                            .dwattr $C$DW$17, DW_AT_TI_symbol_name("HibernateDisable")
     250                            .dwattr $C$DW$17, DW_AT_external
     251                            .dwattr $C$DW$17, DW_AT_TI_begin_file("../driverlib/hibernate.c")
     252                            .dwattr $C$DW$17, DW_AT_TI_begin_line(0xa2)
     253                            .dwattr $C$DW$17, DW_AT_TI_begin_column(0x01)
     254                            .dwattr $C$DW$17, DW_AT_decl_file("../driverlib/hibernate.c")
     255                            .dwattr $C$DW$17, DW_AT_decl_line(0xa2)
     256                            .dwattr $C$DW$17, DW_AT_decl_column(0x01)
     257                            .dwattr $C$DW$17, DW_AT_TI_max_frame_size(0x08)
     258                            .dwpsn  file "../driverlib/hibernate.c",line 163,column 1,is_stmt,address HibernateDisable,isa
     259                    
     260                            .dwfde $C$DW$CIE, HibernateDisable
     261                    ;----------------------------------------------------------------------
     262                    ; 162 | HibernateDisable(void)                                                 
     263                    ; 164 | //                                                                     
     264                    ; 165 | // Turn off the clock enable bit.                                      
     265                    ; 166 | //                                                                     
     266                    ;----------------------------------------------------------------------
     267                    
     268                    ;*****************************************************************************
     269                    ;* FUNCTION NAME: HibernateDisable                                           *
     270                    ;*                                                                           *
     271                    ;*   Regs Modified     : A1,A2,A4,SP,LR,SR,FPEXC,FPSCR                       *
     272                    ;*   Regs Used         : A1,A2,A4,SP,LR,SR,FPEXC,FPSCR                       *
     273                    ;*   Local Frame Size  : 0 Args + 0 Auto + 4 Save = 4 byte                   *
     274                    ;*****************************************************************************
     275 0000001e           HibernateDisable:
TI ARM Assembler Unix v18.1.1 Fri Jul  3 20:08:24 2020

Tools Copyright (c) 1996-2017 Texas Instruments Incorporated
hibernate.asm                                                        PAGE    6

     276                    ;* --------------------------------------------------------------------------*
     277                            .dwcfi  cfa_offset, 0
     278 0000001e B508              PUSH      {A4, LR}              ; [DPU_V7M3_PIPE]  ; [ORIG 16-BIT INS]
     279                            .dwcfi  cfa_offset, 8
     280                            .dwcfi  save_reg_to_mem, 14, -4
     281                            .dwcfi  save_reg_to_mem, 3, -8
     282                            .dwpsn  file "../driverlib/hibernate.c",line 167,column 5,is_stmt,isa 1
     283                    ;----------------------------------------------------------------------
     284                    ; 167 | HWREG(HIB_CTL) &= ~HIB_CTL_CLK32EN;                                    
     285                    ; 169 | //                                                                     
     286                    ; 170 | // Wait for write completion                                           
     287                    ; 171 | //                                                                     
     288                    ;----------------------------------------------------------------------
     289 00000020 49B4              LDR       A2, $C$CON1           ; [DPU_V7M3_PIPE] |167|  ; [ORIG 16-BIT INS]
     290 00000022 6808              LDR       A1, [A2, #0]          ; [DPU_V7M3_PIPE] |167|  ; [ORIG 16-BIT INS]
     291 00000024 0040F020          BIC       A1, A1, #64           ; [DPU_V7M3_PIPE] |167|  ; [KEEP 32-BIT INS]
     292 00000028 6008              STR       A1, [A2, #0]          ; [DPU_V7M3_PIPE] |167|  ; [ORIG 16-BIT INS]
     293                            .dwpsn  file "../driverlib/hibernate.c",line 172,column 5,is_stmt,isa 1
     294                    ;----------------------------------------------------------------------
     295                    ; 172 | _HibernateWriteComplete();                                             
     296                    ;----------------------------------------------------------------------
     297                    $C$DW$18        .dwtag  DW_TAG_TI_branch
     298                            .dwattr $C$DW$18, DW_AT_low_pc(0x00)
     299                            .dwattr $C$DW$18, DW_AT_name("_HibernateWriteComplete")
     300                            .dwattr $C$DW$18, DW_AT_TI_call
     301                    
     302 0000002a FFFEF7FF!         BL        _HibernateWriteComplete ; [DPU_V7M3_PIPE] |172|  ; [KEEP 32-BIT INS]
     303                            ; CALL OCCURS {_HibernateWriteComplete }  ; [] |172| 
     304                            .dwpsn  file "../driverlib/hibernate.c",line 173,column 1,is_stmt,isa 1
     305                    $C$DW$19        .dwtag  DW_TAG_TI_branch
     306                            .dwattr $C$DW$19, DW_AT_low_pc(0x00)
     307                            .dwattr $C$DW$19, DW_AT_TI_return
     308                    
     309 0000002e BD08              POP       {A4, PC}              ; [DPU_V7M3_PIPE]  ; [ORIG 16-BIT INS]
     310                            .dwcfi  cfa_offset, 0
     311                            .dwcfi  restore_reg, 3
     312                            ; BRANCH OCCURS                  ; [] 
     313                            .dwattr $C$DW$17, DW_AT_TI_end_file("../driverlib/hibernate.c")
     314                            .dwattr $C$DW$17, DW_AT_TI_end_line(0xad)
     315                            .dwattr $C$DW$17, DW_AT_TI_end_column(0x01)
     316                            .dwendentry
     317                            .dwendtag $C$DW$17
     318                    
     319 00000030                   .sect   ".text"
     320                            .clink
     321                            .thumbfunc HibernateClockConfig
     322 00000030                   .thumb
     323                            .global HibernateClockConfig
     324                    
     325                    $C$DW$20        .dwtag  DW_TAG_subprogram
     326                            .dwattr $C$DW$20, DW_AT_name("HibernateClockConfig")
     327                            .dwattr $C$DW$20, DW_AT_low_pc(HibernateClockConfig)
     328                            .dwattr $C$DW$20, DW_AT_high_pc(0x00)
     329                            .dwattr $C$DW$20, DW_AT_TI_symbol_name("HibernateClockConfig")
     330                            .dwattr $C$DW$20, DW_AT_external
TI ARM Assembler Unix v18.1.1 Fri Jul  3 20:08:24 2020

Tools Copyright (c) 1996-2017 Texas Instruments Incorporated
hibernate.asm                                                        PAGE    7

     331                            .dwattr $C$DW$20, DW_AT_TI_begin_file("../driverlib/hibernate.c")
     332                            .dwattr $C$DW$20, DW_AT_TI_begin_line(0xe3)
     333                            .dwattr $C$DW$20, DW_AT_TI_begin_column(0x01)
     334                            .dwattr $C$DW$20, DW_AT_decl_file("../driverlib/hibernate.c")
     335                            .dwattr $C$DW$20, DW_AT_decl_line(0xe3)
     336                            .dwattr $C$DW$20, DW_AT_decl_column(0x01)
     337                            .dwattr $C$DW$20, DW_AT_TI_max_frame_size(0x10)
     338                            .dwpsn  file "../driverlib/hibernate.c",line 228,column 1,is_stmt,address HibernateClockConfig
     339                    
     340                            .dwfde $C$DW$CIE, HibernateClockConfig
     341                    $C$DW$21        .dwtag  DW_TAG_formal_parameter
     342                            .dwattr $C$DW$21, DW_AT_name("ui32Config")
     343                            .dwattr $C$DW$21, DW_AT_TI_symbol_name("ui32Config")
     344                            .dwattr $C$DW$21, DW_AT_type(*$C$DW$T$33)
     345                            .dwattr $C$DW$21, DW_AT_location[DW_OP_reg0]
     346                    
     347                    ;----------------------------------------------------------------------
     348                    ; 227 | HibernateClockConfig(uint32_t ui32Config)                              
     349                    ;----------------------------------------------------------------------
     350                    
     351                    ;*****************************************************************************
     352                    ;* FUNCTION NAME: HibernateClockConfig                                       *
     353                    ;*                                                                           *
     354                    ;*   Regs Modified     : A1,A2,A3,A4,SP,LR,SR,FPEXC,FPSCR                    *
     355                    ;*   Regs Used         : A1,A2,A3,A4,SP,LR,SR,FPEXC,FPSCR                    *
     356                    ;*   Local Frame Size  : 0 Args + 8 Auto + 4 Save = 12 byte                  *
     357                    ;*****************************************************************************
     358 00000030           HibernateClockConfig:
     359                    ;* --------------------------------------------------------------------------*
     360                            .dwcfi  cfa_offset, 0
     361 00000030 B50E              PUSH      {A2, A3, A4, LR}      ; [DPU_V7M3_PIPE]  ; [ORIG 16-BIT INS]
     362                            .dwcfi  cfa_offset, 16
     363                            .dwcfi  save_reg_to_mem, 14, -4
     364                            .dwcfi  save_reg_to_mem, 3, -8
     365                            .dwcfi  save_reg_to_mem, 2, -12
     366                            .dwcfi  save_reg_to_mem, 1, -16
     367                    $C$DW$22        .dwtag  DW_TAG_variable
     368                            .dwattr $C$DW$22, DW_AT_name("ui32Config")
     369                            .dwattr $C$DW$22, DW_AT_TI_symbol_name("ui32Config")
     370                            .dwattr $C$DW$22, DW_AT_type(*$C$DW$T$33)
     371                            .dwattr $C$DW$22, DW_AT_location[DW_OP_breg13 0]
     372                    
     373                    $C$DW$23        .dwtag  DW_TAG_variable
     374                            .dwattr $C$DW$23, DW_AT_name("ui32HIBCtl")
     375                            .dwattr $C$DW$23, DW_AT_TI_symbol_name("ui32HIBCtl")
     376                            .dwattr $C$DW$23, DW_AT_type(*$C$DW$T$33)
     377                            .dwattr $C$DW$23, DW_AT_location[DW_OP_breg13 4]
     378                    
     379                    ;----------------------------------------------------------------------
     380                    ; 229 | uint32_t ui32HIBCtl;                                                   
     381                    ; 231 | ASSERT((ui32Config & ~(HIBERNATE_OSC_HIGHDRIVE | HIBERNATE_OSC_LOWDRIVE
     382                    ;     |  |                                                                     
     383                    ; 232 |                        HIBERNATE_OSC_DISABLE)) == 0);                  
     384                    ;----------------------------------------------------------------------
     385 00000032 9000              STR       A1, [SP, #0]          ; [DPU_V7M3_PIPE] |228|  ; [ORIG 16-BIT INS]
TI ARM Assembler Unix v18.1.1 Fri Jul  3 20:08:24 2020

Tools Copyright (c) 1996-2017 Texas Instruments Incorporated
hibernate.asm                                                        PAGE    8

     386                            .dwpsn  file "../driverlib/hibernate.c",line 234,column 5,is_stmt,isa 1
     387                    ;----------------------------------------------------------------------
     388                    ; 234 | ui32HIBCtl = HWREG(HIB_CTL);                                           
     389                    ; 236 | //                                                                     
     390                    ; 237 | // Clear the current configuration bits.                               
     391                    ; 238 | //                                                                     
     392                    ;----------------------------------------------------------------------
     393 00000034 48AF              LDR       A1, $C$CON1           ; [DPU_V7M3_PIPE] |234|  ; [ORIG 16-BIT INS]
     394 00000036 6800              LDR       A1, [A1, #0]          ; [DPU_V7M3_PIPE] |234|  ; [ORIG 16-BIT INS]
     395 00000038 9001              STR       A1, [SP, #4]          ; [DPU_V7M3_PIPE] |234|  ; [ORIG 16-BIT INS]
     396                            .dwpsn  file "../driverlib/hibernate.c",line 239,column 5,is_stmt,isa 1
     397                    ;----------------------------------------------------------------------
     398                    ; 239 | ui32HIBCtl &= ~(HIBERNATE_OSC_HIGHDRIVE | HIBERNATE_OSC_LOWDRIVE |     
     399                    ; 240 |                 HIBERNATE_OSC_LFIOSC | HIBERNATE_OSC_DISABLE);         
     400                    ; 242 | //                                                                     
     401                    ; 243 | // Set the new configuration bits.                                     
     402                    ; 244 | //                                                                     
     403                    ;----------------------------------------------------------------------
     404 0000003a 9801              LDR       A1, [SP, #4]          ; [DPU_V7M3_PIPE] |239|  ; [ORIG 16-BIT INS]
     405 0000003c 2030F420          BIC       A1, A1, #720896       ; [DPU_V7M3_PIPE] |239|  ; [KEEP 32-BIT INS]
     406 00000040 9001              STR       A1, [SP, #4]          ; [DPU_V7M3_PIPE] |239|  ; [ORIG 16-BIT INS]
     407                            .dwpsn  file "../driverlib/hibernate.c",line 245,column 5,is_stmt,isa 1
     408                    ;----------------------------------------------------------------------
     409                    ; 245 | ui32HIBCtl |= ui32Config & (HIBERNATE_OSC_HIGHDRIVE |                  
     410                    ; 246 |                             HIBERNATE_OSC_LOWDRIVE |                   
     411                    ; 247 |                             HIBERNATE_OSC_LFIOSC |                     
     412                    ; 248 |                             HIBERNATE_OSC_DISABLE);                    
     413                    ; 250 | //                                                                     
     414                    ; 251 | // Must be sure that the 32KHz clock is enabled if the hibernate is abo
     415                    ;     | ut                                                                     
     416                    ; 252 | // to switch to it.                                                    
     417                    ; 253 | //                                                                     
     418                    ;----------------------------------------------------------------------
     419 00000042 9800              LDR       A1, [SP, #0]          ; [DPU_V7M3_PIPE] |245|  ; [ORIG 16-BIT INS]
     420 00000044 9901              LDR       A2, [SP, #4]          ; [DPU_V7M3_PIPE] |245|  ; [ORIG 16-BIT INS]
     421 00000046 2030F400          AND       A1, A1, #720896       ; [DPU_V7M3_PIPE] |245|  ; [KEEP 32-BIT INS]
     422 0000004a 4308              ORRS      A1, A1, A2            ; [DPU_V7M3_PIPE] |245|  ; [ORIG 16-BIT INS]
     423 0000004c 9001              STR       A1, [SP, #4]          ; [DPU_V7M3_PIPE] |245|  ; [ORIG 16-BIT INS]
     424                            .dwpsn  file "../driverlib/hibernate.c",line 254,column 5,is_stmt,isa 1
     425                    ;----------------------------------------------------------------------
     426                    ; 254 | if(ui32Config & HIBERNATE_OSC_LFIOSC)                                  
     427                    ;----------------------------------------------------------------------
     428 0000004e 9800              LDR       A1, [SP, #0]          ; [DPU_V7M3_PIPE] |254|  ; [ORIG 16-BIT INS]
     429 00000050 0D00              LSRS      A1, A1, #20           ; [DPU_V7M3_PIPE] |254|  ; [ORIG 16-BIT INS]
     430 00000052 D303              BCC       ||$C$L2||             ; [DPU_V7M3_PIPE] |254|  ; [ORIG 16-BIT INS]
     431                            ; BRANCHCC OCCURS {||$C$L2||}    ; [] |254| 
     432                    ;* --------------------------------------------------------------------------*
     433                            .dwpsn  file "../driverlib/hibernate.c",line 256,column 9,is_stmt,isa 1
     434                    ;----------------------------------------------------------------------
     435                    ; 256 | ui32HIBCtl |= HIB_CTL_CLK32EN;                                         
     436                    ; 259 | //                                                                     
     437                    ; 260 | // Set the hibernation clocking configuration.                         
     438                    ; 261 | //                                                                     
     439                    ;----------------------------------------------------------------------
     440 00000054 9801              LDR       A1, [SP, #4]          ; [DPU_V7M3_PIPE] |256|  ; [ORIG 16-BIT INS]
TI ARM Assembler Unix v18.1.1 Fri Jul  3 20:08:24 2020

Tools Copyright (c) 1996-2017 Texas Instruments Incorporated
hibernate.asm                                                        PAGE    9

     441 00000056 0040F040          ORR       A1, A1, #64           ; [DPU_V7M3_PIPE] |256|  ; [KEEP 32-BIT INS]
     442 0000005a 9001              STR       A1, [SP, #4]          ; [DPU_V7M3_PIPE] |256|  ; [ORIG 16-BIT INS]
     443                    ;* --------------------------------------------------------------------------*
     444 0000005c           ||$C$L2||:    
     445                            .dwpsn  file "../driverlib/hibernate.c",line 262,column 5,is_stmt,isa 1
     446                    ;----------------------------------------------------------------------
     447                    ; 262 | HWREG(HIB_CTL) = ui32HIBCtl;                                           
     448                    ; 264 | //                                                                     
     449                    ; 265 | // Wait for write completion                                           
     450                    ; 266 | //                                                                     
     451                    ;----------------------------------------------------------------------
     452 0000005c 9801              LDR       A1, [SP, #4]          ; [DPU_V7M3_PIPE] |262|  ; [ORIG 16-BIT INS]
     453 0000005e 49A5              LDR       A2, $C$CON1           ; [DPU_V7M3_PIPE] |262|  ; [ORIG 16-BIT INS]
     454 00000060 6008              STR       A1, [A2, #0]          ; [DPU_V7M3_PIPE] |262|  ; [ORIG 16-BIT INS]
     455                            .dwpsn  file "../driverlib/hibernate.c",line 267,column 5,is_stmt,isa 1
     456                    ;----------------------------------------------------------------------
     457                    ; 267 | _HibernateWriteComplete();                                             
     458                    ; 269 | //                                                                     
     459                    ; 270 | // Write the output clock configuration for devices that support       
     460                    ; 271 | // controlling the output clocks from the hibernate module.            
     461                    ; 272 | //                                                                     
     462                    ;----------------------------------------------------------------------
     463                    $C$DW$24        .dwtag  DW_TAG_TI_branch
     464                            .dwattr $C$DW$24, DW_AT_low_pc(0x00)
     465                            .dwattr $C$DW$24, DW_AT_name("_HibernateWriteComplete")
     466                            .dwattr $C$DW$24, DW_AT_TI_call
     467                    
     468 00000062 FFFEF7FF!         BL        _HibernateWriteComplete ; [DPU_V7M3_PIPE] |267|  ; [KEEP 32-BIT INS]
     469                            ; CALL OCCURS {_HibernateWriteComplete }  ; [] |267| 
     470                            .dwpsn  file "../driverlib/hibernate.c",line 273,column 5,is_stmt,isa 1
     471                    ;----------------------------------------------------------------------
     472                    ; 273 | if(HIBERNATE_CLOCK_OUTPUT)                                             
     473                    ;----------------------------------------------------------------------
     474 00000066 49C0              LDR       A2, $C$CON3           ; [DPU_V7M3_PIPE] |273|  ; [ORIG 16-BIT INS]
     475 00000068 48BE              LDR       A1, $C$CON2           ; [DPU_V7M3_PIPE] |273|  ; [ORIG 16-BIT INS]
     476 0000006a 680A              LDR       A3, [A2, #0]          ; [DPU_V7M3_PIPE] |273|  ; [ORIG 16-BIT INS]
     477 0000006c 49BF              LDR       A2, $C$CON4           ; [DPU_V7M3_PIPE] |273|  ; [ORIG 16-BIT INS]
     478 0000006e 4010              ANDS      A1, A1, A3            ; [DPU_V7M3_PIPE] |273|  ; [ORIG 16-BIT INS]
     479 00000070 4281              CMP       A2, A1                ; [DPU_V7M3_PIPE] |273|  ; [ORIG 16-BIT INS]
     480 00000072 D104              BNE       ||$C$L3||             ; [DPU_V7M3_PIPE] |273|  ; [ORIG 16-BIT INS]
     481                            ; BRANCHCC OCCURS {||$C$L3||}    ; [] |273| 
     482                    ;* --------------------------------------------------------------------------*
     483                            .dwpsn  file "../driverlib/hibernate.c",line 275,column 13,is_stmt,isa 1
     484                    ;----------------------------------------------------------------------
     485                    ; 275 | HWREG(HIB_CC) = ui32Config & (HIBERNATE_OUT_SYSCLK);                   
     486                    ;----------------------------------------------------------------------
     487 00000074 9800              LDR       A1, [SP, #0]          ; [DPU_V7M3_PIPE] |275|  ; [ORIG 16-BIT INS]
     488 00000076 49C3              LDR       A2, $C$CON5           ; [DPU_V7M3_PIPE] |275|  ; [ORIG 16-BIT INS]
     489 00000078 0001F000          AND       A1, A1, #1            ; [DPU_V7M3_PIPE] |275|  ; [KEEP 32-BIT INS]
     490 0000007c 6008              STR       A1, [A2, #0]          ; [DPU_V7M3_PIPE] |275|  ; [ORIG 16-BIT INS]
     491                            .dwpsn  file "../driverlib/hibernate.c",line 277,column 1,is_stmt,isa 1
     492                    ;* --------------------------------------------------------------------------*
     493                    ||$C$L3||:    
     494                    $C$DW$25        .dwtag  DW_TAG_TI_branch
     495                            .dwattr $C$DW$25, DW_AT_low_pc(0x00)
TI ARM Assembler Unix v18.1.1 Fri Jul  3 20:08:24 2020

Tools Copyright (c) 1996-2017 Texas Instruments Incorporated
hibernate.asm                                                        PAGE   10

     496                            .dwattr $C$DW$25, DW_AT_TI_return
     497                    
     498 0000007e BD0E              POP       {A2, A3, A4, PC}      ; [DPU_V7M3_PIPE]  ; [ORIG 16-BIT INS]
     499                            .dwcfi  cfa_offset, 0
     500                            .dwcfi  restore_reg, 3
     501                            .dwcfi  restore_reg, 2
     502                            .dwcfi  restore_reg, 1
     503                            ; BRANCH OCCURS                  ; [] 
     504                            .dwattr $C$DW$20, DW_AT_TI_end_file("../driverlib/hibernate.c")
     505                            .dwattr $C$DW$20, DW_AT_TI_end_line(0x115)
     506                            .dwattr $C$DW$20, DW_AT_TI_end_column(0x01)
     507                            .dwendentry
     508                            .dwendtag $C$DW$20
     509                    
     510 00000080                   .sect   ".text"
     511                            .clink
     512                            .thumbfunc HibernateRTCEnable
     513 00000080                   .thumb
     514                            .global HibernateRTCEnable
     515                    
     516                    $C$DW$26        .dwtag  DW_TAG_subprogram
     517                            .dwattr $C$DW$26, DW_AT_name("HibernateRTCEnable")
     518                            .dwattr $C$DW$26, DW_AT_low_pc(HibernateRTCEnable)
     519                            .dwattr $C$DW$26, DW_AT_high_pc(0x00)
     520                            .dwattr $C$DW$26, DW_AT_TI_symbol_name("HibernateRTCEnable")
     521                            .dwattr $C$DW$26, DW_AT_external
     522                            .dwattr $C$DW$26, DW_AT_TI_begin_file("../driverlib/hibernate.c")
     523                            .dwattr $C$DW$26, DW_AT_TI_begin_line(0x124)
     524                            .dwattr $C$DW$26, DW_AT_TI_begin_column(0x01)
     525                            .dwattr $C$DW$26, DW_AT_decl_file("../driverlib/hibernate.c")
     526                            .dwattr $C$DW$26, DW_AT_decl_line(0x124)
     527                            .dwattr $C$DW$26, DW_AT_decl_column(0x01)
     528                            .dwattr $C$DW$26, DW_AT_TI_max_frame_size(0x08)
     529                            .dwpsn  file "../driverlib/hibernate.c",line 293,column 1,is_stmt,address HibernateRTCEnable,i
     530                    
     531                            .dwfde $C$DW$CIE, HibernateRTCEnable
     532                    ;----------------------------------------------------------------------
     533                    ; 292 | HibernateRTCEnable(void)                                               
     534                    ; 294 | //                                                                     
     535                    ; 295 | // Turn on the RTC enable bit.                                         
     536                    ; 296 | //                                                                     
     537                    ;----------------------------------------------------------------------
     538                    
     539                    ;*****************************************************************************
     540                    ;* FUNCTION NAME: HibernateRTCEnable                                         *
     541                    ;*                                                                           *
     542                    ;*   Regs Modified     : A1,A2,A4,SP,LR,SR,FPEXC,FPSCR                       *
     543                    ;*   Regs Used         : A1,A2,A4,SP,LR,SR,FPEXC,FPSCR                       *
     544                    ;*   Local Frame Size  : 0 Args + 0 Auto + 4 Save = 4 byte                   *
     545                    ;*****************************************************************************
     546 00000080           HibernateRTCEnable:
     547                    ;* --------------------------------------------------------------------------*
     548                            .dwcfi  cfa_offset, 0
     549 00000080 B508              PUSH      {A4, LR}              ; [DPU_V7M3_PIPE]  ; [ORIG 16-BIT INS]
     550                            .dwcfi  cfa_offset, 8
TI ARM Assembler Unix v18.1.1 Fri Jul  3 20:08:24 2020

Tools Copyright (c) 1996-2017 Texas Instruments Incorporated
hibernate.asm                                                        PAGE   11

     551                            .dwcfi  save_reg_to_mem, 14, -4
     552                            .dwcfi  save_reg_to_mem, 3, -8
     553                            .dwpsn  file "../driverlib/hibernate.c",line 297,column 5,is_stmt,isa 1
     554                    ;----------------------------------------------------------------------
     555                    ; 297 | HWREG(HIB_CTL) |= HIB_CTL_RTCEN;                                       
     556                    ; 299 | //                                                                     
     557                    ; 300 | // Wait for write completion                                           
     558                    ; 301 | //                                                                     
     559                    ;----------------------------------------------------------------------
     560 00000082 499C              LDR       A2, $C$CON1           ; [DPU_V7M3_PIPE] |297|  ; [ORIG 16-BIT INS]
     561 00000084 6808              LDR       A1, [A2, #0]          ; [DPU_V7M3_PIPE] |297|  ; [ORIG 16-BIT INS]
     562 00000086 0001F040          ORR       A1, A1, #1            ; [DPU_V7M3_PIPE] |297|  ; [KEEP 32-BIT INS]
     563 0000008a 6008              STR       A1, [A2, #0]          ; [DPU_V7M3_PIPE] |297|  ; [ORIG 16-BIT INS]
     564                            .dwpsn  file "../driverlib/hibernate.c",line 302,column 5,is_stmt,isa 1
     565                    ;----------------------------------------------------------------------
     566                    ; 302 | _HibernateWriteComplete();                                             
     567                    ;----------------------------------------------------------------------
     568                    $C$DW$27        .dwtag  DW_TAG_TI_branch
     569                            .dwattr $C$DW$27, DW_AT_low_pc(0x00)
     570                            .dwattr $C$DW$27, DW_AT_name("_HibernateWriteComplete")
     571                            .dwattr $C$DW$27, DW_AT_TI_call
     572                    
     573 0000008c FFFEF7FF!         BL        _HibernateWriteComplete ; [DPU_V7M3_PIPE] |302|  ; [KEEP 32-BIT INS]
     574                            ; CALL OCCURS {_HibernateWriteComplete }  ; [] |302| 
     575                            .dwpsn  file "../driverlib/hibernate.c",line 303,column 1,is_stmt,isa 1
     576                    $C$DW$28        .dwtag  DW_TAG_TI_branch
     577                            .dwattr $C$DW$28, DW_AT_low_pc(0x00)
     578                            .dwattr $C$DW$28, DW_AT_TI_return
     579                    
     580 00000090 BD08              POP       {A4, PC}              ; [DPU_V7M3_PIPE]  ; [ORIG 16-BIT INS]
     581                            .dwcfi  cfa_offset, 0
     582                            .dwcfi  restore_reg, 3
     583                            ; BRANCH OCCURS                  ; [] 
     584                            .dwattr $C$DW$26, DW_AT_TI_end_file("../driverlib/hibernate.c")
     585                            .dwattr $C$DW$26, DW_AT_TI_end_line(0x12f)
     586                            .dwattr $C$DW$26, DW_AT_TI_end_column(0x01)
     587                            .dwendentry
     588                            .dwendtag $C$DW$26
     589                    
     590 00000092                   .sect   ".text"
     591                            .clink
     592                            .thumbfunc HibernateRTCDisable
     593 00000092                   .thumb
     594                            .global HibernateRTCDisable
     595                    
     596                    $C$DW$29        .dwtag  DW_TAG_subprogram
     597                            .dwattr $C$DW$29, DW_AT_name("HibernateRTCDisable")
     598                            .dwattr $C$DW$29, DW_AT_low_pc(HibernateRTCDisable)
     599                            .dwattr $C$DW$29, DW_AT_high_pc(0x00)
     600                            .dwattr $C$DW$29, DW_AT_TI_symbol_name("HibernateRTCDisable")
     601                            .dwattr $C$DW$29, DW_AT_external
     602                            .dwattr $C$DW$29, DW_AT_TI_begin_file("../driverlib/hibernate.c")
     603                            .dwattr $C$DW$29, DW_AT_TI_begin_line(0x13d)
     604                            .dwattr $C$DW$29, DW_AT_TI_begin_column(0x01)
     605                            .dwattr $C$DW$29, DW_AT_decl_file("../driverlib/hibernate.c")
TI ARM Assembler Unix v18.1.1 Fri Jul  3 20:08:24 2020

Tools Copyright (c) 1996-2017 Texas Instruments Incorporated
hibernate.asm                                                        PAGE   12

     606                            .dwattr $C$DW$29, DW_AT_decl_line(0x13d)
     607                            .dwattr $C$DW$29, DW_AT_decl_column(0x01)
     608                            .dwattr $C$DW$29, DW_AT_TI_max_frame_size(0x08)
     609                            .dwpsn  file "../driverlib/hibernate.c",line 318,column 1,is_stmt,address HibernateRTCDisable,
     610                    
     611                            .dwfde $C$DW$CIE, HibernateRTCDisable
     612                    ;----------------------------------------------------------------------
     613                    ; 317 | HibernateRTCDisable(void)                                              
     614                    ; 319 | //                                                                     
     615                    ; 320 | // Turn off the RTC enable bit.                                        
     616                    ; 321 | //                                                                     
     617                    ;----------------------------------------------------------------------
     618                    
     619                    ;*****************************************************************************
     620                    ;* FUNCTION NAME: HibernateRTCDisable                                        *
     621                    ;*                                                                           *
     622                    ;*   Regs Modified     : A1,A2,A4,SP,LR,SR,FPEXC,FPSCR                       *
     623                    ;*   Regs Used         : A1,A2,A4,SP,LR,SR,FPEXC,FPSCR                       *
     624                    ;*   Local Frame Size  : 0 Args + 0 Auto + 4 Save = 4 byte                   *
     625                    ;*****************************************************************************
     626 00000092           HibernateRTCDisable:
     627                    ;* --------------------------------------------------------------------------*
     628                            .dwcfi  cfa_offset, 0
     629 00000092 B508              PUSH      {A4, LR}              ; [DPU_V7M3_PIPE]  ; [ORIG 16-BIT INS]
     630                            .dwcfi  cfa_offset, 8
     631                            .dwcfi  save_reg_to_mem, 14, -4
     632                            .dwcfi  save_reg_to_mem, 3, -8
     633                            .dwpsn  file "../driverlib/hibernate.c",line 322,column 5,is_stmt,isa 1
     634                    ;----------------------------------------------------------------------
     635                    ; 322 | HWREG(HIB_CTL) &= ~HIB_CTL_RTCEN;                                      
     636                    ; 324 | //                                                                     
     637                    ; 325 | // Wait for write completion                                           
     638                    ; 326 | //                                                                     
     639                    ;----------------------------------------------------------------------
     640 00000094 4997              LDR       A2, $C$CON1           ; [DPU_V7M3_PIPE] |322|  ; [ORIG 16-BIT INS]
     641 00000096 6808              LDR       A1, [A2, #0]          ; [DPU_V7M3_PIPE] |322|  ; [ORIG 16-BIT INS]
     642 00000098 0001F020          BIC       A1, A1, #1            ; [DPU_V7M3_PIPE] |322|  ; [KEEP 32-BIT INS]
     643 0000009c 6008              STR       A1, [A2, #0]          ; [DPU_V7M3_PIPE] |322|  ; [ORIG 16-BIT INS]
     644                            .dwpsn  file "../driverlib/hibernate.c",line 327,column 5,is_stmt,isa 1
     645                    ;----------------------------------------------------------------------
     646                    ; 327 | _HibernateWriteComplete();                                             
     647                    ;----------------------------------------------------------------------
     648                    $C$DW$30        .dwtag  DW_TAG_TI_branch
     649                            .dwattr $C$DW$30, DW_AT_low_pc(0x00)
     650                            .dwattr $C$DW$30, DW_AT_name("_HibernateWriteComplete")
     651                            .dwattr $C$DW$30, DW_AT_TI_call
     652                    
     653 0000009e FFFEF7FF!         BL        _HibernateWriteComplete ; [DPU_V7M3_PIPE] |327|  ; [KEEP 32-BIT INS]
     654                            ; CALL OCCURS {_HibernateWriteComplete }  ; [] |327| 
     655                            .dwpsn  file "../driverlib/hibernate.c",line 328,column 1,is_stmt,isa 1
     656                    $C$DW$31        .dwtag  DW_TAG_TI_branch
     657                            .dwattr $C$DW$31, DW_AT_low_pc(0x00)
     658                            .dwattr $C$DW$31, DW_AT_TI_return
     659                    
     660 000000a2 BD08              POP       {A4, PC}              ; [DPU_V7M3_PIPE]  ; [ORIG 16-BIT INS]
TI ARM Assembler Unix v18.1.1 Fri Jul  3 20:08:24 2020

Tools Copyright (c) 1996-2017 Texas Instruments Incorporated
hibernate.asm                                                        PAGE   13

     661                            .dwcfi  cfa_offset, 0
     662                            .dwcfi  restore_reg, 3
     663                            ; BRANCH OCCURS                  ; [] 
     664                            .dwattr $C$DW$29, DW_AT_TI_end_file("../driverlib/hibernate.c")
     665                            .dwattr $C$DW$29, DW_AT_TI_end_line(0x148)
     666                            .dwattr $C$DW$29, DW_AT_TI_end_column(0x01)
     667                            .dwendentry
     668                            .dwendtag $C$DW$29
     669                    
     670 000000a4                   .sect   ".text"
     671                            .clink
     672                            .thumbfunc HibernateBatCheckStart
     673 000000a4                   .thumb
     674                            .global HibernateBatCheckStart
     675                    
     676                    $C$DW$32        .dwtag  DW_TAG_subprogram
     677                            .dwattr $C$DW$32, DW_AT_name("HibernateBatCheckStart")
     678                            .dwattr $C$DW$32, DW_AT_low_pc(HibernateBatCheckStart)
     679                            .dwattr $C$DW$32, DW_AT_high_pc(0x00)
     680                            .dwattr $C$DW$32, DW_AT_TI_symbol_name("HibernateBatCheckStart")
     681                            .dwattr $C$DW$32, DW_AT_external
     682                            .dwattr $C$DW$32, DW_AT_TI_begin_file("../driverlib/hibernate.c")
     683                            .dwattr $C$DW$32, DW_AT_TI_begin_line(0x15e)
     684                            .dwattr $C$DW$32, DW_AT_TI_begin_column(0x01)
     685                            .dwattr $C$DW$32, DW_AT_decl_file("../driverlib/hibernate.c")
     686                            .dwattr $C$DW$32, DW_AT_decl_line(0x15e)
     687                            .dwattr $C$DW$32, DW_AT_decl_column(0x01)
     688                            .dwattr $C$DW$32, DW_AT_TI_max_frame_size(0x08)
     689                            .dwpsn  file "../driverlib/hibernate.c",line 351,column 1,is_stmt,address HibernateBatCheckSta
     690                    
     691                            .dwfde $C$DW$CIE, HibernateBatCheckStart
     692                    ;----------------------------------------------------------------------
     693                    ; 350 | HibernateBatCheckStart(void)                                           
     694                    ; 352 | //                                                                     
     695                    ; 353 | // Initiated a forced battery check.                                   
     696                    ; 354 | //                                                                     
     697                    ;----------------------------------------------------------------------
     698                    
     699                    ;*****************************************************************************
     700                    ;* FUNCTION NAME: HibernateBatCheckStart                                     *
     701                    ;*                                                                           *
     702                    ;*   Regs Modified     : A1,A2,A4,SP,LR,SR,FPEXC,FPSCR                       *
     703                    ;*   Regs Used         : A1,A2,A4,SP,LR,SR,FPEXC,FPSCR                       *
     704                    ;*   Local Frame Size  : 0 Args + 0 Auto + 4 Save = 4 byte                   *
     705                    ;*****************************************************************************
     706 000000a4           HibernateBatCheckStart:
     707                    ;* --------------------------------------------------------------------------*
     708                            .dwcfi  cfa_offset, 0
     709 000000a4 B508              PUSH      {A4, LR}              ; [DPU_V7M3_PIPE]  ; [ORIG 16-BIT INS]
     710                            .dwcfi  cfa_offset, 8
     711                            .dwcfi  save_reg_to_mem, 14, -4
     712                            .dwcfi  save_reg_to_mem, 3, -8
     713                            .dwpsn  file "../driverlib/hibernate.c",line 355,column 5,is_stmt,isa 1
     714                    ;----------------------------------------------------------------------
     715                    ; 355 | HWREG(HIB_CTL) |= HIB_CTL_BATCHK;                                      
TI ARM Assembler Unix v18.1.1 Fri Jul  3 20:08:24 2020

Tools Copyright (c) 1996-2017 Texas Instruments Incorporated
hibernate.asm                                                        PAGE   14

     716                    ; 357 | //                                                                     
     717                    ; 358 | // Wait for write completion                                           
     718                    ; 359 | //                                                                     
     719                    ;----------------------------------------------------------------------
     720 000000a6 4993              LDR       A2, $C$CON1           ; [DPU_V7M3_PIPE] |355|  ; [ORIG 16-BIT INS]
     721 000000a8 6808              LDR       A1, [A2, #0]          ; [DPU_V7M3_PIPE] |355|  ; [ORIG 16-BIT INS]
     722 000000aa 6080F440          ORR       A1, A1, #1024         ; [DPU_V7M3_PIPE] |355|  ; [KEEP 32-BIT INS]
     723 000000ae 6008              STR       A1, [A2, #0]          ; [DPU_V7M3_PIPE] |355|  ; [ORIG 16-BIT INS]
     724                            .dwpsn  file "../driverlib/hibernate.c",line 360,column 5,is_stmt,isa 1
     725                    ;----------------------------------------------------------------------
     726                    ; 360 | _HibernateWriteComplete();                                             
     727                    ;----------------------------------------------------------------------
     728                    $C$DW$33        .dwtag  DW_TAG_TI_branch
     729                            .dwattr $C$DW$33, DW_AT_low_pc(0x00)
     730                            .dwattr $C$DW$33, DW_AT_name("_HibernateWriteComplete")
     731                            .dwattr $C$DW$33, DW_AT_TI_call
     732                    
     733 000000b0 FFFEF7FF!         BL        _HibernateWriteComplete ; [DPU_V7M3_PIPE] |360|  ; [KEEP 32-BIT INS]
     734                            ; CALL OCCURS {_HibernateWriteComplete }  ; [] |360| 
     735                            .dwpsn  file "../driverlib/hibernate.c",line 361,column 1,is_stmt,isa 1
     736                    $C$DW$34        .dwtag  DW_TAG_TI_branch
     737                            .dwattr $C$DW$34, DW_AT_low_pc(0x00)
     738                            .dwattr $C$DW$34, DW_AT_TI_return
     739                    
     740 000000b4 BD08              POP       {A4, PC}              ; [DPU_V7M3_PIPE]  ; [ORIG 16-BIT INS]
     741                            .dwcfi  cfa_offset, 0
     742                            .dwcfi  restore_reg, 3
     743                            ; BRANCH OCCURS                  ; [] 
     744                            .dwattr $C$DW$32, DW_AT_TI_end_file("../driverlib/hibernate.c")
     745                            .dwattr $C$DW$32, DW_AT_TI_end_line(0x169)
     746                            .dwattr $C$DW$32, DW_AT_TI_end_column(0x01)
     747                            .dwendentry
     748                            .dwendtag $C$DW$32
     749                    
     750 000000b6                   .sect   ".text"
     751                            .clink
     752                            .thumbfunc HibernateBatCheckDone
     753 000000b6                   .thumb
     754                            .global HibernateBatCheckDone
     755                    
     756                    $C$DW$35        .dwtag  DW_TAG_subprogram
     757                            .dwattr $C$DW$35, DW_AT_name("HibernateBatCheckDone")
     758                            .dwattr $C$DW$35, DW_AT_low_pc(HibernateBatCheckDone)
     759                            .dwattr $C$DW$35, DW_AT_high_pc(0x00)
     760                            .dwattr $C$DW$35, DW_AT_TI_symbol_name("HibernateBatCheckDone")
     761                            .dwattr $C$DW$35, DW_AT_external
     762                            .dwattr $C$DW$35, DW_AT_type(*$C$DW$T$33)
     763                            .dwattr $C$DW$35, DW_AT_TI_begin_file("../driverlib/hibernate.c")
     764                            .dwattr $C$DW$35, DW_AT_TI_begin_line(0x17c)
     765                            .dwattr $C$DW$35, DW_AT_TI_begin_column(0x01)
     766                            .dwattr $C$DW$35, DW_AT_decl_file("../driverlib/hibernate.c")
     767                            .dwattr $C$DW$35, DW_AT_decl_line(0x17c)
     768                            .dwattr $C$DW$35, DW_AT_decl_column(0x01)
     769                            .dwattr $C$DW$35, DW_AT_TI_max_frame_size(0x00)
     770                            .dwpsn  file "../driverlib/hibernate.c",line 381,column 1,is_stmt,address HibernateBatCheckDon
TI ARM Assembler Unix v18.1.1 Fri Jul  3 20:08:24 2020

Tools Copyright (c) 1996-2017 Texas Instruments Incorporated
hibernate.asm                                                        PAGE   15

     771                    
     772                            .dwfde $C$DW$CIE, HibernateBatCheckDone
     773                    ;----------------------------------------------------------------------
     774                    ; 380 | HibernateBatCheckDone(void)                                            
     775                    ; 382 | //                                                                     
     776                    ; 383 | // Read the current state of the battery check.                        
     777                    ; 384 | //                                                                     
     778                    ;----------------------------------------------------------------------
     779                    
     780                    ;*****************************************************************************
     781                    ;* FUNCTION NAME: HibernateBatCheckDone                                      *
     782                    ;*                                                                           *
     783                    ;*   Regs Modified     : A1                                                  *
     784                    ;*   Regs Used         : A1,LR                                               *
     785                    ;*   Local Frame Size  : 0 Args + 0 Auto + 0 Save = 0 byte                   *
     786                    ;*****************************************************************************
     787 000000b6           HibernateBatCheckDone:
     788                    ;* --------------------------------------------------------------------------*
     789                            .dwcfi  cfa_offset, 0
     790                            .dwpsn  file "../driverlib/hibernate.c",line 385,column 5,is_stmt,isa 1
     791                    ;----------------------------------------------------------------------
     792                    ; 385 | return(HWREG(HIB_CTL) & HIB_CTL_BATCHK);                               
     793                    ;----------------------------------------------------------------------
     794 000000b6 488F              LDR       A1, $C$CON1           ; [DPU_V7M3_PIPE] |385|  ; [ORIG 16-BIT INS]
     795 000000b8 6800              LDR       A1, [A1, #0]          ; [DPU_V7M3_PIPE] |385|  ; [ORIG 16-BIT INS]
     796 000000ba 6080F400          AND       A1, A1, #1024         ; [DPU_V7M3_PIPE] |385|  ; [KEEP 32-BIT INS]
     797                            .dwpsn  file "../driverlib/hibernate.c",line 386,column 1,is_stmt,isa 1
     798                    $C$DW$36        .dwtag  DW_TAG_TI_branch
     799                            .dwattr $C$DW$36, DW_AT_low_pc(0x00)
     800                            .dwattr $C$DW$36, DW_AT_TI_return
     801                    
     802 000000be 4770              BX        LR                    ; [DPU_V7M3_PIPE]  ; [ORIG 16-BIT INS]
     803                            ; BRANCH OCCURS                  ; [] 
     804                            .dwattr $C$DW$35, DW_AT_TI_end_file("../driverlib/hibernate.c")
     805                            .dwattr $C$DW$35, DW_AT_TI_end_line(0x182)
     806                            .dwattr $C$DW$35, DW_AT_TI_end_column(0x01)
     807                            .dwendentry
     808                            .dwendtag $C$DW$35
     809                    
     810 000000c0                   .sect   ".text"
     811                            .clink
     812                            .thumbfunc HibernateWakeSet
     813 000000c0                   .thumb
     814                            .global HibernateWakeSet
     815                    
     816                    $C$DW$37        .dwtag  DW_TAG_subprogram
     817                            .dwattr $C$DW$37, DW_AT_name("HibernateWakeSet")
     818                            .dwattr $C$DW$37, DW_AT_low_pc(HibernateWakeSet)
     819                            .dwattr $C$DW$37, DW_AT_high_pc(0x00)
     820                            .dwattr $C$DW$37, DW_AT_TI_symbol_name("HibernateWakeSet")
     821                            .dwattr $C$DW$37, DW_AT_external
     822                            .dwattr $C$DW$37, DW_AT_TI_begin_file("../driverlib/hibernate.c")
     823                            .dwattr $C$DW$37, DW_AT_TI_begin_line(0x1a5)
     824                            .dwattr $C$DW$37, DW_AT_TI_begin_column(0x01)
     825                            .dwattr $C$DW$37, DW_AT_decl_file("../driverlib/hibernate.c")
TI ARM Assembler Unix v18.1.1 Fri Jul  3 20:08:24 2020

Tools Copyright (c) 1996-2017 Texas Instruments Incorporated
hibernate.asm                                                        PAGE   16

     826                            .dwattr $C$DW$37, DW_AT_decl_line(0x1a5)
     827                            .dwattr $C$DW$37, DW_AT_decl_column(0x01)
     828                            .dwattr $C$DW$37, DW_AT_TI_max_frame_size(0x08)
     829                            .dwpsn  file "../driverlib/hibernate.c",line 422,column 1,is_stmt,address HibernateWakeSet,isa
     830                    
     831                            .dwfde $C$DW$CIE, HibernateWakeSet
     832                    $C$DW$38        .dwtag  DW_TAG_formal_parameter
     833                            .dwattr $C$DW$38, DW_AT_name("ui32WakeFlags")
     834                            .dwattr $C$DW$38, DW_AT_TI_symbol_name("ui32WakeFlags")
     835                            .dwattr $C$DW$38, DW_AT_type(*$C$DW$T$33)
     836                            .dwattr $C$DW$38, DW_AT_location[DW_OP_reg0]
     837                    
     838                    ;----------------------------------------------------------------------
     839                    ; 421 | HibernateWakeSet(uint32_t ui32WakeFlags)                               
     840                    ;----------------------------------------------------------------------
     841                    
     842                    ;*****************************************************************************
     843                    ;* FUNCTION NAME: HibernateWakeSet                                           *
     844                    ;*                                                                           *
     845                    ;*   Regs Modified     : A1,A2,A3,A4,SP,LR,SR,FPEXC,FPSCR                    *
     846                    ;*   Regs Used         : A1,A2,A3,A4,SP,LR,SR,FPEXC,FPSCR                    *
     847                    ;*   Local Frame Size  : 0 Args + 4 Auto + 4 Save = 8 byte                   *
     848                    ;*****************************************************************************
     849 000000c0           HibernateWakeSet:
     850                    ;* --------------------------------------------------------------------------*
     851                            .dwcfi  cfa_offset, 0
     852 000000c0 B508              PUSH      {A4, LR}              ; [DPU_V7M3_PIPE]  ; [ORIG 16-BIT INS]
     853                            .dwcfi  cfa_offset, 8
     854                            .dwcfi  save_reg_to_mem, 14, -4
     855                            .dwcfi  save_reg_to_mem, 3, -8
     856                    $C$DW$39        .dwtag  DW_TAG_variable
     857                            .dwattr $C$DW$39, DW_AT_name("ui32WakeFlags")
     858                            .dwattr $C$DW$39, DW_AT_TI_symbol_name("ui32WakeFlags")
     859                            .dwattr $C$DW$39, DW_AT_type(*$C$DW$T$33)
     860                            .dwattr $C$DW$39, DW_AT_location[DW_OP_breg13 0]
     861                    
     862                    ;----------------------------------------------------------------------
     863                    ; 423 | //                                                                     
     864                    ; 424 | // Check the arguments.                                                
     865                    ; 425 | //                                                                     
     866                    ; 426 | ASSERT(!(ui32WakeFlags & ~(HIBERNATE_WAKE_PIN | HIBERNATE_WAKE_RTC |   
     867                    ; 427 |                            HIBERNATE_WAKE_GPIO | HIBERNATE_WAKE_RESET |
     868                    ; 428 |                            HIBERNATE_WAKE_LOW_BAT)));                  
     869                    ; 430 | //                                                                     
     870                    ; 431 | // Set the specified wake flags in the control register.               
     871                    ; 432 | //                                                                     
     872                    ;----------------------------------------------------------------------
     873 000000c2 9000              STR       A1, [SP, #0]          ; [DPU_V7M3_PIPE] |422|  ; [ORIG 16-BIT INS]
     874                            .dwpsn  file "../driverlib/hibernate.c",line 433,column 5,is_stmt,isa 1
     875                    ;----------------------------------------------------------------------
     876                    ; 433 | HWREG(HIB_CTL) = (ui32WakeFlags | (HWREG(HIB_CTL) &                    
     877                    ; 434 |                                    ~(HIBERNATE_WAKE_PIN |              
     878                    ; 435 |                                      HIBERNATE_WAKE_RTC |              
     879                    ; 436 |                                      HIBERNATE_WAKE_LOW_BAT)));        
     880                    ; 438 | //                                                                     
TI ARM Assembler Unix v18.1.1 Fri Jul  3 20:08:24 2020

Tools Copyright (c) 1996-2017 Texas Instruments Incorporated
hibernate.asm                                                        PAGE   17

     881                    ; 439 | // Wait for write completion                                           
     882                    ; 440 | //                                                                     
     883                    ;----------------------------------------------------------------------
     884 000000c4 488B              LDR       A1, $C$CON1           ; [DPU_V7M3_PIPE] |433|  ; [ORIG 16-BIT INS]
     885 000000c6 498B              LDR       A2, $C$CON1           ; [DPU_V7M3_PIPE] |433|  ; [ORIG 16-BIT INS]
     886 000000c8 9A00              LDR       A3, [SP, #0]          ; [DPU_V7M3_PIPE] |433|  ; [ORIG 16-BIT INS]
     887 000000ca 6800              LDR       A1, [A1, #0]          ; [DPU_V7M3_PIPE] |433|  ; [ORIG 16-BIT INS]
     888 000000cc 7006F420          BIC       A1, A1, #536          ; [DPU_V7M3_PIPE] |433|  ; [KEEP 32-BIT INS]
     889 000000d0 4310              ORRS      A1, A1, A3            ; [DPU_V7M3_PIPE] |433|  ; [ORIG 16-BIT INS]
     890 000000d2 6008              STR       A1, [A2, #0]          ; [DPU_V7M3_PIPE] |433|  ; [ORIG 16-BIT INS]
     891                            .dwpsn  file "../driverlib/hibernate.c",line 441,column 5,is_stmt,isa 1
     892                    ;----------------------------------------------------------------------
     893                    ; 441 | _HibernateWriteComplete();                                             
     894                    ; 443 | //                                                                     
     895                    ; 444 | // Write the hibernate IO register if requested.                       
     896                    ; 445 | //                                                                     
     897                    ;----------------------------------------------------------------------
     898                    $C$DW$40        .dwtag  DW_TAG_TI_branch
     899                            .dwattr $C$DW$40, DW_AT_low_pc(0x00)
     900                            .dwattr $C$DW$40, DW_AT_name("_HibernateWriteComplete")
     901                            .dwattr $C$DW$40, DW_AT_TI_call
     902                    
     903 000000d4 FFFEF7FF!         BL        _HibernateWriteComplete ; [DPU_V7M3_PIPE] |441|  ; [KEEP 32-BIT INS]
     904                            ; CALL OCCURS {_HibernateWriteComplete }  ; [] |441| 
     905                            .dwpsn  file "../driverlib/hibernate.c",line 446,column 5,is_stmt,isa 1
     906                    ;----------------------------------------------------------------------
     907                    ; 446 | if(HIBERNATE_WAKE_IO)                                                  
     908                    ; 448 |     //                                                                 
     909                    ; 449 |     // If the reset or GPIOs are begin used as a wake source then the  
     910                    ; 450 |     // the VDD3ON needs to be set to allow the pads to remained        
     911                    ; 451 |     // powered.                                                        
     912                    ; 452 |     //                                                                 
     913                    ;----------------------------------------------------------------------
     914 000000d8 49A3              LDR       A2, $C$CON3           ; [DPU_V7M3_PIPE] |446|  ; [ORIG 16-BIT INS]
     915 000000da 48A2              LDR       A1, $C$CON2           ; [DPU_V7M3_PIPE] |446|  ; [ORIG 16-BIT INS]
     916 000000dc 680A              LDR       A3, [A2, #0]          ; [DPU_V7M3_PIPE] |446|  ; [ORIG 16-BIT INS]
     917 000000de 49A3              LDR       A2, $C$CON4           ; [DPU_V7M3_PIPE] |446|  ; [ORIG 16-BIT INS]
     918 000000e0 4010              ANDS      A1, A1, A3            ; [DPU_V7M3_PIPE] |446|  ; [ORIG 16-BIT INS]
     919 000000e2 4281              CMP       A2, A1                ; [DPU_V7M3_PIPE] |446|  ; [ORIG 16-BIT INS]
     920 000000e4 D11D              BNE       ||$C$L6||             ; [DPU_V7M3_PIPE] |446|  ; [ORIG 16-BIT INS]
     921                            ; BRANCHCC OCCURS {||$C$L6||}    ; [] |446| 
     922                    ;* --------------------------------------------------------------------------*
     923                            .dwpsn  file "../driverlib/hibernate.c",line 453,column 9,is_stmt,isa 1
     924                    ;----------------------------------------------------------------------
     925                    ; 453 | if((ui32WakeFlags & (HIBERNATE_WAKE_RESET | HIBERNATE_WAKE_GPIO)) &&   
     926                    ; 454 |    ((HWREG(HIB_CTL) & HIB_CTL_VDD3ON) == 0))                           
     927                    ; 456 |     //                                                                 
     928                    ; 457 |     // Make sure that VDD3ON mode is enabled so that the pads can      
     929                    ; 458 |     // retain their state.                                             
     930                    ; 459 |     //                                                                 
     931                    ;----------------------------------------------------------------------
     932 000000e6 9800              LDR       A1, [SP, #0]          ; [DPU_V7M3_PIPE] |453|  ; [ORIG 16-BIT INS]
     933 000000e8 1F10F010          TST       A1, #1048592          ; [DPU_V7M3_PIPE] |453|  ; [KEEP 32-BIT INS]
     934 000000ec D00A              BEQ       ||$C$L4||             ; [DPU_V7M3_PIPE] |453|  ; [ORIG 16-BIT INS]
     935                            ; BRANCHCC OCCURS {||$C$L4||}    ; [] |453| 
TI ARM Assembler Unix v18.1.1 Fri Jul  3 20:08:24 2020

Tools Copyright (c) 1996-2017 Texas Instruments Incorporated
hibernate.asm                                                        PAGE   18

     936                    ;* --------------------------------------------------------------------------*
     937 000000ee 4881              LDR       A1, $C$CON1           ; [DPU_V7M3_PIPE] |453|  ; [ORIG 16-BIT INS]
     938 000000f0 6800              LDR       A1, [A1, #0]          ; [DPU_V7M3_PIPE] |453|  ; [ORIG 16-BIT INS]
     939 000000f2 0A40              LSRS      A1, A1, #9            ; [DPU_V7M3_PIPE] |453|  ; [ORIG 16-BIT INS]
     940 000000f4 D206              BCS       ||$C$L4||             ; [DPU_V7M3_PIPE] |453|  ; [ORIG 16-BIT INS]
     941                            ; BRANCHCC OCCURS {||$C$L4||}    ; [] |453| 
     942                    ;* --------------------------------------------------------------------------*
     943                            .dwpsn  file "../driverlib/hibernate.c",line 460,column 13,is_stmt,isa 1
     944                    ;----------------------------------------------------------------------
     945                    ; 460 | HWREG(HIB_CTL) |= HIB_CTL_VDD3ON;                                      
     946                    ; 462 | //                                                                     
     947                    ; 463 | // Wait for write completion                                           
     948                    ; 464 | //                                                                     
     949                    ;----------------------------------------------------------------------
     950 000000f6 497F              LDR       A2, $C$CON1           ; [DPU_V7M3_PIPE] |460|  ; [ORIG 16-BIT INS]
     951 000000f8 6808              LDR       A1, [A2, #0]          ; [DPU_V7M3_PIPE] |460|  ; [ORIG 16-BIT INS]
     952 000000fa 7080F440          ORR       A1, A1, #256          ; [DPU_V7M3_PIPE] |460|  ; [KEEP 32-BIT INS]
     953 000000fe 6008              STR       A1, [A2, #0]          ; [DPU_V7M3_PIPE] |460|  ; [ORIG 16-BIT INS]
     954                            .dwpsn  file "../driverlib/hibernate.c",line 465,column 13,is_stmt,isa 1
     955                    ;----------------------------------------------------------------------
     956                    ; 465 | _HibernateWriteComplete();                                             
     957                    ; 468 | //                                                                     
     958                    ; 469 | // Set the requested flags.                                            
     959                    ; 470 | //                                                                     
     960                    ;----------------------------------------------------------------------
     961                    $C$DW$41        .dwtag  DW_TAG_TI_branch
     962                            .dwattr $C$DW$41, DW_AT_low_pc(0x00)
     963                            .dwattr $C$DW$41, DW_AT_name("_HibernateWriteComplete")
     964                            .dwattr $C$DW$41, DW_AT_TI_call
     965                    
     966 00000100 FFFEF7FF!         BL        _HibernateWriteComplete ; [DPU_V7M3_PIPE] |465|  ; [KEEP 32-BIT INS]
     967                            ; CALL OCCURS {_HibernateWriteComplete }  ; [] |465| 
     968                    ;* --------------------------------------------------------------------------*
     969 00000104           ||$C$L4||:    
     970                            .dwpsn  file "../driverlib/hibernate.c",line 471,column 9,is_stmt,isa 1
     971                    ;----------------------------------------------------------------------
     972                    ; 471 | HWREG(HIB_IO) = (ui32WakeFlags >> 16) | HIB_IO_WUUNLK;                 
     973                    ; 473 | //                                                                     
     974                    ; 474 | // Spin until the write complete bit is set.                           
     975                    ; 475 | //                                                                     
     976                    ;----------------------------------------------------------------------
     977 00000104 9800              LDR       A1, [SP, #0]          ; [DPU_V7M3_PIPE] |471|  ; [ORIG 16-BIT INS]
     978 00000106 49AA              LDR       A2, $C$CON6           ; [DPU_V7M3_PIPE] |471|  ; [ORIG 16-BIT INS]
     979 00000108 0C00              LSRS      A1, A1, #16           ; [DPU_V7M3_PIPE] |471|  ; [ORIG 16-BIT INS]
     980 0000010a 0001F040          ORR       A1, A1, #1            ; [DPU_V7M3_PIPE] |471|  ; [KEEP 32-BIT INS]
     981 0000010e 6008              STR       A1, [A2, #0]          ; [DPU_V7M3_PIPE] |471|  ; [ORIG 16-BIT INS]
     982                            .dwpsn  file "../driverlib/hibernate.c",line 476,column 9,is_stmt,isa 1
     983                    ;----------------------------------------------------------------------
     984                    ; 476 | while((HWREG(HIB_IO) & HIB_IO_IOWRC) == 0)                             
     985                    ;----------------------------------------------------------------------
     986                    ;* --------------------------------------------------------------------------*
     987                    ;*   BEGIN LOOP ||$C$L5||
     988                    ;*
     989                    ;*   Loop source line                : 476
     990                    ;*   Loop closing brace source line  : 478
TI ARM Assembler Unix v18.1.1 Fri Jul  3 20:08:24 2020

Tools Copyright (c) 1996-2017 Texas Instruments Incorporated
hibernate.asm                                                        PAGE   19

     991                    ;*   Known Minimum Trip Count        : 1
     992                    ;*   Known Maximum Trip Count        : 4294967295
     993                    ;*   Known Max Trip Count Factor     : 1
     994                    ;* --------------------------------------------------------------------------*
     995 00000110           ||$C$L5||:    
     996                            .dwpsn  file "../driverlib/hibernate.c",line 476,column 15,is_stmt,isa 1
     997                    ;----------------------------------------------------------------------
     998                    ; 480 | //                                                                     
     999                    ; 481 | // Clear the write unlock bit.                                         
    1000                    ; 482 | //                                                                     
    1001                    ;----------------------------------------------------------------------
    1002 00000110 48A7              LDR       A1, $C$CON6           ; [DPU_V7M3_PIPE] |476|  ; [ORIG 16-BIT INS]
    1003 00000112 6800              LDR       A1, [A1, #0]          ; [DPU_V7M3_PIPE] |476|  ; [ORIG 16-BIT INS]
    1004 00000114 0800              LSRS      A1, A1, #32           ; [DPU_V7M3_PIPE] |476|  ; [ORIG 16-BIT INS]
    1005 00000116 D3FB              BCC       ||$C$L5||             ; [DPU_V7M3_PIPE] |476|  ; [ORIG 16-BIT INS]
    1006                            ; BRANCHCC OCCURS {||$C$L5||}    ; [] |476| 
    1007                    ;* --------------------------------------------------------------------------*
    1008                            .dwpsn  file "../driverlib/hibernate.c",line 483,column 9,is_stmt,isa 1
    1009                    ;----------------------------------------------------------------------
    1010                    ; 483 | HWREG(HIB_IO) &= ~HIB_IO_WUUNLK;                                       
    1011                    ;----------------------------------------------------------------------
    1012 00000118 49A5              LDR       A2, $C$CON6           ; [DPU_V7M3_PIPE] |483|  ; [ORIG 16-BIT INS]
    1013 0000011a 6808              LDR       A1, [A2, #0]          ; [DPU_V7M3_PIPE] |483|  ; [ORIG 16-BIT INS]
    1014 0000011c 0001F020          BIC       A1, A1, #1            ; [DPU_V7M3_PIPE] |483|  ; [KEEP 32-BIT INS]
    1015 00000120 6008              STR       A1, [A2, #0]          ; [DPU_V7M3_PIPE] |483|  ; [ORIG 16-BIT INS]
    1016                            .dwpsn  file "../driverlib/hibernate.c",line 485,column 1,is_stmt,isa 1
    1017                    ;* --------------------------------------------------------------------------*
    1018                    ||$C$L6||:    
    1019                    $C$DW$42        .dwtag  DW_TAG_TI_branch
    1020                            .dwattr $C$DW$42, DW_AT_low_pc(0x00)
    1021                            .dwattr $C$DW$42, DW_AT_TI_return
    1022                    
    1023 00000122 BD08              POP       {A4, PC}              ; [DPU_V7M3_PIPE]  ; [ORIG 16-BIT INS]
    1024                            .dwcfi  cfa_offset, 0
    1025                            .dwcfi  restore_reg, 3
    1026                            ; BRANCH OCCURS                  ; [] 
    1027                            .dwattr $C$DW$37, DW_AT_TI_end_file("../driverlib/hibernate.c")
    1028                            .dwattr $C$DW$37, DW_AT_TI_end_line(0x1e5)
    1029                            .dwattr $C$DW$37, DW_AT_TI_end_column(0x01)
    1030                            .dwendentry
    1031                            .dwendtag $C$DW$37
    1032                    
    1033 00000124                   .sect   ".text"
    1034                            .clink
    1035                            .thumbfunc HibernateWakeGet
    1036 00000124                   .thumb
    1037                            .global HibernateWakeGet
    1038                    
    1039                    $C$DW$43        .dwtag  DW_TAG_subprogram
    1040                            .dwattr $C$DW$43, DW_AT_name("HibernateWakeGet")
    1041                            .dwattr $C$DW$43, DW_AT_low_pc(HibernateWakeGet)
    1042                            .dwattr $C$DW$43, DW_AT_high_pc(0x00)
    1043                            .dwattr $C$DW$43, DW_AT_TI_symbol_name("HibernateWakeGet")
    1044                            .dwattr $C$DW$43, DW_AT_external
    1045                            .dwattr $C$DW$43, DW_AT_type(*$C$DW$T$33)
TI ARM Assembler Unix v18.1.1 Fri Jul  3 20:08:24 2020

Tools Copyright (c) 1996-2017 Texas Instruments Incorporated
hibernate.asm                                                        PAGE   20

    1046                            .dwattr $C$DW$43, DW_AT_TI_begin_file("../driverlib/hibernate.c")
    1047                            .dwattr $C$DW$43, DW_AT_TI_begin_line(0x201)
    1048                            .dwattr $C$DW$43, DW_AT_TI_begin_column(0x01)
    1049                            .dwattr $C$DW$43, DW_AT_decl_file("../driverlib/hibernate.c")
    1050                            .dwattr $C$DW$43, DW_AT_decl_line(0x201)
    1051                            .dwattr $C$DW$43, DW_AT_decl_column(0x01)
    1052                            .dwattr $C$DW$43, DW_AT_TI_max_frame_size(0x08)
    1053                            .dwpsn  file "../driverlib/hibernate.c",line 514,column 1,is_stmt,address HibernateWakeGet,isa
    1054                    
    1055                            .dwfde $C$DW$CIE, HibernateWakeGet
    1056                    ;----------------------------------------------------------------------
    1057                    ; 513 | HibernateWakeGet(void)                                                 
    1058                    ; 515 | uint32_t ui32Ctrl;                                                     
    1059                    ; 517 | //                                                                     
    1060                    ; 518 | // Read the wake bits from the control register and return those bits t
    1061                    ;     | o                                                                      
    1062                    ; 519 | // the caller.                                                         
    1063                    ; 520 | //                                                                     
    1064                    ;----------------------------------------------------------------------
    1065                    
    1066                    ;*****************************************************************************
    1067                    ;* FUNCTION NAME: HibernateWakeGet                                           *
    1068                    ;*                                                                           *
    1069                    ;*   Regs Modified     : A1,A2,A3,SP,SR                                      *
    1070                    ;*   Regs Used         : A1,A2,A3,SP,LR,SR                                   *
    1071                    ;*   Local Frame Size  : 0 Args + 4 Auto + 0 Save = 4 byte                   *
    1072                    ;*****************************************************************************
    1073 00000124           HibernateWakeGet:
    1074                    ;* --------------------------------------------------------------------------*
    1075                            .dwcfi  cfa_offset, 0
    1076 00000124 0D08F1AD          SUB       SP, SP, #8            ; [DPU_V7M3_PIPE]  ; [KEEP 32-BIT INS]
    1077                            .dwcfi  cfa_offset, 8
    1078                    $C$DW$44        .dwtag  DW_TAG_variable
    1079                            .dwattr $C$DW$44, DW_AT_name("ui32Ctrl")
    1080                            .dwattr $C$DW$44, DW_AT_TI_symbol_name("ui32Ctrl")
    1081                            .dwattr $C$DW$44, DW_AT_type(*$C$DW$T$33)
    1082                            .dwattr $C$DW$44, DW_AT_location[DW_OP_breg13 0]
    1083                    
    1084                            .dwpsn  file "../driverlib/hibernate.c",line 521,column 5,is_stmt,isa 1
    1085                    ;----------------------------------------------------------------------
    1086                    ; 521 | if(HIBERNATE_WAKE_IO)                                                  
    1087                    ;----------------------------------------------------------------------
    1088 00000128 498F              LDR       A2, $C$CON3           ; [DPU_V7M3_PIPE] |521|  ; [ORIG 16-BIT INS]
    1089 0000012a 488E              LDR       A1, $C$CON2           ; [DPU_V7M3_PIPE] |521|  ; [ORIG 16-BIT INS]
    1090 0000012c 680A              LDR       A3, [A2, #0]          ; [DPU_V7M3_PIPE] |521|  ; [ORIG 16-BIT INS]
    1091 0000012e 498F              LDR       A2, $C$CON4           ; [DPU_V7M3_PIPE] |521|  ; [ORIG 16-BIT INS]
    1092 00000130 4010              ANDS      A1, A1, A3            ; [DPU_V7M3_PIPE] |521|  ; [ORIG 16-BIT INS]
    1093 00000132 4281              CMP       A2, A1                ; [DPU_V7M3_PIPE] |521|  ; [ORIG 16-BIT INS]
    1094 00000134 D10C              BNE       ||$C$L7||             ; [DPU_V7M3_PIPE] |521|  ; [ORIG 16-BIT INS]
    1095                            ; BRANCHCC OCCURS {||$C$L7||}    ; [] |521| 
    1096                    ;* --------------------------------------------------------------------------*
    1097                            .dwpsn  file "../driverlib/hibernate.c",line 523,column 9,is_stmt,isa 1
    1098                    ;----------------------------------------------------------------------
    1099                    ; 523 | ui32Ctrl = HWREG(HIB_CTL);                                             
    1100                    ;----------------------------------------------------------------------
TI ARM Assembler Unix v18.1.1 Fri Jul  3 20:08:24 2020

Tools Copyright (c) 1996-2017 Texas Instruments Incorporated
hibernate.asm                                                        PAGE   21

    1101 00000136 486F              LDR       A1, $C$CON1           ; [DPU_V7M3_PIPE] |523|  ; [ORIG 16-BIT INS]
    1102 00000138 6800              LDR       A1, [A1, #0]          ; [DPU_V7M3_PIPE] |523|  ; [ORIG 16-BIT INS]
    1103 0000013a 9000              STR       A1, [SP, #0]          ; [DPU_V7M3_PIPE] |523|  ; [ORIG 16-BIT INS]
    1104                            .dwpsn  file "../driverlib/hibernate.c",line 524,column 9,is_stmt,isa 1
    1105                    ;----------------------------------------------------------------------
    1106                    ; 524 | return((ui32Ctrl & (HIBERNATE_WAKE_PIN | HIBERNATE_WAKE_RTC |          
    1107                    ; 525 |                     HIBERNATE_WAKE_LOW_BAT)) |                         
    1108                    ; 526 |        ((HWREG(HIB_IO) << 16) & (HIBERNATE_WAKE_RESET |                
    1109                    ; 527 |                                  HIBERNATE_WAKE_GPIO)));               
    1110                    ; 529 | else                                                                   
    1111                    ;----------------------------------------------------------------------
    1112 0000013c 489C              LDR       A1, $C$CON6           ; [DPU_V7M3_PIPE] |524|  ; [ORIG 16-BIT INS]
    1113 0000013e 9900              LDR       A2, [SP, #0]          ; [DPU_V7M3_PIPE] |524|  ; [ORIG 16-BIT INS]
    1114 00000140 6800              LDR       A1, [A1, #0]          ; [DPU_V7M3_PIPE] |524|  ; [ORIG 16-BIT INS]
    1115 00000142 7106F401          AND       A2, A2, #536          ; [DPU_V7M3_PIPE] |524|  ; [KEEP 32-BIT INS]
    1116 00000146 0400              LSLS      A1, A1, #16           ; [DPU_V7M3_PIPE] |524|  ; [ORIG 16-BIT INS]
    1117 00000148 1010F000          AND       A1, A1, #1048592      ; [DPU_V7M3_PIPE] |524|  ; [KEEP 32-BIT INS]
    1118 0000014c 4308              ORRS      A1, A1, A2            ; [DPU_V7M3_PIPE] |524|  ; [ORIG 16-BIT INS]
    1119 0000014e E003              B         ||$C$L8||             ; [DPU_V7M3_PIPE] |524|  ; [ORIG 16-BIT INS]
    1120                            ; BRANCH OCCURS {||$C$L8||}      ; [] |524| 
    1121                    ;* --------------------------------------------------------------------------*
    1122                    ;* --------------------------------------------------------------------------*
    1123 00000150           ||$C$L7||:    
    1124                            .dwpsn  file "../driverlib/hibernate.c",line 531,column 9,is_stmt,isa 1
    1125                    ;----------------------------------------------------------------------
    1126                    ; 531 | return(HWREG(HIB_CTL) & (HIBERNATE_WAKE_PIN | HIBERNATE_WAKE_RTC |     
    1127                    ; 532 |                          HIBERNATE_WAKE_LOW_BAT));                     
    1128                    ;----------------------------------------------------------------------
    1129 00000150 4868              LDR       A1, $C$CON1           ; [DPU_V7M3_PIPE] |531|  ; [ORIG 16-BIT INS]
    1130 00000152 6800              LDR       A1, [A1, #0]          ; [DPU_V7M3_PIPE] |531|  ; [ORIG 16-BIT INS]
    1131 00000154 7006F400          AND       A1, A1, #536          ; [DPU_V7M3_PIPE] |531|  ; [KEEP 32-BIT INS]
    1132                    ;* --------------------------------------------------------------------------*
    1133 00000158           ||$C$L8||:    
    1134                            .dwpsn  file "../driverlib/hibernate.c",line 534,column 1,is_stmt,isa 1
    1135 00000158 B002              ADD       SP, SP, #8            ; [DPU_V7M3_PIPE]  ; [ORIG 16-BIT INS]
    1136                            .dwcfi  cfa_offset, 0
    1137                    $C$DW$45        .dwtag  DW_TAG_TI_branch
    1138                            .dwattr $C$DW$45, DW_AT_low_pc(0x00)
    1139                            .dwattr $C$DW$45, DW_AT_TI_return
    1140                    
    1141 0000015a 4770              BX        LR                    ; [DPU_V7M3_PIPE]  ; [ORIG 16-BIT INS]
    1142                            ; BRANCH OCCURS                  ; [] 
    1143                            .dwattr $C$DW$43, DW_AT_TI_end_file("../driverlib/hibernate.c")
    1144                            .dwattr $C$DW$43, DW_AT_TI_end_line(0x216)
    1145                            .dwattr $C$DW$43, DW_AT_TI_end_column(0x01)
    1146                            .dwendentry
    1147                            .dwendtag $C$DW$43
    1148                    
    1149 0000015c                   .sect   ".text"
    1150                            .clink
    1151                            .thumbfunc HibernateLowBatSet
    1152 0000015c                   .thumb
    1153                            .global HibernateLowBatSet
    1154                    
    1155                    $C$DW$46        .dwtag  DW_TAG_subprogram
TI ARM Assembler Unix v18.1.1 Fri Jul  3 20:08:24 2020

Tools Copyright (c) 1996-2017 Texas Instruments Incorporated
hibernate.asm                                                        PAGE   22

    1156                            .dwattr $C$DW$46, DW_AT_name("HibernateLowBatSet")
    1157                            .dwattr $C$DW$46, DW_AT_low_pc(HibernateLowBatSet)
    1158                            .dwattr $C$DW$46, DW_AT_high_pc(0x00)
    1159                            .dwattr $C$DW$46, DW_AT_TI_symbol_name("HibernateLowBatSet")
    1160                            .dwattr $C$DW$46, DW_AT_external
    1161                            .dwattr $C$DW$46, DW_AT_TI_begin_file("../driverlib/hibernate.c")
    1162                            .dwattr $C$DW$46, DW_AT_TI_begin_line(0x23c)
    1163                            .dwattr $C$DW$46, DW_AT_TI_begin_column(0x01)
    1164                            .dwattr $C$DW$46, DW_AT_decl_file("../driverlib/hibernate.c")
    1165                            .dwattr $C$DW$46, DW_AT_decl_line(0x23c)
    1166                            .dwattr $C$DW$46, DW_AT_decl_column(0x01)
    1167                            .dwattr $C$DW$46, DW_AT_TI_max_frame_size(0x08)
    1168                            .dwpsn  file "../driverlib/hibernate.c",line 573,column 1,is_stmt,address HibernateLowBatSet,i
    1169                    
    1170                            .dwfde $C$DW$CIE, HibernateLowBatSet
    1171                    $C$DW$47        .dwtag  DW_TAG_formal_parameter
    1172                            .dwattr $C$DW$47, DW_AT_name("ui32LowBatFlags")
    1173                            .dwattr $C$DW$47, DW_AT_TI_symbol_name("ui32LowBatFlags")
    1174                            .dwattr $C$DW$47, DW_AT_type(*$C$DW$T$33)
    1175                            .dwattr $C$DW$47, DW_AT_location[DW_OP_reg0]
    1176                    
    1177                    ;----------------------------------------------------------------------
    1178                    ; 572 | HibernateLowBatSet(uint32_t ui32LowBatFlags)                           
    1179                    ;----------------------------------------------------------------------
    1180                    
    1181                    ;*****************************************************************************
    1182                    ;* FUNCTION NAME: HibernateLowBatSet                                         *
    1183                    ;*                                                                           *
    1184                    ;*   Regs Modified     : A1,A2,A3,A4,SP,LR,SR,FPEXC,FPSCR                    *
    1185                    ;*   Regs Used         : A1,A2,A3,A4,SP,LR,SR,FPEXC,FPSCR                    *
    1186                    ;*   Local Frame Size  : 0 Args + 4 Auto + 4 Save = 8 byte                   *
    1187                    ;*****************************************************************************
    1188 0000015c           HibernateLowBatSet:
    1189                    ;* --------------------------------------------------------------------------*
    1190                            .dwcfi  cfa_offset, 0
    1191 0000015c B508              PUSH      {A4, LR}              ; [DPU_V7M3_PIPE]  ; [ORIG 16-BIT INS]
    1192                            .dwcfi  cfa_offset, 8
    1193                            .dwcfi  save_reg_to_mem, 14, -4
    1194                            .dwcfi  save_reg_to_mem, 3, -8
    1195                    $C$DW$48        .dwtag  DW_TAG_variable
    1196                            .dwattr $C$DW$48, DW_AT_name("ui32LowBatFlags")
    1197                            .dwattr $C$DW$48, DW_AT_TI_symbol_name("ui32LowBatFlags")
    1198                            .dwattr $C$DW$48, DW_AT_type(*$C$DW$T$33)
    1199                            .dwattr $C$DW$48, DW_AT_location[DW_OP_breg13 0]
    1200                    
    1201                    ;----------------------------------------------------------------------
    1202                    ; 574 | //                                                                     
    1203                    ; 575 | // Check the arguments.                                                
    1204                    ; 576 | //                                                                     
    1205                    ; 577 | ASSERT(!(ui32LowBatFlags &                                             
    1206                    ; 578 |          ~(HIB_CTL_VBATSEL_M | HIBERNATE_LOW_BAT_ABORT)));             
    1207                    ; 580 | //                                                                     
    1208                    ; 581 | // Set the low-battery detect and abort bits in the control register,  
    1209                    ; 582 | // according to the parameter.                                         
    1210                    ; 583 | //                                                                     
TI ARM Assembler Unix v18.1.1 Fri Jul  3 20:08:24 2020

Tools Copyright (c) 1996-2017 Texas Instruments Incorporated
hibernate.asm                                                        PAGE   23

    1211                    ;----------------------------------------------------------------------
    1212 0000015e 9000              STR       A1, [SP, #0]          ; [DPU_V7M3_PIPE] |573|  ; [ORIG 16-BIT INS]
    1213                            .dwpsn  file "../driverlib/hibernate.c",line 584,column 5,is_stmt,isa 1
    1214                    ;----------------------------------------------------------------------
    1215                    ; 584 | HWREG(HIB_CTL) = (ui32LowBatFlags |                                    
    1216                    ; 585 |                   (HWREG(HIB_CTL) & ~(HIB_CTL_VBATSEL_M |              
    1217                    ; 586 |                                       HIBERNATE_LOW_BAT_ABORT)));      
    1218                    ; 588 | //                                                                     
    1219                    ; 589 | // Wait for write completion                                           
    1220                    ; 590 | //                                                                     
    1221                    ;----------------------------------------------------------------------
    1222 00000160 4964              LDR       A2, $C$CON1           ; [DPU_V7M3_PIPE] |584|  ; [ORIG 16-BIT INS]
    1223 00000162 4894              LDR       A1, $C$CON7           ; [DPU_V7M3_PIPE] |584|  ; [ORIG 16-BIT INS]
    1224 00000164 680B              LDR       A4, [A2, #0]          ; [DPU_V7M3_PIPE] |584|  ; [ORIG 16-BIT INS]
    1225 00000166 9A00              LDR       A3, [SP, #0]          ; [DPU_V7M3_PIPE] |584|  ; [ORIG 16-BIT INS]
    1226 00000168 4962              LDR       A2, $C$CON1           ; [DPU_V7M3_PIPE] |584|  ; [ORIG 16-BIT INS]
    1227 0000016a 4018              ANDS      A1, A1, A4            ; [DPU_V7M3_PIPE] |584|  ; [ORIG 16-BIT INS]
    1228 0000016c 4310              ORRS      A1, A1, A3            ; [DPU_V7M3_PIPE] |584|  ; [ORIG 16-BIT INS]
    1229 0000016e 6008              STR       A1, [A2, #0]          ; [DPU_V7M3_PIPE] |584|  ; [ORIG 16-BIT INS]
    1230                            .dwpsn  file "../driverlib/hibernate.c",line 591,column 5,is_stmt,isa 1
    1231                    ;----------------------------------------------------------------------
    1232                    ; 591 | _HibernateWriteComplete();                                             
    1233                    ;----------------------------------------------------------------------
    1234                    $C$DW$49        .dwtag  DW_TAG_TI_branch
    1235                            .dwattr $C$DW$49, DW_AT_low_pc(0x00)
    1236                            .dwattr $C$DW$49, DW_AT_name("_HibernateWriteComplete")
    1237                            .dwattr $C$DW$49, DW_AT_TI_call
    1238                    
    1239 00000170 FFFEF7FF!         BL        _HibernateWriteComplete ; [DPU_V7M3_PIPE] |591|  ; [KEEP 32-BIT INS]
    1240                            ; CALL OCCURS {_HibernateWriteComplete }  ; [] |591| 
    1241                            .dwpsn  file "../driverlib/hibernate.c",line 592,column 1,is_stmt,isa 1
    1242                    $C$DW$50        .dwtag  DW_TAG_TI_branch
    1243                            .dwattr $C$DW$50, DW_AT_low_pc(0x00)
    1244                            .dwattr $C$DW$50, DW_AT_TI_return
    1245                    
    1246 00000174 BD08              POP       {A4, PC}              ; [DPU_V7M3_PIPE]  ; [ORIG 16-BIT INS]
    1247                            .dwcfi  cfa_offset, 0
    1248                            .dwcfi  restore_reg, 3
    1249                            ; BRANCH OCCURS                  ; [] 
    1250                            .dwattr $C$DW$46, DW_AT_TI_end_file("../driverlib/hibernate.c")
    1251                            .dwattr $C$DW$46, DW_AT_TI_end_line(0x250)
    1252                            .dwattr $C$DW$46, DW_AT_TI_end_column(0x01)
    1253                            .dwendentry
    1254                            .dwendtag $C$DW$46
    1255                    
    1256 00000176                   .sect   ".text"
    1257                            .clink
    1258                            .thumbfunc HibernateLowBatGet
    1259 00000176                   .thumb
    1260                            .global HibernateLowBatGet
    1261                    
    1262                    $C$DW$51        .dwtag  DW_TAG_subprogram
    1263                            .dwattr $C$DW$51, DW_AT_name("HibernateLowBatGet")
    1264                            .dwattr $C$DW$51, DW_AT_low_pc(HibernateLowBatGet)
    1265                            .dwattr $C$DW$51, DW_AT_high_pc(0x00)
TI ARM Assembler Unix v18.1.1 Fri Jul  3 20:08:24 2020

Tools Copyright (c) 1996-2017 Texas Instruments Incorporated
hibernate.asm                                                        PAGE   24

    1266                            .dwattr $C$DW$51, DW_AT_TI_symbol_name("HibernateLowBatGet")
    1267                            .dwattr $C$DW$51, DW_AT_external
    1268                            .dwattr $C$DW$51, DW_AT_type(*$C$DW$T$33)
    1269                            .dwattr $C$DW$51, DW_AT_TI_begin_file("../driverlib/hibernate.c")
    1270                            .dwattr $C$DW$51, DW_AT_TI_begin_line(0x260)
    1271                            .dwattr $C$DW$51, DW_AT_TI_begin_column(0x01)
    1272                            .dwattr $C$DW$51, DW_AT_decl_file("../driverlib/hibernate.c")
    1273                            .dwattr $C$DW$51, DW_AT_decl_line(0x260)
    1274                            .dwattr $C$DW$51, DW_AT_decl_column(0x01)
    1275                            .dwattr $C$DW$51, DW_AT_TI_max_frame_size(0x00)
    1276                            .dwpsn  file "../driverlib/hibernate.c",line 609,column 1,is_stmt,address HibernateLowBatGet,i
    1277                    
    1278                            .dwfde $C$DW$CIE, HibernateLowBatGet
    1279                    ;----------------------------------------------------------------------
    1280                    ; 608 | HibernateLowBatGet(void)                                               
    1281                    ; 610 | //                                                                     
    1282                    ; 611 | // Read the supported low bat bits from the control register and return
    1283                    ; 612 | // those bits to the caller.                                           
    1284                    ; 613 | //                                                                     
    1285                    ;----------------------------------------------------------------------
    1286                    
    1287                    ;*****************************************************************************
    1288                    ;* FUNCTION NAME: HibernateLowBatGet                                         *
    1289                    ;*                                                                           *
    1290                    ;*   Regs Modified     : A1,A2,SR                                            *
    1291                    ;*   Regs Used         : A1,A2,LR,SR                                         *
    1292                    ;*   Local Frame Size  : 0 Args + 0 Auto + 0 Save = 0 byte                   *
    1293                    ;*****************************************************************************
    1294 00000176           HibernateLowBatGet:
    1295                    ;* --------------------------------------------------------------------------*
    1296                            .dwcfi  cfa_offset, 0
    1297                            .dwpsn  file "../driverlib/hibernate.c",line 614,column 5,is_stmt,isa 1
    1298                    ;----------------------------------------------------------------------
    1299                    ; 614 | return(HWREG(HIB_CTL) & (HIB_CTL_VBATSEL_M | HIBERNATE_LOW_BAT_ABORT));
    1300                    ;----------------------------------------------------------------------
    1301 00000176 485F              LDR       A1, $C$CON1           ; [DPU_V7M3_PIPE] |614|  ; [ORIG 16-BIT INS]
    1302 00000178 6801              LDR       A2, [A1, #0]          ; [DPU_V7M3_PIPE] |614|  ; [ORIG 16-BIT INS]
    1303 0000017a 00A0F246          MOV       A1, #24736            ; [DPU_V7M3_PIPE] |614|  ; [KEEP 32-BIT INS]
    1304 0000017e 4008              ANDS      A1, A1, A2            ; [DPU_V7M3_PIPE] |614|  ; [ORIG 16-BIT INS]
    1305                            .dwpsn  file "../driverlib/hibernate.c",line 615,column 1,is_stmt,isa 1
    1306                    $C$DW$52        .dwtag  DW_TAG_TI_branch
    1307                            .dwattr $C$DW$52, DW_AT_low_pc(0x00)
    1308                            .dwattr $C$DW$52, DW_AT_TI_return
    1309                    
    1310 00000180 4770              BX        LR                    ; [DPU_V7M3_PIPE]  ; [ORIG 16-BIT INS]
    1311                            ; BRANCH OCCURS                  ; [] 
    1312                            .dwattr $C$DW$51, DW_AT_TI_end_file("../driverlib/hibernate.c")
    1313                            .dwattr $C$DW$51, DW_AT_TI_end_line(0x267)
    1314                            .dwattr $C$DW$51, DW_AT_TI_end_column(0x01)
    1315                            .dwendentry
    1316                            .dwendtag $C$DW$51
    1317                    
    1318 00000182                   .sect   ".text"
    1319                            .clink
    1320                            .thumbfunc HibernateRTCSet
TI ARM Assembler Unix v18.1.1 Fri Jul  3 20:08:24 2020

Tools Copyright (c) 1996-2017 Texas Instruments Incorporated
hibernate.asm                                                        PAGE   25

    1321 00000182                   .thumb
    1322                            .global HibernateRTCSet
    1323                    
    1324                    $C$DW$53        .dwtag  DW_TAG_subprogram
    1325                            .dwattr $C$DW$53, DW_AT_name("HibernateRTCSet")
    1326                            .dwattr $C$DW$53, DW_AT_low_pc(HibernateRTCSet)
    1327                            .dwattr $C$DW$53, DW_AT_high_pc(0x00)
    1328                            .dwattr $C$DW$53, DW_AT_TI_symbol_name("HibernateRTCSet")
    1329                            .dwattr $C$DW$53, DW_AT_external
    1330                            .dwattr $C$DW$53, DW_AT_TI_begin_file("../driverlib/hibernate.c")
    1331                            .dwattr $C$DW$53, DW_AT_TI_begin_line(0x277)
    1332                            .dwattr $C$DW$53, DW_AT_TI_begin_column(0x01)
    1333                            .dwattr $C$DW$53, DW_AT_decl_file("../driverlib/hibernate.c")
    1334                            .dwattr $C$DW$53, DW_AT_decl_line(0x277)
    1335                            .dwattr $C$DW$53, DW_AT_decl_column(0x01)
    1336                            .dwattr $C$DW$53, DW_AT_TI_max_frame_size(0x08)
    1337                            .dwpsn  file "../driverlib/hibernate.c",line 632,column 1,is_stmt,address HibernateRTCSet,isa 
    1338                    
    1339                            .dwfde $C$DW$CIE, HibernateRTCSet
    1340                    $C$DW$54        .dwtag  DW_TAG_formal_parameter
    1341                            .dwattr $C$DW$54, DW_AT_name("ui32RTCValue")
    1342                            .dwattr $C$DW$54, DW_AT_TI_symbol_name("ui32RTCValue")
    1343                            .dwattr $C$DW$54, DW_AT_type(*$C$DW$T$33)
    1344                            .dwattr $C$DW$54, DW_AT_location[DW_OP_reg0]
    1345                    
    1346                    ;----------------------------------------------------------------------
    1347                    ; 631 | HibernateRTCSet(uint32_t ui32RTCValue)                                 
    1348                    ;----------------------------------------------------------------------
    1349                    
    1350                    ;*****************************************************************************
    1351                    ;* FUNCTION NAME: HibernateRTCSet                                            *
    1352                    ;*                                                                           *
    1353                    ;*   Regs Modified     : A1,A2,A4,SP,LR,SR,FPEXC,FPSCR                       *
    1354                    ;*   Regs Used         : A1,A2,A4,SP,LR,SR,FPEXC,FPSCR                       *
    1355                    ;*   Local Frame Size  : 0 Args + 4 Auto + 4 Save = 8 byte                   *
    1356                    ;*****************************************************************************
    1357 00000182           HibernateRTCSet:
    1358                    ;* --------------------------------------------------------------------------*
    1359                            .dwcfi  cfa_offset, 0
    1360 00000182 B508              PUSH      {A4, LR}              ; [DPU_V7M3_PIPE]  ; [ORIG 16-BIT INS]
    1361                            .dwcfi  cfa_offset, 8
    1362                            .dwcfi  save_reg_to_mem, 14, -4
    1363                            .dwcfi  save_reg_to_mem, 3, -8
    1364                    $C$DW$55        .dwtag  DW_TAG_variable
    1365                            .dwattr $C$DW$55, DW_AT_name("ui32RTCValue")
    1366                            .dwattr $C$DW$55, DW_AT_TI_symbol_name("ui32RTCValue")
    1367                            .dwattr $C$DW$55, DW_AT_type(*$C$DW$T$33)
    1368                            .dwattr $C$DW$55, DW_AT_location[DW_OP_breg13 0]
    1369                    
    1370                    ;----------------------------------------------------------------------
    1371                    ; 633 | //                                                                     
    1372                    ; 634 | // Load register requires unlock.                                      
    1373                    ; 635 | //                                                                     
    1374                    ;----------------------------------------------------------------------
    1375 00000184 9000              STR       A1, [SP, #0]          ; [DPU_V7M3_PIPE] |632|  ; [ORIG 16-BIT INS]
TI ARM Assembler Unix v18.1.1 Fri Jul  3 20:08:24 2020

Tools Copyright (c) 1996-2017 Texas Instruments Incorporated
hibernate.asm                                                        PAGE   26

    1376                            .dwpsn  file "../driverlib/hibernate.c",line 636,column 5,is_stmt,isa 1
    1377                    ;----------------------------------------------------------------------
    1378                    ; 636 | HWREG(HIB_LOCK) = HIB_LOCK_HIBLOCK_KEY;                                
    1379                    ;----------------------------------------------------------------------
    1380 00000186 498C              LDR       A2, $C$CON8           ; [DPU_V7M3_PIPE] |636|  ; [ORIG 16-BIT INS]
    1381 00000188 488C              LDR       A1, $C$CON9           ; [DPU_V7M3_PIPE] |636|  ; [ORIG 16-BIT INS]
    1382 0000018a 6008              STR       A1, [A2, #0]          ; [DPU_V7M3_PIPE] |636|  ; [ORIG 16-BIT INS]
    1383                            .dwpsn  file "../driverlib/hibernate.c",line 637,column 5,is_stmt,isa 1
    1384                    ;----------------------------------------------------------------------
    1385                    ; 637 | _HibernateWriteComplete();                                             
    1386                    ; 639 | //                                                                     
    1387                    ; 640 | // Write the new RTC value to the RTC load register.                   
    1388                    ; 641 | //                                                                     
    1389                    ;----------------------------------------------------------------------
    1390                    $C$DW$56        .dwtag  DW_TAG_TI_branch
    1391                            .dwattr $C$DW$56, DW_AT_low_pc(0x00)
    1392                            .dwattr $C$DW$56, DW_AT_name("_HibernateWriteComplete")
    1393                            .dwattr $C$DW$56, DW_AT_TI_call
    1394                    
    1395 0000018c FFFEF7FF!         BL        _HibernateWriteComplete ; [DPU_V7M3_PIPE] |637|  ; [KEEP 32-BIT INS]
    1396                            ; CALL OCCURS {_HibernateWriteComplete }  ; [] |637| 
    1397                            .dwpsn  file "../driverlib/hibernate.c",line 642,column 5,is_stmt,isa 1
    1398                    ;----------------------------------------------------------------------
    1399                    ; 642 | HWREG(HIB_RTCLD) = ui32RTCValue;                                       
    1400                    ; 644 | //                                                                     
    1401                    ; 645 | // Wait for write completion                                           
    1402                    ; 646 | //                                                                     
    1403                    ;----------------------------------------------------------------------
    1404 00000190 498B              LDR       A2, $C$CON10          ; [DPU_V7M3_PIPE] |642|  ; [ORIG 16-BIT INS]
    1405 00000192 9800              LDR       A1, [SP, #0]          ; [DPU_V7M3_PIPE] |642|  ; [ORIG 16-BIT INS]
    1406 00000194 6008              STR       A1, [A2, #0]          ; [DPU_V7M3_PIPE] |642|  ; [ORIG 16-BIT INS]
    1407                            .dwpsn  file "../driverlib/hibernate.c",line 647,column 5,is_stmt,isa 1
    1408                    ;----------------------------------------------------------------------
    1409                    ; 647 | _HibernateWriteComplete();                                             
    1410                    ; 649 | //                                                                     
    1411                    ; 650 | // Unlock.                                                             
    1412                    ; 651 | //                                                                     
    1413                    ;----------------------------------------------------------------------
    1414                    $C$DW$57        .dwtag  DW_TAG_TI_branch
    1415                            .dwattr $C$DW$57, DW_AT_low_pc(0x00)
    1416                            .dwattr $C$DW$57, DW_AT_name("_HibernateWriteComplete")
    1417                            .dwattr $C$DW$57, DW_AT_TI_call
    1418                    
    1419 00000196 FFFEF7FF!         BL        _HibernateWriteComplete ; [DPU_V7M3_PIPE] |647|  ; [KEEP 32-BIT INS]
    1420                            ; CALL OCCURS {_HibernateWriteComplete }  ; [] |647| 
    1421                            .dwpsn  file "../driverlib/hibernate.c",line 652,column 5,is_stmt,isa 1
    1422                    ;----------------------------------------------------------------------
    1423                    ; 652 | HWREG(HIB_LOCK) = 0;                                                   
    1424                    ;----------------------------------------------------------------------
    1425 0000019a 4987              LDR       A2, $C$CON8           ; [DPU_V7M3_PIPE] |652|  ; [ORIG 16-BIT INS]
    1426 0000019c 2000              MOVS      A1, #0                ; [DPU_V7M3_PIPE] |652|  ; [ORIG 16-BIT INS]
    1427 0000019e 6008              STR       A1, [A2, #0]          ; [DPU_V7M3_PIPE] |652|  ; [ORIG 16-BIT INS]
    1428                            .dwpsn  file "../driverlib/hibernate.c",line 653,column 5,is_stmt,isa 1
    1429                    ;----------------------------------------------------------------------
    1430                    ; 653 | _HibernateWriteComplete();                                             
TI ARM Assembler Unix v18.1.1 Fri Jul  3 20:08:24 2020

Tools Copyright (c) 1996-2017 Texas Instruments Incorporated
hibernate.asm                                                        PAGE   27

    1431                    ;----------------------------------------------------------------------
    1432                    $C$DW$58        .dwtag  DW_TAG_TI_branch
    1433                            .dwattr $C$DW$58, DW_AT_low_pc(0x00)
    1434                            .dwattr $C$DW$58, DW_AT_name("_HibernateWriteComplete")
    1435                            .dwattr $C$DW$58, DW_AT_TI_call
    1436                    
    1437 000001a0 FFFEF7FF!         BL        _HibernateWriteComplete ; [DPU_V7M3_PIPE] |653|  ; [KEEP 32-BIT INS]
    1438                            ; CALL OCCURS {_HibernateWriteComplete }  ; [] |653| 
    1439                            .dwpsn  file "../driverlib/hibernate.c",line 654,column 1,is_stmt,isa 1
    1440                    $C$DW$59        .dwtag  DW_TAG_TI_branch
    1441                            .dwattr $C$DW$59, DW_AT_low_pc(0x00)
    1442                            .dwattr $C$DW$59, DW_AT_TI_return
    1443                    
    1444 000001a4 BD08              POP       {A4, PC}              ; [DPU_V7M3_PIPE]  ; [ORIG 16-BIT INS]
    1445                            .dwcfi  cfa_offset, 0
    1446                            .dwcfi  restore_reg, 3
    1447                            ; BRANCH OCCURS                  ; [] 
    1448                            .dwattr $C$DW$53, DW_AT_TI_end_file("../driverlib/hibernate.c")
    1449                            .dwattr $C$DW$53, DW_AT_TI_end_line(0x28e)
    1450                            .dwattr $C$DW$53, DW_AT_TI_end_column(0x01)
    1451                            .dwendentry
    1452                            .dwendtag $C$DW$53
    1453                    
    1454 000001a6                   .sect   ".text"
    1455                            .clink
    1456                            .thumbfunc HibernateRTCGet
    1457 000001a6                   .thumb
    1458                            .global HibernateRTCGet
    1459                    
    1460                    $C$DW$60        .dwtag  DW_TAG_subprogram
    1461                            .dwattr $C$DW$60, DW_AT_name("HibernateRTCGet")
    1462                            .dwattr $C$DW$60, DW_AT_low_pc(HibernateRTCGet)
    1463                            .dwattr $C$DW$60, DW_AT_high_pc(0x00)
    1464                            .dwattr $C$DW$60, DW_AT_TI_symbol_name("HibernateRTCGet")
    1465                            .dwattr $C$DW$60, DW_AT_external
    1466                            .dwattr $C$DW$60, DW_AT_type(*$C$DW$T$33)
    1467                            .dwattr $C$DW$60, DW_AT_TI_begin_file("../driverlib/hibernate.c")
    1468                            .dwattr $C$DW$60, DW_AT_TI_begin_line(0x29a)
    1469                            .dwattr $C$DW$60, DW_AT_TI_begin_column(0x01)
    1470                            .dwattr $C$DW$60, DW_AT_decl_file("../driverlib/hibernate.c")
    1471                            .dwattr $C$DW$60, DW_AT_decl_line(0x29a)
    1472                            .dwattr $C$DW$60, DW_AT_decl_column(0x01)
    1473                            .dwattr $C$DW$60, DW_AT_TI_max_frame_size(0x00)
    1474                            .dwpsn  file "../driverlib/hibernate.c",line 667,column 1,is_stmt,address HibernateRTCGet,isa 
    1475                    
    1476                            .dwfde $C$DW$CIE, HibernateRTCGet
    1477                    ;----------------------------------------------------------------------
    1478                    ; 666 | HibernateRTCGet(void)                                                  
    1479                    ; 668 | //                                                                     
    1480                    ; 669 | // Return the value of the RTC counter register to the caller.         
    1481                    ; 670 | //                                                                     
    1482                    ;----------------------------------------------------------------------
    1483                    
    1484                    ;*****************************************************************************
    1485                    ;* FUNCTION NAME: HibernateRTCGet                                            *
TI ARM Assembler Unix v18.1.1 Fri Jul  3 20:08:24 2020

Tools Copyright (c) 1996-2017 Texas Instruments Incorporated
hibernate.asm                                                        PAGE   28

    1486                    ;*                                                                           *
    1487                    ;*   Regs Modified     : A1                                                  *
    1488                    ;*   Regs Used         : A1,LR                                               *
    1489                    ;*   Local Frame Size  : 0 Args + 0 Auto + 0 Save = 0 byte                   *
    1490                    ;*****************************************************************************
    1491 000001a6           HibernateRTCGet:
    1492                    ;* --------------------------------------------------------------------------*
    1493                            .dwcfi  cfa_offset, 0
    1494                            .dwpsn  file "../driverlib/hibernate.c",line 671,column 5,is_stmt,isa 1
    1495                    ;----------------------------------------------------------------------
    1496                    ; 671 | return(HWREG(HIB_RTCC));                                               
    1497                    ;----------------------------------------------------------------------
    1498 000001a6 4887              LDR       A1, $C$CON11          ; [DPU_V7M3_PIPE] |671|  ; [ORIG 16-BIT INS]
    1499 000001a8 6800              LDR       A1, [A1, #0]          ; [DPU_V7M3_PIPE] |671|  ; [ORIG 16-BIT INS]
    1500                            .dwpsn  file "../driverlib/hibernate.c",line 672,column 1,is_stmt,isa 1
    1501                    $C$DW$61        .dwtag  DW_TAG_TI_branch
    1502                            .dwattr $C$DW$61, DW_AT_low_pc(0x00)
    1503                            .dwattr $C$DW$61, DW_AT_TI_return
    1504                    
    1505 000001aa 4770              BX        LR                    ; [DPU_V7M3_PIPE]  ; [ORIG 16-BIT INS]
    1506                            ; BRANCH OCCURS                  ; [] 
    1507                            .dwattr $C$DW$60, DW_AT_TI_end_file("../driverlib/hibernate.c")
    1508                            .dwattr $C$DW$60, DW_AT_TI_end_line(0x2a0)
    1509                            .dwattr $C$DW$60, DW_AT_TI_end_column(0x01)
    1510                            .dwendentry
    1511                            .dwendtag $C$DW$60
    1512                    
    1513 000001ac                   .sect   ".text"
    1514                            .clink
    1515                            .thumbfunc HibernateRTCMatchSet
    1516 000001ac                   .thumb
    1517                            .global HibernateRTCMatchSet
    1518                    
    1519                    $C$DW$62        .dwtag  DW_TAG_subprogram
    1520                            .dwattr $C$DW$62, DW_AT_name("HibernateRTCMatchSet")
    1521                            .dwattr $C$DW$62, DW_AT_low_pc(HibernateRTCMatchSet)
    1522                            .dwattr $C$DW$62, DW_AT_high_pc(0x00)
    1523                            .dwattr $C$DW$62, DW_AT_TI_symbol_name("HibernateRTCMatchSet")
    1524                            .dwattr $C$DW$62, DW_AT_external
    1525                            .dwattr $C$DW$62, DW_AT_TI_begin_file("../driverlib/hibernate.c")
    1526                            .dwattr $C$DW$62, DW_AT_TI_begin_line(0x2b2)
    1527                            .dwattr $C$DW$62, DW_AT_TI_begin_column(0x01)
    1528                            .dwattr $C$DW$62, DW_AT_decl_file("../driverlib/hibernate.c")
    1529                            .dwattr $C$DW$62, DW_AT_decl_line(0x2b2)
    1530                            .dwattr $C$DW$62, DW_AT_decl_column(0x01)
    1531                            .dwattr $C$DW$62, DW_AT_TI_max_frame_size(0x10)
    1532                            .dwpsn  file "../driverlib/hibernate.c",line 691,column 1,is_stmt,address HibernateRTCMatchSet
    1533                    
    1534                            .dwfde $C$DW$CIE, HibernateRTCMatchSet
    1535                    $C$DW$63        .dwtag  DW_TAG_formal_parameter
    1536                            .dwattr $C$DW$63, DW_AT_name("ui32Match")
    1537                            .dwattr $C$DW$63, DW_AT_TI_symbol_name("ui32Match")
    1538                            .dwattr $C$DW$63, DW_AT_type(*$C$DW$T$33)
    1539                            .dwattr $C$DW$63, DW_AT_location[DW_OP_reg0]
    1540                    
TI ARM Assembler Unix v18.1.1 Fri Jul  3 20:08:24 2020

Tools Copyright (c) 1996-2017 Texas Instruments Incorporated
hibernate.asm                                                        PAGE   29

    1541                    $C$DW$64        .dwtag  DW_TAG_formal_parameter
    1542                            .dwattr $C$DW$64, DW_AT_name("ui32Value")
    1543                            .dwattr $C$DW$64, DW_AT_TI_symbol_name("ui32Value")
    1544                            .dwattr $C$DW$64, DW_AT_type(*$C$DW$T$33)
    1545                            .dwattr $C$DW$64, DW_AT_location[DW_OP_reg1]
    1546                    
    1547                    ;----------------------------------------------------------------------
    1548                    ; 690 | HibernateRTCMatchSet(uint32_t ui32Match, uint32_t ui32Value)           
    1549                    ;----------------------------------------------------------------------
    1550                    
    1551                    ;*****************************************************************************
    1552                    ;* FUNCTION NAME: HibernateRTCMatchSet                                       *
    1553                    ;*                                                                           *
    1554                    ;*   Regs Modified     : A1,A2,A3,A4,SP,LR,SR,FPEXC,FPSCR                    *
    1555                    ;*   Regs Used         : A1,A2,A3,A4,SP,LR,SR,FPEXC,FPSCR                    *
    1556                    ;*   Local Frame Size  : 0 Args + 8 Auto + 4 Save = 12 byte                  *
    1557                    ;*****************************************************************************
    1558 000001ac           HibernateRTCMatchSet:
    1559                    ;* --------------------------------------------------------------------------*
    1560                            .dwcfi  cfa_offset, 0
    1561 000001ac B50E              PUSH      {A2, A3, A4, LR}      ; [DPU_V7M3_PIPE]  ; [ORIG 16-BIT INS]
    1562                            .dwcfi  cfa_offset, 16
    1563                            .dwcfi  save_reg_to_mem, 14, -4
    1564                            .dwcfi  save_reg_to_mem, 3, -8
    1565                            .dwcfi  save_reg_to_mem, 2, -12
    1566                            .dwcfi  save_reg_to_mem, 1, -16
    1567                    $C$DW$65        .dwtag  DW_TAG_variable
    1568                            .dwattr $C$DW$65, DW_AT_name("ui32Match")
    1569                            .dwattr $C$DW$65, DW_AT_TI_symbol_name("ui32Match")
    1570                            .dwattr $C$DW$65, DW_AT_type(*$C$DW$T$33)
    1571                            .dwattr $C$DW$65, DW_AT_location[DW_OP_breg13 0]
    1572                    
    1573                    $C$DW$66        .dwtag  DW_TAG_variable
    1574                            .dwattr $C$DW$66, DW_AT_name("ui32Value")
    1575                            .dwattr $C$DW$66, DW_AT_TI_symbol_name("ui32Value")
    1576                            .dwattr $C$DW$66, DW_AT_type(*$C$DW$T$33)
    1577                            .dwattr $C$DW$66, DW_AT_location[DW_OP_breg13 4]
    1578                    
    1579                    ;----------------------------------------------------------------------
    1580                    ; 692 | ASSERT(ui32Match == 0);                                                
    1581                    ; 694 | //                                                                     
    1582                    ; 695 | // Write the new match value to the match register.                    
    1583                    ; 696 | //                                                                     
    1584                    ;----------------------------------------------------------------------
    1585 000001ae 9101              STR       A2, [SP, #4]          ; [DPU_V7M3_PIPE] |691|  ; [ORIG 16-BIT INS]
    1586 000001b0 9000              STR       A1, [SP, #0]          ; [DPU_V7M3_PIPE] |691|  ; [ORIG 16-BIT INS]
    1587                            .dwpsn  file "../driverlib/hibernate.c",line 697,column 5,is_stmt,isa 1
    1588                    ;----------------------------------------------------------------------
    1589                    ; 697 | HWREG(HIB_RTCM0) = ui32Value;                                          
    1590                    ; 699 | //                                                                     
    1591                    ; 700 | // Wait for write completion                                           
    1592                    ; 701 | //                                                                     
    1593                    ;----------------------------------------------------------------------
    1594 000001b2 4985              LDR       A2, $C$CON12          ; [DPU_V7M3_PIPE] |697|  ; [ORIG 16-BIT INS]
    1595 000001b4 9801              LDR       A1, [SP, #4]          ; [DPU_V7M3_PIPE] |697|  ; [ORIG 16-BIT INS]
TI ARM Assembler Unix v18.1.1 Fri Jul  3 20:08:24 2020

Tools Copyright (c) 1996-2017 Texas Instruments Incorporated
hibernate.asm                                                        PAGE   30

    1596 000001b6 6008              STR       A1, [A2, #0]          ; [DPU_V7M3_PIPE] |697|  ; [ORIG 16-BIT INS]
    1597                            .dwpsn  file "../driverlib/hibernate.c",line 702,column 5,is_stmt,isa 1
    1598                    ;----------------------------------------------------------------------
    1599                    ; 702 | _HibernateWriteComplete();                                             
    1600                    ;----------------------------------------------------------------------
    1601                    $C$DW$67        .dwtag  DW_TAG_TI_branch
    1602                            .dwattr $C$DW$67, DW_AT_low_pc(0x00)
    1603                            .dwattr $C$DW$67, DW_AT_name("_HibernateWriteComplete")
    1604                            .dwattr $C$DW$67, DW_AT_TI_call
    1605                    
    1606 000001b8 FFFEF7FF!         BL        _HibernateWriteComplete ; [DPU_V7M3_PIPE] |702|  ; [KEEP 32-BIT INS]
    1607                            ; CALL OCCURS {_HibernateWriteComplete }  ; [] |702| 
    1608                            .dwpsn  file "../driverlib/hibernate.c",line 703,column 1,is_stmt,isa 1
    1609                    $C$DW$68        .dwtag  DW_TAG_TI_branch
    1610                            .dwattr $C$DW$68, DW_AT_low_pc(0x00)
    1611                            .dwattr $C$DW$68, DW_AT_TI_return
    1612                    
    1613 000001bc BD0E              POP       {A2, A3, A4, PC}      ; [DPU_V7M3_PIPE]  ; [ORIG 16-BIT INS]
    1614                            .dwcfi  cfa_offset, 0
    1615                            .dwcfi  restore_reg, 3
    1616                            .dwcfi  restore_reg, 2
    1617                            .dwcfi  restore_reg, 1
    1618                            ; BRANCH OCCURS                  ; [] 
    1619                            .dwattr $C$DW$62, DW_AT_TI_end_file("../driverlib/hibernate.c")
    1620                            .dwattr $C$DW$62, DW_AT_TI_end_line(0x2bf)
    1621                            .dwattr $C$DW$62, DW_AT_TI_end_column(0x01)
    1622                            .dwendentry
    1623                            .dwendtag $C$DW$62
    1624                    
    1625 000001be                   .sect   ".text"
    1626                            .clink
    1627                            .thumbfunc HibernateRTCMatchGet
    1628 000001be                   .thumb
    1629                            .global HibernateRTCMatchGet
    1630                    
    1631                    $C$DW$69        .dwtag  DW_TAG_subprogram
    1632                            .dwattr $C$DW$69, DW_AT_name("HibernateRTCMatchGet")
    1633                            .dwattr $C$DW$69, DW_AT_low_pc(HibernateRTCMatchGet)
    1634                            .dwattr $C$DW$69, DW_AT_high_pc(0x00)
    1635                            .dwattr $C$DW$69, DW_AT_TI_symbol_name("HibernateRTCMatchGet")
    1636                            .dwattr $C$DW$69, DW_AT_external
    1637                            .dwattr $C$DW$69, DW_AT_type(*$C$DW$T$33)
    1638                            .dwattr $C$DW$69, DW_AT_TI_begin_file("../driverlib/hibernate.c")
    1639                            .dwattr $C$DW$69, DW_AT_TI_begin_line(0x2cf)
    1640                            .dwattr $C$DW$69, DW_AT_TI_begin_column(0x01)
    1641                            .dwattr $C$DW$69, DW_AT_decl_file("../driverlib/hibernate.c")
    1642                            .dwattr $C$DW$69, DW_AT_decl_line(0x2cf)
    1643                            .dwattr $C$DW$69, DW_AT_decl_column(0x01)
    1644                            .dwattr $C$DW$69, DW_AT_TI_max_frame_size(0x08)
    1645                            .dwpsn  file "../driverlib/hibernate.c",line 720,column 1,is_stmt,address HibernateRTCMatchGet
    1646                    
    1647                            .dwfde $C$DW$CIE, HibernateRTCMatchGet
    1648                    $C$DW$70        .dwtag  DW_TAG_formal_parameter
    1649                            .dwattr $C$DW$70, DW_AT_name("ui32Match")
    1650                            .dwattr $C$DW$70, DW_AT_TI_symbol_name("ui32Match")
TI ARM Assembler Unix v18.1.1 Fri Jul  3 20:08:24 2020

Tools Copyright (c) 1996-2017 Texas Instruments Incorporated
hibernate.asm                                                        PAGE   31

    1651                            .dwattr $C$DW$70, DW_AT_type(*$C$DW$T$33)
    1652                            .dwattr $C$DW$70, DW_AT_location[DW_OP_reg0]
    1653                    
    1654                    ;----------------------------------------------------------------------
    1655                    ; 719 | HibernateRTCMatchGet(uint32_t ui32Match)                               
    1656                    ;----------------------------------------------------------------------
    1657                    
    1658                    ;*****************************************************************************
    1659                    ;* FUNCTION NAME: HibernateRTCMatchGet                                       *
    1660                    ;*                                                                           *
    1661                    ;*   Regs Modified     : A1,SP                                               *
    1662                    ;*   Regs Used         : A1,SP,LR                                            *
    1663                    ;*   Local Frame Size  : 0 Args + 4 Auto + 0 Save = 4 byte                   *
    1664                    ;*****************************************************************************
    1665 000001be           HibernateRTCMatchGet:
    1666                    ;* --------------------------------------------------------------------------*
    1667                            .dwcfi  cfa_offset, 0
    1668 000001be 0D08F1AD          SUB       SP, SP, #8            ; [DPU_V7M3_PIPE]  ; [KEEP 32-BIT INS]
    1669                            .dwcfi  cfa_offset, 8
    1670                    $C$DW$71        .dwtag  DW_TAG_variable
    1671                            .dwattr $C$DW$71, DW_AT_name("ui32Match")
    1672                            .dwattr $C$DW$71, DW_AT_TI_symbol_name("ui32Match")
    1673                            .dwattr $C$DW$71, DW_AT_type(*$C$DW$T$33)
    1674                            .dwattr $C$DW$71, DW_AT_location[DW_OP_breg13 0]
    1675                    
    1676                    ;----------------------------------------------------------------------
    1677                    ; 721 | ASSERT(ui32Match == 0);                                                
    1678                    ; 723 | //                                                                     
    1679                    ; 724 | // Return the value of the match register to the caller.               
    1680                    ; 725 | //                                                                     
    1681                    ;----------------------------------------------------------------------
    1682 000001c2 9000              STR       A1, [SP, #0]          ; [DPU_V7M3_PIPE] |720|  ; [ORIG 16-BIT INS]
    1683                            .dwpsn  file "../driverlib/hibernate.c",line 726,column 5,is_stmt,isa 1
    1684                    ;----------------------------------------------------------------------
    1685                    ; 726 | return(HWREG(HIB_RTCM0));                                              
    1686                    ;----------------------------------------------------------------------
    1687 000001c4 4880              LDR       A1, $C$CON12          ; [DPU_V7M3_PIPE] |726|  ; [ORIG 16-BIT INS]
    1688 000001c6 6800              LDR       A1, [A1, #0]          ; [DPU_V7M3_PIPE] |726|  ; [ORIG 16-BIT INS]
    1689                            .dwpsn  file "../driverlib/hibernate.c",line 727,column 1,is_stmt,isa 1
    1690 000001c8 B002              ADD       SP, SP, #8            ; [DPU_V7M3_PIPE]  ; [ORIG 16-BIT INS]
    1691                            .dwcfi  cfa_offset, 0
    1692                    $C$DW$72        .dwtag  DW_TAG_TI_branch
    1693                            .dwattr $C$DW$72, DW_AT_low_pc(0x00)
    1694                            .dwattr $C$DW$72, DW_AT_TI_return
    1695                    
    1696 000001ca 4770              BX        LR                    ; [DPU_V7M3_PIPE]  ; [ORIG 16-BIT INS]
    1697                            ; BRANCH OCCURS                  ; [] 
    1698                            .dwattr $C$DW$69, DW_AT_TI_end_file("../driverlib/hibernate.c")
    1699                            .dwattr $C$DW$69, DW_AT_TI_end_line(0x2d7)
    1700                            .dwattr $C$DW$69, DW_AT_TI_end_column(0x01)
    1701                            .dwendentry
    1702                            .dwendtag $C$DW$69
    1703                    
    1704 000001cc                   .sect   ".text"
    1705                            .clink
TI ARM Assembler Unix v18.1.1 Fri Jul  3 20:08:24 2020

Tools Copyright (c) 1996-2017 Texas Instruments Incorporated
hibernate.asm                                                        PAGE   32

    1706                            .thumbfunc HibernateRTCSSMatchSet
    1707 000001cc                   .thumb
    1708                            .global HibernateRTCSSMatchSet
    1709                    
    1710                    $C$DW$73        .dwtag  DW_TAG_subprogram
    1711                            .dwattr $C$DW$73, DW_AT_name("HibernateRTCSSMatchSet")
    1712                            .dwattr $C$DW$73, DW_AT_low_pc(HibernateRTCSSMatchSet)
    1713                            .dwattr $C$DW$73, DW_AT_high_pc(0x00)
    1714                            .dwattr $C$DW$73, DW_AT_TI_symbol_name("HibernateRTCSSMatchSet")
    1715                            .dwattr $C$DW$73, DW_AT_external
    1716                            .dwattr $C$DW$73, DW_AT_TI_begin_file("../driverlib/hibernate.c")
    1717                            .dwattr $C$DW$73, DW_AT_TI_begin_line(0x2eb)
    1718                            .dwattr $C$DW$73, DW_AT_TI_begin_column(0x01)
    1719                            .dwattr $C$DW$73, DW_AT_decl_file("../driverlib/hibernate.c")
    1720                            .dwattr $C$DW$73, DW_AT_decl_line(0x2eb)
    1721                            .dwattr $C$DW$73, DW_AT_decl_column(0x01)
    1722                            .dwattr $C$DW$73, DW_AT_TI_max_frame_size(0x10)
    1723                            .dwpsn  file "../driverlib/hibernate.c",line 748,column 1,is_stmt,address HibernateRTCSSMatchS
    1724                    
    1725                            .dwfde $C$DW$CIE, HibernateRTCSSMatchSet
    1726                    $C$DW$74        .dwtag  DW_TAG_formal_parameter
    1727                            .dwattr $C$DW$74, DW_AT_name("ui32Match")
    1728                            .dwattr $C$DW$74, DW_AT_TI_symbol_name("ui32Match")
    1729                            .dwattr $C$DW$74, DW_AT_type(*$C$DW$T$33)
    1730                            .dwattr $C$DW$74, DW_AT_location[DW_OP_reg0]
    1731                    
    1732                    $C$DW$75        .dwtag  DW_TAG_formal_parameter
    1733                            .dwattr $C$DW$75, DW_AT_name("ui32Value")
    1734                            .dwattr $C$DW$75, DW_AT_TI_symbol_name("ui32Value")
    1735                            .dwattr $C$DW$75, DW_AT_type(*$C$DW$T$33)
    1736                            .dwattr $C$DW$75, DW_AT_location[DW_OP_reg1]
    1737                    
    1738                    ;----------------------------------------------------------------------
    1739                    ; 747 | HibernateRTCSSMatchSet(uint32_t ui32Match, uint32_t ui32Value)         
    1740                    ;----------------------------------------------------------------------
    1741                    
    1742                    ;*****************************************************************************
    1743                    ;* FUNCTION NAME: HibernateRTCSSMatchSet                                     *
    1744                    ;*                                                                           *
    1745                    ;*   Regs Modified     : A1,A2,A3,A4,SP,LR,SR,FPEXC,FPSCR                    *
    1746                    ;*   Regs Used         : A1,A2,A3,A4,SP,LR,SR,FPEXC,FPSCR                    *
    1747                    ;*   Local Frame Size  : 0 Args + 8 Auto + 4 Save = 12 byte                  *
    1748                    ;*****************************************************************************
    1749 000001cc           HibernateRTCSSMatchSet:
    1750                    ;* --------------------------------------------------------------------------*
    1751                            .dwcfi  cfa_offset, 0
    1752 000001cc B50E              PUSH      {A2, A3, A4, LR}      ; [DPU_V7M3_PIPE]  ; [ORIG 16-BIT INS]
    1753                            .dwcfi  cfa_offset, 16
    1754                            .dwcfi  save_reg_to_mem, 14, -4
    1755                            .dwcfi  save_reg_to_mem, 3, -8
    1756                            .dwcfi  save_reg_to_mem, 2, -12
    1757                            .dwcfi  save_reg_to_mem, 1, -16
    1758                    $C$DW$76        .dwtag  DW_TAG_variable
    1759                            .dwattr $C$DW$76, DW_AT_name("ui32Match")
    1760                            .dwattr $C$DW$76, DW_AT_TI_symbol_name("ui32Match")
TI ARM Assembler Unix v18.1.1 Fri Jul  3 20:08:24 2020

Tools Copyright (c) 1996-2017 Texas Instruments Incorporated
hibernate.asm                                                        PAGE   33

    1761                            .dwattr $C$DW$76, DW_AT_type(*$C$DW$T$33)
    1762                            .dwattr $C$DW$76, DW_AT_location[DW_OP_breg13 0]
    1763                    
    1764                    $C$DW$77        .dwtag  DW_TAG_variable
    1765                            .dwattr $C$DW$77, DW_AT_name("ui32Value")
    1766                            .dwattr $C$DW$77, DW_AT_TI_symbol_name("ui32Value")
    1767                            .dwattr $C$DW$77, DW_AT_type(*$C$DW$T$33)
    1768                            .dwattr $C$DW$77, DW_AT_location[DW_OP_breg13 4]
    1769                    
    1770                    ;----------------------------------------------------------------------
    1771                    ; 749 | ASSERT(ui32Match == 0);                                                
    1772                    ; 751 | //                                                                     
    1773                    ; 752 | // Write the new sub second match value to the sub second match registe
    1774                    ;     | r.                                                                     
    1775                    ; 753 | //                                                                     
    1776                    ;----------------------------------------------------------------------
    1777 000001ce 9101              STR       A2, [SP, #4]          ; [DPU_V7M3_PIPE] |748|  ; [ORIG 16-BIT INS]
    1778 000001d0 9000              STR       A1, [SP, #0]          ; [DPU_V7M3_PIPE] |748|  ; [ORIG 16-BIT INS]
    1779                            .dwpsn  file "../driverlib/hibernate.c",line 754,column 5,is_stmt,isa 1
    1780                    ;----------------------------------------------------------------------
    1781                    ; 754 | HWREG(HIB_RTCSS) = ui32Value << HIB_RTCSS_RTCSSM_S;                    
    1782                    ; 756 | //                                                                     
    1783                    ; 757 | // Wait for write complete to be signaled on later devices.            
    1784                    ; 758 | //                                                                     
    1785                    ;----------------------------------------------------------------------
    1786 000001d2 497E              LDR       A2, $C$CON13          ; [DPU_V7M3_PIPE] |754|  ; [ORIG 16-BIT INS]
    1787 000001d4 9801              LDR       A1, [SP, #4]          ; [DPU_V7M3_PIPE] |754|  ; [ORIG 16-BIT INS]
    1788 000001d6 0400              LSLS      A1, A1, #16           ; [DPU_V7M3_PIPE] |754|  ; [ORIG 16-BIT INS]
    1789 000001d8 6008              STR       A1, [A2, #0]          ; [DPU_V7M3_PIPE] |754|  ; [ORIG 16-BIT INS]
    1790                            .dwpsn  file "../driverlib/hibernate.c",line 759,column 5,is_stmt,isa 1
    1791                    ;----------------------------------------------------------------------
    1792                    ; 759 | _HibernateWriteComplete();                                             
    1793                    ;----------------------------------------------------------------------
    1794                    $C$DW$78        .dwtag  DW_TAG_TI_branch
    1795                            .dwattr $C$DW$78, DW_AT_low_pc(0x00)
    1796                            .dwattr $C$DW$78, DW_AT_name("_HibernateWriteComplete")
    1797                            .dwattr $C$DW$78, DW_AT_TI_call
    1798                    
    1799 000001da FFFEF7FF!         BL        _HibernateWriteComplete ; [DPU_V7M3_PIPE] |759|  ; [KEEP 32-BIT INS]
    1800                            ; CALL OCCURS {_HibernateWriteComplete }  ; [] |759| 
    1801                            .dwpsn  file "../driverlib/hibernate.c",line 760,column 1,is_stmt,isa 1
    1802                    $C$DW$79        .dwtag  DW_TAG_TI_branch
    1803                            .dwattr $C$DW$79, DW_AT_low_pc(0x00)
    1804                            .dwattr $C$DW$79, DW_AT_TI_return
    1805                    
    1806 000001de BD0E              POP       {A2, A3, A4, PC}      ; [DPU_V7M3_PIPE]  ; [ORIG 16-BIT INS]
    1807                            .dwcfi  cfa_offset, 0
    1808                            .dwcfi  restore_reg, 3
    1809                            .dwcfi  restore_reg, 2
    1810                            .dwcfi  restore_reg, 1
    1811                            ; BRANCH OCCURS                  ; [] 
    1812                            .dwattr $C$DW$73, DW_AT_TI_end_file("../driverlib/hibernate.c")
    1813                            .dwattr $C$DW$73, DW_AT_TI_end_line(0x2f8)
    1814                            .dwattr $C$DW$73, DW_AT_TI_end_column(0x01)
    1815                            .dwendentry
TI ARM Assembler Unix v18.1.1 Fri Jul  3 20:08:24 2020

Tools Copyright (c) 1996-2017 Texas Instruments Incorporated
hibernate.asm                                                        PAGE   34

    1816                            .dwendtag $C$DW$73
    1817                    
    1818 000001e0                   .sect   ".text"
    1819                            .clink
    1820                            .thumbfunc HibernateRTCSSMatchGet
    1821 000001e0                   .thumb
    1822                            .global HibernateRTCSSMatchGet
    1823                    
    1824                    $C$DW$80        .dwtag  DW_TAG_subprogram
    1825                            .dwattr $C$DW$80, DW_AT_name("HibernateRTCSSMatchGet")
    1826                            .dwattr $C$DW$80, DW_AT_low_pc(HibernateRTCSSMatchGet)
    1827                            .dwattr $C$DW$80, DW_AT_high_pc(0x00)
    1828                            .dwattr $C$DW$80, DW_AT_TI_symbol_name("HibernateRTCSSMatchGet")
    1829                            .dwattr $C$DW$80, DW_AT_external
    1830                            .dwattr $C$DW$80, DW_AT_type(*$C$DW$T$33)
    1831                            .dwattr $C$DW$80, DW_AT_TI_begin_file("../driverlib/hibernate.c")
    1832                            .dwattr $C$DW$80, DW_AT_TI_begin_line(0x309)
    1833                            .dwattr $C$DW$80, DW_AT_TI_begin_column(0x01)
    1834                            .dwattr $C$DW$80, DW_AT_decl_file("../driverlib/hibernate.c")
    1835                            .dwattr $C$DW$80, DW_AT_decl_line(0x309)
    1836                            .dwattr $C$DW$80, DW_AT_decl_column(0x01)
    1837                            .dwattr $C$DW$80, DW_AT_TI_max_frame_size(0x08)
    1838                            .dwpsn  file "../driverlib/hibernate.c",line 778,column 1,is_stmt,address HibernateRTCSSMatchG
    1839                    
    1840                            .dwfde $C$DW$CIE, HibernateRTCSSMatchGet
    1841                    $C$DW$81        .dwtag  DW_TAG_formal_parameter
    1842                            .dwattr $C$DW$81, DW_AT_name("ui32Match")
    1843                            .dwattr $C$DW$81, DW_AT_TI_symbol_name("ui32Match")
    1844                            .dwattr $C$DW$81, DW_AT_type(*$C$DW$T$33)
    1845                            .dwattr $C$DW$81, DW_AT_location[DW_OP_reg0]
    1846                    
    1847                    ;----------------------------------------------------------------------
    1848                    ; 777 | HibernateRTCSSMatchGet(uint32_t ui32Match)                             
    1849                    ;----------------------------------------------------------------------
    1850                    
    1851                    ;*****************************************************************************
    1852                    ;* FUNCTION NAME: HibernateRTCSSMatchGet                                     *
    1853                    ;*                                                                           *
    1854                    ;*   Regs Modified     : A1,SP,SR                                            *
    1855                    ;*   Regs Used         : A1,SP,LR,SR                                         *
    1856                    ;*   Local Frame Size  : 0 Args + 4 Auto + 0 Save = 4 byte                   *
    1857                    ;*****************************************************************************
    1858 000001e0           HibernateRTCSSMatchGet:
    1859                    ;* --------------------------------------------------------------------------*
    1860                            .dwcfi  cfa_offset, 0
    1861 000001e0 0D08F1AD          SUB       SP, SP, #8            ; [DPU_V7M3_PIPE]  ; [KEEP 32-BIT INS]
    1862                            .dwcfi  cfa_offset, 8
    1863                    $C$DW$82        .dwtag  DW_TAG_variable
    1864                            .dwattr $C$DW$82, DW_AT_name("ui32Match")
    1865                            .dwattr $C$DW$82, DW_AT_TI_symbol_name("ui32Match")
    1866                            .dwattr $C$DW$82, DW_AT_type(*$C$DW$T$33)
    1867                            .dwattr $C$DW$82, DW_AT_location[DW_OP_breg13 0]
    1868                    
    1869                    ;----------------------------------------------------------------------
    1870                    ; 779 | ASSERT(ui32Match == 0);                                                
TI ARM Assembler Unix v18.1.1 Fri Jul  3 20:08:24 2020

Tools Copyright (c) 1996-2017 Texas Instruments Incorporated
hibernate.asm                                                        PAGE   35

    1871                    ; 781 | //                                                                     
    1872                    ; 782 | // Read the current second RTC count.                                  
    1873                    ; 783 | //                                                                     
    1874                    ;----------------------------------------------------------------------
    1875 000001e4 9000              STR       A1, [SP, #0]          ; [DPU_V7M3_PIPE] |778|  ; [ORIG 16-BIT INS]
    1876                            .dwpsn  file "../driverlib/hibernate.c",line 784,column 5,is_stmt,isa 1
    1877                    ;----------------------------------------------------------------------
    1878                    ; 784 | return(HWREG(HIB_RTCSS) >> HIB_RTCSS_RTCSSM_S);                        
    1879                    ;----------------------------------------------------------------------
    1880 000001e6 4879              LDR       A1, $C$CON13          ; [DPU_V7M3_PIPE] |784|  ; [ORIG 16-BIT INS]
    1881 000001e8 6800              LDR       A1, [A1, #0]          ; [DPU_V7M3_PIPE] |784|  ; [ORIG 16-BIT INS]
    1882 000001ea 0C00              LSRS      A1, A1, #16           ; [DPU_V7M3_PIPE] |784|  ; [ORIG 16-BIT INS]
    1883                            .dwpsn  file "../driverlib/hibernate.c",line 785,column 1,is_stmt,isa 1
    1884 000001ec B002              ADD       SP, SP, #8            ; [DPU_V7M3_PIPE]  ; [ORIG 16-BIT INS]
    1885                            .dwcfi  cfa_offset, 0
    1886                    $C$DW$83        .dwtag  DW_TAG_TI_branch
    1887                            .dwattr $C$DW$83, DW_AT_low_pc(0x00)
    1888                            .dwattr $C$DW$83, DW_AT_TI_return
    1889                    
    1890 000001ee 4770              BX        LR                    ; [DPU_V7M3_PIPE]  ; [ORIG 16-BIT INS]
    1891                            ; BRANCH OCCURS                  ; [] 
    1892                            .dwattr $C$DW$80, DW_AT_TI_end_file("../driverlib/hibernate.c")
    1893                            .dwattr $C$DW$80, DW_AT_TI_end_line(0x311)
    1894                            .dwattr $C$DW$80, DW_AT_TI_end_column(0x01)
    1895                            .dwendentry
    1896                            .dwendtag $C$DW$80
    1897                    
    1898 000001f0                   .sect   ".text"
    1899                            .clink
    1900                            .thumbfunc HibernateRTCSSGet
    1901 000001f0                   .thumb
    1902                            .global HibernateRTCSSGet
    1903                    
    1904                    $C$DW$84        .dwtag  DW_TAG_subprogram
    1905                            .dwattr $C$DW$84, DW_AT_name("HibernateRTCSSGet")
    1906                            .dwattr $C$DW$84, DW_AT_low_pc(HibernateRTCSSGet)
    1907                            .dwattr $C$DW$84, DW_AT_high_pc(0x00)
    1908                            .dwattr $C$DW$84, DW_AT_TI_symbol_name("HibernateRTCSSGet")
    1909                            .dwattr $C$DW$84, DW_AT_external
    1910                            .dwattr $C$DW$84, DW_AT_type(*$C$DW$T$33)
    1911                            .dwattr $C$DW$84, DW_AT_TI_begin_file("../driverlib/hibernate.c")
    1912                            .dwattr $C$DW$84, DW_AT_TI_begin_line(0x320)
    1913                            .dwattr $C$DW$84, DW_AT_TI_begin_column(0x01)
    1914                            .dwattr $C$DW$84, DW_AT_decl_file("../driverlib/hibernate.c")
    1915                            .dwattr $C$DW$84, DW_AT_decl_line(0x320)
    1916                            .dwattr $C$DW$84, DW_AT_decl_column(0x01)
    1917                            .dwattr $C$DW$84, DW_AT_TI_max_frame_size(0x00)
    1918                            .dwpsn  file "../driverlib/hibernate.c",line 801,column 1,is_stmt,address HibernateRTCSSGet,is
    1919                    
    1920                            .dwfde $C$DW$CIE, HibernateRTCSSGet
    1921                    ;----------------------------------------------------------------------
    1922                    ; 800 | HibernateRTCSSGet(void)                                                
    1923                    ; 802 | //                                                                     
    1924                    ; 803 | // Read the current second RTC count.                                  
    1925                    ; 804 | //                                                                     
TI ARM Assembler Unix v18.1.1 Fri Jul  3 20:08:24 2020

Tools Copyright (c) 1996-2017 Texas Instruments Incorporated
hibernate.asm                                                        PAGE   36

    1926                    ;----------------------------------------------------------------------
    1927                    
    1928                    ;*****************************************************************************
    1929                    ;* FUNCTION NAME: HibernateRTCSSGet                                          *
    1930                    ;*                                                                           *
    1931                    ;*   Regs Modified     : A1                                                  *
    1932                    ;*   Regs Used         : A1,LR                                               *
    1933                    ;*   Local Frame Size  : 0 Args + 0 Auto + 0 Save = 0 byte                   *
    1934                    ;*****************************************************************************
    1935 000001f0           HibernateRTCSSGet:
    1936                    ;* --------------------------------------------------------------------------*
    1937                            .dwcfi  cfa_offset, 0
    1938                            .dwpsn  file "../driverlib/hibernate.c",line 805,column 5,is_stmt,isa 1
    1939                    ;----------------------------------------------------------------------
    1940                    ; 805 | return(HWREG(HIB_RTCSS) & HIB_RTCSS_RTCSSC_M);                         
    1941                    ;----------------------------------------------------------------------
    1942 000001f0 4876              LDR       A1, $C$CON13          ; [DPU_V7M3_PIPE] |805|  ; [ORIG 16-BIT INS]
    1943 000001f2 6800              LDR       A1, [A1, #0]          ; [DPU_V7M3_PIPE] |805|  ; [ORIG 16-BIT INS]
    1944 000001f4 000EF3C0          UBFX      A1, A1, #0, #15       ; [DPU_V7M3_PIPE] |805|  ; [KEEP 32-BIT INS]
    1945                            .dwpsn  file "../driverlib/hibernate.c",line 806,column 1,is_stmt,isa 1
    1946                    $C$DW$85        .dwtag  DW_TAG_TI_branch
    1947                            .dwattr $C$DW$85, DW_AT_low_pc(0x00)
    1948                            .dwattr $C$DW$85, DW_AT_TI_return
    1949                    
    1950 000001f8 4770              BX        LR                    ; [DPU_V7M3_PIPE]  ; [ORIG 16-BIT INS]
    1951                            ; BRANCH OCCURS                  ; [] 
    1952                            .dwattr $C$DW$84, DW_AT_TI_end_file("../driverlib/hibernate.c")
    1953                            .dwattr $C$DW$84, DW_AT_TI_end_line(0x326)
    1954                            .dwattr $C$DW$84, DW_AT_TI_end_column(0x01)
    1955                            .dwendentry
    1956                            .dwendtag $C$DW$84
    1957                    
    1958 000001fa                   .sect   ".text"
    1959                            .clink
    1960                            .thumbfunc HibernateRTCTrimSet
    1961 000001fa                   .thumb
    1962                            .global HibernateRTCTrimSet
    1963                    
    1964                    $C$DW$86        .dwtag  DW_TAG_subprogram
    1965                            .dwattr $C$DW$86, DW_AT_name("HibernateRTCTrimSet")
    1966                            .dwattr $C$DW$86, DW_AT_low_pc(HibernateRTCTrimSet)
    1967                            .dwattr $C$DW$86, DW_AT_high_pc(0x00)
    1968                            .dwattr $C$DW$86, DW_AT_TI_symbol_name("HibernateRTCTrimSet")
    1969                            .dwattr $C$DW$86, DW_AT_external
    1970                            .dwattr $C$DW$86, DW_AT_TI_begin_file("../driverlib/hibernate.c")
    1971                            .dwattr $C$DW$86, DW_AT_TI_begin_line(0x33b)
    1972                            .dwattr $C$DW$86, DW_AT_TI_begin_column(0x01)
    1973                            .dwattr $C$DW$86, DW_AT_decl_file("../driverlib/hibernate.c")
    1974                            .dwattr $C$DW$86, DW_AT_decl_line(0x33b)
    1975                            .dwattr $C$DW$86, DW_AT_decl_column(0x01)
    1976                            .dwattr $C$DW$86, DW_AT_TI_max_frame_size(0x08)
    1977                            .dwpsn  file "../driverlib/hibernate.c",line 828,column 1,is_stmt,address HibernateRTCTrimSet,
    1978                    
    1979                            .dwfde $C$DW$CIE, HibernateRTCTrimSet
    1980                    $C$DW$87        .dwtag  DW_TAG_formal_parameter
TI ARM Assembler Unix v18.1.1 Fri Jul  3 20:08:24 2020

Tools Copyright (c) 1996-2017 Texas Instruments Incorporated
hibernate.asm                                                        PAGE   37

    1981                            .dwattr $C$DW$87, DW_AT_name("ui32Trim")
    1982                            .dwattr $C$DW$87, DW_AT_TI_symbol_name("ui32Trim")
    1983                            .dwattr $C$DW$87, DW_AT_type(*$C$DW$T$33)
    1984                            .dwattr $C$DW$87, DW_AT_location[DW_OP_reg0]
    1985                    
    1986                    ;----------------------------------------------------------------------
    1987                    ; 827 | HibernateRTCTrimSet(uint32_t ui32Trim)                                 
    1988                    ;----------------------------------------------------------------------
    1989                    
    1990                    ;*****************************************************************************
    1991                    ;* FUNCTION NAME: HibernateRTCTrimSet                                        *
    1992                    ;*                                                                           *
    1993                    ;*   Regs Modified     : A1,A2,A4,SP,LR,SR,FPEXC,FPSCR                       *
    1994                    ;*   Regs Used         : A1,A2,A4,SP,LR,SR,FPEXC,FPSCR                       *
    1995                    ;*   Local Frame Size  : 0 Args + 4 Auto + 4 Save = 8 byte                   *
    1996                    ;*****************************************************************************
    1997 000001fa           HibernateRTCTrimSet:
    1998                    ;* --------------------------------------------------------------------------*
    1999                            .dwcfi  cfa_offset, 0
    2000 000001fa B508              PUSH      {A4, LR}              ; [DPU_V7M3_PIPE]  ; [ORIG 16-BIT INS]
    2001                            .dwcfi  cfa_offset, 8
    2002                            .dwcfi  save_reg_to_mem, 14, -4
    2003                            .dwcfi  save_reg_to_mem, 3, -8
    2004                    $C$DW$88        .dwtag  DW_TAG_variable
    2005                            .dwattr $C$DW$88, DW_AT_name("ui32Trim")
    2006                            .dwattr $C$DW$88, DW_AT_TI_symbol_name("ui32Trim")
    2007                            .dwattr $C$DW$88, DW_AT_type(*$C$DW$T$33)
    2008                            .dwattr $C$DW$88, DW_AT_location[DW_OP_breg13 0]
    2009                    
    2010                    ;----------------------------------------------------------------------
    2011                    ; 829 | //                                                                     
    2012                    ; 830 | // Check the arguments.                                                
    2013                    ; 831 | //                                                                     
    2014                    ; 832 | ASSERT(ui32Trim < 0x10000);                                            
    2015                    ; 834 | //                                                                     
    2016                    ; 835 | // Write the new trim value to the trim register.                      
    2017                    ; 836 | //                                                                     
    2018                    ;----------------------------------------------------------------------
    2019 000001fc 9000              STR       A1, [SP, #0]          ; [DPU_V7M3_PIPE] |828|  ; [ORIG 16-BIT INS]
    2020                            .dwpsn  file "../driverlib/hibernate.c",line 837,column 5,is_stmt,isa 1
    2021                    ;----------------------------------------------------------------------
    2022                    ; 837 | HWREG(HIB_RTCT) = ui32Trim;                                            
    2023                    ; 839 | //                                                                     
    2024                    ; 840 | // Wait for write completion                                           
    2025                    ; 841 | //                                                                     
    2026                    ;----------------------------------------------------------------------
    2027 000001fe 4974              LDR       A2, $C$CON14          ; [DPU_V7M3_PIPE] |837|  ; [ORIG 16-BIT INS]
    2028 00000200 9800              LDR       A1, [SP, #0]          ; [DPU_V7M3_PIPE] |837|  ; [ORIG 16-BIT INS]
    2029 00000202 6008              STR       A1, [A2, #0]          ; [DPU_V7M3_PIPE] |837|  ; [ORIG 16-BIT INS]
    2030                            .dwpsn  file "../driverlib/hibernate.c",line 842,column 5,is_stmt,isa 1
    2031                    ;----------------------------------------------------------------------
    2032                    ; 842 | _HibernateWriteComplete();                                             
    2033                    ;----------------------------------------------------------------------
    2034                    $C$DW$89        .dwtag  DW_TAG_TI_branch
    2035                            .dwattr $C$DW$89, DW_AT_low_pc(0x00)
TI ARM Assembler Unix v18.1.1 Fri Jul  3 20:08:24 2020

Tools Copyright (c) 1996-2017 Texas Instruments Incorporated
hibernate.asm                                                        PAGE   38

    2036                            .dwattr $C$DW$89, DW_AT_name("_HibernateWriteComplete")
    2037                            .dwattr $C$DW$89, DW_AT_TI_call
    2038                    
    2039 00000204 FFFEF7FF!         BL        _HibernateWriteComplete ; [DPU_V7M3_PIPE] |842|  ; [KEEP 32-BIT INS]
    2040                            ; CALL OCCURS {_HibernateWriteComplete }  ; [] |842| 
    2041                            .dwpsn  file "../driverlib/hibernate.c",line 843,column 1,is_stmt,isa 1
    2042                    $C$DW$90        .dwtag  DW_TAG_TI_branch
    2043                            .dwattr $C$DW$90, DW_AT_low_pc(0x00)
    2044                            .dwattr $C$DW$90, DW_AT_TI_return
    2045                    
    2046 00000208 BD08              POP       {A4, PC}              ; [DPU_V7M3_PIPE]  ; [ORIG 16-BIT INS]
    2047                            .dwcfi  cfa_offset, 0
    2048                            .dwcfi  restore_reg, 3
    2049                            ; BRANCH OCCURS                  ; [] 
    2050                            .dwattr $C$DW$86, DW_AT_TI_end_file("../driverlib/hibernate.c")
    2051                            .dwattr $C$DW$86, DW_AT_TI_end_line(0x34b)
    2052                            .dwattr $C$DW$86, DW_AT_TI_end_column(0x01)
    2053                            .dwendentry
    2054                            .dwendtag $C$DW$86
    2055                    
    2056 0000020a                   .sect   ".text"
    2057                            .clink
    2058                            .thumbfunc HibernateRTCTrimGet
    2059 0000020a                   .thumb
    2060                            .global HibernateRTCTrimGet
    2061                    
    2062                    $C$DW$91        .dwtag  DW_TAG_subprogram
    2063                            .dwattr $C$DW$91, DW_AT_name("HibernateRTCTrimGet")
    2064                            .dwattr $C$DW$91, DW_AT_low_pc(HibernateRTCTrimGet)
    2065                            .dwattr $C$DW$91, DW_AT_high_pc(0x00)
    2066                            .dwattr $C$DW$91, DW_AT_TI_symbol_name("HibernateRTCTrimGet")
    2067                            .dwattr $C$DW$91, DW_AT_external
    2068                            .dwattr $C$DW$91, DW_AT_type(*$C$DW$T$33)
    2069                            .dwattr $C$DW$91, DW_AT_TI_begin_file("../driverlib/hibernate.c")
    2070                            .dwattr $C$DW$91, DW_AT_TI_begin_line(0x359)
    2071                            .dwattr $C$DW$91, DW_AT_TI_begin_column(0x01)
    2072                            .dwattr $C$DW$91, DW_AT_decl_file("../driverlib/hibernate.c")
    2073                            .dwattr $C$DW$91, DW_AT_decl_line(0x359)
    2074                            .dwattr $C$DW$91, DW_AT_decl_column(0x01)
    2075                            .dwattr $C$DW$91, DW_AT_TI_max_frame_size(0x00)
    2076                            .dwpsn  file "../driverlib/hibernate.c",line 858,column 1,is_stmt,address HibernateRTCTrimGet,
    2077                    
    2078                            .dwfde $C$DW$CIE, HibernateRTCTrimGet
    2079                    ;----------------------------------------------------------------------
    2080                    ; 857 | HibernateRTCTrimGet(void)                                              
    2081                    ; 859 | //                                                                     
    2082                    ; 860 | // Return the value of the trim register to the caller.                
    2083                    ; 861 | //                                                                     
    2084                    ;----------------------------------------------------------------------
    2085                    
    2086                    ;*****************************************************************************
    2087                    ;* FUNCTION NAME: HibernateRTCTrimGet                                        *
    2088                    ;*                                                                           *
    2089                    ;*   Regs Modified     : A1                                                  *
    2090                    ;*   Regs Used         : A1,LR                                               *
TI ARM Assembler Unix v18.1.1 Fri Jul  3 20:08:24 2020

Tools Copyright (c) 1996-2017 Texas Instruments Incorporated
hibernate.asm                                                        PAGE   39

    2091                    ;*   Local Frame Size  : 0 Args + 0 Auto + 0 Save = 0 byte                   *
    2092                    ;*****************************************************************************
    2093 0000020a           HibernateRTCTrimGet:
    2094                    ;* --------------------------------------------------------------------------*
    2095                            .dwcfi  cfa_offset, 0
    2096                            .dwpsn  file "../driverlib/hibernate.c",line 862,column 5,is_stmt,isa 1
    2097                    ;----------------------------------------------------------------------
    2098                    ; 862 | return(HWREG(HIB_RTCT));                                               
    2099                    ;----------------------------------------------------------------------
    2100 0000020a 4871              LDR       A1, $C$CON14          ; [DPU_V7M3_PIPE] |862|  ; [ORIG 16-BIT INS]
    2101 0000020c 6800              LDR       A1, [A1, #0]          ; [DPU_V7M3_PIPE] |862|  ; [ORIG 16-BIT INS]
    2102                            .dwpsn  file "../driverlib/hibernate.c",line 863,column 1,is_stmt,isa 1
    2103                    $C$DW$92        .dwtag  DW_TAG_TI_branch
    2104                            .dwattr $C$DW$92, DW_AT_low_pc(0x00)
    2105                            .dwattr $C$DW$92, DW_AT_TI_return
    2106                    
    2107 0000020e 4770              BX        LR                    ; [DPU_V7M3_PIPE]  ; [ORIG 16-BIT INS]
    2108                            ; BRANCH OCCURS                  ; [] 
    2109                            .dwattr $C$DW$91, DW_AT_TI_end_file("../driverlib/hibernate.c")
    2110                            .dwattr $C$DW$91, DW_AT_TI_end_line(0x35f)
    2111                            .dwattr $C$DW$91, DW_AT_TI_end_column(0x01)
    2112                            .dwendentry
    2113                            .dwendtag $C$DW$91
    2114                    
    2115 00000210                   .sect   ".text"
    2116                            .clink
    2117                            .thumbfunc HibernateDataSet
    2118 00000210                   .thumb
    2119                            .global HibernateDataSet
    2120                    
    2121                    $C$DW$93        .dwtag  DW_TAG_subprogram
    2122                            .dwattr $C$DW$93, DW_AT_name("HibernateDataSet")
    2123                            .dwattr $C$DW$93, DW_AT_low_pc(HibernateDataSet)
    2124                            .dwattr $C$DW$93, DW_AT_high_pc(0x00)
    2125                            .dwattr $C$DW$93, DW_AT_TI_symbol_name("HibernateDataSet")
    2126                            .dwattr $C$DW$93, DW_AT_external
    2127                            .dwattr $C$DW$93, DW_AT_TI_begin_file("../driverlib/hibernate.c")
    2128                            .dwattr $C$DW$93, DW_AT_TI_begin_line(0x374)
    2129                            .dwattr $C$DW$93, DW_AT_TI_begin_column(0x01)
    2130                            .dwattr $C$DW$93, DW_AT_decl_file("../driverlib/hibernate.c")
    2131                            .dwattr $C$DW$93, DW_AT_decl_line(0x374)
    2132                            .dwattr $C$DW$93, DW_AT_decl_column(0x01)
    2133                            .dwattr $C$DW$93, DW_AT_TI_max_frame_size(0x10)
    2134                            .dwpsn  file "../driverlib/hibernate.c",line 885,column 1,is_stmt,address HibernateDataSet,isa
    2135                    
    2136                            .dwfde $C$DW$CIE, HibernateDataSet
    2137                    $C$DW$94        .dwtag  DW_TAG_formal_parameter
    2138                            .dwattr $C$DW$94, DW_AT_name("pui32Data")
    2139                            .dwattr $C$DW$94, DW_AT_TI_symbol_name("pui32Data")
    2140                            .dwattr $C$DW$94, DW_AT_type(*$C$DW$T$39)
    2141                            .dwattr $C$DW$94, DW_AT_location[DW_OP_reg0]
    2142                    
    2143                    $C$DW$95        .dwtag  DW_TAG_formal_parameter
    2144                            .dwattr $C$DW$95, DW_AT_name("ui32Count")
    2145                            .dwattr $C$DW$95, DW_AT_TI_symbol_name("ui32Count")
TI ARM Assembler Unix v18.1.1 Fri Jul  3 20:08:24 2020

Tools Copyright (c) 1996-2017 Texas Instruments Incorporated
hibernate.asm                                                        PAGE   40

    2146                            .dwattr $C$DW$95, DW_AT_type(*$C$DW$T$33)
    2147                            .dwattr $C$DW$95, DW_AT_location[DW_OP_reg1]
    2148                    
    2149                    ;----------------------------------------------------------------------
    2150                    ; 884 | HibernateDataSet(uint32_t *pui32Data, uint32_t ui32Count)              
    2151                    ;----------------------------------------------------------------------
    2152                    
    2153                    ;*****************************************************************************
    2154                    ;* FUNCTION NAME: HibernateDataSet                                           *
    2155                    ;*                                                                           *
    2156                    ;*   Regs Modified     : A1,A2,A3,A4,SP,LR,SR,FPEXC,FPSCR                    *
    2157                    ;*   Regs Used         : A1,A2,A3,A4,SP,LR,SR,FPEXC,FPSCR                    *
    2158                    ;*   Local Frame Size  : 0 Args + 12 Auto + 4 Save = 16 byte                 *
    2159                    ;*****************************************************************************
    2160 00000210           HibernateDataSet:
    2161                    ;* --------------------------------------------------------------------------*
    2162                            .dwcfi  cfa_offset, 0
    2163 00000210 B50E              PUSH      {A2, A3, A4, LR}      ; [DPU_V7M3_PIPE]  ; [ORIG 16-BIT INS]
    2164                            .dwcfi  cfa_offset, 16
    2165                            .dwcfi  save_reg_to_mem, 14, -4
    2166                            .dwcfi  save_reg_to_mem, 3, -8
    2167                            .dwcfi  save_reg_to_mem, 2, -12
    2168                            .dwcfi  save_reg_to_mem, 1, -16
    2169                    $C$DW$96        .dwtag  DW_TAG_variable
    2170                            .dwattr $C$DW$96, DW_AT_name("pui32Data")
    2171                            .dwattr $C$DW$96, DW_AT_TI_symbol_name("pui32Data")
    2172                            .dwattr $C$DW$96, DW_AT_type(*$C$DW$T$39)
    2173                            .dwattr $C$DW$96, DW_AT_location[DW_OP_breg13 0]
    2174                    
    2175                    $C$DW$97        .dwtag  DW_TAG_variable
    2176                            .dwattr $C$DW$97, DW_AT_name("ui32Count")
    2177                            .dwattr $C$DW$97, DW_AT_TI_symbol_name("ui32Count")
    2178                            .dwattr $C$DW$97, DW_AT_type(*$C$DW$T$33)
    2179                            .dwattr $C$DW$97, DW_AT_location[DW_OP_breg13 4]
    2180                    
    2181                    $C$DW$98        .dwtag  DW_TAG_variable
    2182                            .dwattr $C$DW$98, DW_AT_name("ui32Idx")
    2183                            .dwattr $C$DW$98, DW_AT_TI_symbol_name("ui32Idx")
    2184                            .dwattr $C$DW$98, DW_AT_type(*$C$DW$T$33)
    2185                            .dwattr $C$DW$98, DW_AT_location[DW_OP_breg13 8]
    2186                    
    2187                    ;----------------------------------------------------------------------
    2188                    ; 886 | uint32_t ui32Idx;                                                      
    2189                    ; 888 | //                                                                     
    2190                    ; 889 | // Check the arguments.                                                
    2191                    ; 890 | //                                                                     
    2192                    ; 891 | ASSERT(ui32Count <= 64);                                               
    2193                    ; 892 | ASSERT(pui32Data != 0);                                                
    2194                    ; 894 | //                                                                     
    2195                    ; 895 | // Loop through all the words to be stored, storing one at a time.     
    2196                    ; 896 | //                                                                     
    2197                    ;----------------------------------------------------------------------
    2198 00000212 9101              STR       A2, [SP, #4]          ; [DPU_V7M3_PIPE] |885|  ; [ORIG 16-BIT INS]
    2199 00000214 9000              STR       A1, [SP, #0]          ; [DPU_V7M3_PIPE] |885|  ; [ORIG 16-BIT INS]
    2200                            .dwpsn  file "../driverlib/hibernate.c",line 897,column 9,is_stmt,isa 1
TI ARM Assembler Unix v18.1.1 Fri Jul  3 20:08:24 2020

Tools Copyright (c) 1996-2017 Texas Instruments Incorporated
hibernate.asm                                                        PAGE   41

    2201                    ;----------------------------------------------------------------------
    2202                    ; 897 | for(ui32Idx = 0; ui32Idx < ui32Count; ui32Idx++)                       
    2203                    ;----------------------------------------------------------------------
    2204 00000216 2000              MOVS      A1, #0                ; [DPU_V7M3_PIPE] |897|  ; [ORIG 16-BIT INS]
    2205 00000218 9002              STR       A1, [SP, #8]          ; [DPU_V7M3_PIPE] |897|  ; [ORIG 16-BIT INS]
    2206                            .dwpsn  file "../driverlib/hibernate.c",line 897,column 22,is_stmt,isa 1
    2207                    ;----------------------------------------------------------------------
    2208                    ; 899 | //                                                                     
    2209                    ; 900 | // Write a word to the battery-backed storage area.                    
    2210                    ; 901 | //                                                                     
    2211                    ;----------------------------------------------------------------------
    2212 0000021a 9801              LDR       A1, [SP, #4]          ; [DPU_V7M3_PIPE] |897|  ; [ORIG 16-BIT INS]
    2213 0000021c 9902              LDR       A2, [SP, #8]          ; [DPU_V7M3_PIPE] |897|  ; [ORIG 16-BIT INS]
    2214 0000021e 4288              CMP       A1, A2                ; [DPU_V7M3_PIPE] |897|  ; [ORIG 16-BIT INS]
    2215 00000220 D910              BLS       ||$C$L10||            ; [DPU_V7M3_PIPE] |897|  ; [ORIG 16-BIT INS]
    2216                            ; BRANCHCC OCCURS {||$C$L10||}   ; [] |897| 
    2217                    ;* --------------------------------------------------------------------------*
    2218                    ;*   BEGIN LOOP ||$C$L9||
    2219                    ;*
    2220                    ;*   Loop source line                : 897
    2221                    ;*   Loop closing brace source line  : 908
    2222                    ;*   Known Minimum Trip Count        : 1
    2223                    ;*   Known Maximum Trip Count        : 4294967295
    2224                    ;*   Known Max Trip Count Factor     : 1
    2225                    ;* --------------------------------------------------------------------------*
    2226 00000222           ||$C$L9||:    
    2227                            .dwpsn  file "../driverlib/hibernate.c",line 902,column 9,is_stmt,isa 1
    2228                    ;----------------------------------------------------------------------
    2229                    ; 902 | HWREG(HIB_DATA + (ui32Idx * 4)) = pui32Data[ui32Idx];                  
    2230                    ; 904 | //                                                                     
    2231                    ; 905 | // Wait for write completion                                           
    2232                    ; 906 | //                                                                     
    2233                    ;----------------------------------------------------------------------
    2234 00000222 9902              LDR       A2, [SP, #8]          ; [DPU_V7M3_PIPE] |902|  ; [ORIG 16-BIT INS]
    2235 00000224 9A00              LDR       A3, [SP, #0]          ; [DPU_V7M3_PIPE] |902|  ; [ORIG 16-BIT INS]
    2236 00000226 9B02              LDR       A4, [SP, #8]          ; [DPU_V7M3_PIPE] |902|  ; [ORIG 16-BIT INS]
    2237 00000228 48B6              LDR       A1, $C$CON15          ; [DPU_V7M3_PIPE] |902|  ; [ORIG 16-BIT INS]
    2238 0000022a 1021F852          LDR       A2, [A3, +A2, LSL #2] ; [DPU_V7M3_PIPE] |902|  ; [KEEP 32-BIT INS]
    2239 0000022e 1023F840          STR       A2, [A1, +A4, LSL #2] ; [DPU_V7M3_PIPE] |902|  ; [KEEP 32-BIT INS]
    2240                            .dwpsn  file "../driverlib/hibernate.c",line 907,column 9,is_stmt,isa 1
    2241                    ;----------------------------------------------------------------------
    2242                    ; 907 | _HibernateWriteComplete();                                             
    2243                    ;----------------------------------------------------------------------
    2244                    $C$DW$99        .dwtag  DW_TAG_TI_branch
    2245                            .dwattr $C$DW$99, DW_AT_low_pc(0x00)
    2246                            .dwattr $C$DW$99, DW_AT_name("_HibernateWriteComplete")
    2247                            .dwattr $C$DW$99, DW_AT_TI_call
    2248                    
    2249 00000232 FFFEF7FF!         BL        _HibernateWriteComplete ; [DPU_V7M3_PIPE] |907|  ; [KEEP 32-BIT INS]
    2250                            ; CALL OCCURS {_HibernateWriteComplete }  ; [] |907| 
    2251                            .dwpsn  file "../driverlib/hibernate.c",line 897,column 43,is_stmt,isa 1
    2252 00000236 9802              LDR       A1, [SP, #8]          ; [DPU_V7M3_PIPE] |897|  ; [ORIG 16-BIT INS]
    2253 00000238 1C40              ADDS      A1, A1, #1            ; [DPU_V7M3_PIPE] |897|  ; [ORIG 16-BIT INS]
    2254 0000023a 9002              STR       A1, [SP, #8]          ; [DPU_V7M3_PIPE] |897|  ; [ORIG 16-BIT INS]
    2255                            .dwpsn  file "../driverlib/hibernate.c",line 897,column 22,is_stmt,isa 1
TI ARM Assembler Unix v18.1.1 Fri Jul  3 20:08:24 2020

Tools Copyright (c) 1996-2017 Texas Instruments Incorporated
hibernate.asm                                                        PAGE   42

    2256 0000023c 9801              LDR       A1, [SP, #4]          ; [DPU_V7M3_PIPE] |897|  ; [ORIG 16-BIT INS]
    2257 0000023e 9902              LDR       A2, [SP, #8]          ; [DPU_V7M3_PIPE] |897|  ; [ORIG 16-BIT INS]
    2258 00000240 4288              CMP       A1, A2                ; [DPU_V7M3_PIPE] |897|  ; [ORIG 16-BIT INS]
    2259 00000242 D8EE              BHI       ||$C$L9||             ; [DPU_V7M3_PIPE] |897|  ; [ORIG 16-BIT INS]
    2260                            ; BRANCHCC OCCURS {||$C$L9||}    ; [] |897| 
    2261                    ;* --------------------------------------------------------------------------*
    2262                            .dwpsn  file "../driverlib/hibernate.c",line 909,column 1,is_stmt,isa 1
    2263                    ;* --------------------------------------------------------------------------*
    2264                    ||$C$L10||:    
    2265                    $C$DW$100       .dwtag  DW_TAG_TI_branch
    2266                            .dwattr $C$DW$100, DW_AT_low_pc(0x00)
    2267                            .dwattr $C$DW$100, DW_AT_TI_return
    2268                    
    2269 00000244 BD0E              POP       {A2, A3, A4, PC}      ; [DPU_V7M3_PIPE]  ; [ORIG 16-BIT INS]
    2270                            .dwcfi  cfa_offset, 0
    2271                            .dwcfi  restore_reg, 3
    2272                            .dwcfi  restore_reg, 2
    2273                            .dwcfi  restore_reg, 1
    2274                            ; BRANCH OCCURS                  ; [] 
    2275                            .dwattr $C$DW$93, DW_AT_TI_end_file("../driverlib/hibernate.c")
    2276                            .dwattr $C$DW$93, DW_AT_TI_end_line(0x38d)
    2277                            .dwattr $C$DW$93, DW_AT_TI_end_column(0x01)
    2278                            .dwendentry
    2279                            .dwendtag $C$DW$93
    2280                    
    2281 00000246                   .sect   ".text"
    2282                            .clink
    2283                            .thumbfunc HibernateDataGet
    2284 00000246                   .thumb
    2285                            .global HibernateDataGet
    2286                    
    2287                    $C$DW$101       .dwtag  DW_TAG_subprogram
    2288                            .dwattr $C$DW$101, DW_AT_name("HibernateDataGet")
    2289                            .dwattr $C$DW$101, DW_AT_low_pc(HibernateDataGet)
    2290                            .dwattr $C$DW$101, DW_AT_high_pc(0x00)
    2291                            .dwattr $C$DW$101, DW_AT_TI_symbol_name("HibernateDataGet")
    2292                            .dwattr $C$DW$101, DW_AT_external
    2293                            .dwattr $C$DW$101, DW_AT_TI_begin_file("../driverlib/hibernate.c")
    2294                            .dwattr $C$DW$101, DW_AT_TI_begin_line(0x3a2)
    2295                            .dwattr $C$DW$101, DW_AT_TI_begin_column(0x01)
    2296                            .dwattr $C$DW$101, DW_AT_decl_file("../driverlib/hibernate.c")
    2297                            .dwattr $C$DW$101, DW_AT_decl_line(0x3a2)
    2298                            .dwattr $C$DW$101, DW_AT_decl_column(0x01)
    2299                            .dwattr $C$DW$101, DW_AT_TI_max_frame_size(0x10)
    2300                            .dwpsn  file "../driverlib/hibernate.c",line 931,column 1,is_stmt,address HibernateDataGet,isa
    2301                    
    2302                            .dwfde $C$DW$CIE, HibernateDataGet
    2303                    $C$DW$102       .dwtag  DW_TAG_formal_parameter
    2304                            .dwattr $C$DW$102, DW_AT_name("pui32Data")
    2305                            .dwattr $C$DW$102, DW_AT_TI_symbol_name("pui32Data")
    2306                            .dwattr $C$DW$102, DW_AT_type(*$C$DW$T$39)
    2307                            .dwattr $C$DW$102, DW_AT_location[DW_OP_reg0]
    2308                    
    2309                    $C$DW$103       .dwtag  DW_TAG_formal_parameter
    2310                            .dwattr $C$DW$103, DW_AT_name("ui32Count")
TI ARM Assembler Unix v18.1.1 Fri Jul  3 20:08:24 2020

Tools Copyright (c) 1996-2017 Texas Instruments Incorporated
hibernate.asm                                                        PAGE   43

    2311                            .dwattr $C$DW$103, DW_AT_TI_symbol_name("ui32Count")
    2312                            .dwattr $C$DW$103, DW_AT_type(*$C$DW$T$33)
    2313                            .dwattr $C$DW$103, DW_AT_location[DW_OP_reg1]
    2314                    
    2315                    ;----------------------------------------------------------------------
    2316                    ; 930 | HibernateDataGet(uint32_t *pui32Data, uint32_t ui32Count)              
    2317                    ;----------------------------------------------------------------------
    2318                    
    2319                    ;*****************************************************************************
    2320                    ;* FUNCTION NAME: HibernateDataGet                                           *
    2321                    ;*                                                                           *
    2322                    ;*   Regs Modified     : A1,A2,A3,A4,SP,SR                                   *
    2323                    ;*   Regs Used         : A1,A2,A3,A4,SP,LR,SR                                *
    2324                    ;*   Local Frame Size  : 0 Args + 12 Auto + 0 Save = 12 byte                 *
    2325                    ;*****************************************************************************
    2326 00000246           HibernateDataGet:
    2327                    ;* --------------------------------------------------------------------------*
    2328                            .dwcfi  cfa_offset, 0
    2329 00000246 0D10F1AD          SUB       SP, SP, #16           ; [DPU_V7M3_PIPE]  ; [KEEP 32-BIT INS]
    2330                            .dwcfi  cfa_offset, 16
    2331                    $C$DW$104       .dwtag  DW_TAG_variable
    2332                            .dwattr $C$DW$104, DW_AT_name("pui32Data")
    2333                            .dwattr $C$DW$104, DW_AT_TI_symbol_name("pui32Data")
    2334                            .dwattr $C$DW$104, DW_AT_type(*$C$DW$T$39)
    2335                            .dwattr $C$DW$104, DW_AT_location[DW_OP_breg13 0]
    2336                    
    2337                    $C$DW$105       .dwtag  DW_TAG_variable
    2338                            .dwattr $C$DW$105, DW_AT_name("ui32Count")
    2339                            .dwattr $C$DW$105, DW_AT_TI_symbol_name("ui32Count")
    2340                            .dwattr $C$DW$105, DW_AT_type(*$C$DW$T$33)
    2341                            .dwattr $C$DW$105, DW_AT_location[DW_OP_breg13 4]
    2342                    
    2343                    $C$DW$106       .dwtag  DW_TAG_variable
    2344                            .dwattr $C$DW$106, DW_AT_name("ui32Idx")
    2345                            .dwattr $C$DW$106, DW_AT_TI_symbol_name("ui32Idx")
    2346                            .dwattr $C$DW$106, DW_AT_type(*$C$DW$T$33)
    2347                            .dwattr $C$DW$106, DW_AT_location[DW_OP_breg13 8]
    2348                    
    2349                    ;----------------------------------------------------------------------
    2350                    ; 932 | uint32_t ui32Idx;                                                      
    2351                    ; 934 | //                                                                     
    2352                    ; 935 | // Check the arguments.                                                
    2353                    ; 936 | //                                                                     
    2354                    ; 937 | ASSERT(ui32Count <= 64);                                               
    2355                    ; 938 | ASSERT(pui32Data != 0);                                                
    2356                    ; 940 | //                                                                     
    2357                    ; 941 | // Loop through all the words to be restored, reading one at a time.   
    2358                    ; 942 | //                                                                     
    2359                    ;----------------------------------------------------------------------
    2360 0000024a 9101              STR       A2, [SP, #4]          ; [DPU_V7M3_PIPE] |931|  ; [ORIG 16-BIT INS]
    2361 0000024c 9000              STR       A1, [SP, #0]          ; [DPU_V7M3_PIPE] |931|  ; [ORIG 16-BIT INS]
    2362                            .dwpsn  file "../driverlib/hibernate.c",line 943,column 9,is_stmt,isa 1
    2363                    ;----------------------------------------------------------------------
    2364                    ; 943 | for(ui32Idx = 0; ui32Idx < ui32Count; ui32Idx++)                       
    2365                    ;----------------------------------------------------------------------
TI ARM Assembler Unix v18.1.1 Fri Jul  3 20:08:24 2020

Tools Copyright (c) 1996-2017 Texas Instruments Incorporated
hibernate.asm                                                        PAGE   44

    2366 0000024e 2000              MOVS      A1, #0                ; [DPU_V7M3_PIPE] |943|  ; [ORIG 16-BIT INS]
    2367 00000250 9002              STR       A1, [SP, #8]          ; [DPU_V7M3_PIPE] |943|  ; [ORIG 16-BIT INS]
    2368                            .dwpsn  file "../driverlib/hibernate.c",line 943,column 22,is_stmt,isa 1
    2369                    ;----------------------------------------------------------------------
    2370                    ; 945 | //                                                                     
    2371                    ; 946 | // Read a word from the battery-backed storage area.  No delay is      
    2372                    ; 947 | // required between reads.                                             
    2373                    ; 948 | //                                                                     
    2374                    ;----------------------------------------------------------------------
    2375 00000252 9902              LDR       A2, [SP, #8]          ; [DPU_V7M3_PIPE] |943|  ; [ORIG 16-BIT INS]
    2376 00000254 9801              LDR       A1, [SP, #4]          ; [DPU_V7M3_PIPE] |943|  ; [ORIG 16-BIT INS]
    2377 00000256 4288              CMP       A1, A2                ; [DPU_V7M3_PIPE] |943|  ; [ORIG 16-BIT INS]
    2378 00000258 D90E              BLS       ||$C$L12||            ; [DPU_V7M3_PIPE] |943|  ; [ORIG 16-BIT INS]
    2379                            ; BRANCHCC OCCURS {||$C$L12||}   ; [] |943| 
    2380                    ;* --------------------------------------------------------------------------*
    2381                    ;*   BEGIN LOOP ||$C$L11||
    2382                    ;*
    2383                    ;*   Loop source line                : 943
    2384                    ;*   Loop closing brace source line  : 950
    2385                    ;*   Known Minimum Trip Count        : 1
    2386                    ;*   Known Maximum Trip Count        : 4294967295
    2387                    ;*   Known Max Trip Count Factor     : 1
    2388                    ;* --------------------------------------------------------------------------*
    2389 0000025a           ||$C$L11||:    
    2390                            .dwpsn  file "../driverlib/hibernate.c",line 949,column 9,is_stmt,isa 1
    2391                    ;----------------------------------------------------------------------
    2392                    ; 949 | pui32Data[ui32Idx] = HWREG(HIB_DATA + (ui32Idx * 4));                  
    2393                    ;----------------------------------------------------------------------
    2394 0000025a 9902              LDR       A2, [SP, #8]          ; [DPU_V7M3_PIPE] |949|  ; [ORIG 16-BIT INS]
    2395 0000025c 48A9              LDR       A1, $C$CON15          ; [DPU_V7M3_PIPE] |949|  ; [ORIG 16-BIT INS]
    2396 0000025e 9A02              LDR       A3, [SP, #8]          ; [DPU_V7M3_PIPE] |949|  ; [ORIG 16-BIT INS]
    2397 00000260 9B00              LDR       A4, [SP, #0]          ; [DPU_V7M3_PIPE] |949|  ; [ORIG 16-BIT INS]
    2398 00000262 0021F850          LDR       A1, [A1, +A2, LSL #2] ; [DPU_V7M3_PIPE] |949|  ; [KEEP 32-BIT INS]
    2399 00000266 0022F843          STR       A1, [A4, +A3, LSL #2] ; [DPU_V7M3_PIPE] |949|  ; [KEEP 32-BIT INS]
    2400                            .dwpsn  file "../driverlib/hibernate.c",line 943,column 43,is_stmt,isa 1
    2401 0000026a 9802              LDR       A1, [SP, #8]          ; [DPU_V7M3_PIPE] |943|  ; [ORIG 16-BIT INS]
    2402 0000026c 1C40              ADDS      A1, A1, #1            ; [DPU_V7M3_PIPE] |943|  ; [ORIG 16-BIT INS]
    2403 0000026e 9002              STR       A1, [SP, #8]          ; [DPU_V7M3_PIPE] |943|  ; [ORIG 16-BIT INS]
    2404                            .dwpsn  file "../driverlib/hibernate.c",line 943,column 22,is_stmt,isa 1
    2405 00000270 9801              LDR       A1, [SP, #4]          ; [DPU_V7M3_PIPE] |943|  ; [ORIG 16-BIT INS]
    2406 00000272 9902              LDR       A2, [SP, #8]          ; [DPU_V7M3_PIPE] |943|  ; [ORIG 16-BIT INS]
    2407 00000274 4288              CMP       A1, A2                ; [DPU_V7M3_PIPE] |943|  ; [ORIG 16-BIT INS]
    2408 00000276 D8F0              BHI       ||$C$L11||            ; [DPU_V7M3_PIPE] |943|  ; [ORIG 16-BIT INS]
    2409                            ; BRANCHCC OCCURS {||$C$L11||}   ; [] |943| 
    2410                    ;* --------------------------------------------------------------------------*
    2411                            .dwpsn  file "../driverlib/hibernate.c",line 951,column 1,is_stmt,isa 1
    2412                    ;* --------------------------------------------------------------------------*
    2413 00000278           ||$C$L12||:    
    2414 00000278 B004              ADD       SP, SP, #16           ; [DPU_V7M3_PIPE]  ; [ORIG 16-BIT INS]
    2415                            .dwcfi  cfa_offset, 0
    2416                    $C$DW$107       .dwtag  DW_TAG_TI_branch
    2417                            .dwattr $C$DW$107, DW_AT_low_pc(0x00)
    2418                            .dwattr $C$DW$107, DW_AT_TI_return
    2419                    
    2420 0000027a 4770              BX        LR                    ; [DPU_V7M3_PIPE]  ; [ORIG 16-BIT INS]
TI ARM Assembler Unix v18.1.1 Fri Jul  3 20:08:24 2020

Tools Copyright (c) 1996-2017 Texas Instruments Incorporated
hibernate.asm                                                        PAGE   45

    2421                            ; BRANCH OCCURS                  ; [] 
    2422                            .dwattr $C$DW$101, DW_AT_TI_end_file("../driverlib/hibernate.c")
    2423                            .dwattr $C$DW$101, DW_AT_TI_end_line(0x3b7)
    2424                            .dwattr $C$DW$101, DW_AT_TI_end_column(0x01)
    2425                            .dwendentry
    2426                            .dwendtag $C$DW$101
    2427                    
    2428 0000027c                   .sect   ".text"
    2429                            .clink
    2430                            .thumbfunc HibernateRequest
    2431 0000027c                   .thumb
    2432                            .global HibernateRequest
    2433                    
    2434                    $C$DW$108       .dwtag  DW_TAG_subprogram
    2435                            .dwattr $C$DW$108, DW_AT_name("HibernateRequest")
    2436                            .dwattr $C$DW$108, DW_AT_low_pc(HibernateRequest)
    2437                            .dwattr $C$DW$108, DW_AT_high_pc(0x00)
    2438                            .dwattr $C$DW$108, DW_AT_TI_symbol_name("HibernateRequest")
    2439                            .dwattr $C$DW$108, DW_AT_external
    2440                            .dwattr $C$DW$108, DW_AT_TI_begin_file("../driverlib/hibernate.c")
    2441                            .dwattr $C$DW$108, DW_AT_TI_begin_line(0x3dd)
    2442                            .dwattr $C$DW$108, DW_AT_TI_begin_column(0x01)
    2443                            .dwattr $C$DW$108, DW_AT_decl_file("../driverlib/hibernate.c")
    2444                            .dwattr $C$DW$108, DW_AT_decl_line(0x3dd)
    2445                            .dwattr $C$DW$108, DW_AT_decl_column(0x01)
    2446                            .dwattr $C$DW$108, DW_AT_TI_max_frame_size(0x08)
    2447                            .dwpsn  file "../driverlib/hibernate.c",line 990,column 1,is_stmt,address HibernateRequest,isa
    2448                    
    2449                            .dwfde $C$DW$CIE, HibernateRequest
    2450                    ;----------------------------------------------------------------------
    2451                    ; 989 | HibernateRequest(void)                                                 
    2452                    ; 991 | //                                                                     
    2453                    ; 992 | // Set the bit in the control register to cut main power to the process
    2454                    ;     | or.                                                                    
    2455                    ; 993 | //                                                                     
    2456                    ;----------------------------------------------------------------------
    2457                    
    2458                    ;*****************************************************************************
    2459                    ;* FUNCTION NAME: HibernateRequest                                           *
    2460                    ;*                                                                           *
    2461                    ;*   Regs Modified     : A1,A2,A4,SP,LR,SR,FPEXC,FPSCR                       *
    2462                    ;*   Regs Used         : A1,A2,A4,SP,LR,SR,FPEXC,FPSCR                       *
    2463                    ;*   Local Frame Size  : 0 Args + 0 Auto + 4 Save = 4 byte                   *
    2464                    ;*****************************************************************************
    2465 0000027c           HibernateRequest:
    2466                    ;* --------------------------------------------------------------------------*
    2467                            .dwcfi  cfa_offset, 0
    2468 0000027c B508              PUSH      {A4, LR}              ; [DPU_V7M3_PIPE]  ; [ORIG 16-BIT INS]
    2469                            .dwcfi  cfa_offset, 8
    2470                            .dwcfi  save_reg_to_mem, 14, -4
    2471                            .dwcfi  save_reg_to_mem, 3, -8
    2472                            .dwpsn  file "../driverlib/hibernate.c",line 994,column 5,is_stmt,isa 1
    2473                    ;----------------------------------------------------------------------
    2474                    ; 994 | HWREG(HIB_CTL) |= HIB_CTL_HIBREQ;                                      
    2475                    ; 996 | //                                                                     
TI ARM Assembler Unix v18.1.1 Fri Jul  3 20:08:24 2020

Tools Copyright (c) 1996-2017 Texas Instruments Incorporated
hibernate.asm                                                        PAGE   46

    2476                    ; 997 | // Wait for write completion                                           
    2477                    ; 998 | //                                                                     
    2478                    ;----------------------------------------------------------------------
    2479 0000027e 491D              LDR       A2, $C$CON1           ; [DPU_V7M3_PIPE] |994|  ; [ORIG 16-BIT INS]
    2480 00000280 6808              LDR       A1, [A2, #0]          ; [DPU_V7M3_PIPE] |994|  ; [ORIG 16-BIT INS]
    2481 00000282 0002F040          ORR       A1, A1, #2            ; [DPU_V7M3_PIPE] |994|  ; [KEEP 32-BIT INS]
    2482 00000286 6008              STR       A1, [A2, #0]          ; [DPU_V7M3_PIPE] |994|  ; [ORIG 16-BIT INS]
    2483                            .dwpsn  file "../driverlib/hibernate.c",line 999,column 5,is_stmt,isa 1
    2484                    ;----------------------------------------------------------------------
    2485                    ; 999 | _HibernateWriteComplete();                                             
    2486                    ;----------------------------------------------------------------------
    2487                    $C$DW$109       .dwtag  DW_TAG_TI_branch
    2488                            .dwattr $C$DW$109, DW_AT_low_pc(0x00)
    2489                            .dwattr $C$DW$109, DW_AT_name("_HibernateWriteComplete")
    2490                            .dwattr $C$DW$109, DW_AT_TI_call
    2491                    
    2492 00000288 FFFEF7FF!         BL        _HibernateWriteComplete ; [DPU_V7M3_PIPE] |999|  ; [KEEP 32-BIT INS]
    2493                            ; CALL OCCURS {_HibernateWriteComplete }  ; [] |999| 
    2494                            .dwpsn  file "../driverlib/hibernate.c",line 1000,column 1,is_stmt,isa 1
    2495                    $C$DW$110       .dwtag  DW_TAG_TI_branch
    2496                            .dwattr $C$DW$110, DW_AT_low_pc(0x00)
    2497                            .dwattr $C$DW$110, DW_AT_TI_return
    2498                    
    2499 0000028c BD08              POP       {A4, PC}              ; [DPU_V7M3_PIPE]  ; [ORIG 16-BIT INS]
    2500                            .dwcfi  cfa_offset, 0
    2501                            .dwcfi  restore_reg, 3
    2502                            ; BRANCH OCCURS                  ; [] 
    2503                            .dwattr $C$DW$108, DW_AT_TI_end_file("../driverlib/hibernate.c")
    2504                            .dwattr $C$DW$108, DW_AT_TI_end_line(0x3e8)
    2505                            .dwattr $C$DW$108, DW_AT_TI_end_column(0x01)
    2506                            .dwendentry
    2507                            .dwendtag $C$DW$108
    2508                    
    2509 0000028e                   .sect   ".text"
    2510                            .clink
    2511                            .thumbfunc HibernateIntEnable
    2512 0000028e                   .thumb
    2513                            .global HibernateIntEnable
    2514                    
    2515                    $C$DW$111       .dwtag  DW_TAG_subprogram
    2516                            .dwattr $C$DW$111, DW_AT_name("HibernateIntEnable")
    2517                            .dwattr $C$DW$111, DW_AT_low_pc(HibernateIntEnable)
    2518                            .dwattr $C$DW$111, DW_AT_high_pc(0x00)
    2519                            .dwattr $C$DW$111, DW_AT_TI_symbol_name("HibernateIntEnable")
    2520                            .dwattr $C$DW$111, DW_AT_external
    2521                            .dwattr $C$DW$111, DW_AT_TI_begin_file("../driverlib/hibernate.c")
    2522                            .dwattr $C$DW$111, DW_AT_TI_begin_line(0x407)
    2523                            .dwattr $C$DW$111, DW_AT_TI_begin_column(0x01)
    2524                            .dwattr $C$DW$111, DW_AT_decl_file("../driverlib/hibernate.c")
    2525                            .dwattr $C$DW$111, DW_AT_decl_line(0x407)
    2526                            .dwattr $C$DW$111, DW_AT_decl_column(0x01)
    2527                            .dwattr $C$DW$111, DW_AT_TI_max_frame_size(0x08)
    2528                            .dwpsn  file "../driverlib/hibernate.c",line 1032,column 1,is_stmt,address HibernateIntEnable,
    2529                    
    2530                            .dwfde $C$DW$CIE, HibernateIntEnable
TI ARM Assembler Unix v18.1.1 Fri Jul  3 20:08:24 2020

Tools Copyright (c) 1996-2017 Texas Instruments Incorporated
hibernate.asm                                                        PAGE   47

    2531                    $C$DW$112       .dwtag  DW_TAG_formal_parameter
    2532                            .dwattr $C$DW$112, DW_AT_name("ui32IntFlags")
    2533                            .dwattr $C$DW$112, DW_AT_TI_symbol_name("ui32IntFlags")
    2534                            .dwattr $C$DW$112, DW_AT_type(*$C$DW$T$33)
    2535                            .dwattr $C$DW$112, DW_AT_location[DW_OP_reg0]
    2536                    
    2537                    ;----------------------------------------------------------------------
    2538                    ; 1031 | HibernateIntEnable(uint32_t ui32IntFlags)                              
    2539                    ;----------------------------------------------------------------------
    2540                    
    2541                    ;*****************************************************************************
    2542                    ;* FUNCTION NAME: HibernateIntEnable                                         *
    2543                    ;*                                                                           *
    2544                    ;*   Regs Modified     : A1,A2,A3,A4,SP,LR,SR,FPEXC,FPSCR                    *
    2545                    ;*   Regs Used         : A1,A2,A3,A4,SP,LR,SR,FPEXC,FPSCR                    *
    2546                    ;*   Local Frame Size  : 0 Args + 4 Auto + 4 Save = 8 byte                   *
    2547                    ;*****************************************************************************
    2548 0000028e           HibernateIntEnable:
    2549                    ;* --------------------------------------------------------------------------*
    2550                            .dwcfi  cfa_offset, 0
    2551 0000028e B508              PUSH      {A4, LR}              ; [DPU_V7M3_PIPE]  ; [ORIG 16-BIT INS]
    2552                            .dwcfi  cfa_offset, 8
    2553                            .dwcfi  save_reg_to_mem, 14, -4
    2554                            .dwcfi  save_reg_to_mem, 3, -8
    2555                    $C$DW$113       .dwtag  DW_TAG_variable
    2556                            .dwattr $C$DW$113, DW_AT_name("ui32IntFlags")
    2557                            .dwattr $C$DW$113, DW_AT_TI_symbol_name("ui32IntFlags")
    2558                            .dwattr $C$DW$113, DW_AT_type(*$C$DW$T$33)
    2559                            .dwattr $C$DW$113, DW_AT_location[DW_OP_breg13 0]
    2560                    
    2561                    ;----------------------------------------------------------------------
    2562                    ; 1033 | //                                                                     
    2563                    ; 1034 | // Check the arguments.                                                
    2564                    ; 1035 | //                                                                     
    2565                    ; 1036 | ASSERT(!(ui32IntFlags & ~(HIBERNATE_INT_PIN_WAKE | HIBERNATE_INT_LOW_BA
    2566                    ;     | T |                                                                    
    2567                    ; 1037 |                           HIBERNATE_INT_VDDFAIL |                      
    2568                    ; 1038 |                           HIBERNATE_INT_RESET_WAKE |                   
    2569                    ; 1039 |                           HIBERNATE_INT_GPIO_WAKE |                    
    2570                    ; 1040 |                           HIBERNATE_INT_RTC_MATCH_0 |                  
    2571                    ; 1041 |                           HIBERNATE_INT_WR_COMPLETE)));                
    2572                    ; 1043 | //                                                                     
    2573                    ; 1044 | // Set the specified interrupt mask bits.                              
    2574                    ; 1045 | //                                                                     
    2575                    ;----------------------------------------------------------------------
    2576 00000290 9000              STR       A1, [SP, #0]          ; [DPU_V7M3_PIPE] |1032|  ; [ORIG 16-BIT INS]
    2577                            .dwpsn  file "../driverlib/hibernate.c",line 1046,column 5,is_stmt,isa 1
    2578                    ;----------------------------------------------------------------------
    2579                    ; 1046 | HWREG(HIB_IM) |= ui32IntFlags;                                         
    2580                    ; 1048 | //                                                                     
    2581                    ; 1049 | // Wait for write completion                                           
    2582                    ; 1050 | //                                                                     
    2583                    ;----------------------------------------------------------------------
    2584 00000292 499D              LDR       A2, $C$CON16          ; [DPU_V7M3_PIPE] |1046|  ; [ORIG 16-BIT INS]
    2585 00000294 9800              LDR       A1, [SP, #0]          ; [DPU_V7M3_PIPE] |1046|  ; [ORIG 16-BIT INS]
TI ARM Assembler Unix v18.1.1 Fri Jul  3 20:08:24 2020

Tools Copyright (c) 1996-2017 Texas Instruments Incorporated
hibernate.asm                                                        PAGE   48

    2586 00000296 680A              LDR       A3, [A2, #0]          ; [DPU_V7M3_PIPE] |1046|  ; [ORIG 16-BIT INS]
    2587 00000298 4310              ORRS      A1, A1, A3            ; [DPU_V7M3_PIPE] |1046|  ; [ORIG 16-BIT INS]
    2588 0000029a 6008              STR       A1, [A2, #0]          ; [DPU_V7M3_PIPE] |1046|  ; [ORIG 16-BIT INS]
    2589                            .dwpsn  file "../driverlib/hibernate.c",line 1051,column 5,is_stmt,isa 1
    2590                    ;----------------------------------------------------------------------
    2591                    ; 1051 | _HibernateWriteComplete();                                             
    2592                    ;----------------------------------------------------------------------
    2593                    $C$DW$114       .dwtag  DW_TAG_TI_branch
    2594                            .dwattr $C$DW$114, DW_AT_low_pc(0x00)
    2595                            .dwattr $C$DW$114, DW_AT_name("_HibernateWriteComplete")
    2596                            .dwattr $C$DW$114, DW_AT_TI_call
    2597                    
    2598 0000029c FFFEF7FF!         BL        _HibernateWriteComplete ; [DPU_V7M3_PIPE] |1051|  ; [KEEP 32-BIT INS]
    2599                            ; CALL OCCURS {_HibernateWriteComplete }  ; [] |1051| 
    2600                            .dwpsn  file "../driverlib/hibernate.c",line 1052,column 1,is_stmt,isa 1
    2601                    $C$DW$115       .dwtag  DW_TAG_TI_branch
    2602                            .dwattr $C$DW$115, DW_AT_low_pc(0x00)
    2603                            .dwattr $C$DW$115, DW_AT_TI_return
    2604                    
    2605 000002a0 BD08              POP       {A4, PC}              ; [DPU_V7M3_PIPE]  ; [ORIG 16-BIT INS]
    2606                            .dwcfi  cfa_offset, 0
    2607                            .dwcfi  restore_reg, 3
    2608                            ; BRANCH OCCURS                  ; [] 
    2609                            .dwattr $C$DW$111, DW_AT_TI_end_file("../driverlib/hibernate.c")
    2610                            .dwattr $C$DW$111, DW_AT_TI_end_line(0x41c)
    2611                            .dwattr $C$DW$111, DW_AT_TI_end_column(0x01)
    2612                            .dwendentry
    2613                            .dwendtag $C$DW$111
    2614                    
    2615 000002a2                   .sect   ".text"
    2616                            .clink
    2617                            .thumbfunc HibernateIntDisable
    2618 000002a2                   .thumb
    2619                            .global HibernateIntDisable
    2620                    
    2621                    $C$DW$116       .dwtag  DW_TAG_subprogram
    2622                            .dwattr $C$DW$116, DW_AT_name("HibernateIntDisable")
    2623                            .dwattr $C$DW$116, DW_AT_low_pc(HibernateIntDisable)
    2624                            .dwattr $C$DW$116, DW_AT_high_pc(0x00)
    2625                            .dwattr $C$DW$116, DW_AT_TI_symbol_name("HibernateIntDisable")
    2626                            .dwattr $C$DW$116, DW_AT_external
    2627                            .dwattr $C$DW$116, DW_AT_TI_begin_file("../driverlib/hibernate.c")
    2628                            .dwattr $C$DW$116, DW_AT_TI_begin_line(0x42e)
    2629                            .dwattr $C$DW$116, DW_AT_TI_begin_column(0x01)
    2630                            .dwattr $C$DW$116, DW_AT_decl_file("../driverlib/hibernate.c")
    2631                            .dwattr $C$DW$116, DW_AT_decl_line(0x42e)
    2632                            .dwattr $C$DW$116, DW_AT_decl_column(0x01)
    2633                            .dwattr $C$DW$116, DW_AT_TI_max_frame_size(0x08)
    2634                            .dwpsn  file "../driverlib/hibernate.c",line 1071,column 1,is_stmt,address HibernateIntDisable
    2635                    
    2636                            .dwfde $C$DW$CIE, HibernateIntDisable
    2637                    $C$DW$117       .dwtag  DW_TAG_formal_parameter
    2638                            .dwattr $C$DW$117, DW_AT_name("ui32IntFlags")
    2639                            .dwattr $C$DW$117, DW_AT_TI_symbol_name("ui32IntFlags")
    2640                            .dwattr $C$DW$117, DW_AT_type(*$C$DW$T$33)
TI ARM Assembler Unix v18.1.1 Fri Jul  3 20:08:24 2020

Tools Copyright (c) 1996-2017 Texas Instruments Incorporated
hibernate.asm                                                        PAGE   49

    2641                            .dwattr $C$DW$117, DW_AT_location[DW_OP_reg0]
    2642                    
    2643                    ;----------------------------------------------------------------------
    2644                    ; 1070 | HibernateIntDisable(uint32_t ui32IntFlags)                             
    2645                    ;----------------------------------------------------------------------
    2646                    
    2647                    ;*****************************************************************************
    2648                    ;* FUNCTION NAME: HibernateIntDisable                                        *
    2649                    ;*                                                                           *
    2650                    ;*   Regs Modified     : A1,A2,A3,A4,SP,LR,SR,FPEXC,FPSCR                    *
    2651                    ;*   Regs Used         : A1,A2,A3,A4,SP,LR,SR,FPEXC,FPSCR                    *
    2652                    ;*   Local Frame Size  : 0 Args + 4 Auto + 4 Save = 8 byte                   *
    2653                    ;*****************************************************************************
    2654 000002a2           HibernateIntDisable:
    2655                    ;* --------------------------------------------------------------------------*
    2656                            .dwcfi  cfa_offset, 0
    2657 000002a2 B508              PUSH      {A4, LR}              ; [DPU_V7M3_PIPE]  ; [ORIG 16-BIT INS]
    2658                            .dwcfi  cfa_offset, 8
    2659                            .dwcfi  save_reg_to_mem, 14, -4
    2660                            .dwcfi  save_reg_to_mem, 3, -8
    2661                    $C$DW$118       .dwtag  DW_TAG_variable
    2662                            .dwattr $C$DW$118, DW_AT_name("ui32IntFlags")
    2663                            .dwattr $C$DW$118, DW_AT_TI_symbol_name("ui32IntFlags")
    2664                            .dwattr $C$DW$118, DW_AT_type(*$C$DW$T$33)
    2665                            .dwattr $C$DW$118, DW_AT_location[DW_OP_breg13 0]
    2666                    
    2667                    ;----------------------------------------------------------------------
    2668                    ; 1072 | //                                                                     
    2669                    ; 1073 | // Check the arguments.                                                
    2670                    ; 1074 | //                                                                     
    2671                    ; 1075 | ASSERT(!(ui32IntFlags & ~(HIBERNATE_INT_PIN_WAKE | HIBERNATE_INT_LOW_BA
    2672                    ;     | T |                                                                    
    2673                    ; 1076 |                           HIBERNATE_INT_VDDFAIL |                      
    2674                    ; 1077 |                           HIBERNATE_INT_RESET_WAKE |                   
    2675                    ; 1078 |                           HIBERNATE_INT_GPIO_WAKE |                    
    2676                    ; 1079 |                           HIBERNATE_INT_RTC_MATCH_0 |                  
    2677                    ; 1080 |                           HIBERNATE_INT_WR_COMPLETE)));                
    2678                    ; 1082 | //                                                                     
    2679                    ; 1083 | // Clear the specified interrupt mask bits.                            
    2680                    ; 1084 | //                                                                     
    2681                    ;----------------------------------------------------------------------
    2682 000002a4 9000              STR       A1, [SP, #0]          ; [DPU_V7M3_PIPE] |1071|  ; [ORIG 16-BIT INS]
    2683                            .dwpsn  file "../driverlib/hibernate.c",line 1085,column 5,is_stmt,isa 1
    2684                    ;----------------------------------------------------------------------
    2685                    ; 1085 | HWREG(HIB_IM) &= ~ui32IntFlags;                                        
    2686                    ; 1087 | //                                                                     
    2687                    ; 1088 | // Wait for write completion                                           
    2688                    ; 1089 | //                                                                     
    2689                    ;----------------------------------------------------------------------
    2690 000002a6 4998              LDR       A2, $C$CON16          ; [DPU_V7M3_PIPE] |1085|  ; [ORIG 16-BIT INS]
    2691 000002a8 9A00              LDR       A3, [SP, #0]          ; [DPU_V7M3_PIPE] |1085|  ; [ORIG 16-BIT INS]
    2692 000002aa 6808              LDR       A1, [A2, #0]          ; [DPU_V7M3_PIPE] |1085|  ; [ORIG 16-BIT INS]
    2693 000002ac 4390              BICS      A1, A1, A3            ; [DPU_V7M3_PIPE] |1085|  ; [ORIG 16-BIT INS]
    2694 000002ae 6008              STR       A1, [A2, #0]          ; [DPU_V7M3_PIPE] |1085|  ; [ORIG 16-BIT INS]
    2695                            .dwpsn  file "../driverlib/hibernate.c",line 1090,column 5,is_stmt,isa 1
TI ARM Assembler Unix v18.1.1 Fri Jul  3 20:08:24 2020

Tools Copyright (c) 1996-2017 Texas Instruments Incorporated
hibernate.asm                                                        PAGE   50

    2696                    ;----------------------------------------------------------------------
    2697                    ; 1090 | _HibernateWriteComplete();                                             
    2698                    ;----------------------------------------------------------------------
    2699                    $C$DW$119       .dwtag  DW_TAG_TI_branch
    2700                            .dwattr $C$DW$119, DW_AT_low_pc(0x00)
    2701                            .dwattr $C$DW$119, DW_AT_name("_HibernateWriteComplete")
    2702                            .dwattr $C$DW$119, DW_AT_TI_call
    2703                    
    2704 000002b0 FFFEF7FF!         BL        _HibernateWriteComplete ; [DPU_V7M3_PIPE] |1090|  ; [KEEP 32-BIT INS]
    2705                            ; CALL OCCURS {_HibernateWriteComplete }  ; [] |1090| 
    2706                            .dwpsn  file "../driverlib/hibernate.c",line 1091,column 1,is_stmt,isa 1
    2707                    $C$DW$120       .dwtag  DW_TAG_TI_branch
    2708                            .dwattr $C$DW$120, DW_AT_low_pc(0x00)
    2709                            .dwattr $C$DW$120, DW_AT_TI_return
    2710                    
    2711 000002b4 BD08              POP       {A4, PC}              ; [DPU_V7M3_PIPE]  ; [ORIG 16-BIT INS]
    2712                            .dwcfi  cfa_offset, 0
    2713                            .dwcfi  restore_reg, 3
    2714                            ; BRANCH OCCURS                  ; [] 
    2715                            .dwattr $C$DW$116, DW_AT_TI_end_file("../driverlib/hibernate.c")
    2716                            .dwattr $C$DW$116, DW_AT_TI_end_line(0x443)
    2717                            .dwattr $C$DW$116, DW_AT_TI_end_column(0x01)
    2718                            .dwendentry
    2719                            .dwendtag $C$DW$116
    2720                    
    2721 000002b6                   .sect   ".text"
    2722                            .clink
    2723                            .thumbfunc _HibernateIntNumberGet
    2724 000002b6                   .thumb
    2725                    
    2726                    $C$DW$121       .dwtag  DW_TAG_subprogram
    2727                            .dwattr $C$DW$121, DW_AT_name("_HibernateIntNumberGet")
    2728                            .dwattr $C$DW$121, DW_AT_low_pc(_HibernateIntNumberGet)
    2729                            .dwattr $C$DW$121, DW_AT_high_pc(0x00)
    2730                            .dwattr $C$DW$121, DW_AT_TI_symbol_name("_HibernateIntNumberGet")
    2731                            .dwattr $C$DW$121, DW_AT_type(*$C$DW$T$33)
    2732                            .dwattr $C$DW$121, DW_AT_TI_begin_file("../driverlib/hibernate.c")
    2733                            .dwattr $C$DW$121, DW_AT_TI_begin_line(0x450)
    2734                            .dwattr $C$DW$121, DW_AT_TI_begin_column(0x01)
    2735                            .dwattr $C$DW$121, DW_AT_decl_file("../driverlib/hibernate.c")
    2736                            .dwattr $C$DW$121, DW_AT_decl_line(0x450)
    2737                            .dwattr $C$DW$121, DW_AT_decl_column(0x01)
    2738                            .dwattr $C$DW$121, DW_AT_TI_max_frame_size(0x08)
    2739                            .dwpsn  file "../driverlib/hibernate.c",line 1105,column 1,is_stmt,address _HibernateIntNumber
    2740                    
    2741                            .dwfde $C$DW$CIE, _HibernateIntNumberGet
    2742                    ;----------------------------------------------------------------------
    2743                    ; 1104 | _HibernateIntNumberGet(void)                                           
    2744                    ; 1106 | uint32_t ui32Int;                                                      
    2745                    ; 1108 | //                                                                     
    2746                    ; 1109 | // Find the valid interrupt number for the hibernate module.           
    2747                    ; 1110 | //                                                                     
    2748                    ;----------------------------------------------------------------------
    2749                    
    2750                    ;*****************************************************************************
TI ARM Assembler Unix v18.1.1 Fri Jul  3 20:08:24 2020

Tools Copyright (c) 1996-2017 Texas Instruments Incorporated
hibernate.asm                                                        PAGE   51

    2751                    ;* FUNCTION NAME: _HibernateIntNumberGet                                     *
    2752                    ;*                                                                           *
    2753                    ;*   Regs Modified     : A1,A2,A3,SP,SR                                      *
    2754                    ;*   Regs Used         : A1,A2,A3,SP,LR,SR                                   *
    2755                    ;*   Local Frame Size  : 0 Args + 4 Auto + 0 Save = 4 byte                   *
    2756                    ;*****************************************************************************
    2757 000002b6           _HibernateIntNumberGet:
    2758                    ;* --------------------------------------------------------------------------*
    2759                            .dwcfi  cfa_offset, 0
    2760 000002b6 0D08F1AD          SUB       SP, SP, #8            ; [DPU_V7M3_PIPE]  ; [KEEP 32-BIT INS]
    2761                            .dwcfi  cfa_offset, 8
    2762                    $C$DW$122       .dwtag  DW_TAG_variable
    2763                            .dwattr $C$DW$122, DW_AT_name("ui32Int")
    2764                            .dwattr $C$DW$122, DW_AT_TI_symbol_name("ui32Int")
    2765                            .dwattr $C$DW$122, DW_AT_type(*$C$DW$T$33)
    2766                            .dwattr $C$DW$122, DW_AT_location[DW_OP_breg13 0]
    2767                    
    2768                            .dwpsn  file "../driverlib/hibernate.c",line 1111,column 5,is_stmt,isa 1
    2769                    ;----------------------------------------------------------------------
    2770                    ; 1111 | if(CLASS_IS_TM4C129)                                                   
    2771                    ;----------------------------------------------------------------------
    2772 000002ba 492B              LDR       A2, $C$CON3           ; [DPU_V7M3_PIPE] |1111|  ; [ORIG 16-BIT INS]
    2773 000002bc 4829              LDR       A1, $C$CON2           ; [DPU_V7M3_PIPE] |1111|  ; [ORIG 16-BIT INS]
    2774 000002be 680A              LDR       A3, [A2, #0]          ; [DPU_V7M3_PIPE] |1111|  ; [ORIG 16-BIT INS]
    2775 000002c0 492A              LDR       A2, $C$CON4           ; [DPU_V7M3_PIPE] |1111|  ; [ORIG 16-BIT INS]
    2776 000002c2 4010              ANDS      A1, A1, A3            ; [DPU_V7M3_PIPE] |1111|  ; [ORIG 16-BIT INS]
    2777 000002c4 4281              CMP       A2, A1                ; [DPU_V7M3_PIPE] |1111|  ; [ORIG 16-BIT INS]
    2778 000002c6 D102              BNE       ||$C$L13||            ; [DPU_V7M3_PIPE] |1111|  ; [ORIG 16-BIT INS]
    2779                            ; BRANCHCC OCCURS {||$C$L13||}   ; [] |1111| 
    2780                    ;* --------------------------------------------------------------------------*
    2781                            .dwpsn  file "../driverlib/hibernate.c",line 1113,column 9,is_stmt,isa 1
    2782                    ;----------------------------------------------------------------------
    2783                    ; 1113 | ui32Int = INT_HIBERNATE_TM4C129;                                       
    2784                    ;----------------------------------------------------------------------
    2785 000002c8 2039              MOVS      A1, #57               ; [DPU_V7M3_PIPE] |1113|  ; [ORIG 16-BIT INS]
    2786 000002ca 9000              STR       A1, [SP, #0]          ; [DPU_V7M3_PIPE] |1113|  ; [ORIG 16-BIT INS]
    2787                            .dwpsn  file "../driverlib/hibernate.c",line 1114,column 5,is_stmt,isa 1
    2788                    ;----------------------------------------------------------------------
    2789                    ; 1115 | else                                                                   
    2790                    ;----------------------------------------------------------------------
    2791 000002cc E001              B         ||$C$L14||            ; [DPU_V7M3_PIPE] |1114|  ; [ORIG 16-BIT INS]
    2792                            ; BRANCH OCCURS {||$C$L14||}     ; [] |1114| 
    2793                    ;* --------------------------------------------------------------------------*
    2794 000002ce           ||$C$L13||:    
    2795                            .dwpsn  file "../driverlib/hibernate.c",line 1117,column 9,is_stmt,isa 1
    2796                    ;----------------------------------------------------------------------
    2797                    ; 1117 | ui32Int = INT_HIBERNATE_TM4C123;                                       
    2798                    ;----------------------------------------------------------------------
    2799 000002ce 203B              MOVS      A1, #59               ; [DPU_V7M3_PIPE] |1117|  ; [ORIG 16-BIT INS]
    2800 000002d0 9000              STR       A1, [SP, #0]          ; [DPU_V7M3_PIPE] |1117|  ; [ORIG 16-BIT INS]
    2801                    ;* --------------------------------------------------------------------------*
    2802 000002d2           ||$C$L14||:    
    2803                            .dwpsn  file "../driverlib/hibernate.c",line 1120,column 5,is_stmt,isa 1
    2804                    ;----------------------------------------------------------------------
    2805                    ; 1120 | return(ui32Int);                                                       
TI ARM Assembler Unix v18.1.1 Fri Jul  3 20:08:24 2020

Tools Copyright (c) 1996-2017 Texas Instruments Incorporated
hibernate.asm                                                        PAGE   52

    2806                    ;----------------------------------------------------------------------
    2807 000002d2 9800              LDR       A1, [SP, #0]          ; [DPU_V7M3_PIPE] |1120|  ; [ORIG 16-BIT INS]
    2808                            .dwpsn  file "../driverlib/hibernate.c",line 1121,column 1,is_stmt,isa 1
    2809 000002d4 B002              ADD       SP, SP, #8            ; [DPU_V7M3_PIPE]  ; [ORIG 16-BIT INS]
    2810                            .dwcfi  cfa_offset, 0
    2811                    $C$DW$123       .dwtag  DW_TAG_TI_branch
    2812                            .dwattr $C$DW$123, DW_AT_low_pc(0x00)
    2813                            .dwattr $C$DW$123, DW_AT_TI_return
    2814                    
    2815 000002d6 4770              BX        LR                    ; [DPU_V7M3_PIPE]  ; [ORIG 16-BIT INS]
    2816                            ; BRANCH OCCURS                  ; [] 
    2817                            .dwattr $C$DW$121, DW_AT_TI_end_file("../driverlib/hibernate.c")
    2818                            .dwattr $C$DW$121, DW_AT_TI_end_line(0x461)
    2819                            .dwattr $C$DW$121, DW_AT_TI_end_column(0x01)
    2820                            .dwendentry
    2821                            .dwendtag $C$DW$121
    2822                    
    2823 000002d8                   .sect   ".text"
    2824                            .clink
    2825                            .thumbfunc HibernateIntRegister
    2826 000002d8                   .thumb
    2827                            .global HibernateIntRegister
    2828                    
    2829                    $C$DW$124       .dwtag  DW_TAG_subprogram
    2830                            .dwattr $C$DW$124, DW_AT_name("HibernateIntRegister")
    2831                            .dwattr $C$DW$124, DW_AT_low_pc(HibernateIntRegister)
    2832                            .dwattr $C$DW$124, DW_AT_high_pc(0x00)
    2833                            .dwattr $C$DW$124, DW_AT_TI_symbol_name("HibernateIntRegister")
    2834                            .dwattr $C$DW$124, DW_AT_external
    2835                            .dwattr $C$DW$124, DW_AT_TI_begin_file("../driverlib/hibernate.c")
    2836                            .dwattr $C$DW$124, DW_AT_TI_begin_line(0x476)
    2837                            .dwattr $C$DW$124, DW_AT_TI_begin_column(0x01)
    2838                            .dwattr $C$DW$124, DW_AT_decl_file("../driverlib/hibernate.c")
    2839                            .dwattr $C$DW$124, DW_AT_decl_line(0x476)
    2840                            .dwattr $C$DW$124, DW_AT_decl_column(0x01)
    2841                            .dwattr $C$DW$124, DW_AT_TI_max_frame_size(0x10)
    2842                            .dwpsn  file "../driverlib/hibernate.c",line 1143,column 1,is_stmt,address HibernateIntRegiste
    2843                    
    2844                            .dwfde $C$DW$CIE, HibernateIntRegister
    2845                    $C$DW$125       .dwtag  DW_TAG_formal_parameter
    2846                            .dwattr $C$DW$125, DW_AT_name("pfnHandler")
    2847                            .dwattr $C$DW$125, DW_AT_TI_symbol_name("pfnHandler")
    2848                            .dwattr $C$DW$125, DW_AT_type(*$C$DW$T$31)
    2849                            .dwattr $C$DW$125, DW_AT_location[DW_OP_reg0]
    2850                    
    2851                    ;----------------------------------------------------------------------
    2852                    ; 1142 | HibernateIntRegister(void (*pfnHandler)(void))                         
    2853                    ;----------------------------------------------------------------------
    2854                    
    2855                    ;*****************************************************************************
    2856                    ;* FUNCTION NAME: HibernateIntRegister                                       *
    2857                    ;*                                                                           *
    2858                    ;*   Regs Modified     : A1,A2,A3,A4,V9,SP,LR,SR,D0,D0_hi,D1,D1_hi,D2,D2_hi, *
    2859                    ;*                           D3,D3_hi,D4,D4_hi,D5,D5_hi,D6,D6_hi,D7,D7_hi,   *
    2860                    ;*                           FPEXC,FPSCR                                     *
TI ARM Assembler Unix v18.1.1 Fri Jul  3 20:08:24 2020

Tools Copyright (c) 1996-2017 Texas Instruments Incorporated
hibernate.asm                                                        PAGE   53

    2861                    ;*   Regs Used         : A1,A2,A3,A4,V9,SP,LR,SR,D0,D0_hi,D1,D1_hi,D2,D2_hi, *
    2862                    ;*                           D3,D3_hi,D4,D4_hi,D5,D5_hi,D6,D6_hi,D7,D7_hi,   *
    2863                    ;*                           FPEXC,FPSCR                                     *
    2864                    ;*   Local Frame Size  : 0 Args + 8 Auto + 4 Save = 12 byte                  *
    2865                    ;*****************************************************************************
    2866 000002d8           HibernateIntRegister:
    2867                    ;* --------------------------------------------------------------------------*
    2868                            .dwcfi  cfa_offset, 0
    2869 000002d8 B50E              PUSH      {A2, A3, A4, LR}      ; [DPU_V7M3_PIPE]  ; [ORIG 16-BIT INS]
    2870                            .dwcfi  cfa_offset, 16
    2871                            .dwcfi  save_reg_to_mem, 14, -4
    2872                            .dwcfi  save_reg_to_mem, 3, -8
    2873                            .dwcfi  save_reg_to_mem, 2, -12
    2874                            .dwcfi  save_reg_to_mem, 1, -16
    2875                    $C$DW$126       .dwtag  DW_TAG_variable
    2876                            .dwattr $C$DW$126, DW_AT_name("pfnHandler")
    2877                            .dwattr $C$DW$126, DW_AT_TI_symbol_name("pfnHandler")
    2878                            .dwattr $C$DW$126, DW_AT_type(*$C$DW$T$31)
    2879                            .dwattr $C$DW$126, DW_AT_location[DW_OP_breg13 0]
    2880                    
    2881                    $C$DW$127       .dwtag  DW_TAG_variable
    2882                            .dwattr $C$DW$127, DW_AT_name("ui32Int")
    2883                            .dwattr $C$DW$127, DW_AT_TI_symbol_name("ui32Int")
    2884                            .dwattr $C$DW$127, DW_AT_type(*$C$DW$T$33)
    2885                            .dwattr $C$DW$127, DW_AT_location[DW_OP_breg13 4]
    2886                    
    2887                    ;----------------------------------------------------------------------
    2888                    ; 1144 | uint32_t ui32Int;                                                      
    2889                    ; 1146 | //                                                                     
    2890                    ; 1147 | // Get the interrupt number for the Hibernate module.                  
    2891                    ; 1148 | //                                                                     
    2892                    ;----------------------------------------------------------------------
    2893 000002da 9000              STR       A1, [SP, #0]          ; [DPU_V7M3_PIPE] |1143|  ; [ORIG 16-BIT INS]
    2894                            .dwpsn  file "../driverlib/hibernate.c",line 1149,column 5,is_stmt,isa 1
    2895                    ;----------------------------------------------------------------------
    2896                    ; 1149 | ui32Int = _HibernateIntNumberGet();                                    
    2897                    ; 1151 | ASSERT(ui32Int != 0);                                                  
    2898                    ; 1153 | //                                                                     
    2899                    ; 1154 | // Register the interrupt handler.                                     
    2900                    ; 1155 | //                                                                     
    2901                    ;----------------------------------------------------------------------
    2902                    $C$DW$128       .dwtag  DW_TAG_TI_branch
    2903                            .dwattr $C$DW$128, DW_AT_low_pc(0x00)
    2904                            .dwattr $C$DW$128, DW_AT_name("_HibernateIntNumberGet")
    2905                            .dwattr $C$DW$128, DW_AT_TI_call
    2906                    
    2907 000002dc FFFEF7FF!         BL        _HibernateIntNumberGet ; [DPU_V7M3_PIPE] |1149|  ; [KEEP 32-BIT INS]
    2908                            ; CALL OCCURS {_HibernateIntNumberGet }  ; [] |1149| 
    2909 000002e0 9001              STR       A1, [SP, #4]          ; [DPU_V7M3_PIPE] |1149|  ; [ORIG 16-BIT INS]
    2910                            .dwpsn  file "../driverlib/hibernate.c",line 1156,column 5,is_stmt,isa 1
    2911                    ;----------------------------------------------------------------------
    2912                    ; 1156 | IntRegister(ui32Int, pfnHandler);                                      
    2913                    ; 1158 | //                                                                     
    2914                    ; 1159 | // Enable the hibernate module interrupt.                              
    2915                    ; 1160 | //                                                                     
TI ARM Assembler Unix v18.1.1 Fri Jul  3 20:08:24 2020

Tools Copyright (c) 1996-2017 Texas Instruments Incorporated
hibernate.asm                                                        PAGE   54

    2916                    ;----------------------------------------------------------------------
    2917 000002e2 9900              LDR       A2, [SP, #0]          ; [DPU_V7M3_PIPE] |1156|  ; [ORIG 16-BIT INS]
    2918 000002e4 9801              LDR       A1, [SP, #4]          ; [DPU_V7M3_PIPE] |1156|  ; [ORIG 16-BIT INS]
    2919                    $C$DW$129       .dwtag  DW_TAG_TI_branch
    2920                            .dwattr $C$DW$129, DW_AT_low_pc(0x00)
    2921                            .dwattr $C$DW$129, DW_AT_name("IntRegister")
    2922                            .dwattr $C$DW$129, DW_AT_TI_call
    2923                    
    2924 000002e6 FFFEF7FF!         BL        IntRegister           ; [DPU_V7M3_PIPE] |1156|  ; [KEEP 32-BIT INS]
    2925                            ; CALL OCCURS {IntRegister }     ; [] |1156| 
    2926                            .dwpsn  file "../driverlib/hibernate.c",line 1161,column 5,is_stmt,isa 1
    2927                    ;----------------------------------------------------------------------
    2928                    ; 1161 | IntEnable(ui32Int);                                                    
    2929                    ;----------------------------------------------------------------------
    2930 000002ea 9801              LDR       A1, [SP, #4]          ; [DPU_V7M3_PIPE] |1161|  ; [ORIG 16-BIT INS]
    2931                    $C$DW$130       .dwtag  DW_TAG_TI_branch
    2932                            .dwattr $C$DW$130, DW_AT_low_pc(0x00)
    2933                            .dwattr $C$DW$130, DW_AT_name("IntEnable")
    2934                            .dwattr $C$DW$130, DW_AT_TI_call
    2935                    
    2936 000002ec FFFEF7FF!         BL        IntEnable             ; [DPU_V7M3_PIPE] |1161|  ; [KEEP 32-BIT INS]
    2937                            ; CALL OCCURS {IntEnable }       ; [] |1161| 
    2938                            .dwpsn  file "../driverlib/hibernate.c",line 1162,column 1,is_stmt,isa 1
    2939                    $C$DW$131       .dwtag  DW_TAG_TI_branch
    2940                            .dwattr $C$DW$131, DW_AT_low_pc(0x00)
    2941                            .dwattr $C$DW$131, DW_AT_TI_return
    2942                    
    2943 000002f0 BD0E              POP       {A2, A3, A4, PC}      ; [DPU_V7M3_PIPE]  ; [ORIG 16-BIT INS]
    2944                            .dwcfi  cfa_offset, 0
    2945                            .dwcfi  restore_reg, 3
    2946                            .dwcfi  restore_reg, 2
    2947                            .dwcfi  restore_reg, 1
    2948                            ; BRANCH OCCURS                  ; [] 
    2949                            .dwattr $C$DW$124, DW_AT_TI_end_file("../driverlib/hibernate.c")
    2950                            .dwattr $C$DW$124, DW_AT_TI_end_line(0x48a)
    2951                            .dwattr $C$DW$124, DW_AT_TI_end_column(0x01)
    2952                            .dwendentry
    2953                            .dwendtag $C$DW$124
    2954                    
    2955                    ;******************************************************************************
    2956                    ;* CONSTANT TABLE                                                             *
    2957                    ;******************************************************************************
    2958 000002f2                   .sect   ".text"
    2959                            .align  4
    2960 000002f2 C01046C0  ||$C$CON1||:    .bits   1074774032,32
         000002f6 0000400F 
    2961 000002f8                   .sect   ".text"
    2962                            .clink
    2963                            .thumbfunc HibernateIntUnregister
    2964 000002f8                   .thumb
    2965                            .global HibernateIntUnregister
    2966                    
    2967                    $C$DW$132       .dwtag  DW_TAG_subprogram
    2968                            .dwattr $C$DW$132, DW_AT_name("HibernateIntUnregister")
    2969                            .dwattr $C$DW$132, DW_AT_low_pc(HibernateIntUnregister)
TI ARM Assembler Unix v18.1.1 Fri Jul  3 20:08:24 2020

Tools Copyright (c) 1996-2017 Texas Instruments Incorporated
hibernate.asm                                                        PAGE   55

    2970                            .dwattr $C$DW$132, DW_AT_high_pc(0x00)
    2971                            .dwattr $C$DW$132, DW_AT_TI_symbol_name("HibernateIntUnregister")
    2972                            .dwattr $C$DW$132, DW_AT_external
    2973                            .dwattr $C$DW$132, DW_AT_TI_begin_file("../driverlib/hibernate.c")
    2974                            .dwattr $C$DW$132, DW_AT_TI_begin_line(0x49b)
    2975                            .dwattr $C$DW$132, DW_AT_TI_begin_column(0x01)
    2976                            .dwattr $C$DW$132, DW_AT_decl_file("../driverlib/hibernate.c")
    2977                            .dwattr $C$DW$132, DW_AT_decl_line(0x49b)
    2978                            .dwattr $C$DW$132, DW_AT_decl_column(0x01)
    2979                            .dwattr $C$DW$132, DW_AT_TI_max_frame_size(0x08)
    2980                            .dwpsn  file "../driverlib/hibernate.c",line 1180,column 1,is_stmt,address HibernateIntUnregis
    2981                    
    2982                            .dwfde $C$DW$CIE, HibernateIntUnregister
    2983                    ;----------------------------------------------------------------------
    2984                    ; 1179 | HibernateIntUnregister(void)                                           
    2985                    ; 1181 | uint32_t ui32Int;                                                      
    2986                    ; 1183 | //                                                                     
    2987                    ; 1184 | // Get the interrupt number for the Hibernate module.                  
    2988                    ; 1185 | //                                                                     
    2989                    ;----------------------------------------------------------------------
    2990                    
    2991                    ;*****************************************************************************
    2992                    ;* FUNCTION NAME: HibernateIntUnregister                                     *
    2993                    ;*                                                                           *
    2994                    ;*   Regs Modified     : A1,A2,A3,A4,V9,SP,LR,SR,D0,D0_hi,D1,D1_hi,D2,D2_hi, *
    2995                    ;*                           D3,D3_hi,D4,D4_hi,D5,D5_hi,D6,D6_hi,D7,D7_hi,   *
    2996                    ;*                           FPEXC,FPSCR                                     *
    2997                    ;*   Regs Used         : A1,A2,A3,A4,V9,SP,LR,SR,D0,D0_hi,D1,D1_hi,D2,D2_hi, *
    2998                    ;*                           D3,D3_hi,D4,D4_hi,D5,D5_hi,D6,D6_hi,D7,D7_hi,   *
    2999                    ;*                           FPEXC,FPSCR                                     *
    3000                    ;*   Local Frame Size  : 0 Args + 4 Auto + 4 Save = 8 byte                   *
    3001                    ;*****************************************************************************
    3002 000002f8           HibernateIntUnregister:
    3003                    ;* --------------------------------------------------------------------------*
    3004                            .dwcfi  cfa_offset, 0
    3005 000002f8 B508              PUSH      {A4, LR}              ; [DPU_V7M3_PIPE]  ; [ORIG 16-BIT INS]
    3006                            .dwcfi  cfa_offset, 8
    3007                            .dwcfi  save_reg_to_mem, 14, -4
    3008                            .dwcfi  save_reg_to_mem, 3, -8
    3009                    $C$DW$133       .dwtag  DW_TAG_variable
    3010                            .dwattr $C$DW$133, DW_AT_name("ui32Int")
    3011                            .dwattr $C$DW$133, DW_AT_TI_symbol_name("ui32Int")
    3012                            .dwattr $C$DW$133, DW_AT_type(*$C$DW$T$33)
    3013                            .dwattr $C$DW$133, DW_AT_location[DW_OP_breg13 0]
    3014                    
    3015                            .dwpsn  file "../driverlib/hibernate.c",line 1186,column 5,is_stmt,isa 1
    3016                    ;----------------------------------------------------------------------
    3017                    ; 1186 | ui32Int = _HibernateIntNumberGet();                                    
    3018                    ; 1188 | ASSERT(ui32Int != 0);                                                  
    3019                    ; 1190 | //                                                                     
    3020                    ; 1191 | // Disable the hibernate interrupt.                                    
    3021                    ; 1192 | //                                                                     
    3022                    ;----------------------------------------------------------------------
    3023                    $C$DW$134       .dwtag  DW_TAG_TI_branch
    3024                            .dwattr $C$DW$134, DW_AT_low_pc(0x00)
TI ARM Assembler Unix v18.1.1 Fri Jul  3 20:08:24 2020

Tools Copyright (c) 1996-2017 Texas Instruments Incorporated
hibernate.asm                                                        PAGE   56

    3025                            .dwattr $C$DW$134, DW_AT_name("_HibernateIntNumberGet")
    3026                            .dwattr $C$DW$134, DW_AT_TI_call
    3027                    
    3028 000002fa FFFEF7FF!         BL        _HibernateIntNumberGet ; [DPU_V7M3_PIPE] |1186|  ; [KEEP 32-BIT INS]
    3029                            ; CALL OCCURS {_HibernateIntNumberGet }  ; [] |1186| 
    3030 000002fe 9000              STR       A1, [SP, #0]          ; [DPU_V7M3_PIPE] |1186|  ; [ORIG 16-BIT INS]
    3031                            .dwpsn  file "../driverlib/hibernate.c",line 1193,column 5,is_stmt,isa 1
    3032                    ;----------------------------------------------------------------------
    3033                    ; 1193 | IntDisable(ui32Int);                                                   
    3034                    ; 1195 | //                                                                     
    3035                    ; 1196 | // Unregister the interrupt handler.                                   
    3036                    ; 1197 | //                                                                     
    3037                    ;----------------------------------------------------------------------
    3038 00000300 9800              LDR       A1, [SP, #0]          ; [DPU_V7M3_PIPE] |1193|  ; [ORIG 16-BIT INS]
    3039                    $C$DW$135       .dwtag  DW_TAG_TI_branch
    3040                            .dwattr $C$DW$135, DW_AT_low_pc(0x00)
    3041                            .dwattr $C$DW$135, DW_AT_name("IntDisable")
    3042                            .dwattr $C$DW$135, DW_AT_TI_call
    3043                    
    3044 00000302 FFFEF7FF!         BL        IntDisable            ; [DPU_V7M3_PIPE] |1193|  ; [KEEP 32-BIT INS]
    3045                            ; CALL OCCURS {IntDisable }      ; [] |1193| 
    3046                            .dwpsn  file "../driverlib/hibernate.c",line 1198,column 5,is_stmt,isa 1
    3047                    ;----------------------------------------------------------------------
    3048                    ; 1198 | IntUnregister(ui32Int);                                                
    3049                    ;----------------------------------------------------------------------
    3050 00000306 9800              LDR       A1, [SP, #0]          ; [DPU_V7M3_PIPE] |1198|  ; [ORIG 16-BIT INS]
    3051                    $C$DW$136       .dwtag  DW_TAG_TI_branch
    3052                            .dwattr $C$DW$136, DW_AT_low_pc(0x00)
    3053                            .dwattr $C$DW$136, DW_AT_name("IntUnregister")
    3054                            .dwattr $C$DW$136, DW_AT_TI_call
    3055                    
    3056 00000308 FFFEF7FF!         BL        IntUnregister         ; [DPU_V7M3_PIPE] |1198|  ; [KEEP 32-BIT INS]
    3057                            ; CALL OCCURS {IntUnregister }   ; [] |1198| 
    3058                            .dwpsn  file "../driverlib/hibernate.c",line 1199,column 1,is_stmt,isa 1
    3059                    $C$DW$137       .dwtag  DW_TAG_TI_branch
    3060                            .dwattr $C$DW$137, DW_AT_low_pc(0x00)
    3061                            .dwattr $C$DW$137, DW_AT_TI_return
    3062                    
    3063 0000030c BD08              POP       {A4, PC}              ; [DPU_V7M3_PIPE]  ; [ORIG 16-BIT INS]
    3064                            .dwcfi  cfa_offset, 0
    3065                            .dwcfi  restore_reg, 3
    3066                            ; BRANCH OCCURS                  ; [] 
    3067                            .dwattr $C$DW$132, DW_AT_TI_end_file("../driverlib/hibernate.c")
    3068                            .dwattr $C$DW$132, DW_AT_TI_end_line(0x4af)
    3069                            .dwattr $C$DW$132, DW_AT_TI_end_column(0x01)
    3070                            .dwendentry
    3071                            .dwendtag $C$DW$132
    3072                    
    3073 0000030e                   .sect   ".text"
    3074                            .clink
    3075                            .thumbfunc HibernateIntStatus
    3076 0000030e                   .thumb
    3077                            .global HibernateIntStatus
    3078                    
    3079                    $C$DW$138       .dwtag  DW_TAG_subprogram
TI ARM Assembler Unix v18.1.1 Fri Jul  3 20:08:24 2020

Tools Copyright (c) 1996-2017 Texas Instruments Incorporated
hibernate.asm                                                        PAGE   57

    3080                            .dwattr $C$DW$138, DW_AT_name("HibernateIntStatus")
    3081                            .dwattr $C$DW$138, DW_AT_low_pc(HibernateIntStatus)
    3082                            .dwattr $C$DW$138, DW_AT_high_pc(0x00)
    3083                            .dwattr $C$DW$138, DW_AT_TI_symbol_name("HibernateIntStatus")
    3084                            .dwattr $C$DW$138, DW_AT_external
    3085                            .dwattr $C$DW$138, DW_AT_type(*$C$DW$T$33)
    3086                            .dwattr $C$DW$138, DW_AT_TI_begin_file("../driverlib/hibernate.c")
    3087                            .dwattr $C$DW$138, DW_AT_TI_begin_line(0x4c5)
    3088                            .dwattr $C$DW$138, DW_AT_TI_begin_column(0x01)
    3089                            .dwattr $C$DW$138, DW_AT_decl_file("../driverlib/hibernate.c")
    3090                            .dwattr $C$DW$138, DW_AT_decl_line(0x4c5)
    3091                            .dwattr $C$DW$138, DW_AT_decl_column(0x01)
    3092                            .dwattr $C$DW$138, DW_AT_TI_max_frame_size(0x08)
    3093                            .dwpsn  file "../driverlib/hibernate.c",line 1222,column 1,is_stmt,address HibernateIntStatus,
    3094                    
    3095                            .dwfde $C$DW$CIE, HibernateIntStatus
    3096                    $C$DW$139       .dwtag  DW_TAG_formal_parameter
    3097                            .dwattr $C$DW$139, DW_AT_name("bMasked")
    3098                            .dwattr $C$DW$139, DW_AT_TI_symbol_name("bMasked")
    3099                            .dwattr $C$DW$139, DW_AT_type(*$C$DW$T$131)
    3100                            .dwattr $C$DW$139, DW_AT_location[DW_OP_reg0]
    3101                    
    3102                    ;----------------------------------------------------------------------
    3103                    ; 1221 | HibernateIntStatus(bool bMasked)                                       
    3104                    ;----------------------------------------------------------------------
    3105                    
    3106                    ;*****************************************************************************
    3107                    ;* FUNCTION NAME: HibernateIntStatus                                         *
    3108                    ;*                                                                           *
    3109                    ;*   Regs Modified     : A1,SP,SR                                            *
    3110                    ;*   Regs Used         : A1,SP,LR,SR                                         *
    3111                    ;*   Local Frame Size  : 0 Args + 4 Auto + 0 Save = 4 byte                   *
    3112                    ;*****************************************************************************
    3113 0000030e           HibernateIntStatus:
    3114                    ;* --------------------------------------------------------------------------*
    3115                            .dwcfi  cfa_offset, 0
    3116 0000030e 0D08F1AD          SUB       SP, SP, #8            ; [DPU_V7M3_PIPE]  ; [KEEP 32-BIT INS]
    3117                            .dwcfi  cfa_offset, 8
    3118                    $C$DW$140       .dwtag  DW_TAG_variable
    3119                            .dwattr $C$DW$140, DW_AT_name("bMasked")
    3120                            .dwattr $C$DW$140, DW_AT_TI_symbol_name("bMasked")
    3121                            .dwattr $C$DW$140, DW_AT_type(*$C$DW$T$131)
    3122                            .dwattr $C$DW$140, DW_AT_location[DW_OP_breg13 0]
    3123                    
    3124                    ;----------------------------------------------------------------------
    3125                    ; 1223 | //                                                                     
    3126                    ; 1224 | // Read and return the Hibernation module raw or masked interrupt statu
    3127                    ;     | s.                                                                     
    3128                    ; 1225 | //                                                                     
    3129                    ;----------------------------------------------------------------------
    3130 00000312 0000F88D          STRB      A1, [SP, #0]          ; [DPU_V7M3_PIPE] |1222|  ; [KEEP 32-BIT INS]
    3131                            .dwpsn  file "../driverlib/hibernate.c",line 1226,column 5,is_stmt,isa 1
    3132                    ;----------------------------------------------------------------------
    3133                    ; 1226 | if(bMasked == true)                                                    
    3134                    ;----------------------------------------------------------------------
TI ARM Assembler Unix v18.1.1 Fri Jul  3 20:08:24 2020

Tools Copyright (c) 1996-2017 Texas Instruments Incorporated
hibernate.asm                                                        PAGE   58

    3135 00000316 0000F89D          LDRB      A1, [SP, #0]          ; [DPU_V7M3_PIPE] |1226|  ; [KEEP 32-BIT INS]
    3136 0000031a 2801              CMP       A1, #1                ; [DPU_V7M3_PIPE] |1226|  ; [ORIG 16-BIT INS]
    3137 0000031c D102              BNE       ||$C$L15||            ; [DPU_V7M3_PIPE] |1226|  ; [ORIG 16-BIT INS]
    3138                            ; BRANCHCC OCCURS {||$C$L15||}   ; [] |1226| 
    3139                    ;* --------------------------------------------------------------------------*
    3140                            .dwpsn  file "../driverlib/hibernate.c",line 1228,column 9,is_stmt,isa 1
    3141                    ;----------------------------------------------------------------------
    3142                    ; 1228 | return(HWREG(HIB_MIS));                                                
    3143                    ; 1230 | else                                                                   
    3144                    ;----------------------------------------------------------------------
    3145 0000031e 48A7              LDR       A1, $C$CON17          ; [DPU_V7M3_PIPE] |1228|  ; [ORIG 16-BIT INS]
    3146 00000320 6800              LDR       A1, [A1, #0]          ; [DPU_V7M3_PIPE] |1228|  ; [ORIG 16-BIT INS]
    3147 00000322 E001              B         ||$C$L16||            ; [DPU_V7M3_PIPE] |1228|  ; [ORIG 16-BIT INS]
    3148                            ; BRANCH OCCURS {||$C$L16||}     ; [] |1228| 
    3149                    ;* --------------------------------------------------------------------------*
    3150                    ;* --------------------------------------------------------------------------*
    3151 00000324           ||$C$L15||:    
    3152                            .dwpsn  file "../driverlib/hibernate.c",line 1232,column 9,is_stmt,isa 1
    3153                    ;----------------------------------------------------------------------
    3154                    ; 1232 | return(HWREG(HIB_RIS));                                                
    3155                    ;----------------------------------------------------------------------
    3156 00000324 48A6              LDR       A1, $C$CON18          ; [DPU_V7M3_PIPE] |1232|  ; [ORIG 16-BIT INS]
    3157 00000326 6800              LDR       A1, [A1, #0]          ; [DPU_V7M3_PIPE] |1232|  ; [ORIG 16-BIT INS]
    3158                    ;* --------------------------------------------------------------------------*
    3159 00000328           ||$C$L16||:    
    3160                            .dwpsn  file "../driverlib/hibernate.c",line 1234,column 1,is_stmt,isa 1
    3161 00000328 B002              ADD       SP, SP, #8            ; [DPU_V7M3_PIPE]  ; [ORIG 16-BIT INS]
    3162                            .dwcfi  cfa_offset, 0
    3163                    $C$DW$141       .dwtag  DW_TAG_TI_branch
    3164                            .dwattr $C$DW$141, DW_AT_low_pc(0x00)
    3165                            .dwattr $C$DW$141, DW_AT_TI_return
    3166                    
    3167 0000032a 4770              BX        LR                    ; [DPU_V7M3_PIPE]  ; [ORIG 16-BIT INS]
    3168                            ; BRANCH OCCURS                  ; [] 
    3169                            .dwattr $C$DW$138, DW_AT_TI_end_file("../driverlib/hibernate.c")
    3170                            .dwattr $C$DW$138, DW_AT_TI_end_line(0x4d2)
    3171                            .dwattr $C$DW$138, DW_AT_TI_end_column(0x01)
    3172                            .dwendentry
    3173                            .dwendtag $C$DW$138
    3174                    
    3175 0000032c                   .sect   ".text"
    3176                            .clink
    3177                            .thumbfunc HibernateIntClear
    3178 0000032c                   .thumb
    3179                            .global HibernateIntClear
    3180                    
    3181                    $C$DW$142       .dwtag  DW_TAG_subprogram
    3182                            .dwattr $C$DW$142, DW_AT_name("HibernateIntClear")
    3183                            .dwattr $C$DW$142, DW_AT_low_pc(HibernateIntClear)
    3184                            .dwattr $C$DW$142, DW_AT_high_pc(0x00)
    3185                            .dwattr $C$DW$142, DW_AT_TI_symbol_name("HibernateIntClear")
    3186                            .dwattr $C$DW$142, DW_AT_external
    3187                            .dwattr $C$DW$142, DW_AT_TI_begin_file("../driverlib/hibernate.c")
    3188                            .dwattr $C$DW$142, DW_AT_TI_begin_line(0x4ee)
    3189                            .dwattr $C$DW$142, DW_AT_TI_begin_column(0x01)
TI ARM Assembler Unix v18.1.1 Fri Jul  3 20:08:24 2020

Tools Copyright (c) 1996-2017 Texas Instruments Incorporated
hibernate.asm                                                        PAGE   59

    3190                            .dwattr $C$DW$142, DW_AT_decl_file("../driverlib/hibernate.c")
    3191                            .dwattr $C$DW$142, DW_AT_decl_line(0x4ee)
    3192                            .dwattr $C$DW$142, DW_AT_decl_column(0x01)
    3193                            .dwattr $C$DW$142, DW_AT_TI_max_frame_size(0x08)
    3194                            .dwpsn  file "../driverlib/hibernate.c",line 1263,column 1,is_stmt,address HibernateIntClear,i
    3195                    
    3196                            .dwfde $C$DW$CIE, HibernateIntClear
    3197                    $C$DW$143       .dwtag  DW_TAG_formal_parameter
    3198                            .dwattr $C$DW$143, DW_AT_name("ui32IntFlags")
    3199                            .dwattr $C$DW$143, DW_AT_TI_symbol_name("ui32IntFlags")
    3200                            .dwattr $C$DW$143, DW_AT_type(*$C$DW$T$33)
    3201                            .dwattr $C$DW$143, DW_AT_location[DW_OP_reg0]
    3202                    
    3203                    ;----------------------------------------------------------------------
    3204                    ; 1262 | HibernateIntClear(uint32_t ui32IntFlags)                               
    3205                    ;----------------------------------------------------------------------
    3206                    
    3207                    ;*****************************************************************************
    3208                    ;* FUNCTION NAME: HibernateIntClear                                          *
    3209                    ;*                                                                           *
    3210                    ;*   Regs Modified     : A1,A2,A3,A4,SP,LR,SR,FPEXC,FPSCR                    *
    3211                    ;*   Regs Used         : A1,A2,A3,A4,SP,LR,SR,FPEXC,FPSCR                    *
    3212                    ;*   Local Frame Size  : 0 Args + 4 Auto + 4 Save = 8 byte                   *
    3213                    ;*****************************************************************************
    3214 0000032c           HibernateIntClear:
    3215                    ;* --------------------------------------------------------------------------*
    3216                            .dwcfi  cfa_offset, 0
    3217 0000032c B508              PUSH      {A4, LR}              ; [DPU_V7M3_PIPE]  ; [ORIG 16-BIT INS]
    3218                            .dwcfi  cfa_offset, 8
    3219                            .dwcfi  save_reg_to_mem, 14, -4
    3220                            .dwcfi  save_reg_to_mem, 3, -8
    3221                    $C$DW$144       .dwtag  DW_TAG_variable
    3222                            .dwattr $C$DW$144, DW_AT_name("ui32IntFlags")
    3223                            .dwattr $C$DW$144, DW_AT_TI_symbol_name("ui32IntFlags")
    3224                            .dwattr $C$DW$144, DW_AT_type(*$C$DW$T$33)
    3225                            .dwattr $C$DW$144, DW_AT_location[DW_OP_breg13 0]
    3226                    
    3227                    ;----------------------------------------------------------------------
    3228                    ; 1264 | //                                                                     
    3229                    ; 1265 | // Check the arguments.                                                
    3230                    ; 1266 | //                                                                     
    3231                    ; 1267 | ASSERT(!(ui32IntFlags & ~(HIBERNATE_INT_PIN_WAKE | HIBERNATE_INT_LOW_BA
    3232                    ;     | T |                                                                    
    3233                    ; 1268 |                           HIBERNATE_INT_VDDFAIL |                      
    3234                    ; 1269 |                           HIBERNATE_INT_RESET_WAKE |                   
    3235                    ; 1270 |                           HIBERNATE_INT_GPIO_WAKE |                    
    3236                    ; 1271 |                           HIBERNATE_INT_RTC_MATCH_0 |                  
    3237                    ; 1272 |                           HIBERNATE_INT_WR_COMPLETE)));                
    3238                    ; 1274 | //                                                                     
    3239                    ; 1275 | // Write the specified interrupt bits into the interrupt clear register
    3240                    ;     | .                                                                      
    3241                    ; 1276 | //                                                                     
    3242                    ;----------------------------------------------------------------------
    3243 0000032e 9000              STR       A1, [SP, #0]          ; [DPU_V7M3_PIPE] |1263|  ; [ORIG 16-BIT INS]
    3244                            .dwpsn  file "../driverlib/hibernate.c",line 1277,column 5,is_stmt,isa 1
TI ARM Assembler Unix v18.1.1 Fri Jul  3 20:08:24 2020

Tools Copyright (c) 1996-2017 Texas Instruments Incorporated
hibernate.asm                                                        PAGE   60

    3245                    ;----------------------------------------------------------------------
    3246                    ; 1277 | HWREG(HIB_IC) |= ui32IntFlags;                                         
    3247                    ; 1279 | //                                                                     
    3248                    ; 1280 | // Wait for write completion                                           
    3249                    ; 1281 | //                                                                     
    3250                    ;----------------------------------------------------------------------
    3251 00000330 49A4              LDR       A2, $C$CON19          ; [DPU_V7M3_PIPE] |1277|  ; [ORIG 16-BIT INS]
    3252 00000332 9800              LDR       A1, [SP, #0]          ; [DPU_V7M3_PIPE] |1277|  ; [ORIG 16-BIT INS]
    3253 00000334 680A              LDR       A3, [A2, #0]          ; [DPU_V7M3_PIPE] |1277|  ; [ORIG 16-BIT INS]
    3254 00000336 4310              ORRS      A1, A1, A3            ; [DPU_V7M3_PIPE] |1277|  ; [ORIG 16-BIT INS]
    3255 00000338 6008              STR       A1, [A2, #0]          ; [DPU_V7M3_PIPE] |1277|  ; [ORIG 16-BIT INS]
    3256                            .dwpsn  file "../driverlib/hibernate.c",line 1282,column 5,is_stmt,isa 1
    3257                    ;----------------------------------------------------------------------
    3258                    ; 1282 | _HibernateWriteComplete();                                             
    3259                    ;----------------------------------------------------------------------
    3260                    $C$DW$145       .dwtag  DW_TAG_TI_branch
    3261                            .dwattr $C$DW$145, DW_AT_low_pc(0x00)
    3262                            .dwattr $C$DW$145, DW_AT_name("_HibernateWriteComplete")
    3263                            .dwattr $C$DW$145, DW_AT_TI_call
    3264                    
    3265 0000033a FFFEF7FF!         BL        _HibernateWriteComplete ; [DPU_V7M3_PIPE] |1282|  ; [KEEP 32-BIT INS]
    3266                            ; CALL OCCURS {_HibernateWriteComplete }  ; [] |1282| 
    3267                            .dwpsn  file "../driverlib/hibernate.c",line 1283,column 1,is_stmt,isa 1
    3268                    $C$DW$146       .dwtag  DW_TAG_TI_branch
    3269                            .dwattr $C$DW$146, DW_AT_low_pc(0x00)
    3270                            .dwattr $C$DW$146, DW_AT_TI_return
    3271                    
    3272 0000033e BD08              POP       {A4, PC}              ; [DPU_V7M3_PIPE]  ; [ORIG 16-BIT INS]
    3273                            .dwcfi  cfa_offset, 0
    3274                            .dwcfi  restore_reg, 3
    3275                            ; BRANCH OCCURS                  ; [] 
    3276                            .dwattr $C$DW$142, DW_AT_TI_end_file("../driverlib/hibernate.c")
    3277                            .dwattr $C$DW$142, DW_AT_TI_end_line(0x503)
    3278                            .dwattr $C$DW$142, DW_AT_TI_end_column(0x01)
    3279                            .dwendentry
    3280                            .dwendtag $C$DW$142
    3281                    
    3282 00000340                   .sect   ".text"
    3283                            .clink
    3284                            .thumbfunc HibernateIsActive
    3285 00000340                   .thumb
    3286                            .global HibernateIsActive
    3287                    
    3288                    $C$DW$147       .dwtag  DW_TAG_subprogram
    3289                            .dwattr $C$DW$147, DW_AT_name("HibernateIsActive")
    3290                            .dwattr $C$DW$147, DW_AT_low_pc(HibernateIsActive)
    3291                            .dwattr $C$DW$147, DW_AT_high_pc(0x00)
    3292                            .dwattr $C$DW$147, DW_AT_TI_symbol_name("HibernateIsActive")
    3293                            .dwattr $C$DW$147, DW_AT_external
    3294                            .dwattr $C$DW$147, DW_AT_type(*$C$DW$T$33)
    3295                            .dwattr $C$DW$147, DW_AT_TI_begin_file("../driverlib/hibernate.c")
    3296                            .dwattr $C$DW$147, DW_AT_TI_begin_line(0x51b)
    3297                            .dwattr $C$DW$147, DW_AT_TI_begin_column(0x01)
    3298                            .dwattr $C$DW$147, DW_AT_decl_file("../driverlib/hibernate.c")
    3299                            .dwattr $C$DW$147, DW_AT_decl_line(0x51b)
TI ARM Assembler Unix v18.1.1 Fri Jul  3 20:08:24 2020

Tools Copyright (c) 1996-2017 Texas Instruments Incorporated
hibernate.asm                                                        PAGE   61

    3300                            .dwattr $C$DW$147, DW_AT_decl_column(0x01)
    3301                            .dwattr $C$DW$147, DW_AT_TI_max_frame_size(0x00)
    3302                            .dwpsn  file "../driverlib/hibernate.c",line 1308,column 1,is_stmt,address HibernateIsActive,i
    3303                    
    3304                            .dwfde $C$DW$CIE, HibernateIsActive
    3305                    ;----------------------------------------------------------------------
    3306                    ; 1307 | HibernateIsActive(void)                                                
    3307                    ; 1309 | //                                                                     
    3308                    ; 1310 | // Read the control register, and return true if the module is enabled.
    3309                    ; 1311 | //                                                                     
    3310                    ;----------------------------------------------------------------------
    3311                    
    3312                    ;*****************************************************************************
    3313                    ;* FUNCTION NAME: HibernateIsActive                                          *
    3314                    ;*                                                                           *
    3315                    ;*   Regs Modified     : A1,SR                                               *
    3316                    ;*   Regs Used         : A1,LR,SR                                            *
    3317                    ;*   Local Frame Size  : 0 Args + 0 Auto + 0 Save = 0 byte                   *
    3318                    ;*****************************************************************************
    3319 00000340           HibernateIsActive:
    3320                    ;* --------------------------------------------------------------------------*
    3321                            .dwcfi  cfa_offset, 0
    3322                            .dwpsn  file "../driverlib/hibernate.c",line 1312,column 5,is_stmt,isa 1
    3323                    ;----------------------------------------------------------------------
    3324                    ; 1312 | return(HWREG(HIB_CTL) & HIB_CTL_CLK32EN ? 1 : 0);                      
    3325                    ;----------------------------------------------------------------------
    3326 00000340 48A1              LDR       A1, $C$CON20          ; [DPU_V7M3_PIPE] |1312|  ; [ORIG 16-BIT INS]
    3327 00000342 6800              LDR       A1, [A1, #0]          ; [DPU_V7M3_PIPE] |1312|  ; [ORIG 16-BIT INS]
    3328 00000344 09C0              LSRS      A1, A1, #7            ; [DPU_V7M3_PIPE] |1312|  ; [ORIG 16-BIT INS]
    3329 00000346 D301              BCC       ||$C$L17||            ; [DPU_V7M3_PIPE] |1312|  ; [ORIG 16-BIT INS]
    3330                            ; BRANCHCC OCCURS {||$C$L17||}   ; [] |1312| 
    3331                    ;* --------------------------------------------------------------------------*
    3332 00000348 2001              MOVS      A1, #1                ; [DPU_V7M3_PIPE] |1312|  ; [ORIG 16-BIT INS]
    3333 0000034a E000              B         ||$C$L18||            ; [DPU_V7M3_PIPE] |1312|  ; [ORIG 16-BIT INS]
    3334                            ; BRANCH OCCURS {||$C$L18||}     ; [] |1312| 
    3335                    ;* --------------------------------------------------------------------------*
    3336 0000034c           ||$C$L17||:    
    3337 0000034c 2000              MOVS      A1, #0                ; [DPU_V7M3_PIPE] |1312|  ; [ORIG 16-BIT INS]
    3338                    ;* --------------------------------------------------------------------------*
    3339 0000034e           ||$C$L18||:    
    3340                            .dwpsn  file "../driverlib/hibernate.c",line 1313,column 1,is_stmt,isa 1
    3341                    $C$DW$148       .dwtag  DW_TAG_TI_branch
    3342                            .dwattr $C$DW$148, DW_AT_low_pc(0x00)
    3343                            .dwattr $C$DW$148, DW_AT_TI_return
    3344                    
    3345 0000034e 4770              BX        LR                    ; [DPU_V7M3_PIPE]  ; [ORIG 16-BIT INS]
    3346                            ; BRANCH OCCURS                  ; [] 
    3347                            .dwattr $C$DW$147, DW_AT_TI_end_file("../driverlib/hibernate.c")
    3348                            .dwattr $C$DW$147, DW_AT_TI_end_line(0x521)
    3349                            .dwattr $C$DW$147, DW_AT_TI_end_column(0x01)
    3350                            .dwendentry
    3351                            .dwendtag $C$DW$147
    3352                    
    3353 00000350                   .sect   ".text"
    3354                            .clink
TI ARM Assembler Unix v18.1.1 Fri Jul  3 20:08:24 2020

Tools Copyright (c) 1996-2017 Texas Instruments Incorporated
hibernate.asm                                                        PAGE   62

    3355                            .thumbfunc HibernateGPIORetentionEnable
    3356 00000350                   .thumb
    3357                            .global HibernateGPIORetentionEnable
    3358                    
    3359                    $C$DW$149       .dwtag  DW_TAG_subprogram
    3360                            .dwattr $C$DW$149, DW_AT_name("HibernateGPIORetentionEnable")
    3361                            .dwattr $C$DW$149, DW_AT_low_pc(HibernateGPIORetentionEnable)
    3362                            .dwattr $C$DW$149, DW_AT_high_pc(0x00)
    3363                            .dwattr $C$DW$149, DW_AT_TI_symbol_name("HibernateGPIORetentionEnable")
    3364                            .dwattr $C$DW$149, DW_AT_external
    3365                            .dwattr $C$DW$149, DW_AT_TI_begin_file("../driverlib/hibernate.c")
    3366                            .dwattr $C$DW$149, DW_AT_TI_begin_line(0x537)
    3367                            .dwattr $C$DW$149, DW_AT_TI_begin_column(0x01)
    3368                            .dwattr $C$DW$149, DW_AT_decl_file("../driverlib/hibernate.c")
    3369                            .dwattr $C$DW$149, DW_AT_decl_line(0x537)
    3370                            .dwattr $C$DW$149, DW_AT_decl_column(0x01)
    3371                            .dwattr $C$DW$149, DW_AT_TI_max_frame_size(0x08)
    3372                            .dwpsn  file "../driverlib/hibernate.c",line 1336,column 1,is_stmt,address HibernateGPIORetent
    3373                    
    3374                            .dwfde $C$DW$CIE, HibernateGPIORetentionEnable
    3375                    ;----------------------------------------------------------------------
    3376                    ; 1335 | HibernateGPIORetentionEnable(void)                                     
    3377                    ; 1337 | //                                                                     
    3378                    ; 1338 | // Enable power to the pads and enable GPIO retention during hibernate.
    3379                    ; 1339 | //                                                                     
    3380                    ;----------------------------------------------------------------------
    3381                    
    3382                    ;*****************************************************************************
    3383                    ;* FUNCTION NAME: HibernateGPIORetentionEnable                               *
    3384                    ;*                                                                           *
    3385                    ;*   Regs Modified     : A1,A2,A3,A4,SP,LR,SR,FPEXC,FPSCR                    *
    3386                    ;*   Regs Used         : A1,A2,A3,A4,SP,LR,SR,FPEXC,FPSCR                    *
    3387                    ;*   Local Frame Size  : 0 Args + 0 Auto + 4 Save = 4 byte                   *
    3388                    ;*****************************************************************************
    3389 00000350           HibernateGPIORetentionEnable:
    3390                    ;* --------------------------------------------------------------------------*
    3391                            .dwcfi  cfa_offset, 0
    3392 00000350 B508              PUSH      {A4, LR}              ; [DPU_V7M3_PIPE]  ; [ORIG 16-BIT INS]
    3393                            .dwcfi  cfa_offset, 8
    3394                            .dwcfi  save_reg_to_mem, 14, -4
    3395                            .dwcfi  save_reg_to_mem, 3, -8
    3396                            .dwpsn  file "../driverlib/hibernate.c",line 1340,column 5,is_stmt,isa 1
    3397                    ;----------------------------------------------------------------------
    3398                    ; 1340 | HWREG(HIB_CTL) |= HIB_CTL_VDD3ON | HIB_CTL_RETCLR;                     
    3399                    ; 1342 | //                                                                     
    3400                    ; 1343 | // Wait for write completion                                           
    3401                    ; 1344 | //                                                                     
    3402                    ;----------------------------------------------------------------------
    3403 00000352 499D              LDR       A2, $C$CON20          ; [DPU_V7M3_PIPE] |1340|  ; [ORIG 16-BIT INS]
    3404 00000354 489D              LDR       A1, $C$CON21          ; [DPU_V7M3_PIPE] |1340|  ; [ORIG 16-BIT INS]
    3405 00000356 680A              LDR       A3, [A2, #0]          ; [DPU_V7M3_PIPE] |1340|  ; [ORIG 16-BIT INS]
    3406 00000358 4310              ORRS      A1, A1, A3            ; [DPU_V7M3_PIPE] |1340|  ; [ORIG 16-BIT INS]
    3407 0000035a 6008              STR       A1, [A2, #0]          ; [DPU_V7M3_PIPE] |1340|  ; [ORIG 16-BIT INS]
    3408                            .dwpsn  file "../driverlib/hibernate.c",line 1345,column 5,is_stmt,isa 1
    3409                    ;----------------------------------------------------------------------
TI ARM Assembler Unix v18.1.1 Fri Jul  3 20:08:24 2020

Tools Copyright (c) 1996-2017 Texas Instruments Incorporated
hibernate.asm                                                        PAGE   63

    3410                    ; 1345 | _HibernateWriteComplete();                                             
    3411                    ;----------------------------------------------------------------------
    3412                    $C$DW$150       .dwtag  DW_TAG_TI_branch
    3413                            .dwattr $C$DW$150, DW_AT_low_pc(0x00)
    3414                            .dwattr $C$DW$150, DW_AT_name("_HibernateWriteComplete")
    3415                            .dwattr $C$DW$150, DW_AT_TI_call
    3416                    
    3417 0000035c FFFEF7FF!         BL        _HibernateWriteComplete ; [DPU_V7M3_PIPE] |1345|  ; [KEEP 32-BIT INS]
    3418                            ; CALL OCCURS {_HibernateWriteComplete }  ; [] |1345| 
    3419                            .dwpsn  file "../driverlib/hibernate.c",line 1346,column 1,is_stmt,isa 1
    3420                    $C$DW$151       .dwtag  DW_TAG_TI_branch
    3421                            .dwattr $C$DW$151, DW_AT_low_pc(0x00)
    3422                            .dwattr $C$DW$151, DW_AT_TI_return
    3423                    
    3424 00000360 BD08              POP       {A4, PC}              ; [DPU_V7M3_PIPE]  ; [ORIG 16-BIT INS]
    3425                            .dwcfi  cfa_offset, 0
    3426                            .dwcfi  restore_reg, 3
    3427                            ; BRANCH OCCURS                  ; [] 
    3428                            .dwattr $C$DW$149, DW_AT_TI_end_file("../driverlib/hibernate.c")
    3429                            .dwattr $C$DW$149, DW_AT_TI_end_line(0x542)
    3430                            .dwattr $C$DW$149, DW_AT_TI_end_column(0x01)
    3431                            .dwendentry
    3432                            .dwendtag $C$DW$149
    3433                    
    3434                    ;******************************************************************************
    3435                    ;* CONSTANT TABLE                                                             *
    3436                    ;******************************************************************************
    3437 00000362                   .sect   ".text"
    3438                            .align  4
    3439 00000362 000046C0  ||$C$CON2||:    .bits   1895759872,32
         00000366 000070FF 
    3440                            .align  4
    3441 00000366 E00070FF  ||$C$CON3||:    .bits   1074782208,32
         0000036a 0000400F 
    3442                            .align  4
    3443 0000036a 0000400F  ||$C$CON4||:    .bits   269090816,32
         0000036e 0000100A 
    3444 00000370                   .sect   ".text"
    3445                            .clink
    3446                            .thumbfunc HibernateGPIORetentionDisable
    3447 00000370                   .thumb
    3448                            .global HibernateGPIORetentionDisable
    3449                    
    3450                    $C$DW$152       .dwtag  DW_TAG_subprogram
    3451                            .dwattr $C$DW$152, DW_AT_name("HibernateGPIORetentionDisable")
    3452                            .dwattr $C$DW$152, DW_AT_low_pc(HibernateGPIORetentionDisable)
    3453                            .dwattr $C$DW$152, DW_AT_high_pc(0x00)
    3454                            .dwattr $C$DW$152, DW_AT_TI_symbol_name("HibernateGPIORetentionDisable")
    3455                            .dwattr $C$DW$152, DW_AT_external
    3456                            .dwattr $C$DW$152, DW_AT_TI_begin_file("../driverlib/hibernate.c")
    3457                            .dwattr $C$DW$152, DW_AT_TI_begin_line(0x556)
    3458                            .dwattr $C$DW$152, DW_AT_TI_begin_column(0x01)
    3459                            .dwattr $C$DW$152, DW_AT_decl_file("../driverlib/hibernate.c")
    3460                            .dwattr $C$DW$152, DW_AT_decl_line(0x556)
    3461                            .dwattr $C$DW$152, DW_AT_decl_column(0x01)
TI ARM Assembler Unix v18.1.1 Fri Jul  3 20:08:24 2020

Tools Copyright (c) 1996-2017 Texas Instruments Incorporated
hibernate.asm                                                        PAGE   64

    3462                            .dwattr $C$DW$152, DW_AT_TI_max_frame_size(0x08)
    3463                            .dwpsn  file "../driverlib/hibernate.c",line 1367,column 1,is_stmt,address HibernateGPIORetent
    3464                    
    3465                            .dwfde $C$DW$CIE, HibernateGPIORetentionDisable
    3466                    ;----------------------------------------------------------------------
    3467                    ; 1366 | HibernateGPIORetentionDisable(void)                                    
    3468                    ; 1368 | //                                                                     
    3469                    ; 1369 | // Reset the GPIO configuration after waking from hibernate and disable
    3470                    ; 1370 | // the hibernate power to the pads.                                    
    3471                    ; 1371 | //                                                                     
    3472                    ;----------------------------------------------------------------------
    3473                    
    3474                    ;*****************************************************************************
    3475                    ;* FUNCTION NAME: HibernateGPIORetentionDisable                              *
    3476                    ;*                                                                           *
    3477                    ;*   Regs Modified     : A1,A2,A3,A4,SP,LR,SR,FPEXC,FPSCR                    *
    3478                    ;*   Regs Used         : A1,A2,A3,A4,SP,LR,SR,FPEXC,FPSCR                    *
    3479                    ;*   Local Frame Size  : 0 Args + 0 Auto + 4 Save = 4 byte                   *
    3480                    ;*****************************************************************************
    3481 00000370           HibernateGPIORetentionDisable:
    3482                    ;* --------------------------------------------------------------------------*
    3483                            .dwcfi  cfa_offset, 0
    3484 00000370 B508              PUSH      {A4, LR}              ; [DPU_V7M3_PIPE]  ; [ORIG 16-BIT INS]
    3485                            .dwcfi  cfa_offset, 8
    3486                            .dwcfi  save_reg_to_mem, 14, -4
    3487                            .dwcfi  save_reg_to_mem, 3, -8
    3488                            .dwpsn  file "../driverlib/hibernate.c",line 1372,column 5,is_stmt,isa 1
    3489                    ;----------------------------------------------------------------------
    3490                    ; 1372 | HWREG(HIB_CTL) &= ~(HIB_CTL_RETCLR | HIB_CTL_VDD3ON);                  
    3491                    ; 1374 | //                                                                     
    3492                    ; 1375 | // Wait for write completion                                           
    3493                    ; 1376 | //                                                                     
    3494                    ;----------------------------------------------------------------------
    3495 00000372 4995              LDR       A2, $C$CON20          ; [DPU_V7M3_PIPE] |1372|  ; [ORIG 16-BIT INS]
    3496 00000374 4896              LDR       A1, $C$CON22          ; [DPU_V7M3_PIPE] |1372|  ; [ORIG 16-BIT INS]
    3497 00000376 680A              LDR       A3, [A2, #0]          ; [DPU_V7M3_PIPE] |1372|  ; [ORIG 16-BIT INS]
    3498 00000378 4010              ANDS      A1, A1, A3            ; [DPU_V7M3_PIPE] |1372|  ; [ORIG 16-BIT INS]
    3499 0000037a 6008              STR       A1, [A2, #0]          ; [DPU_V7M3_PIPE] |1372|  ; [ORIG 16-BIT INS]
    3500                            .dwpsn  file "../driverlib/hibernate.c",line 1377,column 5,is_stmt,isa 1
    3501                    ;----------------------------------------------------------------------
    3502                    ; 1377 | _HibernateWriteComplete();                                             
    3503                    ;----------------------------------------------------------------------
    3504                    $C$DW$153       .dwtag  DW_TAG_TI_branch
    3505                            .dwattr $C$DW$153, DW_AT_low_pc(0x00)
    3506                            .dwattr $C$DW$153, DW_AT_name("_HibernateWriteComplete")
    3507                            .dwattr $C$DW$153, DW_AT_TI_call
    3508                    
    3509 0000037c FFFEF7FF!         BL        _HibernateWriteComplete ; [DPU_V7M3_PIPE] |1377|  ; [KEEP 32-BIT INS]
    3510                            ; CALL OCCURS {_HibernateWriteComplete }  ; [] |1377| 
    3511                            .dwpsn  file "../driverlib/hibernate.c",line 1378,column 1,is_stmt,isa 1
    3512                    $C$DW$154       .dwtag  DW_TAG_TI_branch
    3513                            .dwattr $C$DW$154, DW_AT_low_pc(0x00)
    3514                            .dwattr $C$DW$154, DW_AT_TI_return
    3515                    
    3516 00000380 BD08              POP       {A4, PC}              ; [DPU_V7M3_PIPE]  ; [ORIG 16-BIT INS]
TI ARM Assembler Unix v18.1.1 Fri Jul  3 20:08:24 2020

Tools Copyright (c) 1996-2017 Texas Instruments Incorporated
hibernate.asm                                                        PAGE   65

    3517                            .dwcfi  cfa_offset, 0
    3518                            .dwcfi  restore_reg, 3
    3519                            ; BRANCH OCCURS                  ; [] 
    3520                            .dwattr $C$DW$152, DW_AT_TI_end_file("../driverlib/hibernate.c")
    3521                            .dwattr $C$DW$152, DW_AT_TI_end_line(0x562)
    3522                            .dwattr $C$DW$152, DW_AT_TI_end_column(0x01)
    3523                            .dwendentry
    3524                            .dwendtag $C$DW$152
    3525                    
    3526                    ;******************************************************************************
    3527                    ;* CONSTANT TABLE                                                             *
    3528                    ;******************************************************************************
    3529 00000382                   .sect   ".text"
    3530                            .align  4
    3531 00000382 CFC846C0  ||$C$CON5||:    .bits   1074778056,32
         00000386 0000400F 
    3532 00000388                   .sect   ".text"
    3533                            .clink
    3534                            .thumbfunc HibernateGPIORetentionGet
    3535 00000388                   .thumb
    3536                            .global HibernateGPIORetentionGet
    3537                    
    3538                    $C$DW$155       .dwtag  DW_TAG_subprogram
    3539                            .dwattr $C$DW$155, DW_AT_name("HibernateGPIORetentionGet")
    3540                            .dwattr $C$DW$155, DW_AT_low_pc(HibernateGPIORetentionGet)
    3541                            .dwattr $C$DW$155, DW_AT_high_pc(0x00)
    3542                            .dwattr $C$DW$155, DW_AT_TI_symbol_name("HibernateGPIORetentionGet")
    3543                            .dwattr $C$DW$155, DW_AT_external
    3544                            .dwattr $C$DW$155, DW_AT_type(*$C$DW$T$131)
    3545                            .dwattr $C$DW$155, DW_AT_TI_begin_file("../driverlib/hibernate.c")
    3546                            .dwattr $C$DW$155, DW_AT_TI_begin_line(0x574)
    3547                            .dwattr $C$DW$155, DW_AT_TI_begin_column(0x01)
    3548                            .dwattr $C$DW$155, DW_AT_decl_file("../driverlib/hibernate.c")
    3549                            .dwattr $C$DW$155, DW_AT_decl_line(0x574)
    3550                            .dwattr $C$DW$155, DW_AT_decl_column(0x01)
    3551                            .dwattr $C$DW$155, DW_AT_TI_max_frame_size(0x00)
    3552                            .dwpsn  file "../driverlib/hibernate.c",line 1397,column 1,is_stmt,address HibernateGPIORetent
    3553                    
    3554                            .dwfde $C$DW$CIE, HibernateGPIORetentionGet
    3555                    ;----------------------------------------------------------------------
    3556                    ; 1396 | HibernateGPIORetentionGet(void)                                        
    3557                    ; 1398 | //                                                                     
    3558                    ; 1399 | // Read the current GPIO retention configuration.                      
    3559                    ; 1400 | //                                                                     
    3560                    ;----------------------------------------------------------------------
    3561                    
    3562                    ;*****************************************************************************
    3563                    ;* FUNCTION NAME: HibernateGPIORetentionGet                                  *
    3564                    ;*                                                                           *
    3565                    ;*   Regs Modified     : A1,A2,A3,SR                                         *
    3566                    ;*   Regs Used         : A1,A2,A3,LR,SR                                      *
    3567                    ;*   Local Frame Size  : 0 Args + 0 Auto + 0 Save = 0 byte                   *
    3568                    ;*****************************************************************************
    3569 00000388           HibernateGPIORetentionGet:
    3570                    ;* --------------------------------------------------------------------------*
TI ARM Assembler Unix v18.1.1 Fri Jul  3 20:08:24 2020

Tools Copyright (c) 1996-2017 Texas Instruments Incorporated
hibernate.asm                                                        PAGE   66

    3571                            .dwcfi  cfa_offset, 0
    3572                            .dwpsn  file "../driverlib/hibernate.c",line 1401,column 5,is_stmt,isa 1
    3573                    ;----------------------------------------------------------------------
    3574                    ; 1401 | if((HWREG(HIB_CTL) & (HIB_CTL_RETCLR | HIB_CTL_VDD3ON)) ==             
    3575                    ; 1402 |    (HIB_CTL_RETCLR | HIB_CTL_VDD3ON))                                  
    3576                    ;----------------------------------------------------------------------
    3577 00000388 498F              LDR       A2, $C$CON20          ; [DPU_V7M3_PIPE] |1401|  ; [ORIG 16-BIT INS]
    3578 0000038a 4890              LDR       A1, $C$CON21          ; [DPU_V7M3_PIPE] |1401|  ; [ORIG 16-BIT INS]
    3579 0000038c 680A              LDR       A3, [A2, #0]          ; [DPU_V7M3_PIPE] |1401|  ; [ORIG 16-BIT INS]
    3580 0000038e 498F              LDR       A2, $C$CON21          ; [DPU_V7M3_PIPE] |1401|  ; [ORIG 16-BIT INS]
    3581 00000390 4010              ANDS      A1, A1, A3            ; [DPU_V7M3_PIPE] |1401|  ; [ORIG 16-BIT INS]
    3582 00000392 4281              CMP       A2, A1                ; [DPU_V7M3_PIPE] |1401|  ; [ORIG 16-BIT INS]
    3583 00000394 D101              BNE       ||$C$L19||            ; [DPU_V7M3_PIPE] |1401|  ; [ORIG 16-BIT INS]
    3584                            ; BRANCHCC OCCURS {||$C$L19||}   ; [] |1401| 
    3585                    ;* --------------------------------------------------------------------------*
    3586                            .dwpsn  file "../driverlib/hibernate.c",line 1404,column 9,is_stmt,isa 1
    3587                    ;----------------------------------------------------------------------
    3588                    ; 1404 | return(true);                                                          
    3589                    ;----------------------------------------------------------------------
    3590 00000396 2001              MOVS      A1, #1                ; [DPU_V7M3_PIPE] |1404|  ; [ORIG 16-BIT INS]
    3591 00000398 E000              B         ||$C$L20||            ; [DPU_V7M3_PIPE] |1404|  ; [ORIG 16-BIT INS]
    3592                            ; BRANCH OCCURS {||$C$L20||}     ; [] |1404| 
    3593                    ;* --------------------------------------------------------------------------*
    3594 0000039a           ||$C$L19||:    
    3595                            .dwpsn  file "../driverlib/hibernate.c",line 1406,column 5,is_stmt,isa 1
    3596                    ;----------------------------------------------------------------------
    3597                    ; 1406 | return(false);                                                         
    3598                    ;----------------------------------------------------------------------
    3599 0000039a 2000              MOVS      A1, #0                ; [DPU_V7M3_PIPE] |1406|  ; [ORIG 16-BIT INS]
    3600                    ;* --------------------------------------------------------------------------*
    3601 0000039c           ||$C$L20||:    
    3602                            .dwpsn  file "../driverlib/hibernate.c",line 1407,column 1,is_stmt,isa 1
    3603                    $C$DW$156       .dwtag  DW_TAG_TI_branch
    3604                            .dwattr $C$DW$156, DW_AT_low_pc(0x00)
    3605                            .dwattr $C$DW$156, DW_AT_TI_return
    3606                    
    3607 0000039c 4770              BX        LR                    ; [DPU_V7M3_PIPE]  ; [ORIG 16-BIT INS]
    3608                            ; BRANCH OCCURS                  ; [] 
    3609                            .dwattr $C$DW$155, DW_AT_TI_end_file("../driverlib/hibernate.c")
    3610                            .dwattr $C$DW$155, DW_AT_TI_end_line(0x57f)
    3611                            .dwattr $C$DW$155, DW_AT_TI_end_column(0x01)
    3612                            .dwendentry
    3613                            .dwendtag $C$DW$155
    3614                    
    3615 0000039e                   .sect   ".text"
    3616                            .clink
    3617                            .thumbfunc HibernateCounterMode
    3618 0000039e                   .thumb
    3619                            .global HibernateCounterMode
    3620                    
    3621                    $C$DW$157       .dwtag  DW_TAG_subprogram
    3622                            .dwattr $C$DW$157, DW_AT_name("HibernateCounterMode")
    3623                            .dwattr $C$DW$157, DW_AT_low_pc(HibernateCounterMode)
    3624                            .dwattr $C$DW$157, DW_AT_high_pc(0x00)
    3625                            .dwattr $C$DW$157, DW_AT_TI_symbol_name("HibernateCounterMode")
TI ARM Assembler Unix v18.1.1 Fri Jul  3 20:08:24 2020

Tools Copyright (c) 1996-2017 Texas Instruments Incorporated
hibernate.asm                                                        PAGE   67

    3626                            .dwattr $C$DW$157, DW_AT_external
    3627                            .dwattr $C$DW$157, DW_AT_TI_begin_file("../driverlib/hibernate.c")
    3628                            .dwattr $C$DW$157, DW_AT_TI_begin_line(0x5a7)
    3629                            .dwattr $C$DW$157, DW_AT_TI_begin_column(0x01)
    3630                            .dwattr $C$DW$157, DW_AT_decl_file("../driverlib/hibernate.c")
    3631                            .dwattr $C$DW$157, DW_AT_decl_line(0x5a7)
    3632                            .dwattr $C$DW$157, DW_AT_decl_column(0x01)
    3633                            .dwattr $C$DW$157, DW_AT_TI_max_frame_size(0x08)
    3634                            .dwpsn  file "../driverlib/hibernate.c",line 1448,column 1,is_stmt,address HibernateCounterMod
    3635                    
    3636                            .dwfde $C$DW$CIE, HibernateCounterMode
    3637                    $C$DW$158       .dwtag  DW_TAG_formal_parameter
    3638                            .dwattr $C$DW$158, DW_AT_name("ui32Config")
    3639                            .dwattr $C$DW$158, DW_AT_TI_symbol_name("ui32Config")
    3640                            .dwattr $C$DW$158, DW_AT_type(*$C$DW$T$33)
    3641                            .dwattr $C$DW$158, DW_AT_location[DW_OP_reg0]
    3642                    
    3643                    ;----------------------------------------------------------------------
    3644                    ; 1447 | HibernateCounterMode(uint32_t ui32Config)                              
    3645                    ;----------------------------------------------------------------------
    3646                    
    3647                    ;*****************************************************************************
    3648                    ;* FUNCTION NAME: HibernateCounterMode                                       *
    3649                    ;*                                                                           *
    3650                    ;*   Regs Modified     : A1,A2,A4,SP,LR,SR,FPEXC,FPSCR                       *
    3651                    ;*   Regs Used         : A1,A2,A4,SP,LR,SR,FPEXC,FPSCR                       *
    3652                    ;*   Local Frame Size  : 0 Args + 4 Auto + 4 Save = 8 byte                   *
    3653                    ;*****************************************************************************
    3654 0000039e           HibernateCounterMode:
    3655                    ;* --------------------------------------------------------------------------*
    3656                            .dwcfi  cfa_offset, 0
    3657 0000039e B508              PUSH      {A4, LR}              ; [DPU_V7M3_PIPE]  ; [ORIG 16-BIT INS]
    3658                            .dwcfi  cfa_offset, 8
    3659                            .dwcfi  save_reg_to_mem, 14, -4
    3660                            .dwcfi  save_reg_to_mem, 3, -8
    3661                    $C$DW$159       .dwtag  DW_TAG_variable
    3662                            .dwattr $C$DW$159, DW_AT_name("ui32Config")
    3663                            .dwattr $C$DW$159, DW_AT_TI_symbol_name("ui32Config")
    3664                            .dwattr $C$DW$159, DW_AT_type(*$C$DW$T$33)
    3665                            .dwattr $C$DW$159, DW_AT_location[DW_OP_breg13 0]
    3666                    
    3667                    ;----------------------------------------------------------------------
    3668                    ; 1449 | //                                                                     
    3669                    ; 1450 | // Set the requested configuration.                                    
    3670                    ; 1451 | //                                                                     
    3671                    ;----------------------------------------------------------------------
    3672 000003a0 9000              STR       A1, [SP, #0]          ; [DPU_V7M3_PIPE] |1448|  ; [ORIG 16-BIT INS]
    3673                            .dwpsn  file "../driverlib/hibernate.c",line 1452,column 5,is_stmt,isa 1
    3674                    ;----------------------------------------------------------------------
    3675                    ; 1452 | HWREG(HIB_CALCTL) = ui32Config;                                        
    3676                    ; 1454 | //                                                                     
    3677                    ; 1455 | // Wait for write completion                                           
    3678                    ; 1456 | //                                                                     
    3679                    ;----------------------------------------------------------------------
    3680 000003a2 49B5              LDR       A2, $C$CON23          ; [DPU_V7M3_PIPE] |1452|  ; [ORIG 16-BIT INS]
TI ARM Assembler Unix v18.1.1 Fri Jul  3 20:08:24 2020

Tools Copyright (c) 1996-2017 Texas Instruments Incorporated
hibernate.asm                                                        PAGE   68

    3681 000003a4 9800              LDR       A1, [SP, #0]          ; [DPU_V7M3_PIPE] |1452|  ; [ORIG 16-BIT INS]
    3682 000003a6 6008              STR       A1, [A2, #0]          ; [DPU_V7M3_PIPE] |1452|  ; [ORIG 16-BIT INS]
    3683                            .dwpsn  file "../driverlib/hibernate.c",line 1457,column 5,is_stmt,isa 1
    3684                    ;----------------------------------------------------------------------
    3685                    ; 1457 | _HibernateWriteComplete();                                             
    3686                    ;----------------------------------------------------------------------
    3687                    $C$DW$160       .dwtag  DW_TAG_TI_branch
    3688                            .dwattr $C$DW$160, DW_AT_low_pc(0x00)
    3689                            .dwattr $C$DW$160, DW_AT_name("_HibernateWriteComplete")
    3690                            .dwattr $C$DW$160, DW_AT_TI_call
    3691                    
    3692 000003a8 FFFEF7FF!         BL        _HibernateWriteComplete ; [DPU_V7M3_PIPE] |1457|  ; [KEEP 32-BIT INS]
    3693                            ; CALL OCCURS {_HibernateWriteComplete }  ; [] |1457| 
    3694                            .dwpsn  file "../driverlib/hibernate.c",line 1458,column 1,is_stmt,isa 1
    3695                    $C$DW$161       .dwtag  DW_TAG_TI_branch
    3696                            .dwattr $C$DW$161, DW_AT_low_pc(0x00)
    3697                            .dwattr $C$DW$161, DW_AT_TI_return
    3698                    
    3699 000003ac BD08              POP       {A4, PC}              ; [DPU_V7M3_PIPE]  ; [ORIG 16-BIT INS]
    3700                            .dwcfi  cfa_offset, 0
    3701                            .dwcfi  restore_reg, 3
    3702                            ; BRANCH OCCURS                  ; [] 
    3703                            .dwattr $C$DW$157, DW_AT_TI_end_file("../driverlib/hibernate.c")
    3704                            .dwattr $C$DW$157, DW_AT_TI_end_line(0x5b2)
    3705                            .dwattr $C$DW$157, DW_AT_TI_end_column(0x01)
    3706                            .dwendentry
    3707                            .dwendtag $C$DW$157
    3708                    
    3709                    ;******************************************************************************
    3710                    ;* CONSTANT TABLE                                                             *
    3711                    ;******************************************************************************
    3712 000003ae                   .sect   ".text"
    3713                            .align  4
    3714 000003ae C02C46C0  ||$C$CON6||:    .bits   1074774060,32
         000003b2 0000400F 
    3715                            .align  4
    3716 000003b2 9F5F400F  ||$C$CON7||:    .bits   -24737,32
         000003b6 0000FFFF 
    3717                            .align  4
    3718 000003b6 C360FFFF  ||$C$CON8||:    .bits   1074774880,32
         000003ba 0000400F 
    3719                            .align  4
    3720 000003ba 9554400F  ||$C$CON9||:    .bits   -1556769452,32
         000003be 0000A335 
    3721                            .align  4
    3722 000003be C00CA335  ||$C$CON10||:   .bits   1074774028,32
         000003c2 0000400F 
    3723                            .align  4
    3724 000003c2 C000400F  ||$C$CON11||:   .bits   1074774016,32
         000003c6 0000400F 
    3725                            .align  4
    3726 000003c6 C004400F  ||$C$CON12||:   .bits   1074774020,32
         000003ca 0000400F 
    3727                            .align  4
    3728 000003ca C028400F  ||$C$CON13||:   .bits   1074774056,32
TI ARM Assembler Unix v18.1.1 Fri Jul  3 20:08:24 2020

Tools Copyright (c) 1996-2017 Texas Instruments Incorporated
hibernate.asm                                                        PAGE   69

         000003ce 0000400F 
    3729                            .align  4
    3730 000003ce C024400F  ||$C$CON14||:   .bits   1074774052,32
         000003d2 0000400F 
    3731 000003d4                   .sect   ".text"
    3732                            .clink
    3733                            .thumbfunc _HibernateCalendarSet
    3734 000003d4                   .thumb
    3735                    
    3736                    $C$DW$162       .dwtag  DW_TAG_subprogram
    3737                            .dwattr $C$DW$162, DW_AT_name("_HibernateCalendarSet")
    3738                            .dwattr $C$DW$162, DW_AT_low_pc(_HibernateCalendarSet)
    3739                            .dwattr $C$DW$162, DW_AT_high_pc(0x00)
    3740                            .dwattr $C$DW$162, DW_AT_TI_symbol_name("_HibernateCalendarSet")
    3741                            .dwattr $C$DW$162, DW_AT_TI_begin_file("../driverlib/hibernate.c")
    3742                            .dwattr $C$DW$162, DW_AT_TI_begin_line(0x5ba)
    3743                            .dwattr $C$DW$162, DW_AT_TI_begin_column(0x01)
    3744                            .dwattr $C$DW$162, DW_AT_decl_file("../driverlib/hibernate.c")
    3745                            .dwattr $C$DW$162, DW_AT_decl_line(0x5ba)
    3746                            .dwattr $C$DW$162, DW_AT_decl_column(0x01)
    3747                            .dwattr $C$DW$162, DW_AT_TI_max_frame_size(0x18)
    3748                            .dwpsn  file "../driverlib/hibernate.c",line 1467,column 1,is_stmt,address _HibernateCalendarS
    3749                    
    3750                            .dwfde $C$DW$CIE, _HibernateCalendarSet
    3751                    $C$DW$163       .dwtag  DW_TAG_formal_parameter
    3752                            .dwattr $C$DW$163, DW_AT_name("ui32Reg")
    3753                            .dwattr $C$DW$163, DW_AT_TI_symbol_name("ui32Reg")
    3754                            .dwattr $C$DW$163, DW_AT_type(*$C$DW$T$33)
    3755                            .dwattr $C$DW$163, DW_AT_location[DW_OP_reg0]
    3756                    
    3757                    $C$DW$164       .dwtag  DW_TAG_formal_parameter
    3758                            .dwattr $C$DW$164, DW_AT_name("psTime")
    3759                            .dwattr $C$DW$164, DW_AT_TI_symbol_name("psTime")
    3760                            .dwattr $C$DW$164, DW_AT_type(*$C$DW$T$42)
    3761                            .dwattr $C$DW$164, DW_AT_location[DW_OP_reg1]
    3762                    
    3763                    ;----------------------------------------------------------------------
    3764                    ; 1466 | _HibernateCalendarSet(uint32_t ui32Reg, struct tm *psTime)             
    3765                    ;----------------------------------------------------------------------
    3766                    
    3767                    ;*****************************************************************************
    3768                    ;* FUNCTION NAME: _HibernateCalendarSet                                      *
    3769                    ;*                                                                           *
    3770                    ;*   Regs Modified     : A1,A2,A3,A4,SP,LR,SR,FPEXC,FPSCR                    *
    3771                    ;*   Regs Used         : A1,A2,A3,A4,SP,LR,SR,FPEXC,FPSCR                    *
    3772                    ;*   Local Frame Size  : 0 Args + 16 Auto + 4 Save = 20 byte                 *
    3773                    ;*****************************************************************************
    3774 000003d4           _HibernateCalendarSet:
    3775                    ;* --------------------------------------------------------------------------*
    3776                            .dwcfi  cfa_offset, 0
    3777 000003d4 B500              PUSH      {LR}                  ; [DPU_V7M3_PIPE]  ; [ORIG 16-BIT INS]
    3778                            .dwcfi  cfa_offset, 4
    3779                            .dwcfi  save_reg_to_mem, 14, -4
    3780 000003d6 0D14F1AD          SUB       SP, SP, #20           ; [DPU_V7M3_PIPE]  ; [KEEP 32-BIT INS]
    3781                            .dwcfi  cfa_offset, 24
TI ARM Assembler Unix v18.1.1 Fri Jul  3 20:08:24 2020

Tools Copyright (c) 1996-2017 Texas Instruments Incorporated
hibernate.asm                                                        PAGE   70

    3782                    $C$DW$165       .dwtag  DW_TAG_variable
    3783                            .dwattr $C$DW$165, DW_AT_name("ui32Reg")
    3784                            .dwattr $C$DW$165, DW_AT_TI_symbol_name("ui32Reg")
    3785                            .dwattr $C$DW$165, DW_AT_type(*$C$DW$T$33)
    3786                            .dwattr $C$DW$165, DW_AT_location[DW_OP_breg13 0]
    3787                    
    3788                    $C$DW$166       .dwtag  DW_TAG_variable
    3789                            .dwattr $C$DW$166, DW_AT_name("psTime")
    3790                            .dwattr $C$DW$166, DW_AT_TI_symbol_name("psTime")
    3791                            .dwattr $C$DW$166, DW_AT_type(*$C$DW$T$42)
    3792                            .dwattr $C$DW$166, DW_AT_location[DW_OP_breg13 4]
    3793                    
    3794                    $C$DW$167       .dwtag  DW_TAG_variable
    3795                            .dwattr $C$DW$167, DW_AT_name("ui32Time")
    3796                            .dwattr $C$DW$167, DW_AT_TI_symbol_name("ui32Time")
    3797                            .dwattr $C$DW$167, DW_AT_type(*$C$DW$T$33)
    3798                            .dwattr $C$DW$167, DW_AT_location[DW_OP_breg13 8]
    3799                    
    3800                    $C$DW$168       .dwtag  DW_TAG_variable
    3801                            .dwattr $C$DW$168, DW_AT_name("ui32Date")
    3802                            .dwattr $C$DW$168, DW_AT_TI_symbol_name("ui32Date")
    3803                            .dwattr $C$DW$168, DW_AT_type(*$C$DW$T$33)
    3804                            .dwattr $C$DW$168, DW_AT_location[DW_OP_breg13 12]
    3805                    
    3806                    ;----------------------------------------------------------------------
    3807                    ; 1468 | uint32_t ui32Time, ui32Date;                                           
    3808                    ; 1470 | ASSERT(HWREG(HIB_CALCTL) & HIB_CALCTL_CALEN);                          
    3809                    ; 1472 | //                                                                     
    3810                    ; 1473 | // Minutes and seconds are consistent in all modes.                    
    3811                    ; 1474 | //                                                                     
    3812                    ;----------------------------------------------------------------------
    3813 000003da 9101              STR       A2, [SP, #4]          ; [DPU_V7M3_PIPE] |1467|  ; [ORIG 16-BIT INS]
    3814 000003dc 9000              STR       A1, [SP, #0]          ; [DPU_V7M3_PIPE] |1467|  ; [ORIG 16-BIT INS]
    3815                            .dwpsn  file "../driverlib/hibernate.c",line 1475,column 5,is_stmt,isa 1
    3816                    ;----------------------------------------------------------------------
    3817                    ; 1475 | ui32Time = (((psTime->tm_min << HIB_CALLD0_MIN_S) & HIB_CALLD0_MIN_M) |
    3818                    ; 1476 |             ((psTime->tm_sec << HIB_CALLD0_SEC_S) & HIB_CALLD0_SEC_M));
    3819                    ; 1478 | //                                                                     
    3820                    ; 1479 | // 24 Hour time is used directly for Calendar set.                     
    3821                    ; 1480 | //                                                                     
    3822                    ;----------------------------------------------------------------------
    3823 000003de 9801              LDR       A1, [SP, #4]          ; [DPU_V7M3_PIPE] |1475|  ; [ORIG 16-BIT INS]
    3824 000003e0 9901              LDR       A2, [SP, #4]          ; [DPU_V7M3_PIPE] |1475|  ; [ORIG 16-BIT INS]
    3825 000003e2 6840              LDR       A1, [A1, #4]          ; [DPU_V7M3_PIPE] |1475|  ; [ORIG 16-BIT INS]
    3826 000003e4 6809              LDR       A2, [A2, #0]          ; [DPU_V7M3_PIPE] |1475|  ; [ORIG 16-BIT INS]
    3827 000003e6 0200              LSLS      A1, A1, #8            ; [DPU_V7M3_PIPE] |1475|  ; [ORIG 16-BIT INS]
    3828 000003e8 013FF001          AND       A2, A2, #63           ; [DPU_V7M3_PIPE] |1475|  ; [KEEP 32-BIT INS]
    3829 000003ec 507CF400          AND       A1, A1, #16128        ; [DPU_V7M3_PIPE] |1475|  ; [KEEP 32-BIT INS]
    3830 000003f0 4301              ORRS      A2, A2, A1            ; [DPU_V7M3_PIPE] |1475|  ; [ORIG 16-BIT INS]
    3831 000003f2 9102              STR       A2, [SP, #8]          ; [DPU_V7M3_PIPE] |1475|  ; [ORIG 16-BIT INS]
    3832                            .dwpsn  file "../driverlib/hibernate.c",line 1481,column 5,is_stmt,isa 1
    3833                    ;----------------------------------------------------------------------
    3834                    ; 1481 | if(HWREG(HIB_CALCTL) & HIB_CALCTL_CAL24)                               
    3835                    ;----------------------------------------------------------------------
    3836 000003f4 48A0              LDR       A1, $C$CON23          ; [DPU_V7M3_PIPE] |1481|  ; [ORIG 16-BIT INS]
TI ARM Assembler Unix v18.1.1 Fri Jul  3 20:08:24 2020

Tools Copyright (c) 1996-2017 Texas Instruments Incorporated
hibernate.asm                                                        PAGE   71

    3837 000003f6 6800              LDR       A1, [A1, #0]          ; [DPU_V7M3_PIPE] |1481|  ; [ORIG 16-BIT INS]
    3838 000003f8 08C0              LSRS      A1, A1, #3            ; [DPU_V7M3_PIPE] |1481|  ; [ORIG 16-BIT INS]
    3839 000003fa D312              BCC       ||$C$L21||            ; [DPU_V7M3_PIPE] |1481|  ; [ORIG 16-BIT INS]
    3840                            ; BRANCHCC OCCURS {||$C$L21||}   ; [] |1481| 
    3841                    ;* --------------------------------------------------------------------------*
    3842                            .dwpsn  file "../driverlib/hibernate.c",line 1483,column 9,is_stmt,isa 1
    3843                    ;----------------------------------------------------------------------
    3844                    ; 1483 | ui32Time |= (psTime->tm_hour << HIB_CALLD0_HR_S);                      
    3845                    ; 1485 | //                                                                     
    3846                    ; 1486 | // for Calendar match, if it is every hour, AMPM bit should be clear   
    3847                    ; 1487 | //                                                                     
    3848                    ;----------------------------------------------------------------------
    3849 000003fc 9901              LDR       A2, [SP, #4]          ; [DPU_V7M3_PIPE] |1483|  ; [ORIG 16-BIT INS]
    3850 000003fe 9802              LDR       A1, [SP, #8]          ; [DPU_V7M3_PIPE] |1483|  ; [ORIG 16-BIT INS]
    3851 00000400 6889              LDR       A2, [A2, #8]          ; [DPU_V7M3_PIPE] |1483|  ; [ORIG 16-BIT INS]
    3852 00000402 4001EA40          ORR       A1, A1, A2, LSL #16   ; [DPU_V7M3_PIPE] |1483|  ; [KEEP 32-BIT INS]
    3853 00000406 9002              STR       A1, [SP, #8]          ; [DPU_V7M3_PIPE] |1483|  ; [ORIG 16-BIT INS]
    3854                            .dwpsn  file "../driverlib/hibernate.c",line 1488,column 9,is_stmt,isa 1
    3855                    ;----------------------------------------------------------------------
    3856                    ; 1488 | if((ui32Reg == HIB_CALM0) && (psTime->tm_hour == 0xFF) )               
    3857                    ; 1490 |     //                                                                 
    3858                    ; 1491 |     // clear AMPM bit                                                  
    3859                    ; 1492 |     //                                                                 
    3860                    ;----------------------------------------------------------------------
    3861 00000408 9800              LDR       A1, [SP, #0]          ; [DPU_V7M3_PIPE] |1488|  ; [ORIG 16-BIT INS]
    3862 0000040a 49BC              LDR       A2, $C$CON24          ; [DPU_V7M3_PIPE] |1488|  ; [ORIG 16-BIT INS]
    3863 0000040c 4281              CMP       A2, A1                ; [DPU_V7M3_PIPE] |1488|  ; [ORIG 16-BIT INS]
    3864 0000040e D125              BNE       ||$C$L24||            ; [DPU_V7M3_PIPE] |1488|  ; [ORIG 16-BIT INS]
    3865                            ; BRANCHCC OCCURS {||$C$L24||}   ; [] |1488| 
    3866                    ;* --------------------------------------------------------------------------*
    3867 00000410 9801              LDR       A1, [SP, #4]          ; [DPU_V7M3_PIPE] |1488|  ; [ORIG 16-BIT INS]
    3868 00000412 6880              LDR       A1, [A1, #8]          ; [DPU_V7M3_PIPE] |1488|  ; [ORIG 16-BIT INS]
    3869 00000414 28FF              CMP       A1, #255              ; [DPU_V7M3_PIPE] |1488|  ; [ORIG 16-BIT INS]
    3870 00000416 D121              BNE       ||$C$L24||            ; [DPU_V7M3_PIPE] |1488|  ; [ORIG 16-BIT INS]
    3871                            ; BRANCHCC OCCURS {||$C$L24||}   ; [] |1488| 
    3872                    ;* --------------------------------------------------------------------------*
    3873                            .dwpsn  file "../driverlib/hibernate.c",line 1493,column 13,is_stmt,isa 1
    3874                    ;----------------------------------------------------------------------
    3875                    ; 1493 | ui32Time &= ~HIB_CAL0_AMPM;                                            
    3876                    ;----------------------------------------------------------------------
    3877 00000418 9802              LDR       A1, [SP, #8]          ; [DPU_V7M3_PIPE] |1493|  ; [ORIG 16-BIT INS]
    3878 0000041a 0080F420          BIC       A1, A1, #4194304      ; [DPU_V7M3_PIPE] |1493|  ; [KEEP 32-BIT INS]
    3879 0000041e 9002              STR       A1, [SP, #8]          ; [DPU_V7M3_PIPE] |1493|  ; [ORIG 16-BIT INS]
    3880                            .dwpsn  file "../driverlib/hibernate.c",line 1495,column 5,is_stmt,isa 1
    3881                    ;----------------------------------------------------------------------
    3882                    ; 1496 | else                                                                   
    3883                    ; 1498 |     //                                                                 
    3884                    ; 1499 |     // In AM/PM time hours have to be capped at 12.                    
    3885                    ; 1500 |     // If the hours are all 1s, it means the match for the hour is     
    3886                    ; 1501 |     // always true.  We need to set 1F in the hw field.                
    3887                    ; 1502 |     //                                                                 
    3888                    ;----------------------------------------------------------------------
    3889 00000420 E01C              B         ||$C$L24||            ; [DPU_V7M3_PIPE] |1495|  ; [ORIG 16-BIT INS]
    3890                            ; BRANCH OCCURS {||$C$L24||}     ; [] |1495| 
    3891                    ;* --------------------------------------------------------------------------*
TI ARM Assembler Unix v18.1.1 Fri Jul  3 20:08:24 2020

Tools Copyright (c) 1996-2017 Texas Instruments Incorporated
hibernate.asm                                                        PAGE   72

    3892 00000422           ||$C$L21||:    
    3893                            .dwpsn  file "../driverlib/hibernate.c",line 1503,column 9,is_stmt,isa 1
    3894                    ;----------------------------------------------------------------------
    3895                    ; 1503 | if(psTime->tm_hour == 0xFF)                                            
    3896                    ; 1505 |     //                                                                 
    3897                    ; 1506 |     // Match every hour.                                               
    3898                    ; 1507 |     //                                                                 
    3899                    ;----------------------------------------------------------------------
    3900 00000422 9801              LDR       A1, [SP, #4]          ; [DPU_V7M3_PIPE] |1503|  ; [ORIG 16-BIT INS]
    3901 00000424 6880              LDR       A1, [A1, #8]          ; [DPU_V7M3_PIPE] |1503|  ; [ORIG 16-BIT INS]
    3902 00000426 28FF              CMP       A1, #255              ; [DPU_V7M3_PIPE] |1503|  ; [ORIG 16-BIT INS]
    3903 00000428 D104              BNE       ||$C$L22||            ; [DPU_V7M3_PIPE] |1503|  ; [ORIG 16-BIT INS]
    3904                            ; BRANCHCC OCCURS {||$C$L22||}   ; [] |1503| 
    3905                    ;* --------------------------------------------------------------------------*
    3906                            .dwpsn  file "../driverlib/hibernate.c",line 1508,column 13,is_stmt,isa 1
    3907                    ;----------------------------------------------------------------------
    3908                    ; 1508 | ui32Time |= HIB_CALLD0_HR_M;                                           
    3909                    ;----------------------------------------------------------------------
    3910 0000042a 9802              LDR       A1, [SP, #8]          ; [DPU_V7M3_PIPE] |1508|  ; [ORIG 16-BIT INS]
    3911 0000042c 10F8F440          ORR       A1, A1, #2031616      ; [DPU_V7M3_PIPE] |1508|  ; [KEEP 32-BIT INS]
    3912 00000430 9002              STR       A1, [SP, #8]          ; [DPU_V7M3_PIPE] |1508|  ; [ORIG 16-BIT INS]
    3913                            .dwpsn  file "../driverlib/hibernate.c",line 1509,column 9,is_stmt,isa 1
    3914 00000432 E013              B         ||$C$L24||            ; [DPU_V7M3_PIPE] |1509|  ; [ORIG 16-BIT INS]
    3915                            ; BRANCH OCCURS {||$C$L24||}     ; [] |1509| 
    3916                    ;* --------------------------------------------------------------------------*
    3917 00000434           ||$C$L22||:    
    3918                            .dwpsn  file "../driverlib/hibernate.c",line 1510,column 14,is_stmt,isa 1
    3919                    ;----------------------------------------------------------------------
    3920                    ; 1510 | else if(psTime->tm_hour >= 12)                                         
    3921                    ; 1512 |     //                                                                 
    3922                    ; 1513 |     // Need to set the PM bit if it is noon or later.                  
    3923                    ; 1514 |     //                                                                 
    3924                    ;----------------------------------------------------------------------
    3925 00000434 9801              LDR       A1, [SP, #4]          ; [DPU_V7M3_PIPE] |1510|  ; [ORIG 16-BIT INS]
    3926 00000436 6880              LDR       A1, [A1, #8]          ; [DPU_V7M3_PIPE] |1510|  ; [ORIG 16-BIT INS]
    3927 00000438 280C              CMP       A1, #12               ; [DPU_V7M3_PIPE] |1510|  ; [ORIG 16-BIT INS]
    3928 0000043a DB09              BLT       ||$C$L23||            ; [DPU_V7M3_PIPE] |1510|  ; [ORIG 16-BIT INS]
    3929                            ; BRANCHCC OCCURS {||$C$L23||}   ; [] |1510| 
    3930                    ;* --------------------------------------------------------------------------*
    3931                            .dwpsn  file "../driverlib/hibernate.c",line 1515,column 13,is_stmt,isa 1
    3932                    ;----------------------------------------------------------------------
    3933                    ; 1515 | ui32Time |= (((psTime->tm_hour - 12) << HIB_CALLD0_HR_S) |             
    3934                    ; 1516 |              HIB_CAL0_AMPM);                                           
    3935                    ;----------------------------------------------------------------------
    3936 0000043c 9801              LDR       A1, [SP, #4]          ; [DPU_V7M3_PIPE] |1515|  ; [ORIG 16-BIT INS]
    3937 0000043e 9902              LDR       A2, [SP, #8]          ; [DPU_V7M3_PIPE] |1515|  ; [ORIG 16-BIT INS]
    3938 00000440 6880              LDR       A1, [A1, #8]          ; [DPU_V7M3_PIPE] |1515|  ; [ORIG 16-BIT INS]
    3939 00000442 380C              SUBS      A1, A1, #12           ; [DPU_V7M3_PIPE] |1515|  ; [ORIG 16-BIT INS]
    3940 00000444 4100EA41          ORR       A2, A2, A1, LSL #16   ; [DPU_V7M3_PIPE] |1515|  ; [KEEP 32-BIT INS]
    3941 00000448 0180F441          ORR       A2, A2, #4194304      ; [DPU_V7M3_PIPE] |1515|  ; [KEEP 32-BIT INS]
    3942 0000044c 9102              STR       A2, [SP, #8]          ; [DPU_V7M3_PIPE] |1515|  ; [ORIG 16-BIT INS]
    3943                            .dwpsn  file "../driverlib/hibernate.c",line 1517,column 9,is_stmt,isa 1
    3944                    ;----------------------------------------------------------------------
    3945                    ; 1518 | else                                                                   
    3946                    ; 1520 |     //                                                                 
TI ARM Assembler Unix v18.1.1 Fri Jul  3 20:08:24 2020

Tools Copyright (c) 1996-2017 Texas Instruments Incorporated
hibernate.asm                                                        PAGE   73

    3947                    ; 1521 |     // All other times are normal and AM.                              
    3948                    ; 1522 |     //                                                                 
    3949                    ;----------------------------------------------------------------------
    3950 0000044e E005              B         ||$C$L24||            ; [DPU_V7M3_PIPE] |1517|  ; [ORIG 16-BIT INS]
    3951                            ; BRANCH OCCURS {||$C$L24||}     ; [] |1517| 
    3952                    ;* --------------------------------------------------------------------------*
    3953 00000450           ||$C$L23||:    
    3954                            .dwpsn  file "../driverlib/hibernate.c",line 1523,column 13,is_stmt,isa 1
    3955                    ;----------------------------------------------------------------------
    3956                    ; 1523 | ui32Time |= (psTime->tm_hour << HIB_CALLD0_HR_S);                      
    3957                    ; 1527 | //                                                                     
    3958                    ; 1528 | // Create the date in the correct register format.                     
    3959                    ; 1529 | //                                                                     
    3960                    ;----------------------------------------------------------------------
    3961 00000450 9901              LDR       A2, [SP, #4]          ; [DPU_V7M3_PIPE] |1523|  ; [ORIG 16-BIT INS]
    3962 00000452 9802              LDR       A1, [SP, #8]          ; [DPU_V7M3_PIPE] |1523|  ; [ORIG 16-BIT INS]
    3963 00000454 6889              LDR       A2, [A2, #8]          ; [DPU_V7M3_PIPE] |1523|  ; [ORIG 16-BIT INS]
    3964 00000456 4001EA40          ORR       A1, A1, A2, LSL #16   ; [DPU_V7M3_PIPE] |1523|  ; [KEEP 32-BIT INS]
    3965 0000045a 9002              STR       A1, [SP, #8]          ; [DPU_V7M3_PIPE] |1523|  ; [ORIG 16-BIT INS]
    3966                    ;* --------------------------------------------------------------------------*
    3967 0000045c           ||$C$L24||:    
    3968                            .dwpsn  file "../driverlib/hibernate.c",line 1530,column 5,is_stmt,isa 1
    3969                    ;----------------------------------------------------------------------
    3970                    ; 1530 | if(ui32Reg == HIB_CAL0)                                                
    3971                    ; 1532 |     //                                                                 
    3972                    ; 1533 |     // We must add 1 to the month, since the time structure lists      
    3973                    ; 1534 |     // the month from 0 to 11 and the HIB lists it from 1 to 12.       
    3974                    ; 1535 |     //                                                                 
    3975                    ;----------------------------------------------------------------------
    3976 0000045c 49BD              LDR       A2, $C$CON25          ; [DPU_V7M3_PIPE] |1530|  ; [ORIG 16-BIT INS]
    3977 0000045e 9800              LDR       A1, [SP, #0]          ; [DPU_V7M3_PIPE] |1530|  ; [ORIG 16-BIT INS]
    3978 00000460 4281              CMP       A2, A1                ; [DPU_V7M3_PIPE] |1530|  ; [ORIG 16-BIT INS]
    3979 00000462 D111              BNE       ||$C$L25||            ; [DPU_V7M3_PIPE] |1530|  ; [ORIG 16-BIT INS]
    3980                            ; BRANCHCC OCCURS {||$C$L25||}   ; [] |1530| 
    3981                    ;* --------------------------------------------------------------------------*
    3982                            .dwpsn  file "../driverlib/hibernate.c",line 1536,column 9,is_stmt,isa 1
    3983                    ;----------------------------------------------------------------------
    3984                    ; 1536 | ui32Date = ((psTime->tm_mday << HIB_CAL1_DOM_S) |                      
    3985                    ; 1537 |             ((psTime->tm_mon + 1) << HIB_CAL1_MON_S) |                 
    3986                    ; 1538 |             (psTime->tm_wday << HIB_CAL1_DOW_S) |                      
    3987                    ; 1539 |             ((psTime->tm_year - 100) << HIB_CAL1_YEAR_S));             
    3988                    ;----------------------------------------------------------------------
    3989 00000464 9901              LDR       A2, [SP, #4]          ; [DPU_V7M3_PIPE] |1536|  ; [ORIG 16-BIT INS]
    3990 00000466 9801              LDR       A1, [SP, #4]          ; [DPU_V7M3_PIPE] |1536|  ; [ORIG 16-BIT INS]
    3991 00000468 9A01              LDR       A3, [SP, #4]          ; [DPU_V7M3_PIPE] |1536|  ; [ORIG 16-BIT INS]
    3992 0000046a 9B01              LDR       A4, [SP, #4]          ; [DPU_V7M3_PIPE] |1536|  ; [ORIG 16-BIT INS]
    3993 0000046c 6909              LDR       A2, [A2, #16]         ; [DPU_V7M3_PIPE] |1536|  ; [ORIG 16-BIT INS]
    3994 0000046e 6940              LDR       A1, [A1, #20]         ; [DPU_V7M3_PIPE] |1536|  ; [ORIG 16-BIT INS]
    3995 00000470 68D2              LDR       A3, [A3, #12]         ; [DPU_V7M3_PIPE] |1536|  ; [ORIG 16-BIT INS]
    3996 00000472 699B              LDR       A4, [A4, #24]         ; [DPU_V7M3_PIPE] |1536|  ; [ORIG 16-BIT INS]
    3997 00000474 1C49              ADDS      A2, A2, #1            ; [DPU_V7M3_PIPE] |1536|  ; [ORIG 16-BIT INS]
    3998 00000476 3864              SUBS      A1, A1, #100          ; [DPU_V7M3_PIPE] |1536|  ; [ORIG 16-BIT INS]
    3999 00000478 2201EA42          ORR       A3, A3, A2, LSL #8    ; [DPU_V7M3_PIPE] |1536|  ; [KEEP 32-BIT INS]
    4000 0000047c 6203EA42          ORR       A3, A3, A4, LSL #24   ; [DPU_V7M3_PIPE] |1536|  ; [KEEP 32-BIT INS]
    4001 00000480 4200EA42          ORR       A3, A3, A1, LSL #16   ; [DPU_V7M3_PIPE] |1536|  ; [KEEP 32-BIT INS]
TI ARM Assembler Unix v18.1.1 Fri Jul  3 20:08:24 2020

Tools Copyright (c) 1996-2017 Texas Instruments Incorporated
hibernate.asm                                                        PAGE   74

    4002 00000484 9203              STR       A3, [SP, #12]         ; [DPU_V7M3_PIPE] |1536|  ; [ORIG 16-BIT INS]
    4003                            .dwpsn  file "../driverlib/hibernate.c",line 1540,column 5,is_stmt,isa 1
    4004                    ;----------------------------------------------------------------------
    4005                    ; 1541 | else                                                                   
    4006                    ; 1543 |     //                                                                 
    4007                    ; 1544 |     // Wday, month and year are not included in the match              
    4008                    ; 1545 |     // Functionality.                                                  
    4009                    ; 1546 |     //                                                                 
    4010                    ;----------------------------------------------------------------------
    4011 00000486 E009              B         ||$C$L27||            ; [DPU_V7M3_PIPE] |1540|  ; [ORIG 16-BIT INS]
    4012                            ; BRANCH OCCURS {||$C$L27||}     ; [] |1540| 
    4013                    ;* --------------------------------------------------------------------------*
    4014 00000488           ||$C$L25||:    
    4015                            .dwpsn  file "../driverlib/hibernate.c",line 1547,column 9,is_stmt,isa 1
    4016                    ;----------------------------------------------------------------------
    4017                    ; 1547 | if(psTime->tm_mday == 0xFF)                                            
    4018                    ; 1549 |     //                                                                 
    4019                    ; 1550 |     // program 0 to match every day                                    
    4020                    ; 1551 |     //                                                                 
    4021                    ;----------------------------------------------------------------------
    4022 00000488 9801              LDR       A1, [SP, #4]          ; [DPU_V7M3_PIPE] |1547|  ; [ORIG 16-BIT INS]
    4023 0000048a 68C0              LDR       A1, [A1, #12]         ; [DPU_V7M3_PIPE] |1547|  ; [ORIG 16-BIT INS]
    4024 0000048c 28FF              CMP       A1, #255              ; [DPU_V7M3_PIPE] |1547|  ; [ORIG 16-BIT INS]
    4025 0000048e D102              BNE       ||$C$L26||            ; [DPU_V7M3_PIPE] |1547|  ; [ORIG 16-BIT INS]
    4026                            ; BRANCHCC OCCURS {||$C$L26||}   ; [] |1547| 
    4027                    ;* --------------------------------------------------------------------------*
    4028                            .dwpsn  file "../driverlib/hibernate.c",line 1552,column 13,is_stmt,isa 1
    4029                    ;----------------------------------------------------------------------
    4030                    ; 1552 | ui32Date = 0 << HIB_CAL1_DOM_M;                                        
    4031                    ;----------------------------------------------------------------------
    4032 00000490 2000              MOVS      A1, #0                ; [DPU_V7M3_PIPE] |1552|  ; [ORIG 16-BIT INS]
    4033 00000492 9003              STR       A1, [SP, #12]         ; [DPU_V7M3_PIPE] |1552|  ; [ORIG 16-BIT INS]
    4034                            .dwpsn  file "../driverlib/hibernate.c",line 1553,column 9,is_stmt,isa 1
    4035                    ;----------------------------------------------------------------------
    4036                    ; 1554 | else                                                                   
    4037                    ;----------------------------------------------------------------------
    4038 00000494 E002              B         ||$C$L27||            ; [DPU_V7M3_PIPE] |1553|  ; [ORIG 16-BIT INS]
    4039                            ; BRANCH OCCURS {||$C$L27||}     ; [] |1553| 
    4040                    ;* --------------------------------------------------------------------------*
    4041 00000496           ||$C$L26||:    
    4042                            .dwpsn  file "../driverlib/hibernate.c",line 1556,column 13,is_stmt,isa 1
    4043                    ;----------------------------------------------------------------------
    4044                    ; 1556 | ui32Date = (psTime->tm_mday << HIB_CAL1_DOM_S);                        
    4045                    ; 1560 | //                                                                     
    4046                    ; 1561 | // Load register requires unlock.                                      
    4047                    ; 1562 | //                                                                     
    4048                    ;----------------------------------------------------------------------
    4049 00000496 9801              LDR       A1, [SP, #4]          ; [DPU_V7M3_PIPE] |1556|  ; [ORIG 16-BIT INS]
    4050 00000498 68C0              LDR       A1, [A1, #12]         ; [DPU_V7M3_PIPE] |1556|  ; [ORIG 16-BIT INS]
    4051 0000049a 9003              STR       A1, [SP, #12]         ; [DPU_V7M3_PIPE] |1556|  ; [ORIG 16-BIT INS]
    4052                    ;* --------------------------------------------------------------------------*
    4053 0000049c           ||$C$L27||:    
    4054                            .dwpsn  file "../driverlib/hibernate.c",line 1563,column 5,is_stmt,isa 1
    4055                    ;----------------------------------------------------------------------
    4056                    ; 1563 | if(ui32Reg == HIB_CAL0)                                                
TI ARM Assembler Unix v18.1.1 Fri Jul  3 20:08:24 2020

Tools Copyright (c) 1996-2017 Texas Instruments Incorporated
hibernate.asm                                                        PAGE   75

    4057                    ; 1565 |     //                                                                 
    4058                    ; 1566 |     // Unlock the hibernate counter load registers.                    
    4059                    ; 1567 |     //                                                                 
    4060                    ;----------------------------------------------------------------------
    4061 0000049c 49AD              LDR       A2, $C$CON25          ; [DPU_V7M3_PIPE] |1563|  ; [ORIG 16-BIT INS]
    4062 0000049e 9800              LDR       A1, [SP, #0]          ; [DPU_V7M3_PIPE] |1563|  ; [ORIG 16-BIT INS]
    4063 000004a0 4281              CMP       A2, A1                ; [DPU_V7M3_PIPE] |1563|  ; [ORIG 16-BIT INS]
    4064 000004a2 D104              BNE       ||$C$L28||            ; [DPU_V7M3_PIPE] |1563|  ; [ORIG 16-BIT INS]
    4065                            ; BRANCHCC OCCURS {||$C$L28||}   ; [] |1563| 
    4066                    ;* --------------------------------------------------------------------------*
    4067                            .dwpsn  file "../driverlib/hibernate.c",line 1568,column 9,is_stmt,isa 1
    4068                    ;----------------------------------------------------------------------
    4069                    ; 1568 | HWREG(HIB_LOCK) = HIB_LOCK_HIBLOCK_KEY;                                
    4070                    ;----------------------------------------------------------------------
    4071 000004a4 48C2              LDR       A1, $C$CON29          ; [DPU_V7M3_PIPE] |1568|  ; [ORIG 16-BIT INS]
    4072 000004a6 49C3              LDR       A2, $C$CON30          ; [DPU_V7M3_PIPE] |1568|  ; [ORIG 16-BIT INS]
    4073 000004a8 6008              STR       A1, [A2, #0]          ; [DPU_V7M3_PIPE] |1568|  ; [ORIG 16-BIT INS]
    4074                            .dwpsn  file "../driverlib/hibernate.c",line 1569,column 9,is_stmt,isa 1
    4075                    ;----------------------------------------------------------------------
    4076                    ; 1569 | _HibernateWriteComplete();                                             
    4077                    ; 1572 | //                                                                     
    4078                    ; 1573 | // Set the requested time and date.                                    
    4079                    ; 1574 | //                                                                     
    4080                    ;----------------------------------------------------------------------
    4081                    $C$DW$169       .dwtag  DW_TAG_TI_branch
    4082                            .dwattr $C$DW$169, DW_AT_low_pc(0x00)
    4083                            .dwattr $C$DW$169, DW_AT_name("_HibernateWriteComplete")
    4084                            .dwattr $C$DW$169, DW_AT_TI_call
    4085                    
    4086 000004aa FFFEF7FF!         BL        _HibernateWriteComplete ; [DPU_V7M3_PIPE] |1569|  ; [KEEP 32-BIT INS]
    4087                            ; CALL OCCURS {_HibernateWriteComplete }  ; [] |1569| 
    4088                    ;* --------------------------------------------------------------------------*
    4089 000004ae           ||$C$L28||:    
    4090                            .dwpsn  file "../driverlib/hibernate.c",line 1575,column 5,is_stmt,isa 1
    4091                    ;----------------------------------------------------------------------
    4092                    ; 1575 | if(ui32Reg == HIB_CAL0)                                                
    4093                    ;----------------------------------------------------------------------
    4094 000004ae 49A9              LDR       A2, $C$CON25          ; [DPU_V7M3_PIPE] |1575|  ; [ORIG 16-BIT INS]
    4095 000004b0 9800              LDR       A1, [SP, #0]          ; [DPU_V7M3_PIPE] |1575|  ; [ORIG 16-BIT INS]
    4096 000004b2 4281              CMP       A2, A1                ; [DPU_V7M3_PIPE] |1575|  ; [ORIG 16-BIT INS]
    4097 000004b4 D10A              BNE       ||$C$L29||            ; [DPU_V7M3_PIPE] |1575|  ; [ORIG 16-BIT INS]
    4098                            ; BRANCHCC OCCURS {||$C$L29||}   ; [] |1575| 
    4099                    ;* --------------------------------------------------------------------------*
    4100                            .dwpsn  file "../driverlib/hibernate.c",line 1577,column 9,is_stmt,isa 1
    4101                    ;----------------------------------------------------------------------
    4102                    ; 1577 | HWREG(HIB_CALLD0) = ui32Time;                                          
    4103                    ;----------------------------------------------------------------------
    4104 000004b6 9802              LDR       A1, [SP, #8]          ; [DPU_V7M3_PIPE] |1577|  ; [ORIG 16-BIT INS]
    4105 000004b8 49C4              LDR       A2, $C$CON26          ; [DPU_V7M3_PIPE] |1577|  ; [ORIG 16-BIT INS]
    4106 000004ba 6008              STR       A1, [A2, #0]          ; [DPU_V7M3_PIPE] |1577|  ; [ORIG 16-BIT INS]
    4107                            .dwpsn  file "../driverlib/hibernate.c",line 1578,column 9,is_stmt,isa 1
    4108                    ;----------------------------------------------------------------------
    4109                    ; 1578 | _HibernateWriteComplete();                                             
    4110                    ;----------------------------------------------------------------------
    4111                    $C$DW$170       .dwtag  DW_TAG_TI_branch
TI ARM Assembler Unix v18.1.1 Fri Jul  3 20:08:24 2020

Tools Copyright (c) 1996-2017 Texas Instruments Incorporated
hibernate.asm                                                        PAGE   76

    4112                            .dwattr $C$DW$170, DW_AT_low_pc(0x00)
    4113                            .dwattr $C$DW$170, DW_AT_name("_HibernateWriteComplete")
    4114                            .dwattr $C$DW$170, DW_AT_TI_call
    4115                    
    4116 000004bc FFFEF7FF!         BL        _HibernateWriteComplete ; [DPU_V7M3_PIPE] |1578|  ; [KEEP 32-BIT INS]
    4117                            ; CALL OCCURS {_HibernateWriteComplete }  ; [] |1578| 
    4118                            .dwpsn  file "../driverlib/hibernate.c",line 1579,column 9,is_stmt,isa 1
    4119                    ;----------------------------------------------------------------------
    4120                    ; 1579 | HWREG(HIB_CALLD1) = ui32Date;                                          
    4121                    ;----------------------------------------------------------------------
    4122 000004c0 9803              LDR       A1, [SP, #12]         ; [DPU_V7M3_PIPE] |1579|  ; [ORIG 16-BIT INS]
    4123 000004c2 49C7              LDR       A2, $C$CON27          ; [DPU_V7M3_PIPE] |1579|  ; [ORIG 16-BIT INS]
    4124 000004c4 6008              STR       A1, [A2, #0]          ; [DPU_V7M3_PIPE] |1579|  ; [ORIG 16-BIT INS]
    4125                            .dwpsn  file "../driverlib/hibernate.c",line 1580,column 9,is_stmt,isa 1
    4126                    ;----------------------------------------------------------------------
    4127                    ; 1580 | _HibernateWriteComplete();                                             
    4128                    ;----------------------------------------------------------------------
    4129                    $C$DW$171       .dwtag  DW_TAG_TI_branch
    4130                            .dwattr $C$DW$171, DW_AT_low_pc(0x00)
    4131                            .dwattr $C$DW$171, DW_AT_name("_HibernateWriteComplete")
    4132                            .dwattr $C$DW$171, DW_AT_TI_call
    4133                    
    4134 000004c6 FFFEF7FF!         BL        _HibernateWriteComplete ; [DPU_V7M3_PIPE] |1580|  ; [KEEP 32-BIT INS]
    4135                            ; CALL OCCURS {_HibernateWriteComplete }  ; [] |1580| 
    4136                            .dwpsn  file "../driverlib/hibernate.c",line 1581,column 5,is_stmt,isa 1
    4137                    ;----------------------------------------------------------------------
    4138                    ; 1582 | else                                                                   
    4139                    ;----------------------------------------------------------------------
    4140 000004ca E009              B         ||$C$L30||            ; [DPU_V7M3_PIPE] |1581|  ; [ORIG 16-BIT INS]
    4141                            ; BRANCH OCCURS {||$C$L30||}     ; [] |1581| 
    4142                    ;* --------------------------------------------------------------------------*
    4143 000004cc           ||$C$L29||:    
    4144                            .dwpsn  file "../driverlib/hibernate.c",line 1584,column 9,is_stmt,isa 1
    4145                    ;----------------------------------------------------------------------
    4146                    ; 1584 | HWREG(HIB_CALM0) = ui32Time;                                           
    4147                    ;----------------------------------------------------------------------
    4148 000004cc 9802              LDR       A1, [SP, #8]          ; [DPU_V7M3_PIPE] |1584|  ; [ORIG 16-BIT INS]
    4149 000004ce 498B              LDR       A2, $C$CON24          ; [DPU_V7M3_PIPE] |1584|  ; [ORIG 16-BIT INS]
    4150 000004d0 6008              STR       A1, [A2, #0]          ; [DPU_V7M3_PIPE] |1584|  ; [ORIG 16-BIT INS]
    4151                            .dwpsn  file "../driverlib/hibernate.c",line 1585,column 9,is_stmt,isa 1
    4152                    ;----------------------------------------------------------------------
    4153                    ; 1585 | _HibernateWriteComplete();                                             
    4154                    ;----------------------------------------------------------------------
    4155                    $C$DW$172       .dwtag  DW_TAG_TI_branch
    4156                            .dwattr $C$DW$172, DW_AT_low_pc(0x00)
    4157                            .dwattr $C$DW$172, DW_AT_name("_HibernateWriteComplete")
    4158                            .dwattr $C$DW$172, DW_AT_TI_call
    4159                    
    4160 000004d2 FFFEF7FF!         BL        _HibernateWriteComplete ; [DPU_V7M3_PIPE] |1585|  ; [KEEP 32-BIT INS]
    4161                            ; CALL OCCURS {_HibernateWriteComplete }  ; [] |1585| 
    4162                            .dwpsn  file "../driverlib/hibernate.c",line 1586,column 9,is_stmt,isa 1
    4163                    ;----------------------------------------------------------------------
    4164                    ; 1586 | HWREG(HIB_CALM1) = ui32Date;                                           
    4165                    ;----------------------------------------------------------------------
    4166 000004d6 9803              LDR       A1, [SP, #12]         ; [DPU_V7M3_PIPE] |1586|  ; [ORIG 16-BIT INS]
TI ARM Assembler Unix v18.1.1 Fri Jul  3 20:08:24 2020

Tools Copyright (c) 1996-2017 Texas Instruments Incorporated
hibernate.asm                                                        PAGE   77

    4167 000004d8 49C7              LDR       A2, $C$CON28          ; [DPU_V7M3_PIPE] |1586|  ; [ORIG 16-BIT INS]
    4168 000004da 6008              STR       A1, [A2, #0]          ; [DPU_V7M3_PIPE] |1586|  ; [ORIG 16-BIT INS]
    4169                            .dwpsn  file "../driverlib/hibernate.c",line 1587,column 9,is_stmt,isa 1
    4170                    ;----------------------------------------------------------------------
    4171                    ; 1587 | _HibernateWriteComplete();                                             
    4172                    ; 1590 | //                                                                     
    4173                    ; 1591 | // Load register requires unlock.                                      
    4174                    ; 1592 | //                                                                     
    4175                    ;----------------------------------------------------------------------
    4176                    $C$DW$173       .dwtag  DW_TAG_TI_branch
    4177                            .dwattr $C$DW$173, DW_AT_low_pc(0x00)
    4178                            .dwattr $C$DW$173, DW_AT_name("_HibernateWriteComplete")
    4179                            .dwattr $C$DW$173, DW_AT_TI_call
    4180                    
    4181 000004dc FFFEF7FF!         BL        _HibernateWriteComplete ; [DPU_V7M3_PIPE] |1587|  ; [KEEP 32-BIT INS]
    4182                            ; CALL OCCURS {_HibernateWriteComplete }  ; [] |1587| 
    4183                    ;* --------------------------------------------------------------------------*
    4184 000004e0           ||$C$L30||:    
    4185                            .dwpsn  file "../driverlib/hibernate.c",line 1593,column 5,is_stmt,isa 1
    4186                    ;----------------------------------------------------------------------
    4187                    ; 1593 | if(ui32Reg == HIB_CAL0)                                                
    4188                    ; 1595 |     //                                                                 
    4189                    ; 1596 |     // Lock the hibernate counter load registers.                      
    4190                    ; 1597 |     //                                                                 
    4191                    ;----------------------------------------------------------------------
    4192 000004e0 499C              LDR       A2, $C$CON25          ; [DPU_V7M3_PIPE] |1593|  ; [ORIG 16-BIT INS]
    4193 000004e2 9800              LDR       A1, [SP, #0]          ; [DPU_V7M3_PIPE] |1593|  ; [ORIG 16-BIT INS]
    4194 000004e4 4281              CMP       A2, A1                ; [DPU_V7M3_PIPE] |1593|  ; [ORIG 16-BIT INS]
    4195 000004e6 D104              BNE       ||$C$L31||            ; [DPU_V7M3_PIPE] |1593|  ; [ORIG 16-BIT INS]
    4196                            ; BRANCHCC OCCURS {||$C$L31||}   ; [] |1593| 
    4197                    ;* --------------------------------------------------------------------------*
    4198                            .dwpsn  file "../driverlib/hibernate.c",line 1598,column 9,is_stmt,isa 1
    4199                    ;----------------------------------------------------------------------
    4200                    ; 1598 | HWREG(HIB_LOCK) = 0;                                                   
    4201                    ;----------------------------------------------------------------------
    4202 000004e8 49B2              LDR       A2, $C$CON30          ; [DPU_V7M3_PIPE] |1598|  ; [ORIG 16-BIT INS]
    4203 000004ea 2000              MOVS      A1, #0                ; [DPU_V7M3_PIPE] |1598|  ; [ORIG 16-BIT INS]
    4204 000004ec 6008              STR       A1, [A2, #0]          ; [DPU_V7M3_PIPE] |1598|  ; [ORIG 16-BIT INS]
    4205                            .dwpsn  file "../driverlib/hibernate.c",line 1599,column 9,is_stmt,isa 1
    4206                    ;----------------------------------------------------------------------
    4207                    ; 1599 | _HibernateWriteComplete();                                             
    4208                    ;----------------------------------------------------------------------
    4209                    $C$DW$174       .dwtag  DW_TAG_TI_branch
    4210                            .dwattr $C$DW$174, DW_AT_low_pc(0x00)
    4211                            .dwattr $C$DW$174, DW_AT_name("_HibernateWriteComplete")
    4212                            .dwattr $C$DW$174, DW_AT_TI_call
    4213                    
    4214 000004ee FFFEF7FF!         BL        _HibernateWriteComplete ; [DPU_V7M3_PIPE] |1599|  ; [KEEP 32-BIT INS]
    4215                            ; CALL OCCURS {_HibernateWriteComplete }  ; [] |1599| 
    4216                            .dwpsn  file "../driverlib/hibernate.c",line 1601,column 1,is_stmt,isa 1
    4217                    ;* --------------------------------------------------------------------------*
    4218 000004f2           ||$C$L31||:    
    4219 000004f2 B005              ADD       SP, SP, #20           ; [DPU_V7M3_PIPE]  ; [ORIG 16-BIT INS]
    4220                            .dwcfi  cfa_offset, 4
    4221                    $C$DW$175       .dwtag  DW_TAG_TI_branch
TI ARM Assembler Unix v18.1.1 Fri Jul  3 20:08:24 2020

Tools Copyright (c) 1996-2017 Texas Instruments Incorporated
hibernate.asm                                                        PAGE   78

    4222                            .dwattr $C$DW$175, DW_AT_low_pc(0x00)
    4223                            .dwattr $C$DW$175, DW_AT_TI_return
    4224                    
    4225 000004f4 BD00              POP       {PC}                  ; [DPU_V7M3_PIPE]  ; [ORIG 16-BIT INS]
    4226                            .dwcfi  cfa_offset, 0
    4227                            ; BRANCH OCCURS                  ; [] 
    4228                            .dwattr $C$DW$162, DW_AT_TI_end_file("../driverlib/hibernate.c")
    4229                            .dwattr $C$DW$162, DW_AT_TI_end_line(0x641)
    4230                            .dwattr $C$DW$162, DW_AT_TI_end_column(0x01)
    4231                            .dwendentry
    4232                            .dwendtag $C$DW$162
    4233                    
    4234 000004f6                   .sect   ".text"
    4235                            .clink
    4236                            .thumbfunc HibernateCalendarSet
    4237 000004f6                   .thumb
    4238                            .global HibernateCalendarSet
    4239                    
    4240                    $C$DW$176       .dwtag  DW_TAG_subprogram
    4241                            .dwattr $C$DW$176, DW_AT_name("HibernateCalendarSet")
    4242                            .dwattr $C$DW$176, DW_AT_low_pc(HibernateCalendarSet)
    4243                            .dwattr $C$DW$176, DW_AT_high_pc(0x00)
    4244                            .dwattr $C$DW$176, DW_AT_TI_symbol_name("HibernateCalendarSet")
    4245                            .dwattr $C$DW$176, DW_AT_external
    4246                            .dwattr $C$DW$176, DW_AT_TI_begin_file("../driverlib/hibernate.c")
    4247                            .dwattr $C$DW$176, DW_AT_TI_begin_line(0x65f)
    4248                            .dwattr $C$DW$176, DW_AT_TI_begin_column(0x01)
    4249                            .dwattr $C$DW$176, DW_AT_decl_file("../driverlib/hibernate.c")
    4250                            .dwattr $C$DW$176, DW_AT_decl_line(0x65f)
    4251                            .dwattr $C$DW$176, DW_AT_decl_column(0x01)
    4252                            .dwattr $C$DW$176, DW_AT_TI_max_frame_size(0x08)
    4253                            .dwpsn  file "../driverlib/hibernate.c",line 1632,column 1,is_stmt,address HibernateCalendarSe
    4254                    
    4255                            .dwfde $C$DW$CIE, HibernateCalendarSet
    4256                    $C$DW$177       .dwtag  DW_TAG_formal_parameter
    4257                            .dwattr $C$DW$177, DW_AT_name("psTime")
    4258                            .dwattr $C$DW$177, DW_AT_TI_symbol_name("psTime")
    4259                            .dwattr $C$DW$177, DW_AT_type(*$C$DW$T$42)
    4260                            .dwattr $C$DW$177, DW_AT_location[DW_OP_reg0]
    4261                    
    4262                    ;----------------------------------------------------------------------
    4263                    ; 1631 | HibernateCalendarSet(struct tm *psTime)                                
    4264                    ;----------------------------------------------------------------------
    4265                    
    4266                    ;*****************************************************************************
    4267                    ;* FUNCTION NAME: HibernateCalendarSet                                       *
    4268                    ;*                                                                           *
    4269                    ;*   Regs Modified     : A1,A2,A3,A4,SP,LR,SR,FPEXC,FPSCR                    *
    4270                    ;*   Regs Used         : A1,A2,A3,A4,SP,LR,SR,FPEXC,FPSCR                    *
    4271                    ;*   Local Frame Size  : 0 Args + 4 Auto + 4 Save = 8 byte                   *
    4272                    ;*****************************************************************************
    4273 000004f6           HibernateCalendarSet:
    4274                    ;* --------------------------------------------------------------------------*
    4275                            .dwcfi  cfa_offset, 0
    4276 000004f6 B508              PUSH      {A4, LR}              ; [DPU_V7M3_PIPE]  ; [ORIG 16-BIT INS]
TI ARM Assembler Unix v18.1.1 Fri Jul  3 20:08:24 2020

Tools Copyright (c) 1996-2017 Texas Instruments Incorporated
hibernate.asm                                                        PAGE   79

    4277                            .dwcfi  cfa_offset, 8
    4278                            .dwcfi  save_reg_to_mem, 14, -4
    4279                            .dwcfi  save_reg_to_mem, 3, -8
    4280                    $C$DW$178       .dwtag  DW_TAG_variable
    4281                            .dwattr $C$DW$178, DW_AT_name("psTime")
    4282                            .dwattr $C$DW$178, DW_AT_TI_symbol_name("psTime")
    4283                            .dwattr $C$DW$178, DW_AT_type(*$C$DW$T$42)
    4284                            .dwattr $C$DW$178, DW_AT_location[DW_OP_breg13 0]
    4285                    
    4286                    ;----------------------------------------------------------------------
    4287                    ; 1633 | //                                                                     
    4288                    ; 1634 | // Load a new date/time.                                               
    4289                    ; 1635 | //                                                                     
    4290                    ;----------------------------------------------------------------------
    4291 000004f8 9000              STR       A1, [SP, #0]          ; [DPU_V7M3_PIPE] |1632|  ; [ORIG 16-BIT INS]
    4292                            .dwpsn  file "../driverlib/hibernate.c",line 1636,column 5,is_stmt,isa 1
    4293                    ;----------------------------------------------------------------------
    4294                    ; 1636 | _HibernateCalendarSet(HIB_CAL0, psTime);                               
    4295                    ;----------------------------------------------------------------------
    4296 000004fa 4896              LDR       A1, $C$CON25          ; [DPU_V7M3_PIPE] |1636|  ; [ORIG 16-BIT INS]
    4297 000004fc 9900              LDR       A2, [SP, #0]          ; [DPU_V7M3_PIPE] |1636|  ; [ORIG 16-BIT INS]
    4298                    $C$DW$179       .dwtag  DW_TAG_TI_branch
    4299                            .dwattr $C$DW$179, DW_AT_low_pc(0x00)
    4300                            .dwattr $C$DW$179, DW_AT_name("_HibernateCalendarSet")
    4301                            .dwattr $C$DW$179, DW_AT_TI_call
    4302                    
    4303 000004fe FFFEF7FF!         BL        _HibernateCalendarSet ; [DPU_V7M3_PIPE] |1636|  ; [KEEP 32-BIT INS]
    4304                            ; CALL OCCURS {_HibernateCalendarSet }  ; [] |1636| 
    4305                            .dwpsn  file "../driverlib/hibernate.c",line 1637,column 1,is_stmt,isa 1
    4306                    $C$DW$180       .dwtag  DW_TAG_TI_branch
    4307                            .dwattr $C$DW$180, DW_AT_low_pc(0x00)
    4308                            .dwattr $C$DW$180, DW_AT_TI_return
    4309                    
    4310 00000502 BD08              POP       {A4, PC}              ; [DPU_V7M3_PIPE]  ; [ORIG 16-BIT INS]
    4311                            .dwcfi  cfa_offset, 0
    4312                            .dwcfi  restore_reg, 3
    4313                            ; BRANCH OCCURS                  ; [] 
    4314                            .dwattr $C$DW$176, DW_AT_TI_end_file("../driverlib/hibernate.c")
    4315                            .dwattr $C$DW$176, DW_AT_TI_end_line(0x665)
    4316                            .dwattr $C$DW$176, DW_AT_TI_end_column(0x01)
    4317                            .dwendentry
    4318                            .dwendtag $C$DW$176
    4319                    
    4320                    ;******************************************************************************
    4321                    ;* CONSTANT TABLE                                                             *
    4322                    ;******************************************************************************
    4323 00000504                   .sect   ".text"
    4324                            .align  4
    4325 00000504 400FC030  ||$C$CON15||:   .bits   1074774064,32
    4326                            .align  4
    4327 00000508 400FC014  ||$C$CON16||:   .bits   1074774036,32
    4328 0000050c                   .sect   ".text"
    4329                            .clink
    4330                            .thumbfunc HibernateCalendarGet
    4331 0000050c                   .thumb
TI ARM Assembler Unix v18.1.1 Fri Jul  3 20:08:24 2020

Tools Copyright (c) 1996-2017 Texas Instruments Incorporated
hibernate.asm                                                        PAGE   80

    4332                            .global HibernateCalendarGet
    4333                    
    4334                    $C$DW$181       .dwtag  DW_TAG_subprogram
    4335                            .dwattr $C$DW$181, DW_AT_name("HibernateCalendarGet")
    4336                            .dwattr $C$DW$181, DW_AT_low_pc(HibernateCalendarGet)
    4337                            .dwattr $C$DW$181, DW_AT_high_pc(0x00)
    4338                            .dwattr $C$DW$181, DW_AT_TI_symbol_name("HibernateCalendarGet")
    4339                            .dwattr $C$DW$181, DW_AT_external
    4340                            .dwattr $C$DW$181, DW_AT_type(*$C$DW$T$10)
    4341                            .dwattr $C$DW$181, DW_AT_TI_begin_file("../driverlib/hibernate.c")
    4342                            .dwattr $C$DW$181, DW_AT_TI_begin_line(0x684)
    4343                            .dwattr $C$DW$181, DW_AT_TI_begin_column(0x01)
    4344                            .dwattr $C$DW$181, DW_AT_decl_file("../driverlib/hibernate.c")
    4345                            .dwattr $C$DW$181, DW_AT_decl_line(0x684)
    4346                            .dwattr $C$DW$181, DW_AT_decl_column(0x01)
    4347                            .dwattr $C$DW$181, DW_AT_TI_max_frame_size(0x10)
    4348                            .dwpsn  file "../driverlib/hibernate.c",line 1669,column 1,is_stmt,address HibernateCalendarGe
    4349                    
    4350                            .dwfde $C$DW$CIE, HibernateCalendarGet
    4351                    $C$DW$182       .dwtag  DW_TAG_formal_parameter
    4352                            .dwattr $C$DW$182, DW_AT_name("psTime")
    4353                            .dwattr $C$DW$182, DW_AT_TI_symbol_name("psTime")
    4354                            .dwattr $C$DW$182, DW_AT_type(*$C$DW$T$42)
    4355                            .dwattr $C$DW$182, DW_AT_location[DW_OP_reg0]
    4356                    
    4357                    ;----------------------------------------------------------------------
    4358                    ; 1668 | HibernateCalendarGet(struct tm *psTime)                                
    4359                    ;----------------------------------------------------------------------
    4360                    
    4361                    ;*****************************************************************************
    4362                    ;* FUNCTION NAME: HibernateCalendarGet                                       *
    4363                    ;*                                                                           *
    4364                    ;*   Regs Modified     : A1,A2,SP,SR                                         *
    4365                    ;*   Regs Used         : A1,A2,SP,LR,SR                                      *
    4366                    ;*   Local Frame Size  : 0 Args + 12 Auto + 0 Save = 12 byte                 *
    4367                    ;*****************************************************************************
    4368 0000050c           HibernateCalendarGet:
    4369                    ;* --------------------------------------------------------------------------*
    4370                            .dwcfi  cfa_offset, 0
    4371 0000050c 0D10F1AD          SUB       SP, SP, #16           ; [DPU_V7M3_PIPE]  ; [KEEP 32-BIT INS]
    4372                            .dwcfi  cfa_offset, 16
    4373                    $C$DW$183       .dwtag  DW_TAG_variable
    4374                            .dwattr $C$DW$183, DW_AT_name("psTime")
    4375                            .dwattr $C$DW$183, DW_AT_TI_symbol_name("psTime")
    4376                            .dwattr $C$DW$183, DW_AT_type(*$C$DW$T$42)
    4377                            .dwattr $C$DW$183, DW_AT_location[DW_OP_breg13 0]
    4378                    
    4379                    $C$DW$184       .dwtag  DW_TAG_variable
    4380                            .dwattr $C$DW$184, DW_AT_name("ui32Date")
    4381                            .dwattr $C$DW$184, DW_AT_TI_symbol_name("ui32Date")
    4382                            .dwattr $C$DW$184, DW_AT_type(*$C$DW$T$33)
    4383                            .dwattr $C$DW$184, DW_AT_location[DW_OP_breg13 4]
    4384                    
    4385                    $C$DW$185       .dwtag  DW_TAG_variable
    4386                            .dwattr $C$DW$185, DW_AT_name("ui32Time")
TI ARM Assembler Unix v18.1.1 Fri Jul  3 20:08:24 2020

Tools Copyright (c) 1996-2017 Texas Instruments Incorporated
hibernate.asm                                                        PAGE   81

    4387                            .dwattr $C$DW$185, DW_AT_TI_symbol_name("ui32Time")
    4388                            .dwattr $C$DW$185, DW_AT_type(*$C$DW$T$33)
    4389                            .dwattr $C$DW$185, DW_AT_location[DW_OP_breg13 8]
    4390                    
    4391                    ;----------------------------------------------------------------------
    4392                    ; 1670 | uint32_t ui32Date, ui32Time;                                           
    4393                    ; 1672 | ASSERT(HWREG(HIB_CALCTL) & HIB_CALCTL_CALEN);                          
    4394                    ; 1674 | //                                                                     
    4395                    ; 1675 | // Wait for the value to be valid, this should never be more than a few
    4396                    ; 1676 | // loops and should never hang.                                        
    4397                    ; 1677 | //                                                                     
    4398                    ; 1678 | do                                                                     
    4399                    ;----------------------------------------------------------------------
    4400 00000510 9000              STR       A1, [SP, #0]          ; [DPU_V7M3_PIPE] |1669|  ; [ORIG 16-BIT INS]
    4401                    ;* --------------------------------------------------------------------------*
    4402                    ;*   BEGIN LOOP ||$C$L32||
    4403                    ;*
    4404                    ;*   Loop source line                : 1678
    4405                    ;*   Loop closing brace source line  : 1681
    4406                    ;*   Known Minimum Trip Count        : 1
    4407                    ;*   Known Maximum Trip Count        : 4294967295
    4408                    ;*   Known Max Trip Count Factor     : 1
    4409                    ;* --------------------------------------------------------------------------*
    4410 00000512           ||$C$L32||:    
    4411                            .dwpsn  file "../driverlib/hibernate.c",line 1680,column 9,is_stmt,isa 1
    4412                    ;----------------------------------------------------------------------
    4413                    ; 1680 | ui32Date = HWREG(HIB_CAL1);                                            
    4414                    ;----------------------------------------------------------------------
    4415 00000512 48BA              LDR       A1, $C$CON31          ; [DPU_V7M3_PIPE] |1680|  ; [ORIG 16-BIT INS]
    4416 00000514 6800              LDR       A1, [A1, #0]          ; [DPU_V7M3_PIPE] |1680|  ; [ORIG 16-BIT INS]
    4417 00000516 9001              STR       A1, [SP, #4]          ; [DPU_V7M3_PIPE] |1680|  ; [ORIG 16-BIT INS]
    4418                            .dwpsn  file "../driverlib/hibernate.c",line 1682,column 11,is_stmt,isa 1
    4419                    ;----------------------------------------------------------------------
    4420                    ; 1682 | while((ui32Date & HIB_CAL1_VALID) == 0);                               
    4421                    ; 1684 | //                                                                     
    4422                    ; 1685 | // Wait for the value to be valid, this should never be more than a few
    4423                    ; 1686 | // loops and should never hang.                                        
    4424                    ; 1687 | //                                                                     
    4425                    ; 1688 | do                                                                     
    4426                    ;----------------------------------------------------------------------
    4427 00000518 9801              LDR       A1, [SP, #4]          ; [DPU_V7M3_PIPE] |1682|  ; [ORIG 16-BIT INS]
    4428 0000051a 0800              LSRS      A1, A1, #32           ; [DPU_V7M3_PIPE] |1682|  ; [ORIG 16-BIT INS]
    4429 0000051c D3F9              BCC       ||$C$L32||            ; [DPU_V7M3_PIPE] |1682|  ; [ORIG 16-BIT INS]
    4430                            ; BRANCHCC OCCURS {||$C$L32||}   ; [] |1682| 
    4431                    ;* --------------------------------------------------------------------------*
    4432                    ;*   BEGIN LOOP ||$C$L33||
    4433                    ;*
    4434                    ;*   Loop source line                : 1688
    4435                    ;*   Loop closing brace source line  : 1691
    4436                    ;*   Known Minimum Trip Count        : 1
    4437                    ;*   Known Maximum Trip Count        : 4294967295
    4438                    ;*   Known Max Trip Count Factor     : 1
    4439                    ;* --------------------------------------------------------------------------*
    4440 0000051e           ||$C$L33||:    
    4441                            .dwpsn  file "../driverlib/hibernate.c",line 1690,column 9,is_stmt,isa 1
TI ARM Assembler Unix v18.1.1 Fri Jul  3 20:08:24 2020

Tools Copyright (c) 1996-2017 Texas Instruments Incorporated
hibernate.asm                                                        PAGE   82

    4442                    ;----------------------------------------------------------------------
    4443                    ; 1690 | ui32Time = HWREG(HIB_CAL0);                                            
    4444                    ;----------------------------------------------------------------------
    4445 0000051e 488D              LDR       A1, $C$CON25          ; [DPU_V7M3_PIPE] |1690|  ; [ORIG 16-BIT INS]
    4446 00000520 6800              LDR       A1, [A1, #0]          ; [DPU_V7M3_PIPE] |1690|  ; [ORIG 16-BIT INS]
    4447 00000522 9002              STR       A1, [SP, #8]          ; [DPU_V7M3_PIPE] |1690|  ; [ORIG 16-BIT INS]
    4448                            .dwpsn  file "../driverlib/hibernate.c",line 1692,column 11,is_stmt,isa 1
    4449                    ;----------------------------------------------------------------------
    4450                    ; 1692 | while((ui32Time & HIB_CAL0_VALID) == 0);                               
    4451                    ; 1694 | //                                                                     
    4452                    ; 1695 | // The date changed after reading the time so fail this call and let th
    4453                    ;     | e                                                                      
    4454                    ; 1696 | // application call again since it knows how int32_t to wait until anot
    4455                    ;     | her                                                                    
    4456                    ; 1697 | // second passes.                                                      
    4457                    ; 1698 | //                                                                     
    4458                    ;----------------------------------------------------------------------
    4459 00000524 9802              LDR       A1, [SP, #8]          ; [DPU_V7M3_PIPE] |1692|  ; [ORIG 16-BIT INS]
    4460 00000526 0800              LSRS      A1, A1, #32           ; [DPU_V7M3_PIPE] |1692|  ; [ORIG 16-BIT INS]
    4461 00000528 D3F9              BCC       ||$C$L33||            ; [DPU_V7M3_PIPE] |1692|  ; [ORIG 16-BIT INS]
    4462                            ; BRANCHCC OCCURS {||$C$L33||}   ; [] |1692| 
    4463                    ;* --------------------------------------------------------------------------*
    4464                            .dwpsn  file "../driverlib/hibernate.c",line 1699,column 5,is_stmt,isa 1
    4465                    ;----------------------------------------------------------------------
    4466                    ; 1699 | if(ui32Date != HWREG(HIB_CAL1))                                        
    4467                    ;----------------------------------------------------------------------
    4468 0000052a 48B4              LDR       A1, $C$CON31          ; [DPU_V7M3_PIPE] |1699|  ; [ORIG 16-BIT INS]
    4469 0000052c 9901              LDR       A2, [SP, #4]          ; [DPU_V7M3_PIPE] |1699|  ; [ORIG 16-BIT INS]
    4470 0000052e 6800              LDR       A1, [A1, #0]          ; [DPU_V7M3_PIPE] |1699|  ; [ORIG 16-BIT INS]
    4471 00000530 4288              CMP       A1, A2                ; [DPU_V7M3_PIPE] |1699|  ; [ORIG 16-BIT INS]
    4472 00000532 D002              BEQ       ||$C$L34||            ; [DPU_V7M3_PIPE] |1699|  ; [ORIG 16-BIT INS]
    4473                            ; BRANCHCC OCCURS {||$C$L34||}   ; [] |1699| 
    4474                    ;* --------------------------------------------------------------------------*
    4475                            .dwpsn  file "../driverlib/hibernate.c",line 1701,column 9,is_stmt,isa 1
    4476                    ;----------------------------------------------------------------------
    4477                    ; 1701 | return(-1);                                                            
    4478                    ; 1704 | //                                                                     
    4479                    ; 1705 | // Populate the date and time fields in the psTime structure.          
    4480                    ; 1706 | // We must subtract 1 from the month, since the time structure lists   
    4481                    ; 1707 | // the month from 0 to 11 and the HIB lists it from 1 to 12.           
    4482                    ; 1708 | //                                                                     
    4483                    ;----------------------------------------------------------------------
    4484 00000534 30FFF04F          MOV       A1, #-1               ; [DPU_V7M3_PIPE] |1701|  ; [KEEP 32-BIT INS]
    4485 00000538 E035              B         ||$C$L36||            ; [DPU_V7M3_PIPE] |1701|  ; [ORIG 16-BIT INS]
    4486                            ; BRANCH OCCURS {||$C$L36||}     ; [] |1701| 
    4487                    ;* --------------------------------------------------------------------------*
    4488 0000053a           ||$C$L34||:    
    4489                            .dwpsn  file "../driverlib/hibernate.c",line 1709,column 5,is_stmt,isa 1
    4490                    ;----------------------------------------------------------------------
    4491                    ; 1709 | psTime->tm_min = (ui32Time & HIB_CAL0_MIN_M) >> HIB_CAL0_MIN_S;        
    4492                    ;----------------------------------------------------------------------
    4493 0000053a 9802              LDR       A1, [SP, #8]          ; [DPU_V7M3_PIPE] |1709|  ; [ORIG 16-BIT INS]
    4494 0000053c 9900              LDR       A2, [SP, #0]          ; [DPU_V7M3_PIPE] |1709|  ; [ORIG 16-BIT INS]
    4495 0000053e 507CF400          AND       A1, A1, #16128        ; [DPU_V7M3_PIPE] |1709|  ; [KEEP 32-BIT INS]
    4496 00000542 0A00              LSRS      A1, A1, #8            ; [DPU_V7M3_PIPE] |1709|  ; [ORIG 16-BIT INS]
TI ARM Assembler Unix v18.1.1 Fri Jul  3 20:08:24 2020

Tools Copyright (c) 1996-2017 Texas Instruments Incorporated
hibernate.asm                                                        PAGE   83

    4497 00000544 6048              STR       A1, [A2, #4]          ; [DPU_V7M3_PIPE] |1709|  ; [ORIG 16-BIT INS]
    4498                            .dwpsn  file "../driverlib/hibernate.c",line 1710,column 5,is_stmt,isa 1
    4499                    ;----------------------------------------------------------------------
    4500                    ; 1710 | psTime->tm_sec = (ui32Time & HIB_CAL0_SEC_M) >> HIB_CAL0_SEC_S;        
    4501                    ;----------------------------------------------------------------------
    4502 00000546 9802              LDR       A1, [SP, #8]          ; [DPU_V7M3_PIPE] |1710|  ; [ORIG 16-BIT INS]
    4503 00000548 9900              LDR       A2, [SP, #0]          ; [DPU_V7M3_PIPE] |1710|  ; [ORIG 16-BIT INS]
    4504 0000054a 003FF000          AND       A1, A1, #63           ; [DPU_V7M3_PIPE] |1710|  ; [KEEP 32-BIT INS]
    4505 0000054e 6008              STR       A1, [A2, #0]          ; [DPU_V7M3_PIPE] |1710|  ; [ORIG 16-BIT INS]
    4506                            .dwpsn  file "../driverlib/hibernate.c",line 1711,column 5,is_stmt,isa 1
    4507                    ;----------------------------------------------------------------------
    4508                    ; 1711 | psTime->tm_mon = (((ui32Date & HIB_CAL1_MON_M) >> HIB_CAL1_MON_S) - 1);
    4509                    ;----------------------------------------------------------------------
    4510 00000550 9801              LDR       A1, [SP, #4]          ; [DPU_V7M3_PIPE] |1711|  ; [ORIG 16-BIT INS]
    4511 00000552 9900              LDR       A2, [SP, #0]          ; [DPU_V7M3_PIPE] |1711|  ; [ORIG 16-BIT INS]
    4512 00000554 6070F400          AND       A1, A1, #3840         ; [DPU_V7M3_PIPE] |1711|  ; [KEEP 32-BIT INS]
    4513 00000558 0A00              LSRS      A1, A1, #8            ; [DPU_V7M3_PIPE] |1711|  ; [ORIG 16-BIT INS]
    4514 0000055a 1E40              SUBS      A1, A1, #1            ; [DPU_V7M3_PIPE] |1711|  ; [ORIG 16-BIT INS]
    4515 0000055c 6108              STR       A1, [A2, #16]         ; [DPU_V7M3_PIPE] |1711|  ; [ORIG 16-BIT INS]
    4516                            .dwpsn  file "../driverlib/hibernate.c",line 1712,column 5,is_stmt,isa 1
    4517                    ;----------------------------------------------------------------------
    4518                    ; 1712 | psTime->tm_mday = (ui32Date & HIB_CAL1_DOM_M) >> HIB_CAL1_DOM_S;       
    4519                    ;----------------------------------------------------------------------
    4520 0000055e 9801              LDR       A1, [SP, #4]          ; [DPU_V7M3_PIPE] |1712|  ; [ORIG 16-BIT INS]
    4521 00000560 9900              LDR       A2, [SP, #0]          ; [DPU_V7M3_PIPE] |1712|  ; [ORIG 16-BIT INS]
    4522 00000562 001FF000          AND       A1, A1, #31           ; [DPU_V7M3_PIPE] |1712|  ; [KEEP 32-BIT INS]
    4523 00000566 60C8              STR       A1, [A2, #12]         ; [DPU_V7M3_PIPE] |1712|  ; [ORIG 16-BIT INS]
    4524                            .dwpsn  file "../driverlib/hibernate.c",line 1713,column 5,is_stmt,isa 1
    4525                    ;----------------------------------------------------------------------
    4526                    ; 1713 | psTime->tm_wday = (ui32Date & HIB_CAL1_DOW_M) >> HIB_CAL1_DOW_S;       
    4527                    ;----------------------------------------------------------------------
    4528 00000568 9801              LDR       A1, [SP, #4]          ; [DPU_V7M3_PIPE] |1713|  ; [ORIG 16-BIT INS]
    4529 0000056a 9900              LDR       A2, [SP, #0]          ; [DPU_V7M3_PIPE] |1713|  ; [ORIG 16-BIT INS]
    4530 0000056c 60E0F000          AND       A1, A1, #117440512    ; [DPU_V7M3_PIPE] |1713|  ; [KEEP 32-BIT INS]
    4531 00000570 0E00              LSRS      A1, A1, #24           ; [DPU_V7M3_PIPE] |1713|  ; [ORIG 16-BIT INS]
    4532 00000572 6188              STR       A1, [A2, #24]         ; [DPU_V7M3_PIPE] |1713|  ; [ORIG 16-BIT INS]
    4533                            .dwpsn  file "../driverlib/hibernate.c",line 1714,column 5,is_stmt,isa 1
    4534                    ;----------------------------------------------------------------------
    4535                    ; 1714 | psTime->tm_year = ((ui32Date & HIB_CAL1_YEAR_M) >> HIB_CAL1_YEAR_S) + 1
    4536                    ;     | 00;                                                                    
    4537                    ;----------------------------------------------------------------------
    4538 00000574 9801              LDR       A1, [SP, #4]          ; [DPU_V7M3_PIPE] |1714|  ; [ORIG 16-BIT INS]
    4539 00000576 9900              LDR       A2, [SP, #0]          ; [DPU_V7M3_PIPE] |1714|  ; [ORIG 16-BIT INS]
    4540 00000578 00FEF400          AND       A1, A1, #8323072      ; [DPU_V7M3_PIPE] |1714|  ; [KEEP 32-BIT INS]
    4541 0000057c 0C00              LSRS      A1, A1, #16           ; [DPU_V7M3_PIPE] |1714|  ; [ORIG 16-BIT INS]
    4542 0000057e 3064              ADDS      A1, A1, #100          ; [DPU_V7M3_PIPE] |1714|  ; [ORIG 16-BIT INS]
    4543 00000580 6148              STR       A1, [A2, #20]         ; [DPU_V7M3_PIPE] |1714|  ; [ORIG 16-BIT INS]
    4544                            .dwpsn  file "../driverlib/hibernate.c",line 1715,column 5,is_stmt,isa 1
    4545                    ;----------------------------------------------------------------------
    4546                    ; 1715 | psTime->tm_hour = (ui32Time & HIB_CAL0_HR_M) >> HIB_CAL0_HR_S;         
    4547                    ; 1717 | //                                                                     
    4548                    ; 1718 | // Fix up the hour in the non-24-hour mode and the time is in PM.      
    4549                    ; 1719 | //                                                                     
    4550                    ;----------------------------------------------------------------------
    4551 00000582 9802              LDR       A1, [SP, #8]          ; [DPU_V7M3_PIPE] |1715|  ; [ORIG 16-BIT INS]
TI ARM Assembler Unix v18.1.1 Fri Jul  3 20:08:24 2020

Tools Copyright (c) 1996-2017 Texas Instruments Incorporated
hibernate.asm                                                        PAGE   84

    4552 00000584 9900              LDR       A2, [SP, #0]          ; [DPU_V7M3_PIPE] |1715|  ; [ORIG 16-BIT INS]
    4553 00000586 10F8F400          AND       A1, A1, #2031616      ; [DPU_V7M3_PIPE] |1715|  ; [KEEP 32-BIT INS]
    4554 0000058a 0C00              LSRS      A1, A1, #16           ; [DPU_V7M3_PIPE] |1715|  ; [ORIG 16-BIT INS]
    4555 0000058c 6088              STR       A1, [A2, #8]          ; [DPU_V7M3_PIPE] |1715|  ; [ORIG 16-BIT INS]
    4556                            .dwpsn  file "../driverlib/hibernate.c",line 1720,column 5,is_stmt,isa 1
    4557                    ;----------------------------------------------------------------------
    4558                    ; 1720 | if(((HWREG(HIB_CALCTL) & HIB_CALCTL_CAL24) == 0) &&                    
    4559                    ; 1721 |    (ui32Time & HIB_CAL0_AMPM))                                         
    4560                    ;----------------------------------------------------------------------
    4561 0000058e 483A              LDR       A1, $C$CON23          ; [DPU_V7M3_PIPE] |1720|  ; [ORIG 16-BIT INS]
    4562 00000590 6800              LDR       A1, [A1, #0]          ; [DPU_V7M3_PIPE] |1720|  ; [ORIG 16-BIT INS]
    4563 00000592 08C0              LSRS      A1, A1, #3            ; [DPU_V7M3_PIPE] |1720|  ; [ORIG 16-BIT INS]
    4564 00000594 D206              BCS       ||$C$L35||            ; [DPU_V7M3_PIPE] |1720|  ; [ORIG 16-BIT INS]
    4565                            ; BRANCHCC OCCURS {||$C$L35||}   ; [] |1720| 
    4566                    ;* --------------------------------------------------------------------------*
    4567 00000596 9802              LDR       A1, [SP, #8]          ; [DPU_V7M3_PIPE] |1720|  ; [ORIG 16-BIT INS]
    4568 00000598 0DC0              LSRS      A1, A1, #23           ; [DPU_V7M3_PIPE] |1720|  ; [ORIG 16-BIT INS]
    4569 0000059a D303              BCC       ||$C$L35||            ; [DPU_V7M3_PIPE] |1720|  ; [ORIG 16-BIT INS]
    4570                            ; BRANCHCC OCCURS {||$C$L35||}   ; [] |1720| 
    4571                    ;* --------------------------------------------------------------------------*
    4572                            .dwpsn  file "../driverlib/hibernate.c",line 1723,column 9,is_stmt,isa 1
    4573                    ;----------------------------------------------------------------------
    4574                    ; 1723 | psTime->tm_hour += 12;                                                 
    4575                    ;----------------------------------------------------------------------
    4576 0000059c 9900              LDR       A2, [SP, #0]          ; [DPU_V7M3_PIPE] |1723|  ; [ORIG 16-BIT INS]
    4577 0000059e 6888              LDR       A1, [A2, #8]          ; [DPU_V7M3_PIPE] |1723|  ; [ORIG 16-BIT INS]
    4578 000005a0 300C              ADDS      A1, A1, #12           ; [DPU_V7M3_PIPE] |1723|  ; [ORIG 16-BIT INS]
    4579 000005a2 6088              STR       A1, [A2, #8]          ; [DPU_V7M3_PIPE] |1723|  ; [ORIG 16-BIT INS]
    4580                    ;* --------------------------------------------------------------------------*
    4581 000005a4           ||$C$L35||:    
    4582                            .dwpsn  file "../driverlib/hibernate.c",line 1726,column 5,is_stmt,isa 1
    4583                    ;----------------------------------------------------------------------
    4584                    ; 1726 | return(0);                                                             
    4585                    ;----------------------------------------------------------------------
    4586 000005a4 2000              MOVS      A1, #0                ; [DPU_V7M3_PIPE] |1726|  ; [ORIG 16-BIT INS]
    4587                    ;* --------------------------------------------------------------------------*
    4588 000005a6           ||$C$L36||:    
    4589                            .dwpsn  file "../driverlib/hibernate.c",line 1727,column 1,is_stmt,isa 1
    4590 000005a6 B004              ADD       SP, SP, #16           ; [DPU_V7M3_PIPE]  ; [ORIG 16-BIT INS]
    4591                            .dwcfi  cfa_offset, 0
    4592                    $C$DW$186       .dwtag  DW_TAG_TI_branch
    4593                            .dwattr $C$DW$186, DW_AT_low_pc(0x00)
    4594                            .dwattr $C$DW$186, DW_AT_TI_return
    4595                    
    4596 000005a8 4770              BX        LR                    ; [DPU_V7M3_PIPE]  ; [ORIG 16-BIT INS]
    4597                            ; BRANCH OCCURS                  ; [] 
    4598                            .dwattr $C$DW$181, DW_AT_TI_end_file("../driverlib/hibernate.c")
    4599                            .dwattr $C$DW$181, DW_AT_TI_end_line(0x6bf)
    4600                            .dwattr $C$DW$181, DW_AT_TI_end_column(0x01)
    4601                            .dwendentry
    4602                            .dwendtag $C$DW$181
    4603                    
    4604 000005aa                   .sect   ".text"
    4605                            .clink
    4606                            .thumbfunc HibernateCalendarMatchSet
TI ARM Assembler Unix v18.1.1 Fri Jul  3 20:08:24 2020

Tools Copyright (c) 1996-2017 Texas Instruments Incorporated
hibernate.asm                                                        PAGE   85

    4607 000005aa                   .thumb
    4608                            .global HibernateCalendarMatchSet
    4609                    
    4610                    $C$DW$187       .dwtag  DW_TAG_subprogram
    4611                            .dwattr $C$DW$187, DW_AT_name("HibernateCalendarMatchSet")
    4612                            .dwattr $C$DW$187, DW_AT_low_pc(HibernateCalendarMatchSet)
    4613                            .dwattr $C$DW$187, DW_AT_high_pc(0x00)
    4614                            .dwattr $C$DW$187, DW_AT_TI_symbol_name("HibernateCalendarMatchSet")
    4615                            .dwattr $C$DW$187, DW_AT_external
    4616                            .dwattr $C$DW$187, DW_AT_TI_begin_file("../driverlib/hibernate.c")
    4617                            .dwattr $C$DW$187, DW_AT_TI_begin_line(0x6dd)
    4618                            .dwattr $C$DW$187, DW_AT_TI_begin_column(0x01)
    4619                            .dwattr $C$DW$187, DW_AT_decl_file("../driverlib/hibernate.c")
    4620                            .dwattr $C$DW$187, DW_AT_decl_line(0x6dd)
    4621                            .dwattr $C$DW$187, DW_AT_decl_column(0x01)
    4622                            .dwattr $C$DW$187, DW_AT_TI_max_frame_size(0x10)
    4623                            .dwpsn  file "../driverlib/hibernate.c",line 1758,column 1,is_stmt,address HibernateCalendarMa
    4624                    
    4625                            .dwfde $C$DW$CIE, HibernateCalendarMatchSet
    4626                    $C$DW$188       .dwtag  DW_TAG_formal_parameter
    4627                            .dwattr $C$DW$188, DW_AT_name("ui32Index")
    4628                            .dwattr $C$DW$188, DW_AT_TI_symbol_name("ui32Index")
    4629                            .dwattr $C$DW$188, DW_AT_type(*$C$DW$T$33)
    4630                            .dwattr $C$DW$188, DW_AT_location[DW_OP_reg0]
    4631                    
    4632                    $C$DW$189       .dwtag  DW_TAG_formal_parameter
    4633                            .dwattr $C$DW$189, DW_AT_name("psTime")
    4634                            .dwattr $C$DW$189, DW_AT_TI_symbol_name("psTime")
    4635                            .dwattr $C$DW$189, DW_AT_type(*$C$DW$T$42)
    4636                            .dwattr $C$DW$189, DW_AT_location[DW_OP_reg1]
    4637                    
    4638                    ;----------------------------------------------------------------------
    4639                    ; 1757 | HibernateCalendarMatchSet(uint32_t ui32Index, struct tm *psTime)       
    4640                    ;----------------------------------------------------------------------
    4641                    
    4642                    ;*****************************************************************************
    4643                    ;* FUNCTION NAME: HibernateCalendarMatchSet                                  *
    4644                    ;*                                                                           *
    4645                    ;*   Regs Modified     : A1,A2,A3,A4,SP,LR,SR,FPEXC,FPSCR                    *
    4646                    ;*   Regs Used         : A1,A2,A3,A4,SP,LR,SR,FPEXC,FPSCR                    *
    4647                    ;*   Local Frame Size  : 0 Args + 8 Auto + 4 Save = 12 byte                  *
    4648                    ;*****************************************************************************
    4649 000005aa           HibernateCalendarMatchSet:
    4650                    ;* --------------------------------------------------------------------------*
    4651                            .dwcfi  cfa_offset, 0
    4652 000005aa B50E              PUSH      {A2, A3, A4, LR}      ; [DPU_V7M3_PIPE]  ; [ORIG 16-BIT INS]
    4653                            .dwcfi  cfa_offset, 16
    4654                            .dwcfi  save_reg_to_mem, 14, -4
    4655                            .dwcfi  save_reg_to_mem, 3, -8
    4656                            .dwcfi  save_reg_to_mem, 2, -12
    4657                            .dwcfi  save_reg_to_mem, 1, -16
    4658                    $C$DW$190       .dwtag  DW_TAG_variable
    4659                            .dwattr $C$DW$190, DW_AT_name("ui32Index")
    4660                            .dwattr $C$DW$190, DW_AT_TI_symbol_name("ui32Index")
    4661                            .dwattr $C$DW$190, DW_AT_type(*$C$DW$T$33)
TI ARM Assembler Unix v18.1.1 Fri Jul  3 20:08:24 2020

Tools Copyright (c) 1996-2017 Texas Instruments Incorporated
hibernate.asm                                                        PAGE   86

    4662                            .dwattr $C$DW$190, DW_AT_location[DW_OP_breg13 0]
    4663                    
    4664                    $C$DW$191       .dwtag  DW_TAG_variable
    4665                            .dwattr $C$DW$191, DW_AT_name("psTime")
    4666                            .dwattr $C$DW$191, DW_AT_TI_symbol_name("psTime")
    4667                            .dwattr $C$DW$191, DW_AT_type(*$C$DW$T$42)
    4668                            .dwattr $C$DW$191, DW_AT_location[DW_OP_breg13 4]
    4669                    
    4670                    ;----------------------------------------------------------------------
    4671                    ; 1759 | //                                                                     
    4672                    ; 1760 | // Set the Match value.                                                
    4673                    ; 1761 | //                                                                     
    4674                    ;----------------------------------------------------------------------
    4675 000005ac 9101              STR       A2, [SP, #4]          ; [DPU_V7M3_PIPE] |1758|  ; [ORIG 16-BIT INS]
    4676 000005ae 9000              STR       A1, [SP, #0]          ; [DPU_V7M3_PIPE] |1758|  ; [ORIG 16-BIT INS]
    4677                            .dwpsn  file "../driverlib/hibernate.c",line 1762,column 5,is_stmt,isa 1
    4678                    ;----------------------------------------------------------------------
    4679                    ; 1762 | _HibernateCalendarSet(HIB_CALM0, psTime);                              
    4680                    ;----------------------------------------------------------------------
    4681 000005b0 4852              LDR       A1, $C$CON24          ; [DPU_V7M3_PIPE] |1762|  ; [ORIG 16-BIT INS]
    4682 000005b2 9901              LDR       A2, [SP, #4]          ; [DPU_V7M3_PIPE] |1762|  ; [ORIG 16-BIT INS]
    4683                    $C$DW$192       .dwtag  DW_TAG_TI_branch
    4684                            .dwattr $C$DW$192, DW_AT_low_pc(0x00)
    4685                            .dwattr $C$DW$192, DW_AT_name("_HibernateCalendarSet")
    4686                            .dwattr $C$DW$192, DW_AT_TI_call
    4687                    
    4688 000005b4 FFFEF7FF!         BL        _HibernateCalendarSet ; [DPU_V7M3_PIPE] |1762|  ; [KEEP 32-BIT INS]
    4689                            ; CALL OCCURS {_HibernateCalendarSet }  ; [] |1762| 
    4690                            .dwpsn  file "../driverlib/hibernate.c",line 1763,column 1,is_stmt,isa 1
    4691                    $C$DW$193       .dwtag  DW_TAG_TI_branch
    4692                            .dwattr $C$DW$193, DW_AT_low_pc(0x00)
    4693                            .dwattr $C$DW$193, DW_AT_TI_return
    4694                    
    4695 000005b8 BD0E              POP       {A2, A3, A4, PC}      ; [DPU_V7M3_PIPE]  ; [ORIG 16-BIT INS]
    4696                            .dwcfi  cfa_offset, 0
    4697                            .dwcfi  restore_reg, 3
    4698                            .dwcfi  restore_reg, 2
    4699                            .dwcfi  restore_reg, 1
    4700                            ; BRANCH OCCURS                  ; [] 
    4701                            .dwattr $C$DW$187, DW_AT_TI_end_file("../driverlib/hibernate.c")
    4702                            .dwattr $C$DW$187, DW_AT_TI_end_line(0x6e3)
    4703                            .dwattr $C$DW$187, DW_AT_TI_end_column(0x01)
    4704                            .dwendentry
    4705                            .dwendtag $C$DW$187
    4706                    
    4707                    ;******************************************************************************
    4708                    ;* CONSTANT TABLE                                                             *
    4709                    ;******************************************************************************
    4710 000005ba                   .sect   ".text"
    4711                            .align  4
    4712 000005ba C01C46C0  ||$C$CON17||:   .bits   1074774044,32
         000005be 0000400F 
    4713                            .align  4
    4714 000005be C018400F  ||$C$CON18||:   .bits   1074774040,32
         000005c2 0000400F 
TI ARM Assembler Unix v18.1.1 Fri Jul  3 20:08:24 2020

Tools Copyright (c) 1996-2017 Texas Instruments Incorporated
hibernate.asm                                                        PAGE   87

    4715                            .align  4
    4716 000005c2 C020400F  ||$C$CON19||:   .bits   1074774048,32
         000005c6 0000400F 
    4717                            .align  4
    4718 000005c6 C010400F  ||$C$CON20||:   .bits   1074774032,32
         000005ca 0000400F 
    4719                            .align  4
    4720 000005ca 0100400F  ||$C$CON21||:   .bits   1073742080,32
         000005ce 00004000 
    4721                            .align  4
    4722 000005ce FEFF4000  ||$C$CON22||:   .bits   -1073742081,32
         000005d2 0000BFFF 
    4723 000005d4                   .sect   ".text"
    4724                            .clink
    4725                            .thumbfunc HibernateCalendarMatchGet
    4726 000005d4                   .thumb
    4727                            .global HibernateCalendarMatchGet
    4728                    
    4729                    $C$DW$194       .dwtag  DW_TAG_subprogram
    4730                            .dwattr $C$DW$194, DW_AT_name("HibernateCalendarMatchGet")
    4731                            .dwattr $C$DW$194, DW_AT_low_pc(HibernateCalendarMatchGet)
    4732                            .dwattr $C$DW$194, DW_AT_high_pc(0x00)
    4733                            .dwattr $C$DW$194, DW_AT_TI_symbol_name("HibernateCalendarMatchGet")
    4734                            .dwattr $C$DW$194, DW_AT_external
    4735                            .dwattr $C$DW$194, DW_AT_TI_begin_file("../driverlib/hibernate.c")
    4736                            .dwattr $C$DW$194, DW_AT_TI_begin_line(0x700)
    4737                            .dwattr $C$DW$194, DW_AT_TI_begin_column(0x01)
    4738                            .dwattr $C$DW$194, DW_AT_decl_file("../driverlib/hibernate.c")
    4739                            .dwattr $C$DW$194, DW_AT_decl_line(0x700)
    4740                            .dwattr $C$DW$194, DW_AT_decl_column(0x01)
    4741                            .dwattr $C$DW$194, DW_AT_TI_max_frame_size(0x10)
    4742                            .dwpsn  file "../driverlib/hibernate.c",line 1793,column 1,is_stmt,address HibernateCalendarMa
    4743                    
    4744                            .dwfde $C$DW$CIE, HibernateCalendarMatchGet
    4745                    $C$DW$195       .dwtag  DW_TAG_formal_parameter
    4746                            .dwattr $C$DW$195, DW_AT_name("ui32Index")
    4747                            .dwattr $C$DW$195, DW_AT_TI_symbol_name("ui32Index")
    4748                            .dwattr $C$DW$195, DW_AT_type(*$C$DW$T$33)
    4749                            .dwattr $C$DW$195, DW_AT_location[DW_OP_reg0]
    4750                    
    4751                    $C$DW$196       .dwtag  DW_TAG_formal_parameter
    4752                            .dwattr $C$DW$196, DW_AT_name("psTime")
    4753                            .dwattr $C$DW$196, DW_AT_TI_symbol_name("psTime")
    4754                            .dwattr $C$DW$196, DW_AT_type(*$C$DW$T$42)
    4755                            .dwattr $C$DW$196, DW_AT_location[DW_OP_reg1]
    4756                    
    4757                    ;----------------------------------------------------------------------
    4758                    ; 1792 | HibernateCalendarMatchGet(uint32_t ui32Index, struct tm *psTime)       
    4759                    ;----------------------------------------------------------------------
    4760                    
    4761                    ;*****************************************************************************
    4762                    ;* FUNCTION NAME: HibernateCalendarMatchGet                                  *
    4763                    ;*                                                                           *
    4764                    ;*   Regs Modified     : A1,A2,SP,SR                                         *
    4765                    ;*   Regs Used         : A1,A2,SP,LR,SR                                      *
TI ARM Assembler Unix v18.1.1 Fri Jul  3 20:08:24 2020

Tools Copyright (c) 1996-2017 Texas Instruments Incorporated
hibernate.asm                                                        PAGE   88

    4766                    ;*   Local Frame Size  : 0 Args + 16 Auto + 0 Save = 16 byte                 *
    4767                    ;*****************************************************************************
    4768 000005d4           HibernateCalendarMatchGet:
    4769                    ;* --------------------------------------------------------------------------*
    4770                            .dwcfi  cfa_offset, 0
    4771 000005d4 0D10F1AD          SUB       SP, SP, #16           ; [DPU_V7M3_PIPE]  ; [KEEP 32-BIT INS]
    4772                            .dwcfi  cfa_offset, 16
    4773                    $C$DW$197       .dwtag  DW_TAG_variable
    4774                            .dwattr $C$DW$197, DW_AT_name("ui32Index")
    4775                            .dwattr $C$DW$197, DW_AT_TI_symbol_name("ui32Index")
    4776                            .dwattr $C$DW$197, DW_AT_type(*$C$DW$T$33)
    4777                            .dwattr $C$DW$197, DW_AT_location[DW_OP_breg13 0]
    4778                    
    4779                    $C$DW$198       .dwtag  DW_TAG_variable
    4780                            .dwattr $C$DW$198, DW_AT_name("psTime")
    4781                            .dwattr $C$DW$198, DW_AT_TI_symbol_name("psTime")
    4782                            .dwattr $C$DW$198, DW_AT_type(*$C$DW$T$42)
    4783                            .dwattr $C$DW$198, DW_AT_location[DW_OP_breg13 4]
    4784                    
    4785                    $C$DW$199       .dwtag  DW_TAG_variable
    4786                            .dwattr $C$DW$199, DW_AT_name("ui32Date")
    4787                            .dwattr $C$DW$199, DW_AT_TI_symbol_name("ui32Date")
    4788                            .dwattr $C$DW$199, DW_AT_type(*$C$DW$T$33)
    4789                            .dwattr $C$DW$199, DW_AT_location[DW_OP_breg13 8]
    4790                    
    4791                    $C$DW$200       .dwtag  DW_TAG_variable
    4792                            .dwattr $C$DW$200, DW_AT_name("ui32Time")
    4793                            .dwattr $C$DW$200, DW_AT_TI_symbol_name("ui32Time")
    4794                            .dwattr $C$DW$200, DW_AT_type(*$C$DW$T$33)
    4795                            .dwattr $C$DW$200, DW_AT_location[DW_OP_breg13 12]
    4796                    
    4797                    ;----------------------------------------------------------------------
    4798                    ; 1794 | uint32_t ui32Date, ui32Time;                                           
    4799                    ; 1796 | ASSERT(HWREG(HIB_CALCTL) & HIB_CALCTL_CALEN);                          
    4800                    ; 1798 | //                                                                     
    4801                    ; 1799 | // Get the date field.                                                 
    4802                    ; 1800 | //                                                                     
    4803                    ;----------------------------------------------------------------------
    4804 000005d8 9101              STR       A2, [SP, #4]          ; [DPU_V7M3_PIPE] |1793|  ; [ORIG 16-BIT INS]
    4805 000005da 9000              STR       A1, [SP, #0]          ; [DPU_V7M3_PIPE] |1793|  ; [ORIG 16-BIT INS]
    4806                            .dwpsn  file "../driverlib/hibernate.c",line 1801,column 5,is_stmt,isa 1
    4807                    ;----------------------------------------------------------------------
    4808                    ; 1801 | ui32Date = HWREG(HIB_CALM1);                                           
    4809                    ; 1803 | //                                                                     
    4810                    ; 1804 | // Get the time field.                                                 
    4811                    ; 1805 | //                                                                     
    4812                    ;----------------------------------------------------------------------
    4813 000005dc 4886              LDR       A1, $C$CON28          ; [DPU_V7M3_PIPE] |1801|  ; [ORIG 16-BIT INS]
    4814 000005de 6800              LDR       A1, [A1, #0]          ; [DPU_V7M3_PIPE] |1801|  ; [ORIG 16-BIT INS]
    4815 000005e0 9002              STR       A1, [SP, #8]          ; [DPU_V7M3_PIPE] |1801|  ; [ORIG 16-BIT INS]
    4816                            .dwpsn  file "../driverlib/hibernate.c",line 1806,column 5,is_stmt,isa 1
    4817                    ;----------------------------------------------------------------------
    4818                    ; 1806 | ui32Time = HWREG(HIB_CALM0);                                           
    4819                    ; 1808 | //                                                                     
    4820                    ; 1809 | // Populate the date and time fields in the psTime structure.          
TI ARM Assembler Unix v18.1.1 Fri Jul  3 20:08:24 2020

Tools Copyright (c) 1996-2017 Texas Instruments Incorporated
hibernate.asm                                                        PAGE   89

    4821                    ; 1810 | //                                                                     
    4822                    ;----------------------------------------------------------------------
    4823 000005e2 4846              LDR       A1, $C$CON24          ; [DPU_V7M3_PIPE] |1806|  ; [ORIG 16-BIT INS]
    4824 000005e4 6800              LDR       A1, [A1, #0]          ; [DPU_V7M3_PIPE] |1806|  ; [ORIG 16-BIT INS]
    4825 000005e6 9003              STR       A1, [SP, #12]         ; [DPU_V7M3_PIPE] |1806|  ; [ORIG 16-BIT INS]
    4826                            .dwpsn  file "../driverlib/hibernate.c",line 1811,column 5,is_stmt,isa 1
    4827                    ;----------------------------------------------------------------------
    4828                    ; 1811 | if((ui32Time & HIB_CAL0_MIN_M) == HIB_CAL0_MIN_M)                      
    4829                    ; 1813 |     //                                                                 
    4830                    ; 1814 |     // Match every minute                                              
    4831                    ; 1815 |     //                                                                 
    4832                    ;----------------------------------------------------------------------
    4833 000005e8 9803              LDR       A1, [SP, #12]         ; [DPU_V7M3_PIPE] |1811|  ; [ORIG 16-BIT INS]
    4834 000005ea 507CF400          AND       A1, A1, #16128        ; [DPU_V7M3_PIPE] |1811|  ; [KEEP 32-BIT INS]
    4835 000005ee 5F7CF5B0          CMP       A1, #16128            ; [DPU_V7M3_PIPE] |1811|  ; [KEEP 32-BIT INS]
    4836 000005f2 D103              BNE       ||$C$L37||            ; [DPU_V7M3_PIPE] |1811|  ; [ORIG 16-BIT INS]
    4837                            ; BRANCHCC OCCURS {||$C$L37||}   ; [] |1811| 
    4838                    ;* --------------------------------------------------------------------------*
    4839                            .dwpsn  file "../driverlib/hibernate.c",line 1816,column 9,is_stmt,isa 1
    4840                    ;----------------------------------------------------------------------
    4841                    ; 1816 | psTime->tm_min = 0xFF;                                                 
    4842                    ;----------------------------------------------------------------------
    4843 000005f4 9801              LDR       A1, [SP, #4]          ; [DPU_V7M3_PIPE] |1816|  ; [ORIG 16-BIT INS]
    4844 000005f6 21FF              MOVS      A2, #255              ; [DPU_V7M3_PIPE] |1816|  ; [ORIG 16-BIT INS]
    4845 000005f8 6041              STR       A2, [A1, #4]          ; [DPU_V7M3_PIPE] |1816|  ; [ORIG 16-BIT INS]
    4846                            .dwpsn  file "../driverlib/hibernate.c",line 1817,column 5,is_stmt,isa 1
    4847                    ;----------------------------------------------------------------------
    4848                    ; 1818 | else                                                                   
    4849                    ;----------------------------------------------------------------------
    4850 000005fa E005              B         ||$C$L38||            ; [DPU_V7M3_PIPE] |1817|  ; [ORIG 16-BIT INS]
    4851                            ; BRANCH OCCURS {||$C$L38||}     ; [] |1817| 
    4852                    ;* --------------------------------------------------------------------------*
    4853 000005fc           ||$C$L37||:    
    4854                            .dwpsn  file "../driverlib/hibernate.c",line 1820,column 9,is_stmt,isa 1
    4855                    ;----------------------------------------------------------------------
    4856                    ; 1820 | psTime->tm_min = (ui32Time & HIB_CAL0_MIN_M) >> HIB_CAL0_MIN_S;        
    4857                    ;----------------------------------------------------------------------
    4858 000005fc 9803              LDR       A1, [SP, #12]         ; [DPU_V7M3_PIPE] |1820|  ; [ORIG 16-BIT INS]
    4859 000005fe 9901              LDR       A2, [SP, #4]          ; [DPU_V7M3_PIPE] |1820|  ; [ORIG 16-BIT INS]
    4860 00000600 507CF400          AND       A1, A1, #16128        ; [DPU_V7M3_PIPE] |1820|  ; [KEEP 32-BIT INS]
    4861 00000604 0A00              LSRS      A1, A1, #8            ; [DPU_V7M3_PIPE] |1820|  ; [ORIG 16-BIT INS]
    4862 00000606 6048              STR       A1, [A2, #4]          ; [DPU_V7M3_PIPE] |1820|  ; [ORIG 16-BIT INS]
    4863                    ;* --------------------------------------------------------------------------*
    4864 00000608           ||$C$L38||:    
    4865                            .dwpsn  file "../driverlib/hibernate.c",line 1823,column 5,is_stmt,isa 1
    4866                    ;----------------------------------------------------------------------
    4867                    ; 1823 | if((ui32Time & HIB_CAL0_SEC_M) == HIB_CAL0_SEC_M)                      
    4868                    ; 1825 |     //                                                                 
    4869                    ; 1826 |     // Match every second                                              
    4870                    ; 1827 |     //                                                                 
    4871                    ;----------------------------------------------------------------------
    4872 00000608 9803              LDR       A1, [SP, #12]         ; [DPU_V7M3_PIPE] |1823|  ; [ORIG 16-BIT INS]
    4873 0000060a 003FF000          AND       A1, A1, #63           ; [DPU_V7M3_PIPE] |1823|  ; [KEEP 32-BIT INS]
    4874 0000060e 283F              CMP       A1, #63               ; [DPU_V7M3_PIPE] |1823|  ; [ORIG 16-BIT INS]
    4875 00000610 D103              BNE       ||$C$L39||            ; [DPU_V7M3_PIPE] |1823|  ; [ORIG 16-BIT INS]
TI ARM Assembler Unix v18.1.1 Fri Jul  3 20:08:24 2020

Tools Copyright (c) 1996-2017 Texas Instruments Incorporated
hibernate.asm                                                        PAGE   90

    4876                            ; BRANCHCC OCCURS {||$C$L39||}   ; [] |1823| 
    4877                    ;* --------------------------------------------------------------------------*
    4878                            .dwpsn  file "../driverlib/hibernate.c",line 1828,column 9,is_stmt,isa 1
    4879                    ;----------------------------------------------------------------------
    4880                    ; 1828 | psTime->tm_sec = 0xFF;                                                 
    4881                    ;----------------------------------------------------------------------
    4882 00000612 9801              LDR       A1, [SP, #4]          ; [DPU_V7M3_PIPE] |1828|  ; [ORIG 16-BIT INS]
    4883 00000614 21FF              MOVS      A2, #255              ; [DPU_V7M3_PIPE] |1828|  ; [ORIG 16-BIT INS]
    4884 00000616 6001              STR       A2, [A1, #0]          ; [DPU_V7M3_PIPE] |1828|  ; [ORIG 16-BIT INS]
    4885                            .dwpsn  file "../driverlib/hibernate.c",line 1829,column 5,is_stmt,isa 1
    4886                    ;----------------------------------------------------------------------
    4887                    ; 1830 | else                                                                   
    4888                    ;----------------------------------------------------------------------
    4889 00000618 E004              B         ||$C$L40||            ; [DPU_V7M3_PIPE] |1829|  ; [ORIG 16-BIT INS]
    4890                            ; BRANCH OCCURS {||$C$L40||}     ; [] |1829| 
    4891                    ;* --------------------------------------------------------------------------*
    4892 0000061a           ||$C$L39||:    
    4893                            .dwpsn  file "../driverlib/hibernate.c",line 1832,column 9,is_stmt,isa 1
    4894                    ;----------------------------------------------------------------------
    4895                    ; 1832 | psTime->tm_sec = (ui32Time & HIB_CAL0_SEC_M) >> HIB_CAL0_SEC_S;        
    4896                    ;----------------------------------------------------------------------
    4897 0000061a 9803              LDR       A1, [SP, #12]         ; [DPU_V7M3_PIPE] |1832|  ; [ORIG 16-BIT INS]
    4898 0000061c 9901              LDR       A2, [SP, #4]          ; [DPU_V7M3_PIPE] |1832|  ; [ORIG 16-BIT INS]
    4899 0000061e 003FF000          AND       A1, A1, #63           ; [DPU_V7M3_PIPE] |1832|  ; [KEEP 32-BIT INS]
    4900 00000622 6008              STR       A1, [A2, #0]          ; [DPU_V7M3_PIPE] |1832|  ; [ORIG 16-BIT INS]
    4901                    ;* --------------------------------------------------------------------------*
    4902 00000624           ||$C$L40||:    
    4903                            .dwpsn  file "../driverlib/hibernate.c",line 1835,column 5,is_stmt,isa 1
    4904                    ;----------------------------------------------------------------------
    4905                    ; 1835 | if((ui32Time & HIB_CAL0_HR_M) == HIB_CAL0_HR_M)                        
    4906                    ; 1837 |     //                                                                 
    4907                    ; 1838 |     // Match every hour                                                
    4908                    ; 1839 |     //                                                                 
    4909                    ;----------------------------------------------------------------------
    4910 00000624 9803              LDR       A1, [SP, #12]         ; [DPU_V7M3_PIPE] |1835|  ; [ORIG 16-BIT INS]
    4911 00000626 10F8F400          AND       A1, A1, #2031616      ; [DPU_V7M3_PIPE] |1835|  ; [KEEP 32-BIT INS]
    4912 0000062a 1FF8F5B0          CMP       A1, #2031616          ; [DPU_V7M3_PIPE] |1835|  ; [KEEP 32-BIT INS]
    4913 0000062e D103              BNE       ||$C$L41||            ; [DPU_V7M3_PIPE] |1835|  ; [ORIG 16-BIT INS]
    4914                            ; BRANCHCC OCCURS {||$C$L41||}   ; [] |1835| 
    4915                    ;* --------------------------------------------------------------------------*
    4916                            .dwpsn  file "../driverlib/hibernate.c",line 1840,column 9,is_stmt,isa 1
    4917                    ;----------------------------------------------------------------------
    4918                    ; 1840 | psTime->tm_hour = 0xFF;                                                
    4919                    ;----------------------------------------------------------------------
    4920 00000630 9801              LDR       A1, [SP, #4]          ; [DPU_V7M3_PIPE] |1840|  ; [ORIG 16-BIT INS]
    4921 00000632 21FF              MOVS      A2, #255              ; [DPU_V7M3_PIPE] |1840|  ; [ORIG 16-BIT INS]
    4922 00000634 6081              STR       A2, [A1, #8]          ; [DPU_V7M3_PIPE] |1840|  ; [ORIG 16-BIT INS]
    4923                            .dwpsn  file "../driverlib/hibernate.c",line 1841,column 5,is_stmt,isa 1
    4924                    ;----------------------------------------------------------------------
    4925                    ; 1842 | else                                                                   
    4926                    ;----------------------------------------------------------------------
    4927 00000636 E005              B         ||$C$L42||            ; [DPU_V7M3_PIPE] |1841|  ; [ORIG 16-BIT INS]
    4928                            ; BRANCH OCCURS {||$C$L42||}     ; [] |1841| 
    4929                    ;* --------------------------------------------------------------------------*
    4930 00000638           ||$C$L41||:    
TI ARM Assembler Unix v18.1.1 Fri Jul  3 20:08:24 2020

Tools Copyright (c) 1996-2017 Texas Instruments Incorporated
hibernate.asm                                                        PAGE   91

    4931                            .dwpsn  file "../driverlib/hibernate.c",line 1844,column 9,is_stmt,isa 1
    4932                    ;----------------------------------------------------------------------
    4933                    ; 1844 | psTime->tm_hour = (ui32Time & HIB_CAL0_HR_M) >> HIB_CAL0_HR_S;         
    4934                    ;----------------------------------------------------------------------
    4935 00000638 9803              LDR       A1, [SP, #12]         ; [DPU_V7M3_PIPE] |1844|  ; [ORIG 16-BIT INS]
    4936 0000063a 9901              LDR       A2, [SP, #4]          ; [DPU_V7M3_PIPE] |1844|  ; [ORIG 16-BIT INS]
    4937 0000063c 10F8F400          AND       A1, A1, #2031616      ; [DPU_V7M3_PIPE] |1844|  ; [KEEP 32-BIT INS]
    4938 00000640 0C00              LSRS      A1, A1, #16           ; [DPU_V7M3_PIPE] |1844|  ; [ORIG 16-BIT INS]
    4939 00000642 6088              STR       A1, [A2, #8]          ; [DPU_V7M3_PIPE] |1844|  ; [ORIG 16-BIT INS]
    4940                    ;* --------------------------------------------------------------------------*
    4941 00000644           ||$C$L42||:    
    4942                            .dwpsn  file "../driverlib/hibernate.c",line 1847,column 5,is_stmt,isa 1
    4943                    ;----------------------------------------------------------------------
    4944                    ; 1847 | if((ui32Date & HIB_CAL1_DOM_M) == 0)                                   
    4945                    ; 1849 |     //                                                                 
    4946                    ; 1850 |     // Match every day                                                 
    4947                    ; 1851 |     //                                                                 
    4948                    ;----------------------------------------------------------------------
    4949 00000644 9802              LDR       A1, [SP, #8]          ; [DPU_V7M3_PIPE] |1847|  ; [ORIG 16-BIT INS]
    4950 00000646 0F1FF010          TST       A1, #31               ; [DPU_V7M3_PIPE] |1847|  ; [KEEP 32-BIT INS]
    4951 0000064a D103              BNE       ||$C$L43||            ; [DPU_V7M3_PIPE] |1847|  ; [ORIG 16-BIT INS]
    4952                            ; BRANCHCC OCCURS {||$C$L43||}   ; [] |1847| 
    4953                    ;* --------------------------------------------------------------------------*
    4954                            .dwpsn  file "../driverlib/hibernate.c",line 1852,column 9,is_stmt,isa 1
    4955                    ;----------------------------------------------------------------------
    4956                    ; 1852 | psTime->tm_mday = 0xFF;                                                
    4957                    ;----------------------------------------------------------------------
    4958 0000064c 9801              LDR       A1, [SP, #4]          ; [DPU_V7M3_PIPE] |1852|  ; [ORIG 16-BIT INS]
    4959 0000064e 21FF              MOVS      A2, #255              ; [DPU_V7M3_PIPE] |1852|  ; [ORIG 16-BIT INS]
    4960 00000650 60C1              STR       A2, [A1, #12]         ; [DPU_V7M3_PIPE] |1852|  ; [ORIG 16-BIT INS]
    4961                            .dwpsn  file "../driverlib/hibernate.c",line 1853,column 5,is_stmt,isa 1
    4962                    ;----------------------------------------------------------------------
    4963                    ; 1854 | else                                                                   
    4964                    ;----------------------------------------------------------------------
    4965 00000652 E004              B         ||$C$L44||            ; [DPU_V7M3_PIPE] |1853|  ; [ORIG 16-BIT INS]
    4966                            ; BRANCH OCCURS {||$C$L44||}     ; [] |1853| 
    4967                    ;* --------------------------------------------------------------------------*
    4968 00000654           ||$C$L43||:    
    4969                            .dwpsn  file "../driverlib/hibernate.c",line 1856,column 9,is_stmt,isa 1
    4970                    ;----------------------------------------------------------------------
    4971                    ; 1856 | psTime->tm_mday = (ui32Date & HIB_CAL1_DOM_M) >> HIB_CAL1_DOM_S;       
    4972                    ; 1859 | //                                                                     
    4973                    ; 1860 | // Fix up the hour in the non-24-hour mode and the time is in PM.      
    4974                    ; 1861 | //                                                                     
    4975                    ;----------------------------------------------------------------------
    4976 00000654 9802              LDR       A1, [SP, #8]          ; [DPU_V7M3_PIPE] |1856|  ; [ORIG 16-BIT INS]
    4977 00000656 9901              LDR       A2, [SP, #4]          ; [DPU_V7M3_PIPE] |1856|  ; [ORIG 16-BIT INS]
    4978 00000658 001FF000          AND       A1, A1, #31           ; [DPU_V7M3_PIPE] |1856|  ; [KEEP 32-BIT INS]
    4979 0000065c 60C8              STR       A1, [A2, #12]         ; [DPU_V7M3_PIPE] |1856|  ; [ORIG 16-BIT INS]
    4980                    ;* --------------------------------------------------------------------------*
    4981 0000065e           ||$C$L44||:    
    4982                            .dwpsn  file "../driverlib/hibernate.c",line 1862,column 5,is_stmt,isa 1
    4983                    ;----------------------------------------------------------------------
    4984                    ; 1862 | if(((HWREG(HIB_CALCTL) & HIB_CALCTL_CAL24) == 0) &&                    
    4985                    ; 1863 |    (ui32Time & HIB_CAL0_AMPM))                                         
TI ARM Assembler Unix v18.1.1 Fri Jul  3 20:08:24 2020

Tools Copyright (c) 1996-2017 Texas Instruments Incorporated
hibernate.asm                                                        PAGE   92

    4986                    ;----------------------------------------------------------------------
    4987 0000065e 4806              LDR       A1, $C$CON23          ; [DPU_V7M3_PIPE] |1862|  ; [ORIG 16-BIT INS]
    4988 00000660 6800              LDR       A1, [A1, #0]          ; [DPU_V7M3_PIPE] |1862|  ; [ORIG 16-BIT INS]
    4989 00000662 08C0              LSRS      A1, A1, #3            ; [DPU_V7M3_PIPE] |1862|  ; [ORIG 16-BIT INS]
    4990 00000664 D206              BCS       ||$C$L45||            ; [DPU_V7M3_PIPE] |1862|  ; [ORIG 16-BIT INS]
    4991                            ; BRANCHCC OCCURS {||$C$L45||}   ; [] |1862| 
    4992                    ;* --------------------------------------------------------------------------*
    4993 00000666 9803              LDR       A1, [SP, #12]         ; [DPU_V7M3_PIPE] |1862|  ; [ORIG 16-BIT INS]
    4994 00000668 0DC0              LSRS      A1, A1, #23           ; [DPU_V7M3_PIPE] |1862|  ; [ORIG 16-BIT INS]
    4995 0000066a D303              BCC       ||$C$L45||            ; [DPU_V7M3_PIPE] |1862|  ; [ORIG 16-BIT INS]
    4996                            ; BRANCHCC OCCURS {||$C$L45||}   ; [] |1862| 
    4997                    ;* --------------------------------------------------------------------------*
    4998                            .dwpsn  file "../driverlib/hibernate.c",line 1865,column 9,is_stmt,isa 1
    4999                    ;----------------------------------------------------------------------
    5000                    ; 1865 | psTime->tm_hour += 12;                                                 
    5001                    ;----------------------------------------------------------------------
    5002 0000066c 9901              LDR       A2, [SP, #4]          ; [DPU_V7M3_PIPE] |1865|  ; [ORIG 16-BIT INS]
    5003 0000066e 6888              LDR       A1, [A2, #8]          ; [DPU_V7M3_PIPE] |1865|  ; [ORIG 16-BIT INS]
    5004 00000670 300C              ADDS      A1, A1, #12           ; [DPU_V7M3_PIPE] |1865|  ; [ORIG 16-BIT INS]
    5005 00000672 6088              STR       A1, [A2, #8]          ; [DPU_V7M3_PIPE] |1865|  ; [ORIG 16-BIT INS]
    5006                            .dwpsn  file "../driverlib/hibernate.c",line 1867,column 1,is_stmt,isa 1
    5007                    ;* --------------------------------------------------------------------------*
    5008 00000674           ||$C$L45||:    
    5009 00000674 B004              ADD       SP, SP, #16           ; [DPU_V7M3_PIPE]  ; [ORIG 16-BIT INS]
    5010                            .dwcfi  cfa_offset, 0
    5011                    $C$DW$201       .dwtag  DW_TAG_TI_branch
    5012                            .dwattr $C$DW$201, DW_AT_low_pc(0x00)
    5013                            .dwattr $C$DW$201, DW_AT_TI_return
    5014                    
    5015 00000676 4770              BX        LR                    ; [DPU_V7M3_PIPE]  ; [ORIG 16-BIT INS]
    5016                            ; BRANCH OCCURS                  ; [] 
    5017                            .dwattr $C$DW$194, DW_AT_TI_end_file("../driverlib/hibernate.c")
    5018                            .dwattr $C$DW$194, DW_AT_TI_end_line(0x74b)
    5019                            .dwattr $C$DW$194, DW_AT_TI_end_column(0x01)
    5020                            .dwendentry
    5021                            .dwendtag $C$DW$194
    5022                    
    5023                    ;******************************************************************************
    5024                    ;* CONSTANT TABLE                                                             *
    5025                    ;******************************************************************************
    5026 00000678                   .sect   ".text"
    5027                            .align  4
    5028 00000678 400FC300  ||$C$CON23||:   .bits   1074774784,32
    5029 0000067c                   .sect   ".text"
    5030                            .clink
    5031                            .thumbfunc HibernateTamperEventsConfig
    5032 0000067c                   .thumb
    5033                            .global HibernateTamperEventsConfig
    5034                    
    5035                    $C$DW$202       .dwtag  DW_TAG_subprogram
    5036                            .dwattr $C$DW$202, DW_AT_name("HibernateTamperEventsConfig")
    5037                            .dwattr $C$DW$202, DW_AT_low_pc(HibernateTamperEventsConfig)
    5038                            .dwattr $C$DW$202, DW_AT_high_pc(0x00)
    5039                            .dwattr $C$DW$202, DW_AT_TI_symbol_name("HibernateTamperEventsConfig")
    5040                            .dwattr $C$DW$202, DW_AT_external
TI ARM Assembler Unix v18.1.1 Fri Jul  3 20:08:24 2020

Tools Copyright (c) 1996-2017 Texas Instruments Incorporated
hibernate.asm                                                        PAGE   93

    5041                            .dwattr $C$DW$202, DW_AT_TI_begin_file("../driverlib/hibernate.c")
    5042                            .dwattr $C$DW$202, DW_AT_TI_begin_line(0x76e)
    5043                            .dwattr $C$DW$202, DW_AT_TI_begin_column(0x01)
    5044                            .dwattr $C$DW$202, DW_AT_decl_file("../driverlib/hibernate.c")
    5045                            .dwattr $C$DW$202, DW_AT_decl_line(0x76e)
    5046                            .dwattr $C$DW$202, DW_AT_decl_column(0x01)
    5047                            .dwattr $C$DW$202, DW_AT_TI_max_frame_size(0x10)
    5048                            .dwpsn  file "../driverlib/hibernate.c",line 1903,column 1,is_stmt,address HibernateTamperEven
    5049                    
    5050                            .dwfde $C$DW$CIE, HibernateTamperEventsConfig
    5051                    $C$DW$203       .dwtag  DW_TAG_formal_parameter
    5052                            .dwattr $C$DW$203, DW_AT_name("ui32Config")
    5053                            .dwattr $C$DW$203, DW_AT_TI_symbol_name("ui32Config")
    5054                            .dwattr $C$DW$203, DW_AT_type(*$C$DW$T$33)
    5055                            .dwattr $C$DW$203, DW_AT_location[DW_OP_reg0]
    5056                    
    5057                    ;----------------------------------------------------------------------
    5058                    ; 1902 | HibernateTamperEventsConfig(uint32_t ui32Config)                       
    5059                    ;----------------------------------------------------------------------
    5060                    
    5061                    ;*****************************************************************************
    5062                    ;* FUNCTION NAME: HibernateTamperEventsConfig                                *
    5063                    ;*                                                                           *
    5064                    ;*   Regs Modified     : A1,A2,A3,A4,SP,LR,SR,FPEXC,FPSCR                    *
    5065                    ;*   Regs Used         : A1,A2,A3,A4,SP,LR,SR,FPEXC,FPSCR                    *
    5066                    ;*   Local Frame Size  : 0 Args + 8 Auto + 4 Save = 12 byte                  *
    5067                    ;*****************************************************************************
    5068 0000067c           HibernateTamperEventsConfig:
    5069                    ;* --------------------------------------------------------------------------*
    5070                            .dwcfi  cfa_offset, 0
    5071 0000067c B50E              PUSH      {A2, A3, A4, LR}      ; [DPU_V7M3_PIPE]  ; [ORIG 16-BIT INS]
    5072                            .dwcfi  cfa_offset, 16
    5073                            .dwcfi  save_reg_to_mem, 14, -4
    5074                            .dwcfi  save_reg_to_mem, 3, -8
    5075                            .dwcfi  save_reg_to_mem, 2, -12
    5076                            .dwcfi  save_reg_to_mem, 1, -16
    5077                    $C$DW$204       .dwtag  DW_TAG_variable
    5078                            .dwattr $C$DW$204, DW_AT_name("ui32Config")
    5079                            .dwattr $C$DW$204, DW_AT_TI_symbol_name("ui32Config")
    5080                            .dwattr $C$DW$204, DW_AT_type(*$C$DW$T$33)
    5081                            .dwattr $C$DW$204, DW_AT_location[DW_OP_breg13 0]
    5082                    
    5083                    $C$DW$205       .dwtag  DW_TAG_variable
    5084                            .dwattr $C$DW$205, DW_AT_name("ui32Temp")
    5085                            .dwattr $C$DW$205, DW_AT_TI_symbol_name("ui32Temp")
    5086                            .dwattr $C$DW$205, DW_AT_type(*$C$DW$T$33)
    5087                            .dwattr $C$DW$205, DW_AT_location[DW_OP_breg13 4]
    5088                    
    5089                    ;----------------------------------------------------------------------
    5090                    ; 1904 | uint32_t ui32Temp;                                                     
    5091                    ; 1906 | //                                                                     
    5092                    ; 1907 | // Mask out the on-event configuration options.                        
    5093                    ; 1908 | //                                                                     
    5094                    ;----------------------------------------------------------------------
    5095 0000067e 9000              STR       A1, [SP, #0]          ; [DPU_V7M3_PIPE] |1903|  ; [ORIG 16-BIT INS]
TI ARM Assembler Unix v18.1.1 Fri Jul  3 20:08:24 2020

Tools Copyright (c) 1996-2017 Texas Instruments Incorporated
hibernate.asm                                                        PAGE   94

    5096                            .dwpsn  file "../driverlib/hibernate.c",line 1909,column 5,is_stmt,isa 1
    5097                    ;----------------------------------------------------------------------
    5098                    ; 1909 | ui32Temp = (HWREG(HIB_TPCTL) & ~HIB_TPCTL_MEMCLR_M);                   
    5099                    ; 1911 | //                                                                     
    5100                    ; 1912 | // Unlock the tamper registers.                                        
    5101                    ; 1913 | //                                                                     
    5102                    ;----------------------------------------------------------------------
    5103 00000680 48A0              LDR       A1, $C$CON32          ; [DPU_V7M3_PIPE] |1909|  ; [ORIG 16-BIT INS]
    5104 00000682 6800              LDR       A1, [A1, #0]          ; [DPU_V7M3_PIPE] |1909|  ; [ORIG 16-BIT INS]
    5105 00000684 7040F420          BIC       A1, A1, #768          ; [DPU_V7M3_PIPE] |1909|  ; [KEEP 32-BIT INS]
    5106 00000688 9001              STR       A1, [SP, #4]          ; [DPU_V7M3_PIPE] |1909|  ; [ORIG 16-BIT INS]
    5107                            .dwpsn  file "../driverlib/hibernate.c",line 1914,column 5,is_stmt,isa 1
    5108                    ;----------------------------------------------------------------------
    5109                    ; 1914 | HWREG(HIB_LOCK) = HIB_LOCK_HIBLOCK_KEY;                                
    5110                    ;----------------------------------------------------------------------
    5111 0000068a 494A              LDR       A2, $C$CON30          ; [DPU_V7M3_PIPE] |1914|  ; [ORIG 16-BIT INS]
    5112 0000068c 4848              LDR       A1, $C$CON29          ; [DPU_V7M3_PIPE] |1914|  ; [ORIG 16-BIT INS]
    5113 0000068e 6008              STR       A1, [A2, #0]          ; [DPU_V7M3_PIPE] |1914|  ; [ORIG 16-BIT INS]
    5114                            .dwpsn  file "../driverlib/hibernate.c",line 1915,column 5,is_stmt,isa 1
    5115                    ;----------------------------------------------------------------------
    5116                    ; 1915 | _HibernateWriteComplete();                                             
    5117                    ; 1917 | //                                                                     
    5118                    ; 1918 | // Set the on-event configuration.                                     
    5119                    ; 1919 | //                                                                     
    5120                    ;----------------------------------------------------------------------
    5121                    $C$DW$206       .dwtag  DW_TAG_TI_branch
    5122                            .dwattr $C$DW$206, DW_AT_low_pc(0x00)
    5123                            .dwattr $C$DW$206, DW_AT_name("_HibernateWriteComplete")
    5124                            .dwattr $C$DW$206, DW_AT_TI_call
    5125                    
    5126 00000690 FFFEF7FF!         BL        _HibernateWriteComplete ; [DPU_V7M3_PIPE] |1915|  ; [KEEP 32-BIT INS]
    5127                            ; CALL OCCURS {_HibernateWriteComplete }  ; [] |1915| 
    5128                            .dwpsn  file "../driverlib/hibernate.c",line 1920,column 5,is_stmt,isa 1
    5129                    ;----------------------------------------------------------------------
    5130                    ; 1920 | HWREG(HIB_TPCTL) = (ui32Temp | ui32Config);                            
    5131                    ; 1922 | //                                                                     
    5132                    ; 1923 | // Wait for write completion.                                          
    5133                    ; 1924 | //                                                                     
    5134                    ;----------------------------------------------------------------------
    5135 00000694 9A01              LDR       A3, [SP, #4]          ; [DPU_V7M3_PIPE] |1920|  ; [ORIG 16-BIT INS]
    5136 00000696 9800              LDR       A1, [SP, #0]          ; [DPU_V7M3_PIPE] |1920|  ; [ORIG 16-BIT INS]
    5137 00000698 499A              LDR       A2, $C$CON32          ; [DPU_V7M3_PIPE] |1920|  ; [ORIG 16-BIT INS]
    5138 0000069a 4310              ORRS      A1, A1, A3            ; [DPU_V7M3_PIPE] |1920|  ; [ORIG 16-BIT INS]
    5139 0000069c 6008              STR       A1, [A2, #0]          ; [DPU_V7M3_PIPE] |1920|  ; [ORIG 16-BIT INS]
    5140                            .dwpsn  file "../driverlib/hibernate.c",line 1925,column 5,is_stmt,isa 1
    5141                    ;----------------------------------------------------------------------
    5142                    ; 1925 | _HibernateWriteComplete();                                             
    5143                    ; 1927 | //                                                                     
    5144                    ; 1928 | // Lock the tamper registers.                                          
    5145                    ; 1929 | //                                                                     
    5146                    ;----------------------------------------------------------------------
    5147                    $C$DW$207       .dwtag  DW_TAG_TI_branch
    5148                            .dwattr $C$DW$207, DW_AT_low_pc(0x00)
    5149                            .dwattr $C$DW$207, DW_AT_name("_HibernateWriteComplete")
    5150                            .dwattr $C$DW$207, DW_AT_TI_call
TI ARM Assembler Unix v18.1.1 Fri Jul  3 20:08:24 2020

Tools Copyright (c) 1996-2017 Texas Instruments Incorporated
hibernate.asm                                                        PAGE   95

    5151                    
    5152 0000069e FFFEF7FF!         BL        _HibernateWriteComplete ; [DPU_V7M3_PIPE] |1925|  ; [KEEP 32-BIT INS]
    5153                            ; CALL OCCURS {_HibernateWriteComplete }  ; [] |1925| 
    5154                            .dwpsn  file "../driverlib/hibernate.c",line 1930,column 5,is_stmt,isa 1
    5155                    ;----------------------------------------------------------------------
    5156                    ; 1930 | HWREG(HIB_LOCK) = 0;                                                   
    5157                    ;----------------------------------------------------------------------
    5158 000006a2 4944              LDR       A2, $C$CON30          ; [DPU_V7M3_PIPE] |1930|  ; [ORIG 16-BIT INS]
    5159 000006a4 2000              MOVS      A1, #0                ; [DPU_V7M3_PIPE] |1930|  ; [ORIG 16-BIT INS]
    5160 000006a6 6008              STR       A1, [A2, #0]          ; [DPU_V7M3_PIPE] |1930|  ; [ORIG 16-BIT INS]
    5161                            .dwpsn  file "../driverlib/hibernate.c",line 1931,column 5,is_stmt,isa 1
    5162                    ;----------------------------------------------------------------------
    5163                    ; 1931 | _HibernateWriteComplete();                                             
    5164                    ;----------------------------------------------------------------------
    5165                    $C$DW$208       .dwtag  DW_TAG_TI_branch
    5166                            .dwattr $C$DW$208, DW_AT_low_pc(0x00)
    5167                            .dwattr $C$DW$208, DW_AT_name("_HibernateWriteComplete")
    5168                            .dwattr $C$DW$208, DW_AT_TI_call
    5169                    
    5170 000006a8 FFFEF7FF!         BL        _HibernateWriteComplete ; [DPU_V7M3_PIPE] |1931|  ; [KEEP 32-BIT INS]
    5171                            ; CALL OCCURS {_HibernateWriteComplete }  ; [] |1931| 
    5172                            .dwpsn  file "../driverlib/hibernate.c",line 1932,column 1,is_stmt,isa 1
    5173                    $C$DW$209       .dwtag  DW_TAG_TI_branch
    5174                            .dwattr $C$DW$209, DW_AT_low_pc(0x00)
    5175                            .dwattr $C$DW$209, DW_AT_TI_return
    5176                    
    5177 000006ac BD0E              POP       {A2, A3, A4, PC}      ; [DPU_V7M3_PIPE]  ; [ORIG 16-BIT INS]
    5178                            .dwcfi  cfa_offset, 0
    5179                            .dwcfi  restore_reg, 3
    5180                            .dwcfi  restore_reg, 2
    5181                            .dwcfi  restore_reg, 1
    5182                            ; BRANCH OCCURS                  ; [] 
    5183                            .dwattr $C$DW$202, DW_AT_TI_end_file("../driverlib/hibernate.c")
    5184                            .dwattr $C$DW$202, DW_AT_TI_end_line(0x78c)
    5185                            .dwattr $C$DW$202, DW_AT_TI_end_column(0x01)
    5186                            .dwendentry
    5187                            .dwendtag $C$DW$202
    5188                    
    5189 000006ae                   .sect   ".text"
    5190                            .clink
    5191                            .thumbfunc HibernateTamperEnable
    5192 000006ae                   .thumb
    5193                            .global HibernateTamperEnable
    5194                    
    5195                    $C$DW$210       .dwtag  DW_TAG_subprogram
    5196                            .dwattr $C$DW$210, DW_AT_name("HibernateTamperEnable")
    5197                            .dwattr $C$DW$210, DW_AT_low_pc(HibernateTamperEnable)
    5198                            .dwattr $C$DW$210, DW_AT_high_pc(0x00)
    5199                            .dwattr $C$DW$210, DW_AT_TI_symbol_name("HibernateTamperEnable")
    5200                            .dwattr $C$DW$210, DW_AT_external
    5201                            .dwattr $C$DW$210, DW_AT_TI_begin_file("../driverlib/hibernate.c")
    5202                            .dwattr $C$DW$210, DW_AT_TI_begin_line(0x79f)
    5203                            .dwattr $C$DW$210, DW_AT_TI_begin_column(0x01)
    5204                            .dwattr $C$DW$210, DW_AT_decl_file("../driverlib/hibernate.c")
    5205                            .dwattr $C$DW$210, DW_AT_decl_line(0x79f)
TI ARM Assembler Unix v18.1.1 Fri Jul  3 20:08:24 2020

Tools Copyright (c) 1996-2017 Texas Instruments Incorporated
hibernate.asm                                                        PAGE   96

    5206                            .dwattr $C$DW$210, DW_AT_decl_column(0x01)
    5207                            .dwattr $C$DW$210, DW_AT_TI_max_frame_size(0x08)
    5208                            .dwpsn  file "../driverlib/hibernate.c",line 1952,column 1,is_stmt,address HibernateTamperEnab
    5209                    
    5210                            .dwfde $C$DW$CIE, HibernateTamperEnable
    5211                    ;----------------------------------------------------------------------
    5212                    ; 1951 | HibernateTamperEnable(void)                                            
    5213                    ; 1953 | //                                                                     
    5214                    ; 1954 | // Unlock the tamper registers.                                        
    5215                    ; 1955 | //                                                                     
    5216                    ;----------------------------------------------------------------------
    5217                    
    5218                    ;*****************************************************************************
    5219                    ;* FUNCTION NAME: HibernateTamperEnable                                      *
    5220                    ;*                                                                           *
    5221                    ;*   Regs Modified     : A1,A2,A4,SP,LR,SR,FPEXC,FPSCR                       *
    5222                    ;*   Regs Used         : A1,A2,A4,SP,LR,SR,FPEXC,FPSCR                       *
    5223                    ;*   Local Frame Size  : 0 Args + 0 Auto + 4 Save = 4 byte                   *
    5224                    ;*****************************************************************************
    5225 000006ae           HibernateTamperEnable:
    5226                    ;* --------------------------------------------------------------------------*
    5227                            .dwcfi  cfa_offset, 0
    5228 000006ae B508              PUSH      {A4, LR}              ; [DPU_V7M3_PIPE]  ; [ORIG 16-BIT INS]
    5229                            .dwcfi  cfa_offset, 8
    5230                            .dwcfi  save_reg_to_mem, 14, -4
    5231                            .dwcfi  save_reg_to_mem, 3, -8
    5232                            .dwpsn  file "../driverlib/hibernate.c",line 1956,column 5,is_stmt,isa 1
    5233                    ;----------------------------------------------------------------------
    5234                    ; 1956 | HWREG(HIB_LOCK) = HIB_LOCK_HIBLOCK_KEY;                                
    5235                    ;----------------------------------------------------------------------
    5236 000006b0 483F              LDR       A1, $C$CON29          ; [DPU_V7M3_PIPE] |1956|  ; [ORIG 16-BIT INS]
    5237 000006b2 4940              LDR       A2, $C$CON30          ; [DPU_V7M3_PIPE] |1956|  ; [ORIG 16-BIT INS]
    5238 000006b4 6008              STR       A1, [A2, #0]          ; [DPU_V7M3_PIPE] |1956|  ; [ORIG 16-BIT INS]
    5239                            .dwpsn  file "../driverlib/hibernate.c",line 1957,column 5,is_stmt,isa 1
    5240                    ;----------------------------------------------------------------------
    5241                    ; 1957 | _HibernateWriteComplete();                                             
    5242                    ; 1959 | //                                                                     
    5243                    ; 1960 | // Set the tamper enable bit.                                          
    5244                    ; 1961 | //                                                                     
    5245                    ;----------------------------------------------------------------------
    5246                    $C$DW$211       .dwtag  DW_TAG_TI_branch
    5247                            .dwattr $C$DW$211, DW_AT_low_pc(0x00)
    5248                            .dwattr $C$DW$211, DW_AT_name("_HibernateWriteComplete")
    5249                            .dwattr $C$DW$211, DW_AT_TI_call
    5250                    
    5251 000006b6 FFFEF7FF!         BL        _HibernateWriteComplete ; [DPU_V7M3_PIPE] |1957|  ; [KEEP 32-BIT INS]
    5252                            ; CALL OCCURS {_HibernateWriteComplete }  ; [] |1957| 
    5253                            .dwpsn  file "../driverlib/hibernate.c",line 1962,column 5,is_stmt,isa 1
    5254                    ;----------------------------------------------------------------------
    5255                    ; 1962 | HWREG(HIB_TPCTL) |= HIB_TPCTL_TPEN;                                    
    5256                    ; 1964 | //                                                                     
    5257                    ; 1965 | // Wait for write completion.                                          
    5258                    ; 1966 | //                                                                     
    5259                    ;----------------------------------------------------------------------
    5260 000006ba 4992              LDR       A2, $C$CON32          ; [DPU_V7M3_PIPE] |1962|  ; [ORIG 16-BIT INS]
TI ARM Assembler Unix v18.1.1 Fri Jul  3 20:08:24 2020

Tools Copyright (c) 1996-2017 Texas Instruments Incorporated
hibernate.asm                                                        PAGE   97

    5261 000006bc 6808              LDR       A1, [A2, #0]          ; [DPU_V7M3_PIPE] |1962|  ; [ORIG 16-BIT INS]
    5262 000006be 0001F040          ORR       A1, A1, #1            ; [DPU_V7M3_PIPE] |1962|  ; [KEEP 32-BIT INS]
    5263 000006c2 6008              STR       A1, [A2, #0]          ; [DPU_V7M3_PIPE] |1962|  ; [ORIG 16-BIT INS]
    5264                            .dwpsn  file "../driverlib/hibernate.c",line 1967,column 5,is_stmt,isa 1
    5265                    ;----------------------------------------------------------------------
    5266                    ; 1967 | _HibernateWriteComplete();                                             
    5267                    ; 1969 | //                                                                     
    5268                    ; 1970 | // Lock the tamper registers.                                          
    5269                    ; 1971 | //                                                                     
    5270                    ;----------------------------------------------------------------------
    5271                    $C$DW$212       .dwtag  DW_TAG_TI_branch
    5272                            .dwattr $C$DW$212, DW_AT_low_pc(0x00)
    5273                            .dwattr $C$DW$212, DW_AT_name("_HibernateWriteComplete")
    5274                            .dwattr $C$DW$212, DW_AT_TI_call
    5275                    
    5276 000006c4 FFFEF7FF!         BL        _HibernateWriteComplete ; [DPU_V7M3_PIPE] |1967|  ; [KEEP 32-BIT INS]
    5277                            ; CALL OCCURS {_HibernateWriteComplete }  ; [] |1967| 
    5278                            .dwpsn  file "../driverlib/hibernate.c",line 1972,column 5,is_stmt,isa 1
    5279                    ;----------------------------------------------------------------------
    5280                    ; 1972 | HWREG(HIB_LOCK) = 0;                                                   
    5281                    ;----------------------------------------------------------------------
    5282 000006c8 493A              LDR       A2, $C$CON30          ; [DPU_V7M3_PIPE] |1972|  ; [ORIG 16-BIT INS]
    5283 000006ca 2000              MOVS      A1, #0                ; [DPU_V7M3_PIPE] |1972|  ; [ORIG 16-BIT INS]
    5284 000006cc 6008              STR       A1, [A2, #0]          ; [DPU_V7M3_PIPE] |1972|  ; [ORIG 16-BIT INS]
    5285                            .dwpsn  file "../driverlib/hibernate.c",line 1973,column 5,is_stmt,isa 1
    5286                    ;----------------------------------------------------------------------
    5287                    ; 1973 | _HibernateWriteComplete();                                             
    5288                    ;----------------------------------------------------------------------
    5289                    $C$DW$213       .dwtag  DW_TAG_TI_branch
    5290                            .dwattr $C$DW$213, DW_AT_low_pc(0x00)
    5291                            .dwattr $C$DW$213, DW_AT_name("_HibernateWriteComplete")
    5292                            .dwattr $C$DW$213, DW_AT_TI_call
    5293                    
    5294 000006ce FFFEF7FF!         BL        _HibernateWriteComplete ; [DPU_V7M3_PIPE] |1973|  ; [KEEP 32-BIT INS]
    5295                            ; CALL OCCURS {_HibernateWriteComplete }  ; [] |1973| 
    5296                            .dwpsn  file "../driverlib/hibernate.c",line 1974,column 1,is_stmt,isa 1
    5297                    $C$DW$214       .dwtag  DW_TAG_TI_branch
    5298                            .dwattr $C$DW$214, DW_AT_low_pc(0x00)
    5299                            .dwattr $C$DW$214, DW_AT_TI_return
    5300                    
    5301 000006d2 BD08              POP       {A4, PC}              ; [DPU_V7M3_PIPE]  ; [ORIG 16-BIT INS]
    5302                            .dwcfi  cfa_offset, 0
    5303                            .dwcfi  restore_reg, 3
    5304                            ; BRANCH OCCURS                  ; [] 
    5305                            .dwattr $C$DW$210, DW_AT_TI_end_file("../driverlib/hibernate.c")
    5306                            .dwattr $C$DW$210, DW_AT_TI_end_line(0x7b6)
    5307                            .dwattr $C$DW$210, DW_AT_TI_end_column(0x01)
    5308                            .dwendentry
    5309                            .dwendtag $C$DW$210
    5310                    
    5311 000006d4                   .sect   ".text"
    5312                            .clink
    5313                            .thumbfunc HibernateTamperDisable
    5314 000006d4                   .thumb
    5315                            .global HibernateTamperDisable
TI ARM Assembler Unix v18.1.1 Fri Jul  3 20:08:24 2020

Tools Copyright (c) 1996-2017 Texas Instruments Incorporated
hibernate.asm                                                        PAGE   98

    5316                    
    5317                    $C$DW$215       .dwtag  DW_TAG_subprogram
    5318                            .dwattr $C$DW$215, DW_AT_name("HibernateTamperDisable")
    5319                            .dwattr $C$DW$215, DW_AT_low_pc(HibernateTamperDisable)
    5320                            .dwattr $C$DW$215, DW_AT_high_pc(0x00)
    5321                            .dwattr $C$DW$215, DW_AT_TI_symbol_name("HibernateTamperDisable")
    5322                            .dwattr $C$DW$215, DW_AT_external
    5323                            .dwattr $C$DW$215, DW_AT_TI_begin_file("../driverlib/hibernate.c")
    5324                            .dwattr $C$DW$215, DW_AT_TI_begin_line(0x7c9)
    5325                            .dwattr $C$DW$215, DW_AT_TI_begin_column(0x01)
    5326                            .dwattr $C$DW$215, DW_AT_decl_file("../driverlib/hibernate.c")
    5327                            .dwattr $C$DW$215, DW_AT_decl_line(0x7c9)
    5328                            .dwattr $C$DW$215, DW_AT_decl_column(0x01)
    5329                            .dwattr $C$DW$215, DW_AT_TI_max_frame_size(0x08)
    5330                            .dwpsn  file "../driverlib/hibernate.c",line 1994,column 1,is_stmt,address HibernateTamperDisa
    5331                    
    5332                            .dwfde $C$DW$CIE, HibernateTamperDisable
    5333                    ;----------------------------------------------------------------------
    5334                    ; 1993 | HibernateTamperDisable(void)                                           
    5335                    ; 1995 | //                                                                     
    5336                    ; 1996 | // Unlock the tamper registers.                                        
    5337                    ; 1997 | //                                                                     
    5338                    ;----------------------------------------------------------------------
    5339                    
    5340                    ;*****************************************************************************
    5341                    ;* FUNCTION NAME: HibernateTamperDisable                                     *
    5342                    ;*                                                                           *
    5343                    ;*   Regs Modified     : A1,A2,A4,SP,LR,SR,FPEXC,FPSCR                       *
    5344                    ;*   Regs Used         : A1,A2,A4,SP,LR,SR,FPEXC,FPSCR                       *
    5345                    ;*   Local Frame Size  : 0 Args + 0 Auto + 4 Save = 4 byte                   *
    5346                    ;*****************************************************************************
    5347 000006d4           HibernateTamperDisable:
    5348                    ;* --------------------------------------------------------------------------*
    5349                            .dwcfi  cfa_offset, 0
    5350 000006d4 B508              PUSH      {A4, LR}              ; [DPU_V7M3_PIPE]  ; [ORIG 16-BIT INS]
    5351                            .dwcfi  cfa_offset, 8
    5352                            .dwcfi  save_reg_to_mem, 14, -4
    5353                            .dwcfi  save_reg_to_mem, 3, -8
    5354                            .dwpsn  file "../driverlib/hibernate.c",line 1998,column 5,is_stmt,isa 1
    5355                    ;----------------------------------------------------------------------
    5356                    ; 1998 | HWREG(HIB_LOCK) = HIB_LOCK_HIBLOCK_KEY;                                
    5357                    ;----------------------------------------------------------------------
    5358 000006d6 4836              LDR       A1, $C$CON29          ; [DPU_V7M3_PIPE] |1998|  ; [ORIG 16-BIT INS]
    5359 000006d8 4936              LDR       A2, $C$CON30          ; [DPU_V7M3_PIPE] |1998|  ; [ORIG 16-BIT INS]
    5360 000006da 6008              STR       A1, [A2, #0]          ; [DPU_V7M3_PIPE] |1998|  ; [ORIG 16-BIT INS]
    5361                            .dwpsn  file "../driverlib/hibernate.c",line 1999,column 5,is_stmt,isa 1
    5362                    ;----------------------------------------------------------------------
    5363                    ; 1999 | _HibernateWriteComplete();                                             
    5364                    ; 2001 | //                                                                     
    5365                    ; 2002 | // Clear the tamper enable bit.                                        
    5366                    ; 2003 | //                                                                     
    5367                    ;----------------------------------------------------------------------
    5368                    $C$DW$216       .dwtag  DW_TAG_TI_branch
    5369                            .dwattr $C$DW$216, DW_AT_low_pc(0x00)
    5370                            .dwattr $C$DW$216, DW_AT_name("_HibernateWriteComplete")
TI ARM Assembler Unix v18.1.1 Fri Jul  3 20:08:24 2020

Tools Copyright (c) 1996-2017 Texas Instruments Incorporated
hibernate.asm                                                        PAGE   99

    5371                            .dwattr $C$DW$216, DW_AT_TI_call
    5372                    
    5373 000006dc FFFEF7FF!         BL        _HibernateWriteComplete ; [DPU_V7M3_PIPE] |1999|  ; [KEEP 32-BIT INS]
    5374                            ; CALL OCCURS {_HibernateWriteComplete }  ; [] |1999| 
    5375                            .dwpsn  file "../driverlib/hibernate.c",line 2004,column 5,is_stmt,isa 1
    5376                    ;----------------------------------------------------------------------
    5377                    ; 2004 | HWREG(HIB_TPCTL) &= ~HIB_TPCTL_TPEN;                                   
    5378                    ; 2006 | //                                                                     
    5379                    ; 2007 | // Wait for write completion.                                          
    5380                    ; 2008 | //                                                                     
    5381                    ;----------------------------------------------------------------------
    5382 000006e0 4988              LDR       A2, $C$CON32          ; [DPU_V7M3_PIPE] |2004|  ; [ORIG 16-BIT INS]
    5383 000006e2 6808              LDR       A1, [A2, #0]          ; [DPU_V7M3_PIPE] |2004|  ; [ORIG 16-BIT INS]
    5384 000006e4 0001F020          BIC       A1, A1, #1            ; [DPU_V7M3_PIPE] |2004|  ; [KEEP 32-BIT INS]
    5385 000006e8 6008              STR       A1, [A2, #0]          ; [DPU_V7M3_PIPE] |2004|  ; [ORIG 16-BIT INS]
    5386                            .dwpsn  file "../driverlib/hibernate.c",line 2009,column 5,is_stmt,isa 1
    5387                    ;----------------------------------------------------------------------
    5388                    ; 2009 | _HibernateWriteComplete();                                             
    5389                    ; 2011 | //                                                                     
    5390                    ; 2012 | // Lock the tamper registers.                                          
    5391                    ; 2013 | //                                                                     
    5392                    ;----------------------------------------------------------------------
    5393                    $C$DW$217       .dwtag  DW_TAG_TI_branch
    5394                            .dwattr $C$DW$217, DW_AT_low_pc(0x00)
    5395                            .dwattr $C$DW$217, DW_AT_name("_HibernateWriteComplete")
    5396                            .dwattr $C$DW$217, DW_AT_TI_call
    5397                    
    5398 000006ea FFFEF7FF!         BL        _HibernateWriteComplete ; [DPU_V7M3_PIPE] |2009|  ; [KEEP 32-BIT INS]
    5399                            ; CALL OCCURS {_HibernateWriteComplete }  ; [] |2009| 
    5400                            .dwpsn  file "../driverlib/hibernate.c",line 2014,column 5,is_stmt,isa 1
    5401                    ;----------------------------------------------------------------------
    5402                    ; 2014 | HWREG(HIB_LOCK) = 0;                                                   
    5403                    ;----------------------------------------------------------------------
    5404 000006ee 4931              LDR       A2, $C$CON30          ; [DPU_V7M3_PIPE] |2014|  ; [ORIG 16-BIT INS]
    5405 000006f0 2000              MOVS      A1, #0                ; [DPU_V7M3_PIPE] |2014|  ; [ORIG 16-BIT INS]
    5406 000006f2 6008              STR       A1, [A2, #0]          ; [DPU_V7M3_PIPE] |2014|  ; [ORIG 16-BIT INS]
    5407                            .dwpsn  file "../driverlib/hibernate.c",line 2015,column 5,is_stmt,isa 1
    5408                    ;----------------------------------------------------------------------
    5409                    ; 2015 | _HibernateWriteComplete();                                             
    5410                    ;----------------------------------------------------------------------
    5411                    $C$DW$218       .dwtag  DW_TAG_TI_branch
    5412                            .dwattr $C$DW$218, DW_AT_low_pc(0x00)
    5413                            .dwattr $C$DW$218, DW_AT_name("_HibernateWriteComplete")
    5414                            .dwattr $C$DW$218, DW_AT_TI_call
    5415                    
    5416 000006f4 FFFEF7FF!         BL        _HibernateWriteComplete ; [DPU_V7M3_PIPE] |2015|  ; [KEEP 32-BIT INS]
    5417                            ; CALL OCCURS {_HibernateWriteComplete }  ; [] |2015| 
    5418                            .dwpsn  file "../driverlib/hibernate.c",line 2016,column 1,is_stmt,isa 1
    5419                    $C$DW$219       .dwtag  DW_TAG_TI_branch
    5420                            .dwattr $C$DW$219, DW_AT_low_pc(0x00)
    5421                            .dwattr $C$DW$219, DW_AT_TI_return
    5422                    
    5423 000006f8 BD08              POP       {A4, PC}              ; [DPU_V7M3_PIPE]  ; [ORIG 16-BIT INS]
    5424                            .dwcfi  cfa_offset, 0
    5425                            .dwcfi  restore_reg, 3
TI ARM Assembler Unix v18.1.1 Fri Jul  3 20:08:24 2020

Tools Copyright (c) 1996-2017 Texas Instruments Incorporated
hibernate.asm                                                        PAGE  100

    5426                            ; BRANCH OCCURS                  ; [] 
    5427                            .dwattr $C$DW$215, DW_AT_TI_end_file("../driverlib/hibernate.c")
    5428                            .dwattr $C$DW$215, DW_AT_TI_end_line(0x7e0)
    5429                            .dwattr $C$DW$215, DW_AT_TI_end_column(0x01)
    5430                            .dwendentry
    5431                            .dwendtag $C$DW$215
    5432                    
    5433                    ;******************************************************************************
    5434                    ;* CONSTANT TABLE                                                             *
    5435                    ;******************************************************************************
    5436 000006fa                   .sect   ".text"
    5437                            .align  4
    5438 000006fa C33046C0  ||$C$CON24||:   .bits   1074774832,32
         000006fe 0000400F 
    5439 00000700                   .sect   ".text"
    5440                            .clink
    5441                            .thumbfunc HibernateTamperIOEnable
    5442 00000700                   .thumb
    5443                            .global HibernateTamperIOEnable
    5444                    
    5445                    $C$DW$220       .dwtag  DW_TAG_subprogram
    5446                            .dwattr $C$DW$220, DW_AT_name("HibernateTamperIOEnable")
    5447                            .dwattr $C$DW$220, DW_AT_low_pc(HibernateTamperIOEnable)
    5448                            .dwattr $C$DW$220, DW_AT_high_pc(0x00)
    5449                            .dwattr $C$DW$220, DW_AT_TI_symbol_name("HibernateTamperIOEnable")
    5450                            .dwattr $C$DW$220, DW_AT_external
    5451                            .dwattr $C$DW$220, DW_AT_TI_begin_file("../driverlib/hibernate.c")
    5452                            .dwattr $C$DW$220, DW_AT_TI_begin_line(0x805)
    5453                            .dwattr $C$DW$220, DW_AT_TI_begin_column(0x01)
    5454                            .dwattr $C$DW$220, DW_AT_decl_file("../driverlib/hibernate.c")
    5455                            .dwattr $C$DW$220, DW_AT_decl_line(0x805)
    5456                            .dwattr $C$DW$220, DW_AT_decl_column(0x01)
    5457                            .dwattr $C$DW$220, DW_AT_TI_max_frame_size(0x18)
    5458                            .dwpsn  file "../driverlib/hibernate.c",line 2054,column 1,is_stmt,address HibernateTamperIOEn
    5459                    
    5460                            .dwfde $C$DW$CIE, HibernateTamperIOEnable
    5461                    $C$DW$221       .dwtag  DW_TAG_formal_parameter
    5462                            .dwattr $C$DW$221, DW_AT_name("ui32Input")
    5463                            .dwattr $C$DW$221, DW_AT_TI_symbol_name("ui32Input")
    5464                            .dwattr $C$DW$221, DW_AT_type(*$C$DW$T$33)
    5465                            .dwattr $C$DW$221, DW_AT_location[DW_OP_reg0]
    5466                    
    5467                    $C$DW$222       .dwtag  DW_TAG_formal_parameter
    5468                            .dwattr $C$DW$222, DW_AT_name("ui32Config")
    5469                            .dwattr $C$DW$222, DW_AT_TI_symbol_name("ui32Config")
    5470                            .dwattr $C$DW$222, DW_AT_type(*$C$DW$T$33)
    5471                            .dwattr $C$DW$222, DW_AT_location[DW_OP_reg1]
    5472                    
    5473                    ;----------------------------------------------------------------------
    5474                    ; 2053 | HibernateTamperIOEnable(uint32_t ui32Input, uint32_t ui32Config)       
    5475                    ;----------------------------------------------------------------------
    5476                    
    5477                    ;*****************************************************************************
    5478                    ;* FUNCTION NAME: HibernateTamperIOEnable                                    *
    5479                    ;*                                                                           *
TI ARM Assembler Unix v18.1.1 Fri Jul  3 20:08:24 2020

Tools Copyright (c) 1996-2017 Texas Instruments Incorporated
hibernate.asm                                                        PAGE  101

    5480                    ;*   Regs Modified     : A1,A2,A3,SP,LR,SR,FPEXC,FPSCR                       *
    5481                    ;*   Regs Used         : A1,A2,A3,SP,LR,SR,FPEXC,FPSCR                       *
    5482                    ;*   Local Frame Size  : 0 Args + 16 Auto + 4 Save = 20 byte                 *
    5483                    ;*****************************************************************************
    5484 00000700           HibernateTamperIOEnable:
    5485                    ;* --------------------------------------------------------------------------*
    5486                            .dwcfi  cfa_offset, 0
    5487 00000700 B500              PUSH      {LR}                  ; [DPU_V7M3_PIPE]  ; [ORIG 16-BIT INS]
    5488                            .dwcfi  cfa_offset, 4
    5489                            .dwcfi  save_reg_to_mem, 14, -4
    5490 00000702 0D14F1AD          SUB       SP, SP, #20           ; [DPU_V7M3_PIPE]  ; [KEEP 32-BIT INS]
    5491                            .dwcfi  cfa_offset, 24
    5492                    $C$DW$223       .dwtag  DW_TAG_variable
    5493                            .dwattr $C$DW$223, DW_AT_name("ui32Input")
    5494                            .dwattr $C$DW$223, DW_AT_TI_symbol_name("ui32Input")
    5495                            .dwattr $C$DW$223, DW_AT_type(*$C$DW$T$33)
    5496                            .dwattr $C$DW$223, DW_AT_location[DW_OP_breg13 0]
    5497                    
    5498                    $C$DW$224       .dwtag  DW_TAG_variable
    5499                            .dwattr $C$DW$224, DW_AT_name("ui32Config")
    5500                            .dwattr $C$DW$224, DW_AT_TI_symbol_name("ui32Config")
    5501                            .dwattr $C$DW$224, DW_AT_type(*$C$DW$T$33)
    5502                            .dwattr $C$DW$224, DW_AT_location[DW_OP_breg13 4]
    5503                    
    5504                    $C$DW$225       .dwtag  DW_TAG_variable
    5505                            .dwattr $C$DW$225, DW_AT_name("ui32Temp")
    5506                            .dwattr $C$DW$225, DW_AT_TI_symbol_name("ui32Temp")
    5507                            .dwattr $C$DW$225, DW_AT_type(*$C$DW$T$33)
    5508                            .dwattr $C$DW$225, DW_AT_location[DW_OP_breg13 8]
    5509                    
    5510                    $C$DW$226       .dwtag  DW_TAG_variable
    5511                            .dwattr $C$DW$226, DW_AT_name("ui32Mask")
    5512                            .dwattr $C$DW$226, DW_AT_TI_symbol_name("ui32Mask")
    5513                            .dwattr $C$DW$226, DW_AT_type(*$C$DW$T$33)
    5514                            .dwattr $C$DW$226, DW_AT_location[DW_OP_breg13 12]
    5515                    
    5516                    ;----------------------------------------------------------------------
    5517                    ; 2055 | uint32_t ui32Temp, ui32Mask;                                           
    5518                    ; 2057 | //                                                                     
    5519                    ; 2058 | // Verify parameters.                                                  
    5520                    ; 2059 | //                                                                     
    5521                    ; 2060 | ASSERT(ui32Input < 4);                                                 
    5522                    ; 2062 | //                                                                     
    5523                    ; 2063 | // Read the current tamper I/O configuration.                          
    5524                    ; 2064 | //                                                                     
    5525                    ;----------------------------------------------------------------------
    5526 00000706 9101              STR       A2, [SP, #4]          ; [DPU_V7M3_PIPE] |2054|  ; [ORIG 16-BIT INS]
    5527 00000708 9000              STR       A1, [SP, #0]          ; [DPU_V7M3_PIPE] |2054|  ; [ORIG 16-BIT INS]
    5528                            .dwpsn  file "../driverlib/hibernate.c",line 2065,column 5,is_stmt,isa 1
    5529                    ;----------------------------------------------------------------------
    5530                    ; 2065 | ui32Temp = HWREG(HIB_TPIO);                                            
    5531                    ; 2067 | //                                                                     
    5532                    ; 2068 | // Mask out configuration options for the requested input.             
    5533                    ; 2069 | //                                                                     
    5534                    ;----------------------------------------------------------------------
TI ARM Assembler Unix v18.1.1 Fri Jul  3 20:08:24 2020

Tools Copyright (c) 1996-2017 Texas Instruments Incorporated
hibernate.asm                                                        PAGE  102

    5535 0000070a 487F              LDR       A1, $C$CON33          ; [DPU_V7M3_PIPE] |2065|  ; [ORIG 16-BIT INS]
    5536 0000070c 6800              LDR       A1, [A1, #0]          ; [DPU_V7M3_PIPE] |2065|  ; [ORIG 16-BIT INS]
    5537 0000070e 9002              STR       A1, [SP, #8]          ; [DPU_V7M3_PIPE] |2065|  ; [ORIG 16-BIT INS]
    5538                            .dwpsn  file "../driverlib/hibernate.c",line 2070,column 5,is_stmt,isa 1
    5539                    ;----------------------------------------------------------------------
    5540                    ; 2070 | ui32Mask = (ui32Temp & (~((HIB_TPIO_GFLTR0 | HIB_TPIO_PUEN0 |          
    5541                    ; 2071 |                            HIB_TPIO_LEV0 | HIB_TPIO_EN0) <<            
    5542                    ; 2072 |                           (ui32Input << 3))));                         
    5543                    ; 2074 | //                                                                     
    5544                    ; 2075 | // Set tamper I/O configuration for the requested input.               
    5545                    ; 2076 | //                                                                     
    5546                    ;----------------------------------------------------------------------
    5547 00000710 9A00              LDR       A3, [SP, #0]          ; [DPU_V7M3_PIPE] |2070|  ; [ORIG 16-BIT INS]
    5548 00000712 9902              LDR       A2, [SP, #8]          ; [DPU_V7M3_PIPE] |2070|  ; [ORIG 16-BIT INS]
    5549 00000714 200F              MOVS      A1, #15               ; [DPU_V7M3_PIPE] |2070|  ; [ORIG 16-BIT INS]
    5550 00000716 00D2              LSLS      A3, A3, #3            ; [DPU_V7M3_PIPE] |2070|  ; [ORIG 16-BIT INS]
    5551 00000718 4090              LSLS      A1, A1, A3            ; [DPU_V7M3_PIPE] |2070|  ; [ORIG 16-BIT INS]
    5552 0000071a 4381              BICS      A2, A2, A1            ; [DPU_V7M3_PIPE] |2070|  ; [ORIG 16-BIT INS]
    5553 0000071c 9103              STR       A2, [SP, #12]         ; [DPU_V7M3_PIPE] |2070|  ; [ORIG 16-BIT INS]
    5554                            .dwpsn  file "../driverlib/hibernate.c",line 2077,column 5,is_stmt,isa 1
    5555                    ;----------------------------------------------------------------------
    5556                    ; 2077 | ui32Temp = (ui32Mask | ((ui32Config | HIB_TPIO_EN0) << (ui32Input << 3)
    5557                    ;     | ));                                                                    
    5558                    ; 2079 | //                                                                     
    5559                    ; 2080 | // Unlock the tamper registers.                                        
    5560                    ; 2081 | //                                                                     
    5561                    ;----------------------------------------------------------------------
    5562 0000071e 9A00              LDR       A3, [SP, #0]          ; [DPU_V7M3_PIPE] |2077|  ; [ORIG 16-BIT INS]
    5563 00000720 9801              LDR       A1, [SP, #4]          ; [DPU_V7M3_PIPE] |2077|  ; [ORIG 16-BIT INS]
    5564 00000722 9903              LDR       A2, [SP, #12]         ; [DPU_V7M3_PIPE] |2077|  ; [ORIG 16-BIT INS]
    5565 00000724 00D2              LSLS      A3, A3, #3            ; [DPU_V7M3_PIPE] |2077|  ; [ORIG 16-BIT INS]
    5566 00000726 0001F040          ORR       A1, A1, #1            ; [DPU_V7M3_PIPE] |2077|  ; [KEEP 32-BIT INS]
    5567 0000072a 4090              LSLS      A1, A1, A3            ; [DPU_V7M3_PIPE] |2077|  ; [ORIG 16-BIT INS]
    5568 0000072c 4308              ORRS      A1, A1, A2            ; [DPU_V7M3_PIPE] |2077|  ; [ORIG 16-BIT INS]
    5569 0000072e 9002              STR       A1, [SP, #8]          ; [DPU_V7M3_PIPE] |2077|  ; [ORIG 16-BIT INS]
    5570                            .dwpsn  file "../driverlib/hibernate.c",line 2082,column 5,is_stmt,isa 1
    5571                    ;----------------------------------------------------------------------
    5572                    ; 2082 | HWREG(HIB_LOCK) = HIB_LOCK_HIBLOCK_KEY;                                
    5573                    ;----------------------------------------------------------------------
    5574 00000730 481F              LDR       A1, $C$CON29          ; [DPU_V7M3_PIPE] |2082|  ; [ORIG 16-BIT INS]
    5575 00000732 4920              LDR       A2, $C$CON30          ; [DPU_V7M3_PIPE] |2082|  ; [ORIG 16-BIT INS]
    5576 00000734 6008              STR       A1, [A2, #0]          ; [DPU_V7M3_PIPE] |2082|  ; [ORIG 16-BIT INS]
    5577                            .dwpsn  file "../driverlib/hibernate.c",line 2083,column 5,is_stmt,isa 1
    5578                    ;----------------------------------------------------------------------
    5579                    ; 2083 | _HibernateWriteComplete();                                             
    5580                    ; 2085 | //                                                                     
    5581                    ; 2086 | // Write to the register.                                              
    5582                    ; 2087 | //                                                                     
    5583                    ;----------------------------------------------------------------------
    5584                    $C$DW$227       .dwtag  DW_TAG_TI_branch
    5585                            .dwattr $C$DW$227, DW_AT_low_pc(0x00)
    5586                            .dwattr $C$DW$227, DW_AT_name("_HibernateWriteComplete")
    5587                            .dwattr $C$DW$227, DW_AT_TI_call
    5588                    
    5589 00000736 FFFEF7FF!         BL        _HibernateWriteComplete ; [DPU_V7M3_PIPE] |2083|  ; [KEEP 32-BIT INS]
TI ARM Assembler Unix v18.1.1 Fri Jul  3 20:08:24 2020

Tools Copyright (c) 1996-2017 Texas Instruments Incorporated
hibernate.asm                                                        PAGE  103

    5590                            ; CALL OCCURS {_HibernateWriteComplete }  ; [] |2083| 
    5591                            .dwpsn  file "../driverlib/hibernate.c",line 2088,column 5,is_stmt,isa 1
    5592                    ;----------------------------------------------------------------------
    5593                    ; 2088 | HWREG(HIB_TPIO) = ui32Temp;                                            
    5594                    ; 2090 | //                                                                     
    5595                    ; 2091 | // Wait for write completion.                                          
    5596                    ; 2092 | //                                                                     
    5597                    ;----------------------------------------------------------------------
    5598 0000073a 4973              LDR       A2, $C$CON33          ; [DPU_V7M3_PIPE] |2088|  ; [ORIG 16-BIT INS]
    5599 0000073c 9802              LDR       A1, [SP, #8]          ; [DPU_V7M3_PIPE] |2088|  ; [ORIG 16-BIT INS]
    5600 0000073e 6008              STR       A1, [A2, #0]          ; [DPU_V7M3_PIPE] |2088|  ; [ORIG 16-BIT INS]
    5601                            .dwpsn  file "../driverlib/hibernate.c",line 2093,column 5,is_stmt,isa 1
    5602                    ;----------------------------------------------------------------------
    5603                    ; 2093 | _HibernateWriteComplete();                                             
    5604                    ; 2095 | //                                                                     
    5605                    ; 2096 | // Lock the tamper registers.                                          
    5606                    ; 2097 | //                                                                     
    5607                    ;----------------------------------------------------------------------
    5608                    $C$DW$228       .dwtag  DW_TAG_TI_branch
    5609                            .dwattr $C$DW$228, DW_AT_low_pc(0x00)
    5610                            .dwattr $C$DW$228, DW_AT_name("_HibernateWriteComplete")
    5611                            .dwattr $C$DW$228, DW_AT_TI_call
    5612                    
    5613 00000740 FFFEF7FF!         BL        _HibernateWriteComplete ; [DPU_V7M3_PIPE] |2093|  ; [KEEP 32-BIT INS]
    5614                            ; CALL OCCURS {_HibernateWriteComplete }  ; [] |2093| 
    5615                            .dwpsn  file "../driverlib/hibernate.c",line 2098,column 5,is_stmt,isa 1
    5616                    ;----------------------------------------------------------------------
    5617                    ; 2098 | HWREG(HIB_LOCK) = 0;                                                   
    5618                    ;----------------------------------------------------------------------
    5619 00000744 491B              LDR       A2, $C$CON30          ; [DPU_V7M3_PIPE] |2098|  ; [ORIG 16-BIT INS]
    5620 00000746 2000              MOVS      A1, #0                ; [DPU_V7M3_PIPE] |2098|  ; [ORIG 16-BIT INS]
    5621 00000748 6008              STR       A1, [A2, #0]          ; [DPU_V7M3_PIPE] |2098|  ; [ORIG 16-BIT INS]
    5622                            .dwpsn  file "../driverlib/hibernate.c",line 2099,column 5,is_stmt,isa 1
    5623                    ;----------------------------------------------------------------------
    5624                    ; 2099 | _HibernateWriteComplete();                                             
    5625                    ;----------------------------------------------------------------------
    5626                    $C$DW$229       .dwtag  DW_TAG_TI_branch
    5627                            .dwattr $C$DW$229, DW_AT_low_pc(0x00)
    5628                            .dwattr $C$DW$229, DW_AT_name("_HibernateWriteComplete")
    5629                            .dwattr $C$DW$229, DW_AT_TI_call
    5630                    
    5631 0000074a FFFEF7FF!         BL        _HibernateWriteComplete ; [DPU_V7M3_PIPE] |2099|  ; [KEEP 32-BIT INS]
    5632                            ; CALL OCCURS {_HibernateWriteComplete }  ; [] |2099| 
    5633                            .dwpsn  file "../driverlib/hibernate.c",line 2100,column 1,is_stmt,isa 1
    5634 0000074e B005              ADD       SP, SP, #20           ; [DPU_V7M3_PIPE]  ; [ORIG 16-BIT INS]
    5635                            .dwcfi  cfa_offset, 4
    5636                    $C$DW$230       .dwtag  DW_TAG_TI_branch
    5637                            .dwattr $C$DW$230, DW_AT_low_pc(0x00)
    5638                            .dwattr $C$DW$230, DW_AT_TI_return
    5639                    
    5640 00000750 BD00              POP       {PC}                  ; [DPU_V7M3_PIPE]  ; [ORIG 16-BIT INS]
    5641                            .dwcfi  cfa_offset, 0
    5642                            ; BRANCH OCCURS                  ; [] 
    5643                            .dwattr $C$DW$220, DW_AT_TI_end_file("../driverlib/hibernate.c")
    5644                            .dwattr $C$DW$220, DW_AT_TI_end_line(0x834)
TI ARM Assembler Unix v18.1.1 Fri Jul  3 20:08:24 2020

Tools Copyright (c) 1996-2017 Texas Instruments Incorporated
hibernate.asm                                                        PAGE  104

    5645                            .dwattr $C$DW$220, DW_AT_TI_end_column(0x01)
    5646                            .dwendentry
    5647                            .dwendtag $C$DW$220
    5648                    
    5649                    ;******************************************************************************
    5650                    ;* CONSTANT TABLE                                                             *
    5651                    ;******************************************************************************
    5652 00000752                   .sect   ".text"
    5653                            .align  4
    5654 00000752 C31046C0  ||$C$CON25||:   .bits   1074774800,32
         00000756 0000400F 
    5655 00000758                   .sect   ".text"
    5656                            .clink
    5657                            .thumbfunc HibernateTamperIODisable
    5658 00000758                   .thumb
    5659                            .global HibernateTamperIODisable
    5660                    
    5661                    $C$DW$231       .dwtag  DW_TAG_subprogram
    5662                            .dwattr $C$DW$231, DW_AT_name("HibernateTamperIODisable")
    5663                            .dwattr $C$DW$231, DW_AT_low_pc(HibernateTamperIODisable)
    5664                            .dwattr $C$DW$231, DW_AT_high_pc(0x00)
    5665                            .dwattr $C$DW$231, DW_AT_TI_symbol_name("HibernateTamperIODisable")
    5666                            .dwattr $C$DW$231, DW_AT_external
    5667                            .dwattr $C$DW$231, DW_AT_TI_begin_file("../driverlib/hibernate.c")
    5668                            .dwattr $C$DW$231, DW_AT_TI_begin_line(0x84c)
    5669                            .dwattr $C$DW$231, DW_AT_TI_begin_column(0x01)
    5670                            .dwattr $C$DW$231, DW_AT_decl_file("../driverlib/hibernate.c")
    5671                            .dwattr $C$DW$231, DW_AT_decl_line(0x84c)
    5672                            .dwattr $C$DW$231, DW_AT_decl_column(0x01)
    5673                            .dwattr $C$DW$231, DW_AT_TI_max_frame_size(0x08)
    5674                            .dwpsn  file "../driverlib/hibernate.c",line 2125,column 1,is_stmt,address HibernateTamperIODi
    5675                    
    5676                            .dwfde $C$DW$CIE, HibernateTamperIODisable
    5677                    $C$DW$232       .dwtag  DW_TAG_formal_parameter
    5678                            .dwattr $C$DW$232, DW_AT_name("ui32Input")
    5679                            .dwattr $C$DW$232, DW_AT_TI_symbol_name("ui32Input")
    5680                            .dwattr $C$DW$232, DW_AT_type(*$C$DW$T$33)
    5681                            .dwattr $C$DW$232, DW_AT_location[DW_OP_reg0]
    5682                    
    5683                    ;----------------------------------------------------------------------
    5684                    ; 2124 | HibernateTamperIODisable(uint32_t ui32Input)                           
    5685                    ;----------------------------------------------------------------------
    5686                    
    5687                    ;*****************************************************************************
    5688                    ;* FUNCTION NAME: HibernateTamperIODisable                                   *
    5689                    ;*                                                                           *
    5690                    ;*   Regs Modified     : A1,A2,A3,A4,SP,LR,SR,FPEXC,FPSCR                    *
    5691                    ;*   Regs Used         : A1,A2,A3,A4,SP,LR,SR,FPEXC,FPSCR                    *
    5692                    ;*   Local Frame Size  : 0 Args + 4 Auto + 4 Save = 8 byte                   *
    5693                    ;*****************************************************************************
    5694 00000758           HibernateTamperIODisable:
    5695                    ;* --------------------------------------------------------------------------*
    5696                            .dwcfi  cfa_offset, 0
    5697 00000758 B508              PUSH      {A4, LR}              ; [DPU_V7M3_PIPE]  ; [ORIG 16-BIT INS]
    5698                            .dwcfi  cfa_offset, 8
TI ARM Assembler Unix v18.1.1 Fri Jul  3 20:08:24 2020

Tools Copyright (c) 1996-2017 Texas Instruments Incorporated
hibernate.asm                                                        PAGE  105

    5699                            .dwcfi  save_reg_to_mem, 14, -4
    5700                            .dwcfi  save_reg_to_mem, 3, -8
    5701                    $C$DW$233       .dwtag  DW_TAG_variable
    5702                            .dwattr $C$DW$233, DW_AT_name("ui32Input")
    5703                            .dwattr $C$DW$233, DW_AT_TI_symbol_name("ui32Input")
    5704                            .dwattr $C$DW$233, DW_AT_type(*$C$DW$T$33)
    5705                            .dwattr $C$DW$233, DW_AT_location[DW_OP_breg13 0]
    5706                    
    5707                    ;----------------------------------------------------------------------
    5708                    ; 2126 | //                                                                     
    5709                    ; 2127 | // Verify parameters.                                                  
    5710                    ; 2128 | //                                                                     
    5711                    ; 2129 | ASSERT(ui32Input < 4);                                                 
    5712                    ; 2131 | //                                                                     
    5713                    ; 2132 | // Unlock the tamper registers.                                        
    5714                    ; 2133 | //                                                                     
    5715                    ;----------------------------------------------------------------------
    5716 0000075a 9000              STR       A1, [SP, #0]          ; [DPU_V7M3_PIPE] |2125|  ; [ORIG 16-BIT INS]
    5717                            .dwpsn  file "../driverlib/hibernate.c",line 2134,column 5,is_stmt,isa 1
    5718                    ;----------------------------------------------------------------------
    5719                    ; 2134 | HWREG(HIB_LOCK) = HIB_LOCK_HIBLOCK_KEY;                                
    5720                    ;----------------------------------------------------------------------
    5721 0000075c 4915              LDR       A2, $C$CON30          ; [DPU_V7M3_PIPE] |2134|  ; [ORIG 16-BIT INS]
    5722 0000075e 4814              LDR       A1, $C$CON29          ; [DPU_V7M3_PIPE] |2134|  ; [ORIG 16-BIT INS]
    5723 00000760 6008              STR       A1, [A2, #0]          ; [DPU_V7M3_PIPE] |2134|  ; [ORIG 16-BIT INS]
    5724                            .dwpsn  file "../driverlib/hibernate.c",line 2135,column 5,is_stmt,isa 1
    5725                    ;----------------------------------------------------------------------
    5726                    ; 2135 | _HibernateWriteComplete();                                             
    5727                    ; 2137 | //                                                                     
    5728                    ; 2138 | // Clear the I/O enable bit.                                           
    5729                    ; 2139 | //                                                                     
    5730                    ;----------------------------------------------------------------------
    5731                    $C$DW$234       .dwtag  DW_TAG_TI_branch
    5732                            .dwattr $C$DW$234, DW_AT_low_pc(0x00)
    5733                            .dwattr $C$DW$234, DW_AT_name("_HibernateWriteComplete")
    5734                            .dwattr $C$DW$234, DW_AT_TI_call
    5735                    
    5736 00000762 FFFEF7FF!         BL        _HibernateWriteComplete ; [DPU_V7M3_PIPE] |2135|  ; [KEEP 32-BIT INS]
    5737                            ; CALL OCCURS {_HibernateWriteComplete }  ; [] |2135| 
    5738                            .dwpsn  file "../driverlib/hibernate.c",line 2140,column 5,is_stmt,isa 1
    5739                    ;----------------------------------------------------------------------
    5740                    ; 2140 | HWREG(HIB_TPIO) &= ((~HIB_TPIO_EN0) << (ui32Input << 3));              
    5741                    ; 2142 | //                                                                     
    5742                    ; 2143 | // Wait for write completion.                                          
    5743                    ; 2144 | //                                                                     
    5744                    ;----------------------------------------------------------------------
    5745 00000766 4968              LDR       A2, $C$CON33          ; [DPU_V7M3_PIPE] |2140|  ; [ORIG 16-BIT INS]
    5746 00000768 9B00              LDR       A4, [SP, #0]          ; [DPU_V7M3_PIPE] |2140|  ; [ORIG 16-BIT INS]
    5747 0000076a 680A              LDR       A3, [A2, #0]          ; [DPU_V7M3_PIPE] |2140|  ; [ORIG 16-BIT INS]
    5748 0000076c 0001F06F          MVN       A1, #1                ; [DPU_V7M3_PIPE] |2140|  ; [KEEP 32-BIT INS]
    5749 00000770 00DB              LSLS      A4, A4, #3            ; [DPU_V7M3_PIPE] |2140|  ; [ORIG 16-BIT INS]
    5750 00000772 4098              LSLS      A1, A1, A4            ; [DPU_V7M3_PIPE] |2140|  ; [ORIG 16-BIT INS]
    5751 00000774 4010              ANDS      A1, A1, A3            ; [DPU_V7M3_PIPE] |2140|  ; [ORIG 16-BIT INS]
    5752 00000776 6008              STR       A1, [A2, #0]          ; [DPU_V7M3_PIPE] |2140|  ; [ORIG 16-BIT INS]
    5753                            .dwpsn  file "../driverlib/hibernate.c",line 2145,column 5,is_stmt,isa 1
TI ARM Assembler Unix v18.1.1 Fri Jul  3 20:08:24 2020

Tools Copyright (c) 1996-2017 Texas Instruments Incorporated
hibernate.asm                                                        PAGE  106

    5754                    ;----------------------------------------------------------------------
    5755                    ; 2145 | _HibernateWriteComplete();                                             
    5756                    ; 2147 | //                                                                     
    5757                    ; 2148 | // Lock the tamper registers.                                          
    5758                    ; 2149 | //                                                                     
    5759                    ;----------------------------------------------------------------------
    5760                    $C$DW$235       .dwtag  DW_TAG_TI_branch
    5761                            .dwattr $C$DW$235, DW_AT_low_pc(0x00)
    5762                            .dwattr $C$DW$235, DW_AT_name("_HibernateWriteComplete")
    5763                            .dwattr $C$DW$235, DW_AT_TI_call
    5764                    
    5765 00000778 FFFEF7FF!         BL        _HibernateWriteComplete ; [DPU_V7M3_PIPE] |2145|  ; [KEEP 32-BIT INS]
    5766                            ; CALL OCCURS {_HibernateWriteComplete }  ; [] |2145| 
    5767                            .dwpsn  file "../driverlib/hibernate.c",line 2150,column 5,is_stmt,isa 1
    5768                    ;----------------------------------------------------------------------
    5769                    ; 2150 | HWREG(HIB_LOCK) = 0;                                                   
    5770                    ;----------------------------------------------------------------------
    5771 0000077c 490D              LDR       A2, $C$CON30          ; [DPU_V7M3_PIPE] |2150|  ; [ORIG 16-BIT INS]
    5772 0000077e 2000              MOVS      A1, #0                ; [DPU_V7M3_PIPE] |2150|  ; [ORIG 16-BIT INS]
    5773 00000780 6008              STR       A1, [A2, #0]          ; [DPU_V7M3_PIPE] |2150|  ; [ORIG 16-BIT INS]
    5774                            .dwpsn  file "../driverlib/hibernate.c",line 2151,column 5,is_stmt,isa 1
    5775                    ;----------------------------------------------------------------------
    5776                    ; 2151 | _HibernateWriteComplete();                                             
    5777                    ;----------------------------------------------------------------------
    5778                    $C$DW$236       .dwtag  DW_TAG_TI_branch
    5779                            .dwattr $C$DW$236, DW_AT_low_pc(0x00)
    5780                            .dwattr $C$DW$236, DW_AT_name("_HibernateWriteComplete")
    5781                            .dwattr $C$DW$236, DW_AT_TI_call
    5782                    
    5783 00000782 FFFEF7FF!         BL        _HibernateWriteComplete ; [DPU_V7M3_PIPE] |2151|  ; [KEEP 32-BIT INS]
    5784                            ; CALL OCCURS {_HibernateWriteComplete }  ; [] |2151| 
    5785                            .dwpsn  file "../driverlib/hibernate.c",line 2152,column 1,is_stmt,isa 1
    5786                    $C$DW$237       .dwtag  DW_TAG_TI_branch
    5787                            .dwattr $C$DW$237, DW_AT_low_pc(0x00)
    5788                            .dwattr $C$DW$237, DW_AT_TI_return
    5789                    
    5790 00000786 BD08              POP       {A4, PC}              ; [DPU_V7M3_PIPE]  ; [ORIG 16-BIT INS]
    5791                            .dwcfi  cfa_offset, 0
    5792                            .dwcfi  restore_reg, 3
    5793                            ; BRANCH OCCURS                  ; [] 
    5794                            .dwattr $C$DW$231, DW_AT_TI_end_file("../driverlib/hibernate.c")
    5795                            .dwattr $C$DW$231, DW_AT_TI_end_line(0x868)
    5796                            .dwattr $C$DW$231, DW_AT_TI_end_column(0x01)
    5797                            .dwendentry
    5798                            .dwendtag $C$DW$231
    5799                    
    5800 00000788                   .sect   ".text"
    5801                            .clink
    5802                            .thumbfunc HibernateTamperEventsClear
    5803 00000788                   .thumb
    5804                            .global HibernateTamperEventsClear
    5805                    
    5806                    $C$DW$238       .dwtag  DW_TAG_subprogram
    5807                            .dwattr $C$DW$238, DW_AT_name("HibernateTamperEventsClear")
    5808                            .dwattr $C$DW$238, DW_AT_low_pc(HibernateTamperEventsClear)
TI ARM Assembler Unix v18.1.1 Fri Jul  3 20:08:24 2020

Tools Copyright (c) 1996-2017 Texas Instruments Incorporated
hibernate.asm                                                        PAGE  107

    5809                            .dwattr $C$DW$238, DW_AT_high_pc(0x00)
    5810                            .dwattr $C$DW$238, DW_AT_TI_symbol_name("HibernateTamperEventsClear")
    5811                            .dwattr $C$DW$238, DW_AT_external
    5812                            .dwattr $C$DW$238, DW_AT_TI_begin_file("../driverlib/hibernate.c")
    5813                            .dwattr $C$DW$238, DW_AT_TI_begin_line(0x87e)
    5814                            .dwattr $C$DW$238, DW_AT_TI_begin_column(0x01)
    5815                            .dwattr $C$DW$238, DW_AT_decl_file("../driverlib/hibernate.c")
    5816                            .dwattr $C$DW$238, DW_AT_decl_line(0x87e)
    5817                            .dwattr $C$DW$238, DW_AT_decl_column(0x01)
    5818                            .dwattr $C$DW$238, DW_AT_TI_max_frame_size(0x08)
    5819                            .dwpsn  file "../driverlib/hibernate.c",line 2175,column 1,is_stmt,address HibernateTamperEven
    5820                    
    5821                            .dwfde $C$DW$CIE, HibernateTamperEventsClear
    5822                    ;----------------------------------------------------------------------
    5823                    ; 2174 | HibernateTamperEventsClear(void)                                       
    5824                    ; 2176 | //                                                                     
    5825                    ; 2177 | // Unlock the tamper registers.                                        
    5826                    ; 2178 | //                                                                     
    5827                    ;----------------------------------------------------------------------
    5828                    
    5829                    ;*****************************************************************************
    5830                    ;* FUNCTION NAME: HibernateTamperEventsClear                                 *
    5831                    ;*                                                                           *
    5832                    ;*   Regs Modified     : A1,A2,A4,SP,LR,SR,FPEXC,FPSCR                       *
    5833                    ;*   Regs Used         : A1,A2,A4,SP,LR,SR,FPEXC,FPSCR                       *
    5834                    ;*   Local Frame Size  : 0 Args + 0 Auto + 4 Save = 4 byte                   *
    5835                    ;*****************************************************************************
    5836 00000788           HibernateTamperEventsClear:
    5837                    ;* --------------------------------------------------------------------------*
    5838                            .dwcfi  cfa_offset, 0
    5839 00000788 B508              PUSH      {A4, LR}              ; [DPU_V7M3_PIPE]  ; [ORIG 16-BIT INS]
    5840                            .dwcfi  cfa_offset, 8
    5841                            .dwcfi  save_reg_to_mem, 14, -4
    5842                            .dwcfi  save_reg_to_mem, 3, -8
    5843                            .dwpsn  file "../driverlib/hibernate.c",line 2179,column 5,is_stmt,isa 1
    5844                    ;----------------------------------------------------------------------
    5845                    ; 2179 | HWREG(HIB_LOCK) = HIB_LOCK_HIBLOCK_KEY;                                
    5846                    ;----------------------------------------------------------------------
    5847 0000078a 4809              LDR       A1, $C$CON29          ; [DPU_V7M3_PIPE] |2179|  ; [ORIG 16-BIT INS]
    5848 0000078c 4909              LDR       A2, $C$CON30          ; [DPU_V7M3_PIPE] |2179|  ; [ORIG 16-BIT INS]
    5849 0000078e 6008              STR       A1, [A2, #0]          ; [DPU_V7M3_PIPE] |2179|  ; [ORIG 16-BIT INS]
    5850                            .dwpsn  file "../driverlib/hibernate.c",line 2180,column 5,is_stmt,isa 1
    5851                    ;----------------------------------------------------------------------
    5852                    ; 2180 | _HibernateWriteComplete();                                             
    5853                    ; 2182 | //                                                                     
    5854                    ; 2183 | // Set the tamper event clear bit.                                     
    5855                    ; 2184 | //                                                                     
    5856                    ;----------------------------------------------------------------------
    5857                    $C$DW$239       .dwtag  DW_TAG_TI_branch
    5858                            .dwattr $C$DW$239, DW_AT_low_pc(0x00)
    5859                            .dwattr $C$DW$239, DW_AT_name("_HibernateWriteComplete")
    5860                            .dwattr $C$DW$239, DW_AT_TI_call
    5861                    
    5862 00000790 FFFEF7FF!         BL        _HibernateWriteComplete ; [DPU_V7M3_PIPE] |2180|  ; [KEEP 32-BIT INS]
    5863                            ; CALL OCCURS {_HibernateWriteComplete }  ; [] |2180| 
TI ARM Assembler Unix v18.1.1 Fri Jul  3 20:08:24 2020

Tools Copyright (c) 1996-2017 Texas Instruments Incorporated
hibernate.asm                                                        PAGE  108

    5864                            .dwpsn  file "../driverlib/hibernate.c",line 2185,column 5,is_stmt,isa 1
    5865                    ;----------------------------------------------------------------------
    5866                    ; 2185 | HWREG(HIB_TPCTL) |= HIB_TPCTL_TPCLR;                                   
    5867                    ; 2187 | //                                                                     
    5868                    ; 2188 | // Wait for write completion.                                          
    5869                    ; 2189 | //                                                                     
    5870                    ;----------------------------------------------------------------------
    5871 00000794 495B              LDR       A2, $C$CON32          ; [DPU_V7M3_PIPE] |2185|  ; [ORIG 16-BIT INS]
    5872 00000796 6808              LDR       A1, [A2, #0]          ; [DPU_V7M3_PIPE] |2185|  ; [ORIG 16-BIT INS]
    5873 00000798 0010F040          ORR       A1, A1, #16           ; [DPU_V7M3_PIPE] |2185|  ; [KEEP 32-BIT INS]
    5874 0000079c 6008              STR       A1, [A2, #0]          ; [DPU_V7M3_PIPE] |2185|  ; [ORIG 16-BIT INS]
    5875                            .dwpsn  file "../driverlib/hibernate.c",line 2190,column 5,is_stmt,isa 1
    5876                    ;----------------------------------------------------------------------
    5877                    ; 2190 | _HibernateWriteComplete();                                             
    5878                    ; 2192 | //                                                                     
    5879                    ; 2193 | // Lock the tamper registers.                                          
    5880                    ; 2194 | //                                                                     
    5881                    ;----------------------------------------------------------------------
    5882                    $C$DW$240       .dwtag  DW_TAG_TI_branch
    5883                            .dwattr $C$DW$240, DW_AT_low_pc(0x00)
    5884                            .dwattr $C$DW$240, DW_AT_name("_HibernateWriteComplete")
    5885                            .dwattr $C$DW$240, DW_AT_TI_call
    5886                    
    5887 0000079e FFFEF7FF!         BL        _HibernateWriteComplete ; [DPU_V7M3_PIPE] |2190|  ; [KEEP 32-BIT INS]
    5888                            ; CALL OCCURS {_HibernateWriteComplete }  ; [] |2190| 
    5889                            .dwpsn  file "../driverlib/hibernate.c",line 2195,column 5,is_stmt,isa 1
    5890                    ;----------------------------------------------------------------------
    5891                    ; 2195 | HWREG(HIB_LOCK) = 0;                                                   
    5892                    ;----------------------------------------------------------------------
    5893 000007a2 495A              LDR       A2, $C$CON34          ; [DPU_V7M3_PIPE] |2195|  ; [ORIG 16-BIT INS]
    5894 000007a4 2000              MOVS      A1, #0                ; [DPU_V7M3_PIPE] |2195|  ; [ORIG 16-BIT INS]
    5895 000007a6 6008              STR       A1, [A2, #0]          ; [DPU_V7M3_PIPE] |2195|  ; [ORIG 16-BIT INS]
    5896                            .dwpsn  file "../driverlib/hibernate.c",line 2196,column 5,is_stmt,isa 1
    5897                    ;----------------------------------------------------------------------
    5898                    ; 2196 | _HibernateWriteComplete();                                             
    5899                    ;----------------------------------------------------------------------
    5900                    $C$DW$241       .dwtag  DW_TAG_TI_branch
    5901                            .dwattr $C$DW$241, DW_AT_low_pc(0x00)
    5902                            .dwattr $C$DW$241, DW_AT_name("_HibernateWriteComplete")
    5903                            .dwattr $C$DW$241, DW_AT_TI_call
    5904                    
    5905 000007a8 FFFEF7FF!         BL        _HibernateWriteComplete ; [DPU_V7M3_PIPE] |2196|  ; [KEEP 32-BIT INS]
    5906                            ; CALL OCCURS {_HibernateWriteComplete }  ; [] |2196| 
    5907                            .dwpsn  file "../driverlib/hibernate.c",line 2197,column 1,is_stmt,isa 1
    5908                    $C$DW$242       .dwtag  DW_TAG_TI_branch
    5909                            .dwattr $C$DW$242, DW_AT_low_pc(0x00)
    5910                            .dwattr $C$DW$242, DW_AT_TI_return
    5911                    
    5912 000007ac BD08              POP       {A4, PC}              ; [DPU_V7M3_PIPE]  ; [ORIG 16-BIT INS]
    5913                            .dwcfi  cfa_offset, 0
    5914                            .dwcfi  restore_reg, 3
    5915                            ; BRANCH OCCURS                  ; [] 
    5916                            .dwattr $C$DW$238, DW_AT_TI_end_file("../driverlib/hibernate.c")
    5917                            .dwattr $C$DW$238, DW_AT_TI_end_line(0x895)
    5918                            .dwattr $C$DW$238, DW_AT_TI_end_column(0x01)
TI ARM Assembler Unix v18.1.1 Fri Jul  3 20:08:24 2020

Tools Copyright (c) 1996-2017 Texas Instruments Incorporated
hibernate.asm                                                        PAGE  109

    5919                            .dwendentry
    5920                            .dwendtag $C$DW$238
    5921                    
    5922                    ;******************************************************************************
    5923                    ;* CONSTANT TABLE                                                             *
    5924                    ;******************************************************************************
    5925 000007ae                   .sect   ".text"
    5926                            .align  4
    5927 000007ae 955446C0  ||$C$CON29||:   .bits   -1556769452,32
         000007b2 0000A335 
    5928                            .align  4
    5929 000007b2 C360A335  ||$C$CON30||:   .bits   1074774880,32
         000007b6 0000400F 
    5930 000007b8                   .sect   ".text"
    5931                            .clink
    5932                            .thumbfunc HibernateTamperEventsClearNoLock
    5933 000007b8                   .thumb
    5934                            .global HibernateTamperEventsClearNoLock
    5935                    
    5936                    $C$DW$243       .dwtag  DW_TAG_subprogram
    5937                            .dwattr $C$DW$243, DW_AT_name("HibernateTamperEventsClearNoLock")
    5938                            .dwattr $C$DW$243, DW_AT_low_pc(HibernateTamperEventsClearNoLock)
    5939                            .dwattr $C$DW$243, DW_AT_high_pc(0x00)
    5940                            .dwattr $C$DW$243, DW_AT_TI_symbol_name("HibernateTamperEventsClearNoLock")
    5941                            .dwattr $C$DW$243, DW_AT_external
    5942                            .dwattr $C$DW$243, DW_AT_TI_begin_file("../driverlib/hibernate.c")
    5943                            .dwattr $C$DW$243, DW_AT_TI_begin_line(0x8b0)
    5944                            .dwattr $C$DW$243, DW_AT_TI_begin_column(0x01)
    5945                            .dwattr $C$DW$243, DW_AT_decl_file("../driverlib/hibernate.c")
    5946                            .dwattr $C$DW$243, DW_AT_decl_line(0x8b0)
    5947                            .dwattr $C$DW$243, DW_AT_decl_column(0x01)
    5948                            .dwattr $C$DW$243, DW_AT_TI_max_frame_size(0x08)
    5949                            .dwpsn  file "../driverlib/hibernate.c",line 2225,column 1,is_stmt,address HibernateTamperEven
    5950                    
    5951                            .dwfde $C$DW$CIE, HibernateTamperEventsClearNoLock
    5952                    ;----------------------------------------------------------------------
    5953                    ; 2224 | HibernateTamperEventsClearNoLock(void)                                 
    5954                    ; 2226 | //                                                                     
    5955                    ; 2227 | // Wait for write completion.                                          
    5956                    ; 2228 | //                                                                     
    5957                    ;----------------------------------------------------------------------
    5958                    
    5959                    ;*****************************************************************************
    5960                    ;* FUNCTION NAME: HibernateTamperEventsClearNoLock                           *
    5961                    ;*                                                                           *
    5962                    ;*   Regs Modified     : A1,A2,A4,SP,LR,SR,FPEXC,FPSCR                       *
    5963                    ;*   Regs Used         : A1,A2,A4,SP,LR,SR,FPEXC,FPSCR                       *
    5964                    ;*   Local Frame Size  : 0 Args + 0 Auto + 4 Save = 4 byte                   *
    5965                    ;*****************************************************************************
    5966 000007b8           HibernateTamperEventsClearNoLock:
    5967                    ;* --------------------------------------------------------------------------*
    5968                            .dwcfi  cfa_offset, 0
    5969 000007b8 B508              PUSH      {A4, LR}              ; [DPU_V7M3_PIPE]  ; [ORIG 16-BIT INS]
    5970                            .dwcfi  cfa_offset, 8
    5971                            .dwcfi  save_reg_to_mem, 14, -4
TI ARM Assembler Unix v18.1.1 Fri Jul  3 20:08:24 2020

Tools Copyright (c) 1996-2017 Texas Instruments Incorporated
hibernate.asm                                                        PAGE  110

    5972                            .dwcfi  save_reg_to_mem, 3, -8
    5973                            .dwpsn  file "../driverlib/hibernate.c",line 2229,column 5,is_stmt,isa 1
    5974                    ;----------------------------------------------------------------------
    5975                    ; 2229 | _HibernateWriteComplete();                                             
    5976                    ; 2231 | //                                                                     
    5977                    ; 2232 | // Set the tamper event clear bit.                                     
    5978                    ; 2233 | //                                                                     
    5979                    ;----------------------------------------------------------------------
    5980                    $C$DW$244       .dwtag  DW_TAG_TI_branch
    5981                            .dwattr $C$DW$244, DW_AT_low_pc(0x00)
    5982                            .dwattr $C$DW$244, DW_AT_name("_HibernateWriteComplete")
    5983                            .dwattr $C$DW$244, DW_AT_TI_call
    5984                    
    5985 000007ba FFFEF7FF!         BL        _HibernateWriteComplete ; [DPU_V7M3_PIPE] |2229|  ; [KEEP 32-BIT INS]
    5986                            ; CALL OCCURS {_HibernateWriteComplete }  ; [] |2229| 
    5987                            .dwpsn  file "../driverlib/hibernate.c",line 2234,column 5,is_stmt,isa 1
    5988                    ;----------------------------------------------------------------------
    5989                    ; 2234 | HWREG(HIB_TPCTL) |= HIB_TPCTL_TPCLR;                                   
    5990                    ;----------------------------------------------------------------------
    5991 000007be 4951              LDR       A2, $C$CON32          ; [DPU_V7M3_PIPE] |2234|  ; [ORIG 16-BIT INS]
    5992 000007c0 6808              LDR       A1, [A2, #0]          ; [DPU_V7M3_PIPE] |2234|  ; [ORIG 16-BIT INS]
    5993 000007c2 0010F040          ORR       A1, A1, #16           ; [DPU_V7M3_PIPE] |2234|  ; [KEEP 32-BIT INS]
    5994 000007c6 6008              STR       A1, [A2, #0]          ; [DPU_V7M3_PIPE] |2234|  ; [ORIG 16-BIT INS]
    5995                            .dwpsn  file "../driverlib/hibernate.c",line 2236,column 1,is_stmt,isa 1
    5996                    $C$DW$245       .dwtag  DW_TAG_TI_branch
    5997                            .dwattr $C$DW$245, DW_AT_low_pc(0x00)
    5998                            .dwattr $C$DW$245, DW_AT_TI_return
    5999                    
    6000 000007c8 BD08              POP       {A4, PC}              ; [DPU_V7M3_PIPE]  ; [ORIG 16-BIT INS]
    6001                            .dwcfi  cfa_offset, 0
    6002                            .dwcfi  restore_reg, 3
    6003                            ; BRANCH OCCURS                  ; [] 
    6004                            .dwattr $C$DW$243, DW_AT_TI_end_file("../driverlib/hibernate.c")
    6005                            .dwattr $C$DW$243, DW_AT_TI_end_line(0x8bc)
    6006                            .dwattr $C$DW$243, DW_AT_TI_end_column(0x01)
    6007                            .dwendentry
    6008                            .dwendtag $C$DW$243
    6009                    
    6010                    ;******************************************************************************
    6011                    ;* CONSTANT TABLE                                                             *
    6012                    ;******************************************************************************
    6013 000007ca                   .sect   ".text"
    6014                            .align  4
    6015 000007ca C32046C0  ||$C$CON26||:   .bits   1074774816,32
         000007ce 0000400F 
    6016 000007d0                   .sect   ".text"
    6017                            .clink
    6018                            .thumbfunc HibernateTamperUnLock
    6019 000007d0                   .thumb
    6020                            .global HibernateTamperUnLock
    6021                    
    6022                    $C$DW$246       .dwtag  DW_TAG_subprogram
    6023                            .dwattr $C$DW$246, DW_AT_name("HibernateTamperUnLock")
    6024                            .dwattr $C$DW$246, DW_AT_low_pc(HibernateTamperUnLock)
    6025                            .dwattr $C$DW$246, DW_AT_high_pc(0x00)
TI ARM Assembler Unix v18.1.1 Fri Jul  3 20:08:24 2020

Tools Copyright (c) 1996-2017 Texas Instruments Incorporated
hibernate.asm                                                        PAGE  111

    6026                            .dwattr $C$DW$246, DW_AT_TI_symbol_name("HibernateTamperUnLock")
    6027                            .dwattr $C$DW$246, DW_AT_external
    6028                            .dwattr $C$DW$246, DW_AT_TI_begin_file("../driverlib/hibernate.c")
    6029                            .dwattr $C$DW$246, DW_AT_TI_begin_line(0x8ce)
    6030                            .dwattr $C$DW$246, DW_AT_TI_begin_column(0x01)
    6031                            .dwattr $C$DW$246, DW_AT_decl_file("../driverlib/hibernate.c")
    6032                            .dwattr $C$DW$246, DW_AT_decl_line(0x8ce)
    6033                            .dwattr $C$DW$246, DW_AT_decl_column(0x01)
    6034                            .dwattr $C$DW$246, DW_AT_TI_max_frame_size(0x08)
    6035                            .dwpsn  file "../driverlib/hibernate.c",line 2255,column 1,is_stmt,address HibernateTamperUnLo
    6036                    
    6037                            .dwfde $C$DW$CIE, HibernateTamperUnLock
    6038                    ;----------------------------------------------------------------------
    6039                    ; 2254 | HibernateTamperUnLock(void)                                            
    6040                    ; 2256 | //                                                                     
    6041                    ; 2257 | // Unlock the tamper registers.                                        
    6042                    ; 2258 | //                                                                     
    6043                    ;----------------------------------------------------------------------
    6044                    
    6045                    ;*****************************************************************************
    6046                    ;* FUNCTION NAME: HibernateTamperUnLock                                      *
    6047                    ;*                                                                           *
    6048                    ;*   Regs Modified     : A1,A2,A4,SP,LR,SR,FPEXC,FPSCR                       *
    6049                    ;*   Regs Used         : A1,A2,A4,SP,LR,SR,FPEXC,FPSCR                       *
    6050                    ;*   Local Frame Size  : 0 Args + 0 Auto + 4 Save = 4 byte                   *
    6051                    ;*****************************************************************************
    6052 000007d0           HibernateTamperUnLock:
    6053                    ;* --------------------------------------------------------------------------*
    6054                            .dwcfi  cfa_offset, 0
    6055 000007d0 B508              PUSH      {A4, LR}              ; [DPU_V7M3_PIPE]  ; [ORIG 16-BIT INS]
    6056                            .dwcfi  cfa_offset, 8
    6057                            .dwcfi  save_reg_to_mem, 14, -4
    6058                            .dwcfi  save_reg_to_mem, 3, -8
    6059                            .dwpsn  file "../driverlib/hibernate.c",line 2259,column 5,is_stmt,isa 1
    6060                    ;----------------------------------------------------------------------
    6061                    ; 2259 | HWREG(HIB_LOCK) = HIB_LOCK_HIBLOCK_KEY;                                
    6062                    ;----------------------------------------------------------------------
    6063 000007d2 484F              LDR       A1, $C$CON35          ; [DPU_V7M3_PIPE] |2259|  ; [ORIG 16-BIT INS]
    6064 000007d4 494D              LDR       A2, $C$CON34          ; [DPU_V7M3_PIPE] |2259|  ; [ORIG 16-BIT INS]
    6065 000007d6 6008              STR       A1, [A2, #0]          ; [DPU_V7M3_PIPE] |2259|  ; [ORIG 16-BIT INS]
    6066                            .dwpsn  file "../driverlib/hibernate.c",line 2260,column 5,is_stmt,isa 1
    6067                    ;----------------------------------------------------------------------
    6068                    ; 2260 | _HibernateWriteComplete();                                             
    6069                    ;----------------------------------------------------------------------
    6070                    $C$DW$247       .dwtag  DW_TAG_TI_branch
    6071                            .dwattr $C$DW$247, DW_AT_low_pc(0x00)
    6072                            .dwattr $C$DW$247, DW_AT_name("_HibernateWriteComplete")
    6073                            .dwattr $C$DW$247, DW_AT_TI_call
    6074                    
    6075 000007d8 FFFEF7FF!         BL        _HibernateWriteComplete ; [DPU_V7M3_PIPE] |2260|  ; [KEEP 32-BIT INS]
    6076                            ; CALL OCCURS {_HibernateWriteComplete }  ; [] |2260| 
    6077                            .dwpsn  file "../driverlib/hibernate.c",line 2261,column 1,is_stmt,isa 1
    6078                    $C$DW$248       .dwtag  DW_TAG_TI_branch
    6079                            .dwattr $C$DW$248, DW_AT_low_pc(0x00)
    6080                            .dwattr $C$DW$248, DW_AT_TI_return
TI ARM Assembler Unix v18.1.1 Fri Jul  3 20:08:24 2020

Tools Copyright (c) 1996-2017 Texas Instruments Incorporated
hibernate.asm                                                        PAGE  112

    6081                    
    6082 000007dc BD08              POP       {A4, PC}              ; [DPU_V7M3_PIPE]  ; [ORIG 16-BIT INS]
    6083                            .dwcfi  cfa_offset, 0
    6084                            .dwcfi  restore_reg, 3
    6085                            ; BRANCH OCCURS                  ; [] 
    6086                            .dwattr $C$DW$246, DW_AT_TI_end_file("../driverlib/hibernate.c")
    6087                            .dwattr $C$DW$246, DW_AT_TI_end_line(0x8d5)
    6088                            .dwattr $C$DW$246, DW_AT_TI_end_column(0x01)
    6089                            .dwendentry
    6090                            .dwendtag $C$DW$246
    6091                    
    6092                    ;******************************************************************************
    6093                    ;* CONSTANT TABLE                                                             *
    6094                    ;******************************************************************************
    6095 000007de                   .sect   ".text"
    6096                            .align  4
    6097 000007de C32446C0  ||$C$CON27||:   .bits   1074774820,32
         000007e2 0000400F 
    6098 000007e4                   .sect   ".text"
    6099                            .clink
    6100                            .thumbfunc HibernateTamperLock
    6101 000007e4                   .thumb
    6102                            .global HibernateTamperLock
    6103                    
    6104                    $C$DW$249       .dwtag  DW_TAG_subprogram
    6105                            .dwattr $C$DW$249, DW_AT_name("HibernateTamperLock")
    6106                            .dwattr $C$DW$249, DW_AT_low_pc(HibernateTamperLock)
    6107                            .dwattr $C$DW$249, DW_AT_high_pc(0x00)
    6108                            .dwattr $C$DW$249, DW_AT_TI_symbol_name("HibernateTamperLock")
    6109                            .dwattr $C$DW$249, DW_AT_external
    6110                            .dwattr $C$DW$249, DW_AT_TI_begin_file("../driverlib/hibernate.c")
    6111                            .dwattr $C$DW$249, DW_AT_TI_begin_line(0x8e7)
    6112                            .dwattr $C$DW$249, DW_AT_TI_begin_column(0x01)
    6113                            .dwattr $C$DW$249, DW_AT_decl_file("../driverlib/hibernate.c")
    6114                            .dwattr $C$DW$249, DW_AT_decl_line(0x8e7)
    6115                            .dwattr $C$DW$249, DW_AT_decl_column(0x01)
    6116                            .dwattr $C$DW$249, DW_AT_TI_max_frame_size(0x08)
    6117                            .dwpsn  file "../driverlib/hibernate.c",line 2280,column 1,is_stmt,address HibernateTamperLock
    6118                    
    6119                            .dwfde $C$DW$CIE, HibernateTamperLock
    6120                    ;----------------------------------------------------------------------
    6121                    ; 2279 | HibernateTamperLock(void)                                              
    6122                    ; 2281 | //                                                                     
    6123                    ; 2282 | // Wait for write completion.                                          
    6124                    ; 2283 | //                                                                     
    6125                    ;----------------------------------------------------------------------
    6126                    
    6127                    ;*****************************************************************************
    6128                    ;* FUNCTION NAME: HibernateTamperLock                                        *
    6129                    ;*                                                                           *
    6130                    ;*   Regs Modified     : A1,A2,A4,SP,LR,SR,FPEXC,FPSCR                       *
    6131                    ;*   Regs Used         : A1,A2,A4,SP,LR,SR,FPEXC,FPSCR                       *
    6132                    ;*   Local Frame Size  : 0 Args + 0 Auto + 4 Save = 4 byte                   *
    6133                    ;*****************************************************************************
    6134 000007e4           HibernateTamperLock:
TI ARM Assembler Unix v18.1.1 Fri Jul  3 20:08:24 2020

Tools Copyright (c) 1996-2017 Texas Instruments Incorporated
hibernate.asm                                                        PAGE  113

    6135                    ;* --------------------------------------------------------------------------*
    6136                            .dwcfi  cfa_offset, 0
    6137 000007e4 B508              PUSH      {A4, LR}              ; [DPU_V7M3_PIPE]  ; [ORIG 16-BIT INS]
    6138                            .dwcfi  cfa_offset, 8
    6139                            .dwcfi  save_reg_to_mem, 14, -4
    6140                            .dwcfi  save_reg_to_mem, 3, -8
    6141                            .dwpsn  file "../driverlib/hibernate.c",line 2284,column 5,is_stmt,isa 1
    6142                    ;----------------------------------------------------------------------
    6143                    ; 2284 | _HibernateWriteComplete();                                             
    6144                    ; 2286 | //                                                                     
    6145                    ; 2287 | // Lock the tamper registers.                                          
    6146                    ; 2288 | //                                                                     
    6147                    ;----------------------------------------------------------------------
    6148                    $C$DW$250       .dwtag  DW_TAG_TI_branch
    6149                            .dwattr $C$DW$250, DW_AT_low_pc(0x00)
    6150                            .dwattr $C$DW$250, DW_AT_name("_HibernateWriteComplete")
    6151                            .dwattr $C$DW$250, DW_AT_TI_call
    6152                    
    6153 000007e6 FFFEF7FF!         BL        _HibernateWriteComplete ; [DPU_V7M3_PIPE] |2284|  ; [KEEP 32-BIT INS]
    6154                            ; CALL OCCURS {_HibernateWriteComplete }  ; [] |2284| 
    6155                            .dwpsn  file "../driverlib/hibernate.c",line 2289,column 5,is_stmt,isa 1
    6156                    ;----------------------------------------------------------------------
    6157                    ; 2289 | HWREG(HIB_LOCK) = 0;                                                   
    6158                    ;----------------------------------------------------------------------
    6159 000007ea 4948              LDR       A2, $C$CON34          ; [DPU_V7M3_PIPE] |2289|  ; [ORIG 16-BIT INS]
    6160 000007ec 2000              MOVS      A1, #0                ; [DPU_V7M3_PIPE] |2289|  ; [ORIG 16-BIT INS]
    6161 000007ee 6008              STR       A1, [A2, #0]          ; [DPU_V7M3_PIPE] |2289|  ; [ORIG 16-BIT INS]
    6162                            .dwpsn  file "../driverlib/hibernate.c",line 2290,column 5,is_stmt,isa 1
    6163                    ;----------------------------------------------------------------------
    6164                    ; 2290 | _HibernateWriteComplete();                                             
    6165                    ;----------------------------------------------------------------------
    6166                    $C$DW$251       .dwtag  DW_TAG_TI_branch
    6167                            .dwattr $C$DW$251, DW_AT_low_pc(0x00)
    6168                            .dwattr $C$DW$251, DW_AT_name("_HibernateWriteComplete")
    6169                            .dwattr $C$DW$251, DW_AT_TI_call
    6170                    
    6171 000007f0 FFFEF7FF!         BL        _HibernateWriteComplete ; [DPU_V7M3_PIPE] |2290|  ; [KEEP 32-BIT INS]
    6172                            ; CALL OCCURS {_HibernateWriteComplete }  ; [] |2290| 
    6173                            .dwpsn  file "../driverlib/hibernate.c",line 2291,column 1,is_stmt,isa 1
    6174                    $C$DW$252       .dwtag  DW_TAG_TI_branch
    6175                            .dwattr $C$DW$252, DW_AT_low_pc(0x00)
    6176                            .dwattr $C$DW$252, DW_AT_TI_return
    6177                    
    6178 000007f4 BD08              POP       {A4, PC}              ; [DPU_V7M3_PIPE]  ; [ORIG 16-BIT INS]
    6179                            .dwcfi  cfa_offset, 0
    6180                            .dwcfi  restore_reg, 3
    6181                            ; BRANCH OCCURS                  ; [] 
    6182                            .dwattr $C$DW$249, DW_AT_TI_end_file("../driverlib/hibernate.c")
    6183                            .dwattr $C$DW$249, DW_AT_TI_end_line(0x8f3)
    6184                            .dwattr $C$DW$249, DW_AT_TI_end_column(0x01)
    6185                            .dwendentry
    6186                            .dwendtag $C$DW$249
    6187                    
    6188                    ;******************************************************************************
    6189                    ;* CONSTANT TABLE                                                             *
TI ARM Assembler Unix v18.1.1 Fri Jul  3 20:08:24 2020

Tools Copyright (c) 1996-2017 Texas Instruments Incorporated
hibernate.asm                                                        PAGE  114

    6190                    ;******************************************************************************
    6191 000007f6                   .sect   ".text"
    6192                            .align  4
    6193 000007f6 C33446C0  ||$C$CON28||:   .bits   1074774836,32
         000007fa 0000400F 
    6194                            .align  4
    6195 000007fa C314400F  ||$C$CON31||:   .bits   1074774804,32
         000007fe 0000400F 
    6196 00000800                   .sect   ".text"
    6197                            .clink
    6198                            .thumbfunc HibernateTamperStatusGet
    6199 00000800                   .thumb
    6200                            .global HibernateTamperStatusGet
    6201                    
    6202                    $C$DW$253       .dwtag  DW_TAG_subprogram
    6203                            .dwattr $C$DW$253, DW_AT_name("HibernateTamperStatusGet")
    6204                            .dwattr $C$DW$253, DW_AT_low_pc(HibernateTamperStatusGet)
    6205                            .dwattr $C$DW$253, DW_AT_high_pc(0x00)
    6206                            .dwattr $C$DW$253, DW_AT_TI_symbol_name("HibernateTamperStatusGet")
    6207                            .dwattr $C$DW$253, DW_AT_external
    6208                            .dwattr $C$DW$253, DW_AT_type(*$C$DW$T$33)
    6209                            .dwattr $C$DW$253, DW_AT_TI_begin_file("../driverlib/hibernate.c")
    6210                            .dwattr $C$DW$253, DW_AT_TI_begin_line(0x918)
    6211                            .dwattr $C$DW$253, DW_AT_TI_begin_column(0x01)
    6212                            .dwattr $C$DW$253, DW_AT_decl_file("../driverlib/hibernate.c")
    6213                            .dwattr $C$DW$253, DW_AT_decl_line(0x918)
    6214                            .dwattr $C$DW$253, DW_AT_decl_column(0x01)
    6215                            .dwattr $C$DW$253, DW_AT_TI_max_frame_size(0x08)
    6216                            .dwpsn  file "../driverlib/hibernate.c",line 2329,column 1,is_stmt,address HibernateTamperStat
    6217                    
    6218                            .dwfde $C$DW$CIE, HibernateTamperStatusGet
    6219                    ;----------------------------------------------------------------------
    6220                    ; 2328 | HibernateTamperStatusGet(void)                                         
    6221                    ; 2330 | uint32_t ui32Status, ui32Reg;                                          
    6222                    ; 2332 | //                                                                     
    6223                    ; 2333 | // Retrieve the raw register value.                                    
    6224                    ; 2334 | //                                                                     
    6225                    ;----------------------------------------------------------------------
    6226                    
    6227                    ;*****************************************************************************
    6228                    ;* FUNCTION NAME: HibernateTamperStatusGet                                   *
    6229                    ;*                                                                           *
    6230                    ;*   Regs Modified     : A1,A2,SP,SR                                         *
    6231                    ;*   Regs Used         : A1,A2,SP,LR,SR                                      *
    6232                    ;*   Local Frame Size  : 0 Args + 8 Auto + 0 Save = 8 byte                   *
    6233                    ;*****************************************************************************
    6234 00000800           HibernateTamperStatusGet:
    6235                    ;* --------------------------------------------------------------------------*
    6236                            .dwcfi  cfa_offset, 0
    6237 00000800 0D08F1AD          SUB       SP, SP, #8            ; [DPU_V7M3_PIPE]  ; [KEEP 32-BIT INS]
    6238                            .dwcfi  cfa_offset, 8
    6239                    $C$DW$254       .dwtag  DW_TAG_variable
    6240                            .dwattr $C$DW$254, DW_AT_name("ui32Status")
    6241                            .dwattr $C$DW$254, DW_AT_TI_symbol_name("ui32Status")
    6242                            .dwattr $C$DW$254, DW_AT_type(*$C$DW$T$33)
TI ARM Assembler Unix v18.1.1 Fri Jul  3 20:08:24 2020

Tools Copyright (c) 1996-2017 Texas Instruments Incorporated
hibernate.asm                                                        PAGE  115

    6243                            .dwattr $C$DW$254, DW_AT_location[DW_OP_breg13 0]
    6244                    
    6245                    $C$DW$255       .dwtag  DW_TAG_variable
    6246                            .dwattr $C$DW$255, DW_AT_name("ui32Reg")
    6247                            .dwattr $C$DW$255, DW_AT_TI_symbol_name("ui32Reg")
    6248                            .dwattr $C$DW$255, DW_AT_type(*$C$DW$T$33)
    6249                            .dwattr $C$DW$255, DW_AT_location[DW_OP_breg13 4]
    6250                    
    6251                            .dwpsn  file "../driverlib/hibernate.c",line 2335,column 5,is_stmt,isa 1
    6252                    ;----------------------------------------------------------------------
    6253                    ; 2335 | ui32Reg = HWREG(HIB_TPSTAT);                                           
    6254                    ; 2337 | //                                                                     
    6255                    ; 2338 | // Setup the oscillator status indicators.                             
    6256                    ; 2339 | //                                                                     
    6257                    ;----------------------------------------------------------------------
    6258 00000804 4843              LDR       A1, $C$CON36          ; [DPU_V7M3_PIPE] |2335|  ; [ORIG 16-BIT INS]
    6259 00000806 6800              LDR       A1, [A1, #0]          ; [DPU_V7M3_PIPE] |2335|  ; [ORIG 16-BIT INS]
    6260 00000808 9001              STR       A1, [SP, #4]          ; [DPU_V7M3_PIPE] |2335|  ; [ORIG 16-BIT INS]
    6261                            .dwpsn  file "../driverlib/hibernate.c",line 2340,column 5,is_stmt,isa 1
    6262                    ;----------------------------------------------------------------------
    6263                    ; 2340 | ui32Status = (ui32Reg & (HIB_TPSTAT_XOSCST | HIB_TPSTAT_XOSCFAIL));    
    6264                    ;----------------------------------------------------------------------
    6265 0000080a 9801              LDR       A1, [SP, #4]          ; [DPU_V7M3_PIPE] |2340|  ; [ORIG 16-BIT INS]
    6266 0000080c 0003F000          AND       A1, A1, #3            ; [DPU_V7M3_PIPE] |2340|  ; [KEEP 32-BIT INS]
    6267 00000810 9000              STR       A1, [SP, #0]          ; [DPU_V7M3_PIPE] |2340|  ; [ORIG 16-BIT INS]
    6268                            .dwpsn  file "../driverlib/hibernate.c",line 2341,column 5,is_stmt,isa 1
    6269                    ;----------------------------------------------------------------------
    6270                    ; 2341 | ui32Status |= ((ui32Reg & HIB_TPSTAT_XOSCST) ? 0 :                     
    6271                    ; 2342 |                HIBERNATE_TAMPER_STATUS_EXT_OSC_ACTIVE);                
    6272                    ;----------------------------------------------------------------------
    6273 00000812 9801              LDR       A1, [SP, #4]          ; [DPU_V7M3_PIPE] |2341|  ; [ORIG 16-BIT INS]
    6274 00000814 0880              LSRS      A1, A1, #2            ; [DPU_V7M3_PIPE] |2341|  ; [ORIG 16-BIT INS]
    6275 00000816 D301              BCC       ||$C$L46||            ; [DPU_V7M3_PIPE] |2341|  ; [ORIG 16-BIT INS]
    6276                            ; BRANCHCC OCCURS {||$C$L46||}   ; [] |2341| 
    6277                    ;* --------------------------------------------------------------------------*
    6278 00000818 2000              MOVS      A1, #0                ; [DPU_V7M3_PIPE] |2341|  ; [ORIG 16-BIT INS]
    6279 0000081a E000              B         ||$C$L47||            ; [DPU_V7M3_PIPE] |2341|  ; [ORIG 16-BIT INS]
    6280                            ; BRANCH OCCURS {||$C$L47||}     ; [] |2341| 
    6281                    ;* --------------------------------------------------------------------------*
    6282 0000081c           ||$C$L46||:    
    6283 0000081c 2008              MOVS      A1, #8                ; [DPU_V7M3_PIPE] |2341|  ; [ORIG 16-BIT INS]
    6284                    ;* --------------------------------------------------------------------------*
    6285 0000081e           ||$C$L47||:    
    6286 0000081e 9900              LDR       A2, [SP, #0]          ; [DPU_V7M3_PIPE] |2341|  ; [ORIG 16-BIT INS]
    6287 00000820 4308              ORRS      A1, A1, A2            ; [DPU_V7M3_PIPE] |2341|  ; [ORIG 16-BIT INS]
    6288 00000822 9000              STR       A1, [SP, #0]          ; [DPU_V7M3_PIPE] |2341|  ; [ORIG 16-BIT INS]
    6289                            .dwpsn  file "../driverlib/hibernate.c",line 2343,column 5,is_stmt,isa 1
    6290                    ;----------------------------------------------------------------------
    6291                    ; 2343 | ui32Status |= ((ui32Reg & HIB_TPSTAT_XOSCFAIL) ? 0 :                   
    6292                    ; 2344 |                HIBERNATE_TAMPER_STATUS_EXT_OSC_VALID);                 
    6293                    ; 2346 | //                                                                     
    6294                    ; 2347 | // Retrieve the tamper status indicators.                              
    6295                    ; 2348 | //                                                                     
    6296                    ;----------------------------------------------------------------------
    6297 00000824 9801              LDR       A1, [SP, #4]          ; [DPU_V7M3_PIPE] |2343|  ; [ORIG 16-BIT INS]
TI ARM Assembler Unix v18.1.1 Fri Jul  3 20:08:24 2020

Tools Copyright (c) 1996-2017 Texas Instruments Incorporated
hibernate.asm                                                        PAGE  116

    6298 00000826 0840              LSRS      A1, A1, #1            ; [DPU_V7M3_PIPE] |2343|  ; [ORIG 16-BIT INS]
    6299 00000828 D301              BCC       ||$C$L48||            ; [DPU_V7M3_PIPE] |2343|  ; [ORIG 16-BIT INS]
    6300                            ; BRANCHCC OCCURS {||$C$L48||}   ; [] |2343| 
    6301                    ;* --------------------------------------------------------------------------*
    6302 0000082a 2000              MOVS      A1, #0                ; [DPU_V7M3_PIPE] |2343|  ; [ORIG 16-BIT INS]
    6303 0000082c E000              B         ||$C$L49||            ; [DPU_V7M3_PIPE] |2343|  ; [ORIG 16-BIT INS]
    6304                            ; BRANCH OCCURS {||$C$L49||}     ; [] |2343| 
    6305                    ;* --------------------------------------------------------------------------*
    6306 0000082e           ||$C$L48||:    
    6307 0000082e 2004              MOVS      A1, #4                ; [DPU_V7M3_PIPE] |2343|  ; [ORIG 16-BIT INS]
    6308                    ;* --------------------------------------------------------------------------*
    6309 00000830           ||$C$L49||:    
    6310 00000830 9900              LDR       A2, [SP, #0]          ; [DPU_V7M3_PIPE] |2343|  ; [ORIG 16-BIT INS]
    6311 00000832 4308              ORRS      A1, A1, A2            ; [DPU_V7M3_PIPE] |2343|  ; [ORIG 16-BIT INS]
    6312 00000834 9000              STR       A1, [SP, #0]          ; [DPU_V7M3_PIPE] |2343|  ; [ORIG 16-BIT INS]
    6313                            .dwpsn  file "../driverlib/hibernate.c",line 2349,column 5,is_stmt,isa 1
    6314                    ;----------------------------------------------------------------------
    6315                    ; 2349 | ui32Status |= ((ui32Reg & HIB_TPSTAT_STATE_M) << 3);                   
    6316                    ; 2351 | //                                                                     
    6317                    ; 2352 | // The HW shows "disabled" with a zero value, use bit[0] as a flag     
    6318                    ; 2353 | // for this purpose.                                                   
    6319                    ; 2354 | //                                                                     
    6320                    ;----------------------------------------------------------------------
    6321 00000836 9801              LDR       A1, [SP, #4]          ; [DPU_V7M3_PIPE] |2349|  ; [ORIG 16-BIT INS]
    6322 00000838 9900              LDR       A2, [SP, #0]          ; [DPU_V7M3_PIPE] |2349|  ; [ORIG 16-BIT INS]
    6323 0000083a 000CF000          AND       A1, A1, #12           ; [DPU_V7M3_PIPE] |2349|  ; [KEEP 32-BIT INS]
    6324 0000083e 01C0EA41          ORR       A2, A2, A1, LSL #3    ; [DPU_V7M3_PIPE] |2349|  ; [KEEP 32-BIT INS]
    6325 00000842 9100              STR       A2, [SP, #0]          ; [DPU_V7M3_PIPE] |2349|  ; [ORIG 16-BIT INS]
    6326                            .dwpsn  file "../driverlib/hibernate.c",line 2355,column 5,is_stmt,isa 1
    6327                    ;----------------------------------------------------------------------
    6328                    ; 2355 | if((ui32Reg & HIB_TPSTAT_STATE_M) == 0)                                
    6329                    ;----------------------------------------------------------------------
    6330 00000844 9801              LDR       A1, [SP, #4]          ; [DPU_V7M3_PIPE] |2355|  ; [ORIG 16-BIT INS]
    6331 00000846 0F0CF010          TST       A1, #12               ; [DPU_V7M3_PIPE] |2355|  ; [KEEP 32-BIT INS]
    6332 0000084a D103              BNE       ||$C$L50||            ; [DPU_V7M3_PIPE] |2355|  ; [ORIG 16-BIT INS]
    6333                            ; BRANCHCC OCCURS {||$C$L50||}   ; [] |2355| 
    6334                    ;* --------------------------------------------------------------------------*
    6335                            .dwpsn  file "../driverlib/hibernate.c",line 2357,column 9,is_stmt,isa 1
    6336                    ;----------------------------------------------------------------------
    6337                    ; 2357 | ui32Status |= HIBERNATE_TAMPER_STATUS_INACTIVE;                        
    6338                    ; 2360 | //                                                                     
    6339                    ; 2361 | // Return the API status flags.                                        
    6340                    ; 2362 | //                                                                     
    6341                    ;----------------------------------------------------------------------
    6342 0000084c 9800              LDR       A1, [SP, #0]          ; [DPU_V7M3_PIPE] |2357|  ; [ORIG 16-BIT INS]
    6343 0000084e 0010F040          ORR       A1, A1, #16           ; [DPU_V7M3_PIPE] |2357|  ; [KEEP 32-BIT INS]
    6344 00000852 9000              STR       A1, [SP, #0]          ; [DPU_V7M3_PIPE] |2357|  ; [ORIG 16-BIT INS]
    6345                    ;* --------------------------------------------------------------------------*
    6346 00000854           ||$C$L50||:    
    6347                            .dwpsn  file "../driverlib/hibernate.c",line 2363,column 5,is_stmt,isa 1
    6348                    ;----------------------------------------------------------------------
    6349                    ; 2363 | return(ui32Status);                                                    
    6350                    ;----------------------------------------------------------------------
    6351 00000854 9800              LDR       A1, [SP, #0]          ; [DPU_V7M3_PIPE] |2363|  ; [ORIG 16-BIT INS]
    6352                            .dwpsn  file "../driverlib/hibernate.c",line 2364,column 1,is_stmt,isa 1
TI ARM Assembler Unix v18.1.1 Fri Jul  3 20:08:24 2020

Tools Copyright (c) 1996-2017 Texas Instruments Incorporated
hibernate.asm                                                        PAGE  117

    6353 00000856 B002              ADD       SP, SP, #8            ; [DPU_V7M3_PIPE]  ; [ORIG 16-BIT INS]
    6354                            .dwcfi  cfa_offset, 0
    6355                    $C$DW$256       .dwtag  DW_TAG_TI_branch
    6356                            .dwattr $C$DW$256, DW_AT_low_pc(0x00)
    6357                            .dwattr $C$DW$256, DW_AT_TI_return
    6358                    
    6359 00000858 4770              BX        LR                    ; [DPU_V7M3_PIPE]  ; [ORIG 16-BIT INS]
    6360                            ; BRANCH OCCURS                  ; [] 
    6361                            .dwattr $C$DW$253, DW_AT_TI_end_file("../driverlib/hibernate.c")
    6362                            .dwattr $C$DW$253, DW_AT_TI_end_line(0x93c)
    6363                            .dwattr $C$DW$253, DW_AT_TI_end_column(0x01)
    6364                            .dwendentry
    6365                            .dwendtag $C$DW$253
    6366                    
    6367 0000085a                   .sect   ".text"
    6368                            .clink
    6369                            .thumbfunc HibernateTamperEventsGet
    6370 0000085a                   .thumb
    6371                            .global HibernateTamperEventsGet
    6372                    
    6373                    $C$DW$257       .dwtag  DW_TAG_subprogram
    6374                            .dwattr $C$DW$257, DW_AT_name("HibernateTamperEventsGet")
    6375                            .dwattr $C$DW$257, DW_AT_low_pc(HibernateTamperEventsGet)
    6376                            .dwattr $C$DW$257, DW_AT_high_pc(0x00)
    6377                            .dwattr $C$DW$257, DW_AT_TI_symbol_name("HibernateTamperEventsGet")
    6378                            .dwattr $C$DW$257, DW_AT_external
    6379                            .dwattr $C$DW$257, DW_AT_type(*$C$DW$T$131)
    6380                            .dwattr $C$DW$257, DW_AT_TI_begin_file("../driverlib/hibernate.c")
    6381                            .dwattr $C$DW$257, DW_AT_TI_begin_line(0x977)
    6382                            .dwattr $C$DW$257, DW_AT_TI_begin_column(0x01)
    6383                            .dwattr $C$DW$257, DW_AT_decl_file("../driverlib/hibernate.c")
    6384                            .dwattr $C$DW$257, DW_AT_decl_line(0x977)
    6385                            .dwattr $C$DW$257, DW_AT_decl_column(0x01)
    6386                            .dwattr $C$DW$257, DW_AT_TI_max_frame_size(0x10)
    6387                            .dwpsn  file "../driverlib/hibernate.c",line 2425,column 1,is_stmt,address HibernateTamperEven
    6388                    
    6389                            .dwfde $C$DW$CIE, HibernateTamperEventsGet
    6390                    $C$DW$258       .dwtag  DW_TAG_formal_parameter
    6391                            .dwattr $C$DW$258, DW_AT_name("ui32Index")
    6392                            .dwattr $C$DW$258, DW_AT_TI_symbol_name("ui32Index")
    6393                            .dwattr $C$DW$258, DW_AT_type(*$C$DW$T$33)
    6394                            .dwattr $C$DW$258, DW_AT_location[DW_OP_reg0]
    6395                    
    6396                    $C$DW$259       .dwtag  DW_TAG_formal_parameter
    6397                            .dwattr $C$DW$259, DW_AT_name("pui32RTC")
    6398                            .dwattr $C$DW$259, DW_AT_TI_symbol_name("pui32RTC")
    6399                            .dwattr $C$DW$259, DW_AT_type(*$C$DW$T$39)
    6400                            .dwattr $C$DW$259, DW_AT_location[DW_OP_reg1]
    6401                    
    6402                    $C$DW$260       .dwtag  DW_TAG_formal_parameter
    6403                            .dwattr $C$DW$260, DW_AT_name("pui32Event")
    6404                            .dwattr $C$DW$260, DW_AT_TI_symbol_name("pui32Event")
    6405                            .dwattr $C$DW$260, DW_AT_type(*$C$DW$T$39)
    6406                            .dwattr $C$DW$260, DW_AT_location[DW_OP_reg2]
    6407                    
TI ARM Assembler Unix v18.1.1 Fri Jul  3 20:08:24 2020

Tools Copyright (c) 1996-2017 Texas Instruments Incorporated
hibernate.asm                                                        PAGE  118

    6408                    ;----------------------------------------------------------------------
    6409                    ; 2423 | HibernateTamperEventsGet(uint32_t ui32Index, uint32_t *pui32RTC,       
    6410                    ; 2424 | uint32_t *pui32Event)                                                  
    6411                    ;----------------------------------------------------------------------
    6412                    
    6413                    ;*****************************************************************************
    6414                    ;* FUNCTION NAME: HibernateTamperEventsGet                                   *
    6415                    ;*                                                                           *
    6416                    ;*   Regs Modified     : A1,A2,A3,SP,SR                                      *
    6417                    ;*   Regs Used         : A1,A2,A3,SP,LR,SR                                   *
    6418                    ;*   Local Frame Size  : 0 Args + 16 Auto + 0 Save = 16 byte                 *
    6419                    ;*****************************************************************************
    6420 0000085a           HibernateTamperEventsGet:
    6421                    ;* --------------------------------------------------------------------------*
    6422                            .dwcfi  cfa_offset, 0
    6423 0000085a 0D10F1AD          SUB       SP, SP, #16           ; [DPU_V7M3_PIPE]  ; [KEEP 32-BIT INS]
    6424                            .dwcfi  cfa_offset, 16
    6425                    $C$DW$261       .dwtag  DW_TAG_variable
    6426                            .dwattr $C$DW$261, DW_AT_name("ui32Index")
    6427                            .dwattr $C$DW$261, DW_AT_TI_symbol_name("ui32Index")
    6428                            .dwattr $C$DW$261, DW_AT_type(*$C$DW$T$33)
    6429                            .dwattr $C$DW$261, DW_AT_location[DW_OP_breg13 0]
    6430                    
    6431                    $C$DW$262       .dwtag  DW_TAG_variable
    6432                            .dwattr $C$DW$262, DW_AT_name("pui32RTC")
    6433                            .dwattr $C$DW$262, DW_AT_TI_symbol_name("pui32RTC")
    6434                            .dwattr $C$DW$262, DW_AT_type(*$C$DW$T$39)
    6435                            .dwattr $C$DW$262, DW_AT_location[DW_OP_breg13 4]
    6436                    
    6437                    $C$DW$263       .dwtag  DW_TAG_variable
    6438                            .dwattr $C$DW$263, DW_AT_name("pui32Event")
    6439                            .dwattr $C$DW$263, DW_AT_TI_symbol_name("pui32Event")
    6440                            .dwattr $C$DW$263, DW_AT_type(*$C$DW$T$39)
    6441                            .dwattr $C$DW$263, DW_AT_location[DW_OP_breg13 8]
    6442                    
    6443                    $C$DW$264       .dwtag  DW_TAG_variable
    6444                            .dwattr $C$DW$264, DW_AT_name("ui32Reg")
    6445                            .dwattr $C$DW$264, DW_AT_TI_symbol_name("ui32Reg")
    6446                            .dwattr $C$DW$264, DW_AT_type(*$C$DW$T$33)
    6447                            .dwattr $C$DW$264, DW_AT_location[DW_OP_breg13 12]
    6448                    
    6449                    ;----------------------------------------------------------------------
    6450                    ; 2426 | uint32_t ui32Reg;                                                      
    6451                    ; 2428 | //                                                                     
    6452                    ; 2429 | // Verify parameters.                                                  
    6453                    ; 2430 | //                                                                     
    6454                    ; 2431 | ASSERT(pui32RTC);                                                      
    6455                    ; 2432 | ASSERT(pui32Event);                                                    
    6456                    ; 2433 | ASSERT(ui32Index < 4);                                                 
    6457                    ; 2435 | //                                                                     
    6458                    ; 2436 | // Retrieve the event log data for the requested index if available.   
    6459                    ; 2437 | //                                                                     
    6460                    ;----------------------------------------------------------------------
    6461 0000085e 9202              STR       A3, [SP, #8]          ; [DPU_V7M3_PIPE] |2425|  ; [ORIG 16-BIT INS]
    6462 00000860 9101              STR       A2, [SP, #4]          ; [DPU_V7M3_PIPE] |2425|  ; [ORIG 16-BIT INS]
TI ARM Assembler Unix v18.1.1 Fri Jul  3 20:08:24 2020

Tools Copyright (c) 1996-2017 Texas Instruments Incorporated
hibernate.asm                                                        PAGE  119

    6463 00000862 9000              STR       A1, [SP, #0]          ; [DPU_V7M3_PIPE] |2425|  ; [ORIG 16-BIT INS]
    6464                            .dwpsn  file "../driverlib/hibernate.c",line 2438,column 5,is_stmt,isa 1
    6465                    ;----------------------------------------------------------------------
    6466                    ; 2438 | ui32Reg = HWREG(HIB_TPLOG0 + ((ui32Index << 3) + 4));                  
    6467                    ;----------------------------------------------------------------------
    6468 00000864 482C              LDR       A1, $C$CON37          ; [DPU_V7M3_PIPE] |2438|  ; [ORIG 16-BIT INS]
    6469 00000866 9900              LDR       A2, [SP, #0]          ; [DPU_V7M3_PIPE] |2438|  ; [ORIG 16-BIT INS]
    6470 00000868 0031F850          LDR       A1, [A1, +A2, LSL #3] ; [DPU_V7M3_PIPE] |2438|  ; [KEEP 32-BIT INS]
    6471 0000086c 9003              STR       A1, [SP, #12]         ; [DPU_V7M3_PIPE] |2438|  ; [ORIG 16-BIT INS]
    6472                            .dwpsn  file "../driverlib/hibernate.c",line 2439,column 5,is_stmt,isa 1
    6473                    ;----------------------------------------------------------------------
    6474                    ; 2439 | if(ui32Reg == 0)                                                       
    6475                    ; 2441 |     //                                                                 
    6476                    ; 2442 |     // No event data is available for this index.                      
    6477                    ; 2443 |     //                                                                 
    6478                    ;----------------------------------------------------------------------
    6479 0000086e 9803              LDR       A1, [SP, #12]         ; [DPU_V7M3_PIPE] |2439|  ; [ORIG 16-BIT INS]
    6480 00000870 B908              CBNZ      A1, ||$C$L51||        ; []  ; [ORIG 16-BIT INS]
    6481                            ; BRANCHCC OCCURS {||$C$L51||}   ; [] |2439| 
    6482                    ;* --------------------------------------------------------------------------*
    6483                            .dwpsn  file "../driverlib/hibernate.c",line 2444,column 9,is_stmt,isa 1
    6484                    ;----------------------------------------------------------------------
    6485                    ; 2444 | return(false);                                                         
    6486                    ; 2447 | //                                                                     
    6487                    ; 2448 | // Store the event data in the provided location.                      
    6488                    ; 2449 | //                                                                     
    6489                    ;----------------------------------------------------------------------
    6490 00000872 2000              MOVS      A1, #0                ; [DPU_V7M3_PIPE] |2444|  ; [ORIG 16-BIT INS]
    6491 00000874 E026              B         ||$C$L53||            ; [DPU_V7M3_PIPE] |2444|  ; [ORIG 16-BIT INS]
    6492                            ; BRANCH OCCURS {||$C$L53||}     ; [] |2444| 
    6493                    ;* --------------------------------------------------------------------------*
    6494 00000876           ||$C$L51||:    
    6495                            .dwpsn  file "../driverlib/hibernate.c",line 2450,column 5,is_stmt,isa 1
    6496                    ;----------------------------------------------------------------------
    6497                    ; 2450 | *pui32Event = ui32Reg;                                                 
    6498                    ; 2452 | //                                                                     
    6499                    ; 2453 | // Retrieve the calendar information.                                  
    6500                    ; 2454 | //                                                                     
    6501                    ;----------------------------------------------------------------------
    6502 00000876 9803              LDR       A1, [SP, #12]         ; [DPU_V7M3_PIPE] |2450|  ; [ORIG 16-BIT INS]
    6503 00000878 9902              LDR       A2, [SP, #8]          ; [DPU_V7M3_PIPE] |2450|  ; [ORIG 16-BIT INS]
    6504 0000087a 6008              STR       A1, [A2, #0]          ; [DPU_V7M3_PIPE] |2450|  ; [ORIG 16-BIT INS]
    6505                            .dwpsn  file "../driverlib/hibernate.c",line 2455,column 5,is_stmt,isa 1
    6506                    ;----------------------------------------------------------------------
    6507                    ; 2455 | *pui32RTC = HWREG(HIB_TPLOG0 + (ui32Index << 3));                      
    6508                    ; 2457 | //                                                                     
    6509                    ; 2458 | // Convert the hour to 24hr mode if the Calendar is enabled            
    6510                    ; 2459 | // and in 24hr mode.                                                   
    6511                    ; 2460 | //                                                                     
    6512                    ;----------------------------------------------------------------------
    6513 0000087c 9A00              LDR       A3, [SP, #0]          ; [DPU_V7M3_PIPE] |2455|  ; [ORIG 16-BIT INS]
    6514 0000087e 4827              LDR       A1, $C$CON38          ; [DPU_V7M3_PIPE] |2455|  ; [ORIG 16-BIT INS]
    6515 00000880 9901              LDR       A2, [SP, #4]          ; [DPU_V7M3_PIPE] |2455|  ; [ORIG 16-BIT INS]
    6516 00000882 0032F850          LDR       A1, [A1, +A3, LSL #3] ; [DPU_V7M3_PIPE] |2455|  ; [KEEP 32-BIT INS]
    6517 00000886 6008              STR       A1, [A2, #0]          ; [DPU_V7M3_PIPE] |2455|  ; [ORIG 16-BIT INS]
TI ARM Assembler Unix v18.1.1 Fri Jul  3 20:08:24 2020

Tools Copyright (c) 1996-2017 Texas Instruments Incorporated
hibernate.asm                                                        PAGE  120

    6518                            .dwpsn  file "../driverlib/hibernate.c",line 2461,column 5,is_stmt,isa 1
    6519                    ;----------------------------------------------------------------------
    6520                    ; 2461 | if((HWREG(HIB_CALCTL) & (HIB_CALCTL_CALEN | HIB_CALCTL_CAL24)) ==      
    6521                    ; 2462 |    (HIB_CALCTL_CALEN | HIB_CALCTL_CAL24))                              
    6522                    ;----------------------------------------------------------------------
    6523 00000888 4825              LDR       A1, $C$CON39          ; [DPU_V7M3_PIPE] |2461|  ; [ORIG 16-BIT INS]
    6524 0000088a 6800              LDR       A1, [A1, #0]          ; [DPU_V7M3_PIPE] |2461|  ; [ORIG 16-BIT INS]
    6525 0000088c 0005F000          AND       A1, A1, #5            ; [DPU_V7M3_PIPE] |2461|  ; [KEEP 32-BIT INS]
    6526 00000890 2805              CMP       A1, #5                ; [DPU_V7M3_PIPE] |2461|  ; [ORIG 16-BIT INS]
    6527 00000892 D116              BNE       ||$C$L52||            ; [DPU_V7M3_PIPE] |2461|  ; [ORIG 16-BIT INS]
    6528                            ; BRANCHCC OCCURS {||$C$L52||}   ; [] |2461| 
    6529                    ;* --------------------------------------------------------------------------*
    6530                            .dwpsn  file "../driverlib/hibernate.c",line 2464,column 9,is_stmt,isa 1
    6531                    ;----------------------------------------------------------------------
    6532                    ; 2464 | if(HWREG(HIB_CAL0) & HIB_CAL0_AMPM)                                    
    6533                    ; 2466 |     //                                                                 
    6534                    ; 2467 |     // Add 12 hour since it is PM                                      
    6535                    ; 2468 |     //                                                                 
    6536                    ;----------------------------------------------------------------------
    6537 00000894 4823              LDR       A1, $C$CON40          ; [DPU_V7M3_PIPE] |2464|  ; [ORIG 16-BIT INS]
    6538 00000896 6800              LDR       A1, [A1, #0]          ; [DPU_V7M3_PIPE] |2464|  ; [ORIG 16-BIT INS]
    6539 00000898 0DC0              LSRS      A1, A1, #23           ; [DPU_V7M3_PIPE] |2464|  ; [ORIG 16-BIT INS]
    6540 0000089a D312              BCC       ||$C$L52||            ; [DPU_V7M3_PIPE] |2464|  ; [ORIG 16-BIT INS]
    6541                            ; BRANCHCC OCCURS {||$C$L52||}   ; [] |2464| 
    6542                    ;* --------------------------------------------------------------------------*
    6543                            .dwpsn  file "../driverlib/hibernate.c",line 2469,column 13,is_stmt,isa 1
    6544                    ;----------------------------------------------------------------------
    6545                    ; 2469 | ui32Reg = ((*pui32RTC & 0X0001f000) + (12<<12)) & 0X0001f000;          
    6546                    ;----------------------------------------------------------------------
    6547 0000089c 9801              LDR       A1, [SP, #4]          ; [DPU_V7M3_PIPE] |2469|  ; [ORIG 16-BIT INS]
    6548 0000089e 6800              LDR       A1, [A1, #0]          ; [DPU_V7M3_PIPE] |2469|  ; [ORIG 16-BIT INS]
    6549 000008a0 30F8F400          AND       A1, A1, #126976       ; [DPU_V7M3_PIPE] |2469|  ; [KEEP 32-BIT INS]
    6550 000008a4 4040F500          ADD       A1, A1, #49152        ; [DPU_V7M3_PIPE] |2469|  ; [KEEP 32-BIT INS]
    6551 000008a8 30F8F400          AND       A1, A1, #126976       ; [DPU_V7M3_PIPE] |2469|  ; [KEEP 32-BIT INS]
    6552 000008ac 9003              STR       A1, [SP, #12]         ; [DPU_V7M3_PIPE] |2469|  ; [ORIG 16-BIT INS]
    6553                            .dwpsn  file "../driverlib/hibernate.c",line 2470,column 13,is_stmt,isa 1
    6554                    ;----------------------------------------------------------------------
    6555                    ; 2470 | *pui32RTC &= ~0X0001f000;                                              
    6556                    ;----------------------------------------------------------------------
    6557 000008ae 9901              LDR       A2, [SP, #4]          ; [DPU_V7M3_PIPE] |2470|  ; [ORIG 16-BIT INS]
    6558 000008b0 6808              LDR       A1, [A2, #0]          ; [DPU_V7M3_PIPE] |2470|  ; [ORIG 16-BIT INS]
    6559 000008b2 30F8F420          BIC       A1, A1, #126976       ; [DPU_V7M3_PIPE] |2470|  ; [KEEP 32-BIT INS]
    6560 000008b6 6008              STR       A1, [A2, #0]          ; [DPU_V7M3_PIPE] |2470|  ; [ORIG 16-BIT INS]
    6561                            .dwpsn  file "../driverlib/hibernate.c",line 2471,column 13,is_stmt,isa 1
    6562                    ;----------------------------------------------------------------------
    6563                    ; 2471 | *pui32RTC |= ui32Reg;                                                  
    6564                    ; 2475 | //                                                                     
    6565                    ; 2476 | // Return success.                                                     
    6566                    ; 2477 | //                                                                     
    6567                    ;----------------------------------------------------------------------
    6568 000008b8 9901              LDR       A2, [SP, #4]          ; [DPU_V7M3_PIPE] |2471|  ; [ORIG 16-BIT INS]
    6569 000008ba 9803              LDR       A1, [SP, #12]         ; [DPU_V7M3_PIPE] |2471|  ; [ORIG 16-BIT INS]
    6570 000008bc 680A              LDR       A3, [A2, #0]          ; [DPU_V7M3_PIPE] |2471|  ; [ORIG 16-BIT INS]
    6571 000008be 4310              ORRS      A1, A1, A3            ; [DPU_V7M3_PIPE] |2471|  ; [ORIG 16-BIT INS]
    6572 000008c0 6008              STR       A1, [A2, #0]          ; [DPU_V7M3_PIPE] |2471|  ; [ORIG 16-BIT INS]
TI ARM Assembler Unix v18.1.1 Fri Jul  3 20:08:24 2020

Tools Copyright (c) 1996-2017 Texas Instruments Incorporated
hibernate.asm                                                        PAGE  121

    6573                    ;* --------------------------------------------------------------------------*
    6574 000008c2           ||$C$L52||:    
    6575                            .dwpsn  file "../driverlib/hibernate.c",line 2478,column 5,is_stmt,isa 1
    6576                    ;----------------------------------------------------------------------
    6577                    ; 2478 | return(true);                                                          
    6578                    ;----------------------------------------------------------------------
    6579 000008c2 2001              MOVS      A1, #1                ; [DPU_V7M3_PIPE] |2478|  ; [ORIG 16-BIT INS]
    6580                    ;* --------------------------------------------------------------------------*
    6581 000008c4           ||$C$L53||:    
    6582                            .dwpsn  file "../driverlib/hibernate.c",line 2479,column 1,is_stmt,isa 1
    6583 000008c4 B004              ADD       SP, SP, #16           ; [DPU_V7M3_PIPE]  ; [ORIG 16-BIT INS]
    6584                            .dwcfi  cfa_offset, 0
    6585                    $C$DW$265       .dwtag  DW_TAG_TI_branch
    6586                            .dwattr $C$DW$265, DW_AT_low_pc(0x00)
    6587                            .dwattr $C$DW$265, DW_AT_TI_return
    6588                    
    6589 000008c6 4770              BX        LR                    ; [DPU_V7M3_PIPE]  ; [ORIG 16-BIT INS]
    6590                            ; BRANCH OCCURS                  ; [] 
    6591                            .dwattr $C$DW$257, DW_AT_TI_end_file("../driverlib/hibernate.c")
    6592                            .dwattr $C$DW$257, DW_AT_TI_end_line(0x9af)
    6593                            .dwattr $C$DW$257, DW_AT_TI_end_column(0x01)
    6594                            .dwendentry
    6595                            .dwendtag $C$DW$257
    6596                    
    6597 000008c8                   .sect   ".text"
    6598                            .clink
    6599                            .thumbfunc HibernateTamperExtOscRecover
    6600 000008c8                   .thumb
    6601                            .global HibernateTamperExtOscRecover
    6602                    
    6603                    $C$DW$266       .dwtag  DW_TAG_subprogram
    6604                            .dwattr $C$DW$266, DW_AT_name("HibernateTamperExtOscRecover")
    6605                            .dwattr $C$DW$266, DW_AT_low_pc(HibernateTamperExtOscRecover)
    6606                            .dwattr $C$DW$266, DW_AT_high_pc(0x00)
    6607                            .dwattr $C$DW$266, DW_AT_TI_symbol_name("HibernateTamperExtOscRecover")
    6608                            .dwattr $C$DW$266, DW_AT_external
    6609                            .dwattr $C$DW$266, DW_AT_TI_begin_file("../driverlib/hibernate.c")
    6610                            .dwattr $C$DW$266, DW_AT_TI_begin_line(0x9c3)
    6611                            .dwattr $C$DW$266, DW_AT_TI_begin_column(0x01)
    6612                            .dwattr $C$DW$266, DW_AT_decl_file("../driverlib/hibernate.c")
    6613                            .dwattr $C$DW$266, DW_AT_decl_line(0x9c3)
    6614                            .dwattr $C$DW$266, DW_AT_decl_column(0x01)
    6615                            .dwattr $C$DW$266, DW_AT_TI_max_frame_size(0x08)
    6616                            .dwpsn  file "../driverlib/hibernate.c",line 2500,column 1,is_stmt,address HibernateTamperExtO
    6617                    
    6618                            .dwfde $C$DW$CIE, HibernateTamperExtOscRecover
    6619                    ;----------------------------------------------------------------------
    6620                    ; 2499 | HibernateTamperExtOscRecover(void)                                     
    6621                    ; 2501 | //                                                                     
    6622                    ; 2502 | // Unlock the tamper registers.                                        
    6623                    ; 2503 | //                                                                     
    6624                    ;----------------------------------------------------------------------
    6625                    
    6626                    ;*****************************************************************************
    6627                    ;* FUNCTION NAME: HibernateTamperExtOscRecover                               *
TI ARM Assembler Unix v18.1.1 Fri Jul  3 20:08:24 2020

Tools Copyright (c) 1996-2017 Texas Instruments Incorporated
hibernate.asm                                                        PAGE  122

    6628                    ;*                                                                           *
    6629                    ;*   Regs Modified     : A1,A2,A4,SP,LR,SR,FPEXC,FPSCR                       *
    6630                    ;*   Regs Used         : A1,A2,A4,SP,LR,SR,FPEXC,FPSCR                       *
    6631                    ;*   Local Frame Size  : 0 Args + 0 Auto + 4 Save = 4 byte                   *
    6632                    ;*****************************************************************************
    6633 000008c8           HibernateTamperExtOscRecover:
    6634                    ;* --------------------------------------------------------------------------*
    6635                            .dwcfi  cfa_offset, 0
    6636 000008c8 B508              PUSH      {A4, LR}              ; [DPU_V7M3_PIPE]  ; [ORIG 16-BIT INS]
    6637                            .dwcfi  cfa_offset, 8
    6638                            .dwcfi  save_reg_to_mem, 14, -4
    6639                            .dwcfi  save_reg_to_mem, 3, -8
    6640                            .dwpsn  file "../driverlib/hibernate.c",line 2504,column 5,is_stmt,isa 1
    6641                    ;----------------------------------------------------------------------
    6642                    ; 2504 | HWREG(HIB_LOCK) = HIB_LOCK_HIBLOCK_KEY;                                
    6643                    ;----------------------------------------------------------------------
    6644 000008ca 4811              LDR       A1, $C$CON35          ; [DPU_V7M3_PIPE] |2504|  ; [ORIG 16-BIT INS]
    6645 000008cc 490F              LDR       A2, $C$CON34          ; [DPU_V7M3_PIPE] |2504|  ; [ORIG 16-BIT INS]
    6646 000008ce 6008              STR       A1, [A2, #0]          ; [DPU_V7M3_PIPE] |2504|  ; [ORIG 16-BIT INS]
    6647                            .dwpsn  file "../driverlib/hibernate.c",line 2505,column 5,is_stmt,isa 1
    6648                    ;----------------------------------------------------------------------
    6649                    ; 2505 | _HibernateWriteComplete();                                             
    6650                    ; 2507 | //                                                                     
    6651                    ; 2508 | // Set the XOSCFAIL clear bit.                                         
    6652                    ; 2509 | //                                                                     
    6653                    ;----------------------------------------------------------------------
    6654                    $C$DW$267       .dwtag  DW_TAG_TI_branch
    6655                            .dwattr $C$DW$267, DW_AT_low_pc(0x00)
    6656                            .dwattr $C$DW$267, DW_AT_name("_HibernateWriteComplete")
    6657                            .dwattr $C$DW$267, DW_AT_TI_call
    6658                    
    6659 000008d0 FFFEF7FF!         BL        _HibernateWriteComplete ; [DPU_V7M3_PIPE] |2505|  ; [KEEP 32-BIT INS]
    6660                            ; CALL OCCURS {_HibernateWriteComplete }  ; [] |2505| 
    6661                            .dwpsn  file "../driverlib/hibernate.c",line 2510,column 5,is_stmt,isa 1
    6662                    ;----------------------------------------------------------------------
    6663                    ; 2510 | HWREG(HIB_TPSTAT) |= HIB_TPSTAT_XOSCFAIL;                              
    6664                    ; 2512 | //                                                                     
    6665                    ; 2513 | // Wait for write completion.                                          
    6666                    ; 2514 | //                                                                     
    6667                    ;----------------------------------------------------------------------
    6668 000008d4 490F              LDR       A2, $C$CON36          ; [DPU_V7M3_PIPE] |2510|  ; [ORIG 16-BIT INS]
    6669 000008d6 6808              LDR       A1, [A2, #0]          ; [DPU_V7M3_PIPE] |2510|  ; [ORIG 16-BIT INS]
    6670 000008d8 0001F040          ORR       A1, A1, #1            ; [DPU_V7M3_PIPE] |2510|  ; [KEEP 32-BIT INS]
    6671 000008dc 6008              STR       A1, [A2, #0]          ; [DPU_V7M3_PIPE] |2510|  ; [ORIG 16-BIT INS]
    6672                            .dwpsn  file "../driverlib/hibernate.c",line 2515,column 5,is_stmt,isa 1
    6673                    ;----------------------------------------------------------------------
    6674                    ; 2515 | _HibernateWriteComplete();                                             
    6675                    ; 2517 | //                                                                     
    6676                    ; 2518 | // Lock the tamper registers.                                          
    6677                    ; 2519 | //                                                                     
    6678                    ;----------------------------------------------------------------------
    6679                    $C$DW$268       .dwtag  DW_TAG_TI_branch
    6680                            .dwattr $C$DW$268, DW_AT_low_pc(0x00)
    6681                            .dwattr $C$DW$268, DW_AT_name("_HibernateWriteComplete")
    6682                            .dwattr $C$DW$268, DW_AT_TI_call
TI ARM Assembler Unix v18.1.1 Fri Jul  3 20:08:24 2020

Tools Copyright (c) 1996-2017 Texas Instruments Incorporated
hibernate.asm                                                        PAGE  123

    6683                    
    6684 000008de FFFEF7FF!         BL        _HibernateWriteComplete ; [DPU_V7M3_PIPE] |2515|  ; [KEEP 32-BIT INS]
    6685                            ; CALL OCCURS {_HibernateWriteComplete }  ; [] |2515| 
    6686                            .dwpsn  file "../driverlib/hibernate.c",line 2520,column 5,is_stmt,isa 1
    6687                    ;----------------------------------------------------------------------
    6688                    ; 2520 | HWREG(HIB_LOCK) = 0;                                                   
    6689                    ;----------------------------------------------------------------------
    6690 000008e2 490A              LDR       A2, $C$CON34          ; [DPU_V7M3_PIPE] |2520|  ; [ORIG 16-BIT INS]
    6691 000008e4 2000              MOVS      A1, #0                ; [DPU_V7M3_PIPE] |2520|  ; [ORIG 16-BIT INS]
    6692 000008e6 6008              STR       A1, [A2, #0]          ; [DPU_V7M3_PIPE] |2520|  ; [ORIG 16-BIT INS]
    6693                            .dwpsn  file "../driverlib/hibernate.c",line 2521,column 5,is_stmt,isa 1
    6694                    ;----------------------------------------------------------------------
    6695                    ; 2521 | _HibernateWriteComplete();                                             
    6696                    ;----------------------------------------------------------------------
    6697                    $C$DW$269       .dwtag  DW_TAG_TI_branch
    6698                            .dwattr $C$DW$269, DW_AT_low_pc(0x00)
    6699                            .dwattr $C$DW$269, DW_AT_name("_HibernateWriteComplete")
    6700                            .dwattr $C$DW$269, DW_AT_TI_call
    6701                    
    6702 000008e8 FFFEF7FF!         BL        _HibernateWriteComplete ; [DPU_V7M3_PIPE] |2521|  ; [KEEP 32-BIT INS]
    6703                            ; CALL OCCURS {_HibernateWriteComplete }  ; [] |2521| 
    6704                            .dwpsn  file "../driverlib/hibernate.c",line 2522,column 1,is_stmt,isa 1
    6705                    $C$DW$270       .dwtag  DW_TAG_TI_branch
    6706                            .dwattr $C$DW$270, DW_AT_low_pc(0x00)
    6707                            .dwattr $C$DW$270, DW_AT_TI_return
    6708                    
    6709 000008ec BD08              POP       {A4, PC}              ; [DPU_V7M3_PIPE]  ; [ORIG 16-BIT INS]
    6710                            .dwcfi  cfa_offset, 0
    6711                            .dwcfi  restore_reg, 3
    6712                            ; BRANCH OCCURS                  ; [] 
    6713                            .dwattr $C$DW$266, DW_AT_TI_end_file("../driverlib/hibernate.c")
    6714                            .dwattr $C$DW$266, DW_AT_TI_end_line(0x9da)
    6715                            .dwattr $C$DW$266, DW_AT_TI_end_column(0x01)
    6716                            .dwendentry
    6717                            .dwendtag $C$DW$266
    6718                    
    6719 000008ee                   .sect   ".text"
    6720                            .clink
    6721                            .thumbfunc HibernateTamperExtOscValid
    6722 000008ee                   .thumb
    6723                            .global HibernateTamperExtOscValid
    6724                    
    6725                    $C$DW$271       .dwtag  DW_TAG_subprogram
    6726                            .dwattr $C$DW$271, DW_AT_name("HibernateTamperExtOscValid")
    6727                            .dwattr $C$DW$271, DW_AT_low_pc(HibernateTamperExtOscValid)
    6728                            .dwattr $C$DW$271, DW_AT_high_pc(0x00)
    6729                            .dwattr $C$DW$271, DW_AT_TI_symbol_name("HibernateTamperExtOscValid")
    6730                            .dwattr $C$DW$271, DW_AT_external
    6731                            .dwattr $C$DW$271, DW_AT_type(*$C$DW$T$131)
    6732                            .dwattr $C$DW$271, DW_AT_TI_begin_file("../driverlib/hibernate.c")
    6733                            .dwattr $C$DW$271, DW_AT_TI_begin_line(0x9ee)
    6734                            .dwattr $C$DW$271, DW_AT_TI_begin_column(0x01)
    6735                            .dwattr $C$DW$271, DW_AT_decl_file("../driverlib/hibernate.c")
    6736                            .dwattr $C$DW$271, DW_AT_decl_line(0x9ee)
    6737                            .dwattr $C$DW$271, DW_AT_decl_column(0x01)
TI ARM Assembler Unix v18.1.1 Fri Jul  3 20:08:24 2020

Tools Copyright (c) 1996-2017 Texas Instruments Incorporated
hibernate.asm                                                        PAGE  124

    6738                            .dwattr $C$DW$271, DW_AT_TI_max_frame_size(0x08)
    6739                            .dwpsn  file "../driverlib/hibernate.c",line 2543,column 1,is_stmt,address HibernateTamperExtO
    6740                    
    6741                            .dwfde $C$DW$CIE, HibernateTamperExtOscValid
    6742                    ;----------------------------------------------------------------------
    6743                    ; 2542 | HibernateTamperExtOscValid(void)                                       
    6744                    ;----------------------------------------------------------------------
    6745                    
    6746                    ;*****************************************************************************
    6747                    ;* FUNCTION NAME: HibernateTamperExtOscValid                                 *
    6748                    ;*                                                                           *
    6749                    ;*   Regs Modified     : A1,A2,A4,SP,LR,SR,FPEXC,FPSCR                       *
    6750                    ;*   Regs Used         : A1,A2,A4,SP,LR,SR,FPEXC,FPSCR                       *
    6751                    ;*   Local Frame Size  : 0 Args + 0 Auto + 4 Save = 4 byte                   *
    6752                    ;*****************************************************************************
    6753 000008ee           HibernateTamperExtOscValid:
    6754                    ;* --------------------------------------------------------------------------*
    6755                            .dwcfi  cfa_offset, 0
    6756 000008ee B508              PUSH      {A4, LR}              ; [DPU_V7M3_PIPE]  ; [ORIG 16-BIT INS]
    6757                            .dwcfi  cfa_offset, 8
    6758                            .dwcfi  save_reg_to_mem, 14, -4
    6759                            .dwcfi  save_reg_to_mem, 3, -8
    6760                            .dwpsn  file "../driverlib/hibernate.c",line 2544,column 5,is_stmt,isa 1
    6761                    ;----------------------------------------------------------------------
    6762                    ; 2544 | if(HibernateTamperStatusGet() & (HIBERNATE_TAMPER_STATUS_EXT_OSC_ACTIVE
    6763                    ;     |  |                                                                     
    6764                    ; 2545 |                                  HIBERNATE_TAMPER_STATUS_EXT_OSC_VALID)
    6765                    ;     | )                                                                      
    6766                    ;----------------------------------------------------------------------
    6767                    $C$DW$272       .dwtag  DW_TAG_TI_branch
    6768                            .dwattr $C$DW$272, DW_AT_low_pc(0x00)
    6769                            .dwattr $C$DW$272, DW_AT_name("HibernateTamperStatusGet")
    6770                            .dwattr $C$DW$272, DW_AT_TI_call
    6771                    
    6772 000008f0 FFFEF7FF!         BL        HibernateTamperStatusGet ; [DPU_V7M3_PIPE] |2544|  ; [KEEP 32-BIT INS]
    6773                            ; CALL OCCURS {HibernateTamperStatusGet }  ; [] |2544| 
    6774 000008f4 0F0CF010          TST       A1, #12               ; [DPU_V7M3_PIPE] |2544|  ; [KEEP 32-BIT INS]
    6775 000008f8 D001              BEQ       ||$C$L54||            ; [DPU_V7M3_PIPE] |2544|  ; [ORIG 16-BIT INS]
    6776                            ; BRANCHCC OCCURS {||$C$L54||}   ; [] |2544| 
    6777                    ;* --------------------------------------------------------------------------*
    6778                            .dwpsn  file "../driverlib/hibernate.c",line 2547,column 9,is_stmt,isa 1
    6779                    ;----------------------------------------------------------------------
    6780                    ; 2547 | return(true);                                                          
    6781                    ;----------------------------------------------------------------------
    6782 000008fa 2001              MOVS      A1, #1                ; [DPU_V7M3_PIPE] |2547|  ; [ORIG 16-BIT INS]
    6783 000008fc E000              B         ||$C$L55||            ; [DPU_V7M3_PIPE] |2547|  ; [ORIG 16-BIT INS]
    6784                            ; BRANCH OCCURS {||$C$L55||}     ; [] |2547| 
    6785                    ;* --------------------------------------------------------------------------*
    6786 000008fe           ||$C$L54||:    
    6787                            .dwpsn  file "../driverlib/hibernate.c",line 2550,column 5,is_stmt,isa 1
    6788                    ;----------------------------------------------------------------------
    6789                    ; 2550 | return(false);                                                         
    6790                    ;----------------------------------------------------------------------
    6791 000008fe 2000              MOVS      A1, #0                ; [DPU_V7M3_PIPE] |2550|  ; [ORIG 16-BIT INS]
    6792                    ;* --------------------------------------------------------------------------*
TI ARM Assembler Unix v18.1.1 Fri Jul  3 20:08:24 2020

Tools Copyright (c) 1996-2017 Texas Instruments Incorporated
hibernate.asm                                                        PAGE  125

    6793 00000900           ||$C$L55||:    
    6794                            .dwpsn  file "../driverlib/hibernate.c",line 2551,column 1,is_stmt,isa 1
    6795                    $C$DW$273       .dwtag  DW_TAG_TI_branch
    6796                            .dwattr $C$DW$273, DW_AT_low_pc(0x00)
    6797                            .dwattr $C$DW$273, DW_AT_TI_return
    6798                    
    6799 00000900 BD08              POP       {A4, PC}              ; [DPU_V7M3_PIPE]  ; [ORIG 16-BIT INS]
    6800                            .dwcfi  cfa_offset, 0
    6801                            .dwcfi  restore_reg, 3
    6802                            ; BRANCH OCCURS                  ; [] 
    6803                            .dwattr $C$DW$271, DW_AT_TI_end_file("../driverlib/hibernate.c")
    6804                            .dwattr $C$DW$271, DW_AT_TI_end_line(0x9f7)
    6805                            .dwattr $C$DW$271, DW_AT_TI_end_column(0x01)
    6806                            .dwendentry
    6807                            .dwendtag $C$DW$271
    6808                    
    6809                    ;******************************************************************************
    6810                    ;* CONSTANT TABLE                                                             *
    6811                    ;******************************************************************************
    6812 00000902                   .sect   ".text"
    6813                            .align  4
    6814 00000902 C40046C0  ||$C$CON32||:   .bits   1074775040,32
         00000906 0000400F 
    6815                            .align  4
    6816 00000906 C410400F  ||$C$CON33||:   .bits   1074775056,32
         0000090a 0000400F 
    6817                            .align  4
    6818 0000090a C360400F  ||$C$CON34||:   .bits   1074774880,32
         0000090e 0000400F 
    6819                            .align  4
    6820 0000090e 9554400F  ||$C$CON35||:   .bits   -1556769452,32
         00000912 0000A335 
    6821                            .align  4
    6822 00000912 C404A335  ||$C$CON36||:   .bits   1074775044,32
         00000916 0000400F 
    6823                            .align  4
    6824 00000916 C4E4400F  ||$C$CON37||:   .bits   1074775268,32
         0000091a 0000400F 
    6825                            .align  4
    6826 0000091a C4E0400F  ||$C$CON38||:   .bits   1074775264,32
         0000091e 0000400F 
    6827                            .align  4
    6828 0000091e C300400F  ||$C$CON39||:   .bits   1074774784,32
         00000922 0000400F 
    6829                            .align  4
    6830 00000922 C310400F  ||$C$CON40||:   .bits   1074774800,32
         00000926 0000400F 
    6831                    ;*****************************************************************************
    6832                    ;* UNDEFINED EXTERNAL REFERENCES                                             *
    6833                    ;*****************************************************************************
    6834                            .global IntRegister
    6835                            .global IntEnable
    6836                            .global IntDisable
    6837                            .global IntUnregister
    6838                    
TI ARM Assembler Unix v18.1.1 Fri Jul  3 20:08:24 2020

Tools Copyright (c) 1996-2017 Texas Instruments Incorporated
hibernate.asm                                                        PAGE  126

    6839                    ;******************************************************************************
    6840                    ;* BUILD ATTRIBUTES                                                           *
    6841                    ;******************************************************************************
    6842                            .battr "aeabi", Tag_File, 1, Tag_ABI_PCS_wchar_t(2)
    6843                            .battr "aeabi", Tag_File, 1, Tag_ABI_FP_rounding(0)
    6844                            .battr "aeabi", Tag_File, 1, Tag_ABI_FP_denormal(0)
    6845                            .battr "aeabi", Tag_File, 1, Tag_ABI_FP_exceptions(0)
    6846                            .battr "aeabi", Tag_File, 1, Tag_ABI_FP_number_model(1)
    6847                            .battr "aeabi", Tag_File, 1, Tag_ABI_enum_size(0)
    6848                            .battr "aeabi", Tag_File, 1, Tag_ABI_optimization_goals(5)
    6849                            .battr "aeabi", Tag_File, 1, Tag_ABI_FP_optimization_goals(0)
    6850                            .battr "TI", Tag_File, 1, Tag_Bitfield_layout(2)
    6851                            .battr "aeabi", Tag_File, 1, Tag_ABI_VFP_args(3)
    6852                            .battr "TI", Tag_File, 1, Tag_FP_interface(1)
    6853                    
    6854                    ;******************************************************************************
    6855                    ;* TYPE INFORMATION                                                           *
    6856                    ;******************************************************************************
    6857                    
    6858                    $C$DW$T$22      .dwtag  DW_TAG_structure_type
    6859                            .dwattr $C$DW$T$22, DW_AT_byte_size(0x10)
    6860                    $C$DW$274       .dwtag  DW_TAG_member
    6861                            .dwattr $C$DW$274, DW_AT_type(*$C$DW$T$14)
    6862                            .dwattr $C$DW$274, DW_AT_name("__max_align1")
    6863                            .dwattr $C$DW$274, DW_AT_TI_symbol_name("__max_align1")
    6864                            .dwattr $C$DW$274, DW_AT_data_member_location[DW_OP_plus_uconst 0x0]
    6865                            .dwattr $C$DW$274, DW_AT_accessibility(DW_ACCESS_public)
    6866                            .dwattr $C$DW$274, DW_AT_decl_file("/home/pola/ti/ccsv8/tools/compiler/ti-cgt-arm_18.1.1.LTS/i
    6867                            .dwattr $C$DW$274, DW_AT_decl_line(0x70)
    6868                            .dwattr $C$DW$274, DW_AT_decl_column(0x0c)
    6869                    
    6870                    $C$DW$275       .dwtag  DW_TAG_member
    6871                            .dwattr $C$DW$275, DW_AT_type(*$C$DW$T$18)
    6872                            .dwattr $C$DW$275, DW_AT_name("__max_align2")
    6873                            .dwattr $C$DW$275, DW_AT_TI_symbol_name("__max_align2")
    6874                            .dwattr $C$DW$275, DW_AT_data_member_location[DW_OP_plus_uconst 0x8]
    6875                            .dwattr $C$DW$275, DW_AT_accessibility(DW_ACCESS_public)
    6876                            .dwattr $C$DW$275, DW_AT_decl_file("/home/pola/ti/ccsv8/tools/compiler/ti-cgt-arm_18.1.1.LTS/i
    6877                            .dwattr $C$DW$275, DW_AT_decl_line(0x71)
    6878                            .dwattr $C$DW$275, DW_AT_decl_column(0x0e)
    6879                    
    6880                            .dwattr $C$DW$T$22, DW_AT_decl_file("/home/pola/ti/ccsv8/tools/compiler/ti-cgt-arm_18.1.1.LTS/
    6881                            .dwattr $C$DW$T$22, DW_AT_decl_line(0x6f)
    6882                            .dwattr $C$DW$T$22, DW_AT_decl_column(0x10)
    6883                            .dwendtag $C$DW$T$22
    6884                    
    6885                    $C$DW$T$28      .dwtag  DW_TAG_typedef
    6886                            .dwattr $C$DW$T$28, DW_AT_name("__max_align_t")
    6887                            .dwattr $C$DW$T$28, DW_AT_type(*$C$DW$T$22)
    6888                            .dwattr $C$DW$T$28, DW_AT_language(DW_LANG_C)
    6889                            .dwattr $C$DW$T$28, DW_AT_decl_file("/home/pola/ti/ccsv8/tools/compiler/ti-cgt-arm_18.1.1.LTS/
    6890                            .dwattr $C$DW$T$28, DW_AT_decl_line(0x72)
    6891                            .dwattr $C$DW$T$28, DW_AT_decl_column(0x03)
    6892                    
    6893                    
TI ARM Assembler Unix v18.1.1 Fri Jul  3 20:08:24 2020

Tools Copyright (c) 1996-2017 Texas Instruments Incorporated
hibernate.asm                                                        PAGE  127

    6894                    $C$DW$T$25      .dwtag  DW_TAG_structure_type
    6895                            .dwattr $C$DW$T$25, DW_AT_byte_size(0x10)
    6896                    $C$DW$276       .dwtag  DW_TAG_member
    6897                            .dwattr $C$DW$276, DW_AT_type(*$C$DW$T$8)
    6898                            .dwattr $C$DW$276, DW_AT_name("daylight")
    6899                            .dwattr $C$DW$276, DW_AT_TI_symbol_name("daylight")
    6900                            .dwattr $C$DW$276, DW_AT_data_member_location[DW_OP_plus_uconst 0x0]
    6901                            .dwattr $C$DW$276, DW_AT_accessibility(DW_ACCESS_public)
    6902                            .dwattr $C$DW$276, DW_AT_decl_file("/home/pola/ti/ccsv8/tools/compiler/ti-cgt-arm_18.1.1.LTS/i
    6903                            .dwattr $C$DW$276, DW_AT_decl_line(0x93)
    6904                            .dwattr $C$DW$276, DW_AT_decl_column(0x0b)
    6905                    
    6906                    $C$DW$277       .dwtag  DW_TAG_member
    6907                            .dwattr $C$DW$277, DW_AT_type(*$C$DW$T$12)
    6908                            .dwattr $C$DW$277, DW_AT_name("timezone")
    6909                            .dwattr $C$DW$277, DW_AT_TI_symbol_name("timezone")
    6910                            .dwattr $C$DW$277, DW_AT_data_member_location[DW_OP_plus_uconst 0x4]
    6911                            .dwattr $C$DW$277, DW_AT_accessibility(DW_ACCESS_public)
    6912                            .dwattr $C$DW$277, DW_AT_decl_file("/home/pola/ti/ccsv8/tools/compiler/ti-cgt-arm_18.1.1.LTS/i
    6913                            .dwattr $C$DW$277, DW_AT_decl_line(0x94)
    6914                            .dwattr $C$DW$277, DW_AT_decl_column(0x0b)
    6915                    
    6916                    $C$DW$278       .dwtag  DW_TAG_member
    6917                            .dwattr $C$DW$278, DW_AT_type(*$C$DW$T$24)
    6918                            .dwattr $C$DW$278, DW_AT_name("tzname")
    6919                            .dwattr $C$DW$278, DW_AT_TI_symbol_name("tzname")
    6920                            .dwattr $C$DW$278, DW_AT_data_member_location[DW_OP_plus_uconst 0x8]
    6921                            .dwattr $C$DW$278, DW_AT_accessibility(DW_ACCESS_public)
    6922                            .dwattr $C$DW$278, DW_AT_decl_file("/home/pola/ti/ccsv8/tools/compiler/ti-cgt-arm_18.1.1.LTS/i
    6923                            .dwattr $C$DW$278, DW_AT_decl_line(0x95)
    6924                            .dwattr $C$DW$278, DW_AT_decl_column(0x0b)
    6925                    
    6926                    $C$DW$279       .dwtag  DW_TAG_member
    6927                            .dwattr $C$DW$279, DW_AT_type(*$C$DW$T$24)
    6928                            .dwattr $C$DW$279, DW_AT_name("dstname")
    6929                            .dwattr $C$DW$279, DW_AT_TI_symbol_name("dstname")
    6930                            .dwattr $C$DW$279, DW_AT_data_member_location[DW_OP_plus_uconst 0xc]
    6931                            .dwattr $C$DW$279, DW_AT_accessibility(DW_ACCESS_public)
    6932                            .dwattr $C$DW$279, DW_AT_decl_file("/home/pola/ti/ccsv8/tools/compiler/ti-cgt-arm_18.1.1.LTS/i
    6933                            .dwattr $C$DW$279, DW_AT_decl_line(0x96)
    6934                            .dwattr $C$DW$279, DW_AT_decl_column(0x0b)
    6935                    
    6936                            .dwattr $C$DW$T$25, DW_AT_decl_file("/home/pola/ti/ccsv8/tools/compiler/ti-cgt-arm_18.1.1.LTS/
    6937                            .dwattr $C$DW$T$25, DW_AT_decl_line(0x92)
    6938                            .dwattr $C$DW$T$25, DW_AT_decl_column(0x01)
    6939                            .dwendtag $C$DW$T$25
    6940                    
    6941                    $C$DW$T$29      .dwtag  DW_TAG_typedef
    6942                            .dwattr $C$DW$T$29, DW_AT_name("TZ")
    6943                            .dwattr $C$DW$T$29, DW_AT_type(*$C$DW$T$25)
    6944                            .dwattr $C$DW$T$29, DW_AT_language(DW_LANG_C)
    6945                            .dwattr $C$DW$T$29, DW_AT_decl_file("/home/pola/ti/ccsv8/tools/compiler/ti-cgt-arm_18.1.1.LTS/
    6946                            .dwattr $C$DW$T$29, DW_AT_decl_line(0x97)
    6947                            .dwattr $C$DW$T$29, DW_AT_decl_column(0x03)
    6948                    
TI ARM Assembler Unix v18.1.1 Fri Jul  3 20:08:24 2020

Tools Copyright (c) 1996-2017 Texas Instruments Incorporated
hibernate.asm                                                        PAGE  128

    6949                    $C$DW$T$2       .dwtag  DW_TAG_unspecified_type
    6950                            .dwattr $C$DW$T$2, DW_AT_name("void")
    6951                    
    6952                    $C$DW$T$3       .dwtag  DW_TAG_pointer_type
    6953                            .dwattr $C$DW$T$3, DW_AT_type(*$C$DW$T$2)
    6954                            .dwattr $C$DW$T$3, DW_AT_address_class(0x20)
    6955                    
    6956                    
    6957                    $C$DW$T$30      .dwtag  DW_TAG_subroutine_type
    6958                            .dwattr $C$DW$T$30, DW_AT_language(DW_LANG_C)
    6959                            .dwendtag $C$DW$T$30
    6960                    
    6961                    $C$DW$T$31      .dwtag  DW_TAG_pointer_type
    6962                            .dwattr $C$DW$T$31, DW_AT_type(*$C$DW$T$30)
    6963                            .dwattr $C$DW$T$31, DW_AT_address_class(0x20)
    6964                    
    6965                    $C$DW$T$4       .dwtag  DW_TAG_base_type
    6966                            .dwattr $C$DW$T$4, DW_AT_encoding(DW_ATE_boolean)
    6967                            .dwattr $C$DW$T$4, DW_AT_name("bool")
    6968                            .dwattr $C$DW$T$4, DW_AT_byte_size(0x01)
    6969                    
    6970                    $C$DW$T$5       .dwtag  DW_TAG_base_type
    6971                            .dwattr $C$DW$T$5, DW_AT_encoding(DW_ATE_signed_char)
    6972                            .dwattr $C$DW$T$5, DW_AT_name("signed char")
    6973                            .dwattr $C$DW$T$5, DW_AT_byte_size(0x01)
    6974                    
    6975                    $C$DW$T$46      .dwtag  DW_TAG_typedef
    6976                            .dwattr $C$DW$T$46, DW_AT_name("__int8_t")
    6977                            .dwattr $C$DW$T$46, DW_AT_type(*$C$DW$T$5)
    6978                            .dwattr $C$DW$T$46, DW_AT_language(DW_LANG_C)
    6979                            .dwattr $C$DW$T$46, DW_AT_decl_file("/home/pola/ti/ccsv8/tools/compiler/ti-cgt-arm_18.1.1.LTS/
    6980                            .dwattr $C$DW$T$46, DW_AT_decl_line(0x39)
    6981                            .dwattr $C$DW$T$46, DW_AT_decl_column(0x16)
    6982                    
    6983                    $C$DW$T$47      .dwtag  DW_TAG_typedef
    6984                            .dwattr $C$DW$T$47, DW_AT_name("__int_least8_t")
    6985                            .dwattr $C$DW$T$47, DW_AT_type(*$C$DW$T$46)
    6986                            .dwattr $C$DW$T$47, DW_AT_language(DW_LANG_C)
    6987                            .dwattr $C$DW$T$47, DW_AT_decl_file("/home/pola/ti/ccsv8/tools/compiler/ti-cgt-arm_18.1.1.LTS/
    6988                            .dwattr $C$DW$T$47, DW_AT_decl_line(0x58)
    6989                            .dwattr $C$DW$T$47, DW_AT_decl_column(0x12)
    6990                    
    6991                    $C$DW$T$48      .dwtag  DW_TAG_typedef
    6992                            .dwattr $C$DW$T$48, DW_AT_name("int_least8_t")
    6993                            .dwattr $C$DW$T$48, DW_AT_type(*$C$DW$T$47)
    6994                            .dwattr $C$DW$T$48, DW_AT_language(DW_LANG_C)
    6995                            .dwattr $C$DW$T$48, DW_AT_decl_file("/home/pola/ti/ccsv8/tools/compiler/ti-cgt-arm_18.1.1.LTS/
    6996                            .dwattr $C$DW$T$48, DW_AT_decl_line(0x28)
    6997                            .dwattr $C$DW$T$48, DW_AT_decl_column(0x19)
    6998                    
    6999                    $C$DW$T$49      .dwtag  DW_TAG_typedef
    7000                            .dwattr $C$DW$T$49, DW_AT_name("int8_t")
    7001                            .dwattr $C$DW$T$49, DW_AT_type(*$C$DW$T$46)
    7002                            .dwattr $C$DW$T$49, DW_AT_language(DW_LANG_C)
    7003                            .dwattr $C$DW$T$49, DW_AT_decl_file("/home/pola/ti/ccsv8/tools/compiler/ti-cgt-arm_18.1.1.LTS/
TI ARM Assembler Unix v18.1.1 Fri Jul  3 20:08:24 2020

Tools Copyright (c) 1996-2017 Texas Instruments Incorporated
hibernate.asm                                                        PAGE  129

    7004                            .dwattr $C$DW$T$49, DW_AT_decl_line(0x24)
    7005                            .dwattr $C$DW$T$49, DW_AT_decl_column(0x13)
    7006                    
    7007                    $C$DW$T$6       .dwtag  DW_TAG_base_type
    7008                            .dwattr $C$DW$T$6, DW_AT_encoding(DW_ATE_unsigned_char)
    7009                            .dwattr $C$DW$T$6, DW_AT_name("unsigned char")
    7010                            .dwattr $C$DW$T$6, DW_AT_byte_size(0x01)
    7011                    
    7012                    $C$DW$T$50      .dwtag  DW_TAG_typedef
    7013                            .dwattr $C$DW$T$50, DW_AT_name("__uint8_t")
    7014                            .dwattr $C$DW$T$50, DW_AT_type(*$C$DW$T$6)
    7015                            .dwattr $C$DW$T$50, DW_AT_language(DW_LANG_C)
    7016                            .dwattr $C$DW$T$50, DW_AT_decl_file("/home/pola/ti/ccsv8/tools/compiler/ti-cgt-arm_18.1.1.LTS/
    7017                            .dwattr $C$DW$T$50, DW_AT_decl_line(0x3a)
    7018                            .dwattr $C$DW$T$50, DW_AT_decl_column(0x18)
    7019                    
    7020                    $C$DW$T$51      .dwtag  DW_TAG_typedef
    7021                            .dwattr $C$DW$T$51, DW_AT_name("__sa_family_t")
    7022                            .dwattr $C$DW$T$51, DW_AT_type(*$C$DW$T$50)
    7023                            .dwattr $C$DW$T$51, DW_AT_language(DW_LANG_C)
    7024                            .dwattr $C$DW$T$51, DW_AT_decl_file("/home/pola/ti/ccsv8/tools/compiler/ti-cgt-arm_18.1.1.LTS/
    7025                            .dwattr $C$DW$T$51, DW_AT_decl_line(0x43)
    7026                            .dwattr $C$DW$T$51, DW_AT_decl_column(0x13)
    7027                    
    7028                    $C$DW$T$52      .dwtag  DW_TAG_typedef
    7029                            .dwattr $C$DW$T$52, DW_AT_name("__uint_least8_t")
    7030                            .dwattr $C$DW$T$52, DW_AT_type(*$C$DW$T$50)
    7031                            .dwattr $C$DW$T$52, DW_AT_language(DW_LANG_C)
    7032                            .dwattr $C$DW$T$52, DW_AT_decl_file("/home/pola/ti/ccsv8/tools/compiler/ti-cgt-arm_18.1.1.LTS/
    7033                            .dwattr $C$DW$T$52, DW_AT_decl_line(0x6d)
    7034                            .dwattr $C$DW$T$52, DW_AT_decl_column(0x13)
    7035                    
    7036                    $C$DW$T$53      .dwtag  DW_TAG_typedef
    7037                            .dwattr $C$DW$T$53, DW_AT_name("uint_least8_t")
    7038                            .dwattr $C$DW$T$53, DW_AT_type(*$C$DW$T$52)
    7039                            .dwattr $C$DW$T$53, DW_AT_language(DW_LANG_C)
    7040                            .dwattr $C$DW$T$53, DW_AT_decl_file("/home/pola/ti/ccsv8/tools/compiler/ti-cgt-arm_18.1.1.LTS/
    7041                            .dwattr $C$DW$T$53, DW_AT_decl_line(0x2d)
    7042                            .dwattr $C$DW$T$53, DW_AT_decl_column(0x1a)
    7043                    
    7044                    $C$DW$T$54      .dwtag  DW_TAG_typedef
    7045                            .dwattr $C$DW$T$54, DW_AT_name("uint8_t")
    7046                            .dwattr $C$DW$T$54, DW_AT_type(*$C$DW$T$50)
    7047                            .dwattr $C$DW$T$54, DW_AT_language(DW_LANG_C)
    7048                            .dwattr $C$DW$T$54, DW_AT_decl_file("/home/pola/ti/ccsv8/tools/compiler/ti-cgt-arm_18.1.1.LTS/
    7049                            .dwattr $C$DW$T$54, DW_AT_decl_line(0x38)
    7050                            .dwattr $C$DW$T$54, DW_AT_decl_column(0x14)
    7051                    
    7052                    $C$DW$T$7       .dwtag  DW_TAG_base_type
    7053                            .dwattr $C$DW$T$7, DW_AT_encoding(DW_ATE_signed_char)
    7054                            .dwattr $C$DW$T$7, DW_AT_name("wchar_t")
    7055                            .dwattr $C$DW$T$7, DW_AT_byte_size(0x02)
    7056                    
    7057                    $C$DW$T$8       .dwtag  DW_TAG_base_type
    7058                            .dwattr $C$DW$T$8, DW_AT_encoding(DW_ATE_signed)
TI ARM Assembler Unix v18.1.1 Fri Jul  3 20:08:24 2020

Tools Copyright (c) 1996-2017 Texas Instruments Incorporated
hibernate.asm                                                        PAGE  130

    7059                            .dwattr $C$DW$T$8, DW_AT_name("short")
    7060                            .dwattr $C$DW$T$8, DW_AT_byte_size(0x02)
    7061                    
    7062                    $C$DW$T$55      .dwtag  DW_TAG_typedef
    7063                            .dwattr $C$DW$T$55, DW_AT_name("__int16_t")
    7064                            .dwattr $C$DW$T$55, DW_AT_type(*$C$DW$T$8)
    7065                            .dwattr $C$DW$T$55, DW_AT_language(DW_LANG_C)
    7066                            .dwattr $C$DW$T$55, DW_AT_decl_file("/home/pola/ti/ccsv8/tools/compiler/ti-cgt-arm_18.1.1.LTS/
    7067                            .dwattr $C$DW$T$55, DW_AT_decl_line(0x3b)
    7068                            .dwattr $C$DW$T$55, DW_AT_decl_column(0x11)
    7069                    
    7070                    $C$DW$T$56      .dwtag  DW_TAG_typedef
    7071                            .dwattr $C$DW$T$56, DW_AT_name("__int_least16_t")
    7072                            .dwattr $C$DW$T$56, DW_AT_type(*$C$DW$T$55)
    7073                            .dwattr $C$DW$T$56, DW_AT_language(DW_LANG_C)
    7074                            .dwattr $C$DW$T$56, DW_AT_decl_file("/home/pola/ti/ccsv8/tools/compiler/ti-cgt-arm_18.1.1.LTS/
    7075                            .dwattr $C$DW$T$56, DW_AT_decl_line(0x59)
    7076                            .dwattr $C$DW$T$56, DW_AT_decl_column(0x13)
    7077                    
    7078                    $C$DW$T$57      .dwtag  DW_TAG_typedef
    7079                            .dwattr $C$DW$T$57, DW_AT_name("int_least16_t")
    7080                            .dwattr $C$DW$T$57, DW_AT_type(*$C$DW$T$56)
    7081                            .dwattr $C$DW$T$57, DW_AT_language(DW_LANG_C)
    7082                            .dwattr $C$DW$T$57, DW_AT_decl_file("/home/pola/ti/ccsv8/tools/compiler/ti-cgt-arm_18.1.1.LTS/
    7083                            .dwattr $C$DW$T$57, DW_AT_decl_line(0x29)
    7084                            .dwattr $C$DW$T$57, DW_AT_decl_column(0x1a)
    7085                    
    7086                    $C$DW$T$58      .dwtag  DW_TAG_typedef
    7087                            .dwattr $C$DW$T$58, DW_AT_name("int16_t")
    7088                            .dwattr $C$DW$T$58, DW_AT_type(*$C$DW$T$55)
    7089                            .dwattr $C$DW$T$58, DW_AT_language(DW_LANG_C)
    7090                            .dwattr $C$DW$T$58, DW_AT_decl_file("/home/pola/ti/ccsv8/tools/compiler/ti-cgt-arm_18.1.1.LTS/
    7091                            .dwattr $C$DW$T$58, DW_AT_decl_line(0x29)
    7092                            .dwattr $C$DW$T$58, DW_AT_decl_column(0x14)
    7093                    
    7094                    $C$DW$T$9       .dwtag  DW_TAG_base_type
    7095                            .dwattr $C$DW$T$9, DW_AT_encoding(DW_ATE_unsigned)
    7096                            .dwattr $C$DW$T$9, DW_AT_name("unsigned short")
    7097                            .dwattr $C$DW$T$9, DW_AT_byte_size(0x02)
    7098                    
    7099                    $C$DW$T$59      .dwtag  DW_TAG_typedef
    7100                            .dwattr $C$DW$T$59, DW_AT_name("___wchar_t")
    7101                            .dwattr $C$DW$T$59, DW_AT_type(*$C$DW$T$9)
    7102                            .dwattr $C$DW$T$59, DW_AT_language(DW_LANG_C)
    7103                            .dwattr $C$DW$T$59, DW_AT_decl_file("/home/pola/ti/ccsv8/tools/compiler/ti-cgt-arm_18.1.1.LTS/
    7104                            .dwattr $C$DW$T$59, DW_AT_decl_line(0x76)
    7105                            .dwattr $C$DW$T$59, DW_AT_decl_column(0x1a)
    7106                    
    7107                    $C$DW$T$60      .dwtag  DW_TAG_typedef
    7108                            .dwattr $C$DW$T$60, DW_AT_name("__uint16_t")
    7109                            .dwattr $C$DW$T$60, DW_AT_type(*$C$DW$T$9)
    7110                            .dwattr $C$DW$T$60, DW_AT_language(DW_LANG_C)
    7111                            .dwattr $C$DW$T$60, DW_AT_decl_file("/home/pola/ti/ccsv8/tools/compiler/ti-cgt-arm_18.1.1.LTS/
    7112                            .dwattr $C$DW$T$60, DW_AT_decl_line(0x3c)
    7113                            .dwattr $C$DW$T$60, DW_AT_decl_column(0x19)
TI ARM Assembler Unix v18.1.1 Fri Jul  3 20:08:24 2020

Tools Copyright (c) 1996-2017 Texas Instruments Incorporated
hibernate.asm                                                        PAGE  131

    7114                    
    7115                    $C$DW$T$61      .dwtag  DW_TAG_typedef
    7116                            .dwattr $C$DW$T$61, DW_AT_name("__mode_t")
    7117                            .dwattr $C$DW$T$61, DW_AT_type(*$C$DW$T$60)
    7118                            .dwattr $C$DW$T$61, DW_AT_language(DW_LANG_C)
    7119                            .dwattr $C$DW$T$61, DW_AT_decl_file("/home/pola/ti/ccsv8/tools/compiler/ti-cgt-arm_18.1.1.LTS/
    7120                            .dwattr $C$DW$T$61, DW_AT_decl_line(0x39)
    7121                            .dwattr $C$DW$T$61, DW_AT_decl_column(0x14)
    7122                    
    7123                    $C$DW$T$62      .dwtag  DW_TAG_typedef
    7124                            .dwattr $C$DW$T$62, DW_AT_name("__uint_least16_t")
    7125                            .dwattr $C$DW$T$62, DW_AT_type(*$C$DW$T$60)
    7126                            .dwattr $C$DW$T$62, DW_AT_language(DW_LANG_C)
    7127                            .dwattr $C$DW$T$62, DW_AT_decl_file("/home/pola/ti/ccsv8/tools/compiler/ti-cgt-arm_18.1.1.LTS/
    7128                            .dwattr $C$DW$T$62, DW_AT_decl_line(0x6e)
    7129                            .dwattr $C$DW$T$62, DW_AT_decl_column(0x14)
    7130                    
    7131                    $C$DW$T$63      .dwtag  DW_TAG_typedef
    7132                            .dwattr $C$DW$T$63, DW_AT_name("__char16_t")
    7133                            .dwattr $C$DW$T$63, DW_AT_type(*$C$DW$T$62)
    7134                            .dwattr $C$DW$T$63, DW_AT_language(DW_LANG_C)
    7135                            .dwattr $C$DW$T$63, DW_AT_decl_file("/home/pola/ti/ccsv8/tools/compiler/ti-cgt-arm_18.1.1.LTS/
    7136                            .dwattr $C$DW$T$63, DW_AT_decl_line(0x66)
    7137                            .dwattr $C$DW$T$63, DW_AT_decl_column(0x1a)
    7138                    
    7139                    $C$DW$T$64      .dwtag  DW_TAG_typedef
    7140                            .dwattr $C$DW$T$64, DW_AT_name("uint_least16_t")
    7141                            .dwattr $C$DW$T$64, DW_AT_type(*$C$DW$T$62)
    7142                            .dwattr $C$DW$T$64, DW_AT_language(DW_LANG_C)
    7143                            .dwattr $C$DW$T$64, DW_AT_decl_file("/home/pola/ti/ccsv8/tools/compiler/ti-cgt-arm_18.1.1.LTS/
    7144                            .dwattr $C$DW$T$64, DW_AT_decl_line(0x2e)
    7145                            .dwattr $C$DW$T$64, DW_AT_decl_column(0x1a)
    7146                    
    7147                    $C$DW$T$65      .dwtag  DW_TAG_typedef
    7148                            .dwattr $C$DW$T$65, DW_AT_name("uint16_t")
    7149                            .dwattr $C$DW$T$65, DW_AT_type(*$C$DW$T$60)
    7150                            .dwattr $C$DW$T$65, DW_AT_language(DW_LANG_C)
    7151                            .dwattr $C$DW$T$65, DW_AT_decl_file("/home/pola/ti/ccsv8/tools/compiler/ti-cgt-arm_18.1.1.LTS/
    7152                            .dwattr $C$DW$T$65, DW_AT_decl_line(0x3d)
    7153                            .dwattr $C$DW$T$65, DW_AT_decl_column(0x15)
    7154                    
    7155                    $C$DW$T$10      .dwtag  DW_TAG_base_type
    7156                            .dwattr $C$DW$T$10, DW_AT_encoding(DW_ATE_signed)
    7157                            .dwattr $C$DW$T$10, DW_AT_name("int")
    7158                            .dwattr $C$DW$T$10, DW_AT_byte_size(0x04)
    7159                    
    7160                    $C$DW$T$66      .dwtag  DW_TAG_typedef
    7161                            .dwattr $C$DW$T$66, DW_AT_name("_Mbstatet")
    7162                            .dwattr $C$DW$T$66, DW_AT_type(*$C$DW$T$10)
    7163                            .dwattr $C$DW$T$66, DW_AT_language(DW_LANG_C)
    7164                            .dwattr $C$DW$T$66, DW_AT_decl_file("/home/pola/ti/ccsv8/tools/compiler/ti-cgt-arm_18.1.1.LTS/
    7165                            .dwattr $C$DW$T$66, DW_AT_decl_line(0x84)
    7166                            .dwattr $C$DW$T$66, DW_AT_decl_column(0x0d)
    7167                    
    7168                    $C$DW$T$67      .dwtag  DW_TAG_typedef
TI ARM Assembler Unix v18.1.1 Fri Jul  3 20:08:24 2020

Tools Copyright (c) 1996-2017 Texas Instruments Incorporated
hibernate.asm                                                        PAGE  132

    7169                            .dwattr $C$DW$T$67, DW_AT_name("__mbstate_t")
    7170                            .dwattr $C$DW$T$67, DW_AT_type(*$C$DW$T$66)
    7171                            .dwattr $C$DW$T$67, DW_AT_language(DW_LANG_C)
    7172                            .dwattr $C$DW$T$67, DW_AT_decl_file("/home/pola/ti/ccsv8/tools/compiler/ti-cgt-arm_18.1.1.LTS/
    7173                            .dwattr $C$DW$T$67, DW_AT_decl_line(0x87)
    7174                            .dwattr $C$DW$T$67, DW_AT_decl_column(0x13)
    7175                    
    7176                    $C$DW$T$68      .dwtag  DW_TAG_typedef
    7177                            .dwattr $C$DW$T$68, DW_AT_name("__accmode_t")
    7178                            .dwattr $C$DW$T$68, DW_AT_type(*$C$DW$T$10)
    7179                            .dwattr $C$DW$T$68, DW_AT_language(DW_LANG_C)
    7180                            .dwattr $C$DW$T$68, DW_AT_decl_file("/home/pola/ti/ccsv8/tools/compiler/ti-cgt-arm_18.1.1.LTS/
    7181                            .dwattr $C$DW$T$68, DW_AT_decl_line(0x3a)
    7182                            .dwattr $C$DW$T$68, DW_AT_decl_column(0x0e)
    7183                    
    7184                    $C$DW$T$70      .dwtag  DW_TAG_typedef
    7185                            .dwattr $C$DW$T$70, DW_AT_name("__clocks_per_sec_t")
    7186                            .dwattr $C$DW$T$70, DW_AT_type(*$C$DW$T$10)
    7187                            .dwattr $C$DW$T$70, DW_AT_language(DW_LANG_C)
    7188                            .dwattr $C$DW$T$70, DW_AT_decl_file("/home/pola/ti/ccsv8/tools/compiler/ti-cgt-arm_18.1.1.LTS/
    7189                            .dwattr $C$DW$T$70, DW_AT_decl_line(0x75)
    7190                            .dwattr $C$DW$T$70, DW_AT_decl_column(0x16)
    7191                    
    7192                    $C$DW$T$71      .dwtag  DW_TAG_typedef
    7193                            .dwattr $C$DW$T$71, DW_AT_name("__cpulevel_t")
    7194                            .dwattr $C$DW$T$71, DW_AT_type(*$C$DW$T$10)
    7195                            .dwattr $C$DW$T$71, DW_AT_language(DW_LANG_C)
    7196                            .dwattr $C$DW$T$71, DW_AT_decl_file("/home/pola/ti/ccsv8/tools/compiler/ti-cgt-arm_18.1.1.LTS/
    7197                            .dwattr $C$DW$T$71, DW_AT_decl_line(0x4b)
    7198                            .dwattr $C$DW$T$71, DW_AT_decl_column(0x0e)
    7199                    
    7200                    $C$DW$T$72      .dwtag  DW_TAG_typedef
    7201                            .dwattr $C$DW$T$72, DW_AT_name("__cpusetid_t")
    7202                            .dwattr $C$DW$T$72, DW_AT_type(*$C$DW$T$10)
    7203                            .dwattr $C$DW$T$72, DW_AT_language(DW_LANG_C)
    7204                            .dwattr $C$DW$T$72, DW_AT_decl_file("/home/pola/ti/ccsv8/tools/compiler/ti-cgt-arm_18.1.1.LTS/
    7205                            .dwattr $C$DW$T$72, DW_AT_decl_line(0x4c)
    7206                            .dwattr $C$DW$T$72, DW_AT_decl_column(0x0e)
    7207                    
    7208                    $C$DW$T$73      .dwtag  DW_TAG_typedef
    7209                            .dwattr $C$DW$T$73, DW_AT_name("__cpuwhich_t")
    7210                            .dwattr $C$DW$T$73, DW_AT_type(*$C$DW$T$10)
    7211                            .dwattr $C$DW$T$73, DW_AT_language(DW_LANG_C)
    7212                            .dwattr $C$DW$T$73, DW_AT_decl_file("/home/pola/ti/ccsv8/tools/compiler/ti-cgt-arm_18.1.1.LTS/
    7213                            .dwattr $C$DW$T$73, DW_AT_decl_line(0x4a)
    7214                            .dwattr $C$DW$T$73, DW_AT_decl_column(0x0e)
    7215                    
    7216                    $C$DW$T$74      .dwtag  DW_TAG_typedef
    7217                            .dwattr $C$DW$T$74, DW_AT_name("__ct_rune_t")
    7218                            .dwattr $C$DW$T$74, DW_AT_type(*$C$DW$T$10)
    7219                            .dwattr $C$DW$T$74, DW_AT_language(DW_LANG_C)
    7220                            .dwattr $C$DW$T$74, DW_AT_decl_file("/home/pola/ti/ccsv8/tools/compiler/ti-cgt-arm_18.1.1.LTS/
    7221                            .dwattr $C$DW$T$74, DW_AT_decl_line(0x60)
    7222                            .dwattr $C$DW$T$74, DW_AT_decl_column(0x0e)
    7223                    
TI ARM Assembler Unix v18.1.1 Fri Jul  3 20:08:24 2020

Tools Copyright (c) 1996-2017 Texas Instruments Incorporated
hibernate.asm                                                        PAGE  133

    7224                    $C$DW$T$75      .dwtag  DW_TAG_typedef
    7225                            .dwattr $C$DW$T$75, DW_AT_name("__rune_t")
    7226                            .dwattr $C$DW$T$75, DW_AT_type(*$C$DW$T$74)
    7227                            .dwattr $C$DW$T$75, DW_AT_language(DW_LANG_C)
    7228                            .dwattr $C$DW$T$75, DW_AT_decl_file("/home/pola/ti/ccsv8/tools/compiler/ti-cgt-arm_18.1.1.LTS/
    7229                            .dwattr $C$DW$T$75, DW_AT_decl_line(0x61)
    7230                            .dwattr $C$DW$T$75, DW_AT_decl_column(0x15)
    7231                    
    7232                    $C$DW$T$76      .dwtag  DW_TAG_typedef
    7233                            .dwattr $C$DW$T$76, DW_AT_name("__wint_t")
    7234                            .dwattr $C$DW$T$76, DW_AT_type(*$C$DW$T$74)
    7235                            .dwattr $C$DW$T$76, DW_AT_language(DW_LANG_C)
    7236                            .dwattr $C$DW$T$76, DW_AT_decl_file("/home/pola/ti/ccsv8/tools/compiler/ti-cgt-arm_18.1.1.LTS/
    7237                            .dwattr $C$DW$T$76, DW_AT_decl_line(0x62)
    7238                            .dwattr $C$DW$T$76, DW_AT_decl_column(0x15)
    7239                    
    7240                    $C$DW$T$77      .dwtag  DW_TAG_typedef
    7241                            .dwattr $C$DW$T$77, DW_AT_name("__int32_t")
    7242                            .dwattr $C$DW$T$77, DW_AT_type(*$C$DW$T$10)
    7243                            .dwattr $C$DW$T$77, DW_AT_language(DW_LANG_C)
    7244                            .dwattr $C$DW$T$77, DW_AT_decl_file("/home/pola/ti/ccsv8/tools/compiler/ti-cgt-arm_18.1.1.LTS/
    7245                            .dwattr $C$DW$T$77, DW_AT_decl_line(0x3d)
    7246                            .dwattr $C$DW$T$77, DW_AT_decl_column(0x0f)
    7247                    
    7248                    $C$DW$T$78      .dwtag  DW_TAG_typedef
    7249                            .dwattr $C$DW$T$78, DW_AT_name("__blksize_t")
    7250                            .dwattr $C$DW$T$78, DW_AT_type(*$C$DW$T$77)
    7251                            .dwattr $C$DW$T$78, DW_AT_language(DW_LANG_C)
    7252                            .dwattr $C$DW$T$78, DW_AT_decl_file("/home/pola/ti/ccsv8/tools/compiler/ti-cgt-arm_18.1.1.LTS/
    7253                            .dwattr $C$DW$T$78, DW_AT_decl_line(0x2e)
    7254                            .dwattr $C$DW$T$78, DW_AT_decl_column(0x13)
    7255                    
    7256                    $C$DW$T$79      .dwtag  DW_TAG_typedef
    7257                            .dwattr $C$DW$T$79, DW_AT_name("__clockid_t")
    7258                            .dwattr $C$DW$T$79, DW_AT_type(*$C$DW$T$77)
    7259                            .dwattr $C$DW$T$79, DW_AT_language(DW_LANG_C)
    7260                            .dwattr $C$DW$T$79, DW_AT_decl_file("/home/pola/ti/ccsv8/tools/compiler/ti-cgt-arm_18.1.1.LTS/
    7261                            .dwattr $C$DW$T$79, DW_AT_decl_line(0x30)
    7262                            .dwattr $C$DW$T$79, DW_AT_decl_column(0x13)
    7263                    
    7264                    $C$DW$T$80      .dwtag  DW_TAG_typedef
    7265                            .dwattr $C$DW$T$80, DW_AT_name("__critical_t")
    7266                            .dwattr $C$DW$T$80, DW_AT_type(*$C$DW$T$77)
    7267                            .dwattr $C$DW$T$80, DW_AT_language(DW_LANG_C)
    7268                            .dwattr $C$DW$T$80, DW_AT_decl_file("/home/pola/ti/ccsv8/tools/compiler/ti-cgt-arm_18.1.1.LTS/
    7269                            .dwattr $C$DW$T$80, DW_AT_decl_line(0x4e)
    7270                            .dwattr $C$DW$T$80, DW_AT_decl_column(0x13)
    7271                    
    7272                    $C$DW$T$81      .dwtag  DW_TAG_typedef
    7273                            .dwattr $C$DW$T$81, DW_AT_name("__int_fast16_t")
    7274                            .dwattr $C$DW$T$81, DW_AT_type(*$C$DW$T$77)
    7275                            .dwattr $C$DW$T$81, DW_AT_language(DW_LANG_C)
    7276                            .dwattr $C$DW$T$81, DW_AT_decl_file("/home/pola/ti/ccsv8/tools/compiler/ti-cgt-arm_18.1.1.LTS/
    7277                            .dwattr $C$DW$T$81, DW_AT_decl_line(0x55)
    7278                            .dwattr $C$DW$T$81, DW_AT_decl_column(0x13)
TI ARM Assembler Unix v18.1.1 Fri Jul  3 20:08:24 2020

Tools Copyright (c) 1996-2017 Texas Instruments Incorporated
hibernate.asm                                                        PAGE  134

    7279                    
    7280                    $C$DW$T$82      .dwtag  DW_TAG_typedef
    7281                            .dwattr $C$DW$T$82, DW_AT_name("int_fast16_t")
    7282                            .dwattr $C$DW$T$82, DW_AT_type(*$C$DW$T$81)
    7283                            .dwattr $C$DW$T$82, DW_AT_language(DW_LANG_C)
    7284                            .dwattr $C$DW$T$82, DW_AT_decl_file("/home/pola/ti/ccsv8/tools/compiler/ti-cgt-arm_18.1.1.LTS/
    7285                            .dwattr $C$DW$T$82, DW_AT_decl_line(0x33)
    7286                            .dwattr $C$DW$T$82, DW_AT_decl_column(0x19)
    7287                    
    7288                    $C$DW$T$83      .dwtag  DW_TAG_typedef
    7289                            .dwattr $C$DW$T$83, DW_AT_name("__int_fast32_t")
    7290                            .dwattr $C$DW$T$83, DW_AT_type(*$C$DW$T$77)
    7291                            .dwattr $C$DW$T$83, DW_AT_language(DW_LANG_C)
    7292                            .dwattr $C$DW$T$83, DW_AT_decl_file("/home/pola/ti/ccsv8/tools/compiler/ti-cgt-arm_18.1.1.LTS/
    7293                            .dwattr $C$DW$T$83, DW_AT_decl_line(0x56)
    7294                            .dwattr $C$DW$T$83, DW_AT_decl_column(0x13)
    7295                    
    7296                    $C$DW$T$84      .dwtag  DW_TAG_typedef
    7297                            .dwattr $C$DW$T$84, DW_AT_name("int_fast32_t")
    7298                            .dwattr $C$DW$T$84, DW_AT_type(*$C$DW$T$83)
    7299                            .dwattr $C$DW$T$84, DW_AT_language(DW_LANG_C)
    7300                            .dwattr $C$DW$T$84, DW_AT_decl_file("/home/pola/ti/ccsv8/tools/compiler/ti-cgt-arm_18.1.1.LTS/
    7301                            .dwattr $C$DW$T$84, DW_AT_decl_line(0x34)
    7302                            .dwattr $C$DW$T$84, DW_AT_decl_column(0x19)
    7303                    
    7304                    $C$DW$T$85      .dwtag  DW_TAG_typedef
    7305                            .dwattr $C$DW$T$85, DW_AT_name("__int_fast8_t")
    7306                            .dwattr $C$DW$T$85, DW_AT_type(*$C$DW$T$77)
    7307                            .dwattr $C$DW$T$85, DW_AT_language(DW_LANG_C)
    7308                            .dwattr $C$DW$T$85, DW_AT_decl_file("/home/pola/ti/ccsv8/tools/compiler/ti-cgt-arm_18.1.1.LTS/
    7309                            .dwattr $C$DW$T$85, DW_AT_decl_line(0x54)
    7310                            .dwattr $C$DW$T$85, DW_AT_decl_column(0x13)
    7311                    
    7312                    $C$DW$T$86      .dwtag  DW_TAG_typedef
    7313                            .dwattr $C$DW$T$86, DW_AT_name("int_fast8_t")
    7314                            .dwattr $C$DW$T$86, DW_AT_type(*$C$DW$T$85)
    7315                            .dwattr $C$DW$T$86, DW_AT_language(DW_LANG_C)
    7316                            .dwattr $C$DW$T$86, DW_AT_decl_file("/home/pola/ti/ccsv8/tools/compiler/ti-cgt-arm_18.1.1.LTS/
    7317                            .dwattr $C$DW$T$86, DW_AT_decl_line(0x32)
    7318                            .dwattr $C$DW$T$86, DW_AT_decl_column(0x18)
    7319                    
    7320                    $C$DW$T$87      .dwtag  DW_TAG_typedef
    7321                            .dwattr $C$DW$T$87, DW_AT_name("__int_least32_t")
    7322                            .dwattr $C$DW$T$87, DW_AT_type(*$C$DW$T$77)
    7323                            .dwattr $C$DW$T$87, DW_AT_language(DW_LANG_C)
    7324                            .dwattr $C$DW$T$87, DW_AT_decl_file("/home/pola/ti/ccsv8/tools/compiler/ti-cgt-arm_18.1.1.LTS/
    7325                            .dwattr $C$DW$T$87, DW_AT_decl_line(0x5a)
    7326                            .dwattr $C$DW$T$87, DW_AT_decl_column(0x13)
    7327                    
    7328                    $C$DW$T$88      .dwtag  DW_TAG_typedef
    7329                            .dwattr $C$DW$T$88, DW_AT_name("int_least32_t")
    7330                            .dwattr $C$DW$T$88, DW_AT_type(*$C$DW$T$87)
    7331                            .dwattr $C$DW$T$88, DW_AT_language(DW_LANG_C)
    7332                            .dwattr $C$DW$T$88, DW_AT_decl_file("/home/pola/ti/ccsv8/tools/compiler/ti-cgt-arm_18.1.1.LTS/
    7333                            .dwattr $C$DW$T$88, DW_AT_decl_line(0x2a)
TI ARM Assembler Unix v18.1.1 Fri Jul  3 20:08:24 2020

Tools Copyright (c) 1996-2017 Texas Instruments Incorporated
hibernate.asm                                                        PAGE  135

    7334                            .dwattr $C$DW$T$88, DW_AT_decl_column(0x1a)
    7335                    
    7336                    $C$DW$T$89      .dwtag  DW_TAG_typedef
    7337                            .dwattr $C$DW$T$89, DW_AT_name("__intfptr_t")
    7338                            .dwattr $C$DW$T$89, DW_AT_type(*$C$DW$T$77)
    7339                            .dwattr $C$DW$T$89, DW_AT_language(DW_LANG_C)
    7340                            .dwattr $C$DW$T$89, DW_AT_decl_file("/home/pola/ti/ccsv8/tools/compiler/ti-cgt-arm_18.1.1.LTS/
    7341                            .dwattr $C$DW$T$89, DW_AT_decl_line(0x51)
    7342                            .dwattr $C$DW$T$89, DW_AT_decl_column(0x13)
    7343                    
    7344                    $C$DW$T$90      .dwtag  DW_TAG_typedef
    7345                            .dwattr $C$DW$T$90, DW_AT_name("__intptr_t")
    7346                            .dwattr $C$DW$T$90, DW_AT_type(*$C$DW$T$77)
    7347                            .dwattr $C$DW$T$90, DW_AT_language(DW_LANG_C)
    7348                            .dwattr $C$DW$T$90, DW_AT_decl_file("/home/pola/ti/ccsv8/tools/compiler/ti-cgt-arm_18.1.1.LTS/
    7349                            .dwattr $C$DW$T$90, DW_AT_decl_line(0x53)
    7350                            .dwattr $C$DW$T$90, DW_AT_decl_column(0x13)
    7351                    
    7352                    $C$DW$T$91      .dwtag  DW_TAG_typedef
    7353                            .dwattr $C$DW$T$91, DW_AT_name("intptr_t")
    7354                            .dwattr $C$DW$T$91, DW_AT_type(*$C$DW$T$90)
    7355                            .dwattr $C$DW$T$91, DW_AT_language(DW_LANG_C)
    7356                            .dwattr $C$DW$T$91, DW_AT_decl_file("/home/pola/ti/ccsv8/tools/compiler/ti-cgt-arm_18.1.1.LTS/
    7357                            .dwattr $C$DW$T$91, DW_AT_decl_line(0x4c)
    7358                            .dwattr $C$DW$T$91, DW_AT_decl_column(0x15)
    7359                    
    7360                    $C$DW$T$92      .dwtag  DW_TAG_typedef
    7361                            .dwattr $C$DW$T$92, DW_AT_name("__lwpid_t")
    7362                            .dwattr $C$DW$T$92, DW_AT_type(*$C$DW$T$77)
    7363                            .dwattr $C$DW$T$92, DW_AT_language(DW_LANG_C)
    7364                            .dwattr $C$DW$T$92, DW_AT_decl_file("/home/pola/ti/ccsv8/tools/compiler/ti-cgt-arm_18.1.1.LTS/
    7365                            .dwattr $C$DW$T$92, DW_AT_decl_line(0x38)
    7366                            .dwattr $C$DW$T$92, DW_AT_decl_column(0x13)
    7367                    
    7368                    $C$DW$T$93      .dwtag  DW_TAG_typedef
    7369                            .dwattr $C$DW$T$93, DW_AT_name("__pid_t")
    7370                            .dwattr $C$DW$T$93, DW_AT_type(*$C$DW$T$77)
    7371                            .dwattr $C$DW$T$93, DW_AT_language(DW_LANG_C)
    7372                            .dwattr $C$DW$T$93, DW_AT_decl_file("/home/pola/ti/ccsv8/tools/compiler/ti-cgt-arm_18.1.1.LTS/
    7373                            .dwattr $C$DW$T$93, DW_AT_decl_line(0x3f)
    7374                            .dwattr $C$DW$T$93, DW_AT_decl_column(0x13)
    7375                    
    7376                    $C$DW$T$94      .dwtag  DW_TAG_typedef
    7377                            .dwattr $C$DW$T$94, DW_AT_name("__ptrdiff_t")
    7378                            .dwattr $C$DW$T$94, DW_AT_type(*$C$DW$T$77)
    7379                            .dwattr $C$DW$T$94, DW_AT_language(DW_LANG_C)
    7380                            .dwattr $C$DW$T$94, DW_AT_decl_file("/home/pola/ti/ccsv8/tools/compiler/ti-cgt-arm_18.1.1.LTS/
    7381                            .dwattr $C$DW$T$94, DW_AT_decl_line(0x5c)
    7382                            .dwattr $C$DW$T$94, DW_AT_decl_column(0x13)
    7383                    
    7384                    $C$DW$T$95      .dwtag  DW_TAG_typedef
    7385                            .dwattr $C$DW$T$95, DW_AT_name("__register_t")
    7386                            .dwattr $C$DW$T$95, DW_AT_type(*$C$DW$T$77)
    7387                            .dwattr $C$DW$T$95, DW_AT_language(DW_LANG_C)
    7388                            .dwattr $C$DW$T$95, DW_AT_decl_file("/home/pola/ti/ccsv8/tools/compiler/ti-cgt-arm_18.1.1.LTS/
TI ARM Assembler Unix v18.1.1 Fri Jul  3 20:08:24 2020

Tools Copyright (c) 1996-2017 Texas Instruments Incorporated
hibernate.asm                                                        PAGE  136

    7389                            .dwattr $C$DW$T$95, DW_AT_decl_line(0x5d)
    7390                            .dwattr $C$DW$T$95, DW_AT_decl_column(0x13)
    7391                    
    7392                    $C$DW$T$96      .dwtag  DW_TAG_typedef
    7393                            .dwattr $C$DW$T$96, DW_AT_name("__segsz_t")
    7394                            .dwattr $C$DW$T$96, DW_AT_type(*$C$DW$T$77)
    7395                            .dwattr $C$DW$T$96, DW_AT_language(DW_LANG_C)
    7396                            .dwattr $C$DW$T$96, DW_AT_decl_file("/home/pola/ti/ccsv8/tools/compiler/ti-cgt-arm_18.1.1.LTS/
    7397                            .dwattr $C$DW$T$96, DW_AT_decl_line(0x5e)
    7398                            .dwattr $C$DW$T$96, DW_AT_decl_column(0x13)
    7399                    
    7400                    $C$DW$T$97      .dwtag  DW_TAG_typedef
    7401                            .dwattr $C$DW$T$97, DW_AT_name("__ssize_t")
    7402                            .dwattr $C$DW$T$97, DW_AT_type(*$C$DW$T$77)
    7403                            .dwattr $C$DW$T$97, DW_AT_language(DW_LANG_C)
    7404                            .dwattr $C$DW$T$97, DW_AT_decl_file("/home/pola/ti/ccsv8/tools/compiler/ti-cgt-arm_18.1.1.LTS/
    7405                            .dwattr $C$DW$T$97, DW_AT_decl_line(0x60)
    7406                            .dwattr $C$DW$T$97, DW_AT_decl_column(0x13)
    7407                    
    7408                    $C$DW$T$98      .dwtag  DW_TAG_typedef
    7409                            .dwattr $C$DW$T$98, DW_AT_name("int32_t")
    7410                            .dwattr $C$DW$T$98, DW_AT_type(*$C$DW$T$77)
    7411                            .dwattr $C$DW$T$98, DW_AT_language(DW_LANG_C)
    7412                            .dwattr $C$DW$T$98, DW_AT_decl_file("/home/pola/ti/ccsv8/tools/compiler/ti-cgt-arm_18.1.1.LTS/
    7413                            .dwattr $C$DW$T$98, DW_AT_decl_line(0x2e)
    7414                            .dwattr $C$DW$T$98, DW_AT_decl_column(0x14)
    7415                    
    7416                    $C$DW$T$99      .dwtag  DW_TAG_typedef
    7417                            .dwattr $C$DW$T$99, DW_AT_name("__nl_item")
    7418                            .dwattr $C$DW$T$99, DW_AT_type(*$C$DW$T$10)
    7419                            .dwattr $C$DW$T$99, DW_AT_language(DW_LANG_C)
    7420                            .dwattr $C$DW$T$99, DW_AT_decl_file("/home/pola/ti/ccsv8/tools/compiler/ti-cgt-arm_18.1.1.LTS/
    7421                            .dwattr $C$DW$T$99, DW_AT_decl_line(0x3b)
    7422                            .dwattr $C$DW$T$99, DW_AT_decl_column(0x0e)
    7423                    
    7424                    $C$DW$T$11      .dwtag  DW_TAG_base_type
    7425                            .dwattr $C$DW$T$11, DW_AT_encoding(DW_ATE_unsigned)
    7426                            .dwattr $C$DW$T$11, DW_AT_name("unsigned int")
    7427                            .dwattr $C$DW$T$11, DW_AT_byte_size(0x04)
    7428                    
    7429                    $C$DW$T$32      .dwtag  DW_TAG_typedef
    7430                            .dwattr $C$DW$T$32, DW_AT_name("__uint32_t")
    7431                            .dwattr $C$DW$T$32, DW_AT_type(*$C$DW$T$11)
    7432                            .dwattr $C$DW$T$32, DW_AT_language(DW_LANG_C)
    7433                            .dwattr $C$DW$T$32, DW_AT_decl_file("/home/pola/ti/ccsv8/tools/compiler/ti-cgt-arm_18.1.1.LTS/
    7434                            .dwattr $C$DW$T$32, DW_AT_decl_line(0x3e)
    7435                            .dwattr $C$DW$T$32, DW_AT_decl_column(0x17)
    7436                    
    7437                    $C$DW$T$100     .dwtag  DW_TAG_typedef
    7438                            .dwattr $C$DW$T$100, DW_AT_name("__clock_t")
    7439                            .dwattr $C$DW$T$100, DW_AT_type(*$C$DW$T$32)
    7440                            .dwattr $C$DW$T$100, DW_AT_language(DW_LANG_C)
    7441                            .dwattr $C$DW$T$100, DW_AT_decl_file("/home/pola/ti/ccsv8/tools/compiler/ti-cgt-arm_18.1.1.LTS
    7442                            .dwattr $C$DW$T$100, DW_AT_decl_line(0x4d)
    7443                            .dwattr $C$DW$T$100, DW_AT_decl_column(0x14)
TI ARM Assembler Unix v18.1.1 Fri Jul  3 20:08:24 2020

Tools Copyright (c) 1996-2017 Texas Instruments Incorporated
hibernate.asm                                                        PAGE  137

    7444                    
    7445                    $C$DW$T$101     .dwtag  DW_TAG_typedef
    7446                            .dwattr $C$DW$T$101, DW_AT_name("clock_t")
    7447                            .dwattr $C$DW$T$101, DW_AT_type(*$C$DW$T$100)
    7448                            .dwattr $C$DW$T$101, DW_AT_language(DW_LANG_C)
    7449                            .dwattr $C$DW$T$101, DW_AT_decl_file("/home/pola/ti/ccsv8/tools/compiler/ti-cgt-arm_18.1.1.LTS
    7450                            .dwattr $C$DW$T$101, DW_AT_decl_line(0x40)
    7451                            .dwattr $C$DW$T$101, DW_AT_decl_column(0x13)
    7452                    
    7453                    $C$DW$T$102     .dwtag  DW_TAG_typedef
    7454                            .dwattr $C$DW$T$102, DW_AT_name("__fflags_t")
    7455                            .dwattr $C$DW$T$102, DW_AT_type(*$C$DW$T$32)
    7456                            .dwattr $C$DW$T$102, DW_AT_language(DW_LANG_C)
    7457                            .dwattr $C$DW$T$102, DW_AT_decl_file("/home/pola/ti/ccsv8/tools/compiler/ti-cgt-arm_18.1.1.LTS
    7458                            .dwattr $C$DW$T$102, DW_AT_decl_line(0x31)
    7459                            .dwattr $C$DW$T$102, DW_AT_decl_column(0x14)
    7460                    
    7461                    $C$DW$T$103     .dwtag  DW_TAG_typedef
    7462                            .dwattr $C$DW$T$103, DW_AT_name("__fixpt_t")
    7463                            .dwattr $C$DW$T$103, DW_AT_type(*$C$DW$T$32)
    7464                            .dwattr $C$DW$T$103, DW_AT_language(DW_LANG_C)
    7465                            .dwattr $C$DW$T$103, DW_AT_decl_file("/home/pola/ti/ccsv8/tools/compiler/ti-cgt-arm_18.1.1.LTS
    7466                            .dwattr $C$DW$T$103, DW_AT_decl_line(0x76)
    7467                            .dwattr $C$DW$T$103, DW_AT_decl_column(0x14)
    7468                    
    7469                    $C$DW$T$104     .dwtag  DW_TAG_typedef
    7470                            .dwattr $C$DW$T$104, DW_AT_name("__gid_t")
    7471                            .dwattr $C$DW$T$104, DW_AT_type(*$C$DW$T$32)
    7472                            .dwattr $C$DW$T$104, DW_AT_language(DW_LANG_C)
    7473                            .dwattr $C$DW$T$104, DW_AT_decl_file("/home/pola/ti/ccsv8/tools/compiler/ti-cgt-arm_18.1.1.LTS
    7474                            .dwattr $C$DW$T$104, DW_AT_decl_line(0x34)
    7475                            .dwattr $C$DW$T$104, DW_AT_decl_column(0x14)
    7476                    
    7477                    $C$DW$T$105     .dwtag  DW_TAG_typedef
    7478                            .dwattr $C$DW$T$105, DW_AT_name("__size_t")
    7479                            .dwattr $C$DW$T$105, DW_AT_type(*$C$DW$T$32)
    7480                            .dwattr $C$DW$T$105, DW_AT_language(DW_LANG_C)
    7481                            .dwattr $C$DW$T$105, DW_AT_decl_file("/home/pola/ti/ccsv8/tools/compiler/ti-cgt-arm_18.1.1.LTS
    7482                            .dwattr $C$DW$T$105, DW_AT_decl_line(0x5f)
    7483                            .dwattr $C$DW$T$105, DW_AT_decl_column(0x14)
    7484                    
    7485                    $C$DW$T$106     .dwtag  DW_TAG_typedef
    7486                            .dwattr $C$DW$T$106, DW_AT_name("size_t")
    7487                            .dwattr $C$DW$T$106, DW_AT_type(*$C$DW$T$105)
    7488                            .dwattr $C$DW$T$106, DW_AT_language(DW_LANG_C)
    7489                            .dwattr $C$DW$T$106, DW_AT_decl_file("/home/pola/ti/ccsv8/tools/compiler/ti-cgt-arm_18.1.1.LTS
    7490                            .dwattr $C$DW$T$106, DW_AT_decl_line(0x4d)
    7491                            .dwattr $C$DW$T$106, DW_AT_decl_column(0x12)
    7492                    
    7493                    $C$DW$T$107     .dwtag  DW_TAG_typedef
    7494                            .dwattr $C$DW$T$107, DW_AT_name("__socklen_t")
    7495                            .dwattr $C$DW$T$107, DW_AT_type(*$C$DW$T$32)
    7496                            .dwattr $C$DW$T$107, DW_AT_language(DW_LANG_C)
    7497                            .dwattr $C$DW$T$107, DW_AT_decl_file("/home/pola/ti/ccsv8/tools/compiler/ti-cgt-arm_18.1.1.LTS
    7498                            .dwattr $C$DW$T$107, DW_AT_decl_line(0x44)
TI ARM Assembler Unix v18.1.1 Fri Jul  3 20:08:24 2020

Tools Copyright (c) 1996-2017 Texas Instruments Incorporated
hibernate.asm                                                        PAGE  138

    7499                            .dwattr $C$DW$T$107, DW_AT_decl_column(0x14)
    7500                    
    7501                    $C$DW$T$108     .dwtag  DW_TAG_typedef
    7502                            .dwattr $C$DW$T$108, DW_AT_name("__time32_t")
    7503                            .dwattr $C$DW$T$108, DW_AT_type(*$C$DW$T$32)
    7504                            .dwattr $C$DW$T$108, DW_AT_language(DW_LANG_C)
    7505                            .dwattr $C$DW$T$108, DW_AT_decl_file("/home/pola/ti/ccsv8/tools/compiler/ti-cgt-arm_18.1.1.LTS
    7506                            .dwattr $C$DW$T$108, DW_AT_decl_line(0x4a)
    7507                            .dwattr $C$DW$T$108, DW_AT_decl_column(0x14)
    7508                    
    7509                    $C$DW$T$109     .dwtag  DW_TAG_typedef
    7510                            .dwattr $C$DW$T$109, DW_AT_name("__time_t")
    7511                            .dwattr $C$DW$T$109, DW_AT_type(*$C$DW$T$32)
    7512                            .dwattr $C$DW$T$109, DW_AT_language(DW_LANG_C)
    7513                            .dwattr $C$DW$T$109, DW_AT_decl_file("/home/pola/ti/ccsv8/tools/compiler/ti-cgt-arm_18.1.1.LTS
    7514                            .dwattr $C$DW$T$109, DW_AT_decl_line(0x64)
    7515                            .dwattr $C$DW$T$109, DW_AT_decl_column(0x19)
    7516                    
    7517                    $C$DW$T$110     .dwtag  DW_TAG_typedef
    7518                            .dwattr $C$DW$T$110, DW_AT_name("time_t")
    7519                            .dwattr $C$DW$T$110, DW_AT_type(*$C$DW$T$109)
    7520                            .dwattr $C$DW$T$110, DW_AT_language(DW_LANG_C)
    7521                            .dwattr $C$DW$T$110, DW_AT_decl_file("/home/pola/ti/ccsv8/tools/compiler/ti-cgt-arm_18.1.1.LTS
    7522                            .dwattr $C$DW$T$110, DW_AT_decl_line(0x45)
    7523                            .dwattr $C$DW$T$110, DW_AT_decl_column(0x13)
    7524                    
    7525                    $C$DW$T$111     .dwtag  DW_TAG_typedef
    7526                            .dwattr $C$DW$T$111, DW_AT_name("__u_register_t")
    7527                            .dwattr $C$DW$T$111, DW_AT_type(*$C$DW$T$32)
    7528                            .dwattr $C$DW$T$111, DW_AT_language(DW_LANG_C)
    7529                            .dwattr $C$DW$T$111, DW_AT_decl_file("/home/pola/ti/ccsv8/tools/compiler/ti-cgt-arm_18.1.1.LTS
    7530                            .dwattr $C$DW$T$111, DW_AT_decl_line(0x71)
    7531                            .dwattr $C$DW$T$111, DW_AT_decl_column(0x14)
    7532                    
    7533                    $C$DW$T$112     .dwtag  DW_TAG_typedef
    7534                            .dwattr $C$DW$T$112, DW_AT_name("__uid_t")
    7535                            .dwattr $C$DW$T$112, DW_AT_type(*$C$DW$T$32)
    7536                            .dwattr $C$DW$T$112, DW_AT_language(DW_LANG_C)
    7537                            .dwattr $C$DW$T$112, DW_AT_decl_file("/home/pola/ti/ccsv8/tools/compiler/ti-cgt-arm_18.1.1.LTS
    7538                            .dwattr $C$DW$T$112, DW_AT_decl_line(0x48)
    7539                            .dwattr $C$DW$T$112, DW_AT_decl_column(0x14)
    7540                    
    7541                    $C$DW$T$113     .dwtag  DW_TAG_typedef
    7542                            .dwattr $C$DW$T$113, DW_AT_name("__uint_fast16_t")
    7543                            .dwattr $C$DW$T$113, DW_AT_type(*$C$DW$T$32)
    7544                            .dwattr $C$DW$T$113, DW_AT_language(DW_LANG_C)
    7545                            .dwattr $C$DW$T$113, DW_AT_decl_file("/home/pola/ti/ccsv8/tools/compiler/ti-cgt-arm_18.1.1.LTS
    7546                            .dwattr $C$DW$T$113, DW_AT_decl_line(0x6a)
    7547                            .dwattr $C$DW$T$113, DW_AT_decl_column(0x14)
    7548                    
    7549                    $C$DW$T$114     .dwtag  DW_TAG_typedef
    7550                            .dwattr $C$DW$T$114, DW_AT_name("uint_fast16_t")
    7551                            .dwattr $C$DW$T$114, DW_AT_type(*$C$DW$T$113)
    7552                            .dwattr $C$DW$T$114, DW_AT_language(DW_LANG_C)
    7553                            .dwattr $C$DW$T$114, DW_AT_decl_file("/home/pola/ti/ccsv8/tools/compiler/ti-cgt-arm_18.1.1.LTS
TI ARM Assembler Unix v18.1.1 Fri Jul  3 20:08:24 2020

Tools Copyright (c) 1996-2017 Texas Instruments Incorporated
hibernate.asm                                                        PAGE  139

    7554                            .dwattr $C$DW$T$114, DW_AT_decl_line(0x38)
    7555                            .dwattr $C$DW$T$114, DW_AT_decl_column(0x1a)
    7556                    
    7557                    $C$DW$T$115     .dwtag  DW_TAG_typedef
    7558                            .dwattr $C$DW$T$115, DW_AT_name("__uint_fast32_t")
    7559                            .dwattr $C$DW$T$115, DW_AT_type(*$C$DW$T$32)
    7560                            .dwattr $C$DW$T$115, DW_AT_language(DW_LANG_C)
    7561                            .dwattr $C$DW$T$115, DW_AT_decl_file("/home/pola/ti/ccsv8/tools/compiler/ti-cgt-arm_18.1.1.LTS
    7562                            .dwattr $C$DW$T$115, DW_AT_decl_line(0x6b)
    7563                            .dwattr $C$DW$T$115, DW_AT_decl_column(0x14)
    7564                    
    7565                    $C$DW$T$116     .dwtag  DW_TAG_typedef
    7566                            .dwattr $C$DW$T$116, DW_AT_name("uint_fast32_t")
    7567                            .dwattr $C$DW$T$116, DW_AT_type(*$C$DW$T$115)
    7568                            .dwattr $C$DW$T$116, DW_AT_language(DW_LANG_C)
    7569                            .dwattr $C$DW$T$116, DW_AT_decl_file("/home/pola/ti/ccsv8/tools/compiler/ti-cgt-arm_18.1.1.LTS
    7570                            .dwattr $C$DW$T$116, DW_AT_decl_line(0x39)
    7571                            .dwattr $C$DW$T$116, DW_AT_decl_column(0x1a)
    7572                    
    7573                    $C$DW$T$117     .dwtag  DW_TAG_typedef
    7574                            .dwattr $C$DW$T$117, DW_AT_name("__uint_fast8_t")
    7575                            .dwattr $C$DW$T$117, DW_AT_type(*$C$DW$T$32)
    7576                            .dwattr $C$DW$T$117, DW_AT_language(DW_LANG_C)
    7577                            .dwattr $C$DW$T$117, DW_AT_decl_file("/home/pola/ti/ccsv8/tools/compiler/ti-cgt-arm_18.1.1.LTS
    7578                            .dwattr $C$DW$T$117, DW_AT_decl_line(0x69)
    7579                            .dwattr $C$DW$T$117, DW_AT_decl_column(0x14)
    7580                    
    7581                    $C$DW$T$118     .dwtag  DW_TAG_typedef
    7582                            .dwattr $C$DW$T$118, DW_AT_name("uint_fast8_t")
    7583                            .dwattr $C$DW$T$118, DW_AT_type(*$C$DW$T$117)
    7584                            .dwattr $C$DW$T$118, DW_AT_language(DW_LANG_C)
    7585                            .dwattr $C$DW$T$118, DW_AT_decl_file("/home/pola/ti/ccsv8/tools/compiler/ti-cgt-arm_18.1.1.LTS
    7586                            .dwattr $C$DW$T$118, DW_AT_decl_line(0x37)
    7587                            .dwattr $C$DW$T$118, DW_AT_decl_column(0x19)
    7588                    
    7589                    $C$DW$T$119     .dwtag  DW_TAG_typedef
    7590                            .dwattr $C$DW$T$119, DW_AT_name("__uint_least32_t")
    7591                            .dwattr $C$DW$T$119, DW_AT_type(*$C$DW$T$32)
    7592                            .dwattr $C$DW$T$119, DW_AT_language(DW_LANG_C)
    7593                            .dwattr $C$DW$T$119, DW_AT_decl_file("/home/pola/ti/ccsv8/tools/compiler/ti-cgt-arm_18.1.1.LTS
    7594                            .dwattr $C$DW$T$119, DW_AT_decl_line(0x6f)
    7595                            .dwattr $C$DW$T$119, DW_AT_decl_column(0x14)
    7596                    
    7597                    $C$DW$T$120     .dwtag  DW_TAG_typedef
    7598                            .dwattr $C$DW$T$120, DW_AT_name("__char32_t")
    7599                            .dwattr $C$DW$T$120, DW_AT_type(*$C$DW$T$119)
    7600                            .dwattr $C$DW$T$120, DW_AT_language(DW_LANG_C)
    7601                            .dwattr $C$DW$T$120, DW_AT_decl_file("/home/pola/ti/ccsv8/tools/compiler/ti-cgt-arm_18.1.1.LTS
    7602                            .dwattr $C$DW$T$120, DW_AT_decl_line(0x67)
    7603                            .dwattr $C$DW$T$120, DW_AT_decl_column(0x1a)
    7604                    
    7605                    $C$DW$T$121     .dwtag  DW_TAG_typedef
    7606                            .dwattr $C$DW$T$121, DW_AT_name("uint_least32_t")
    7607                            .dwattr $C$DW$T$121, DW_AT_type(*$C$DW$T$119)
    7608                            .dwattr $C$DW$T$121, DW_AT_language(DW_LANG_C)
TI ARM Assembler Unix v18.1.1 Fri Jul  3 20:08:24 2020

Tools Copyright (c) 1996-2017 Texas Instruments Incorporated
hibernate.asm                                                        PAGE  140

    7609                            .dwattr $C$DW$T$121, DW_AT_decl_file("/home/pola/ti/ccsv8/tools/compiler/ti-cgt-arm_18.1.1.LTS
    7610                            .dwattr $C$DW$T$121, DW_AT_decl_line(0x2f)
    7611                            .dwattr $C$DW$T$121, DW_AT_decl_column(0x1a)
    7612                    
    7613                    $C$DW$T$122     .dwtag  DW_TAG_typedef
    7614                            .dwattr $C$DW$T$122, DW_AT_name("__uintfptr_t")
    7615                            .dwattr $C$DW$T$122, DW_AT_type(*$C$DW$T$32)
    7616                            .dwattr $C$DW$T$122, DW_AT_language(DW_LANG_C)
    7617                            .dwattr $C$DW$T$122, DW_AT_decl_file("/home/pola/ti/ccsv8/tools/compiler/ti-cgt-arm_18.1.1.LTS
    7618                            .dwattr $C$DW$T$122, DW_AT_decl_line(0x66)
    7619                            .dwattr $C$DW$T$122, DW_AT_decl_column(0x14)
    7620                    
    7621                    $C$DW$T$123     .dwtag  DW_TAG_typedef
    7622                            .dwattr $C$DW$T$123, DW_AT_name("__uintptr_t")
    7623                            .dwattr $C$DW$T$123, DW_AT_type(*$C$DW$T$32)
    7624                            .dwattr $C$DW$T$123, DW_AT_language(DW_LANG_C)
    7625                            .dwattr $C$DW$T$123, DW_AT_decl_file("/home/pola/ti/ccsv8/tools/compiler/ti-cgt-arm_18.1.1.LTS
    7626                            .dwattr $C$DW$T$123, DW_AT_decl_line(0x68)
    7627                            .dwattr $C$DW$T$123, DW_AT_decl_column(0x14)
    7628                    
    7629                    $C$DW$T$124     .dwtag  DW_TAG_typedef
    7630                            .dwattr $C$DW$T$124, DW_AT_name("uintptr_t")
    7631                            .dwattr $C$DW$T$124, DW_AT_type(*$C$DW$T$123)
    7632                            .dwattr $C$DW$T$124, DW_AT_language(DW_LANG_C)
    7633                            .dwattr $C$DW$T$124, DW_AT_decl_file("/home/pola/ti/ccsv8/tools/compiler/ti-cgt-arm_18.1.1.LTS
    7634                            .dwattr $C$DW$T$124, DW_AT_decl_line(0x50)
    7635                            .dwattr $C$DW$T$124, DW_AT_decl_column(0x16)
    7636                    
    7637                    $C$DW$T$125     .dwtag  DW_TAG_typedef
    7638                            .dwattr $C$DW$T$125, DW_AT_name("__vm_offset_t")
    7639                            .dwattr $C$DW$T$125, DW_AT_type(*$C$DW$T$32)
    7640                            .dwattr $C$DW$T$125, DW_AT_language(DW_LANG_C)
    7641                            .dwattr $C$DW$T$125, DW_AT_decl_file("/home/pola/ti/ccsv8/tools/compiler/ti-cgt-arm_18.1.1.LTS
    7642                            .dwattr $C$DW$T$125, DW_AT_decl_line(0x72)
    7643                            .dwattr $C$DW$T$125, DW_AT_decl_column(0x14)
    7644                    
    7645                    $C$DW$T$126     .dwtag  DW_TAG_typedef
    7646                            .dwattr $C$DW$T$126, DW_AT_name("__vm_paddr_t")
    7647                            .dwattr $C$DW$T$126, DW_AT_type(*$C$DW$T$32)
    7648                            .dwattr $C$DW$T$126, DW_AT_language(DW_LANG_C)
    7649                            .dwattr $C$DW$T$126, DW_AT_decl_file("/home/pola/ti/ccsv8/tools/compiler/ti-cgt-arm_18.1.1.LTS
    7650                            .dwattr $C$DW$T$126, DW_AT_decl_line(0x73)
    7651                            .dwattr $C$DW$T$126, DW_AT_decl_column(0x14)
    7652                    
    7653                    $C$DW$T$127     .dwtag  DW_TAG_typedef
    7654                            .dwattr $C$DW$T$127, DW_AT_name("__vm_size_t")
    7655                            .dwattr $C$DW$T$127, DW_AT_type(*$C$DW$T$32)
    7656                            .dwattr $C$DW$T$127, DW_AT_language(DW_LANG_C)
    7657                            .dwattr $C$DW$T$127, DW_AT_decl_file("/home/pola/ti/ccsv8/tools/compiler/ti-cgt-arm_18.1.1.LTS
    7658                            .dwattr $C$DW$T$127, DW_AT_decl_line(0x74)
    7659                            .dwattr $C$DW$T$127, DW_AT_decl_column(0x14)
    7660                    
    7661                    $C$DW$T$33      .dwtag  DW_TAG_typedef
    7662                            .dwattr $C$DW$T$33, DW_AT_name("uint32_t")
    7663                            .dwattr $C$DW$T$33, DW_AT_type(*$C$DW$T$32)
TI ARM Assembler Unix v18.1.1 Fri Jul  3 20:08:24 2020

Tools Copyright (c) 1996-2017 Texas Instruments Incorporated
hibernate.asm                                                        PAGE  141

    7664                            .dwattr $C$DW$T$33, DW_AT_language(DW_LANG_C)
    7665                            .dwattr $C$DW$T$33, DW_AT_decl_file("/home/pola/ti/ccsv8/tools/compiler/ti-cgt-arm_18.1.1.LTS/
    7666                            .dwattr $C$DW$T$33, DW_AT_decl_line(0x42)
    7667                            .dwattr $C$DW$T$33, DW_AT_decl_column(0x15)
    7668                    
    7669                    $C$DW$T$39      .dwtag  DW_TAG_pointer_type
    7670                            .dwattr $C$DW$T$39, DW_AT_type(*$C$DW$T$33)
    7671                            .dwattr $C$DW$T$39, DW_AT_address_class(0x20)
    7672                    
    7673                    $C$DW$T$135     .dwtag  DW_TAG_typedef
    7674                            .dwattr $C$DW$T$135, DW_AT_name("__useconds_t")
    7675                            .dwattr $C$DW$T$135, DW_AT_type(*$C$DW$T$11)
    7676                            .dwattr $C$DW$T$135, DW_AT_language(DW_LANG_C)
    7677                            .dwattr $C$DW$T$135, DW_AT_decl_file("/home/pola/ti/ccsv8/tools/compiler/ti-cgt-arm_18.1.1.LTS
    7678                            .dwattr $C$DW$T$135, DW_AT_decl_line(0x49)
    7679                            .dwattr $C$DW$T$135, DW_AT_decl_column(0x16)
    7680                    
    7681                    $C$DW$T$12      .dwtag  DW_TAG_base_type
    7682                            .dwattr $C$DW$T$12, DW_AT_encoding(DW_ATE_signed)
    7683                            .dwattr $C$DW$T$12, DW_AT_name("long")
    7684                            .dwattr $C$DW$T$12, DW_AT_byte_size(0x04)
    7685                    
    7686                    $C$DW$T$136     .dwtag  DW_TAG_typedef
    7687                            .dwattr $C$DW$T$136, DW_AT_name("__key_t")
    7688                            .dwattr $C$DW$T$136, DW_AT_type(*$C$DW$T$12)
    7689                            .dwattr $C$DW$T$136, DW_AT_language(DW_LANG_C)
    7690                            .dwattr $C$DW$T$136, DW_AT_decl_file("/home/pola/ti/ccsv8/tools/compiler/ti-cgt-arm_18.1.1.LTS
    7691                            .dwattr $C$DW$T$136, DW_AT_decl_line(0x37)
    7692                            .dwattr $C$DW$T$136, DW_AT_decl_column(0x0f)
    7693                    
    7694                    $C$DW$T$137     .dwtag  DW_TAG_typedef
    7695                            .dwattr $C$DW$T$137, DW_AT_name("__suseconds_t")
    7696                            .dwattr $C$DW$T$137, DW_AT_type(*$C$DW$T$12)
    7697                            .dwattr $C$DW$T$137, DW_AT_language(DW_LANG_C)
    7698                            .dwattr $C$DW$T$137, DW_AT_decl_file("/home/pola/ti/ccsv8/tools/compiler/ti-cgt-arm_18.1.1.LTS
    7699                            .dwattr $C$DW$T$137, DW_AT_decl_line(0x45)
    7700                            .dwattr $C$DW$T$137, DW_AT_decl_column(0x0f)
    7701                    
    7702                    $C$DW$T$13      .dwtag  DW_TAG_base_type
    7703                            .dwattr $C$DW$T$13, DW_AT_encoding(DW_ATE_unsigned)
    7704                            .dwattr $C$DW$T$13, DW_AT_name("unsigned long")
    7705                            .dwattr $C$DW$T$13, DW_AT_byte_size(0x04)
    7706                    
    7707                    $C$DW$T$14      .dwtag  DW_TAG_base_type
    7708                            .dwattr $C$DW$T$14, DW_AT_encoding(DW_ATE_signed)
    7709                            .dwattr $C$DW$T$14, DW_AT_name("long long")
    7710                            .dwattr $C$DW$T$14, DW_AT_byte_size(0x08)
    7711                    
    7712                    $C$DW$T$138     .dwtag  DW_TAG_typedef
    7713                            .dwattr $C$DW$T$138, DW_AT_name("__int64_t")
    7714                            .dwattr $C$DW$T$138, DW_AT_type(*$C$DW$T$14)
    7715                            .dwattr $C$DW$T$138, DW_AT_language(DW_LANG_C)
    7716                            .dwattr $C$DW$T$138, DW_AT_decl_file("/home/pola/ti/ccsv8/tools/compiler/ti-cgt-arm_18.1.1.LTS
    7717                            .dwattr $C$DW$T$138, DW_AT_decl_line(0x43)
    7718                            .dwattr $C$DW$T$138, DW_AT_decl_column(0x14)
TI ARM Assembler Unix v18.1.1 Fri Jul  3 20:08:24 2020

Tools Copyright (c) 1996-2017 Texas Instruments Incorporated
hibernate.asm                                                        PAGE  142

    7719                    
    7720                    $C$DW$T$139     .dwtag  DW_TAG_typedef
    7721                            .dwattr $C$DW$T$139, DW_AT_name("__blkcnt_t")
    7722                            .dwattr $C$DW$T$139, DW_AT_type(*$C$DW$T$138)
    7723                            .dwattr $C$DW$T$139, DW_AT_language(DW_LANG_C)
    7724                            .dwattr $C$DW$T$139, DW_AT_decl_file("/home/pola/ti/ccsv8/tools/compiler/ti-cgt-arm_18.1.1.LTS
    7725                            .dwattr $C$DW$T$139, DW_AT_decl_line(0x2f)
    7726                            .dwattr $C$DW$T$139, DW_AT_decl_column(0x13)
    7727                    
    7728                    $C$DW$T$140     .dwtag  DW_TAG_typedef
    7729                            .dwattr $C$DW$T$140, DW_AT_name("__id_t")
    7730                            .dwattr $C$DW$T$140, DW_AT_type(*$C$DW$T$138)
    7731                            .dwattr $C$DW$T$140, DW_AT_language(DW_LANG_C)
    7732                            .dwattr $C$DW$T$140, DW_AT_decl_file("/home/pola/ti/ccsv8/tools/compiler/ti-cgt-arm_18.1.1.LTS
    7733                            .dwattr $C$DW$T$140, DW_AT_decl_line(0x35)
    7734                            .dwattr $C$DW$T$140, DW_AT_decl_column(0x13)
    7735                    
    7736                    $C$DW$T$141     .dwtag  DW_TAG_typedef
    7737                            .dwattr $C$DW$T$141, DW_AT_name("__int_fast64_t")
    7738                            .dwattr $C$DW$T$141, DW_AT_type(*$C$DW$T$138)
    7739                            .dwattr $C$DW$T$141, DW_AT_language(DW_LANG_C)
    7740                            .dwattr $C$DW$T$141, DW_AT_decl_file("/home/pola/ti/ccsv8/tools/compiler/ti-cgt-arm_18.1.1.LTS
    7741                            .dwattr $C$DW$T$141, DW_AT_decl_line(0x57)
    7742                            .dwattr $C$DW$T$141, DW_AT_decl_column(0x13)
    7743                    
    7744                    $C$DW$T$142     .dwtag  DW_TAG_typedef
    7745                            .dwattr $C$DW$T$142, DW_AT_name("int_fast64_t")
    7746                            .dwattr $C$DW$T$142, DW_AT_type(*$C$DW$T$141)
    7747                            .dwattr $C$DW$T$142, DW_AT_language(DW_LANG_C)
    7748                            .dwattr $C$DW$T$142, DW_AT_decl_file("/home/pola/ti/ccsv8/tools/compiler/ti-cgt-arm_18.1.1.LTS
    7749                            .dwattr $C$DW$T$142, DW_AT_decl_line(0x35)
    7750                            .dwattr $C$DW$T$142, DW_AT_decl_column(0x19)
    7751                    
    7752                    $C$DW$T$143     .dwtag  DW_TAG_typedef
    7753                            .dwattr $C$DW$T$143, DW_AT_name("__int_least64_t")
    7754                            .dwattr $C$DW$T$143, DW_AT_type(*$C$DW$T$138)
    7755                            .dwattr $C$DW$T$143, DW_AT_language(DW_LANG_C)
    7756                            .dwattr $C$DW$T$143, DW_AT_decl_file("/home/pola/ti/ccsv8/tools/compiler/ti-cgt-arm_18.1.1.LTS
    7757                            .dwattr $C$DW$T$143, DW_AT_decl_line(0x5b)
    7758                            .dwattr $C$DW$T$143, DW_AT_decl_column(0x13)
    7759                    
    7760                    $C$DW$T$144     .dwtag  DW_TAG_typedef
    7761                            .dwattr $C$DW$T$144, DW_AT_name("int_least64_t")
    7762                            .dwattr $C$DW$T$144, DW_AT_type(*$C$DW$T$143)
    7763                            .dwattr $C$DW$T$144, DW_AT_language(DW_LANG_C)
    7764                            .dwattr $C$DW$T$144, DW_AT_decl_file("/home/pola/ti/ccsv8/tools/compiler/ti-cgt-arm_18.1.1.LTS
    7765                            .dwattr $C$DW$T$144, DW_AT_decl_line(0x2b)
    7766                            .dwattr $C$DW$T$144, DW_AT_decl_column(0x1a)
    7767                    
    7768                    $C$DW$T$145     .dwtag  DW_TAG_typedef
    7769                            .dwattr $C$DW$T$145, DW_AT_name("__intmax_t")
    7770                            .dwattr $C$DW$T$145, DW_AT_type(*$C$DW$T$138)
    7771                            .dwattr $C$DW$T$145, DW_AT_language(DW_LANG_C)
    7772                            .dwattr $C$DW$T$145, DW_AT_decl_file("/home/pola/ti/ccsv8/tools/compiler/ti-cgt-arm_18.1.1.LTS
    7773                            .dwattr $C$DW$T$145, DW_AT_decl_line(0x52)
TI ARM Assembler Unix v18.1.1 Fri Jul  3 20:08:24 2020

Tools Copyright (c) 1996-2017 Texas Instruments Incorporated
hibernate.asm                                                        PAGE  143

    7774                            .dwattr $C$DW$T$145, DW_AT_decl_column(0x13)
    7775                    
    7776                    $C$DW$T$146     .dwtag  DW_TAG_typedef
    7777                            .dwattr $C$DW$T$146, DW_AT_name("intmax_t")
    7778                            .dwattr $C$DW$T$146, DW_AT_type(*$C$DW$T$145)
    7779                            .dwattr $C$DW$T$146, DW_AT_language(DW_LANG_C)
    7780                            .dwattr $C$DW$T$146, DW_AT_decl_file("/home/pola/ti/ccsv8/tools/compiler/ti-cgt-arm_18.1.1.LTS
    7781                            .dwattr $C$DW$T$146, DW_AT_decl_line(0x54)
    7782                            .dwattr $C$DW$T$146, DW_AT_decl_column(0x15)
    7783                    
    7784                    $C$DW$T$147     .dwtag  DW_TAG_typedef
    7785                            .dwattr $C$DW$T$147, DW_AT_name("__off64_t")
    7786                            .dwattr $C$DW$T$147, DW_AT_type(*$C$DW$T$138)
    7787                            .dwattr $C$DW$T$147, DW_AT_language(DW_LANG_C)
    7788                            .dwattr $C$DW$T$147, DW_AT_decl_file("/home/pola/ti/ccsv8/tools/compiler/ti-cgt-arm_18.1.1.LTS
    7789                            .dwattr $C$DW$T$147, DW_AT_decl_line(0x3e)
    7790                            .dwattr $C$DW$T$147, DW_AT_decl_column(0x13)
    7791                    
    7792                    $C$DW$T$148     .dwtag  DW_TAG_typedef
    7793                            .dwattr $C$DW$T$148, DW_AT_name("__off_t")
    7794                            .dwattr $C$DW$T$148, DW_AT_type(*$C$DW$T$138)
    7795                            .dwattr $C$DW$T$148, DW_AT_language(DW_LANG_C)
    7796                            .dwattr $C$DW$T$148, DW_AT_decl_file("/home/pola/ti/ccsv8/tools/compiler/ti-cgt-arm_18.1.1.LTS
    7797                            .dwattr $C$DW$T$148, DW_AT_decl_line(0x3d)
    7798                            .dwattr $C$DW$T$148, DW_AT_decl_column(0x13)
    7799                    
    7800                    $C$DW$T$149     .dwtag  DW_TAG_typedef
    7801                            .dwattr $C$DW$T$149, DW_AT_name("__rlim_t")
    7802                            .dwattr $C$DW$T$149, DW_AT_type(*$C$DW$T$138)
    7803                            .dwattr $C$DW$T$149, DW_AT_language(DW_LANG_C)
    7804                            .dwattr $C$DW$T$149, DW_AT_decl_file("/home/pola/ti/ccsv8/tools/compiler/ti-cgt-arm_18.1.1.LTS
    7805                            .dwattr $C$DW$T$149, DW_AT_decl_line(0x40)
    7806                            .dwattr $C$DW$T$149, DW_AT_decl_column(0x13)
    7807                    
    7808                    $C$DW$T$150     .dwtag  DW_TAG_typedef
    7809                            .dwattr $C$DW$T$150, DW_AT_name("__time64_t")
    7810                            .dwattr $C$DW$T$150, DW_AT_type(*$C$DW$T$138)
    7811                            .dwattr $C$DW$T$150, DW_AT_language(DW_LANG_C)
    7812                            .dwattr $C$DW$T$150, DW_AT_decl_file("/home/pola/ti/ccsv8/tools/compiler/ti-cgt-arm_18.1.1.LTS
    7813                            .dwattr $C$DW$T$150, DW_AT_decl_line(0x49)
    7814                            .dwattr $C$DW$T$150, DW_AT_decl_column(0x13)
    7815                    
    7816                    $C$DW$T$151     .dwtag  DW_TAG_typedef
    7817                            .dwattr $C$DW$T$151, DW_AT_name("int64_t")
    7818                            .dwattr $C$DW$T$151, DW_AT_type(*$C$DW$T$138)
    7819                            .dwattr $C$DW$T$151, DW_AT_language(DW_LANG_C)
    7820                            .dwattr $C$DW$T$151, DW_AT_decl_file("/home/pola/ti/ccsv8/tools/compiler/ti-cgt-arm_18.1.1.LTS
    7821                            .dwattr $C$DW$T$151, DW_AT_decl_line(0x33)
    7822                            .dwattr $C$DW$T$151, DW_AT_decl_column(0x14)
    7823                    
    7824                    $C$DW$T$15      .dwtag  DW_TAG_base_type
    7825                            .dwattr $C$DW$T$15, DW_AT_encoding(DW_ATE_unsigned)
    7826                            .dwattr $C$DW$T$15, DW_AT_name("unsigned long long")
    7827                            .dwattr $C$DW$T$15, DW_AT_byte_size(0x08)
    7828                    
TI ARM Assembler Unix v18.1.1 Fri Jul  3 20:08:24 2020

Tools Copyright (c) 1996-2017 Texas Instruments Incorporated
hibernate.asm                                                        PAGE  144

    7829                    $C$DW$T$152     .dwtag  DW_TAG_typedef
    7830                            .dwattr $C$DW$T$152, DW_AT_name("__uint64_t")
    7831                            .dwattr $C$DW$T$152, DW_AT_type(*$C$DW$T$15)
    7832                            .dwattr $C$DW$T$152, DW_AT_language(DW_LANG_C)
    7833                            .dwattr $C$DW$T$152, DW_AT_decl_file("/home/pola/ti/ccsv8/tools/compiler/ti-cgt-arm_18.1.1.LTS
    7834                            .dwattr $C$DW$T$152, DW_AT_decl_line(0x48)
    7835                            .dwattr $C$DW$T$152, DW_AT_decl_column(0x1c)
    7836                    
    7837                    $C$DW$T$153     .dwtag  DW_TAG_typedef
    7838                            .dwattr $C$DW$T$153, DW_AT_name("__dev_t")
    7839                            .dwattr $C$DW$T$153, DW_AT_type(*$C$DW$T$152)
    7840                            .dwattr $C$DW$T$153, DW_AT_language(DW_LANG_C)
    7841                            .dwattr $C$DW$T$153, DW_AT_decl_file("/home/pola/ti/ccsv8/tools/compiler/ti-cgt-arm_18.1.1.LTS
    7842                            .dwattr $C$DW$T$153, DW_AT_decl_line(0x74)
    7843                            .dwattr $C$DW$T$153, DW_AT_decl_column(0x14)
    7844                    
    7845                    $C$DW$T$154     .dwtag  DW_TAG_typedef
    7846                            .dwattr $C$DW$T$154, DW_AT_name("__fsblkcnt_t")
    7847                            .dwattr $C$DW$T$154, DW_AT_type(*$C$DW$T$152)
    7848                            .dwattr $C$DW$T$154, DW_AT_language(DW_LANG_C)
    7849                            .dwattr $C$DW$T$154, DW_AT_decl_file("/home/pola/ti/ccsv8/tools/compiler/ti-cgt-arm_18.1.1.LTS
    7850                            .dwattr $C$DW$T$154, DW_AT_decl_line(0x32)
    7851                            .dwattr $C$DW$T$154, DW_AT_decl_column(0x14)
    7852                    
    7853                    $C$DW$T$155     .dwtag  DW_TAG_typedef
    7854                            .dwattr $C$DW$T$155, DW_AT_name("__fsfilcnt_t")
    7855                            .dwattr $C$DW$T$155, DW_AT_type(*$C$DW$T$152)
    7856                            .dwattr $C$DW$T$155, DW_AT_language(DW_LANG_C)
    7857                            .dwattr $C$DW$T$155, DW_AT_decl_file("/home/pola/ti/ccsv8/tools/compiler/ti-cgt-arm_18.1.1.LTS
    7858                            .dwattr $C$DW$T$155, DW_AT_decl_line(0x33)
    7859                            .dwattr $C$DW$T$155, DW_AT_decl_column(0x14)
    7860                    
    7861                    $C$DW$T$156     .dwtag  DW_TAG_typedef
    7862                            .dwattr $C$DW$T$156, DW_AT_name("__ino_t")
    7863                            .dwattr $C$DW$T$156, DW_AT_type(*$C$DW$T$152)
    7864                            .dwattr $C$DW$T$156, DW_AT_language(DW_LANG_C)
    7865                            .dwattr $C$DW$T$156, DW_AT_decl_file("/home/pola/ti/ccsv8/tools/compiler/ti-cgt-arm_18.1.1.LTS
    7866                            .dwattr $C$DW$T$156, DW_AT_decl_line(0x36)
    7867                            .dwattr $C$DW$T$156, DW_AT_decl_column(0x14)
    7868                    
    7869                    $C$DW$T$157     .dwtag  DW_TAG_typedef
    7870                            .dwattr $C$DW$T$157, DW_AT_name("__nlink_t")
    7871                            .dwattr $C$DW$T$157, DW_AT_type(*$C$DW$T$152)
    7872                            .dwattr $C$DW$T$157, DW_AT_language(DW_LANG_C)
    7873                            .dwattr $C$DW$T$157, DW_AT_decl_file("/home/pola/ti/ccsv8/tools/compiler/ti-cgt-arm_18.1.1.LTS
    7874                            .dwattr $C$DW$T$157, DW_AT_decl_line(0x3c)
    7875                            .dwattr $C$DW$T$157, DW_AT_decl_column(0x14)
    7876                    
    7877                    $C$DW$T$158     .dwtag  DW_TAG_typedef
    7878                            .dwattr $C$DW$T$158, DW_AT_name("__uint_fast64_t")
    7879                            .dwattr $C$DW$T$158, DW_AT_type(*$C$DW$T$152)
    7880                            .dwattr $C$DW$T$158, DW_AT_language(DW_LANG_C)
    7881                            .dwattr $C$DW$T$158, DW_AT_decl_file("/home/pola/ti/ccsv8/tools/compiler/ti-cgt-arm_18.1.1.LTS
    7882                            .dwattr $C$DW$T$158, DW_AT_decl_line(0x6c)
    7883                            .dwattr $C$DW$T$158, DW_AT_decl_column(0x14)
TI ARM Assembler Unix v18.1.1 Fri Jul  3 20:08:24 2020

Tools Copyright (c) 1996-2017 Texas Instruments Incorporated
hibernate.asm                                                        PAGE  145

    7884                    
    7885                    $C$DW$T$159     .dwtag  DW_TAG_typedef
    7886                            .dwattr $C$DW$T$159, DW_AT_name("uint_fast64_t")
    7887                            .dwattr $C$DW$T$159, DW_AT_type(*$C$DW$T$158)
    7888                            .dwattr $C$DW$T$159, DW_AT_language(DW_LANG_C)
    7889                            .dwattr $C$DW$T$159, DW_AT_decl_file("/home/pola/ti/ccsv8/tools/compiler/ti-cgt-arm_18.1.1.LTS
    7890                            .dwattr $C$DW$T$159, DW_AT_decl_line(0x3a)
    7891                            .dwattr $C$DW$T$159, DW_AT_decl_column(0x1a)
    7892                    
    7893                    $C$DW$T$160     .dwtag  DW_TAG_typedef
    7894                            .dwattr $C$DW$T$160, DW_AT_name("__uint_least64_t")
    7895                            .dwattr $C$DW$T$160, DW_AT_type(*$C$DW$T$152)
    7896                            .dwattr $C$DW$T$160, DW_AT_language(DW_LANG_C)
    7897                            .dwattr $C$DW$T$160, DW_AT_decl_file("/home/pola/ti/ccsv8/tools/compiler/ti-cgt-arm_18.1.1.LTS
    7898                            .dwattr $C$DW$T$160, DW_AT_decl_line(0x70)
    7899                            .dwattr $C$DW$T$160, DW_AT_decl_column(0x14)
    7900                    
    7901                    $C$DW$T$161     .dwtag  DW_TAG_typedef
    7902                            .dwattr $C$DW$T$161, DW_AT_name("uint_least64_t")
    7903                            .dwattr $C$DW$T$161, DW_AT_type(*$C$DW$T$160)
    7904                            .dwattr $C$DW$T$161, DW_AT_language(DW_LANG_C)
    7905                            .dwattr $C$DW$T$161, DW_AT_decl_file("/home/pola/ti/ccsv8/tools/compiler/ti-cgt-arm_18.1.1.LTS
    7906                            .dwattr $C$DW$T$161, DW_AT_decl_line(0x30)
    7907                            .dwattr $C$DW$T$161, DW_AT_decl_column(0x1a)
    7908                    
    7909                    $C$DW$T$162     .dwtag  DW_TAG_typedef
    7910                            .dwattr $C$DW$T$162, DW_AT_name("__uintmax_t")
    7911                            .dwattr $C$DW$T$162, DW_AT_type(*$C$DW$T$152)
    7912                            .dwattr $C$DW$T$162, DW_AT_language(DW_LANG_C)
    7913                            .dwattr $C$DW$T$162, DW_AT_decl_file("/home/pola/ti/ccsv8/tools/compiler/ti-cgt-arm_18.1.1.LTS
    7914                            .dwattr $C$DW$T$162, DW_AT_decl_line(0x67)
    7915                            .dwattr $C$DW$T$162, DW_AT_decl_column(0x14)
    7916                    
    7917                    $C$DW$T$163     .dwtag  DW_TAG_typedef
    7918                            .dwattr $C$DW$T$163, DW_AT_name("__rman_res_t")
    7919                            .dwattr $C$DW$T$163, DW_AT_type(*$C$DW$T$162)
    7920                            .dwattr $C$DW$T$163, DW_AT_language(DW_LANG_C)
    7921                            .dwattr $C$DW$T$163, DW_AT_decl_file("/home/pola/ti/ccsv8/tools/compiler/ti-cgt-arm_18.1.1.LTS
    7922                            .dwattr $C$DW$T$163, DW_AT_decl_line(0x8f)
    7923                            .dwattr $C$DW$T$163, DW_AT_decl_column(0x19)
    7924                    
    7925                    $C$DW$T$164     .dwtag  DW_TAG_typedef
    7926                            .dwattr $C$DW$T$164, DW_AT_name("uintmax_t")
    7927                            .dwattr $C$DW$T$164, DW_AT_type(*$C$DW$T$162)
    7928                            .dwattr $C$DW$T$164, DW_AT_language(DW_LANG_C)
    7929                            .dwattr $C$DW$T$164, DW_AT_decl_file("/home/pola/ti/ccsv8/tools/compiler/ti-cgt-arm_18.1.1.LTS
    7930                            .dwattr $C$DW$T$164, DW_AT_decl_line(0x58)
    7931                            .dwattr $C$DW$T$164, DW_AT_decl_column(0x16)
    7932                    
    7933                    $C$DW$T$165     .dwtag  DW_TAG_typedef
    7934                            .dwattr $C$DW$T$165, DW_AT_name("uint64_t")
    7935                            .dwattr $C$DW$T$165, DW_AT_type(*$C$DW$T$152)
    7936                            .dwattr $C$DW$T$165, DW_AT_language(DW_LANG_C)
    7937                            .dwattr $C$DW$T$165, DW_AT_decl_file("/home/pola/ti/ccsv8/tools/compiler/ti-cgt-arm_18.1.1.LTS
    7938                            .dwattr $C$DW$T$165, DW_AT_decl_line(0x47)
TI ARM Assembler Unix v18.1.1 Fri Jul  3 20:08:24 2020

Tools Copyright (c) 1996-2017 Texas Instruments Incorporated
hibernate.asm                                                        PAGE  146

    7939                            .dwattr $C$DW$T$165, DW_AT_decl_column(0x15)
    7940                    
    7941                    $C$DW$T$16      .dwtag  DW_TAG_base_type
    7942                            .dwattr $C$DW$T$16, DW_AT_encoding(DW_ATE_float)
    7943                            .dwattr $C$DW$T$16, DW_AT_name("float")
    7944                            .dwattr $C$DW$T$16, DW_AT_byte_size(0x04)
    7945                    
    7946                    $C$DW$T$166     .dwtag  DW_TAG_typedef
    7947                            .dwattr $C$DW$T$166, DW_AT_name("__float_t")
    7948                            .dwattr $C$DW$T$166, DW_AT_type(*$C$DW$T$16)
    7949                            .dwattr $C$DW$T$166, DW_AT_language(DW_LANG_C)
    7950                            .dwattr $C$DW$T$166, DW_AT_decl_file("/home/pola/ti/ccsv8/tools/compiler/ti-cgt-arm_18.1.1.LTS
    7951                            .dwattr $C$DW$T$166, DW_AT_decl_line(0x50)
    7952                            .dwattr $C$DW$T$166, DW_AT_decl_column(0x10)
    7953                    
    7954                    $C$DW$T$17      .dwtag  DW_TAG_base_type
    7955                            .dwattr $C$DW$T$17, DW_AT_encoding(DW_ATE_float)
    7956                            .dwattr $C$DW$T$17, DW_AT_name("double")
    7957                            .dwattr $C$DW$T$17, DW_AT_byte_size(0x08)
    7958                    
    7959                    $C$DW$T$167     .dwtag  DW_TAG_typedef
    7960                            .dwattr $C$DW$T$167, DW_AT_name("__double_t")
    7961                            .dwattr $C$DW$T$167, DW_AT_type(*$C$DW$T$17)
    7962                            .dwattr $C$DW$T$167, DW_AT_language(DW_LANG_C)
    7963                            .dwattr $C$DW$T$167, DW_AT_decl_file("/home/pola/ti/ccsv8/tools/compiler/ti-cgt-arm_18.1.1.LTS
    7964                            .dwattr $C$DW$T$167, DW_AT_decl_line(0x4f)
    7965                            .dwattr $C$DW$T$167, DW_AT_decl_column(0x11)
    7966                    
    7967                    $C$DW$T$18      .dwtag  DW_TAG_base_type
    7968                            .dwattr $C$DW$T$18, DW_AT_encoding(DW_ATE_float)
    7969                            .dwattr $C$DW$T$18, DW_AT_name("long double")
    7970                            .dwattr $C$DW$T$18, DW_AT_byte_size(0x08)
    7971                    
    7972                    
    7973                    $C$DW$T$24      .dwtag  DW_TAG_array_type
    7974                            .dwattr $C$DW$T$24, DW_AT_type(*$C$DW$T$6)
    7975                            .dwattr $C$DW$T$24, DW_AT_language(DW_LANG_C)
    7976                            .dwattr $C$DW$T$24, DW_AT_byte_size(0x04)
    7977                    $C$DW$280       .dwtag  DW_TAG_subrange_type
    7978                            .dwattr $C$DW$280, DW_AT_upper_bound(0x03)
    7979                    
    7980                            .dwendtag $C$DW$T$24
    7981                    
    7982                    $C$DW$T$131     .dwtag  DW_TAG_base_type
    7983                            .dwattr $C$DW$T$131, DW_AT_encoding(DW_ATE_unsigned_char)
    7984                            .dwattr $C$DW$T$131, DW_AT_name("unsigned char")
    7985                            .dwattr $C$DW$T$131, DW_AT_byte_size(0x01)
    7986                    
    7987                    
    7988                    $C$DW$T$19      .dwtag  DW_TAG_structure_type
    7989                            .dwattr $C$DW$T$19, DW_AT_name("__mq")
    7990                            .dwattr $C$DW$T$19, DW_AT_declaration
    7991                            .dwattr $C$DW$T$19, DW_AT_decl_file("/home/pola/ti/ccsv8/tools/compiler/ti-cgt-arm_18.1.1.LTS/
    7992                            .dwattr $C$DW$T$19, DW_AT_decl_line(0x47)
    7993                            .dwattr $C$DW$T$19, DW_AT_decl_column(0x10)
TI ARM Assembler Unix v18.1.1 Fri Jul  3 20:08:24 2020

Tools Copyright (c) 1996-2017 Texas Instruments Incorporated
hibernate.asm                                                        PAGE  147

    7994                            .dwendtag $C$DW$T$19
    7995                    
    7996                    $C$DW$T$170     .dwtag  DW_TAG_pointer_type
    7997                            .dwattr $C$DW$T$170, DW_AT_type(*$C$DW$T$19)
    7998                            .dwattr $C$DW$T$170, DW_AT_address_class(0x20)
    7999                    
    8000                    $C$DW$T$171     .dwtag  DW_TAG_typedef
    8001                            .dwattr $C$DW$T$171, DW_AT_name("__mqd_t")
    8002                            .dwattr $C$DW$T$171, DW_AT_type(*$C$DW$T$170)
    8003                            .dwattr $C$DW$T$171, DW_AT_language(DW_LANG_C)
    8004                            .dwattr $C$DW$T$171, DW_AT_decl_file("/home/pola/ti/ccsv8/tools/compiler/ti-cgt-arm_18.1.1.LTS
    8005                            .dwattr $C$DW$T$171, DW_AT_decl_line(0x47)
    8006                            .dwattr $C$DW$T$171, DW_AT_decl_column(0x16)
    8007                    
    8008                    
    8009                    $C$DW$T$20      .dwtag  DW_TAG_structure_type
    8010                            .dwattr $C$DW$T$20, DW_AT_name("__timer")
    8011                            .dwattr $C$DW$T$20, DW_AT_declaration
    8012                            .dwattr $C$DW$T$20, DW_AT_decl_file("/home/pola/ti/ccsv8/tools/compiler/ti-cgt-arm_18.1.1.LTS/
    8013                            .dwattr $C$DW$T$20, DW_AT_decl_line(0x46)
    8014                            .dwattr $C$DW$T$20, DW_AT_decl_column(0x10)
    8015                            .dwendtag $C$DW$T$20
    8016                    
    8017                    $C$DW$T$172     .dwtag  DW_TAG_pointer_type
    8018                            .dwattr $C$DW$T$172, DW_AT_type(*$C$DW$T$20)
    8019                            .dwattr $C$DW$T$172, DW_AT_address_class(0x20)
    8020                    
    8021                    $C$DW$T$173     .dwtag  DW_TAG_typedef
    8022                            .dwattr $C$DW$T$173, DW_AT_name("__timer_t")
    8023                            .dwattr $C$DW$T$173, DW_AT_type(*$C$DW$T$172)
    8024                            .dwattr $C$DW$T$173, DW_AT_language(DW_LANG_C)
    8025                            .dwattr $C$DW$T$173, DW_AT_decl_file("/home/pola/ti/ccsv8/tools/compiler/ti-cgt-arm_18.1.1.LTS
    8026                            .dwattr $C$DW$T$173, DW_AT_decl_line(0x46)
    8027                            .dwattr $C$DW$T$173, DW_AT_decl_column(0x19)
    8028                    
    8029                    
    8030                    $C$DW$T$26      .dwtag  DW_TAG_structure_type
    8031                            .dwattr $C$DW$T$26, DW_AT_name("__va_list_t")
    8032                            .dwattr $C$DW$T$26, DW_AT_byte_size(0x04)
    8033                    $C$DW$281       .dwtag  DW_TAG_member
    8034                            .dwattr $C$DW$281, DW_AT_type(*$C$DW$T$3)
    8035                            .dwattr $C$DW$281, DW_AT_name("__ap")
    8036                            .dwattr $C$DW$281, DW_AT_TI_symbol_name("__ap")
    8037                            .dwattr $C$DW$281, DW_AT_data_member_location[DW_OP_plus_uconst 0x0]
    8038                            .dwattr $C$DW$281, DW_AT_accessibility(DW_ACCESS_public)
    8039                            .dwattr $C$DW$281, DW_AT_decl_file("/home/pola/ti/ccsv8/tools/compiler/ti-cgt-arm_18.1.1.LTS/i
    8040                            .dwattr $C$DW$281, DW_AT_decl_line(0x88)
    8041                            .dwattr $C$DW$281, DW_AT_decl_column(0x0c)
    8042                    
    8043                            .dwattr $C$DW$T$26, DW_AT_decl_file("/home/pola/ti/ccsv8/tools/compiler/ti-cgt-arm_18.1.1.LTS/
    8044                            .dwattr $C$DW$T$26, DW_AT_decl_line(0x87)
    8045                            .dwattr $C$DW$T$26, DW_AT_decl_column(0x10)
    8046                            .dwendtag $C$DW$T$26
    8047                    
    8048                    $C$DW$T$174     .dwtag  DW_TAG_typedef
TI ARM Assembler Unix v18.1.1 Fri Jul  3 20:08:24 2020

Tools Copyright (c) 1996-2017 Texas Instruments Incorporated
hibernate.asm                                                        PAGE  148

    8049                            .dwattr $C$DW$T$174, DW_AT_name("__va_list")
    8050                            .dwattr $C$DW$T$174, DW_AT_type(*$C$DW$T$26)
    8051                            .dwattr $C$DW$T$174, DW_AT_language(DW_LANG_C)
    8052                            .dwattr $C$DW$T$174, DW_AT_decl_file("/home/pola/ti/ccsv8/tools/compiler/ti-cgt-arm_18.1.1.LTS
    8053                            .dwattr $C$DW$T$174, DW_AT_decl_line(0x89)
    8054                            .dwattr $C$DW$T$174, DW_AT_decl_column(0x03)
    8055                    
    8056                    
    8057                    $C$DW$T$21      .dwtag  DW_TAG_structure_type
    8058                            .dwattr $C$DW$T$21, DW_AT_name("_xlocale")
    8059                            .dwattr $C$DW$T$21, DW_AT_declaration
    8060                            .dwattr $C$DW$T$21, DW_AT_decl_file("/home/pola/ti/ccsv8/tools/compiler/ti-cgt-arm_18.1.1.LTS/
    8061                            .dwattr $C$DW$T$21, DW_AT_decl_line(0x24)
    8062                            .dwattr $C$DW$T$21, DW_AT_decl_column(0x10)
    8063                            .dwendtag $C$DW$T$21
    8064                    
    8065                    $C$DW$T$175     .dwtag  DW_TAG_pointer_type
    8066                            .dwattr $C$DW$T$175, DW_AT_type(*$C$DW$T$21)
    8067                            .dwattr $C$DW$T$175, DW_AT_address_class(0x20)
    8068                    
    8069                    $C$DW$T$176     .dwtag  DW_TAG_typedef
    8070                            .dwattr $C$DW$T$176, DW_AT_name("locale_t")
    8071                            .dwattr $C$DW$T$176, DW_AT_type(*$C$DW$T$175)
    8072                            .dwattr $C$DW$T$176, DW_AT_language(DW_LANG_C)
    8073                            .dwattr $C$DW$T$176, DW_AT_decl_file("/home/pola/ti/ccsv8/tools/compiler/ti-cgt-arm_18.1.1.LTS
    8074                            .dwattr $C$DW$T$176, DW_AT_decl_line(0x24)
    8075                            .dwattr $C$DW$T$176, DW_AT_decl_column(0x1a)
    8076                    
    8077                    
    8078                    $C$DW$T$27      .dwtag  DW_TAG_structure_type
    8079                            .dwattr $C$DW$T$27, DW_AT_name("tm")
    8080                            .dwattr $C$DW$T$27, DW_AT_byte_size(0x24)
    8081                    $C$DW$282       .dwtag  DW_TAG_member
    8082                            .dwattr $C$DW$282, DW_AT_type(*$C$DW$T$10)
    8083                            .dwattr $C$DW$282, DW_AT_name("tm_sec")
    8084                            .dwattr $C$DW$282, DW_AT_TI_symbol_name("tm_sec")
    8085                            .dwattr $C$DW$282, DW_AT_data_member_location[DW_OP_plus_uconst 0x0]
    8086                            .dwattr $C$DW$282, DW_AT_accessibility(DW_ACCESS_public)
    8087                            .dwattr $C$DW$282, DW_AT_decl_file("/home/pola/ti/ccsv8/tools/compiler/ti-cgt-arm_18.1.1.LTS/i
    8088                            .dwattr $C$DW$282, DW_AT_decl_line(0x7f)
    8089                            .dwattr $C$DW$282, DW_AT_decl_column(0x09)
    8090                    
    8091                    $C$DW$283       .dwtag  DW_TAG_member
    8092                            .dwattr $C$DW$283, DW_AT_type(*$C$DW$T$10)
    8093                            .dwattr $C$DW$283, DW_AT_name("tm_min")
    8094                            .dwattr $C$DW$283, DW_AT_TI_symbol_name("tm_min")
    8095                            .dwattr $C$DW$283, DW_AT_data_member_location[DW_OP_plus_uconst 0x4]
    8096                            .dwattr $C$DW$283, DW_AT_accessibility(DW_ACCESS_public)
    8097                            .dwattr $C$DW$283, DW_AT_decl_file("/home/pola/ti/ccsv8/tools/compiler/ti-cgt-arm_18.1.1.LTS/i
    8098                            .dwattr $C$DW$283, DW_AT_decl_line(0x80)
    8099                            .dwattr $C$DW$283, DW_AT_decl_column(0x09)
    8100                    
    8101                    $C$DW$284       .dwtag  DW_TAG_member
    8102                            .dwattr $C$DW$284, DW_AT_type(*$C$DW$T$10)
    8103                            .dwattr $C$DW$284, DW_AT_name("tm_hour")
TI ARM Assembler Unix v18.1.1 Fri Jul  3 20:08:24 2020

Tools Copyright (c) 1996-2017 Texas Instruments Incorporated
hibernate.asm                                                        PAGE  149

    8104                            .dwattr $C$DW$284, DW_AT_TI_symbol_name("tm_hour")
    8105                            .dwattr $C$DW$284, DW_AT_data_member_location[DW_OP_plus_uconst 0x8]
    8106                            .dwattr $C$DW$284, DW_AT_accessibility(DW_ACCESS_public)
    8107                            .dwattr $C$DW$284, DW_AT_decl_file("/home/pola/ti/ccsv8/tools/compiler/ti-cgt-arm_18.1.1.LTS/i
    8108                            .dwattr $C$DW$284, DW_AT_decl_line(0x81)
    8109                            .dwattr $C$DW$284, DW_AT_decl_column(0x09)
    8110                    
    8111                    $C$DW$285       .dwtag  DW_TAG_member
    8112                            .dwattr $C$DW$285, DW_AT_type(*$C$DW$T$10)
    8113                            .dwattr $C$DW$285, DW_AT_name("tm_mday")
    8114                            .dwattr $C$DW$285, DW_AT_TI_symbol_name("tm_mday")
    8115                            .dwattr $C$DW$285, DW_AT_data_member_location[DW_OP_plus_uconst 0xc]
    8116                            .dwattr $C$DW$285, DW_AT_accessibility(DW_ACCESS_public)
    8117                            .dwattr $C$DW$285, DW_AT_decl_file("/home/pola/ti/ccsv8/tools/compiler/ti-cgt-arm_18.1.1.LTS/i
    8118                            .dwattr $C$DW$285, DW_AT_decl_line(0x82)
    8119                            .dwattr $C$DW$285, DW_AT_decl_column(0x09)
    8120                    
    8121                    $C$DW$286       .dwtag  DW_TAG_member
    8122                            .dwattr $C$DW$286, DW_AT_type(*$C$DW$T$10)
    8123                            .dwattr $C$DW$286, DW_AT_name("tm_mon")
    8124                            .dwattr $C$DW$286, DW_AT_TI_symbol_name("tm_mon")
    8125                            .dwattr $C$DW$286, DW_AT_data_member_location[DW_OP_plus_uconst 0x10]
    8126                            .dwattr $C$DW$286, DW_AT_accessibility(DW_ACCESS_public)
    8127                            .dwattr $C$DW$286, DW_AT_decl_file("/home/pola/ti/ccsv8/tools/compiler/ti-cgt-arm_18.1.1.LTS/i
    8128                            .dwattr $C$DW$286, DW_AT_decl_line(0x83)
    8129                            .dwattr $C$DW$286, DW_AT_decl_column(0x09)
    8130                    
    8131                    $C$DW$287       .dwtag  DW_TAG_member
    8132                            .dwattr $C$DW$287, DW_AT_type(*$C$DW$T$10)
    8133                            .dwattr $C$DW$287, DW_AT_name("tm_year")
    8134                            .dwattr $C$DW$287, DW_AT_TI_symbol_name("tm_year")
    8135                            .dwattr $C$DW$287, DW_AT_data_member_location[DW_OP_plus_uconst 0x14]
    8136                            .dwattr $C$DW$287, DW_AT_accessibility(DW_ACCESS_public)
    8137                            .dwattr $C$DW$287, DW_AT_decl_file("/home/pola/ti/ccsv8/tools/compiler/ti-cgt-arm_18.1.1.LTS/i
    8138                            .dwattr $C$DW$287, DW_AT_decl_line(0x84)
    8139                            .dwattr $C$DW$287, DW_AT_decl_column(0x09)
    8140                    
    8141                    $C$DW$288       .dwtag  DW_TAG_member
    8142                            .dwattr $C$DW$288, DW_AT_type(*$C$DW$T$10)
    8143                            .dwattr $C$DW$288, DW_AT_name("tm_wday")
    8144                            .dwattr $C$DW$288, DW_AT_TI_symbol_name("tm_wday")
    8145                            .dwattr $C$DW$288, DW_AT_data_member_location[DW_OP_plus_uconst 0x18]
    8146                            .dwattr $C$DW$288, DW_AT_accessibility(DW_ACCESS_public)
    8147                            .dwattr $C$DW$288, DW_AT_decl_file("/home/pola/ti/ccsv8/tools/compiler/ti-cgt-arm_18.1.1.LTS/i
    8148                            .dwattr $C$DW$288, DW_AT_decl_line(0x85)
    8149                            .dwattr $C$DW$288, DW_AT_decl_column(0x09)
    8150                    
    8151                    $C$DW$289       .dwtag  DW_TAG_member
    8152                            .dwattr $C$DW$289, DW_AT_type(*$C$DW$T$10)
    8153                            .dwattr $C$DW$289, DW_AT_name("tm_yday")
    8154                            .dwattr $C$DW$289, DW_AT_TI_symbol_name("tm_yday")
    8155                            .dwattr $C$DW$289, DW_AT_data_member_location[DW_OP_plus_uconst 0x1c]
    8156                            .dwattr $C$DW$289, DW_AT_accessibility(DW_ACCESS_public)
    8157                            .dwattr $C$DW$289, DW_AT_decl_file("/home/pola/ti/ccsv8/tools/compiler/ti-cgt-arm_18.1.1.LTS/i
    8158                            .dwattr $C$DW$289, DW_AT_decl_line(0x86)
TI ARM Assembler Unix v18.1.1 Fri Jul  3 20:08:24 2020

Tools Copyright (c) 1996-2017 Texas Instruments Incorporated
hibernate.asm                                                        PAGE  150

    8159                            .dwattr $C$DW$289, DW_AT_decl_column(0x09)
    8160                    
    8161                    $C$DW$290       .dwtag  DW_TAG_member
    8162                            .dwattr $C$DW$290, DW_AT_type(*$C$DW$T$10)
    8163                            .dwattr $C$DW$290, DW_AT_name("tm_isdst")
    8164                            .dwattr $C$DW$290, DW_AT_TI_symbol_name("tm_isdst")
    8165                            .dwattr $C$DW$290, DW_AT_data_member_location[DW_OP_plus_uconst 0x20]
    8166                            .dwattr $C$DW$290, DW_AT_accessibility(DW_ACCESS_public)
    8167                            .dwattr $C$DW$290, DW_AT_decl_file("/home/pola/ti/ccsv8/tools/compiler/ti-cgt-arm_18.1.1.LTS/i
    8168                            .dwattr $C$DW$290, DW_AT_decl_line(0x87)
    8169                            .dwattr $C$DW$290, DW_AT_decl_column(0x09)
    8170                    
    8171                            .dwattr $C$DW$T$27, DW_AT_decl_file("/home/pola/ti/ccsv8/tools/compiler/ti-cgt-arm_18.1.1.LTS/
    8172                            .dwattr $C$DW$T$27, DW_AT_decl_line(0x7d)
    8173                            .dwattr $C$DW$T$27, DW_AT_decl_column(0x08)
    8174                            .dwendtag $C$DW$T$27
    8175                    
    8176                    $C$DW$T$42      .dwtag  DW_TAG_pointer_type
    8177                            .dwattr $C$DW$T$42, DW_AT_type(*$C$DW$T$27)
    8178                            .dwattr $C$DW$T$42, DW_AT_address_class(0x20)
    8179                    
    8180                            .dwattr $C$DW$CU, DW_AT_language(DW_LANG_C)
    8181                    
    8182                    ;***************************************************************
    8183                    ;* DWARF CIE ENTRIES                                           *
    8184                    ;***************************************************************
    8185                    
    8186                    $C$DW$CIE       .dwcie 14
    8187                            .dwcfi  cfa_register, 13
    8188                            .dwcfi  cfa_offset, 0
    8189                            .dwcfi  same_value, 4
    8190                            .dwcfi  same_value, 5
    8191                            .dwcfi  same_value, 6
    8192                            .dwcfi  same_value, 7
    8193                            .dwcfi  same_value, 8
    8194                            .dwcfi  same_value, 9
    8195                            .dwcfi  same_value, 10
    8196                            .dwcfi  same_value, 11
    8197                            .dwcfi  same_value, 80
    8198                            .dwcfi  same_value, 81
    8199                            .dwcfi  same_value, 82
    8200                            .dwcfi  same_value, 83
    8201                            .dwcfi  same_value, 84
    8202                            .dwcfi  same_value, 85
    8203                            .dwcfi  same_value, 86
    8204                            .dwcfi  same_value, 87
    8205                            .dwcfi  same_value, 88
    8206                            .dwcfi  same_value, 89
    8207                            .dwcfi  same_value, 90
    8208                            .dwcfi  same_value, 91
    8209                            .dwcfi  same_value, 92
    8210                            .dwcfi  same_value, 93
    8211                            .dwcfi  same_value, 94
    8212                            .dwcfi  same_value, 95
    8213                            .dwendentry
TI ARM Assembler Unix v18.1.1 Fri Jul  3 20:08:24 2020

Tools Copyright (c) 1996-2017 Texas Instruments Incorporated
hibernate.asm                                                        PAGE  151

    8214                    
    8215                    ;***************************************************************
    8216                    ;* DWARF REGISTER MAP                                          *
    8217                    ;***************************************************************
    8218                    
    8219                    $C$DW$291       .dwtag  DW_TAG_TI_assign_register
    8220                            .dwattr $C$DW$291, DW_AT_name("A1")
    8221                            .dwattr $C$DW$291, DW_AT_location[DW_OP_reg0]
    8222                    
    8223                    $C$DW$292       .dwtag  DW_TAG_TI_assign_register
    8224                            .dwattr $C$DW$292, DW_AT_name("A2")
    8225                            .dwattr $C$DW$292, DW_AT_location[DW_OP_reg1]
    8226                    
    8227                    $C$DW$293       .dwtag  DW_TAG_TI_assign_register
    8228                            .dwattr $C$DW$293, DW_AT_name("A3")
    8229                            .dwattr $C$DW$293, DW_AT_location[DW_OP_reg2]
    8230                    
    8231                    $C$DW$294       .dwtag  DW_TAG_TI_assign_register
    8232                            .dwattr $C$DW$294, DW_AT_name("A4")
    8233                            .dwattr $C$DW$294, DW_AT_location[DW_OP_reg3]
    8234                    
    8235                    $C$DW$295       .dwtag  DW_TAG_TI_assign_register
    8236                            .dwattr $C$DW$295, DW_AT_name("V1")
    8237                            .dwattr $C$DW$295, DW_AT_location[DW_OP_reg4]
    8238                    
    8239                    $C$DW$296       .dwtag  DW_TAG_TI_assign_register
    8240                            .dwattr $C$DW$296, DW_AT_name("V2")
    8241                            .dwattr $C$DW$296, DW_AT_location[DW_OP_reg5]
    8242                    
    8243                    $C$DW$297       .dwtag  DW_TAG_TI_assign_register
    8244                            .dwattr $C$DW$297, DW_AT_name("V3")
    8245                            .dwattr $C$DW$297, DW_AT_location[DW_OP_reg6]
    8246                    
    8247                    $C$DW$298       .dwtag  DW_TAG_TI_assign_register
    8248                            .dwattr $C$DW$298, DW_AT_name("V4")
    8249                            .dwattr $C$DW$298, DW_AT_location[DW_OP_reg7]
    8250                    
    8251                    $C$DW$299       .dwtag  DW_TAG_TI_assign_register
    8252                            .dwattr $C$DW$299, DW_AT_name("V5")
    8253                            .dwattr $C$DW$299, DW_AT_location[DW_OP_reg8]
    8254                    
    8255                    $C$DW$300       .dwtag  DW_TAG_TI_assign_register
    8256                            .dwattr $C$DW$300, DW_AT_name("V6")
    8257                            .dwattr $C$DW$300, DW_AT_location[DW_OP_reg9]
    8258                    
    8259                    $C$DW$301       .dwtag  DW_TAG_TI_assign_register
    8260                            .dwattr $C$DW$301, DW_AT_name("V7")
    8261                            .dwattr $C$DW$301, DW_AT_location[DW_OP_reg10]
    8262                    
    8263                    $C$DW$302       .dwtag  DW_TAG_TI_assign_register
    8264                            .dwattr $C$DW$302, DW_AT_name("V8")
    8265                            .dwattr $C$DW$302, DW_AT_location[DW_OP_reg11]
    8266                    
    8267                    $C$DW$303       .dwtag  DW_TAG_TI_assign_register
    8268                            .dwattr $C$DW$303, DW_AT_name("V9")
TI ARM Assembler Unix v18.1.1 Fri Jul  3 20:08:24 2020

Tools Copyright (c) 1996-2017 Texas Instruments Incorporated
hibernate.asm                                                        PAGE  152

    8269                            .dwattr $C$DW$303, DW_AT_location[DW_OP_reg12]
    8270                    
    8271                    $C$DW$304       .dwtag  DW_TAG_TI_assign_register
    8272                            .dwattr $C$DW$304, DW_AT_name("SP")
    8273                            .dwattr $C$DW$304, DW_AT_location[DW_OP_reg13]
    8274                    
    8275                    $C$DW$305       .dwtag  DW_TAG_TI_assign_register
    8276                            .dwattr $C$DW$305, DW_AT_name("LR")
    8277                            .dwattr $C$DW$305, DW_AT_location[DW_OP_reg14]
    8278                    
    8279                    $C$DW$306       .dwtag  DW_TAG_TI_assign_register
    8280                            .dwattr $C$DW$306, DW_AT_name("PC")
    8281                            .dwattr $C$DW$306, DW_AT_location[DW_OP_reg15]
    8282                    
    8283                    $C$DW$307       .dwtag  DW_TAG_TI_assign_register
    8284                            .dwattr $C$DW$307, DW_AT_name("SR")
    8285                            .dwattr $C$DW$307, DW_AT_location[DW_OP_reg17]
    8286                    
    8287                    $C$DW$308       .dwtag  DW_TAG_TI_assign_register
    8288                            .dwattr $C$DW$308, DW_AT_name("AP")
    8289                            .dwattr $C$DW$308, DW_AT_location[DW_OP_reg7]
    8290                    
    8291                    $C$DW$309       .dwtag  DW_TAG_TI_assign_register
    8292                            .dwattr $C$DW$309, DW_AT_name("D0")
    8293                            .dwattr $C$DW$309, DW_AT_location[DW_OP_regx 0x40]
    8294                    
    8295                    $C$DW$310       .dwtag  DW_TAG_TI_assign_register
    8296                            .dwattr $C$DW$310, DW_AT_name("D0_hi")
    8297                            .dwattr $C$DW$310, DW_AT_location[DW_OP_regx 0x41]
    8298                    
    8299                    $C$DW$311       .dwtag  DW_TAG_TI_assign_register
    8300                            .dwattr $C$DW$311, DW_AT_name("D1")
    8301                            .dwattr $C$DW$311, DW_AT_location[DW_OP_regx 0x42]
    8302                    
    8303                    $C$DW$312       .dwtag  DW_TAG_TI_assign_register
    8304                            .dwattr $C$DW$312, DW_AT_name("D1_hi")
    8305                            .dwattr $C$DW$312, DW_AT_location[DW_OP_regx 0x43]
    8306                    
    8307                    $C$DW$313       .dwtag  DW_TAG_TI_assign_register
    8308                            .dwattr $C$DW$313, DW_AT_name("D2")
    8309                            .dwattr $C$DW$313, DW_AT_location[DW_OP_regx 0x44]
    8310                    
    8311                    $C$DW$314       .dwtag  DW_TAG_TI_assign_register
    8312                            .dwattr $C$DW$314, DW_AT_name("D2_hi")
    8313                            .dwattr $C$DW$314, DW_AT_location[DW_OP_regx 0x45]
    8314                    
    8315                    $C$DW$315       .dwtag  DW_TAG_TI_assign_register
    8316                            .dwattr $C$DW$315, DW_AT_name("D3")
    8317                            .dwattr $C$DW$315, DW_AT_location[DW_OP_regx 0x46]
    8318                    
    8319                    $C$DW$316       .dwtag  DW_TAG_TI_assign_register
    8320                            .dwattr $C$DW$316, DW_AT_name("D3_hi")
    8321                            .dwattr $C$DW$316, DW_AT_location[DW_OP_regx 0x47]
    8322                    
    8323                    $C$DW$317       .dwtag  DW_TAG_TI_assign_register
TI ARM Assembler Unix v18.1.1 Fri Jul  3 20:08:24 2020

Tools Copyright (c) 1996-2017 Texas Instruments Incorporated
hibernate.asm                                                        PAGE  153

    8324                            .dwattr $C$DW$317, DW_AT_name("D4")
    8325                            .dwattr $C$DW$317, DW_AT_location[DW_OP_regx 0x48]
    8326                    
    8327                    $C$DW$318       .dwtag  DW_TAG_TI_assign_register
    8328                            .dwattr $C$DW$318, DW_AT_name("D4_hi")
    8329                            .dwattr $C$DW$318, DW_AT_location[DW_OP_regx 0x49]
    8330                    
    8331                    $C$DW$319       .dwtag  DW_TAG_TI_assign_register
    8332                            .dwattr $C$DW$319, DW_AT_name("D5")
    8333                            .dwattr $C$DW$319, DW_AT_location[DW_OP_regx 0x4a]
    8334                    
    8335                    $C$DW$320       .dwtag  DW_TAG_TI_assign_register
    8336                            .dwattr $C$DW$320, DW_AT_name("D5_hi")
    8337                            .dwattr $C$DW$320, DW_AT_location[DW_OP_regx 0x4b]
    8338                    
    8339                    $C$DW$321       .dwtag  DW_TAG_TI_assign_register
    8340                            .dwattr $C$DW$321, DW_AT_name("D6")
    8341                            .dwattr $C$DW$321, DW_AT_location[DW_OP_regx 0x4c]
    8342                    
    8343                    $C$DW$322       .dwtag  DW_TAG_TI_assign_register
    8344                            .dwattr $C$DW$322, DW_AT_name("D6_hi")
    8345                            .dwattr $C$DW$322, DW_AT_location[DW_OP_regx 0x4d]
    8346                    
    8347                    $C$DW$323       .dwtag  DW_TAG_TI_assign_register
    8348                            .dwattr $C$DW$323, DW_AT_name("D7")
    8349                            .dwattr $C$DW$323, DW_AT_location[DW_OP_regx 0x4e]
    8350                    
    8351                    $C$DW$324       .dwtag  DW_TAG_TI_assign_register
    8352                            .dwattr $C$DW$324, DW_AT_name("D7_hi")
    8353                            .dwattr $C$DW$324, DW_AT_location[DW_OP_regx 0x4f]
    8354                    
    8355                    $C$DW$325       .dwtag  DW_TAG_TI_assign_register
    8356                            .dwattr $C$DW$325, DW_AT_name("D8")
    8357                            .dwattr $C$DW$325, DW_AT_location[DW_OP_regx 0x50]
    8358                    
    8359                    $C$DW$326       .dwtag  DW_TAG_TI_assign_register
    8360                            .dwattr $C$DW$326, DW_AT_name("D8_hi")
    8361                            .dwattr $C$DW$326, DW_AT_location[DW_OP_regx 0x51]
    8362                    
    8363                    $C$DW$327       .dwtag  DW_TAG_TI_assign_register
    8364                            .dwattr $C$DW$327, DW_AT_name("D9")
    8365                            .dwattr $C$DW$327, DW_AT_location[DW_OP_regx 0x52]
    8366                    
    8367                    $C$DW$328       .dwtag  DW_TAG_TI_assign_register
    8368                            .dwattr $C$DW$328, DW_AT_name("D9_hi")
    8369                            .dwattr $C$DW$328, DW_AT_location[DW_OP_regx 0x53]
    8370                    
    8371                    $C$DW$329       .dwtag  DW_TAG_TI_assign_register
    8372                            .dwattr $C$DW$329, DW_AT_name("D10")
    8373                            .dwattr $C$DW$329, DW_AT_location[DW_OP_regx 0x54]
    8374                    
    8375                    $C$DW$330       .dwtag  DW_TAG_TI_assign_register
    8376                            .dwattr $C$DW$330, DW_AT_name("D10_hi")
    8377                            .dwattr $C$DW$330, DW_AT_location[DW_OP_regx 0x55]
    8378                    
TI ARM Assembler Unix v18.1.1 Fri Jul  3 20:08:24 2020

Tools Copyright (c) 1996-2017 Texas Instruments Incorporated
hibernate.asm                                                        PAGE  154

    8379                    $C$DW$331       .dwtag  DW_TAG_TI_assign_register
    8380                            .dwattr $C$DW$331, DW_AT_name("D11")
    8381                            .dwattr $C$DW$331, DW_AT_location[DW_OP_regx 0x56]
    8382                    
    8383                    $C$DW$332       .dwtag  DW_TAG_TI_assign_register
    8384                            .dwattr $C$DW$332, DW_AT_name("D11_hi")
    8385                            .dwattr $C$DW$332, DW_AT_location[DW_OP_regx 0x57]
    8386                    
    8387                    $C$DW$333       .dwtag  DW_TAG_TI_assign_register
    8388                            .dwattr $C$DW$333, DW_AT_name("D12")
    8389                            .dwattr $C$DW$333, DW_AT_location[DW_OP_regx 0x58]
    8390                    
    8391                    $C$DW$334       .dwtag  DW_TAG_TI_assign_register
    8392                            .dwattr $C$DW$334, DW_AT_name("D12_hi")
    8393                            .dwattr $C$DW$334, DW_AT_location[DW_OP_regx 0x59]
    8394                    
    8395                    $C$DW$335       .dwtag  DW_TAG_TI_assign_register
    8396                            .dwattr $C$DW$335, DW_AT_name("D13")
    8397                            .dwattr $C$DW$335, DW_AT_location[DW_OP_regx 0x5a]
    8398                    
    8399                    $C$DW$336       .dwtag  DW_TAG_TI_assign_register
    8400                            .dwattr $C$DW$336, DW_AT_name("D13_hi")
    8401                            .dwattr $C$DW$336, DW_AT_location[DW_OP_regx 0x5b]
    8402                    
    8403                    $C$DW$337       .dwtag  DW_TAG_TI_assign_register
    8404                            .dwattr $C$DW$337, DW_AT_name("D14")
    8405                            .dwattr $C$DW$337, DW_AT_location[DW_OP_regx 0x5c]
    8406                    
    8407                    $C$DW$338       .dwtag  DW_TAG_TI_assign_register
    8408                            .dwattr $C$DW$338, DW_AT_name("D14_hi")
    8409                            .dwattr $C$DW$338, DW_AT_location[DW_OP_regx 0x5d]
    8410                    
    8411                    $C$DW$339       .dwtag  DW_TAG_TI_assign_register
    8412                            .dwattr $C$DW$339, DW_AT_name("D15")
    8413                            .dwattr $C$DW$339, DW_AT_location[DW_OP_regx 0x5e]
    8414                    
    8415                    $C$DW$340       .dwtag  DW_TAG_TI_assign_register
    8416                            .dwattr $C$DW$340, DW_AT_name("D15_hi")
    8417                            .dwattr $C$DW$340, DW_AT_location[DW_OP_regx 0x5f]
    8418                    
    8419                    $C$DW$341       .dwtag  DW_TAG_TI_assign_register
    8420                            .dwattr $C$DW$341, DW_AT_name("FPEXC")
    8421                            .dwattr $C$DW$341, DW_AT_location[DW_OP_reg18]
    8422                    
    8423                    $C$DW$342       .dwtag  DW_TAG_TI_assign_register
    8424                            .dwattr $C$DW$342, DW_AT_name("FPSCR")
    8425                            .dwattr $C$DW$342, DW_AT_location[DW_OP_reg19]
    8426                    
    8427                            .dwendtag $C$DW$CU
    8428                    

--------------------------
Thumb2 Statistics
--------------------------
Number of Thumb2 ins converted to Thumb = 0 (0%)
Number of Thumb ins in input = 828 (84%)
Number of Thumb2 ins encoded as Thumb2 = 152 (100%)
Number of Thumb2 ins converted to 2 OPND Thumb = 44


No Assembly Errors, No Assembly Warnings
