TI ARM Assembler Unix v18.1.1 Fri Jul  3 20:08:25 2020

Tools Copyright (c) 1996-2017 Texas Instruments Incorporated
lcd.asm                                                              PAGE    1

       1                    ;******************************************************************************
       2                    ;* TI ARM C/C++ Codegen                                      Unix v18.1.1.LTS *
       3                    ;* Date/Time created: Fri Jul  3 20:08:24 2020                                *
       4                    ;******************************************************************************
       5                            .compiler_opts --abi=eabi --arm_vmrs_si_workaround=off --code_state=16 --diag_wrap=off --embed
       6 00000000                   .thumb
       7                    
       8                    $C$DW$CU        .dwtag  DW_TAG_compile_unit
       9                            .dwattr $C$DW$CU, DW_AT_name("../driverlib/lcd.c")
      10                            .dwattr $C$DW$CU, DW_AT_producer("TI TI ARM C/C++ Codegen Unix v18.1.1.LTS Copyright (c) 1996-
      11                            .dwattr $C$DW$CU, DW_AT_TI_version(0x01)
      12                            .dwattr $C$DW$CU, DW_AT_comp_dir("/home/pola/workspace_v8/Microwave/Debug")
      13                    
      14                    $C$DW$1 .dwtag  DW_TAG_subprogram
      15                            .dwattr $C$DW$1, DW_AT_name("SysCtlDelay")
      16                            .dwattr $C$DW$1, DW_AT_TI_symbol_name("SysCtlDelay")
      17                            .dwattr $C$DW$1, DW_AT_declaration
      18                            .dwattr $C$DW$1, DW_AT_external
      19                            .dwattr $C$DW$1, DW_AT_decl_file("/home/pola/workspace_v8/Microwave/driverlib/sysctl.h")
      20                            .dwattr $C$DW$1, DW_AT_decl_line(0x27a)
      21                            .dwattr $C$DW$1, DW_AT_decl_column(0x0d)
      22                    $C$DW$2 .dwtag  DW_TAG_formal_parameter
      23                            .dwattr $C$DW$2, DW_AT_type(*$C$DW$T$25)
      24                    
      25                            .dwendtag $C$DW$1
      26                    
      27                    
      28                    $C$DW$3 .dwtag  DW_TAG_subprogram
      29                            .dwattr $C$DW$3, DW_AT_name("IntRegister")
      30                            .dwattr $C$DW$3, DW_AT_TI_symbol_name("IntRegister")
      31                            .dwattr $C$DW$3, DW_AT_declaration
      32                            .dwattr $C$DW$3, DW_AT_external
      33                            .dwattr $C$DW$3, DW_AT_decl_file("/home/pola/workspace_v8/Microwave/driverlib/interrupt.h")
      34                            .dwattr $C$DW$3, DW_AT_decl_line(0x45)
      35                            .dwattr $C$DW$3, DW_AT_decl_column(0x0d)
      36                    $C$DW$4 .dwtag  DW_TAG_formal_parameter
      37                            .dwattr $C$DW$4, DW_AT_type(*$C$DW$T$25)
      38                    
      39                    $C$DW$5 .dwtag  DW_TAG_formal_parameter
      40                            .dwattr $C$DW$5, DW_AT_type(*$C$DW$T$39)
      41                    
      42                            .dwendtag $C$DW$3
      43                    
      44                    
      45                    $C$DW$6 .dwtag  DW_TAG_subprogram
      46                            .dwattr $C$DW$6, DW_AT_name("IntEnable")
      47                            .dwattr $C$DW$6, DW_AT_TI_symbol_name("IntEnable")
      48                            .dwattr $C$DW$6, DW_AT_declaration
      49                            .dwattr $C$DW$6, DW_AT_external
      50                            .dwattr $C$DW$6, DW_AT_decl_file("/home/pola/workspace_v8/Microwave/driverlib/interrupt.h")
      51                            .dwattr $C$DW$6, DW_AT_decl_line(0x4c)
      52                            .dwattr $C$DW$6, DW_AT_decl_column(0x0d)
      53                    $C$DW$7 .dwtag  DW_TAG_formal_parameter
      54                            .dwattr $C$DW$7, DW_AT_type(*$C$DW$T$25)
      55                    
TI ARM Assembler Unix v18.1.1 Fri Jul  3 20:08:25 2020

Tools Copyright (c) 1996-2017 Texas Instruments Incorporated
lcd.asm                                                              PAGE    2

      56                            .dwendtag $C$DW$6
      57                    
      58                    
      59                    $C$DW$8 .dwtag  DW_TAG_subprogram
      60                            .dwattr $C$DW$8, DW_AT_name("IntDisable")
      61                            .dwattr $C$DW$8, DW_AT_TI_symbol_name("IntDisable")
      62                            .dwattr $C$DW$8, DW_AT_declaration
      63                            .dwattr $C$DW$8, DW_AT_external
      64                            .dwattr $C$DW$8, DW_AT_decl_file("/home/pola/workspace_v8/Microwave/driverlib/interrupt.h")
      65                            .dwattr $C$DW$8, DW_AT_decl_line(0x4d)
      66                            .dwattr $C$DW$8, DW_AT_decl_column(0x0d)
      67                    $C$DW$9 .dwtag  DW_TAG_formal_parameter
      68                            .dwattr $C$DW$9, DW_AT_type(*$C$DW$T$25)
      69                    
      70                            .dwendtag $C$DW$8
      71                    
      72                    
      73                    $C$DW$10        .dwtag  DW_TAG_subprogram
      74                            .dwattr $C$DW$10, DW_AT_name("IntUnregister")
      75                            .dwattr $C$DW$10, DW_AT_TI_symbol_name("IntUnregister")
      76                            .dwattr $C$DW$10, DW_AT_declaration
      77                            .dwattr $C$DW$10, DW_AT_external
      78                            .dwattr $C$DW$10, DW_AT_decl_file("/home/pola/workspace_v8/Microwave/driverlib/interrupt.h")
      79                            .dwattr $C$DW$10, DW_AT_decl_line(0x46)
      80                            .dwattr $C$DW$10, DW_AT_decl_column(0x0d)
      81                    $C$DW$11        .dwtag  DW_TAG_formal_parameter
      82                            .dwattr $C$DW$11, DW_AT_type(*$C$DW$T$25)
      83                    
      84                            .dwendtag $C$DW$10
      85                    
      86                    ;       /home/pola/ti/ccsv8/tools/compiler/ti-cgt-arm_18.1.1.LTS/bin/armacpia -@/tmp/TI3QEGLttqj 
      87 00000000                   .sect   ".text"
      88                            .clink
      89                            .thumbfunc LCDModeSet
      90 00000000                   .thumb
      91                            .global LCDModeSet
      92                    
      93                    $C$DW$12        .dwtag  DW_TAG_subprogram
      94                            .dwattr $C$DW$12, DW_AT_name("LCDModeSet")
      95                            .dwattr $C$DW$12, DW_AT_low_pc(LCDModeSet)
      96                            .dwattr $C$DW$12, DW_AT_high_pc(0x00)
      97                            .dwattr $C$DW$12, DW_AT_TI_symbol_name("LCDModeSet")
      98                            .dwattr $C$DW$12, DW_AT_external
      99                            .dwattr $C$DW$12, DW_AT_type(*$C$DW$T$25)
     100                            .dwattr $C$DW$12, DW_AT_TI_begin_file("../driverlib/lcd.c")
     101                            .dwattr $C$DW$12, DW_AT_TI_begin_line(0x6e)
     102                            .dwattr $C$DW$12, DW_AT_TI_begin_column(0x01)
     103                            .dwattr $C$DW$12, DW_AT_decl_file("../driverlib/lcd.c")
     104                            .dwattr $C$DW$12, DW_AT_decl_line(0x6e)
     105                            .dwattr $C$DW$12, DW_AT_decl_column(0x01)
     106                            .dwattr $C$DW$12, DW_AT_TI_max_frame_size(0x18)
     107                            .dwpsn  file "../driverlib/lcd.c",line 112,column 1,is_stmt,address LCDModeSet,isa 1
     108                    
     109                            .dwfde $C$DW$CIE, LCDModeSet
     110                    $C$DW$13        .dwtag  DW_TAG_formal_parameter
TI ARM Assembler Unix v18.1.1 Fri Jul  3 20:08:25 2020

Tools Copyright (c) 1996-2017 Texas Instruments Incorporated
lcd.asm                                                              PAGE    3

     111                            .dwattr $C$DW$13, DW_AT_name("ui32Base")
     112                            .dwattr $C$DW$13, DW_AT_TI_symbol_name("ui32Base")
     113                            .dwattr $C$DW$13, DW_AT_type(*$C$DW$T$25)
     114                            .dwattr $C$DW$13, DW_AT_location[DW_OP_reg0]
     115                    
     116                    $C$DW$14        .dwtag  DW_TAG_formal_parameter
     117                            .dwattr $C$DW$14, DW_AT_name("ui8Mode")
     118                            .dwattr $C$DW$14, DW_AT_TI_symbol_name("ui8Mode")
     119                            .dwattr $C$DW$14, DW_AT_type(*$C$DW$T$22)
     120                            .dwattr $C$DW$14, DW_AT_location[DW_OP_reg1]
     121                    
     122                    $C$DW$15        .dwtag  DW_TAG_formal_parameter
     123                            .dwattr $C$DW$15, DW_AT_name("ui32PixClk")
     124                            .dwattr $C$DW$15, DW_AT_TI_symbol_name("ui32PixClk")
     125                            .dwattr $C$DW$15, DW_AT_type(*$C$DW$T$25)
     126                            .dwattr $C$DW$15, DW_AT_location[DW_OP_reg2]
     127                    
     128                    $C$DW$16        .dwtag  DW_TAG_formal_parameter
     129                            .dwattr $C$DW$16, DW_AT_name("ui32SysClk")
     130                            .dwattr $C$DW$16, DW_AT_TI_symbol_name("ui32SysClk")
     131                            .dwattr $C$DW$16, DW_AT_type(*$C$DW$T$25)
     132                            .dwattr $C$DW$16, DW_AT_location[DW_OP_reg3]
     133                    
     134                    ;----------------------------------------------------------------------
     135                    ; 110 | LCDModeSet(uint32_t ui32Base, uint8_t ui8Mode, uint32_t ui32PixClk,    
     136                    ; 111 | uint32_t ui32SysClk)                                                   
     137                    ;----------------------------------------------------------------------
     138                    
     139                    ;*****************************************************************************
     140                    ;* FUNCTION NAME: LCDModeSet                                                 *
     141                    ;*                                                                           *
     142                    ;*   Regs Modified     : A1,A2,A3,SP,SR                                      *
     143                    ;*   Regs Used         : A1,A2,A3,A4,SP,LR,SR                                *
     144                    ;*   Local Frame Size  : 0 Args + 20 Auto + 0 Save = 20 byte                 *
     145                    ;*****************************************************************************
     146 00000000           LCDModeSet:
     147                    ;* --------------------------------------------------------------------------*
     148                            .dwcfi  cfa_offset, 0
     149 00000000 0D18F1AD          SUB       SP, SP, #24           ; [DPU_V7M3_PIPE]  ; [KEEP 32-BIT INS]
     150                            .dwcfi  cfa_offset, 24
     151                    $C$DW$17        .dwtag  DW_TAG_variable
     152                            .dwattr $C$DW$17, DW_AT_name("ui32Base")
     153                            .dwattr $C$DW$17, DW_AT_TI_symbol_name("ui32Base")
     154                            .dwattr $C$DW$17, DW_AT_type(*$C$DW$T$25)
     155                            .dwattr $C$DW$17, DW_AT_location[DW_OP_breg13 0]
     156                    
     157                    $C$DW$18        .dwtag  DW_TAG_variable
     158                            .dwattr $C$DW$18, DW_AT_name("ui32PixClk")
     159                            .dwattr $C$DW$18, DW_AT_TI_symbol_name("ui32PixClk")
     160                            .dwattr $C$DW$18, DW_AT_type(*$C$DW$T$25)
     161                            .dwattr $C$DW$18, DW_AT_location[DW_OP_breg13 4]
     162                    
     163                    $C$DW$19        .dwtag  DW_TAG_variable
     164                            .dwattr $C$DW$19, DW_AT_name("ui32SysClk")
     165                            .dwattr $C$DW$19, DW_AT_TI_symbol_name("ui32SysClk")
TI ARM Assembler Unix v18.1.1 Fri Jul  3 20:08:25 2020

Tools Copyright (c) 1996-2017 Texas Instruments Incorporated
lcd.asm                                                              PAGE    4

     166                            .dwattr $C$DW$19, DW_AT_type(*$C$DW$T$25)
     167                            .dwattr $C$DW$19, DW_AT_location[DW_OP_breg13 8]
     168                    
     169                    $C$DW$20        .dwtag  DW_TAG_variable
     170                            .dwattr $C$DW$20, DW_AT_name("ui32Div")
     171                            .dwattr $C$DW$20, DW_AT_TI_symbol_name("ui32Div")
     172                            .dwattr $C$DW$20, DW_AT_type(*$C$DW$T$25)
     173                            .dwattr $C$DW$20, DW_AT_location[DW_OP_breg13 12]
     174                    
     175                    $C$DW$21        .dwtag  DW_TAG_variable
     176                            .dwattr $C$DW$21, DW_AT_name("ui8Mode")
     177                            .dwattr $C$DW$21, DW_AT_TI_symbol_name("ui8Mode")
     178                            .dwattr $C$DW$21, DW_AT_type(*$C$DW$T$22)
     179                            .dwattr $C$DW$21, DW_AT_location[DW_OP_breg13 16]
     180                    
     181                    ;----------------------------------------------------------------------
     182                    ; 113 | uint32_t ui32Div;                                                      
     183                    ; 115 | //                                                                     
     184                    ; 116 | // Sanity check parameters.                                            
     185                    ; 117 | //                                                                     
     186                    ; 118 | ASSERT(ui32Base == LCD0_BASE);                                         
     187                    ; 119 | ASSERT((ui8Mode & ~(LCD_MODE_RASTER | LCD_MODE_LIDD |                  
     188                    ; 120 |                     LCD_MODE_AUTO_UFLOW_RESTART)) == 0);               
     189                    ; 122 | //                                                                     
     190                    ; 123 | // Enable clocks to the LCD controller submodules.                     
     191                    ; 124 | //                                                                     
     192                    ;----------------------------------------------------------------------
     193 00000004 9302              STR       A4, [SP, #8]          ; [DPU_V7M3_PIPE] |112|  ; [ORIG 16-BIT INS]
     194 00000006 9201              STR       A3, [SP, #4]          ; [DPU_V7M3_PIPE] |112|  ; [ORIG 16-BIT INS]
     195 00000008 1010F88D          STRB      A2, [SP, #16]         ; [DPU_V7M3_PIPE] |112|  ; [KEEP 32-BIT INS]
     196 0000000c 9000              STR       A1, [SP, #0]          ; [DPU_V7M3_PIPE] |112|  ; [ORIG 16-BIT INS]
     197                            .dwpsn  file "../driverlib/lcd.c",line 125,column 5,is_stmt,isa 1
     198                    ;----------------------------------------------------------------------
     199                    ; 125 | HWREG(ui32Base + LCD_O_CLKEN) = (LCD_CLKEN_DMA | LCD_CLKEN_CORE |      
     200                    ; 126 |                                  LCD_CLKEN_LIDD);                      
     201                    ; 128 | //                                                                     
     202                    ; 129 | // Determine the clock divider to use to get as close as possible to th
     203                    ;     | e                                                                      
     204                    ; 130 | // desired pixel clock.  Note that we set the division up so that we   
     205                    ; 131 | // round the divisor up and ensure that the clock used is never faster 
     206                    ; 132 | // than the requested rate.                                            
     207                    ; 133 | //                                                                     
     208                    ;----------------------------------------------------------------------
     209 0000000e 9800              LDR       A1, [SP, #0]          ; [DPU_V7M3_PIPE] |125|  ; [ORIG 16-BIT INS]
     210 00000010 2107              MOVS      A2, #7                ; [DPU_V7M3_PIPE] |125|  ; [ORIG 16-BIT INS]
     211 00000012 66C1              STR       A2, [A1, #108]        ; [DPU_V7M3_PIPE] |125|  ; [ORIG 16-BIT INS]
     212                            .dwpsn  file "../driverlib/lcd.c",line 134,column 5,is_stmt,isa 1
     213                    ;----------------------------------------------------------------------
     214                    ; 134 | ui32Div = (ui32SysClk + (ui32PixClk - 1)) / ui32PixClk;                
     215                    ; 136 | //                                                                     
     216                    ; 137 | // Check that the calculated value is valid.                           
     217                    ; 138 | //                                                                     
     218                    ; 139 | ASSERT(ui32Div);                                                       
     219                    ; 140 | ASSERT(ui32Div < 256);                                                 
     220                    ; 141 | ASSERT(!((ui8Mode & LCD_MODE_RASTER) && (ui32Div < 2)));               
TI ARM Assembler Unix v18.1.1 Fri Jul  3 20:08:25 2020

Tools Copyright (c) 1996-2017 Texas Instruments Incorporated
lcd.asm                                                              PAGE    5

     221                    ; 143 | //                                                                     
     222                    ; 144 | // Write the LCDCTL register to set the mode.                          
     223                    ; 145 | //                                                                     
     224                    ;----------------------------------------------------------------------
     225 00000014 9901              LDR       A2, [SP, #4]          ; [DPU_V7M3_PIPE] |134|  ; [ORIG 16-BIT INS]
     226 00000016 9802              LDR       A1, [SP, #8]          ; [DPU_V7M3_PIPE] |134|  ; [ORIG 16-BIT INS]
     227 00000018 9A01              LDR       A3, [SP, #4]          ; [DPU_V7M3_PIPE] |134|  ; [ORIG 16-BIT INS]
     228 0000001a 1840              ADDS      A1, A1, A2            ; [DPU_V7M3_PIPE] |134|  ; [ORIG 16-BIT INS]
     229 0000001c 1E40              SUBS      A1, A1, #1            ; [DPU_V7M3_PIPE] |134|  ; [ORIG 16-BIT INS]
     230 0000001e F0F2FBB0          UDIV      A1, A1, A3            ; [DPU_V7M3_PIPE] |134|  ; [KEEP 32-BIT INS]
     231 00000022 9003              STR       A1, [SP, #12]         ; [DPU_V7M3_PIPE] |134|  ; [ORIG 16-BIT INS]
     232                            .dwpsn  file "../driverlib/lcd.c",line 146,column 5,is_stmt,isa 1
     233                    ;----------------------------------------------------------------------
     234                    ; 146 | HWREG(ui32Base + LCD_O_CTL) = (uint32_t)ui8Mode |                      
     235                    ; 147 |                               (ui32Div << LCD_CTL_CLKDIV_S);           
     236                    ; 149 | //                                                                     
     237                    ; 150 | // Return the selected clock rate.  Finding ui32Div set to 0 should not
     238                    ; 151 | // happen unless someone passed pathological arguments and builds witho
     239                    ;     | ut                                                                     
     240                    ; 152 | // the ASSERTS, but we guard against it just in case.                  
     241                    ; 153 | //                                                                     
     242                    ;----------------------------------------------------------------------
     243 00000024 0010F89D          LDRB      A1, [SP, #16]         ; [DPU_V7M3_PIPE] |146|  ; [KEEP 32-BIT INS]
     244 00000028 9A03              LDR       A3, [SP, #12]         ; [DPU_V7M3_PIPE] |146|  ; [ORIG 16-BIT INS]
     245 0000002a 9900              LDR       A2, [SP, #0]          ; [DPU_V7M3_PIPE] |146|  ; [ORIG 16-BIT INS]
     246 0000002c 2002EA40          ORR       A1, A1, A3, LSL #8    ; [DPU_V7M3_PIPE] |146|  ; [KEEP 32-BIT INS]
     247 00000030 6048              STR       A1, [A2, #4]          ; [DPU_V7M3_PIPE] |146|  ; [ORIG 16-BIT INS]
     248                            .dwpsn  file "../driverlib/lcd.c",line 154,column 5,is_stmt,isa 1
     249                    ;----------------------------------------------------------------------
     250                    ; 154 | return(ui32Div ? (ui32SysClk / ui32Div) : ui32SysClk);                 
     251                    ;----------------------------------------------------------------------
     252 00000032 9803              LDR       A1, [SP, #12]         ; [DPU_V7M3_PIPE] |154|  ; [ORIG 16-BIT INS]
     253 00000034 B120              CBZ       A1, ||$C$L1||         ; []  ; [ORIG 16-BIT INS]
     254                            ; BRANCHCC OCCURS {||$C$L1||}    ; [] |154| 
     255                    ;* --------------------------------------------------------------------------*
     256 00000036 9803              LDR       A1, [SP, #12]         ; [DPU_V7M3_PIPE] |154|  ; [ORIG 16-BIT INS]
     257 00000038 9902              LDR       A2, [SP, #8]          ; [DPU_V7M3_PIPE] |154|  ; [ORIG 16-BIT INS]
     258 0000003a F0F0FBB1          UDIV      A1, A2, A1            ; [DPU_V7M3_PIPE] |154|  ; [KEEP 32-BIT INS]
     259 0000003e E000              B         ||$C$L2||             ; [DPU_V7M3_PIPE] |154|  ; [ORIG 16-BIT INS]
     260                            ; BRANCH OCCURS {||$C$L2||}      ; [] |154| 
     261                    ;* --------------------------------------------------------------------------*
     262 00000040           ||$C$L1||:    
     263 00000040 9802              LDR       A1, [SP, #8]          ; [DPU_V7M3_PIPE] |154|  ; [ORIG 16-BIT INS]
     264                    ;* --------------------------------------------------------------------------*
     265 00000042           ||$C$L2||:    
     266                            .dwpsn  file "../driverlib/lcd.c",line 155,column 1,is_stmt,isa 1
     267 00000042 B006              ADD       SP, SP, #24           ; [DPU_V7M3_PIPE]  ; [ORIG 16-BIT INS]
     268                            .dwcfi  cfa_offset, 0
     269                    $C$DW$22        .dwtag  DW_TAG_TI_branch
     270                            .dwattr $C$DW$22, DW_AT_low_pc(0x00)
     271                            .dwattr $C$DW$22, DW_AT_TI_return
     272                    
     273 00000044 4770              BX        LR                    ; [DPU_V7M3_PIPE]  ; [ORIG 16-BIT INS]
     274                            ; BRANCH OCCURS                  ; [] 
     275                            .dwattr $C$DW$12, DW_AT_TI_end_file("../driverlib/lcd.c")
TI ARM Assembler Unix v18.1.1 Fri Jul  3 20:08:25 2020

Tools Copyright (c) 1996-2017 Texas Instruments Incorporated
lcd.asm                                                              PAGE    6

     276                            .dwattr $C$DW$12, DW_AT_TI_end_line(0x9b)
     277                            .dwattr $C$DW$12, DW_AT_TI_end_column(0x01)
     278                            .dwendentry
     279                            .dwendtag $C$DW$12
     280                    
     281 00000046                   .sect   ".text"
     282                            .clink
     283                            .thumbfunc LCDClockReset
     284 00000046                   .thumb
     285                            .global LCDClockReset
     286                    
     287                    $C$DW$23        .dwtag  DW_TAG_subprogram
     288                            .dwattr $C$DW$23, DW_AT_name("LCDClockReset")
     289                            .dwattr $C$DW$23, DW_AT_low_pc(LCDClockReset)
     290                            .dwattr $C$DW$23, DW_AT_high_pc(0x00)
     291                            .dwattr $C$DW$23, DW_AT_TI_symbol_name("LCDClockReset")
     292                            .dwattr $C$DW$23, DW_AT_external
     293                            .dwattr $C$DW$23, DW_AT_TI_begin_file("../driverlib/lcd.c")
     294                            .dwattr $C$DW$23, DW_AT_TI_begin_line(0xb5)
     295                            .dwattr $C$DW$23, DW_AT_TI_begin_column(0x01)
     296                            .dwattr $C$DW$23, DW_AT_decl_file("../driverlib/lcd.c")
     297                            .dwattr $C$DW$23, DW_AT_decl_line(0xb5)
     298                            .dwattr $C$DW$23, DW_AT_decl_column(0x01)
     299                            .dwattr $C$DW$23, DW_AT_TI_max_frame_size(0x10)
     300                            .dwpsn  file "../driverlib/lcd.c",line 182,column 1,is_stmt,address LCDClockReset,isa 1
     301                    
     302                            .dwfde $C$DW$CIE, LCDClockReset
     303                    $C$DW$24        .dwtag  DW_TAG_formal_parameter
     304                            .dwattr $C$DW$24, DW_AT_name("ui32Base")
     305                            .dwattr $C$DW$24, DW_AT_TI_symbol_name("ui32Base")
     306                            .dwattr $C$DW$24, DW_AT_type(*$C$DW$T$25)
     307                            .dwattr $C$DW$24, DW_AT_location[DW_OP_reg0]
     308                    
     309                    $C$DW$25        .dwtag  DW_TAG_formal_parameter
     310                            .dwattr $C$DW$25, DW_AT_name("ui32Clocks")
     311                            .dwattr $C$DW$25, DW_AT_TI_symbol_name("ui32Clocks")
     312                            .dwattr $C$DW$25, DW_AT_type(*$C$DW$T$25)
     313                            .dwattr $C$DW$25, DW_AT_location[DW_OP_reg1]
     314                    
     315                    ;----------------------------------------------------------------------
     316                    ; 181 | LCDClockReset(uint32_t ui32Base, uint32_t ui32Clocks)                  
     317                    ;----------------------------------------------------------------------
     318                    
     319                    ;*****************************************************************************
     320                    ;* FUNCTION NAME: LCDClockReset                                              *
     321                    ;*                                                                           *
     322                    ;*   Regs Modified     : A1,A2,A3,A4,V9,SP,LR,SR,D0,D0_hi,D1,D1_hi,D2,D2_hi, *
     323                    ;*                           D3,D3_hi,D4,D4_hi,D5,D5_hi,D6,D6_hi,D7,D7_hi,   *
     324                    ;*                           FPEXC,FPSCR                                     *
     325                    ;*   Regs Used         : A1,A2,A3,A4,V9,SP,LR,SR,D0,D0_hi,D1,D1_hi,D2,D2_hi, *
     326                    ;*                           D3,D3_hi,D4,D4_hi,D5,D5_hi,D6,D6_hi,D7,D7_hi,   *
     327                    ;*                           FPEXC,FPSCR                                     *
     328                    ;*   Local Frame Size  : 0 Args + 8 Auto + 4 Save = 12 byte                  *
     329                    ;*****************************************************************************
     330 00000046           LCDClockReset:
TI ARM Assembler Unix v18.1.1 Fri Jul  3 20:08:25 2020

Tools Copyright (c) 1996-2017 Texas Instruments Incorporated
lcd.asm                                                              PAGE    7

     331                    ;* --------------------------------------------------------------------------*
     332                            .dwcfi  cfa_offset, 0
     333 00000046 B50E              PUSH      {A2, A3, A4, LR}      ; [DPU_V7M3_PIPE]  ; [ORIG 16-BIT INS]
     334                            .dwcfi  cfa_offset, 16
     335                            .dwcfi  save_reg_to_mem, 14, -4
     336                            .dwcfi  save_reg_to_mem, 3, -8
     337                            .dwcfi  save_reg_to_mem, 2, -12
     338                            .dwcfi  save_reg_to_mem, 1, -16
     339                    $C$DW$26        .dwtag  DW_TAG_variable
     340                            .dwattr $C$DW$26, DW_AT_name("ui32Base")
     341                            .dwattr $C$DW$26, DW_AT_TI_symbol_name("ui32Base")
     342                            .dwattr $C$DW$26, DW_AT_type(*$C$DW$T$25)
     343                            .dwattr $C$DW$26, DW_AT_location[DW_OP_breg13 0]
     344                    
     345                    $C$DW$27        .dwtag  DW_TAG_variable
     346                            .dwattr $C$DW$27, DW_AT_name("ui32Clocks")
     347                            .dwattr $C$DW$27, DW_AT_TI_symbol_name("ui32Clocks")
     348                            .dwattr $C$DW$27, DW_AT_type(*$C$DW$T$25)
     349                            .dwattr $C$DW$27, DW_AT_location[DW_OP_breg13 4]
     350                    
     351                    ;----------------------------------------------------------------------
     352                    ; 183 | //                                                                     
     353                    ; 184 | // Sanity check parameters.                                            
     354                    ; 185 | //                                                                     
     355                    ; 186 | ASSERT(ui32Base == LCD0_BASE);                                         
     356                    ; 187 | ASSERT(!(ui32Clocks & ~(LCD_CLOCK_MAIN | LCD_CLOCK_LIDD | LCD_CLOCK_DMA
     357                    ;     |  |                                                                     
     358                    ; 188 |                         LCD_CLOCK_CORE)));                             
     359                    ; 190 | //                                                                     
     360                    ; 191 | // Reset the required LCD controller sub-module(s).                    
     361                    ; 192 | //                                                                     
     362                    ;----------------------------------------------------------------------
     363 00000048 9101              STR       A2, [SP, #4]          ; [DPU_V7M3_PIPE] |182|  ; [ORIG 16-BIT INS]
     364 0000004a 9000              STR       A1, [SP, #0]          ; [DPU_V7M3_PIPE] |182|  ; [ORIG 16-BIT INS]
     365                            .dwpsn  file "../driverlib/lcd.c",line 193,column 5,is_stmt,isa 1
     366                    ;----------------------------------------------------------------------
     367                    ; 193 | HWREG(LCD0_BASE + 0x70) = ui32Clocks;                                  
     368                    ; 195 | //                                                                     
     369                    ; 196 | // Wait a while.                                                       
     370                    ; 197 | //                                                                     
     371                    ;----------------------------------------------------------------------
     372 0000004c 4985              LDR       A2, $C$CON1           ; [DPU_V7M3_PIPE] |193|  ; [ORIG 16-BIT INS]
     373 0000004e 9801              LDR       A1, [SP, #4]          ; [DPU_V7M3_PIPE] |193|  ; [ORIG 16-BIT INS]
     374 00000050 6008              STR       A1, [A2, #0]          ; [DPU_V7M3_PIPE] |193|  ; [ORIG 16-BIT INS]
     375                            .dwpsn  file "../driverlib/lcd.c",line 198,column 5,is_stmt,isa 1
     376                    ;----------------------------------------------------------------------
     377                    ; 198 | SysCtlDelay(10);                                                       
     378                    ; 200 | //                                                                     
     379                    ; 201 | // Remove software reset.                                              
     380                    ; 202 | //                                                                     
     381                    ;----------------------------------------------------------------------
     382 00000052 200A              MOVS      A1, #10               ; [DPU_V7M3_PIPE] |198|  ; [ORIG 16-BIT INS]
     383                    $C$DW$28        .dwtag  DW_TAG_TI_branch
     384                            .dwattr $C$DW$28, DW_AT_low_pc(0x00)
     385                            .dwattr $C$DW$28, DW_AT_name("SysCtlDelay")
TI ARM Assembler Unix v18.1.1 Fri Jul  3 20:08:25 2020

Tools Copyright (c) 1996-2017 Texas Instruments Incorporated
lcd.asm                                                              PAGE    8

     386                            .dwattr $C$DW$28, DW_AT_TI_call
     387                    
     388 00000054 FFFEF7FF!         BL        SysCtlDelay           ; [DPU_V7M3_PIPE] |198|  ; [KEEP 32-BIT INS]
     389                            ; CALL OCCURS {SysCtlDelay }     ; [] |198| 
     390                            .dwpsn  file "../driverlib/lcd.c",line 203,column 5,is_stmt,isa 1
     391                    ;----------------------------------------------------------------------
     392                    ; 203 | HWREG(LCD0_BASE + 0x70) = 0x00000000;                                  
     393                    ; 205 | //                                                                     
     394                    ; 206 | // Wait a while.                                                       
     395                    ; 207 | //                                                                     
     396                    ;----------------------------------------------------------------------
     397 00000058 4982              LDR       A2, $C$CON1           ; [DPU_V7M3_PIPE] |203|  ; [ORIG 16-BIT INS]
     398 0000005a 2000              MOVS      A1, #0                ; [DPU_V7M3_PIPE] |203|  ; [ORIG 16-BIT INS]
     399 0000005c 6008              STR       A1, [A2, #0]          ; [DPU_V7M3_PIPE] |203|  ; [ORIG 16-BIT INS]
     400                            .dwpsn  file "../driverlib/lcd.c",line 208,column 5,is_stmt,isa 1
     401                    ;----------------------------------------------------------------------
     402                    ; 208 | SysCtlDelay(10);                                                       
     403                    ;----------------------------------------------------------------------
     404 0000005e 200A              MOVS      A1, #10               ; [DPU_V7M3_PIPE] |208|  ; [ORIG 16-BIT INS]
     405                    $C$DW$29        .dwtag  DW_TAG_TI_branch
     406                            .dwattr $C$DW$29, DW_AT_low_pc(0x00)
     407                            .dwattr $C$DW$29, DW_AT_name("SysCtlDelay")
     408                            .dwattr $C$DW$29, DW_AT_TI_call
     409                    
     410 00000060 FFFEF7FF!         BL        SysCtlDelay           ; [DPU_V7M3_PIPE] |208|  ; [KEEP 32-BIT INS]
     411                            ; CALL OCCURS {SysCtlDelay }     ; [] |208| 
     412                            .dwpsn  file "../driverlib/lcd.c",line 209,column 1,is_stmt,isa 1
     413                    $C$DW$30        .dwtag  DW_TAG_TI_branch
     414                            .dwattr $C$DW$30, DW_AT_low_pc(0x00)
     415                            .dwattr $C$DW$30, DW_AT_TI_return
     416                    
     417 00000064 BD0E              POP       {A2, A3, A4, PC}      ; [DPU_V7M3_PIPE]  ; [ORIG 16-BIT INS]
     418                            .dwcfi  cfa_offset, 0
     419                            .dwcfi  restore_reg, 3
     420                            .dwcfi  restore_reg, 2
     421                            .dwcfi  restore_reg, 1
     422                            ; BRANCH OCCURS                  ; [] 
     423                            .dwattr $C$DW$23, DW_AT_TI_end_file("../driverlib/lcd.c")
     424                            .dwattr $C$DW$23, DW_AT_TI_end_line(0xd1)
     425                            .dwattr $C$DW$23, DW_AT_TI_end_column(0x01)
     426                            .dwendentry
     427                            .dwendtag $C$DW$23
     428                    
     429 00000066                   .sect   ".text"
     430                            .clink
     431                            .thumbfunc LCDIDDConfigSet
     432 00000066                   .thumb
     433                            .global LCDIDDConfigSet
     434                    
     435                    $C$DW$31        .dwtag  DW_TAG_subprogram
     436                            .dwattr $C$DW$31, DW_AT_name("LCDIDDConfigSet")
     437                            .dwattr $C$DW$31, DW_AT_low_pc(LCDIDDConfigSet)
     438                            .dwattr $C$DW$31, DW_AT_high_pc(0x00)
     439                            .dwattr $C$DW$31, DW_AT_TI_symbol_name("LCDIDDConfigSet")
     440                            .dwattr $C$DW$31, DW_AT_external
TI ARM Assembler Unix v18.1.1 Fri Jul  3 20:08:25 2020

Tools Copyright (c) 1996-2017 Texas Instruments Incorporated
lcd.asm                                                              PAGE    9

     441                            .dwattr $C$DW$31, DW_AT_TI_begin_file("../driverlib/lcd.c")
     442                            .dwattr $C$DW$31, DW_AT_TI_begin_line(0x102)
     443                            .dwattr $C$DW$31, DW_AT_TI_begin_column(0x01)
     444                            .dwattr $C$DW$31, DW_AT_decl_file("../driverlib/lcd.c")
     445                            .dwattr $C$DW$31, DW_AT_decl_line(0x102)
     446                            .dwattr $C$DW$31, DW_AT_decl_column(0x01)
     447                            .dwattr $C$DW$31, DW_AT_TI_max_frame_size(0x08)
     448                            .dwpsn  file "../driverlib/lcd.c",line 259,column 1,is_stmt,address LCDIDDConfigSet,isa 1
     449                    
     450                            .dwfde $C$DW$CIE, LCDIDDConfigSet
     451                    $C$DW$32        .dwtag  DW_TAG_formal_parameter
     452                            .dwattr $C$DW$32, DW_AT_name("ui32Base")
     453                            .dwattr $C$DW$32, DW_AT_TI_symbol_name("ui32Base")
     454                            .dwattr $C$DW$32, DW_AT_type(*$C$DW$T$25)
     455                            .dwattr $C$DW$32, DW_AT_location[DW_OP_reg0]
     456                    
     457                    $C$DW$33        .dwtag  DW_TAG_formal_parameter
     458                            .dwattr $C$DW$33, DW_AT_name("ui32Config")
     459                            .dwattr $C$DW$33, DW_AT_TI_symbol_name("ui32Config")
     460                            .dwattr $C$DW$33, DW_AT_type(*$C$DW$T$25)
     461                            .dwattr $C$DW$33, DW_AT_location[DW_OP_reg1]
     462                    
     463                    ;----------------------------------------------------------------------
     464                    ; 258 | LCDIDDConfigSet(uint32_t ui32Base, uint32_t ui32Config)                
     465                    ;----------------------------------------------------------------------
     466                    
     467                    ;*****************************************************************************
     468                    ;* FUNCTION NAME: LCDIDDConfigSet                                            *
     469                    ;*                                                                           *
     470                    ;*   Regs Modified     : A1,A2,SP                                            *
     471                    ;*   Regs Used         : A1,A2,SP,LR                                         *
     472                    ;*   Local Frame Size  : 0 Args + 8 Auto + 0 Save = 8 byte                   *
     473                    ;*****************************************************************************
     474 00000066           LCDIDDConfigSet:
     475                    ;* --------------------------------------------------------------------------*
     476                            .dwcfi  cfa_offset, 0
     477 00000066 0D08F1AD          SUB       SP, SP, #8            ; [DPU_V7M3_PIPE]  ; [KEEP 32-BIT INS]
     478                            .dwcfi  cfa_offset, 8
     479                    $C$DW$34        .dwtag  DW_TAG_variable
     480                            .dwattr $C$DW$34, DW_AT_name("ui32Base")
     481                            .dwattr $C$DW$34, DW_AT_TI_symbol_name("ui32Base")
     482                            .dwattr $C$DW$34, DW_AT_type(*$C$DW$T$25)
     483                            .dwattr $C$DW$34, DW_AT_location[DW_OP_breg13 0]
     484                    
     485                    $C$DW$35        .dwtag  DW_TAG_variable
     486                            .dwattr $C$DW$35, DW_AT_name("ui32Config")
     487                            .dwattr $C$DW$35, DW_AT_TI_symbol_name("ui32Config")
     488                            .dwattr $C$DW$35, DW_AT_type(*$C$DW$T$25)
     489                            .dwattr $C$DW$35, DW_AT_location[DW_OP_breg13 4]
     490                    
     491                    ;----------------------------------------------------------------------
     492                    ; 260 | //                                                                     
     493                    ; 261 | // Sanity check parameters.                                            
     494                    ; 262 | //                                                                     
     495                    ; 263 | ASSERT(ui32Base == LCD0_BASE);                                         
TI ARM Assembler Unix v18.1.1 Fri Jul  3 20:08:25 2020

Tools Copyright (c) 1996-2017 Texas Instruments Incorporated
lcd.asm                                                              PAGE   10

     496                    ; 264 | ASSERT(!(ui32Config & ~(LIDD_CONFIG_SYNC_MPU68 | LIDD_CONFIG_ASYNC_MPU6
     497                    ;     | 8 |                                                                    
     498                    ; 265 |                         LIDD_CONFIG_SYNC_MPU80 | LIDD_CONFIG_ASYNC_MPU8
     499                    ;     | 0 |                                                                    
     500                    ; 266 |                         LIDD_CONFIG_ASYNC_HITACHI |                    
     501                    ; 267 |                         LIDD_CONFIG_INVERT_ALE |                       
     502                    ; 268 |                         LIDD_CONFIG_INVERT_RS_EN |                     
     503                    ; 269 |                         LIDD_CONFIG_INVERT_WS_DIR |                    
     504                    ; 270 |                         LIDD_CONFIG_INVERT_CS0 | LIDD_CONFIG_INVERT_CS1
     505                    ;     | )));                                                                   
     506                    ; 272 | //                                                                     
     507                    ; 273 | // Write the LIDD Control Register.                                    
     508                    ; 274 | //                                                                     
     509                    ;----------------------------------------------------------------------
     510 0000006a 9101              STR       A2, [SP, #4]          ; [DPU_V7M3_PIPE] |259|  ; [ORIG 16-BIT INS]
     511 0000006c 9000              STR       A1, [SP, #0]          ; [DPU_V7M3_PIPE] |259|  ; [ORIG 16-BIT INS]
     512                            .dwpsn  file "../driverlib/lcd.c",line 275,column 5,is_stmt,isa 1
     513                    ;----------------------------------------------------------------------
     514                    ; 275 | HWREG(ui32Base + LCD_O_LIDDCTL) = ui32Config;                          
     515                    ;----------------------------------------------------------------------
     516 0000006e 9801              LDR       A1, [SP, #4]          ; [DPU_V7M3_PIPE] |275|  ; [ORIG 16-BIT INS]
     517 00000070 9900              LDR       A2, [SP, #0]          ; [DPU_V7M3_PIPE] |275|  ; [ORIG 16-BIT INS]
     518 00000072 60C8              STR       A1, [A2, #12]         ; [DPU_V7M3_PIPE] |275|  ; [ORIG 16-BIT INS]
     519                            .dwpsn  file "../driverlib/lcd.c",line 276,column 1,is_stmt,isa 1
     520 00000074 B002              ADD       SP, SP, #8            ; [DPU_V7M3_PIPE]  ; [ORIG 16-BIT INS]
     521                            .dwcfi  cfa_offset, 0
     522                    $C$DW$36        .dwtag  DW_TAG_TI_branch
     523                            .dwattr $C$DW$36, DW_AT_low_pc(0x00)
     524                            .dwattr $C$DW$36, DW_AT_TI_return
     525                    
     526 00000076 4770              BX        LR                    ; [DPU_V7M3_PIPE]  ; [ORIG 16-BIT INS]
     527                            ; BRANCH OCCURS                  ; [] 
     528                            .dwattr $C$DW$31, DW_AT_TI_end_file("../driverlib/lcd.c")
     529                            .dwattr $C$DW$31, DW_AT_TI_end_line(0x114)
     530                            .dwattr $C$DW$31, DW_AT_TI_end_column(0x01)
     531                            .dwendentry
     532                            .dwendtag $C$DW$31
     533                    
     534 00000078                   .sect   ".text"
     535                            .clink
     536                            .thumbfunc LCDIDDTimingSet
     537 00000078                   .thumb
     538                            .global LCDIDDTimingSet
     539                    
     540                    $C$DW$37        .dwtag  DW_TAG_subprogram
     541                            .dwattr $C$DW$37, DW_AT_name("LCDIDDTimingSet")
     542                            .dwattr $C$DW$37, DW_AT_low_pc(LCDIDDTimingSet)
     543                            .dwattr $C$DW$37, DW_AT_high_pc(0x00)
     544                            .dwattr $C$DW$37, DW_AT_TI_symbol_name("LCDIDDTimingSet")
     545                            .dwattr $C$DW$37, DW_AT_external
     546                            .dwattr $C$DW$37, DW_AT_TI_begin_file("../driverlib/lcd.c")
     547                            .dwattr $C$DW$37, DW_AT_TI_begin_line(0x12d)
     548                            .dwattr $C$DW$37, DW_AT_TI_begin_column(0x01)
     549                            .dwattr $C$DW$37, DW_AT_decl_file("../driverlib/lcd.c")
     550                            .dwattr $C$DW$37, DW_AT_decl_line(0x12d)
TI ARM Assembler Unix v18.1.1 Fri Jul  3 20:08:25 2020

Tools Copyright (c) 1996-2017 Texas Instruments Incorporated
lcd.asm                                                              PAGE   11

     551                            .dwattr $C$DW$37, DW_AT_decl_column(0x01)
     552                            .dwattr $C$DW$37, DW_AT_TI_max_frame_size(0x20)
     553                            .dwpsn  file "../driverlib/lcd.c",line 303,column 1,is_stmt,address LCDIDDTimingSet,isa 1
     554                    
     555                            .dwfde $C$DW$CIE, LCDIDDTimingSet
     556                    $C$DW$38        .dwtag  DW_TAG_formal_parameter
     557                            .dwattr $C$DW$38, DW_AT_name("ui32Base")
     558                            .dwattr $C$DW$38, DW_AT_TI_symbol_name("ui32Base")
     559                            .dwattr $C$DW$38, DW_AT_type(*$C$DW$T$25)
     560                            .dwattr $C$DW$38, DW_AT_location[DW_OP_reg0]
     561                    
     562                    $C$DW$39        .dwtag  DW_TAG_formal_parameter
     563                            .dwattr $C$DW$39, DW_AT_name("ui32CS")
     564                            .dwattr $C$DW$39, DW_AT_TI_symbol_name("ui32CS")
     565                            .dwattr $C$DW$39, DW_AT_type(*$C$DW$T$25)
     566                            .dwattr $C$DW$39, DW_AT_location[DW_OP_reg1]
     567                    
     568                    $C$DW$40        .dwtag  DW_TAG_formal_parameter
     569                            .dwattr $C$DW$40, DW_AT_name("pTiming")
     570                            .dwattr $C$DW$40, DW_AT_TI_symbol_name("pTiming")
     571                            .dwattr $C$DW$40, DW_AT_type(*$C$DW$T$33)
     572                            .dwattr $C$DW$40, DW_AT_location[DW_OP_reg2]
     573                    
     574                    ;----------------------------------------------------------------------
     575                    ; 301 | LCDIDDTimingSet(uint32_t ui32Base, uint32_t ui32CS,                    
     576                    ; 302 | const tLCDIDDTiming *pTiming)                                          
     577                    ;----------------------------------------------------------------------
     578                    
     579                    ;*****************************************************************************
     580                    ;* FUNCTION NAME: LCDIDDTimingSet                                            *
     581                    ;*                                                                           *
     582                    ;*   Regs Modified     : A1,A2,A3,A4,V1,V2,V3,SP,SR                          *
     583                    ;*   Regs Used         : A1,A2,A3,A4,V1,V2,V3,SP,LR,SR                       *
     584                    ;*   Local Frame Size  : 0 Args + 16 Auto + 16 Save = 32 byte                *
     585                    ;*****************************************************************************
     586 00000078           LCDIDDTimingSet:
     587                    ;* --------------------------------------------------------------------------*
     588                            .dwcfi  cfa_offset, 0
     589 00000078 B57F              PUSH      {A1, A2, A3, A4, V1, V2, V3, LR} ; [DPU_V7M3_PIPE]  ; [ORIG 16-BIT INS]
     590                            .dwcfi  cfa_offset, 32
     591                            .dwcfi  save_reg_to_mem, 14, -4
     592                            .dwcfi  save_reg_to_mem, 6, -8
     593                            .dwcfi  save_reg_to_mem, 5, -12
     594                            .dwcfi  save_reg_to_mem, 4, -16
     595                            .dwcfi  save_reg_to_mem, 3, -20
     596                            .dwcfi  save_reg_to_mem, 2, -24
     597                            .dwcfi  save_reg_to_mem, 1, -28
     598                            .dwcfi  save_reg_to_mem, 0, -32
     599                    $C$DW$41        .dwtag  DW_TAG_variable
     600                            .dwattr $C$DW$41, DW_AT_name("ui32Base")
     601                            .dwattr $C$DW$41, DW_AT_TI_symbol_name("ui32Base")
     602                            .dwattr $C$DW$41, DW_AT_type(*$C$DW$T$25)
     603                            .dwattr $C$DW$41, DW_AT_location[DW_OP_breg13 0]
     604                    
     605                    $C$DW$42        .dwtag  DW_TAG_variable
TI ARM Assembler Unix v18.1.1 Fri Jul  3 20:08:25 2020

Tools Copyright (c) 1996-2017 Texas Instruments Incorporated
lcd.asm                                                              PAGE   12

     606                            .dwattr $C$DW$42, DW_AT_name("ui32CS")
     607                            .dwattr $C$DW$42, DW_AT_TI_symbol_name("ui32CS")
     608                            .dwattr $C$DW$42, DW_AT_type(*$C$DW$T$25)
     609                            .dwattr $C$DW$42, DW_AT_location[DW_OP_breg13 4]
     610                    
     611                    $C$DW$43        .dwtag  DW_TAG_variable
     612                            .dwattr $C$DW$43, DW_AT_name("pTiming")
     613                            .dwattr $C$DW$43, DW_AT_TI_symbol_name("pTiming")
     614                            .dwattr $C$DW$43, DW_AT_type(*$C$DW$T$33)
     615                            .dwattr $C$DW$43, DW_AT_location[DW_OP_breg13 8]
     616                    
     617                    $C$DW$44        .dwtag  DW_TAG_variable
     618                            .dwattr $C$DW$44, DW_AT_name("ui32Val")
     619                            .dwattr $C$DW$44, DW_AT_TI_symbol_name("ui32Val")
     620                            .dwattr $C$DW$44, DW_AT_type(*$C$DW$T$25)
     621                            .dwattr $C$DW$44, DW_AT_location[DW_OP_breg13 12]
     622                    
     623                    ;----------------------------------------------------------------------
     624                    ; 304 | uint32_t ui32Val;                                                      
     625                    ; 306 | //                                                                     
     626                    ; 307 | // Sanity check parameters.                                            
     627                    ; 308 | //                                                                     
     628                    ; 309 | ASSERT(ui32Base == LCD0_BASE);                                         
     629                    ; 310 | ASSERT((ui32CS == 0) || (ui32CS == 1));                                
     630                    ; 311 | ASSERT(pTiming);                                                       
     631                    ; 312 | ASSERT(pTiming->ui8WSSetup < 32);                                      
     632                    ; 313 | ASSERT(pTiming->ui8WSDuration && (pTiming->ui8WSDuration < 64));       
     633                    ; 314 | ASSERT(pTiming->ui8WSHold && (pTiming->ui8WSHold < 16));               
     634                    ; 315 | ASSERT(pTiming->ui8RSSetup < 32);                                      
     635                    ; 316 | ASSERT(pTiming->ui8RSDuration && (pTiming->ui8RSDuration < 64));       
     636                    ; 317 | ASSERT(pTiming->ui8RSHold && (pTiming->ui8RSHold < 16));               
     637                    ; 318 | ASSERT(pTiming->ui8DelayCycles && (pTiming->ui8DelayCycles < 5));      
     638                    ; 320 | //                                                                     
     639                    ; 321 | // Convert the timings provided into a value ready for the register.   
     640                    ; 322 | //                                                                     
     641                    ;----------------------------------------------------------------------
     642 0000007a 9202              STR       A3, [SP, #8]          ; [DPU_V7M3_PIPE] |303|  ; [ORIG 16-BIT INS]
     643 0000007c 9101              STR       A2, [SP, #4]          ; [DPU_V7M3_PIPE] |303|  ; [ORIG 16-BIT INS]
     644 0000007e 9000              STR       A1, [SP, #0]          ; [DPU_V7M3_PIPE] |303|  ; [ORIG 16-BIT INS]
     645                            .dwpsn  file "../driverlib/lcd.c",line 323,column 5,is_stmt,isa 1
     646                    ;----------------------------------------------------------------------
     647                    ; 323 | ui32Val =                                                              
     648                    ; 324 |     (((uint32_t)(pTiming->ui8WSSetup) << LCD_LIDDCS0CFG_WRSU_S) |      
     649                    ; 325 |      ((uint32_t)(pTiming->ui8WSDuration) << LCD_LIDDCS0CFG_WRDUR_S) |  
     650                    ; 326 |      ((uint32_t)(pTiming->ui8WSHold) << LCD_LIDDCS0CFG_WRHOLD_S) |     
     651                    ; 327 |      ((uint32_t)(pTiming->ui8RSSetup) << LCD_LIDDCS0CFG_RDSU_S) |      
     652                    ; 328 |      ((uint32_t)(pTiming->ui8RSDuration) << LCD_LIDDCS0CFG_RDDUR_S) |  
     653                    ; 329 |      ((uint32_t)(pTiming->ui8RSHold) << LCD_LIDDCS0CFG_RDHOLD_S) |     
     654                    ; 330 |      ((uint32_t)(pTiming->ui8DelayCycles - 1) << LCD_LIDDCS0CFG_GAP_S))
     655                    ;     | ;                                                                      
     656                    ; 332 | //                                                                     
     657                    ; 333 | // Write the appropriate LCD LIDD CS configuration register.           
     658                    ; 334 | //                                                                     
     659                    ;----------------------------------------------------------------------
     660 00000080 9802              LDR       A1, [SP, #8]          ; [DPU_V7M3_PIPE] |323|  ; [ORIG 16-BIT INS]
TI ARM Assembler Unix v18.1.1 Fri Jul  3 20:08:25 2020

Tools Copyright (c) 1996-2017 Texas Instruments Incorporated
lcd.asm                                                              PAGE   13

     661 00000082 9E02              LDR       V3, [SP, #8]          ; [DPU_V7M3_PIPE] |323|  ; [ORIG 16-BIT INS]
     662 00000084 9D02              LDR       V2, [SP, #8]          ; [DPU_V7M3_PIPE] |323|  ; [ORIG 16-BIT INS]
     663 00000086 9902              LDR       A2, [SP, #8]          ; [DPU_V7M3_PIPE] |323|  ; [ORIG 16-BIT INS]
     664 00000088 9C02              LDR       V1, [SP, #8]          ; [DPU_V7M3_PIPE] |323|  ; [ORIG 16-BIT INS]
     665 0000008a 9B02              LDR       A4, [SP, #8]          ; [DPU_V7M3_PIPE] |323|  ; [ORIG 16-BIT INS]
     666 0000008c 9A02              LDR       A3, [SP, #8]          ; [DPU_V7M3_PIPE] |323|  ; [ORIG 16-BIT INS]
     667 0000008e 7800              LDRB      A1, [A1, #0]          ; [DPU_V7M3_PIPE] |323|  ; [ORIG 16-BIT INS]
     668 00000090 7876              LDRB      V3, [V3, #1]          ; [DPU_V7M3_PIPE] |323|  ; [ORIG 16-BIT INS]
     669 00000092 7989              LDRB      A2, [A2, #6]          ; [DPU_V7M3_PIPE] |323|  ; [ORIG 16-BIT INS]
     670 00000094 78AD              LDRB      V2, [V2, #2]          ; [DPU_V7M3_PIPE] |323|  ; [ORIG 16-BIT INS]
     671 00000096 78E4              LDRB      V1, [V1, #3]          ; [DPU_V7M3_PIPE] |323|  ; [ORIG 16-BIT INS]
     672 00000098 791B              LDRB      A4, [A4, #4]          ; [DPU_V7M3_PIPE] |323|  ; [ORIG 16-BIT INS]
     673 0000009a 7952              LDRB      A3, [A3, #5]          ; [DPU_V7M3_PIPE] |323|  ; [ORIG 16-BIT INS]
     674 0000009c 06C0              LSLS      A1, A1, #27           ; [DPU_V7M3_PIPE] |323|  ; [ORIG 16-BIT INS]
     675 0000009e 1E49              SUBS      A2, A2, #1            ; [DPU_V7M3_PIPE] |323|  ; [ORIG 16-BIT INS]
     676 000000a0 5046EA40          ORR       A1, A1, V3, LSL #21   ; [DPU_V7M3_PIPE] |323|  ; [KEEP 32-BIT INS]
     677 000000a4 4045EA40          ORR       A1, A1, V2, LSL #17   ; [DPU_V7M3_PIPE] |323|  ; [KEEP 32-BIT INS]
     678 000000a8 3004EA40          ORR       A1, A1, V1, LSL #12   ; [DPU_V7M3_PIPE] |323|  ; [KEEP 32-BIT INS]
     679 000000ac 1083EA40          ORR       A1, A1, A4, LSL #6    ; [DPU_V7M3_PIPE] |323|  ; [KEEP 32-BIT INS]
     680 000000b0 0082EA40          ORR       A1, A1, A3, LSL #2    ; [DPU_V7M3_PIPE] |323|  ; [KEEP 32-BIT INS]
     681 000000b4 4301              ORRS      A2, A2, A1            ; [DPU_V7M3_PIPE] |323|  ; [ORIG 16-BIT INS]
     682 000000b6 9103              STR       A2, [SP, #12]         ; [DPU_V7M3_PIPE] |323|  ; [ORIG 16-BIT INS]
     683                            .dwpsn  file "../driverlib/lcd.c",line 335,column 5,is_stmt,isa 1
     684                    ;----------------------------------------------------------------------
     685                    ; 335 | if(!ui32CS)                                                            
     686                    ;----------------------------------------------------------------------
     687 000000b8 9801              LDR       A1, [SP, #4]          ; [DPU_V7M3_PIPE] |335|  ; [ORIG 16-BIT INS]
     688 000000ba B918              CBNZ      A1, ||$C$L3||         ; []  ; [ORIG 16-BIT INS]
     689                            ; BRANCHCC OCCURS {||$C$L3||}    ; [] |335| 
     690                    ;* --------------------------------------------------------------------------*
     691                            .dwpsn  file "../driverlib/lcd.c",line 337,column 9,is_stmt,isa 1
     692                    ;----------------------------------------------------------------------
     693                    ; 337 | HWREG(ui32Base + LCD_O_LIDDCS0CFG) = ui32Val;                          
     694                    ;----------------------------------------------------------------------
     695 000000bc 9803              LDR       A1, [SP, #12]         ; [DPU_V7M3_PIPE] |337|  ; [ORIG 16-BIT INS]
     696 000000be 9900              LDR       A2, [SP, #0]          ; [DPU_V7M3_PIPE] |337|  ; [ORIG 16-BIT INS]
     697 000000c0 6108              STR       A1, [A2, #16]         ; [DPU_V7M3_PIPE] |337|  ; [ORIG 16-BIT INS]
     698                            .dwpsn  file "../driverlib/lcd.c",line 338,column 5,is_stmt,isa 1
     699                    ;----------------------------------------------------------------------
     700                    ; 339 | else                                                                   
     701                    ;----------------------------------------------------------------------
     702 000000c2 E002              B         ||$C$L4||             ; [DPU_V7M3_PIPE] |338|  ; [ORIG 16-BIT INS]
     703                            ; BRANCH OCCURS {||$C$L4||}      ; [] |338| 
     704                    ;* --------------------------------------------------------------------------*
     705 000000c4           ||$C$L3||:    
     706                            .dwpsn  file "../driverlib/lcd.c",line 341,column 9,is_stmt,isa 1
     707                    ;----------------------------------------------------------------------
     708                    ; 341 | HWREG(ui32Base + LCD_O_LIDDCS1CFG) = ui32Val;                          
     709                    ;----------------------------------------------------------------------
     710 000000c4 9803              LDR       A1, [SP, #12]         ; [DPU_V7M3_PIPE] |341|  ; [ORIG 16-BIT INS]
     711 000000c6 9900              LDR       A2, [SP, #0]          ; [DPU_V7M3_PIPE] |341|  ; [ORIG 16-BIT INS]
     712 000000c8 61C8              STR       A1, [A2, #28]         ; [DPU_V7M3_PIPE] |341|  ; [ORIG 16-BIT INS]
     713                            .dwpsn  file "../driverlib/lcd.c",line 343,column 1,is_stmt,isa 1
     714                    ;* --------------------------------------------------------------------------*
     715 000000ca           ||$C$L4||:    
TI ARM Assembler Unix v18.1.1 Fri Jul  3 20:08:25 2020

Tools Copyright (c) 1996-2017 Texas Instruments Incorporated
lcd.asm                                                              PAGE   14

     716 000000ca 9000              STR       A1, [SP, #0]          ; [DPU_V7M3_PIPE]  ; [ORIG 16-BIT INS]
     717                    $C$DW$45        .dwtag  DW_TAG_TI_branch
     718                            .dwattr $C$DW$45, DW_AT_low_pc(0x00)
     719                            .dwattr $C$DW$45, DW_AT_TI_return
     720                    
     721 000000cc BD7F              POP       {A1, A2, A3, A4, V1, V2, V3, PC} ; [DPU_V7M3_PIPE]  ; [ORIG 16-BIT INS]
     722                            .dwcfi  cfa_offset, 0
     723                            .dwcfi  restore_reg, 6
     724                            .dwcfi  restore_reg, 5
     725                            .dwcfi  restore_reg, 4
     726                            .dwcfi  restore_reg, 3
     727                            .dwcfi  restore_reg, 2
     728                            .dwcfi  restore_reg, 1
     729                            .dwcfi  restore_reg, 0
     730                            ; BRANCH OCCURS                  ; [] 
     731                            .dwattr $C$DW$37, DW_AT_TI_end_file("../driverlib/lcd.c")
     732                            .dwattr $C$DW$37, DW_AT_TI_end_line(0x157)
     733                            .dwattr $C$DW$37, DW_AT_TI_end_column(0x01)
     734                            .dwendentry
     735                            .dwendtag $C$DW$37
     736                    
     737 000000ce                   .sect   ".text"
     738                            .clink
     739                            .thumbfunc LCDIDDDMADisable
     740 000000ce                   .thumb
     741                            .global LCDIDDDMADisable
     742                    
     743                    $C$DW$46        .dwtag  DW_TAG_subprogram
     744                            .dwattr $C$DW$46, DW_AT_name("LCDIDDDMADisable")
     745                            .dwattr $C$DW$46, DW_AT_low_pc(LCDIDDDMADisable)
     746                            .dwattr $C$DW$46, DW_AT_high_pc(0x00)
     747                            .dwattr $C$DW$46, DW_AT_TI_symbol_name("LCDIDDDMADisable")
     748                            .dwattr $C$DW$46, DW_AT_external
     749                            .dwattr $C$DW$46, DW_AT_TI_begin_file("../driverlib/lcd.c")
     750                            .dwattr $C$DW$46, DW_AT_TI_begin_line(0x16c)
     751                            .dwattr $C$DW$46, DW_AT_TI_begin_column(0x01)
     752                            .dwattr $C$DW$46, DW_AT_decl_file("../driverlib/lcd.c")
     753                            .dwattr $C$DW$46, DW_AT_decl_line(0x16c)
     754                            .dwattr $C$DW$46, DW_AT_decl_column(0x01)
     755                            .dwattr $C$DW$46, DW_AT_TI_max_frame_size(0x08)
     756                            .dwpsn  file "../driverlib/lcd.c",line 365,column 1,is_stmt,address LCDIDDDMADisable,isa 1
     757                    
     758                            .dwfde $C$DW$CIE, LCDIDDDMADisable
     759                    $C$DW$47        .dwtag  DW_TAG_formal_parameter
     760                            .dwattr $C$DW$47, DW_AT_name("ui32Base")
     761                            .dwattr $C$DW$47, DW_AT_TI_symbol_name("ui32Base")
     762                            .dwattr $C$DW$47, DW_AT_type(*$C$DW$T$25)
     763                            .dwattr $C$DW$47, DW_AT_location[DW_OP_reg0]
     764                    
     765                    ;----------------------------------------------------------------------
     766                    ; 364 | LCDIDDDMADisable(uint32_t ui32Base)                                    
     767                    ;----------------------------------------------------------------------
     768                    
     769                    ;*****************************************************************************
     770                    ;* FUNCTION NAME: LCDIDDDMADisable                                           *
TI ARM Assembler Unix v18.1.1 Fri Jul  3 20:08:25 2020

Tools Copyright (c) 1996-2017 Texas Instruments Incorporated
lcd.asm                                                              PAGE   15

     771                    ;*                                                                           *
     772                    ;*   Regs Modified     : A1,A2,SP,SR                                         *
     773                    ;*   Regs Used         : A1,A2,SP,LR,SR                                      *
     774                    ;*   Local Frame Size  : 0 Args + 4 Auto + 0 Save = 4 byte                   *
     775                    ;*****************************************************************************
     776 000000ce           LCDIDDDMADisable:
     777                    ;* --------------------------------------------------------------------------*
     778                            .dwcfi  cfa_offset, 0
     779 000000ce 0D08F1AD          SUB       SP, SP, #8            ; [DPU_V7M3_PIPE]  ; [KEEP 32-BIT INS]
     780                            .dwcfi  cfa_offset, 8
     781                    $C$DW$48        .dwtag  DW_TAG_variable
     782                            .dwattr $C$DW$48, DW_AT_name("ui32Base")
     783                            .dwattr $C$DW$48, DW_AT_TI_symbol_name("ui32Base")
     784                            .dwattr $C$DW$48, DW_AT_type(*$C$DW$T$25)
     785                            .dwattr $C$DW$48, DW_AT_location[DW_OP_breg13 0]
     786                    
     787                    ;----------------------------------------------------------------------
     788                    ; 366 | //                                                                     
     789                    ; 367 | // Sanity check parameters.                                            
     790                    ; 368 | //                                                                     
     791                    ; 369 | ASSERT(ui32Base == LCD0_BASE);                                         
     792                    ; 371 | //                                                                     
     793                    ; 372 | // Disable DMA.                                                        
     794                    ; 373 | //                                                                     
     795                    ;----------------------------------------------------------------------
     796 000000d2 9000              STR       A1, [SP, #0]          ; [DPU_V7M3_PIPE] |365|  ; [ORIG 16-BIT INS]
     797                            .dwpsn  file "../driverlib/lcd.c",line 374,column 5,is_stmt,isa 1
     798                    ;----------------------------------------------------------------------
     799                    ; 374 | HWREG(ui32Base + LCD_O_LIDDCTL) &= ~LCD_LIDDCTL_DMAEN;                 
     800                    ;----------------------------------------------------------------------
     801 000000d4 9800              LDR       A1, [SP, #0]          ; [DPU_V7M3_PIPE] |374|  ; [ORIG 16-BIT INS]
     802 000000d6 300C              ADDS      A1, A1, #12           ; [DPU_V7M3_PIPE] |374|  ; [ORIG 16-BIT INS]
     803 000000d8 6801              LDR       A2, [A1, #0]          ; [DPU_V7M3_PIPE] |374|  ; [ORIG 16-BIT INS]
     804 000000da 7180F421          BIC       A2, A2, #256          ; [DPU_V7M3_PIPE] |374|  ; [KEEP 32-BIT INS]
     805 000000de 6001              STR       A2, [A1, #0]          ; [DPU_V7M3_PIPE] |374|  ; [ORIG 16-BIT INS]
     806                            .dwpsn  file "../driverlib/lcd.c",line 375,column 1,is_stmt,isa 1
     807 000000e0 B002              ADD       SP, SP, #8            ; [DPU_V7M3_PIPE]  ; [ORIG 16-BIT INS]
     808                            .dwcfi  cfa_offset, 0
     809                    $C$DW$49        .dwtag  DW_TAG_TI_branch
     810                            .dwattr $C$DW$49, DW_AT_low_pc(0x00)
     811                            .dwattr $C$DW$49, DW_AT_TI_return
     812                    
     813 000000e2 4770              BX        LR                    ; [DPU_V7M3_PIPE]  ; [ORIG 16-BIT INS]
     814                            ; BRANCH OCCURS                  ; [] 
     815                            .dwattr $C$DW$46, DW_AT_TI_end_file("../driverlib/lcd.c")
     816                            .dwattr $C$DW$46, DW_AT_TI_end_line(0x177)
     817                            .dwattr $C$DW$46, DW_AT_TI_end_column(0x01)
     818                            .dwendentry
     819                            .dwendtag $C$DW$46
     820                    
     821 000000e4                   .sect   ".text"
     822                            .clink
     823                            .thumbfunc LCDIDDCommandWrite
     824 000000e4                   .thumb
     825                            .global LCDIDDCommandWrite
TI ARM Assembler Unix v18.1.1 Fri Jul  3 20:08:25 2020

Tools Copyright (c) 1996-2017 Texas Instruments Incorporated
lcd.asm                                                              PAGE   16

     826                    
     827                    $C$DW$50        .dwtag  DW_TAG_subprogram
     828                            .dwattr $C$DW$50, DW_AT_name("LCDIDDCommandWrite")
     829                            .dwattr $C$DW$50, DW_AT_low_pc(LCDIDDCommandWrite)
     830                            .dwattr $C$DW$50, DW_AT_high_pc(0x00)
     831                            .dwattr $C$DW$50, DW_AT_TI_symbol_name("LCDIDDCommandWrite")
     832                            .dwattr $C$DW$50, DW_AT_external
     833                            .dwattr $C$DW$50, DW_AT_TI_begin_file("../driverlib/lcd.c")
     834                            .dwattr $C$DW$50, DW_AT_TI_begin_line(0x191)
     835                            .dwattr $C$DW$50, DW_AT_TI_begin_column(0x01)
     836                            .dwattr $C$DW$50, DW_AT_decl_file("../driverlib/lcd.c")
     837                            .dwattr $C$DW$50, DW_AT_decl_line(0x191)
     838                            .dwattr $C$DW$50, DW_AT_decl_column(0x01)
     839                            .dwattr $C$DW$50, DW_AT_TI_max_frame_size(0x10)
     840                            .dwpsn  file "../driverlib/lcd.c",line 402,column 1,is_stmt,address LCDIDDCommandWrite,isa 1
     841                    
     842                            .dwfde $C$DW$CIE, LCDIDDCommandWrite
     843                    $C$DW$51        .dwtag  DW_TAG_formal_parameter
     844                            .dwattr $C$DW$51, DW_AT_name("ui32Base")
     845                            .dwattr $C$DW$51, DW_AT_TI_symbol_name("ui32Base")
     846                            .dwattr $C$DW$51, DW_AT_type(*$C$DW$T$25)
     847                            .dwattr $C$DW$51, DW_AT_location[DW_OP_reg0]
     848                    
     849                    $C$DW$52        .dwtag  DW_TAG_formal_parameter
     850                            .dwattr $C$DW$52, DW_AT_name("ui32CS")
     851                            .dwattr $C$DW$52, DW_AT_TI_symbol_name("ui32CS")
     852                            .dwattr $C$DW$52, DW_AT_type(*$C$DW$T$25)
     853                            .dwattr $C$DW$52, DW_AT_location[DW_OP_reg1]
     854                    
     855                    $C$DW$53        .dwtag  DW_TAG_formal_parameter
     856                            .dwattr $C$DW$53, DW_AT_name("ui16Cmd")
     857                            .dwattr $C$DW$53, DW_AT_TI_symbol_name("ui16Cmd")
     858                            .dwattr $C$DW$53, DW_AT_type(*$C$DW$T$27)
     859                            .dwattr $C$DW$53, DW_AT_location[DW_OP_reg2]
     860                    
     861                    ;----------------------------------------------------------------------
     862                    ; 401 | LCDIDDCommandWrite(uint32_t ui32Base, uint32_t ui32CS, uint16_t ui16Cmd
     863                    ;     | )                                                                      
     864                    ;----------------------------------------------------------------------
     865                    
     866                    ;*****************************************************************************
     867                    ;* FUNCTION NAME: LCDIDDCommandWrite                                         *
     868                    ;*                                                                           *
     869                    ;*   Regs Modified     : A1,A2,A3,SP,SR                                      *
     870                    ;*   Regs Used         : A1,A2,A3,SP,LR,SR                                   *
     871                    ;*   Local Frame Size  : 0 Args + 16 Auto + 0 Save = 16 byte                 *
     872                    ;*****************************************************************************
     873 000000e4           LCDIDDCommandWrite:
     874                    ;* --------------------------------------------------------------------------*
     875                            .dwcfi  cfa_offset, 0
     876 000000e4 0D10F1AD          SUB       SP, SP, #16           ; [DPU_V7M3_PIPE]  ; [KEEP 32-BIT INS]
     877                            .dwcfi  cfa_offset, 16
     878                    $C$DW$54        .dwtag  DW_TAG_variable
     879                            .dwattr $C$DW$54, DW_AT_name("ui32Base")
     880                            .dwattr $C$DW$54, DW_AT_TI_symbol_name("ui32Base")
TI ARM Assembler Unix v18.1.1 Fri Jul  3 20:08:25 2020

Tools Copyright (c) 1996-2017 Texas Instruments Incorporated
lcd.asm                                                              PAGE   17

     881                            .dwattr $C$DW$54, DW_AT_type(*$C$DW$T$25)
     882                            .dwattr $C$DW$54, DW_AT_location[DW_OP_breg13 0]
     883                    
     884                    $C$DW$55        .dwtag  DW_TAG_variable
     885                            .dwattr $C$DW$55, DW_AT_name("ui32CS")
     886                            .dwattr $C$DW$55, DW_AT_TI_symbol_name("ui32CS")
     887                            .dwattr $C$DW$55, DW_AT_type(*$C$DW$T$25)
     888                            .dwattr $C$DW$55, DW_AT_location[DW_OP_breg13 4]
     889                    
     890                    $C$DW$56        .dwtag  DW_TAG_variable
     891                            .dwattr $C$DW$56, DW_AT_name("ui32Reg")
     892                            .dwattr $C$DW$56, DW_AT_TI_symbol_name("ui32Reg")
     893                            .dwattr $C$DW$56, DW_AT_type(*$C$DW$T$25)
     894                            .dwattr $C$DW$56, DW_AT_location[DW_OP_breg13 8]
     895                    
     896                    $C$DW$57        .dwtag  DW_TAG_variable
     897                            .dwattr $C$DW$57, DW_AT_name("ui16Cmd")
     898                            .dwattr $C$DW$57, DW_AT_TI_symbol_name("ui16Cmd")
     899                            .dwattr $C$DW$57, DW_AT_type(*$C$DW$T$27)
     900                            .dwattr $C$DW$57, DW_AT_location[DW_OP_breg13 12]
     901                    
     902                    ;----------------------------------------------------------------------
     903                    ; 403 | uint32_t ui32Reg;                                                      
     904                    ; 405 | //                                                                     
     905                    ; 406 | // Sanity check parameters.                                            
     906                    ; 407 | //                                                                     
     907                    ; 408 | ASSERT(ui32Base == LCD0_BASE);                                         
     908                    ; 409 | ASSERT((ui32CS == 0) || (ui32CS == 1));                                
     909                    ; 411 | //                                                                     
     910                    ; 412 | // Determine the register to write based on the CS value supplied.     
     911                    ; 413 | //                                                                     
     912                    ;----------------------------------------------------------------------
     913 000000e8 200CF8AD          STRH      A3, [SP, #12]         ; [DPU_V7M3_PIPE] |402|  ; [KEEP 32-BIT INS]
     914 000000ec 9101              STR       A2, [SP, #4]          ; [DPU_V7M3_PIPE] |402|  ; [ORIG 16-BIT INS]
     915 000000ee 9000              STR       A1, [SP, #0]          ; [DPU_V7M3_PIPE] |402|  ; [ORIG 16-BIT INS]
     916                            .dwpsn  file "../driverlib/lcd.c",line 414,column 5,is_stmt,isa 1
     917                    ;----------------------------------------------------------------------
     918                    ; 414 | ui32Reg = ui32CS ? LCD_O_LIDDCS1ADDR : LCD_O_LIDDCS0ADDR;              
     919                    ; 416 | //                                                                     
     920                    ; 417 | // Write the command/address to the register.                          
     921                    ; 418 | //                                                                     
     922                    ;----------------------------------------------------------------------
     923 000000f0 9801              LDR       A1, [SP, #4]          ; [DPU_V7M3_PIPE] |414|  ; [ORIG 16-BIT INS]
     924 000000f2 B108              CBZ       A1, ||$C$L5||         ; []  ; [ORIG 16-BIT INS]
     925                            ; BRANCHCC OCCURS {||$C$L5||}    ; [] |414| 
     926                    ;* --------------------------------------------------------------------------*
     927 000000f4 2020              MOVS      A1, #32               ; [DPU_V7M3_PIPE] |414|  ; [ORIG 16-BIT INS]
     928 000000f6 E000              B         ||$C$L6||             ; [DPU_V7M3_PIPE] |414|  ; [ORIG 16-BIT INS]
     929                            ; BRANCH OCCURS {||$C$L6||}      ; [] |414| 
     930                    ;* --------------------------------------------------------------------------*
     931 000000f8           ||$C$L5||:    
     932 000000f8 2014              MOVS      A1, #20               ; [DPU_V7M3_PIPE] |414|  ; [ORIG 16-BIT INS]
     933                    ;* --------------------------------------------------------------------------*
     934 000000fa           ||$C$L6||:    
     935 000000fa 9002              STR       A1, [SP, #8]          ; [DPU_V7M3_PIPE] |414|  ; [ORIG 16-BIT INS]
TI ARM Assembler Unix v18.1.1 Fri Jul  3 20:08:25 2020

Tools Copyright (c) 1996-2017 Texas Instruments Incorporated
lcd.asm                                                              PAGE   18

     936                            .dwpsn  file "../driverlib/lcd.c",line 419,column 5,is_stmt,isa 1
     937                    ;----------------------------------------------------------------------
     938                    ; 419 | HWREG(ui32Base + ui32Reg) = ui16Cmd;                                   
     939                    ;----------------------------------------------------------------------
     940 000000fc 9900              LDR       A2, [SP, #0]          ; [DPU_V7M3_PIPE] |419|  ; [ORIG 16-BIT INS]
     941 000000fe 000CF8BD          LDRH      A1, [SP, #12]         ; [DPU_V7M3_PIPE] |419|  ; [KEEP 32-BIT INS]
     942 00000102 9A02              LDR       A3, [SP, #8]          ; [DPU_V7M3_PIPE] |419|  ; [ORIG 16-BIT INS]
     943 00000104 5050              STR       A1, [A3, +A2]         ; [DPU_V7M3_PIPE] |419|  ; [ORIG 16-BIT INS]
     944                            .dwpsn  file "../driverlib/lcd.c",line 420,column 1,is_stmt,isa 1
     945 00000106 B004              ADD       SP, SP, #16           ; [DPU_V7M3_PIPE]  ; [ORIG 16-BIT INS]
     946                            .dwcfi  cfa_offset, 0
     947                    $C$DW$58        .dwtag  DW_TAG_TI_branch
     948                            .dwattr $C$DW$58, DW_AT_low_pc(0x00)
     949                            .dwattr $C$DW$58, DW_AT_TI_return
     950                    
     951 00000108 4770              BX        LR                    ; [DPU_V7M3_PIPE]  ; [ORIG 16-BIT INS]
     952                            ; BRANCH OCCURS                  ; [] 
     953                            .dwattr $C$DW$50, DW_AT_TI_end_file("../driverlib/lcd.c")
     954                            .dwattr $C$DW$50, DW_AT_TI_end_line(0x1a4)
     955                            .dwattr $C$DW$50, DW_AT_TI_end_column(0x01)
     956                            .dwendentry
     957                            .dwendtag $C$DW$50
     958                    
     959 0000010a                   .sect   ".text"
     960                            .clink
     961                            .thumbfunc LCDIDDDataWrite
     962 0000010a                   .thumb
     963                            .global LCDIDDDataWrite
     964                    
     965                    $C$DW$59        .dwtag  DW_TAG_subprogram
     966                            .dwattr $C$DW$59, DW_AT_name("LCDIDDDataWrite")
     967                            .dwattr $C$DW$59, DW_AT_low_pc(LCDIDDDataWrite)
     968                            .dwattr $C$DW$59, DW_AT_high_pc(0x00)
     969                            .dwattr $C$DW$59, DW_AT_TI_symbol_name("LCDIDDDataWrite")
     970                            .dwattr $C$DW$59, DW_AT_external
     971                            .dwattr $C$DW$59, DW_AT_TI_begin_file("../driverlib/lcd.c")
     972                            .dwattr $C$DW$59, DW_AT_TI_begin_line(0x1be)
     973                            .dwattr $C$DW$59, DW_AT_TI_begin_column(0x01)
     974                            .dwattr $C$DW$59, DW_AT_decl_file("../driverlib/lcd.c")
     975                            .dwattr $C$DW$59, DW_AT_decl_line(0x1be)
     976                            .dwattr $C$DW$59, DW_AT_decl_column(0x01)
     977                            .dwattr $C$DW$59, DW_AT_TI_max_frame_size(0x10)
     978                            .dwpsn  file "../driverlib/lcd.c",line 447,column 1,is_stmt,address LCDIDDDataWrite,isa 1
     979                    
     980                            .dwfde $C$DW$CIE, LCDIDDDataWrite
     981                    $C$DW$60        .dwtag  DW_TAG_formal_parameter
     982                            .dwattr $C$DW$60, DW_AT_name("ui32Base")
     983                            .dwattr $C$DW$60, DW_AT_TI_symbol_name("ui32Base")
     984                            .dwattr $C$DW$60, DW_AT_type(*$C$DW$T$25)
     985                            .dwattr $C$DW$60, DW_AT_location[DW_OP_reg0]
     986                    
     987                    $C$DW$61        .dwtag  DW_TAG_formal_parameter
     988                            .dwattr $C$DW$61, DW_AT_name("ui32CS")
     989                            .dwattr $C$DW$61, DW_AT_TI_symbol_name("ui32CS")
     990                            .dwattr $C$DW$61, DW_AT_type(*$C$DW$T$25)
TI ARM Assembler Unix v18.1.1 Fri Jul  3 20:08:25 2020

Tools Copyright (c) 1996-2017 Texas Instruments Incorporated
lcd.asm                                                              PAGE   19

     991                            .dwattr $C$DW$61, DW_AT_location[DW_OP_reg1]
     992                    
     993                    $C$DW$62        .dwtag  DW_TAG_formal_parameter
     994                            .dwattr $C$DW$62, DW_AT_name("ui16Data")
     995                            .dwattr $C$DW$62, DW_AT_TI_symbol_name("ui16Data")
     996                            .dwattr $C$DW$62, DW_AT_type(*$C$DW$T$27)
     997                            .dwattr $C$DW$62, DW_AT_location[DW_OP_reg2]
     998                    
     999                    ;----------------------------------------------------------------------
    1000                    ; 446 | LCDIDDDataWrite(uint32_t ui32Base, uint32_t ui32CS, uint16_t ui16Data) 
    1001                    ;----------------------------------------------------------------------
    1002                    
    1003                    ;*****************************************************************************
    1004                    ;* FUNCTION NAME: LCDIDDDataWrite                                            *
    1005                    ;*                                                                           *
    1006                    ;*   Regs Modified     : A1,A2,A3,SP,SR                                      *
    1007                    ;*   Regs Used         : A1,A2,A3,SP,LR,SR                                   *
    1008                    ;*   Local Frame Size  : 0 Args + 16 Auto + 0 Save = 16 byte                 *
    1009                    ;*****************************************************************************
    1010 0000010a           LCDIDDDataWrite:
    1011                    ;* --------------------------------------------------------------------------*
    1012                            .dwcfi  cfa_offset, 0
    1013 0000010a 0D10F1AD          SUB       SP, SP, #16           ; [DPU_V7M3_PIPE]  ; [KEEP 32-BIT INS]
    1014                            .dwcfi  cfa_offset, 16
    1015                    $C$DW$63        .dwtag  DW_TAG_variable
    1016                            .dwattr $C$DW$63, DW_AT_name("ui32Base")
    1017                            .dwattr $C$DW$63, DW_AT_TI_symbol_name("ui32Base")
    1018                            .dwattr $C$DW$63, DW_AT_type(*$C$DW$T$25)
    1019                            .dwattr $C$DW$63, DW_AT_location[DW_OP_breg13 0]
    1020                    
    1021                    $C$DW$64        .dwtag  DW_TAG_variable
    1022                            .dwattr $C$DW$64, DW_AT_name("ui32CS")
    1023                            .dwattr $C$DW$64, DW_AT_TI_symbol_name("ui32CS")
    1024                            .dwattr $C$DW$64, DW_AT_type(*$C$DW$T$25)
    1025                            .dwattr $C$DW$64, DW_AT_location[DW_OP_breg13 4]
    1026                    
    1027                    $C$DW$65        .dwtag  DW_TAG_variable
    1028                            .dwattr $C$DW$65, DW_AT_name("ui32Reg")
    1029                            .dwattr $C$DW$65, DW_AT_TI_symbol_name("ui32Reg")
    1030                            .dwattr $C$DW$65, DW_AT_type(*$C$DW$T$25)
    1031                            .dwattr $C$DW$65, DW_AT_location[DW_OP_breg13 8]
    1032                    
    1033                    $C$DW$66        .dwtag  DW_TAG_variable
    1034                            .dwattr $C$DW$66, DW_AT_name("ui16Data")
    1035                            .dwattr $C$DW$66, DW_AT_TI_symbol_name("ui16Data")
    1036                            .dwattr $C$DW$66, DW_AT_type(*$C$DW$T$27)
    1037                            .dwattr $C$DW$66, DW_AT_location[DW_OP_breg13 12]
    1038                    
    1039                    ;----------------------------------------------------------------------
    1040                    ; 448 | uint32_t ui32Reg;                                                      
    1041                    ; 450 | //                                                                     
    1042                    ; 451 | // Sanity check parameters.                                            
    1043                    ; 452 | //                                                                     
    1044                    ; 453 | ASSERT(ui32Base == LCD0_BASE);                                         
    1045                    ; 454 | ASSERT((ui32CS == 0) || (ui32CS == 1));                                
TI ARM Assembler Unix v18.1.1 Fri Jul  3 20:08:25 2020

Tools Copyright (c) 1996-2017 Texas Instruments Incorporated
lcd.asm                                                              PAGE   20

    1046                    ; 456 | //                                                                     
    1047                    ; 457 | // Determine the register to write based on the CS value supplied.     
    1048                    ; 458 | //                                                                     
    1049                    ;----------------------------------------------------------------------
    1050 0000010e 200CF8AD          STRH      A3, [SP, #12]         ; [DPU_V7M3_PIPE] |447|  ; [KEEP 32-BIT INS]
    1051 00000112 9101              STR       A2, [SP, #4]          ; [DPU_V7M3_PIPE] |447|  ; [ORIG 16-BIT INS]
    1052 00000114 9000              STR       A1, [SP, #0]          ; [DPU_V7M3_PIPE] |447|  ; [ORIG 16-BIT INS]
    1053                            .dwpsn  file "../driverlib/lcd.c",line 459,column 5,is_stmt,isa 1
    1054                    ;----------------------------------------------------------------------
    1055                    ; 459 | ui32Reg = ui32CS ? LCD_O_LIDDCS1DATA : LCD_O_LIDDCS0DATA;              
    1056                    ; 461 | //                                                                     
    1057                    ; 462 | // Write the data value to the register.                               
    1058                    ; 463 | //                                                                     
    1059                    ;----------------------------------------------------------------------
    1060 00000116 9801              LDR       A1, [SP, #4]          ; [DPU_V7M3_PIPE] |459|  ; [ORIG 16-BIT INS]
    1061 00000118 B108              CBZ       A1, ||$C$L7||         ; []  ; [ORIG 16-BIT INS]
    1062                            ; BRANCHCC OCCURS {||$C$L7||}    ; [] |459| 
    1063                    ;* --------------------------------------------------------------------------*
    1064 0000011a 2024              MOVS      A1, #36               ; [DPU_V7M3_PIPE] |459|  ; [ORIG 16-BIT INS]
    1065 0000011c E000              B         ||$C$L8||             ; [DPU_V7M3_PIPE] |459|  ; [ORIG 16-BIT INS]
    1066                            ; BRANCH OCCURS {||$C$L8||}      ; [] |459| 
    1067                    ;* --------------------------------------------------------------------------*
    1068 0000011e           ||$C$L7||:    
    1069 0000011e 2018              MOVS      A1, #24               ; [DPU_V7M3_PIPE] |459|  ; [ORIG 16-BIT INS]
    1070                    ;* --------------------------------------------------------------------------*
    1071 00000120           ||$C$L8||:    
    1072 00000120 9002              STR       A1, [SP, #8]          ; [DPU_V7M3_PIPE] |459|  ; [ORIG 16-BIT INS]
    1073                            .dwpsn  file "../driverlib/lcd.c",line 464,column 5,is_stmt,isa 1
    1074                    ;----------------------------------------------------------------------
    1075                    ; 464 | HWREG(ui32Base + ui32Reg) = ui16Data;                                  
    1076                    ;----------------------------------------------------------------------
    1077 00000122 9900              LDR       A2, [SP, #0]          ; [DPU_V7M3_PIPE] |464|  ; [ORIG 16-BIT INS]
    1078 00000124 000CF8BD          LDRH      A1, [SP, #12]         ; [DPU_V7M3_PIPE] |464|  ; [KEEP 32-BIT INS]
    1079 00000128 9A02              LDR       A3, [SP, #8]          ; [DPU_V7M3_PIPE] |464|  ; [ORIG 16-BIT INS]
    1080 0000012a 5050              STR       A1, [A3, +A2]         ; [DPU_V7M3_PIPE] |464|  ; [ORIG 16-BIT INS]
    1081                            .dwpsn  file "../driverlib/lcd.c",line 465,column 1,is_stmt,isa 1
    1082 0000012c B004              ADD       SP, SP, #16           ; [DPU_V7M3_PIPE]  ; [ORIG 16-BIT INS]
    1083                            .dwcfi  cfa_offset, 0
    1084                    $C$DW$67        .dwtag  DW_TAG_TI_branch
    1085                            .dwattr $C$DW$67, DW_AT_low_pc(0x00)
    1086                            .dwattr $C$DW$67, DW_AT_TI_return
    1087                    
    1088 0000012e 4770              BX        LR                    ; [DPU_V7M3_PIPE]  ; [ORIG 16-BIT INS]
    1089                            ; BRANCH OCCURS                  ; [] 
    1090                            .dwattr $C$DW$59, DW_AT_TI_end_file("../driverlib/lcd.c")
    1091                            .dwattr $C$DW$59, DW_AT_TI_end_line(0x1d1)
    1092                            .dwattr $C$DW$59, DW_AT_TI_end_column(0x01)
    1093                            .dwendentry
    1094                            .dwendtag $C$DW$59
    1095                    
    1096 00000130                   .sect   ".text"
    1097                            .clink
    1098                            .thumbfunc LCDIDDIndexedWrite
    1099 00000130                   .thumb
    1100                            .global LCDIDDIndexedWrite
TI ARM Assembler Unix v18.1.1 Fri Jul  3 20:08:25 2020

Tools Copyright (c) 1996-2017 Texas Instruments Incorporated
lcd.asm                                                              PAGE   21

    1101                    
    1102                    $C$DW$68        .dwtag  DW_TAG_subprogram
    1103                            .dwattr $C$DW$68, DW_AT_name("LCDIDDIndexedWrite")
    1104                            .dwattr $C$DW$68, DW_AT_low_pc(LCDIDDIndexedWrite)
    1105                            .dwattr $C$DW$68, DW_AT_high_pc(0x00)
    1106                            .dwattr $C$DW$68, DW_AT_TI_symbol_name("LCDIDDIndexedWrite")
    1107                            .dwattr $C$DW$68, DW_AT_external
    1108                            .dwattr $C$DW$68, DW_AT_TI_begin_file("../driverlib/lcd.c")
    1109                            .dwattr $C$DW$68, DW_AT_TI_begin_line(0x1f4)
    1110                            .dwattr $C$DW$68, DW_AT_TI_begin_column(0x01)
    1111                            .dwattr $C$DW$68, DW_AT_decl_file("../driverlib/lcd.c")
    1112                            .dwattr $C$DW$68, DW_AT_decl_line(0x1f4)
    1113                            .dwattr $C$DW$68, DW_AT_decl_column(0x01)
    1114                            .dwattr $C$DW$68, DW_AT_TI_max_frame_size(0x10)
    1115                            .dwpsn  file "../driverlib/lcd.c",line 502,column 1,is_stmt,address LCDIDDIndexedWrite,isa 1
    1116                    
    1117                            .dwfde $C$DW$CIE, LCDIDDIndexedWrite
    1118                    $C$DW$69        .dwtag  DW_TAG_formal_parameter
    1119                            .dwattr $C$DW$69, DW_AT_name("ui32Base")
    1120                            .dwattr $C$DW$69, DW_AT_TI_symbol_name("ui32Base")
    1121                            .dwattr $C$DW$69, DW_AT_type(*$C$DW$T$25)
    1122                            .dwattr $C$DW$69, DW_AT_location[DW_OP_reg0]
    1123                    
    1124                    $C$DW$70        .dwtag  DW_TAG_formal_parameter
    1125                            .dwattr $C$DW$70, DW_AT_name("ui32CS")
    1126                            .dwattr $C$DW$70, DW_AT_TI_symbol_name("ui32CS")
    1127                            .dwattr $C$DW$70, DW_AT_type(*$C$DW$T$25)
    1128                            .dwattr $C$DW$70, DW_AT_location[DW_OP_reg1]
    1129                    
    1130                    $C$DW$71        .dwtag  DW_TAG_formal_parameter
    1131                            .dwattr $C$DW$71, DW_AT_name("ui16Addr")
    1132                            .dwattr $C$DW$71, DW_AT_TI_symbol_name("ui16Addr")
    1133                            .dwattr $C$DW$71, DW_AT_type(*$C$DW$T$27)
    1134                            .dwattr $C$DW$71, DW_AT_location[DW_OP_reg2]
    1135                    
    1136                    $C$DW$72        .dwtag  DW_TAG_formal_parameter
    1137                            .dwattr $C$DW$72, DW_AT_name("ui16Data")
    1138                            .dwattr $C$DW$72, DW_AT_TI_symbol_name("ui16Data")
    1139                            .dwattr $C$DW$72, DW_AT_type(*$C$DW$T$27)
    1140                            .dwattr $C$DW$72, DW_AT_location[DW_OP_reg3]
    1141                    
    1142                    ;----------------------------------------------------------------------
    1143                    ; 500 | LCDIDDIndexedWrite(uint32_t ui32Base, uint32_t ui32CS, uint16_t ui16Add
    1144                    ;     | r,                                                                     
    1145                    ; 501 | uint16_t ui16Data)                                                     
    1146                    ;----------------------------------------------------------------------
    1147                    
    1148                    ;*****************************************************************************
    1149                    ;* FUNCTION NAME: LCDIDDIndexedWrite                                         *
    1150                    ;*                                                                           *
    1151                    ;*   Regs Modified     : A1,A2,A3,SP,SR                                      *
    1152                    ;*   Regs Used         : A1,A2,A3,A4,SP,LR,SR                                *
    1153                    ;*   Local Frame Size  : 0 Args + 16 Auto + 0 Save = 16 byte                 *
    1154                    ;*****************************************************************************
    1155 00000130           LCDIDDIndexedWrite:
TI ARM Assembler Unix v18.1.1 Fri Jul  3 20:08:25 2020

Tools Copyright (c) 1996-2017 Texas Instruments Incorporated
lcd.asm                                                              PAGE   22

    1156                    ;* --------------------------------------------------------------------------*
    1157                            .dwcfi  cfa_offset, 0
    1158 00000130 0D10F1AD          SUB       SP, SP, #16           ; [DPU_V7M3_PIPE]  ; [KEEP 32-BIT INS]
    1159                            .dwcfi  cfa_offset, 16
    1160                    $C$DW$73        .dwtag  DW_TAG_variable
    1161                            .dwattr $C$DW$73, DW_AT_name("ui32Base")
    1162                            .dwattr $C$DW$73, DW_AT_TI_symbol_name("ui32Base")
    1163                            .dwattr $C$DW$73, DW_AT_type(*$C$DW$T$25)
    1164                            .dwattr $C$DW$73, DW_AT_location[DW_OP_breg13 0]
    1165                    
    1166                    $C$DW$74        .dwtag  DW_TAG_variable
    1167                            .dwattr $C$DW$74, DW_AT_name("ui32CS")
    1168                            .dwattr $C$DW$74, DW_AT_TI_symbol_name("ui32CS")
    1169                            .dwattr $C$DW$74, DW_AT_type(*$C$DW$T$25)
    1170                            .dwattr $C$DW$74, DW_AT_location[DW_OP_breg13 4]
    1171                    
    1172                    $C$DW$75        .dwtag  DW_TAG_variable
    1173                            .dwattr $C$DW$75, DW_AT_name("ui32Addr")
    1174                            .dwattr $C$DW$75, DW_AT_TI_symbol_name("ui32Addr")
    1175                            .dwattr $C$DW$75, DW_AT_type(*$C$DW$T$25)
    1176                            .dwattr $C$DW$75, DW_AT_location[DW_OP_breg13 8]
    1177                    
    1178                    $C$DW$76        .dwtag  DW_TAG_variable
    1179                            .dwattr $C$DW$76, DW_AT_name("ui16Addr")
    1180                            .dwattr $C$DW$76, DW_AT_TI_symbol_name("ui16Addr")
    1181                            .dwattr $C$DW$76, DW_AT_type(*$C$DW$T$27)
    1182                            .dwattr $C$DW$76, DW_AT_location[DW_OP_breg13 12]
    1183                    
    1184                    $C$DW$77        .dwtag  DW_TAG_variable
    1185                            .dwattr $C$DW$77, DW_AT_name("ui16Data")
    1186                            .dwattr $C$DW$77, DW_AT_TI_symbol_name("ui16Data")
    1187                            .dwattr $C$DW$77, DW_AT_type(*$C$DW$T$27)
    1188                            .dwattr $C$DW$77, DW_AT_location[DW_OP_breg13 14]
    1189                    
    1190                    ;----------------------------------------------------------------------
    1191                    ; 503 | uint32_t ui32Addr;                                                     
    1192                    ; 505 | //                                                                     
    1193                    ; 506 | // Sanity check parameters.                                            
    1194                    ; 507 | //                                                                     
    1195                    ; 508 | ASSERT(ui32Base == LCD0_BASE);                                         
    1196                    ; 509 | ASSERT((ui32CS == 0) || (ui32CS == 1));                                
    1197                    ; 511 | //                                                                     
    1198                    ; 512 | // Determine the address register to write.                            
    1199                    ; 513 | //                                                                     
    1200                    ;----------------------------------------------------------------------
    1201 00000134 300EF8AD          STRH      A4, [SP, #14]         ; [DPU_V7M3_PIPE] |502|  ; [KEEP 32-BIT INS]
    1202 00000138 200CF8AD          STRH      A3, [SP, #12]         ; [DPU_V7M3_PIPE] |502|  ; [KEEP 32-BIT INS]
    1203 0000013c 9101              STR       A2, [SP, #4]          ; [DPU_V7M3_PIPE] |502|  ; [ORIG 16-BIT INS]
    1204 0000013e 9000              STR       A1, [SP, #0]          ; [DPU_V7M3_PIPE] |502|  ; [ORIG 16-BIT INS]
    1205                            .dwpsn  file "../driverlib/lcd.c",line 514,column 5,is_stmt,isa 1
    1206                    ;----------------------------------------------------------------------
    1207                    ; 514 | ui32Addr = ui32CS ? LCD_O_LIDDCS1ADDR : LCD_O_LIDDCS0ADDR;             
    1208                    ; 516 | //                                                                     
    1209                    ; 517 | // Write the address.                                                  
    1210                    ; 518 | //                                                                     
TI ARM Assembler Unix v18.1.1 Fri Jul  3 20:08:25 2020

Tools Copyright (c) 1996-2017 Texas Instruments Incorporated
lcd.asm                                                              PAGE   23

    1211                    ;----------------------------------------------------------------------
    1212 00000140 9801              LDR       A1, [SP, #4]          ; [DPU_V7M3_PIPE] |514|  ; [ORIG 16-BIT INS]
    1213 00000142 B108              CBZ       A1, ||$C$L9||         ; []  ; [ORIG 16-BIT INS]
    1214                            ; BRANCHCC OCCURS {||$C$L9||}    ; [] |514| 
    1215                    ;* --------------------------------------------------------------------------*
    1216 00000144 2020              MOVS      A1, #32               ; [DPU_V7M3_PIPE] |514|  ; [ORIG 16-BIT INS]
    1217 00000146 E000              B         ||$C$L10||            ; [DPU_V7M3_PIPE] |514|  ; [ORIG 16-BIT INS]
    1218                            ; BRANCH OCCURS {||$C$L10||}     ; [] |514| 
    1219                    ;* --------------------------------------------------------------------------*
    1220 00000148           ||$C$L9||:    
    1221 00000148 2014              MOVS      A1, #20               ; [DPU_V7M3_PIPE] |514|  ; [ORIG 16-BIT INS]
    1222                    ;* --------------------------------------------------------------------------*
    1223 0000014a           ||$C$L10||:    
    1224 0000014a 9002              STR       A1, [SP, #8]          ; [DPU_V7M3_PIPE] |514|  ; [ORIG 16-BIT INS]
    1225                            .dwpsn  file "../driverlib/lcd.c",line 519,column 5,is_stmt,isa 1
    1226                    ;----------------------------------------------------------------------
    1227                    ; 519 | HWREG(ui32Base + ui32Addr) = ui16Addr;                                 
    1228                    ; 521 | //                                                                     
    1229                    ; 522 | // Determine the data register to write.                               
    1230                    ; 523 | //                                                                     
    1231                    ;----------------------------------------------------------------------
    1232 0000014c 9900              LDR       A2, [SP, #0]          ; [DPU_V7M3_PIPE] |519|  ; [ORIG 16-BIT INS]
    1233 0000014e 000CF8BD          LDRH      A1, [SP, #12]         ; [DPU_V7M3_PIPE] |519|  ; [KEEP 32-BIT INS]
    1234 00000152 9A02              LDR       A3, [SP, #8]          ; [DPU_V7M3_PIPE] |519|  ; [ORIG 16-BIT INS]
    1235 00000154 5050              STR       A1, [A3, +A2]         ; [DPU_V7M3_PIPE] |519|  ; [ORIG 16-BIT INS]
    1236                            .dwpsn  file "../driverlib/lcd.c",line 524,column 5,is_stmt,isa 1
    1237                    ;----------------------------------------------------------------------
    1238                    ; 524 | ui32Addr = ui32CS ? LCD_O_LIDDCS1DATA : LCD_O_LIDDCS0DATA;             
    1239                    ; 526 | //                                                                     
    1240                    ; 527 | // Write the data.                                                     
    1241                    ; 528 | //                                                                     
    1242                    ;----------------------------------------------------------------------
    1243 00000156 9801              LDR       A1, [SP, #4]          ; [DPU_V7M3_PIPE] |524|  ; [ORIG 16-BIT INS]
    1244 00000158 B108              CBZ       A1, ||$C$L11||        ; []  ; [ORIG 16-BIT INS]
    1245                            ; BRANCHCC OCCURS {||$C$L11||}   ; [] |524| 
    1246                    ;* --------------------------------------------------------------------------*
    1247 0000015a 2024              MOVS      A1, #36               ; [DPU_V7M3_PIPE] |524|  ; [ORIG 16-BIT INS]
    1248 0000015c E000              B         ||$C$L12||            ; [DPU_V7M3_PIPE] |524|  ; [ORIG 16-BIT INS]
    1249                            ; BRANCH OCCURS {||$C$L12||}     ; [] |524| 
    1250                    ;* --------------------------------------------------------------------------*
    1251 0000015e           ||$C$L11||:    
    1252 0000015e 2018              MOVS      A1, #24               ; [DPU_V7M3_PIPE] |524|  ; [ORIG 16-BIT INS]
    1253                    ;* --------------------------------------------------------------------------*
    1254 00000160           ||$C$L12||:    
    1255 00000160 9002              STR       A1, [SP, #8]          ; [DPU_V7M3_PIPE] |524|  ; [ORIG 16-BIT INS]
    1256                            .dwpsn  file "../driverlib/lcd.c",line 529,column 5,is_stmt,isa 1
    1257                    ;----------------------------------------------------------------------
    1258                    ; 529 | HWREG(ui32Base + ui32Addr) = ui16Data;                                 
    1259                    ;----------------------------------------------------------------------
    1260 00000162 9900              LDR       A2, [SP, #0]          ; [DPU_V7M3_PIPE] |529|  ; [ORIG 16-BIT INS]
    1261 00000164 000EF8BD          LDRH      A1, [SP, #14]         ; [DPU_V7M3_PIPE] |529|  ; [KEEP 32-BIT INS]
    1262 00000168 9A02              LDR       A3, [SP, #8]          ; [DPU_V7M3_PIPE] |529|  ; [ORIG 16-BIT INS]
    1263 0000016a 5050              STR       A1, [A3, +A2]         ; [DPU_V7M3_PIPE] |529|  ; [ORIG 16-BIT INS]
    1264                            .dwpsn  file "../driverlib/lcd.c",line 530,column 1,is_stmt,isa 1
    1265 0000016c B004              ADD       SP, SP, #16           ; [DPU_V7M3_PIPE]  ; [ORIG 16-BIT INS]
TI ARM Assembler Unix v18.1.1 Fri Jul  3 20:08:25 2020

Tools Copyright (c) 1996-2017 Texas Instruments Incorporated
lcd.asm                                                              PAGE   24

    1266                            .dwcfi  cfa_offset, 0
    1267                    $C$DW$78        .dwtag  DW_TAG_TI_branch
    1268                            .dwattr $C$DW$78, DW_AT_low_pc(0x00)
    1269                            .dwattr $C$DW$78, DW_AT_TI_return
    1270                    
    1271 0000016e 4770              BX        LR                    ; [DPU_V7M3_PIPE]  ; [ORIG 16-BIT INS]
    1272                            ; BRANCH OCCURS                  ; [] 
    1273                            .dwattr $C$DW$68, DW_AT_TI_end_file("../driverlib/lcd.c")
    1274                            .dwattr $C$DW$68, DW_AT_TI_end_line(0x212)
    1275                            .dwattr $C$DW$68, DW_AT_TI_end_column(0x01)
    1276                            .dwendentry
    1277                            .dwendtag $C$DW$68
    1278                    
    1279 00000170                   .sect   ".text"
    1280                            .clink
    1281                            .thumbfunc LCDIDDStatusRead
    1282 00000170                   .thumb
    1283                            .global LCDIDDStatusRead
    1284                    
    1285                    $C$DW$79        .dwtag  DW_TAG_subprogram
    1286                            .dwattr $C$DW$79, DW_AT_name("LCDIDDStatusRead")
    1287                            .dwattr $C$DW$79, DW_AT_low_pc(LCDIDDStatusRead)
    1288                            .dwattr $C$DW$79, DW_AT_high_pc(0x00)
    1289                            .dwattr $C$DW$79, DW_AT_TI_symbol_name("LCDIDDStatusRead")
    1290                            .dwattr $C$DW$79, DW_AT_external
    1291                            .dwattr $C$DW$79, DW_AT_type(*$C$DW$T$27)
    1292                            .dwattr $C$DW$79, DW_AT_TI_begin_file("../driverlib/lcd.c")
    1293                            .dwattr $C$DW$79, DW_AT_TI_begin_line(0x22e)
    1294                            .dwattr $C$DW$79, DW_AT_TI_begin_column(0x01)
    1295                            .dwattr $C$DW$79, DW_AT_decl_file("../driverlib/lcd.c")
    1296                            .dwattr $C$DW$79, DW_AT_decl_line(0x22e)
    1297                            .dwattr $C$DW$79, DW_AT_decl_column(0x01)
    1298                            .dwattr $C$DW$79, DW_AT_TI_max_frame_size(0x10)
    1299                            .dwpsn  file "../driverlib/lcd.c",line 559,column 1,is_stmt,address LCDIDDStatusRead,isa 1
    1300                    
    1301                            .dwfde $C$DW$CIE, LCDIDDStatusRead
    1302                    $C$DW$80        .dwtag  DW_TAG_formal_parameter
    1303                            .dwattr $C$DW$80, DW_AT_name("ui32Base")
    1304                            .dwattr $C$DW$80, DW_AT_TI_symbol_name("ui32Base")
    1305                            .dwattr $C$DW$80, DW_AT_type(*$C$DW$T$25)
    1306                            .dwattr $C$DW$80, DW_AT_location[DW_OP_reg0]
    1307                    
    1308                    $C$DW$81        .dwtag  DW_TAG_formal_parameter
    1309                            .dwattr $C$DW$81, DW_AT_name("ui32CS")
    1310                            .dwattr $C$DW$81, DW_AT_TI_symbol_name("ui32CS")
    1311                            .dwattr $C$DW$81, DW_AT_type(*$C$DW$T$25)
    1312                            .dwattr $C$DW$81, DW_AT_location[DW_OP_reg1]
    1313                    
    1314                    ;----------------------------------------------------------------------
    1315                    ; 558 | LCDIDDStatusRead(uint32_t ui32Base, uint32_t ui32CS)                   
    1316                    ;----------------------------------------------------------------------
    1317                    
    1318                    ;*****************************************************************************
    1319                    ;* FUNCTION NAME: LCDIDDStatusRead                                           *
    1320                    ;*                                                                           *
TI ARM Assembler Unix v18.1.1 Fri Jul  3 20:08:25 2020

Tools Copyright (c) 1996-2017 Texas Instruments Incorporated
lcd.asm                                                              PAGE   25

    1321                    ;*   Regs Modified     : A1,A2,SP,SR                                         *
    1322                    ;*   Regs Used         : A1,A2,SP,LR,SR                                      *
    1323                    ;*   Local Frame Size  : 0 Args + 12 Auto + 0 Save = 12 byte                 *
    1324                    ;*****************************************************************************
    1325 00000170           LCDIDDStatusRead:
    1326                    ;* --------------------------------------------------------------------------*
    1327                            .dwcfi  cfa_offset, 0
    1328 00000170 0D10F1AD          SUB       SP, SP, #16           ; [DPU_V7M3_PIPE]  ; [KEEP 32-BIT INS]
    1329                            .dwcfi  cfa_offset, 16
    1330                    $C$DW$82        .dwtag  DW_TAG_variable
    1331                            .dwattr $C$DW$82, DW_AT_name("ui32Base")
    1332                            .dwattr $C$DW$82, DW_AT_TI_symbol_name("ui32Base")
    1333                            .dwattr $C$DW$82, DW_AT_type(*$C$DW$T$25)
    1334                            .dwattr $C$DW$82, DW_AT_location[DW_OP_breg13 0]
    1335                    
    1336                    $C$DW$83        .dwtag  DW_TAG_variable
    1337                            .dwattr $C$DW$83, DW_AT_name("ui32CS")
    1338                            .dwattr $C$DW$83, DW_AT_TI_symbol_name("ui32CS")
    1339                            .dwattr $C$DW$83, DW_AT_type(*$C$DW$T$25)
    1340                            .dwattr $C$DW$83, DW_AT_location[DW_OP_breg13 4]
    1341                    
    1342                    $C$DW$84        .dwtag  DW_TAG_variable
    1343                            .dwattr $C$DW$84, DW_AT_name("ui32Reg")
    1344                            .dwattr $C$DW$84, DW_AT_TI_symbol_name("ui32Reg")
    1345                            .dwattr $C$DW$84, DW_AT_type(*$C$DW$T$25)
    1346                            .dwattr $C$DW$84, DW_AT_location[DW_OP_breg13 8]
    1347                    
    1348                    ;----------------------------------------------------------------------
    1349                    ; 560 | uint32_t ui32Reg;                                                      
    1350                    ; 562 | //                                                                     
    1351                    ; 563 | // Sanity check parameters.                                            
    1352                    ; 564 | //                                                                     
    1353                    ; 565 | ASSERT(ui32Base == LCD0_BASE);                                         
    1354                    ; 566 | ASSERT((ui32CS == 0) || (ui32CS == 1));                                
    1355                    ; 568 | //                                                                     
    1356                    ; 569 | // Determine the register to read based on the CS value supplied.      
    1357                    ; 570 | //                                                                     
    1358                    ;----------------------------------------------------------------------
    1359 00000174 9101              STR       A2, [SP, #4]          ; [DPU_V7M3_PIPE] |559|  ; [ORIG 16-BIT INS]
    1360 00000176 9000              STR       A1, [SP, #0]          ; [DPU_V7M3_PIPE] |559|  ; [ORIG 16-BIT INS]
    1361                            .dwpsn  file "../driverlib/lcd.c",line 571,column 5,is_stmt,isa 1
    1362                    ;----------------------------------------------------------------------
    1363                    ; 571 | ui32Reg = ui32CS ? LCD_O_LIDDCS1ADDR : LCD_O_LIDDCS0ADDR;              
    1364                    ; 573 | //                                                                     
    1365                    ; 574 | // Read the relevant status register.                                  
    1366                    ; 575 | //                                                                     
    1367                    ;----------------------------------------------------------------------
    1368 00000178 9801              LDR       A1, [SP, #4]          ; [DPU_V7M3_PIPE] |571|  ; [ORIG 16-BIT INS]
    1369 0000017a B108              CBZ       A1, ||$C$L13||        ; []  ; [ORIG 16-BIT INS]
    1370                            ; BRANCHCC OCCURS {||$C$L13||}   ; [] |571| 
    1371                    ;* --------------------------------------------------------------------------*
    1372 0000017c 2020              MOVS      A1, #32               ; [DPU_V7M3_PIPE] |571|  ; [ORIG 16-BIT INS]
    1373 0000017e E000              B         ||$C$L14||            ; [DPU_V7M3_PIPE] |571|  ; [ORIG 16-BIT INS]
    1374                            ; BRANCH OCCURS {||$C$L14||}     ; [] |571| 
    1375                    ;* --------------------------------------------------------------------------*
TI ARM Assembler Unix v18.1.1 Fri Jul  3 20:08:25 2020

Tools Copyright (c) 1996-2017 Texas Instruments Incorporated
lcd.asm                                                              PAGE   26

    1376 00000180           ||$C$L13||:    
    1377 00000180 2014              MOVS      A1, #20               ; [DPU_V7M3_PIPE] |571|  ; [ORIG 16-BIT INS]
    1378                    ;* --------------------------------------------------------------------------*
    1379 00000182           ||$C$L14||:    
    1380 00000182 9002              STR       A1, [SP, #8]          ; [DPU_V7M3_PIPE] |571|  ; [ORIG 16-BIT INS]
    1381                            .dwpsn  file "../driverlib/lcd.c",line 576,column 5,is_stmt,isa 1
    1382                    ;----------------------------------------------------------------------
    1383                    ; 576 | return((uint16_t)HWREG(ui32Base + ui32Reg));                           
    1384                    ;----------------------------------------------------------------------
    1385 00000184 9800              LDR       A1, [SP, #0]          ; [DPU_V7M3_PIPE] |576|  ; [ORIG 16-BIT INS]
    1386 00000186 9902              LDR       A2, [SP, #8]          ; [DPU_V7M3_PIPE] |576|  ; [ORIG 16-BIT INS]
    1387 00000188 5808              LDR       A1, [A2, +A1]         ; [DPU_V7M3_PIPE] |576|  ; [ORIG 16-BIT INS]
    1388 0000018a B280              UXTH      A1, A1                ; [DPU_V7M3_PIPE] |576|  ; [ORIG 16-BIT INS]
    1389                            .dwpsn  file "../driverlib/lcd.c",line 577,column 1,is_stmt,isa 1
    1390 0000018c B004              ADD       SP, SP, #16           ; [DPU_V7M3_PIPE]  ; [ORIG 16-BIT INS]
    1391                            .dwcfi  cfa_offset, 0
    1392                    $C$DW$85        .dwtag  DW_TAG_TI_branch
    1393                            .dwattr $C$DW$85, DW_AT_low_pc(0x00)
    1394                            .dwattr $C$DW$85, DW_AT_TI_return
    1395                    
    1396 0000018e 4770              BX        LR                    ; [DPU_V7M3_PIPE]  ; [ORIG 16-BIT INS]
    1397                            ; BRANCH OCCURS                  ; [] 
    1398                            .dwattr $C$DW$79, DW_AT_TI_end_file("../driverlib/lcd.c")
    1399                            .dwattr $C$DW$79, DW_AT_TI_end_line(0x241)
    1400                            .dwattr $C$DW$79, DW_AT_TI_end_column(0x01)
    1401                            .dwendentry
    1402                            .dwendtag $C$DW$79
    1403                    
    1404 00000190                   .sect   ".text"
    1405                            .clink
    1406                            .thumbfunc LCDIDDDataRead
    1407 00000190                   .thumb
    1408                            .global LCDIDDDataRead
    1409                    
    1410                    $C$DW$86        .dwtag  DW_TAG_subprogram
    1411                            .dwattr $C$DW$86, DW_AT_name("LCDIDDDataRead")
    1412                            .dwattr $C$DW$86, DW_AT_low_pc(LCDIDDDataRead)
    1413                            .dwattr $C$DW$86, DW_AT_high_pc(0x00)
    1414                            .dwattr $C$DW$86, DW_AT_TI_symbol_name("LCDIDDDataRead")
    1415                            .dwattr $C$DW$86, DW_AT_external
    1416                            .dwattr $C$DW$86, DW_AT_type(*$C$DW$T$27)
    1417                            .dwattr $C$DW$86, DW_AT_TI_begin_file("../driverlib/lcd.c")
    1418                            .dwattr $C$DW$86, DW_AT_TI_begin_line(0x25b)
    1419                            .dwattr $C$DW$86, DW_AT_TI_begin_column(0x01)
    1420                            .dwattr $C$DW$86, DW_AT_decl_file("../driverlib/lcd.c")
    1421                            .dwattr $C$DW$86, DW_AT_decl_line(0x25b)
    1422                            .dwattr $C$DW$86, DW_AT_decl_column(0x01)
    1423                            .dwattr $C$DW$86, DW_AT_TI_max_frame_size(0x10)
    1424                            .dwpsn  file "../driverlib/lcd.c",line 604,column 1,is_stmt,address LCDIDDDataRead,isa 1
    1425                    
    1426                            .dwfde $C$DW$CIE, LCDIDDDataRead
    1427                    $C$DW$87        .dwtag  DW_TAG_formal_parameter
    1428                            .dwattr $C$DW$87, DW_AT_name("ui32Base")
    1429                            .dwattr $C$DW$87, DW_AT_TI_symbol_name("ui32Base")
    1430                            .dwattr $C$DW$87, DW_AT_type(*$C$DW$T$25)
TI ARM Assembler Unix v18.1.1 Fri Jul  3 20:08:25 2020

Tools Copyright (c) 1996-2017 Texas Instruments Incorporated
lcd.asm                                                              PAGE   27

    1431                            .dwattr $C$DW$87, DW_AT_location[DW_OP_reg0]
    1432                    
    1433                    $C$DW$88        .dwtag  DW_TAG_formal_parameter
    1434                            .dwattr $C$DW$88, DW_AT_name("ui32CS")
    1435                            .dwattr $C$DW$88, DW_AT_TI_symbol_name("ui32CS")
    1436                            .dwattr $C$DW$88, DW_AT_type(*$C$DW$T$25)
    1437                            .dwattr $C$DW$88, DW_AT_location[DW_OP_reg1]
    1438                    
    1439                    ;----------------------------------------------------------------------
    1440                    ; 603 | LCDIDDDataRead(uint32_t ui32Base, uint32_t ui32CS)                     
    1441                    ;----------------------------------------------------------------------
    1442                    
    1443                    ;*****************************************************************************
    1444                    ;* FUNCTION NAME: LCDIDDDataRead                                             *
    1445                    ;*                                                                           *
    1446                    ;*   Regs Modified     : A1,A2,SP,SR                                         *
    1447                    ;*   Regs Used         : A1,A2,SP,LR,SR                                      *
    1448                    ;*   Local Frame Size  : 0 Args + 12 Auto + 0 Save = 12 byte                 *
    1449                    ;*****************************************************************************
    1450 00000190           LCDIDDDataRead:
    1451                    ;* --------------------------------------------------------------------------*
    1452                            .dwcfi  cfa_offset, 0
    1453 00000190 0D10F1AD          SUB       SP, SP, #16           ; [DPU_V7M3_PIPE]  ; [KEEP 32-BIT INS]
    1454                            .dwcfi  cfa_offset, 16
    1455                    $C$DW$89        .dwtag  DW_TAG_variable
    1456                            .dwattr $C$DW$89, DW_AT_name("ui32Base")
    1457                            .dwattr $C$DW$89, DW_AT_TI_symbol_name("ui32Base")
    1458                            .dwattr $C$DW$89, DW_AT_type(*$C$DW$T$25)
    1459                            .dwattr $C$DW$89, DW_AT_location[DW_OP_breg13 0]
    1460                    
    1461                    $C$DW$90        .dwtag  DW_TAG_variable
    1462                            .dwattr $C$DW$90, DW_AT_name("ui32CS")
    1463                            .dwattr $C$DW$90, DW_AT_TI_symbol_name("ui32CS")
    1464                            .dwattr $C$DW$90, DW_AT_type(*$C$DW$T$25)
    1465                            .dwattr $C$DW$90, DW_AT_location[DW_OP_breg13 4]
    1466                    
    1467                    $C$DW$91        .dwtag  DW_TAG_variable
    1468                            .dwattr $C$DW$91, DW_AT_name("ui32Reg")
    1469                            .dwattr $C$DW$91, DW_AT_TI_symbol_name("ui32Reg")
    1470                            .dwattr $C$DW$91, DW_AT_type(*$C$DW$T$25)
    1471                            .dwattr $C$DW$91, DW_AT_location[DW_OP_breg13 8]
    1472                    
    1473                    ;----------------------------------------------------------------------
    1474                    ; 605 | uint32_t ui32Reg;                                                      
    1475                    ; 607 | //                                                                     
    1476                    ; 608 | // Sanity check parameters.                                            
    1477                    ; 609 | //                                                                     
    1478                    ; 610 | ASSERT(ui32Base == LCD0_BASE);                                         
    1479                    ; 611 | ASSERT((ui32CS == 0) || (ui32CS == 1));                                
    1480                    ; 613 | //                                                                     
    1481                    ; 614 | // Determine the register to read based on the CS value supplied.      
    1482                    ; 615 | //                                                                     
    1483                    ;----------------------------------------------------------------------
    1484 00000194 9101              STR       A2, [SP, #4]          ; [DPU_V7M3_PIPE] |604|  ; [ORIG 16-BIT INS]
    1485 00000196 9000              STR       A1, [SP, #0]          ; [DPU_V7M3_PIPE] |604|  ; [ORIG 16-BIT INS]
TI ARM Assembler Unix v18.1.1 Fri Jul  3 20:08:25 2020

Tools Copyright (c) 1996-2017 Texas Instruments Incorporated
lcd.asm                                                              PAGE   28

    1486                            .dwpsn  file "../driverlib/lcd.c",line 616,column 5,is_stmt,isa 1
    1487                    ;----------------------------------------------------------------------
    1488                    ; 616 | ui32Reg = ui32CS ? LCD_O_LIDDCS1DATA : LCD_O_LIDDCS0DATA;              
    1489                    ; 618 | //                                                                     
    1490                    ; 619 | // Read the relevant data register.                                    
    1491                    ; 620 | //                                                                     
    1492                    ;----------------------------------------------------------------------
    1493 00000198 9801              LDR       A1, [SP, #4]          ; [DPU_V7M3_PIPE] |616|  ; [ORIG 16-BIT INS]
    1494 0000019a B108              CBZ       A1, ||$C$L15||        ; []  ; [ORIG 16-BIT INS]
    1495                            ; BRANCHCC OCCURS {||$C$L15||}   ; [] |616| 
    1496                    ;* --------------------------------------------------------------------------*
    1497 0000019c 2024              MOVS      A1, #36               ; [DPU_V7M3_PIPE] |616|  ; [ORIG 16-BIT INS]
    1498 0000019e E000              B         ||$C$L16||            ; [DPU_V7M3_PIPE] |616|  ; [ORIG 16-BIT INS]
    1499                            ; BRANCH OCCURS {||$C$L16||}     ; [] |616| 
    1500                    ;* --------------------------------------------------------------------------*
    1501 000001a0           ||$C$L15||:    
    1502 000001a0 2018              MOVS      A1, #24               ; [DPU_V7M3_PIPE] |616|  ; [ORIG 16-BIT INS]
    1503                    ;* --------------------------------------------------------------------------*
    1504 000001a2           ||$C$L16||:    
    1505 000001a2 9002              STR       A1, [SP, #8]          ; [DPU_V7M3_PIPE] |616|  ; [ORIG 16-BIT INS]
    1506                            .dwpsn  file "../driverlib/lcd.c",line 621,column 5,is_stmt,isa 1
    1507                    ;----------------------------------------------------------------------
    1508                    ; 621 | return((uint16_t)HWREG(ui32Base + ui32Reg));                           
    1509                    ;----------------------------------------------------------------------
    1510 000001a4 9800              LDR       A1, [SP, #0]          ; [DPU_V7M3_PIPE] |621|  ; [ORIG 16-BIT INS]
    1511 000001a6 9902              LDR       A2, [SP, #8]          ; [DPU_V7M3_PIPE] |621|  ; [ORIG 16-BIT INS]
    1512 000001a8 5808              LDR       A1, [A2, +A1]         ; [DPU_V7M3_PIPE] |621|  ; [ORIG 16-BIT INS]
    1513 000001aa B280              UXTH      A1, A1                ; [DPU_V7M3_PIPE] |621|  ; [ORIG 16-BIT INS]
    1514                            .dwpsn  file "../driverlib/lcd.c",line 622,column 1,is_stmt,isa 1
    1515 000001ac B004              ADD       SP, SP, #16           ; [DPU_V7M3_PIPE]  ; [ORIG 16-BIT INS]
    1516                            .dwcfi  cfa_offset, 0
    1517                    $C$DW$92        .dwtag  DW_TAG_TI_branch
    1518                            .dwattr $C$DW$92, DW_AT_low_pc(0x00)
    1519                            .dwattr $C$DW$92, DW_AT_TI_return
    1520                    
    1521 000001ae 4770              BX        LR                    ; [DPU_V7M3_PIPE]  ; [ORIG 16-BIT INS]
    1522                            ; BRANCH OCCURS                  ; [] 
    1523                            .dwattr $C$DW$86, DW_AT_TI_end_file("../driverlib/lcd.c")
    1524                            .dwattr $C$DW$86, DW_AT_TI_end_line(0x26e)
    1525                            .dwattr $C$DW$86, DW_AT_TI_end_column(0x01)
    1526                            .dwendentry
    1527                            .dwendtag $C$DW$86
    1528                    
    1529 000001b0                   .sect   ".text"
    1530                            .clink
    1531                            .thumbfunc LCDIDDIndexedRead
    1532 000001b0                   .thumb
    1533                            .global LCDIDDIndexedRead
    1534                    
    1535                    $C$DW$93        .dwtag  DW_TAG_subprogram
    1536                            .dwattr $C$DW$93, DW_AT_name("LCDIDDIndexedRead")
    1537                            .dwattr $C$DW$93, DW_AT_low_pc(LCDIDDIndexedRead)
    1538                            .dwattr $C$DW$93, DW_AT_high_pc(0x00)
    1539                            .dwattr $C$DW$93, DW_AT_TI_symbol_name("LCDIDDIndexedRead")
    1540                            .dwattr $C$DW$93, DW_AT_external
TI ARM Assembler Unix v18.1.1 Fri Jul  3 20:08:25 2020

Tools Copyright (c) 1996-2017 Texas Instruments Incorporated
lcd.asm                                                              PAGE   29

    1541                            .dwattr $C$DW$93, DW_AT_type(*$C$DW$T$27)
    1542                            .dwattr $C$DW$93, DW_AT_TI_begin_file("../driverlib/lcd.c")
    1543                            .dwattr $C$DW$93, DW_AT_TI_begin_line(0x28f)
    1544                            .dwattr $C$DW$93, DW_AT_TI_begin_column(0x01)
    1545                            .dwattr $C$DW$93, DW_AT_decl_file("../driverlib/lcd.c")
    1546                            .dwattr $C$DW$93, DW_AT_decl_line(0x28f)
    1547                            .dwattr $C$DW$93, DW_AT_decl_column(0x01)
    1548                            .dwattr $C$DW$93, DW_AT_TI_max_frame_size(0x10)
    1549                            .dwpsn  file "../driverlib/lcd.c",line 656,column 1,is_stmt,address LCDIDDIndexedRead,isa 1
    1550                    
    1551                            .dwfde $C$DW$CIE, LCDIDDIndexedRead
    1552                    $C$DW$94        .dwtag  DW_TAG_formal_parameter
    1553                            .dwattr $C$DW$94, DW_AT_name("ui32Base")
    1554                            .dwattr $C$DW$94, DW_AT_TI_symbol_name("ui32Base")
    1555                            .dwattr $C$DW$94, DW_AT_type(*$C$DW$T$25)
    1556                            .dwattr $C$DW$94, DW_AT_location[DW_OP_reg0]
    1557                    
    1558                    $C$DW$95        .dwtag  DW_TAG_formal_parameter
    1559                            .dwattr $C$DW$95, DW_AT_name("ui32CS")
    1560                            .dwattr $C$DW$95, DW_AT_TI_symbol_name("ui32CS")
    1561                            .dwattr $C$DW$95, DW_AT_type(*$C$DW$T$25)
    1562                            .dwattr $C$DW$95, DW_AT_location[DW_OP_reg1]
    1563                    
    1564                    $C$DW$96        .dwtag  DW_TAG_formal_parameter
    1565                            .dwattr $C$DW$96, DW_AT_name("ui16Addr")
    1566                            .dwattr $C$DW$96, DW_AT_TI_symbol_name("ui16Addr")
    1567                            .dwattr $C$DW$96, DW_AT_type(*$C$DW$T$27)
    1568                            .dwattr $C$DW$96, DW_AT_location[DW_OP_reg2]
    1569                    
    1570                    ;----------------------------------------------------------------------
    1571                    ; 655 | LCDIDDIndexedRead(uint32_t ui32Base, uint32_t ui32CS, uint16_t ui16Addr
    1572                    ;     | )                                                                      
    1573                    ;----------------------------------------------------------------------
    1574                    
    1575                    ;*****************************************************************************
    1576                    ;* FUNCTION NAME: LCDIDDIndexedRead                                          *
    1577                    ;*                                                                           *
    1578                    ;*   Regs Modified     : A1,A2,A3,SP,SR                                      *
    1579                    ;*   Regs Used         : A1,A2,A3,SP,LR,SR                                   *
    1580                    ;*   Local Frame Size  : 0 Args + 16 Auto + 0 Save = 16 byte                 *
    1581                    ;*****************************************************************************
    1582 000001b0           LCDIDDIndexedRead:
    1583                    ;* --------------------------------------------------------------------------*
    1584                            .dwcfi  cfa_offset, 0
    1585 000001b0 0D10F1AD          SUB       SP, SP, #16           ; [DPU_V7M3_PIPE]  ; [KEEP 32-BIT INS]
    1586                            .dwcfi  cfa_offset, 16
    1587                    $C$DW$97        .dwtag  DW_TAG_variable
    1588                            .dwattr $C$DW$97, DW_AT_name("ui32Base")
    1589                            .dwattr $C$DW$97, DW_AT_TI_symbol_name("ui32Base")
    1590                            .dwattr $C$DW$97, DW_AT_type(*$C$DW$T$25)
    1591                            .dwattr $C$DW$97, DW_AT_location[DW_OP_breg13 0]
    1592                    
    1593                    $C$DW$98        .dwtag  DW_TAG_variable
    1594                            .dwattr $C$DW$98, DW_AT_name("ui32CS")
    1595                            .dwattr $C$DW$98, DW_AT_TI_symbol_name("ui32CS")
TI ARM Assembler Unix v18.1.1 Fri Jul  3 20:08:25 2020

Tools Copyright (c) 1996-2017 Texas Instruments Incorporated
lcd.asm                                                              PAGE   30

    1596                            .dwattr $C$DW$98, DW_AT_type(*$C$DW$T$25)
    1597                            .dwattr $C$DW$98, DW_AT_location[DW_OP_breg13 4]
    1598                    
    1599                    $C$DW$99        .dwtag  DW_TAG_variable
    1600                            .dwattr $C$DW$99, DW_AT_name("ui32Addr")
    1601                            .dwattr $C$DW$99, DW_AT_TI_symbol_name("ui32Addr")
    1602                            .dwattr $C$DW$99, DW_AT_type(*$C$DW$T$25)
    1603                            .dwattr $C$DW$99, DW_AT_location[DW_OP_breg13 8]
    1604                    
    1605                    $C$DW$100       .dwtag  DW_TAG_variable
    1606                            .dwattr $C$DW$100, DW_AT_name("ui16Addr")
    1607                            .dwattr $C$DW$100, DW_AT_TI_symbol_name("ui16Addr")
    1608                            .dwattr $C$DW$100, DW_AT_type(*$C$DW$T$27)
    1609                            .dwattr $C$DW$100, DW_AT_location[DW_OP_breg13 12]
    1610                    
    1611                    ;----------------------------------------------------------------------
    1612                    ; 657 | uint32_t ui32Addr;                                                     
    1613                    ; 659 | //                                                                     
    1614                    ; 660 | // Sanity check parameters.                                            
    1615                    ; 661 | //                                                                     
    1616                    ; 662 | ASSERT(ui32Base == LCD0_BASE);                                         
    1617                    ; 663 | ASSERT((ui32CS == 0) || (ui32CS == 1));                                
    1618                    ; 665 | //                                                                     
    1619                    ; 666 | // Determine the address register to write.                            
    1620                    ; 667 | //                                                                     
    1621                    ;----------------------------------------------------------------------
    1622 000001b4 200CF8AD          STRH      A3, [SP, #12]         ; [DPU_V7M3_PIPE] |656|  ; [KEEP 32-BIT INS]
    1623 000001b8 9101              STR       A2, [SP, #4]          ; [DPU_V7M3_PIPE] |656|  ; [ORIG 16-BIT INS]
    1624 000001ba 9000              STR       A1, [SP, #0]          ; [DPU_V7M3_PIPE] |656|  ; [ORIG 16-BIT INS]
    1625                            .dwpsn  file "../driverlib/lcd.c",line 668,column 5,is_stmt,isa 1
    1626                    ;----------------------------------------------------------------------
    1627                    ; 668 | ui32Addr = ui32CS ? LCD_O_LIDDCS1ADDR : LCD_O_LIDDCS0ADDR;             
    1628                    ; 670 | //                                                                     
    1629                    ; 671 | // Write the address.                                                  
    1630                    ; 672 | //                                                                     
    1631                    ;----------------------------------------------------------------------
    1632 000001bc 9801              LDR       A1, [SP, #4]          ; [DPU_V7M3_PIPE] |668|  ; [ORIG 16-BIT INS]
    1633 000001be B108              CBZ       A1, ||$C$L17||        ; []  ; [ORIG 16-BIT INS]
    1634                            ; BRANCHCC OCCURS {||$C$L17||}   ; [] |668| 
    1635                    ;* --------------------------------------------------------------------------*
    1636 000001c0 2020              MOVS      A1, #32               ; [DPU_V7M3_PIPE] |668|  ; [ORIG 16-BIT INS]
    1637 000001c2 E000              B         ||$C$L18||            ; [DPU_V7M3_PIPE] |668|  ; [ORIG 16-BIT INS]
    1638                            ; BRANCH OCCURS {||$C$L18||}     ; [] |668| 
    1639                    ;* --------------------------------------------------------------------------*
    1640 000001c4           ||$C$L17||:    
    1641 000001c4 2014              MOVS      A1, #20               ; [DPU_V7M3_PIPE] |668|  ; [ORIG 16-BIT INS]
    1642                    ;* --------------------------------------------------------------------------*
    1643 000001c6           ||$C$L18||:    
    1644 000001c6 9002              STR       A1, [SP, #8]          ; [DPU_V7M3_PIPE] |668|  ; [ORIG 16-BIT INS]
    1645                            .dwpsn  file "../driverlib/lcd.c",line 673,column 5,is_stmt,isa 1
    1646                    ;----------------------------------------------------------------------
    1647                    ; 673 | HWREG(ui32Base + ui32Addr) = ui16Addr;                                 
    1648                    ; 675 | //                                                                     
    1649                    ; 676 | // Determine the data register to read.                                
    1650                    ; 677 | //                                                                     
TI ARM Assembler Unix v18.1.1 Fri Jul  3 20:08:25 2020

Tools Copyright (c) 1996-2017 Texas Instruments Incorporated
lcd.asm                                                              PAGE   31

    1651                    ;----------------------------------------------------------------------
    1652 000001c8 9900              LDR       A2, [SP, #0]          ; [DPU_V7M3_PIPE] |673|  ; [ORIG 16-BIT INS]
    1653 000001ca 000CF8BD          LDRH      A1, [SP, #12]         ; [DPU_V7M3_PIPE] |673|  ; [KEEP 32-BIT INS]
    1654 000001ce 9A02              LDR       A3, [SP, #8]          ; [DPU_V7M3_PIPE] |673|  ; [ORIG 16-BIT INS]
    1655 000001d0 5050              STR       A1, [A3, +A2]         ; [DPU_V7M3_PIPE] |673|  ; [ORIG 16-BIT INS]
    1656                            .dwpsn  file "../driverlib/lcd.c",line 678,column 5,is_stmt,isa 1
    1657                    ;----------------------------------------------------------------------
    1658                    ; 678 | ui32Addr = ui32CS ? LCD_O_LIDDCS1DATA : LCD_O_LIDDCS0DATA;             
    1659                    ; 680 | //                                                                     
    1660                    ; 681 | // Return the data read.                                               
    1661                    ; 682 | //                                                                     
    1662                    ;----------------------------------------------------------------------
    1663 000001d2 9801              LDR       A1, [SP, #4]          ; [DPU_V7M3_PIPE] |678|  ; [ORIG 16-BIT INS]
    1664 000001d4 B108              CBZ       A1, ||$C$L19||        ; []  ; [ORIG 16-BIT INS]
    1665                            ; BRANCHCC OCCURS {||$C$L19||}   ; [] |678| 
    1666                    ;* --------------------------------------------------------------------------*
    1667 000001d6 2024              MOVS      A1, #36               ; [DPU_V7M3_PIPE] |678|  ; [ORIG 16-BIT INS]
    1668 000001d8 E000              B         ||$C$L20||            ; [DPU_V7M3_PIPE] |678|  ; [ORIG 16-BIT INS]
    1669                            ; BRANCH OCCURS {||$C$L20||}     ; [] |678| 
    1670                    ;* --------------------------------------------------------------------------*
    1671 000001da           ||$C$L19||:    
    1672 000001da 2018              MOVS      A1, #24               ; [DPU_V7M3_PIPE] |678|  ; [ORIG 16-BIT INS]
    1673                    ;* --------------------------------------------------------------------------*
    1674 000001dc           ||$C$L20||:    
    1675 000001dc 9002              STR       A1, [SP, #8]          ; [DPU_V7M3_PIPE] |678|  ; [ORIG 16-BIT INS]
    1676                            .dwpsn  file "../driverlib/lcd.c",line 683,column 5,is_stmt,isa 1
    1677                    ;----------------------------------------------------------------------
    1678                    ; 683 | return((uint16_t)HWREG(ui32Base + ui32Addr));                          
    1679                    ;----------------------------------------------------------------------
    1680 000001de 9800              LDR       A1, [SP, #0]          ; [DPU_V7M3_PIPE] |683|  ; [ORIG 16-BIT INS]
    1681 000001e0 9902              LDR       A2, [SP, #8]          ; [DPU_V7M3_PIPE] |683|  ; [ORIG 16-BIT INS]
    1682 000001e2 5808              LDR       A1, [A2, +A1]         ; [DPU_V7M3_PIPE] |683|  ; [ORIG 16-BIT INS]
    1683 000001e4 B280              UXTH      A1, A1                ; [DPU_V7M3_PIPE] |683|  ; [ORIG 16-BIT INS]
    1684                            .dwpsn  file "../driverlib/lcd.c",line 684,column 1,is_stmt,isa 1
    1685 000001e6 B004              ADD       SP, SP, #16           ; [DPU_V7M3_PIPE]  ; [ORIG 16-BIT INS]
    1686                            .dwcfi  cfa_offset, 0
    1687                    $C$DW$101       .dwtag  DW_TAG_TI_branch
    1688                            .dwattr $C$DW$101, DW_AT_low_pc(0x00)
    1689                            .dwattr $C$DW$101, DW_AT_TI_return
    1690                    
    1691 000001e8 4770              BX        LR                    ; [DPU_V7M3_PIPE]  ; [ORIG 16-BIT INS]
    1692                            ; BRANCH OCCURS                  ; [] 
    1693                            .dwattr $C$DW$93, DW_AT_TI_end_file("../driverlib/lcd.c")
    1694                            .dwattr $C$DW$93, DW_AT_TI_end_line(0x2ac)
    1695                            .dwattr $C$DW$93, DW_AT_TI_end_column(0x01)
    1696                            .dwendentry
    1697                            .dwendtag $C$DW$93
    1698                    
    1699 000001ea                   .sect   ".text"
    1700                            .clink
    1701                            .thumbfunc LCDIDDDMAWrite
    1702 000001ea                   .thumb
    1703                            .global LCDIDDDMAWrite
    1704                    
    1705                    $C$DW$102       .dwtag  DW_TAG_subprogram
TI ARM Assembler Unix v18.1.1 Fri Jul  3 20:08:25 2020

Tools Copyright (c) 1996-2017 Texas Instruments Incorporated
lcd.asm                                                              PAGE   32

    1706                            .dwattr $C$DW$102, DW_AT_name("LCDIDDDMAWrite")
    1707                            .dwattr $C$DW$102, DW_AT_low_pc(LCDIDDDMAWrite)
    1708                            .dwattr $C$DW$102, DW_AT_high_pc(0x00)
    1709                            .dwattr $C$DW$102, DW_AT_TI_symbol_name("LCDIDDDMAWrite")
    1710                            .dwattr $C$DW$102, DW_AT_external
    1711                            .dwattr $C$DW$102, DW_AT_TI_begin_file("../driverlib/lcd.c")
    1712                            .dwattr $C$DW$102, DW_AT_TI_begin_line(0x2d1)
    1713                            .dwattr $C$DW$102, DW_AT_TI_begin_column(0x01)
    1714                            .dwattr $C$DW$102, DW_AT_decl_file("../driverlib/lcd.c")
    1715                            .dwattr $C$DW$102, DW_AT_decl_line(0x2d1)
    1716                            .dwattr $C$DW$102, DW_AT_decl_column(0x01)
    1717                            .dwattr $C$DW$102, DW_AT_TI_max_frame_size(0x10)
    1718                            .dwpsn  file "../driverlib/lcd.c",line 723,column 1,is_stmt,address LCDIDDDMAWrite,isa 1
    1719                    
    1720                            .dwfde $C$DW$CIE, LCDIDDDMAWrite
    1721                    $C$DW$103       .dwtag  DW_TAG_formal_parameter
    1722                            .dwattr $C$DW$103, DW_AT_name("ui32Base")
    1723                            .dwattr $C$DW$103, DW_AT_TI_symbol_name("ui32Base")
    1724                            .dwattr $C$DW$103, DW_AT_type(*$C$DW$T$25)
    1725                            .dwattr $C$DW$103, DW_AT_location[DW_OP_reg0]
    1726                    
    1727                    $C$DW$104       .dwtag  DW_TAG_formal_parameter
    1728                            .dwattr $C$DW$104, DW_AT_name("ui32CS")
    1729                            .dwattr $C$DW$104, DW_AT_TI_symbol_name("ui32CS")
    1730                            .dwattr $C$DW$104, DW_AT_type(*$C$DW$T$25)
    1731                            .dwattr $C$DW$104, DW_AT_location[DW_OP_reg1]
    1732                    
    1733                    $C$DW$105       .dwtag  DW_TAG_formal_parameter
    1734                            .dwattr $C$DW$105, DW_AT_name("pui32Data")
    1735                            .dwattr $C$DW$105, DW_AT_TI_symbol_name("pui32Data")
    1736                            .dwattr $C$DW$105, DW_AT_type(*$C$DW$T$50)
    1737                            .dwattr $C$DW$105, DW_AT_location[DW_OP_reg2]
    1738                    
    1739                    $C$DW$106       .dwtag  DW_TAG_formal_parameter
    1740                            .dwattr $C$DW$106, DW_AT_name("ui32Count")
    1741                            .dwattr $C$DW$106, DW_AT_TI_symbol_name("ui32Count")
    1742                            .dwattr $C$DW$106, DW_AT_type(*$C$DW$T$25)
    1743                            .dwattr $C$DW$106, DW_AT_location[DW_OP_reg3]
    1744                    
    1745                    ;----------------------------------------------------------------------
    1746                    ; 721 | LCDIDDDMAWrite(uint32_t ui32Base, uint32_t ui32CS, const uint32_t *pui3
    1747                    ;     | 2Data,                                                                 
    1748                    ; 722 | uint32_t ui32Count)                                                    
    1749                    ;----------------------------------------------------------------------
    1750                    
    1751                    ;*****************************************************************************
    1752                    ;* FUNCTION NAME: LCDIDDDMAWrite                                             *
    1753                    ;*                                                                           *
    1754                    ;*   Regs Modified     : A1,A2,A3,SP,SR                                      *
    1755                    ;*   Regs Used         : A1,A2,A3,A4,SP,LR,SR                                *
    1756                    ;*   Local Frame Size  : 0 Args + 16 Auto + 0 Save = 16 byte                 *
    1757                    ;*****************************************************************************
    1758 000001ea           LCDIDDDMAWrite:
    1759                    ;* --------------------------------------------------------------------------*
    1760                            .dwcfi  cfa_offset, 0
TI ARM Assembler Unix v18.1.1 Fri Jul  3 20:08:25 2020

Tools Copyright (c) 1996-2017 Texas Instruments Incorporated
lcd.asm                                                              PAGE   33

    1761 000001ea 0D10F1AD          SUB       SP, SP, #16           ; [DPU_V7M3_PIPE]  ; [KEEP 32-BIT INS]
    1762                            .dwcfi  cfa_offset, 16
    1763                    $C$DW$107       .dwtag  DW_TAG_variable
    1764                            .dwattr $C$DW$107, DW_AT_name("ui32Base")
    1765                            .dwattr $C$DW$107, DW_AT_TI_symbol_name("ui32Base")
    1766                            .dwattr $C$DW$107, DW_AT_type(*$C$DW$T$25)
    1767                            .dwattr $C$DW$107, DW_AT_location[DW_OP_breg13 0]
    1768                    
    1769                    $C$DW$108       .dwtag  DW_TAG_variable
    1770                            .dwattr $C$DW$108, DW_AT_name("ui32CS")
    1771                            .dwattr $C$DW$108, DW_AT_TI_symbol_name("ui32CS")
    1772                            .dwattr $C$DW$108, DW_AT_type(*$C$DW$T$25)
    1773                            .dwattr $C$DW$108, DW_AT_location[DW_OP_breg13 4]
    1774                    
    1775                    $C$DW$109       .dwtag  DW_TAG_variable
    1776                            .dwattr $C$DW$109, DW_AT_name("pui32Data")
    1777                            .dwattr $C$DW$109, DW_AT_TI_symbol_name("pui32Data")
    1778                            .dwattr $C$DW$109, DW_AT_type(*$C$DW$T$50)
    1779                            .dwattr $C$DW$109, DW_AT_location[DW_OP_breg13 8]
    1780                    
    1781                    $C$DW$110       .dwtag  DW_TAG_variable
    1782                            .dwattr $C$DW$110, DW_AT_name("ui32Count")
    1783                            .dwattr $C$DW$110, DW_AT_TI_symbol_name("ui32Count")
    1784                            .dwattr $C$DW$110, DW_AT_type(*$C$DW$T$25)
    1785                            .dwattr $C$DW$110, DW_AT_location[DW_OP_breg13 12]
    1786                    
    1787                    ;----------------------------------------------------------------------
    1788                    ; 724 | //                                                                     
    1789                    ; 725 | // Sanity check parameters.                                            
    1790                    ; 726 | //                                                                     
    1791                    ; 727 | ASSERT(ui32Base == LCD0_BASE);                                         
    1792                    ; 728 | ASSERT((ui32CS == 0) || (ui32CS == 1));                                
    1793                    ; 729 | ASSERT(!((uint32_t)pui32Data & 3));                                    
    1794                    ; 730 | ASSERT(!(ui32Count & 1));                                              
    1795                    ; 732 | //                                                                     
    1796                    ; 733 | // Make sure DMA is disabled so that enabling it triggers this new     
    1797                    ; 734 | // transfer.                                                           
    1798                    ; 735 | //                                                                     
    1799                    ;----------------------------------------------------------------------
    1800 000001ee 9303              STR       A4, [SP, #12]         ; [DPU_V7M3_PIPE] |723|  ; [ORIG 16-BIT INS]
    1801 000001f0 9202              STR       A3, [SP, #8]          ; [DPU_V7M3_PIPE] |723|  ; [ORIG 16-BIT INS]
    1802 000001f2 9101              STR       A2, [SP, #4]          ; [DPU_V7M3_PIPE] |723|  ; [ORIG 16-BIT INS]
    1803 000001f4 9000              STR       A1, [SP, #0]          ; [DPU_V7M3_PIPE] |723|  ; [ORIG 16-BIT INS]
    1804                            .dwpsn  file "../driverlib/lcd.c",line 736,column 5,is_stmt,isa 1
    1805                    ;----------------------------------------------------------------------
    1806                    ; 736 | HWREG(ui32Base + LCD_O_LIDDCTL) &= ~LCD_LIDDCTL_DMAEN;                 
    1807                    ; 738 | //                                                                     
    1808                    ; 739 | // Set up the transfer.  Note that the ceiling register must contain th
    1809                    ;     | e                                                                      
    1810                    ; 740 | // address of the last word which contains data we want transfered and
    1811                    ;     | NOT                                                                    
    1812                    ; 741 | // the first location after the data we want written.                  
    1813                    ; 742 | //                                                                     
    1814                    ;----------------------------------------------------------------------
    1815 000001f6 9800              LDR       A1, [SP, #0]          ; [DPU_V7M3_PIPE] |736|  ; [ORIG 16-BIT INS]
TI ARM Assembler Unix v18.1.1 Fri Jul  3 20:08:25 2020

Tools Copyright (c) 1996-2017 Texas Instruments Incorporated
lcd.asm                                                              PAGE   34

    1816 000001f8 300C              ADDS      A1, A1, #12           ; [DPU_V7M3_PIPE] |736|  ; [ORIG 16-BIT INS]
    1817 000001fa 6801              LDR       A2, [A1, #0]          ; [DPU_V7M3_PIPE] |736|  ; [ORIG 16-BIT INS]
    1818 000001fc 7180F421          BIC       A2, A2, #256          ; [DPU_V7M3_PIPE] |736|  ; [KEEP 32-BIT INS]
    1819 00000200 6001              STR       A2, [A1, #0]          ; [DPU_V7M3_PIPE] |736|  ; [ORIG 16-BIT INS]
    1820                            .dwpsn  file "../driverlib/lcd.c",line 743,column 5,is_stmt,isa 1
    1821                    ;----------------------------------------------------------------------
    1822                    ; 743 | HWREG(ui32Base + LCD_O_DMABAFB0) = (uint32_t)pui32Data;                
    1823                    ;----------------------------------------------------------------------
    1824 00000202 9900              LDR       A2, [SP, #0]          ; [DPU_V7M3_PIPE] |743|  ; [ORIG 16-BIT INS]
    1825 00000204 9802              LDR       A1, [SP, #8]          ; [DPU_V7M3_PIPE] |743|  ; [ORIG 16-BIT INS]
    1826 00000206 6448              STR       A1, [A2, #68]         ; [DPU_V7M3_PIPE] |743|  ; [ORIG 16-BIT INS]
    1827                            .dwpsn  file "../driverlib/lcd.c",line 744,column 5,is_stmt,isa 1
    1828                    ;----------------------------------------------------------------------
    1829                    ; 744 | HWREG(ui32Base + LCD_O_DMACAFB0) = ((uint32_t)pui32Data +              
    1830                    ; 745 |                                     (ui32Count * 2) - 4);              
    1831                    ; 747 | //                                                                     
    1832                    ; 748 | // Tell the controller which CS to use for the DMA transaction.        
    1833                    ; 749 | //                                                                     
    1834                    ;----------------------------------------------------------------------
    1835 00000208 9A03              LDR       A3, [SP, #12]         ; [DPU_V7M3_PIPE] |744|  ; [ORIG 16-BIT INS]
    1836 0000020a 9802              LDR       A1, [SP, #8]          ; [DPU_V7M3_PIPE] |744|  ; [ORIG 16-BIT INS]
    1837 0000020c 9900              LDR       A2, [SP, #0]          ; [DPU_V7M3_PIPE] |744|  ; [ORIG 16-BIT INS]
    1838 0000020e 0042EB00          ADD       A1, A1, A3, LSL #1    ; [DPU_V7M3_PIPE] |744|  ; [KEEP 32-BIT INS]
    1839 00000212 1F00              SUBS      A1, A1, #4            ; [DPU_V7M3_PIPE] |744|  ; [ORIG 16-BIT INS]
    1840 00000214 6488              STR       A1, [A2, #72]         ; [DPU_V7M3_PIPE] |744|  ; [ORIG 16-BIT INS]
    1841                            .dwpsn  file "../driverlib/lcd.c",line 750,column 5,is_stmt,isa 1
    1842                    ;----------------------------------------------------------------------
    1843                    ; 750 | if(!ui32CS)                                                            
    1844                    ; 752 |     //                                                                 
    1845                    ; 753 |     // Use CS0.                                                        
    1846                    ; 754 |     //                                                                 
    1847                    ;----------------------------------------------------------------------
    1848 00000216 9801              LDR       A1, [SP, #4]          ; [DPU_V7M3_PIPE] |750|  ; [ORIG 16-BIT INS]
    1849 00000218 B930              CBNZ      A1, ||$C$L21||        ; []  ; [ORIG 16-BIT INS]
    1850                            ; BRANCHCC OCCURS {||$C$L21||}   ; [] |750| 
    1851                    ;* --------------------------------------------------------------------------*
    1852                            .dwpsn  file "../driverlib/lcd.c",line 755,column 9,is_stmt,isa 1
    1853                    ;----------------------------------------------------------------------
    1854                    ; 755 | HWREG(ui32Base + LCD_O_LIDDCTL) &= ~LCD_LIDDCTL_DMACS;                 
    1855                    ;----------------------------------------------------------------------
    1856 0000021a 9800              LDR       A1, [SP, #0]          ; [DPU_V7M3_PIPE] |755|  ; [ORIG 16-BIT INS]
    1857 0000021c 300C              ADDS      A1, A1, #12           ; [DPU_V7M3_PIPE] |755|  ; [ORIG 16-BIT INS]
    1858 0000021e 6801              LDR       A2, [A1, #0]          ; [DPU_V7M3_PIPE] |755|  ; [ORIG 16-BIT INS]
    1859 00000220 7100F421          BIC       A2, A2, #512          ; [DPU_V7M3_PIPE] |755|  ; [KEEP 32-BIT INS]
    1860 00000224 6001              STR       A2, [A1, #0]          ; [DPU_V7M3_PIPE] |755|  ; [ORIG 16-BIT INS]
    1861                            .dwpsn  file "../driverlib/lcd.c",line 756,column 5,is_stmt,isa 1
    1862                    ;----------------------------------------------------------------------
    1863                    ; 757 | else                                                                   
    1864                    ; 759 |     //                                                                 
    1865                    ; 760 |     // Use CS1.                                                        
    1866                    ; 761 |     //                                                                 
    1867                    ;----------------------------------------------------------------------
    1868 00000226 E005              B         ||$C$L22||            ; [DPU_V7M3_PIPE] |756|  ; [ORIG 16-BIT INS]
    1869                            ; BRANCH OCCURS {||$C$L22||}     ; [] |756| 
    1870                    ;* --------------------------------------------------------------------------*
TI ARM Assembler Unix v18.1.1 Fri Jul  3 20:08:25 2020

Tools Copyright (c) 1996-2017 Texas Instruments Incorporated
lcd.asm                                                              PAGE   35

    1871 00000228           ||$C$L21||:    
    1872                            .dwpsn  file "../driverlib/lcd.c",line 762,column 9,is_stmt,isa 1
    1873                    ;----------------------------------------------------------------------
    1874                    ; 762 | HWREG(ui32Base + LCD_O_LIDDCTL) |= LCD_LIDDCTL_DMACS;                  
    1875                    ; 765 | //                                                                     
    1876                    ; 766 | // Enable the DMA engine and start the transaction.                    
    1877                    ; 767 | //                                                                     
    1878                    ;----------------------------------------------------------------------
    1879 00000228 9800              LDR       A1, [SP, #0]          ; [DPU_V7M3_PIPE] |762|  ; [ORIG 16-BIT INS]
    1880 0000022a 300C              ADDS      A1, A1, #12           ; [DPU_V7M3_PIPE] |762|  ; [ORIG 16-BIT INS]
    1881 0000022c 6801              LDR       A2, [A1, #0]          ; [DPU_V7M3_PIPE] |762|  ; [ORIG 16-BIT INS]
    1882 0000022e 7100F441          ORR       A2, A2, #512          ; [DPU_V7M3_PIPE] |762|  ; [KEEP 32-BIT INS]
    1883 00000232 6001              STR       A2, [A1, #0]          ; [DPU_V7M3_PIPE] |762|  ; [ORIG 16-BIT INS]
    1884                    ;* --------------------------------------------------------------------------*
    1885 00000234           ||$C$L22||:    
    1886                            .dwpsn  file "../driverlib/lcd.c",line 768,column 5,is_stmt,isa 1
    1887                    ;----------------------------------------------------------------------
    1888                    ; 768 | HWREG(ui32Base + LCD_O_LIDDCTL) |= LCD_LIDDCTL_DMAEN;                  
    1889                    ;----------------------------------------------------------------------
    1890 00000234 9800              LDR       A1, [SP, #0]          ; [DPU_V7M3_PIPE] |768|  ; [ORIG 16-BIT INS]
    1891 00000236 300C              ADDS      A1, A1, #12           ; [DPU_V7M3_PIPE] |768|  ; [ORIG 16-BIT INS]
    1892 00000238 6801              LDR       A2, [A1, #0]          ; [DPU_V7M3_PIPE] |768|  ; [ORIG 16-BIT INS]
    1893 0000023a 7180F441          ORR       A2, A2, #256          ; [DPU_V7M3_PIPE] |768|  ; [KEEP 32-BIT INS]
    1894 0000023e 6001              STR       A2, [A1, #0]          ; [DPU_V7M3_PIPE] |768|  ; [ORIG 16-BIT INS]
    1895                            .dwpsn  file "../driverlib/lcd.c",line 769,column 1,is_stmt,isa 1
    1896 00000240 B004              ADD       SP, SP, #16           ; [DPU_V7M3_PIPE]  ; [ORIG 16-BIT INS]
    1897                            .dwcfi  cfa_offset, 0
    1898                    $C$DW$111       .dwtag  DW_TAG_TI_branch
    1899                            .dwattr $C$DW$111, DW_AT_low_pc(0x00)
    1900                            .dwattr $C$DW$111, DW_AT_TI_return
    1901                    
    1902 00000242 4770              BX        LR                    ; [DPU_V7M3_PIPE]  ; [ORIG 16-BIT INS]
    1903                            ; BRANCH OCCURS                  ; [] 
    1904                            .dwattr $C$DW$102, DW_AT_TI_end_file("../driverlib/lcd.c")
    1905                            .dwattr $C$DW$102, DW_AT_TI_end_line(0x301)
    1906                            .dwattr $C$DW$102, DW_AT_TI_end_column(0x01)
    1907                            .dwendentry
    1908                            .dwendtag $C$DW$102
    1909                    
    1910 00000244                   .sect   ".text"
    1911                            .clink
    1912                            .thumbfunc LCDRasterConfigSet
    1913 00000244                   .thumb
    1914                            .global LCDRasterConfigSet
    1915                    
    1916                    $C$DW$112       .dwtag  DW_TAG_subprogram
    1917                            .dwattr $C$DW$112, DW_AT_name("LCDRasterConfigSet")
    1918                            .dwattr $C$DW$112, DW_AT_low_pc(LCDRasterConfigSet)
    1919                            .dwattr $C$DW$112, DW_AT_high_pc(0x00)
    1920                            .dwattr $C$DW$112, DW_AT_TI_symbol_name("LCDRasterConfigSet")
    1921                            .dwattr $C$DW$112, DW_AT_external
    1922                            .dwattr $C$DW$112, DW_AT_TI_begin_file("../driverlib/lcd.c")
    1923                            .dwattr $C$DW$112, DW_AT_TI_begin_line(0x34e)
    1924                            .dwattr $C$DW$112, DW_AT_TI_begin_column(0x01)
    1925                            .dwattr $C$DW$112, DW_AT_decl_file("../driverlib/lcd.c")
TI ARM Assembler Unix v18.1.1 Fri Jul  3 20:08:25 2020

Tools Copyright (c) 1996-2017 Texas Instruments Incorporated
lcd.asm                                                              PAGE   36

    1926                            .dwattr $C$DW$112, DW_AT_decl_line(0x34e)
    1927                            .dwattr $C$DW$112, DW_AT_decl_column(0x01)
    1928                            .dwattr $C$DW$112, DW_AT_TI_max_frame_size(0x10)
    1929                            .dwpsn  file "../driverlib/lcd.c",line 848,column 1,is_stmt,address LCDRasterConfigSet,isa 1
    1930                    
    1931                            .dwfde $C$DW$CIE, LCDRasterConfigSet
    1932                    $C$DW$113       .dwtag  DW_TAG_formal_parameter
    1933                            .dwattr $C$DW$113, DW_AT_name("ui32Base")
    1934                            .dwattr $C$DW$113, DW_AT_TI_symbol_name("ui32Base")
    1935                            .dwattr $C$DW$113, DW_AT_type(*$C$DW$T$25)
    1936                            .dwattr $C$DW$113, DW_AT_location[DW_OP_reg0]
    1937                    
    1938                    $C$DW$114       .dwtag  DW_TAG_formal_parameter
    1939                            .dwattr $C$DW$114, DW_AT_name("ui32Config")
    1940                            .dwattr $C$DW$114, DW_AT_TI_symbol_name("ui32Config")
    1941                            .dwattr $C$DW$114, DW_AT_type(*$C$DW$T$25)
    1942                            .dwattr $C$DW$114, DW_AT_location[DW_OP_reg1]
    1943                    
    1944                    $C$DW$115       .dwtag  DW_TAG_formal_parameter
    1945                            .dwattr $C$DW$115, DW_AT_name("ui8PalLoadDelay")
    1946                            .dwattr $C$DW$115, DW_AT_TI_symbol_name("ui8PalLoadDelay")
    1947                            .dwattr $C$DW$115, DW_AT_type(*$C$DW$T$22)
    1948                            .dwattr $C$DW$115, DW_AT_location[DW_OP_reg2]
    1949                    
    1950                    ;----------------------------------------------------------------------
    1951                    ; 846 | LCDRasterConfigSet(uint32_t ui32Base, uint32_t ui32Config,             
    1952                    ; 847 | uint8_t ui8PalLoadDelay)                                               
    1953                    ;----------------------------------------------------------------------
    1954                    
    1955                    ;*****************************************************************************
    1956                    ;* FUNCTION NAME: LCDRasterConfigSet                                         *
    1957                    ;*                                                                           *
    1958                    ;*   Regs Modified     : A1,A2,A3,SP                                         *
    1959                    ;*   Regs Used         : A1,A2,A3,SP,LR                                      *
    1960                    ;*   Local Frame Size  : 0 Args + 12 Auto + 0 Save = 12 byte                 *
    1961                    ;*****************************************************************************
    1962 00000244           LCDRasterConfigSet:
    1963                    ;* --------------------------------------------------------------------------*
    1964                            .dwcfi  cfa_offset, 0
    1965 00000244 0D10F1AD          SUB       SP, SP, #16           ; [DPU_V7M3_PIPE]  ; [KEEP 32-BIT INS]
    1966                            .dwcfi  cfa_offset, 16
    1967                    $C$DW$116       .dwtag  DW_TAG_variable
    1968                            .dwattr $C$DW$116, DW_AT_name("ui32Base")
    1969                            .dwattr $C$DW$116, DW_AT_TI_symbol_name("ui32Base")
    1970                            .dwattr $C$DW$116, DW_AT_type(*$C$DW$T$25)
    1971                            .dwattr $C$DW$116, DW_AT_location[DW_OP_breg13 0]
    1972                    
    1973                    $C$DW$117       .dwtag  DW_TAG_variable
    1974                            .dwattr $C$DW$117, DW_AT_name("ui32Config")
    1975                            .dwattr $C$DW$117, DW_AT_TI_symbol_name("ui32Config")
    1976                            .dwattr $C$DW$117, DW_AT_type(*$C$DW$T$25)
    1977                            .dwattr $C$DW$117, DW_AT_location[DW_OP_breg13 4]
    1978                    
    1979                    $C$DW$118       .dwtag  DW_TAG_variable
    1980                            .dwattr $C$DW$118, DW_AT_name("ui8PalLoadDelay")
TI ARM Assembler Unix v18.1.1 Fri Jul  3 20:08:25 2020

Tools Copyright (c) 1996-2017 Texas Instruments Incorporated
lcd.asm                                                              PAGE   37

    1981                            .dwattr $C$DW$118, DW_AT_TI_symbol_name("ui8PalLoadDelay")
    1982                            .dwattr $C$DW$118, DW_AT_type(*$C$DW$T$22)
    1983                            .dwattr $C$DW$118, DW_AT_location[DW_OP_breg13 8]
    1984                    
    1985                    ;----------------------------------------------------------------------
    1986                    ; 849 | //                                                                     
    1987                    ; 850 | // Sanity check parameters.                                            
    1988                    ; 851 | //                                                                     
    1989                    ; 852 | ASSERT(ui32Base == LCD0_BASE);                                         
    1990                    ; 853 | ASSERT(!(ui32Config & ~(RASTER_FMT_ACTIVE_24BPP_PACKED |               
    1991                    ; 854 |                         RASTER_FMT_ACTIVE_24BPP_UNPACKED |             
    1992                    ; 855 |                         RASTER_FMT_ACTIVE_PALETTIZED_12BIT |           
    1993                    ; 856 |                         RASTER_FMT_ACTIVE_PALETTIZED_16BIT |           
    1994                    ; 857 |                         RASTER_FMT_PASSIVE_MONO_4PIX |                 
    1995                    ; 858 |                         RASTER_FMT_PASSIVE_MONO_8PIX |                 
    1996                    ; 859 |                         RASTER_FMT_PASSIVE_PALETTIZED |                
    1997                    ; 860 |                         RASTER_FMT_PASSIVE_COLOR_12BIT |               
    1998                    ; 861 |                         RASTER_FMT_PASSIVE_COLOR_16BIT |               
    1999                    ; 862 |                         RASTER_ACTVID_DURING_BLANK |                   
    2000                    ; 863 |                         RASTER_NIBBLE_MODE_ENABLED |                   
    2001                    ; 864 |                         RASTER_LOAD_DATA_ONLY |                        
    2002                    ; 865 |                         RASTER_LOAD_PALETTE_ONLY |                     
    2003                    ; 866 |                         RASTER_READ_ORDER_REVERSED)));                 
    2004                    ; 868 | //                                                                     
    2005                    ; 869 | // Write the raster control register.                                  
    2006                    ; 870 | //                                                                     
    2007                    ;----------------------------------------------------------------------
    2008 00000248 2008F88D          STRB      A3, [SP, #8]          ; [DPU_V7M3_PIPE] |848|  ; [KEEP 32-BIT INS]
    2009 0000024c 9101              STR       A2, [SP, #4]          ; [DPU_V7M3_PIPE] |848|  ; [ORIG 16-BIT INS]
    2010 0000024e 9000              STR       A1, [SP, #0]          ; [DPU_V7M3_PIPE] |848|  ; [ORIG 16-BIT INS]
    2011                            .dwpsn  file "../driverlib/lcd.c",line 871,column 5,is_stmt,isa 1
    2012                    ;----------------------------------------------------------------------
    2013                    ; 871 | HWREG(ui32Base + LCD_O_RASTRCTL) = (ui32Config |                       
    2014                    ; 872 |                                     ((uint32_t)ui8PalLoadDelay <<      
    2015                    ; 873 |                                      LCD_RASTRCTL_REQDLY_S));          
    2016                    ;----------------------------------------------------------------------
    2017 00000250 2008F89D          LDRB      A3, [SP, #8]          ; [DPU_V7M3_PIPE] |871|  ; [KEEP 32-BIT INS]
    2018 00000254 9801              LDR       A1, [SP, #4]          ; [DPU_V7M3_PIPE] |871|  ; [ORIG 16-BIT INS]
    2019 00000256 9900              LDR       A2, [SP, #0]          ; [DPU_V7M3_PIPE] |871|  ; [ORIG 16-BIT INS]
    2020 00000258 3002EA40          ORR       A1, A1, A3, LSL #12   ; [DPU_V7M3_PIPE] |871|  ; [KEEP 32-BIT INS]
    2021 0000025c 6288              STR       A1, [A2, #40]         ; [DPU_V7M3_PIPE] |871|  ; [ORIG 16-BIT INS]
    2022                            .dwpsn  file "../driverlib/lcd.c",line 874,column 1,is_stmt,isa 1
    2023 0000025e B004              ADD       SP, SP, #16           ; [DPU_V7M3_PIPE]  ; [ORIG 16-BIT INS]
    2024                            .dwcfi  cfa_offset, 0
    2025                    $C$DW$119       .dwtag  DW_TAG_TI_branch
    2026                            .dwattr $C$DW$119, DW_AT_low_pc(0x00)
    2027                            .dwattr $C$DW$119, DW_AT_TI_return
    2028                    
    2029 00000260 4770              BX        LR                    ; [DPU_V7M3_PIPE]  ; [ORIG 16-BIT INS]
    2030                            ; BRANCH OCCURS                  ; [] 
    2031                            .dwattr $C$DW$112, DW_AT_TI_end_file("../driverlib/lcd.c")
    2032                            .dwattr $C$DW$112, DW_AT_TI_end_line(0x36a)
    2033                            .dwattr $C$DW$112, DW_AT_TI_end_column(0x01)
    2034                            .dwendentry
    2035                            .dwendtag $C$DW$112
TI ARM Assembler Unix v18.1.1 Fri Jul  3 20:08:25 2020

Tools Copyright (c) 1996-2017 Texas Instruments Incorporated
lcd.asm                                                              PAGE   38

    2036                    
    2037                    ;******************************************************************************
    2038                    ;* CONSTANT TABLE                                                             *
    2039                    ;******************************************************************************
    2040 00000262                   .sect   ".text"
    2041                            .align  4
    2042 00000262 007046C0  ||$C$CON1||:    .bits   1141178480,32
         00000266 00004405 
    2043 00000268                   .sect   ".text"
    2044                            .clink
    2045                            .thumbfunc LCDRasterTimingSet
    2046 00000268                   .thumb
    2047                            .global LCDRasterTimingSet
    2048                    
    2049                    $C$DW$120       .dwtag  DW_TAG_subprogram
    2050                            .dwattr $C$DW$120, DW_AT_name("LCDRasterTimingSet")
    2051                            .dwattr $C$DW$120, DW_AT_low_pc(LCDRasterTimingSet)
    2052                            .dwattr $C$DW$120, DW_AT_high_pc(0x00)
    2053                            .dwattr $C$DW$120, DW_AT_TI_symbol_name("LCDRasterTimingSet")
    2054                            .dwattr $C$DW$120, DW_AT_external
    2055                            .dwattr $C$DW$120, DW_AT_TI_begin_file("../driverlib/lcd.c")
    2056                            .dwattr $C$DW$120, DW_AT_TI_begin_line(0x37e)
    2057                            .dwattr $C$DW$120, DW_AT_TI_begin_column(0x01)
    2058                            .dwattr $C$DW$120, DW_AT_decl_file("../driverlib/lcd.c")
    2059                            .dwattr $C$DW$120, DW_AT_decl_line(0x37e)
    2060                            .dwattr $C$DW$120, DW_AT_decl_column(0x01)
    2061                            .dwattr $C$DW$120, DW_AT_TI_max_frame_size(0x20)
    2062                            .dwpsn  file "../driverlib/lcd.c",line 895,column 1,is_stmt,address LCDRasterTimingSet,isa 1
    2063                    
    2064                            .dwfde $C$DW$CIE, LCDRasterTimingSet
    2065                    $C$DW$121       .dwtag  DW_TAG_formal_parameter
    2066                            .dwattr $C$DW$121, DW_AT_name("ui32Base")
    2067                            .dwattr $C$DW$121, DW_AT_TI_symbol_name("ui32Base")
    2068                            .dwattr $C$DW$121, DW_AT_type(*$C$DW$T$25)
    2069                            .dwattr $C$DW$121, DW_AT_location[DW_OP_reg0]
    2070                    
    2071                    $C$DW$122       .dwtag  DW_TAG_formal_parameter
    2072                            .dwattr $C$DW$122, DW_AT_name("pTiming")
    2073                            .dwattr $C$DW$122, DW_AT_TI_symbol_name("pTiming")
    2074                            .dwattr $C$DW$122, DW_AT_type(*$C$DW$T$36)
    2075                            .dwattr $C$DW$122, DW_AT_location[DW_OP_reg1]
    2076                    
    2077                    ;----------------------------------------------------------------------
    2078                    ; 894 | LCDRasterTimingSet(uint32_t ui32Base, const tLCDRasterTiming *pTiming) 
    2079                    ;----------------------------------------------------------------------
    2080                    
    2081                    ;*****************************************************************************
    2082                    ;* FUNCTION NAME: LCDRasterTimingSet                                         *
    2083                    ;*                                                                           *
    2084                    ;*   Regs Modified     : A1,A2,A3,A4,V1,V2,SP,SR                             *
    2085                    ;*   Regs Used         : A1,A2,A3,A4,V1,V2,SP,LR,SR                          *
    2086                    ;*   Local Frame Size  : 0 Args + 20 Auto + 12 Save = 32 byte                *
    2087                    ;*****************************************************************************
    2088 00000268           LCDRasterTimingSet:
    2089                    ;* --------------------------------------------------------------------------*
TI ARM Assembler Unix v18.1.1 Fri Jul  3 20:08:25 2020

Tools Copyright (c) 1996-2017 Texas Instruments Incorporated
lcd.asm                                                              PAGE   39

    2090                            .dwcfi  cfa_offset, 0
    2091 00000268 B530              PUSH      {V1, V2, LR}          ; [DPU_V7M3_PIPE]  ; [ORIG 16-BIT INS]
    2092                            .dwcfi  cfa_offset, 12
    2093                            .dwcfi  save_reg_to_mem, 14, -4
    2094                            .dwcfi  save_reg_to_mem, 5, -8
    2095                            .dwcfi  save_reg_to_mem, 4, -12
    2096 0000026a 0D14F1AD          SUB       SP, SP, #20           ; [DPU_V7M3_PIPE]  ; [KEEP 32-BIT INS]
    2097                            .dwcfi  cfa_offset, 32
    2098                    $C$DW$123       .dwtag  DW_TAG_variable
    2099                            .dwattr $C$DW$123, DW_AT_name("ui32Base")
    2100                            .dwattr $C$DW$123, DW_AT_TI_symbol_name("ui32Base")
    2101                            .dwattr $C$DW$123, DW_AT_type(*$C$DW$T$25)
    2102                            .dwattr $C$DW$123, DW_AT_location[DW_OP_breg13 0]
    2103                    
    2104                    $C$DW$124       .dwtag  DW_TAG_variable
    2105                            .dwattr $C$DW$124, DW_AT_name("pTiming")
    2106                            .dwattr $C$DW$124, DW_AT_TI_symbol_name("pTiming")
    2107                            .dwattr $C$DW$124, DW_AT_type(*$C$DW$T$36)
    2108                            .dwattr $C$DW$124, DW_AT_location[DW_OP_breg13 4]
    2109                    
    2110                    $C$DW$125       .dwtag  DW_TAG_variable
    2111                            .dwattr $C$DW$125, DW_AT_name("ui32T0")
    2112                            .dwattr $C$DW$125, DW_AT_TI_symbol_name("ui32T0")
    2113                            .dwattr $C$DW$125, DW_AT_type(*$C$DW$T$25)
    2114                            .dwattr $C$DW$125, DW_AT_location[DW_OP_breg13 8]
    2115                    
    2116                    $C$DW$126       .dwtag  DW_TAG_variable
    2117                            .dwattr $C$DW$126, DW_AT_name("ui32T1")
    2118                            .dwattr $C$DW$126, DW_AT_TI_symbol_name("ui32T1")
    2119                            .dwattr $C$DW$126, DW_AT_type(*$C$DW$T$25)
    2120                            .dwattr $C$DW$126, DW_AT_location[DW_OP_breg13 12]
    2121                    
    2122                    $C$DW$127       .dwtag  DW_TAG_variable
    2123                            .dwattr $C$DW$127, DW_AT_name("ui32T2")
    2124                            .dwattr $C$DW$127, DW_AT_TI_symbol_name("ui32T2")
    2125                            .dwattr $C$DW$127, DW_AT_type(*$C$DW$T$25)
    2126                            .dwattr $C$DW$127, DW_AT_location[DW_OP_breg13 16]
    2127                    
    2128                    ;----------------------------------------------------------------------
    2129                    ; 896 | uint32_t ui32T0, ui32T1, ui32T2;                                       
    2130                    ; 898 | //                                                                     
    2131                    ; 899 | // Sanity check parameters.                                            
    2132                    ; 900 | //                                                                     
    2133                    ; 901 | ASSERT(ui32Base == LCD0_BASE);                                         
    2134                    ; 902 | ASSERT(pTiming);                                                       
    2135                    ; 903 | ASSERT(!(pTiming->ui32Flags & ~(RASTER_TIMING_SYNCS_OPPOSITE_PIXCLK |  
    2136                    ; 904 |                                 RASTER_TIMING_SYNCS_ON_FALLING_PIXCLK |
    2137                    ; 905 |                                 RASTER_TIMING_SYNCS_ON_RISING_PIXCLK | 
    2138                    ; 906 |                                 RASTER_TIMING_ACTIVE_LOW_OE |          
    2139                    ; 907 |                                 RASTER_TIMING_ACTIVE_LOW_PIXCLK |      
    2140                    ; 908 |                                 RASTER_TIMING_ACTIVE_LOW_HSYNC |       
    2141                    ; 909 |                                 RASTER_TIMING_ACTIVE_LOW_VSYNC)));     
    2142                    ; 910 | ASSERT(pTiming->ui16PanelWidth && (pTiming->ui16PanelWidth <= 2048) && 
    2143                    ; 911 |        ((pTiming->ui16PanelWidth % 16) == 0));                         
    2144                    ; 912 | ASSERT(pTiming->ui16PanelHeight && (pTiming->ui16PanelHeight <= 2048));
TI ARM Assembler Unix v18.1.1 Fri Jul  3 20:08:25 2020

Tools Copyright (c) 1996-2017 Texas Instruments Incorporated
lcd.asm                                                              PAGE   40

    2145                    ; 913 | ASSERT(pTiming->ui16HFrontPorch && (pTiming->ui16HFrontPorch <= 1024));
    2146                    ; 914 | ASSERT(pTiming->ui16HBackPorch && (pTiming->ui16HBackPorch <= 1024));  
    2147                    ; 915 | ASSERT(pTiming->ui16HSyncWidth && (pTiming->ui16HSyncWidth <= 1024));  
    2148                    ; 916 | ASSERT(pTiming->ui8VSyncWidth && (pTiming->ui8VSyncWidth <= 64));      
    2149                    ; 918 | //                                                                     
    2150                    ; 919 | // Construct the values we need for the three raster timing registers. 
    2151                    ; 920 | //                                                                     
    2152                    ;----------------------------------------------------------------------
    2153 0000026e 9101              STR       A2, [SP, #4]          ; [DPU_V7M3_PIPE] |895|  ; [ORIG 16-BIT INS]
    2154 00000270 9000              STR       A1, [SP, #0]          ; [DPU_V7M3_PIPE] |895|  ; [ORIG 16-BIT INS]
    2155                            .dwpsn  file "../driverlib/lcd.c",line 921,column 5,is_stmt,isa 1
    2156                    ;----------------------------------------------------------------------
    2157                    ; 921 | ui32T0 = ((uint32_t)((pTiming->ui16HBackPorch - 1) & 0xFF) <<          
    2158                    ; 922 |           LCD_RASTRTIM0_HBP_S) |                                       
    2159                    ; 923 |          ((uint32_t)((pTiming->ui16HFrontPorch - 1) & 0xFF) <<         
    2160                    ; 924 |           LCD_RASTRTIM0_HFP_S) |                                       
    2161                    ; 925 |          ((uint32_t)((pTiming->ui16HSyncWidth - 1) & 0x3F) <<          
    2162                    ; 926 |           LCD_RASTRTIM0_HSW_S) |                                       
    2163                    ; 927 |          (((uint32_t)((pTiming->ui16PanelWidth - 1) & 0x3F0) >> 4) <<  
    2164                    ; 928 |           LCD_RASTRTIM0_PPL_S) |                                       
    2165                    ; 929 |          (((uint32_t)((pTiming->ui16PanelWidth - 1) & 0x400) >> 10) << 
    2166                    ; 930 |           LCD_RASTRTIM0_MSBPPL_S);                                     
    2167                    ;----------------------------------------------------------------------
    2168 00000272 9C01              LDR       V1, [SP, #4]          ; [DPU_V7M3_PIPE] |921|  ; [ORIG 16-BIT INS]
    2169 00000274 9B01              LDR       A4, [SP, #4]          ; [DPU_V7M3_PIPE] |921|  ; [ORIG 16-BIT INS]
    2170 00000276 9901              LDR       A2, [SP, #4]          ; [DPU_V7M3_PIPE] |921|  ; [ORIG 16-BIT INS]
    2171 00000278 9A01              LDR       A3, [SP, #4]          ; [DPU_V7M3_PIPE] |921|  ; [ORIG 16-BIT INS]
    2172 0000027a 9801              LDR       A1, [SP, #4]          ; [DPU_V7M3_PIPE] |921|  ; [ORIG 16-BIT INS]
    2173 0000027c 8964              LDRH      V1, [V1, #10]         ; [DPU_V7M3_PIPE] |921|  ; [ORIG 16-BIT INS]
    2174 0000027e 891B              LDRH      A4, [A4, #8]          ; [DPU_V7M3_PIPE] |921|  ; [ORIG 16-BIT INS]
    2175 00000280 8889              LDRH      A2, [A2, #4]          ; [DPU_V7M3_PIPE] |921|  ; [ORIG 16-BIT INS]
    2176 00000282 8992              LDRH      A3, [A3, #12]         ; [DPU_V7M3_PIPE] |921|  ; [ORIG 16-BIT INS]
    2177 00000284 8880              LDRH      A1, [A1, #4]          ; [DPU_V7M3_PIPE] |921|  ; [ORIG 16-BIT INS]
    2178 00000286 1E64              SUBS      V1, V1, #1            ; [DPU_V7M3_PIPE] |921|  ; [ORIG 16-BIT INS]
    2179 00000288 1E5B              SUBS      A4, A4, #1            ; [DPU_V7M3_PIPE] |921|  ; [ORIG 16-BIT INS]
    2180 0000028a 1E49              SUBS      A2, A2, #1            ; [DPU_V7M3_PIPE] |921|  ; [ORIG 16-BIT INS]
    2181 0000028c 1E52              SUBS      A3, A3, #1            ; [DPU_V7M3_PIPE] |921|  ; [ORIG 16-BIT INS]
    2182 0000028e 1E40              SUBS      A1, A1, #1            ; [DPU_V7M3_PIPE] |921|  ; [ORIG 16-BIT INS]
    2183 00000290 04FFF004          AND       V1, V1, #255          ; [DPU_V7M3_PIPE] |921|  ; [KEEP 32-BIT INS]
    2184 00000294 717CF401          AND       A2, A2, #1008         ; [DPU_V7M3_PIPE] |921|  ; [KEEP 32-BIT INS]
    2185 00000298 03FFF003          AND       A4, A4, #255          ; [DPU_V7M3_PIPE] |921|  ; [KEEP 32-BIT INS]
    2186 0000029c 6080F400          AND       A1, A1, #1024         ; [DPU_V7M3_PIPE] |921|  ; [KEEP 32-BIT INS]
    2187 000002a0 023FF002          AND       A3, A3, #63           ; [DPU_V7M3_PIPE] |921|  ; [KEEP 32-BIT INS]
    2188 000002a4 0624              LSLS      V1, V1, #24           ; [DPU_V7M3_PIPE] |921|  ; [ORIG 16-BIT INS]
    2189 000002a6 0909              LSRS      A2, A2, #4            ; [DPU_V7M3_PIPE] |921|  ; [ORIG 16-BIT INS]
    2190 000002a8 0A80              LSRS      A1, A1, #10           ; [DPU_V7M3_PIPE] |921|  ; [ORIG 16-BIT INS]
    2191 000002aa 4403EA44          ORR       V1, V1, A4, LSL #16   ; [DPU_V7M3_PIPE] |921|  ; [KEEP 32-BIT INS]
    2192 000002ae 2482EA44          ORR       V1, V1, A3, LSL #10   ; [DPU_V7M3_PIPE] |921|  ; [KEEP 32-BIT INS]
    2193 000002b2 1401EA44          ORR       V1, V1, A2, LSL #4    ; [DPU_V7M3_PIPE] |921|  ; [KEEP 32-BIT INS]
    2194 000002b6 04C0EA44          ORR       V1, V1, A1, LSL #3    ; [DPU_V7M3_PIPE] |921|  ; [KEEP 32-BIT INS]
    2195 000002ba 9402              STR       V1, [SP, #8]          ; [DPU_V7M3_PIPE] |921|  ; [ORIG 16-BIT INS]
    2196                            .dwpsn  file "../driverlib/lcd.c",line 931,column 5,is_stmt,isa 1
    2197                    ;----------------------------------------------------------------------
    2198                    ; 931 | ui32T1 = ((uint32_t)pTiming->ui8VBackPorch << LCD_RASTRTIM1_VBP_S) |   
    2199                    ; 932 |          ((uint32_t)pTiming->ui8VFrontPorch << LCD_RASTRTIM1_VFP_S) |  
TI ARM Assembler Unix v18.1.1 Fri Jul  3 20:08:25 2020

Tools Copyright (c) 1996-2017 Texas Instruments Incorporated
lcd.asm                                                              PAGE   41

    2200                    ; 933 |          ((uint32_t)((pTiming->ui8VSyncWidth - 1) & 0x3F) <<           
    2201                    ; 934 |           LCD_RASTRTIM1_VSW_S) |                                       
    2202                    ; 935 |          ((uint32_t)(pTiming->ui16PanelHeight - 1) & 0x3FF) <<         
    2203                    ; 936 |          LCD_RASTRTIM1_LPP_S;                                          
    2204                    ;----------------------------------------------------------------------
    2205 000002bc 9901              LDR       A2, [SP, #4]          ; [DPU_V7M3_PIPE] |931|  ; [ORIG 16-BIT INS]
    2206 000002be 9801              LDR       A1, [SP, #4]          ; [DPU_V7M3_PIPE] |931|  ; [ORIG 16-BIT INS]
    2207 000002c0 9A01              LDR       A3, [SP, #4]          ; [DPU_V7M3_PIPE] |931|  ; [ORIG 16-BIT INS]
    2208 000002c2 9B01              LDR       A4, [SP, #4]          ; [DPU_V7M3_PIPE] |931|  ; [ORIG 16-BIT INS]
    2209 000002c4 7C09              LDRB      A2, [A2, #16]         ; [DPU_V7M3_PIPE] |931|  ; [ORIG 16-BIT INS]
    2210 000002c6 88C0              LDRH      A1, [A1, #6]          ; [DPU_V7M3_PIPE] |931|  ; [ORIG 16-BIT INS]
    2211 000002c8 7BD2              LDRB      A3, [A3, #15]         ; [DPU_V7M3_PIPE] |931|  ; [ORIG 16-BIT INS]
    2212 000002ca 7B9B              LDRB      A4, [A4, #14]         ; [DPU_V7M3_PIPE] |931|  ; [ORIG 16-BIT INS]
    2213 000002cc 1E49              SUBS      A2, A2, #1            ; [DPU_V7M3_PIPE] |931|  ; [ORIG 16-BIT INS]
    2214 000002ce 1E40              SUBS      A1, A1, #1            ; [DPU_V7M3_PIPE] |931|  ; [ORIG 16-BIT INS]
    2215 000002d0 0612              LSLS      A3, A3, #24           ; [DPU_V7M3_PIPE] |931|  ; [ORIG 16-BIT INS]
    2216 000002d2 013FF001          AND       A2, A2, #63           ; [DPU_V7M3_PIPE] |931|  ; [KEEP 32-BIT INS]
    2217 000002d6 209FF36F          BFC       A1, #10, #22          ; [DPU_V7M3_PIPE] |931|  ; [KEEP 32-BIT INS]
    2218 000002da 4203EA42          ORR       A3, A3, A4, LSL #16   ; [DPU_V7M3_PIPE] |931|  ; [KEEP 32-BIT INS]
    2219 000002de 2281EA42          ORR       A3, A3, A2, LSL #10   ; [DPU_V7M3_PIPE] |931|  ; [KEEP 32-BIT INS]
    2220 000002e2 4310              ORRS      A1, A1, A3            ; [DPU_V7M3_PIPE] |931|  ; [ORIG 16-BIT INS]
    2221 000002e4 9003              STR       A1, [SP, #12]         ; [DPU_V7M3_PIPE] |931|  ; [ORIG 16-BIT INS]
    2222                            .dwpsn  file "../driverlib/lcd.c",line 937,column 5,is_stmt,isa 1
    2223                    ;----------------------------------------------------------------------
    2224                    ; 937 | ui32T2 = pTiming->ui32Flags |                                          
    2225                    ; 938 |          ((((pTiming->ui16HSyncWidth - 1) & 0x3C0) >> 6) <<            
    2226                    ; 939 |           LCD_RASTRTIM2_HSW_S) |                                       
    2227                    ; 940 |          ((((pTiming->ui16PanelHeight - 1) & 0x400) >> 10) <<          
    2228                    ; 941 |           LCD_RASTRTIM2_MSBLPP_S) |                                    
    2229                    ; 942 |          ((((pTiming->ui16HBackPorch - 1) & 0x300) >> 8) <<            
    2230                    ; 943 |           LCD_RASTRTIM2_MSBHBP_S) |                                    
    2231                    ; 944 |          ((((pTiming->ui16HFrontPorch - 1) & 0x300) >> 8) <<           
    2232                    ; 945 |           LCD_RASTRTIM2_MSBHFP_S) |                                    
    2233                    ; 946 |          (pTiming->ui8ACBiasLineCount << LCD_RASTRTIM2_ACBF_S);        
    2234                    ; 948 | //                                                                     
    2235                    ; 949 | // Write the timing registers, taking care to preserve any existing val
    2236                    ;     | ue                                                                     
    2237                    ; 950 | // in the AC Bias interrupt field of RASTRTIM2.                        
    2238                    ; 951 | //                                                                     
    2239                    ;----------------------------------------------------------------------
    2240 000002e6 9B01              LDR       A4, [SP, #4]          ; [DPU_V7M3_PIPE] |937|  ; [ORIG 16-BIT INS]
    2241 000002e8 9A01              LDR       A3, [SP, #4]          ; [DPU_V7M3_PIPE] |937|  ; [ORIG 16-BIT INS]
    2242 000002ea 9901              LDR       A2, [SP, #4]          ; [DPU_V7M3_PIPE] |937|  ; [ORIG 16-BIT INS]
    2243 000002ec 9801              LDR       A1, [SP, #4]          ; [DPU_V7M3_PIPE] |937|  ; [ORIG 16-BIT INS]
    2244 000002ee 9C01              LDR       V1, [SP, #4]          ; [DPU_V7M3_PIPE] |937|  ; [ORIG 16-BIT INS]
    2245 000002f0 9D01              LDR       V2, [SP, #4]          ; [DPU_V7M3_PIPE] |937|  ; [ORIG 16-BIT INS]
    2246 000002f2 899B              LDRH      A4, [A4, #12]         ; [DPU_V7M3_PIPE] |937|  ; [ORIG 16-BIT INS]
    2247 000002f4 88D2              LDRH      A3, [A3, #6]          ; [DPU_V7M3_PIPE] |937|  ; [ORIG 16-BIT INS]
    2248 000002f6 8949              LDRH      A2, [A2, #10]         ; [DPU_V7M3_PIPE] |937|  ; [ORIG 16-BIT INS]
    2249 000002f8 8900              LDRH      A1, [A1, #8]          ; [DPU_V7M3_PIPE] |937|  ; [ORIG 16-BIT INS]
    2250 000002fa 6824              LDR       V1, [V1, #0]          ; [DPU_V7M3_PIPE] |937|  ; [ORIG 16-BIT INS]
    2251 000002fc 7C6D              LDRB      V2, [V2, #17]         ; [DPU_V7M3_PIPE] |937|  ; [ORIG 16-BIT INS]
    2252 000002fe 1E5B              SUBS      A4, A4, #1            ; [DPU_V7M3_PIPE] |937|  ; [ORIG 16-BIT INS]
    2253 00000300 1E52              SUBS      A3, A3, #1            ; [DPU_V7M3_PIPE] |937|  ; [ORIG 16-BIT INS]
    2254 00000302 1E49              SUBS      A2, A2, #1            ; [DPU_V7M3_PIPE] |937|  ; [ORIG 16-BIT INS]
TI ARM Assembler Unix v18.1.1 Fri Jul  3 20:08:25 2020

Tools Copyright (c) 1996-2017 Texas Instruments Incorporated
lcd.asm                                                              PAGE   42

    2255 00000304 1E40              SUBS      A1, A1, #1            ; [DPU_V7M3_PIPE] |937|  ; [ORIG 16-BIT INS]
    2256 00000306 7370F403          AND       A4, A4, #960          ; [DPU_V7M3_PIPE] |937|  ; [KEEP 32-BIT INS]
    2257 0000030a 6280F402          AND       A3, A3, #1024         ; [DPU_V7M3_PIPE] |937|  ; [KEEP 32-BIT INS]
    2258 0000030e 7140F401          AND       A2, A2, #768          ; [DPU_V7M3_PIPE] |937|  ; [KEEP 32-BIT INS]
    2259 00000312 7040F400          AND       A1, A1, #768          ; [DPU_V7M3_PIPE] |937|  ; [KEEP 32-BIT INS]
    2260 00000316 119B              ASRS      A4, A4, #6            ; [DPU_V7M3_PIPE] |937|  ; [ORIG 16-BIT INS]
    2261 00000318 1292              ASRS      A3, A3, #10           ; [DPU_V7M3_PIPE] |937|  ; [ORIG 16-BIT INS]
    2262 0000031a 1209              ASRS      A2, A2, #8            ; [DPU_V7M3_PIPE] |937|  ; [ORIG 16-BIT INS]
    2263 0000031c 64C3EA44          ORR       V1, V1, A4, LSL #27   ; [DPU_V7M3_PIPE] |937|  ; [KEEP 32-BIT INS]
    2264 00000320 6482EA44          ORR       V1, V1, A3, LSL #26   ; [DPU_V7M3_PIPE] |937|  ; [KEEP 32-BIT INS]
    2265 00000324 1401EA44          ORR       V1, V1, A2, LSL #4    ; [DPU_V7M3_PIPE] |937|  ; [KEEP 32-BIT INS]
    2266 00000328 2420EA44          ORR       V1, V1, A1, ASR #8    ; [DPU_V7M3_PIPE] |937|  ; [KEEP 32-BIT INS]
    2267 0000032c 2405EA44          ORR       V1, V1, V2, LSL #8    ; [DPU_V7M3_PIPE] |937|  ; [KEEP 32-BIT INS]
    2268 00000330 9404              STR       V1, [SP, #16]         ; [DPU_V7M3_PIPE] |937|  ; [ORIG 16-BIT INS]
    2269                            .dwpsn  file "../driverlib/lcd.c",line 952,column 5,is_stmt,isa 1
    2270                    ;----------------------------------------------------------------------
    2271                    ; 952 | HWREG(ui32Base + LCD_O_RASTRTIM0) = ui32T0;                            
    2272                    ;----------------------------------------------------------------------
    2273 00000332 9802              LDR       A1, [SP, #8]          ; [DPU_V7M3_PIPE] |952|  ; [ORIG 16-BIT INS]
    2274 00000334 9900              LDR       A2, [SP, #0]          ; [DPU_V7M3_PIPE] |952|  ; [ORIG 16-BIT INS]
    2275 00000336 62C8              STR       A1, [A2, #44]         ; [DPU_V7M3_PIPE] |952|  ; [ORIG 16-BIT INS]
    2276                            .dwpsn  file "../driverlib/lcd.c",line 953,column 5,is_stmt,isa 1
    2277                    ;----------------------------------------------------------------------
    2278                    ; 953 | HWREG(ui32Base + LCD_O_RASTRTIM1) = ui32T1;                            
    2279                    ;----------------------------------------------------------------------
    2280 00000338 9803              LDR       A1, [SP, #12]         ; [DPU_V7M3_PIPE] |953|  ; [ORIG 16-BIT INS]
    2281 0000033a 9900              LDR       A2, [SP, #0]          ; [DPU_V7M3_PIPE] |953|  ; [ORIG 16-BIT INS]
    2282 0000033c 6308              STR       A1, [A2, #48]         ; [DPU_V7M3_PIPE] |953|  ; [ORIG 16-BIT INS]
    2283                            .dwpsn  file "../driverlib/lcd.c",line 954,column 5,is_stmt,isa 1
    2284                    ;----------------------------------------------------------------------
    2285                    ; 954 | HWREG(ui32Base + LCD_O_RASTRTIM2) = (HWREG(ui32Base + LCD_O_RASTRTIM2)
    2286                    ;     | &                                                                      
    2287                    ; 955 |                                      LCD_RASTRTIM2_ACBI_M) | ui32T2;   
    2288                    ;----------------------------------------------------------------------
    2289 0000033e 9800              LDR       A1, [SP, #0]          ; [DPU_V7M3_PIPE] |954|  ; [ORIG 16-BIT INS]
    2290 00000340 9904              LDR       A2, [SP, #16]         ; [DPU_V7M3_PIPE] |954|  ; [ORIG 16-BIT INS]
    2291 00000342 9A00              LDR       A3, [SP, #0]          ; [DPU_V7M3_PIPE] |954|  ; [ORIG 16-BIT INS]
    2292 00000344 6B40              LDR       A1, [A1, #52]         ; [DPU_V7M3_PIPE] |954|  ; [ORIG 16-BIT INS]
    2293 00000346 2070F400          AND       A1, A1, #983040       ; [DPU_V7M3_PIPE] |954|  ; [KEEP 32-BIT INS]
    2294 0000034a 4301              ORRS      A2, A2, A1            ; [DPU_V7M3_PIPE] |954|  ; [ORIG 16-BIT INS]
    2295 0000034c 6351              STR       A2, [A3, #52]         ; [DPU_V7M3_PIPE] |954|  ; [ORIG 16-BIT INS]
    2296                            .dwpsn  file "../driverlib/lcd.c",line 956,column 1,is_stmt,isa 1
    2297 0000034e B005              ADD       SP, SP, #20           ; [DPU_V7M3_PIPE]  ; [ORIG 16-BIT INS]
    2298                            .dwcfi  cfa_offset, 12
    2299                    $C$DW$128       .dwtag  DW_TAG_TI_branch
    2300                            .dwattr $C$DW$128, DW_AT_low_pc(0x00)
    2301                            .dwattr $C$DW$128, DW_AT_TI_return
    2302                    
    2303 00000350 BD30              POP       {V1, V2, PC}          ; [DPU_V7M3_PIPE]  ; [ORIG 16-BIT INS]
    2304                            .dwcfi  cfa_offset, 0
    2305                            .dwcfi  restore_reg, 5
    2306                            .dwcfi  restore_reg, 4
    2307                            ; BRANCH OCCURS                  ; [] 
    2308                            .dwattr $C$DW$120, DW_AT_TI_end_file("../driverlib/lcd.c")
    2309                            .dwattr $C$DW$120, DW_AT_TI_end_line(0x3bc)
TI ARM Assembler Unix v18.1.1 Fri Jul  3 20:08:25 2020

Tools Copyright (c) 1996-2017 Texas Instruments Incorporated
lcd.asm                                                              PAGE   43

    2310                            .dwattr $C$DW$120, DW_AT_TI_end_column(0x01)
    2311                            .dwendentry
    2312                            .dwendtag $C$DW$120
    2313                    
    2314 00000352                   .sect   ".text"
    2315                            .clink
    2316                            .thumbfunc LCDRasterACBiasIntCountSet
    2317 00000352                   .thumb
    2318                            .global LCDRasterACBiasIntCountSet
    2319                    
    2320                    $C$DW$129       .dwtag  DW_TAG_subprogram
    2321                            .dwattr $C$DW$129, DW_AT_name("LCDRasterACBiasIntCountSet")
    2322                            .dwattr $C$DW$129, DW_AT_low_pc(LCDRasterACBiasIntCountSet)
    2323                            .dwattr $C$DW$129, DW_AT_high_pc(0x00)
    2324                            .dwattr $C$DW$129, DW_AT_TI_symbol_name("LCDRasterACBiasIntCountSet")
    2325                            .dwattr $C$DW$129, DW_AT_external
    2326                            .dwattr $C$DW$129, DW_AT_TI_begin_file("../driverlib/lcd.c")
    2327                            .dwattr $C$DW$129, DW_AT_TI_begin_line(0x3ce)
    2328                            .dwattr $C$DW$129, DW_AT_TI_begin_column(0x01)
    2329                            .dwattr $C$DW$129, DW_AT_decl_file("../driverlib/lcd.c")
    2330                            .dwattr $C$DW$129, DW_AT_decl_line(0x3ce)
    2331                            .dwattr $C$DW$129, DW_AT_decl_column(0x01)
    2332                            .dwattr $C$DW$129, DW_AT_TI_max_frame_size(0x10)
    2333                            .dwpsn  file "../driverlib/lcd.c",line 975,column 1,is_stmt,address LCDRasterACBiasIntCountSet
    2334                    
    2335                            .dwfde $C$DW$CIE, LCDRasterACBiasIntCountSet
    2336                    $C$DW$130       .dwtag  DW_TAG_formal_parameter
    2337                            .dwattr $C$DW$130, DW_AT_name("ui32Base")
    2338                            .dwattr $C$DW$130, DW_AT_TI_symbol_name("ui32Base")
    2339                            .dwattr $C$DW$130, DW_AT_type(*$C$DW$T$25)
    2340                            .dwattr $C$DW$130, DW_AT_location[DW_OP_reg0]
    2341                    
    2342                    $C$DW$131       .dwtag  DW_TAG_formal_parameter
    2343                            .dwattr $C$DW$131, DW_AT_name("ui8Count")
    2344                            .dwattr $C$DW$131, DW_AT_TI_symbol_name("ui8Count")
    2345                            .dwattr $C$DW$131, DW_AT_type(*$C$DW$T$22)
    2346                            .dwattr $C$DW$131, DW_AT_location[DW_OP_reg1]
    2347                    
    2348                    ;----------------------------------------------------------------------
    2349                    ; 974 | LCDRasterACBiasIntCountSet(uint32_t ui32Base, uint8_t ui8Count)        
    2350                    ;----------------------------------------------------------------------
    2351                    
    2352                    ;*****************************************************************************
    2353                    ;* FUNCTION NAME: LCDRasterACBiasIntCountSet                                 *
    2354                    ;*                                                                           *
    2355                    ;*   Regs Modified     : A1,A2,SP,SR                                         *
    2356                    ;*   Regs Used         : A1,A2,SP,LR,SR                                      *
    2357                    ;*   Local Frame Size  : 0 Args + 12 Auto + 0 Save = 12 byte                 *
    2358                    ;*****************************************************************************
    2359 00000352           LCDRasterACBiasIntCountSet:
    2360                    ;* --------------------------------------------------------------------------*
    2361                            .dwcfi  cfa_offset, 0
    2362 00000352 0D10F1AD          SUB       SP, SP, #16           ; [DPU_V7M3_PIPE]  ; [KEEP 32-BIT INS]
    2363                            .dwcfi  cfa_offset, 16
    2364                    $C$DW$132       .dwtag  DW_TAG_variable
TI ARM Assembler Unix v18.1.1 Fri Jul  3 20:08:25 2020

Tools Copyright (c) 1996-2017 Texas Instruments Incorporated
lcd.asm                                                              PAGE   44

    2365                            .dwattr $C$DW$132, DW_AT_name("ui32Base")
    2366                            .dwattr $C$DW$132, DW_AT_TI_symbol_name("ui32Base")
    2367                            .dwattr $C$DW$132, DW_AT_type(*$C$DW$T$25)
    2368                            .dwattr $C$DW$132, DW_AT_location[DW_OP_breg13 0]
    2369                    
    2370                    $C$DW$133       .dwtag  DW_TAG_variable
    2371                            .dwattr $C$DW$133, DW_AT_name("ui32Val")
    2372                            .dwattr $C$DW$133, DW_AT_TI_symbol_name("ui32Val")
    2373                            .dwattr $C$DW$133, DW_AT_type(*$C$DW$T$25)
    2374                            .dwattr $C$DW$133, DW_AT_location[DW_OP_breg13 4]
    2375                    
    2376                    $C$DW$134       .dwtag  DW_TAG_variable
    2377                            .dwattr $C$DW$134, DW_AT_name("ui8Count")
    2378                            .dwattr $C$DW$134, DW_AT_TI_symbol_name("ui8Count")
    2379                            .dwattr $C$DW$134, DW_AT_type(*$C$DW$T$22)
    2380                            .dwattr $C$DW$134, DW_AT_location[DW_OP_breg13 8]
    2381                    
    2382                    ;----------------------------------------------------------------------
    2383                    ; 976 | uint32_t ui32Val;                                                      
    2384                    ; 978 | //                                                                     
    2385                    ; 979 | // Sanity check parameters.                                            
    2386                    ; 980 | //                                                                     
    2387                    ; 981 | ASSERT(ui32Base == LCD0_BASE);                                         
    2388                    ; 982 | ASSERT(ui8Count < 16);                                                 
    2389                    ; 984 | //                                                                     
    2390                    ; 985 | // Get the existing raster timing 2 register value and mask in the new 
    2391                    ; 986 | // AC Bias interrupt count.                                            
    2392                    ; 987 | //                                                                     
    2393                    ;----------------------------------------------------------------------
    2394 00000356 1008F88D          STRB      A2, [SP, #8]          ; [DPU_V7M3_PIPE] |975|  ; [KEEP 32-BIT INS]
    2395 0000035a 9000              STR       A1, [SP, #0]          ; [DPU_V7M3_PIPE] |975|  ; [ORIG 16-BIT INS]
    2396                            .dwpsn  file "../driverlib/lcd.c",line 988,column 5,is_stmt,isa 1
    2397                    ;----------------------------------------------------------------------
    2398                    ; 988 | ui32Val = HWREG(ui32Base + LCD_O_RASTRTIM2);                           
    2399                    ;----------------------------------------------------------------------
    2400 0000035c 9800              LDR       A1, [SP, #0]          ; [DPU_V7M3_PIPE] |988|  ; [ORIG 16-BIT INS]
    2401 0000035e 6B40              LDR       A1, [A1, #52]         ; [DPU_V7M3_PIPE] |988|  ; [ORIG 16-BIT INS]
    2402 00000360 9001              STR       A1, [SP, #4]          ; [DPU_V7M3_PIPE] |988|  ; [ORIG 16-BIT INS]
    2403                            .dwpsn  file "../driverlib/lcd.c",line 989,column 5,is_stmt,isa 1
    2404                    ;----------------------------------------------------------------------
    2405                    ; 989 | ui32Val &= ~LCD_RASTRTIM2_ACBI_M;                                      
    2406                    ;----------------------------------------------------------------------
    2407 00000362 9801              LDR       A1, [SP, #4]          ; [DPU_V7M3_PIPE] |989|  ; [ORIG 16-BIT INS]
    2408 00000364 2070F420          BIC       A1, A1, #983040       ; [DPU_V7M3_PIPE] |989|  ; [KEEP 32-BIT INS]
    2409 00000368 9001              STR       A1, [SP, #4]          ; [DPU_V7M3_PIPE] |989|  ; [ORIG 16-BIT INS]
    2410                            .dwpsn  file "../driverlib/lcd.c",line 990,column 5,is_stmt,isa 1
    2411                    ;----------------------------------------------------------------------
    2412                    ; 990 | ui32Val |= ((ui8Count << LCD_RASTRTIM2_ACBI_S) & LCD_RASTRTIM2_ACBI_M);
    2413                    ; 992 | //                                                                     
    2414                    ; 993 | // Write the new value back to the register.                           
    2415                    ; 994 | //                                                                     
    2416                    ;----------------------------------------------------------------------
    2417 0000036a 0008F89D          LDRB      A1, [SP, #8]          ; [DPU_V7M3_PIPE] |990|  ; [KEEP 32-BIT INS]
    2418 0000036e 9901              LDR       A2, [SP, #4]          ; [DPU_V7M3_PIPE] |990|  ; [ORIG 16-BIT INS]
    2419 00000370 0400              LSLS      A1, A1, #16           ; [DPU_V7M3_PIPE] |990|  ; [ORIG 16-BIT INS]
TI ARM Assembler Unix v18.1.1 Fri Jul  3 20:08:25 2020

Tools Copyright (c) 1996-2017 Texas Instruments Incorporated
lcd.asm                                                              PAGE   45

    2420 00000372 2070F400          AND       A1, A1, #983040       ; [DPU_V7M3_PIPE] |990|  ; [KEEP 32-BIT INS]
    2421 00000376 4308              ORRS      A1, A1, A2            ; [DPU_V7M3_PIPE] |990|  ; [ORIG 16-BIT INS]
    2422 00000378 9001              STR       A1, [SP, #4]          ; [DPU_V7M3_PIPE] |990|  ; [ORIG 16-BIT INS]
    2423                            .dwpsn  file "../driverlib/lcd.c",line 995,column 5,is_stmt,isa 1
    2424                    ;----------------------------------------------------------------------
    2425                    ; 995 | HWREG(ui32Base + LCD_O_RASTRTIM2) = ui32Val;                           
    2426                    ;----------------------------------------------------------------------
    2427 0000037a 9900              LDR       A2, [SP, #0]          ; [DPU_V7M3_PIPE] |995|  ; [ORIG 16-BIT INS]
    2428 0000037c 9801              LDR       A1, [SP, #4]          ; [DPU_V7M3_PIPE] |995|  ; [ORIG 16-BIT INS]
    2429 0000037e 6348              STR       A1, [A2, #52]         ; [DPU_V7M3_PIPE] |995|  ; [ORIG 16-BIT INS]
    2430                            .dwpsn  file "../driverlib/lcd.c",line 996,column 1,is_stmt,isa 1
    2431 00000380 B004              ADD       SP, SP, #16           ; [DPU_V7M3_PIPE]  ; [ORIG 16-BIT INS]
    2432                            .dwcfi  cfa_offset, 0
    2433                    $C$DW$135       .dwtag  DW_TAG_TI_branch
    2434                            .dwattr $C$DW$135, DW_AT_low_pc(0x00)
    2435                            .dwattr $C$DW$135, DW_AT_TI_return
    2436                    
    2437 00000382 4770              BX        LR                    ; [DPU_V7M3_PIPE]  ; [ORIG 16-BIT INS]
    2438                            ; BRANCH OCCURS                  ; [] 
    2439                            .dwattr $C$DW$129, DW_AT_TI_end_file("../driverlib/lcd.c")
    2440                            .dwattr $C$DW$129, DW_AT_TI_end_line(0x3e4)
    2441                            .dwattr $C$DW$129, DW_AT_TI_end_column(0x01)
    2442                            .dwendentry
    2443                            .dwendtag $C$DW$129
    2444                    
    2445 00000384                   .sect   ".text"
    2446                            .clink
    2447                            .thumbfunc LCDRasterEnable
    2448 00000384                   .thumb
    2449                            .global LCDRasterEnable
    2450                    
    2451                    $C$DW$136       .dwtag  DW_TAG_subprogram
    2452                            .dwattr $C$DW$136, DW_AT_name("LCDRasterEnable")
    2453                            .dwattr $C$DW$136, DW_AT_low_pc(LCDRasterEnable)
    2454                            .dwattr $C$DW$136, DW_AT_high_pc(0x00)
    2455                            .dwattr $C$DW$136, DW_AT_TI_symbol_name("LCDRasterEnable")
    2456                            .dwattr $C$DW$136, DW_AT_external
    2457                            .dwattr $C$DW$136, DW_AT_TI_begin_file("../driverlib/lcd.c")
    2458                            .dwattr $C$DW$136, DW_AT_TI_begin_line(0x3f6)
    2459                            .dwattr $C$DW$136, DW_AT_TI_begin_column(0x01)
    2460                            .dwattr $C$DW$136, DW_AT_decl_file("../driverlib/lcd.c")
    2461                            .dwattr $C$DW$136, DW_AT_decl_line(0x3f6)
    2462                            .dwattr $C$DW$136, DW_AT_decl_column(0x01)
    2463                            .dwattr $C$DW$136, DW_AT_TI_max_frame_size(0x08)
    2464                            .dwpsn  file "../driverlib/lcd.c",line 1015,column 1,is_stmt,address LCDRasterEnable,isa 1
    2465                    
    2466                            .dwfde $C$DW$CIE, LCDRasterEnable
    2467                    $C$DW$137       .dwtag  DW_TAG_formal_parameter
    2468                            .dwattr $C$DW$137, DW_AT_name("ui32Base")
    2469                            .dwattr $C$DW$137, DW_AT_TI_symbol_name("ui32Base")
    2470                            .dwattr $C$DW$137, DW_AT_type(*$C$DW$T$25)
    2471                            .dwattr $C$DW$137, DW_AT_location[DW_OP_reg0]
    2472                    
    2473                    ;----------------------------------------------------------------------
    2474                    ; 1014 | LCDRasterEnable(uint32_t ui32Base)                                     
TI ARM Assembler Unix v18.1.1 Fri Jul  3 20:08:25 2020

Tools Copyright (c) 1996-2017 Texas Instruments Incorporated
lcd.asm                                                              PAGE   46

    2475                    ;----------------------------------------------------------------------
    2476                    
    2477                    ;*****************************************************************************
    2478                    ;* FUNCTION NAME: LCDRasterEnable                                            *
    2479                    ;*                                                                           *
    2480                    ;*   Regs Modified     : A1,A2,A3,A4,V9,SP,LR,SR,D0,D0_hi,D1,D1_hi,D2,D2_hi, *
    2481                    ;*                           D3,D3_hi,D4,D4_hi,D5,D5_hi,D6,D6_hi,D7,D7_hi,   *
    2482                    ;*                           FPEXC,FPSCR                                     *
    2483                    ;*   Regs Used         : A1,A2,A3,A4,V9,SP,LR,SR,D0,D0_hi,D1,D1_hi,D2,D2_hi, *
    2484                    ;*                           D3,D3_hi,D4,D4_hi,D5,D5_hi,D6,D6_hi,D7,D7_hi,   *
    2485                    ;*                           FPEXC,FPSCR                                     *
    2486                    ;*   Local Frame Size  : 0 Args + 4 Auto + 4 Save = 8 byte                   *
    2487                    ;*****************************************************************************
    2488 00000384           LCDRasterEnable:
    2489                    ;* --------------------------------------------------------------------------*
    2490                            .dwcfi  cfa_offset, 0
    2491 00000384 B508              PUSH      {A4, LR}              ; [DPU_V7M3_PIPE]  ; [ORIG 16-BIT INS]
    2492                            .dwcfi  cfa_offset, 8
    2493                            .dwcfi  save_reg_to_mem, 14, -4
    2494                            .dwcfi  save_reg_to_mem, 3, -8
    2495                    $C$DW$138       .dwtag  DW_TAG_variable
    2496                            .dwattr $C$DW$138, DW_AT_name("ui32Base")
    2497                            .dwattr $C$DW$138, DW_AT_TI_symbol_name("ui32Base")
    2498                            .dwattr $C$DW$138, DW_AT_type(*$C$DW$T$25)
    2499                            .dwattr $C$DW$138, DW_AT_location[DW_OP_breg13 0]
    2500                    
    2501                    ;----------------------------------------------------------------------
    2502                    ; 1016 | //                                                                     
    2503                    ; 1017 | // Sanity check parameters.                                            
    2504                    ; 1018 | //                                                                     
    2505                    ; 1019 | ASSERT(ui32Base == LCD0_BASE);                                         
    2506                    ; 1021 | //                                                                     
    2507                    ; 1022 | // Reset the module prior to starting the raster.  This is required to 
    2508                    ; 1023 | // ensure correct operation of the raster engine.                      
    2509                    ; 1024 | //                                                                     
    2510                    ;----------------------------------------------------------------------
    2511 00000386 9000              STR       A1, [SP, #0]          ; [DPU_V7M3_PIPE] |1015|  ; [ORIG 16-BIT INS]
    2512                            .dwpsn  file "../driverlib/lcd.c",line 1025,column 5,is_stmt,isa 1
    2513                    ;----------------------------------------------------------------------
    2514                    ; 1025 | LCDClockReset(ui32Base, LCD_CLOCK_MAIN);                               
    2515                    ; 1027 | //                                                                     
    2516                    ; 1028 | // Enable the raster engine.                                           
    2517                    ; 1029 | //                                                                     
    2518                    ;----------------------------------------------------------------------
    2519 00000388 9800              LDR       A1, [SP, #0]          ; [DPU_V7M3_PIPE] |1025|  ; [ORIG 16-BIT INS]
    2520 0000038a 2108              MOVS      A2, #8                ; [DPU_V7M3_PIPE] |1025|  ; [ORIG 16-BIT INS]
    2521                    $C$DW$139       .dwtag  DW_TAG_TI_branch
    2522                            .dwattr $C$DW$139, DW_AT_low_pc(0x00)
    2523                            .dwattr $C$DW$139, DW_AT_name("LCDClockReset")
    2524                            .dwattr $C$DW$139, DW_AT_TI_call
    2525                    
    2526 0000038c FFFEF7FF!         BL        LCDClockReset         ; [DPU_V7M3_PIPE] |1025|  ; [KEEP 32-BIT INS]
    2527                            ; CALL OCCURS {LCDClockReset }   ; [] |1025| 
    2528                            .dwpsn  file "../driverlib/lcd.c",line 1030,column 5,is_stmt,isa 1
    2529                    ;----------------------------------------------------------------------
TI ARM Assembler Unix v18.1.1 Fri Jul  3 20:08:25 2020

Tools Copyright (c) 1996-2017 Texas Instruments Incorporated
lcd.asm                                                              PAGE   47

    2530                    ; 1030 | HWREG(ui32Base + LCD_O_RASTRCTL) |= LCD_RASTRCTL_LCDEN;                
    2531                    ;----------------------------------------------------------------------
    2532 00000390 9800              LDR       A1, [SP, #0]          ; [DPU_V7M3_PIPE] |1030|  ; [ORIG 16-BIT INS]
    2533 00000392 3028              ADDS      A1, A1, #40           ; [DPU_V7M3_PIPE] |1030|  ; [ORIG 16-BIT INS]
    2534 00000394 6801              LDR       A2, [A1, #0]          ; [DPU_V7M3_PIPE] |1030|  ; [ORIG 16-BIT INS]
    2535 00000396 0101F041          ORR       A2, A2, #1            ; [DPU_V7M3_PIPE] |1030|  ; [KEEP 32-BIT INS]
    2536 0000039a 6001              STR       A2, [A1, #0]          ; [DPU_V7M3_PIPE] |1030|  ; [ORIG 16-BIT INS]
    2537                            .dwpsn  file "../driverlib/lcd.c",line 1031,column 1,is_stmt,isa 1
    2538                    $C$DW$140       .dwtag  DW_TAG_TI_branch
    2539                            .dwattr $C$DW$140, DW_AT_low_pc(0x00)
    2540                            .dwattr $C$DW$140, DW_AT_TI_return
    2541                    
    2542 0000039c BD08              POP       {A4, PC}              ; [DPU_V7M3_PIPE]  ; [ORIG 16-BIT INS]
    2543                            .dwcfi  cfa_offset, 0
    2544                            .dwcfi  restore_reg, 3
    2545                            ; BRANCH OCCURS                  ; [] 
    2546                            .dwattr $C$DW$136, DW_AT_TI_end_file("../driverlib/lcd.c")
    2547                            .dwattr $C$DW$136, DW_AT_TI_end_line(0x407)
    2548                            .dwattr $C$DW$136, DW_AT_TI_end_column(0x01)
    2549                            .dwendentry
    2550                            .dwendtag $C$DW$136
    2551                    
    2552 0000039e                   .sect   ".text"
    2553                            .clink
    2554                            .thumbfunc LCDRasterEnabled
    2555 0000039e                   .thumb
    2556                            .global LCDRasterEnabled
    2557                    
    2558                    $C$DW$141       .dwtag  DW_TAG_subprogram
    2559                            .dwattr $C$DW$141, DW_AT_name("LCDRasterEnabled")
    2560                            .dwattr $C$DW$141, DW_AT_low_pc(LCDRasterEnabled)
    2561                            .dwattr $C$DW$141, DW_AT_high_pc(0x00)
    2562                            .dwattr $C$DW$141, DW_AT_TI_symbol_name("LCDRasterEnabled")
    2563                            .dwattr $C$DW$141, DW_AT_external
    2564                            .dwattr $C$DW$141, DW_AT_type(*$C$DW$T$137)
    2565                            .dwattr $C$DW$141, DW_AT_TI_begin_file("../driverlib/lcd.c")
    2566                            .dwattr $C$DW$141, DW_AT_TI_begin_line(0x417)
    2567                            .dwattr $C$DW$141, DW_AT_TI_begin_column(0x01)
    2568                            .dwattr $C$DW$141, DW_AT_decl_file("../driverlib/lcd.c")
    2569                            .dwattr $C$DW$141, DW_AT_decl_line(0x417)
    2570                            .dwattr $C$DW$141, DW_AT_decl_column(0x01)
    2571                            .dwattr $C$DW$141, DW_AT_TI_max_frame_size(0x08)
    2572                            .dwpsn  file "../driverlib/lcd.c",line 1048,column 1,is_stmt,address LCDRasterEnabled,isa 1
    2573                    
    2574                            .dwfde $C$DW$CIE, LCDRasterEnabled
    2575                    $C$DW$142       .dwtag  DW_TAG_formal_parameter
    2576                            .dwattr $C$DW$142, DW_AT_name("ui32Base")
    2577                            .dwattr $C$DW$142, DW_AT_TI_symbol_name("ui32Base")
    2578                            .dwattr $C$DW$142, DW_AT_type(*$C$DW$T$25)
    2579                            .dwattr $C$DW$142, DW_AT_location[DW_OP_reg0]
    2580                    
    2581                    ;----------------------------------------------------------------------
    2582                    ; 1047 | LCDRasterEnabled(uint32_t ui32Base)                                    
    2583                    ;----------------------------------------------------------------------
    2584                    
TI ARM Assembler Unix v18.1.1 Fri Jul  3 20:08:25 2020

Tools Copyright (c) 1996-2017 Texas Instruments Incorporated
lcd.asm                                                              PAGE   48

    2585                    ;*****************************************************************************
    2586                    ;* FUNCTION NAME: LCDRasterEnabled                                           *
    2587                    ;*                                                                           *
    2588                    ;*   Regs Modified     : A1,A2,SP,SR                                         *
    2589                    ;*   Regs Used         : A1,A2,SP,LR,SR                                      *
    2590                    ;*   Local Frame Size  : 0 Args + 4 Auto + 0 Save = 4 byte                   *
    2591                    ;*****************************************************************************
    2592 0000039e           LCDRasterEnabled:
    2593                    ;* --------------------------------------------------------------------------*
    2594                            .dwcfi  cfa_offset, 0
    2595 0000039e 0D08F1AD          SUB       SP, SP, #8            ; [DPU_V7M3_PIPE]  ; [KEEP 32-BIT INS]
    2596                            .dwcfi  cfa_offset, 8
    2597                    $C$DW$143       .dwtag  DW_TAG_variable
    2598                            .dwattr $C$DW$143, DW_AT_name("ui32Base")
    2599                            .dwattr $C$DW$143, DW_AT_TI_symbol_name("ui32Base")
    2600                            .dwattr $C$DW$143, DW_AT_type(*$C$DW$T$25)
    2601                            .dwattr $C$DW$143, DW_AT_location[DW_OP_breg13 0]
    2602                    
    2603                    ;----------------------------------------------------------------------
    2604                    ; 1049 | //                                                                     
    2605                    ; 1050 | // Sanity check parameters.                                            
    2606                    ; 1051 | //                                                                     
    2607                    ; 1052 | ASSERT(ui32Base == LCD0_BASE);                                         
    2608                    ; 1054 | //                                                                     
    2609                    ; 1055 | // Return the current raster engine status.                            
    2610                    ; 1056 | //                                                                     
    2611                    ;----------------------------------------------------------------------
    2612 000003a2 9000              STR       A1, [SP, #0]          ; [DPU_V7M3_PIPE] |1048|  ; [ORIG 16-BIT INS]
    2613                            .dwpsn  file "../driverlib/lcd.c",line 1057,column 5,is_stmt,isa 1
    2614                    ;----------------------------------------------------------------------
    2615                    ; 1057 | return((HWREG(ui32Base + LCD_O_RASTRCTL) & LCD_RASTRCTL_LCDEN) ?       
    2616                    ; 1058 |        true : false);                                                  
    2617                    ;----------------------------------------------------------------------
    2618 000003a4 9800              LDR       A1, [SP, #0]          ; [DPU_V7M3_PIPE] |1057|  ; [ORIG 16-BIT INS]
    2619 000003a6 6A81              LDR       A2, [A1, #40]         ; [DPU_V7M3_PIPE] |1057|  ; [ORIG 16-BIT INS]
    2620 000003a8 2000              MOVS      A1, #0                ; [DPU_V7M3_PIPE] |1057|  ; [ORIG 16-BIT INS]
    2621 000003aa 0849              LSRS      A2, A2, #1            ; [DPU_V7M3_PIPE] |1057|  ; [ORIG 16-BIT INS]
    2622 000003ac D301              BCC       ||$C$L23||            ; [DPU_V7M3_PIPE] |1057|  ; [ORIG 16-BIT INS]
    2623                            ; BRANCHCC OCCURS {||$C$L23||}   ; [] |1057| 
    2624                    ;* --------------------------------------------------------------------------*
    2625 000003ae 2101              MOVS      A2, #1                ; [DPU_V7M3_PIPE] |1057|  ; [ORIG 16-BIT INS]
    2626 000003b0 E000              B         ||$C$L24||            ; [DPU_V7M3_PIPE] |1057|  ; [ORIG 16-BIT INS]
    2627                            ; BRANCH OCCURS {||$C$L24||}     ; [] |1057| 
    2628                    ;* --------------------------------------------------------------------------*
    2629 000003b2           ||$C$L23||:    
    2630 000003b2 2100              MOVS      A2, #0                ; [DPU_V7M3_PIPE] |1057|  ; [ORIG 16-BIT INS]
    2631                    ;* --------------------------------------------------------------------------*
    2632 000003b4           ||$C$L24||:    
    2633 000003b4 B101              CBZ       A2, ||$C$L25||        ; []  ; [ORIG 16-BIT INS]
    2634                            ; BRANCHCC OCCURS {||$C$L25||}   ; [] |1057| 
    2635                    ;* --------------------------------------------------------------------------*
    2636 000003b6 2001              MOVS      A1, #1                ; [DPU_V7M3_PIPE] |1057|  ; [ORIG 16-BIT INS]
    2637                    ;* --------------------------------------------------------------------------*
    2638 000003b8           ||$C$L25||:    
    2639                            .dwpsn  file "../driverlib/lcd.c",line 1059,column 1,is_stmt,isa 1
TI ARM Assembler Unix v18.1.1 Fri Jul  3 20:08:25 2020

Tools Copyright (c) 1996-2017 Texas Instruments Incorporated
lcd.asm                                                              PAGE   49

    2640 000003b8 B002              ADD       SP, SP, #8            ; [DPU_V7M3_PIPE]  ; [ORIG 16-BIT INS]
    2641                            .dwcfi  cfa_offset, 0
    2642                    $C$DW$144       .dwtag  DW_TAG_TI_branch
    2643                            .dwattr $C$DW$144, DW_AT_low_pc(0x00)
    2644                            .dwattr $C$DW$144, DW_AT_TI_return
    2645                    
    2646 000003ba 4770              BX        LR                    ; [DPU_V7M3_PIPE]  ; [ORIG 16-BIT INS]
    2647                            ; BRANCH OCCURS                  ; [] 
    2648                            .dwattr $C$DW$141, DW_AT_TI_end_file("../driverlib/lcd.c")
    2649                            .dwattr $C$DW$141, DW_AT_TI_end_line(0x423)
    2650                            .dwattr $C$DW$141, DW_AT_TI_end_column(0x01)
    2651                            .dwendentry
    2652                            .dwendtag $C$DW$141
    2653                    
    2654 000003bc                   .sect   ".text"
    2655                            .clink
    2656                            .thumbfunc LCDRasterDisable
    2657 000003bc                   .thumb
    2658                            .global LCDRasterDisable
    2659                    
    2660                    $C$DW$145       .dwtag  DW_TAG_subprogram
    2661                            .dwattr $C$DW$145, DW_AT_name("LCDRasterDisable")
    2662                            .dwattr $C$DW$145, DW_AT_low_pc(LCDRasterDisable)
    2663                            .dwattr $C$DW$145, DW_AT_high_pc(0x00)
    2664                            .dwattr $C$DW$145, DW_AT_TI_symbol_name("LCDRasterDisable")
    2665                            .dwattr $C$DW$145, DW_AT_external
    2666                            .dwattr $C$DW$145, DW_AT_TI_begin_file("../driverlib/lcd.c")
    2667                            .dwattr $C$DW$145, DW_AT_TI_begin_line(0x437)
    2668                            .dwattr $C$DW$145, DW_AT_TI_begin_column(0x01)
    2669                            .dwattr $C$DW$145, DW_AT_decl_file("../driverlib/lcd.c")
    2670                            .dwattr $C$DW$145, DW_AT_decl_line(0x437)
    2671                            .dwattr $C$DW$145, DW_AT_decl_column(0x01)
    2672                            .dwattr $C$DW$145, DW_AT_TI_max_frame_size(0x08)
    2673                            .dwpsn  file "../driverlib/lcd.c",line 1080,column 1,is_stmt,address LCDRasterDisable,isa 1
    2674                    
    2675                            .dwfde $C$DW$CIE, LCDRasterDisable
    2676                    $C$DW$146       .dwtag  DW_TAG_formal_parameter
    2677                            .dwattr $C$DW$146, DW_AT_name("ui32Base")
    2678                            .dwattr $C$DW$146, DW_AT_TI_symbol_name("ui32Base")
    2679                            .dwattr $C$DW$146, DW_AT_type(*$C$DW$T$25)
    2680                            .dwattr $C$DW$146, DW_AT_location[DW_OP_reg0]
    2681                    
    2682                    ;----------------------------------------------------------------------
    2683                    ; 1079 | LCDRasterDisable(uint32_t ui32Base)                                    
    2684                    ;----------------------------------------------------------------------
    2685                    
    2686                    ;*****************************************************************************
    2687                    ;* FUNCTION NAME: LCDRasterDisable                                           *
    2688                    ;*                                                                           *
    2689                    ;*   Regs Modified     : A1,A2,SP,SR                                         *
    2690                    ;*   Regs Used         : A1,A2,SP,LR,SR                                      *
    2691                    ;*   Local Frame Size  : 0 Args + 4 Auto + 0 Save = 4 byte                   *
    2692                    ;*****************************************************************************
    2693 000003bc           LCDRasterDisable:
    2694                    ;* --------------------------------------------------------------------------*
TI ARM Assembler Unix v18.1.1 Fri Jul  3 20:08:25 2020

Tools Copyright (c) 1996-2017 Texas Instruments Incorporated
lcd.asm                                                              PAGE   50

    2695                            .dwcfi  cfa_offset, 0
    2696 000003bc 0D08F1AD          SUB       SP, SP, #8            ; [DPU_V7M3_PIPE]  ; [KEEP 32-BIT INS]
    2697                            .dwcfi  cfa_offset, 8
    2698                    $C$DW$147       .dwtag  DW_TAG_variable
    2699                            .dwattr $C$DW$147, DW_AT_name("ui32Base")
    2700                            .dwattr $C$DW$147, DW_AT_TI_symbol_name("ui32Base")
    2701                            .dwattr $C$DW$147, DW_AT_type(*$C$DW$T$25)
    2702                            .dwattr $C$DW$147, DW_AT_location[DW_OP_breg13 0]
    2703                    
    2704                    ;----------------------------------------------------------------------
    2705                    ; 1081 | //                                                                     
    2706                    ; 1082 | // Sanity check parameters.                                            
    2707                    ; 1083 | //                                                                     
    2708                    ; 1084 | ASSERT(ui32Base == LCD0_BASE);                                         
    2709                    ; 1086 | //                                                                     
    2710                    ; 1087 | // Disable the raster engine.                                          
    2711                    ; 1088 | //                                                                     
    2712                    ;----------------------------------------------------------------------
    2713 000003c0 9000              STR       A1, [SP, #0]          ; [DPU_V7M3_PIPE] |1080|  ; [ORIG 16-BIT INS]
    2714                            .dwpsn  file "../driverlib/lcd.c",line 1089,column 5,is_stmt,isa 1
    2715                    ;----------------------------------------------------------------------
    2716                    ; 1089 | HWREG(ui32Base + LCD_O_RASTRCTL) &= ~LCD_RASTRCTL_LCDEN;               
    2717                    ;----------------------------------------------------------------------
    2718 000003c2 9800              LDR       A1, [SP, #0]          ; [DPU_V7M3_PIPE] |1089|  ; [ORIG 16-BIT INS]
    2719 000003c4 3028              ADDS      A1, A1, #40           ; [DPU_V7M3_PIPE] |1089|  ; [ORIG 16-BIT INS]
    2720 000003c6 6801              LDR       A2, [A1, #0]          ; [DPU_V7M3_PIPE] |1089|  ; [ORIG 16-BIT INS]
    2721 000003c8 0101F021          BIC       A2, A2, #1            ; [DPU_V7M3_PIPE] |1089|  ; [KEEP 32-BIT INS]
    2722 000003cc 6001              STR       A2, [A1, #0]          ; [DPU_V7M3_PIPE] |1089|  ; [ORIG 16-BIT INS]
    2723                            .dwpsn  file "../driverlib/lcd.c",line 1090,column 1,is_stmt,isa 1
    2724 000003ce B002              ADD       SP, SP, #8            ; [DPU_V7M3_PIPE]  ; [ORIG 16-BIT INS]
    2725                            .dwcfi  cfa_offset, 0
    2726                    $C$DW$148       .dwtag  DW_TAG_TI_branch
    2727                            .dwattr $C$DW$148, DW_AT_low_pc(0x00)
    2728                            .dwattr $C$DW$148, DW_AT_TI_return
    2729                    
    2730 000003d0 4770              BX        LR                    ; [DPU_V7M3_PIPE]  ; [ORIG 16-BIT INS]
    2731                            ; BRANCH OCCURS                  ; [] 
    2732                            .dwattr $C$DW$145, DW_AT_TI_end_file("../driverlib/lcd.c")
    2733                            .dwattr $C$DW$145, DW_AT_TI_end_line(0x442)
    2734                            .dwattr $C$DW$145, DW_AT_TI_end_column(0x01)
    2735                            .dwendentry
    2736                            .dwendtag $C$DW$145
    2737                    
    2738 000003d2                   .sect   ".text"
    2739                            .clink
    2740                            .thumbfunc LCDRasterSubPanelConfigSet
    2741 000003d2                   .thumb
    2742                            .global LCDRasterSubPanelConfigSet
    2743                    
    2744                    $C$DW$149       .dwtag  DW_TAG_subprogram
    2745                            .dwattr $C$DW$149, DW_AT_name("LCDRasterSubPanelConfigSet")
    2746                            .dwattr $C$DW$149, DW_AT_low_pc(LCDRasterSubPanelConfigSet)
    2747                            .dwattr $C$DW$149, DW_AT_high_pc(0x00)
    2748                            .dwattr $C$DW$149, DW_AT_TI_symbol_name("LCDRasterSubPanelConfigSet")
    2749                            .dwattr $C$DW$149, DW_AT_external
TI ARM Assembler Unix v18.1.1 Fri Jul  3 20:08:25 2020

Tools Copyright (c) 1996-2017 Texas Instruments Incorporated
lcd.asm                                                              PAGE   51

    2750                            .dwattr $C$DW$149, DW_AT_TI_begin_file("../driverlib/lcd.c")
    2751                            .dwattr $C$DW$149, DW_AT_TI_begin_line(0x46e)
    2752                            .dwattr $C$DW$149, DW_AT_TI_begin_column(0x01)
    2753                            .dwattr $C$DW$149, DW_AT_decl_file("../driverlib/lcd.c")
    2754                            .dwattr $C$DW$149, DW_AT_decl_line(0x46e)
    2755                            .dwattr $C$DW$149, DW_AT_decl_column(0x01)
    2756                            .dwattr $C$DW$149, DW_AT_TI_max_frame_size(0x18)
    2757                            .dwpsn  file "../driverlib/lcd.c",line 1136,column 1,is_stmt,address LCDRasterSubPanelConfigSe
    2758                    
    2759                            .dwfde $C$DW$CIE, LCDRasterSubPanelConfigSet
    2760                    $C$DW$150       .dwtag  DW_TAG_formal_parameter
    2761                            .dwattr $C$DW$150, DW_AT_name("ui32Base")
    2762                            .dwattr $C$DW$150, DW_AT_TI_symbol_name("ui32Base")
    2763                            .dwattr $C$DW$150, DW_AT_type(*$C$DW$T$25)
    2764                            .dwattr $C$DW$150, DW_AT_location[DW_OP_reg0]
    2765                    
    2766                    $C$DW$151       .dwtag  DW_TAG_formal_parameter
    2767                            .dwattr $C$DW$151, DW_AT_name("ui32Flags")
    2768                            .dwattr $C$DW$151, DW_AT_TI_symbol_name("ui32Flags")
    2769                            .dwattr $C$DW$151, DW_AT_type(*$C$DW$T$25)
    2770                            .dwattr $C$DW$151, DW_AT_location[DW_OP_reg1]
    2771                    
    2772                    $C$DW$152       .dwtag  DW_TAG_formal_parameter
    2773                            .dwattr $C$DW$152, DW_AT_name("ui32BottomLines")
    2774                            .dwattr $C$DW$152, DW_AT_TI_symbol_name("ui32BottomLines")
    2775                            .dwattr $C$DW$152, DW_AT_type(*$C$DW$T$25)
    2776                            .dwattr $C$DW$152, DW_AT_location[DW_OP_reg2]
    2777                    
    2778                    $C$DW$153       .dwtag  DW_TAG_formal_parameter
    2779                            .dwattr $C$DW$153, DW_AT_name("ui32DefaultPixel")
    2780                            .dwattr $C$DW$153, DW_AT_TI_symbol_name("ui32DefaultPixel")
    2781                            .dwattr $C$DW$153, DW_AT_type(*$C$DW$T$25)
    2782                            .dwattr $C$DW$153, DW_AT_location[DW_OP_reg3]
    2783                    
    2784                    ;----------------------------------------------------------------------
    2785                    ; 1134 | LCDRasterSubPanelConfigSet(uint32_t ui32Base, uint32_t ui32Flags,      
    2786                    ; 1135 | uint32_t ui32BottomLines, uint32_t ui32DefaultPixel)                   
    2787                    ;----------------------------------------------------------------------
    2788                    
    2789                    ;*****************************************************************************
    2790                    ;* FUNCTION NAME: LCDRasterSubPanelConfigSet                                 *
    2791                    ;*                                                                           *
    2792                    ;*   Regs Modified     : A1,A2,A3,A4,V1,SP,SR                                *
    2793                    ;*   Regs Used         : A1,A2,A3,A4,V1,SP,LR,SR                             *
    2794                    ;*   Local Frame Size  : 0 Args + 16 Auto + 8 Save = 24 byte                 *
    2795                    ;*****************************************************************************
    2796 000003d2           LCDRasterSubPanelConfigSet:
    2797                    ;* --------------------------------------------------------------------------*
    2798                            .dwcfi  cfa_offset, 0
    2799 000003d2 B51F              PUSH      {A1, A2, A3, A4, V1, LR} ; [DPU_V7M3_PIPE]  ; [ORIG 16-BIT INS]
    2800                            .dwcfi  cfa_offset, 24
    2801                            .dwcfi  save_reg_to_mem, 14, -4
    2802                            .dwcfi  save_reg_to_mem, 4, -8
    2803                            .dwcfi  save_reg_to_mem, 3, -12
    2804                            .dwcfi  save_reg_to_mem, 2, -16
TI ARM Assembler Unix v18.1.1 Fri Jul  3 20:08:25 2020

Tools Copyright (c) 1996-2017 Texas Instruments Incorporated
lcd.asm                                                              PAGE   52

    2805                            .dwcfi  save_reg_to_mem, 1, -20
    2806                            .dwcfi  save_reg_to_mem, 0, -24
    2807                    $C$DW$154       .dwtag  DW_TAG_variable
    2808                            .dwattr $C$DW$154, DW_AT_name("ui32Base")
    2809                            .dwattr $C$DW$154, DW_AT_TI_symbol_name("ui32Base")
    2810                            .dwattr $C$DW$154, DW_AT_type(*$C$DW$T$25)
    2811                            .dwattr $C$DW$154, DW_AT_location[DW_OP_breg13 0]
    2812                    
    2813                    $C$DW$155       .dwtag  DW_TAG_variable
    2814                            .dwattr $C$DW$155, DW_AT_name("ui32Flags")
    2815                            .dwattr $C$DW$155, DW_AT_TI_symbol_name("ui32Flags")
    2816                            .dwattr $C$DW$155, DW_AT_type(*$C$DW$T$25)
    2817                            .dwattr $C$DW$155, DW_AT_location[DW_OP_breg13 4]
    2818                    
    2819                    $C$DW$156       .dwtag  DW_TAG_variable
    2820                            .dwattr $C$DW$156, DW_AT_name("ui32BottomLines")
    2821                            .dwattr $C$DW$156, DW_AT_TI_symbol_name("ui32BottomLines")
    2822                            .dwattr $C$DW$156, DW_AT_type(*$C$DW$T$25)
    2823                            .dwattr $C$DW$156, DW_AT_location[DW_OP_breg13 8]
    2824                    
    2825                    $C$DW$157       .dwtag  DW_TAG_variable
    2826                            .dwattr $C$DW$157, DW_AT_name("ui32DefaultPixel")
    2827                            .dwattr $C$DW$157, DW_AT_TI_symbol_name("ui32DefaultPixel")
    2828                            .dwattr $C$DW$157, DW_AT_type(*$C$DW$T$25)
    2829                            .dwattr $C$DW$157, DW_AT_location[DW_OP_breg13 12]
    2830                    
    2831                    ;----------------------------------------------------------------------
    2832                    ; 1137 | //                                                                     
    2833                    ; 1138 | // Sanity check parameters.                                            
    2834                    ; 1139 | //                                                                     
    2835                    ; 1140 | ASSERT(ui32Base == LCD0_BASE);                                         
    2836                    ; 1141 | ASSERT((ui32Flags == LCD_SUBPANEL_AT_TOP) ||                           
    2837                    ; 1142 |        (ui32Flags == LCD_SUBPANEL_AT_BOTTOM));                         
    2838                    ; 1143 | ASSERT(ui32BottomLines && (ui32BottomLines <= 2048));                  
    2839                    ; 1145 | //                                                                     
    2840                    ; 1146 | // Adjust the line count into the 0-2047 range.                        
    2841                    ; 1147 | //                                                                     
    2842                    ;----------------------------------------------------------------------
    2843 000003d4 9303              STR       A4, [SP, #12]         ; [DPU_V7M3_PIPE] |1136|  ; [ORIG 16-BIT INS]
    2844 000003d6 9202              STR       A3, [SP, #8]          ; [DPU_V7M3_PIPE] |1136|  ; [ORIG 16-BIT INS]
    2845 000003d8 9101              STR       A2, [SP, #4]          ; [DPU_V7M3_PIPE] |1136|  ; [ORIG 16-BIT INS]
    2846 000003da 9000              STR       A1, [SP, #0]          ; [DPU_V7M3_PIPE] |1136|  ; [ORIG 16-BIT INS]
    2847                            .dwpsn  file "../driverlib/lcd.c",line 1148,column 5,is_stmt,isa 1
    2848                    ;----------------------------------------------------------------------
    2849                    ; 1148 | ui32BottomLines--;                                                     
    2850                    ; 1150 | //                                                                     
    2851                    ; 1151 | // Set the first subpanel configuration register, taking care to leave
    2852                    ;     | the                                                                    
    2853                    ; 1152 | // subpanel enabled if it already was.                                 
    2854                    ; 1153 | //                                                                     
    2855                    ;----------------------------------------------------------------------
    2856 000003dc 9802              LDR       A1, [SP, #8]          ; [DPU_V7M3_PIPE] |1148|  ; [ORIG 16-BIT INS]
    2857 000003de 1E40              SUBS      A1, A1, #1            ; [DPU_V7M3_PIPE] |1148|  ; [ORIG 16-BIT INS]
    2858 000003e0 9002              STR       A1, [SP, #8]          ; [DPU_V7M3_PIPE] |1148|  ; [ORIG 16-BIT INS]
    2859                            .dwpsn  file "../driverlib/lcd.c",line 1154,column 5,is_stmt,isa 1
TI ARM Assembler Unix v18.1.1 Fri Jul  3 20:08:25 2020

Tools Copyright (c) 1996-2017 Texas Instruments Incorporated
lcd.asm                                                              PAGE   53

    2860                    ;----------------------------------------------------------------------
    2861                    ; 1154 | HWREG(ui32Base + LCD_O_RASTRSUBP1) = (HWREG(ui32Base + LCD_O_RASTRSUBP1
    2862                    ;     | ) &                                                                    
    2863                    ; 1155 |                                       LCD_RASTRSUBP1_SPEN) | ui32Flags
    2864                    ;     | |                                                                      
    2865                    ; 1156 |                                      ((ui32DefaultPixel & 0xFFFF) <<   
    2866                    ; 1157 |                                       LCD_RASTRSUBP1_DPDLSB_S) |       
    2867                    ; 1158 |                                      ((ui32BottomLines <<              
    2868                    ; 1159 |                                        LCD_RASTRSUBP1_LPPT_S) &        
    2869                    ; 1160 |                                       LCD_RASTRSUBP1_LPPT_M);          
    2870                    ; 1162 | //                                                                     
    2871                    ; 1163 | // Set the second subpanel configuration register.                     
    2872                    ; 1164 | //                                                                     
    2873                    ;----------------------------------------------------------------------
    2874 000003e2 9800              LDR       A1, [SP, #0]          ; [DPU_V7M3_PIPE] |1154|  ; [ORIG 16-BIT INS]
    2875 000003e4 9C02              LDR       V1, [SP, #8]          ; [DPU_V7M3_PIPE] |1154|  ; [ORIG 16-BIT INS]
    2876 000003e6 9A01              LDR       A3, [SP, #4]          ; [DPU_V7M3_PIPE] |1154|  ; [ORIG 16-BIT INS]
    2877 000003e8 9B00              LDR       A4, [SP, #0]          ; [DPU_V7M3_PIPE] |1154|  ; [ORIG 16-BIT INS]
    2878 000003ea 6B81              LDR       A2, [A1, #56]         ; [DPU_V7M3_PIPE] |1154|  ; [ORIG 16-BIT INS]
    2879 000003ec 9803              LDR       A1, [SP, #12]         ; [DPU_V7M3_PIPE] |1154|  ; [ORIG 16-BIT INS]
    2880 000003ee 0409F3C4          UBFX      V1, V1, #0, #10       ; [DPU_V7M3_PIPE] |1154|  ; [KEEP 32-BIT INS]
    2881 000003f2 4100F001          AND       A2, A2, #-2147483648  ; [DPU_V7M3_PIPE] |1154|  ; [KEEP 32-BIT INS]
    2882 000003f6 430A              ORRS      A3, A3, A2            ; [DPU_V7M3_PIPE] |1154|  ; [ORIG 16-BIT INS]
    2883 000003f8 401FF36F          BFC       A1, #16, #16          ; [DPU_V7M3_PIPE] |1154|  ; [KEEP 32-BIT INS]
    2884 000003fc 0421              LSLS      A2, V1, #16           ; [DPU_V7M3_PIPE] |1154|  ; [ORIG 16-BIT INS]
    2885 000003fe 4310              ORRS      A1, A1, A3            ; [DPU_V7M3_PIPE] |1154|  ; [ORIG 16-BIT INS]
    2886 00000400 4301              ORRS      A2, A2, A1            ; [DPU_V7M3_PIPE] |1154|  ; [ORIG 16-BIT INS]
    2887 00000402 6399              STR       A2, [A4, #56]         ; [DPU_V7M3_PIPE] |1154|  ; [ORIG 16-BIT INS]
    2888                            .dwpsn  file "../driverlib/lcd.c",line 1165,column 5,is_stmt,isa 1
    2889                    ;----------------------------------------------------------------------
    2890                    ; 1165 | HWREG(ui32Base + LCD_O_RASTRSUBP2) =                                   
    2891                    ; 1166 |     ((ui32DefaultPixel >> 16) & LCD_RASTRSUBP2_DPDMSB_M) |             
    2892                    ; 1167 |     (((ui32BottomLines >> LCD_RASTRSUBP1_LPPT_S) & 1) << 8);           
    2893                    ;----------------------------------------------------------------------
    2894 00000404 9803              LDR       A1, [SP, #12]         ; [DPU_V7M3_PIPE] |1165|  ; [ORIG 16-BIT INS]
    2895 00000406 9A02              LDR       A3, [SP, #8]          ; [DPU_V7M3_PIPE] |1165|  ; [ORIG 16-BIT INS]
    2896 00000408 9900              LDR       A2, [SP, #0]          ; [DPU_V7M3_PIPE] |1165|  ; [ORIG 16-BIT INS]
    2897 0000040a 4007F3C0          UBFX      A1, A1, #16, #8       ; [DPU_V7M3_PIPE] |1165|  ; [KEEP 32-BIT INS]
    2898 0000040e 4200F3C2          UBFX      A3, A3, #16, #1       ; [DPU_V7M3_PIPE] |1165|  ; [KEEP 32-BIT INS]
    2899 00000412 2002EA40          ORR       A1, A1, A3, LSL #8    ; [DPU_V7M3_PIPE] |1165|  ; [KEEP 32-BIT INS]
    2900 00000416 63C8              STR       A1, [A2, #60]         ; [DPU_V7M3_PIPE] |1165|  ; [ORIG 16-BIT INS]
    2901                            .dwpsn  file "../driverlib/lcd.c",line 1168,column 1,is_stmt,isa 1
    2902 00000418 9000              STR       A1, [SP, #0]          ; [DPU_V7M3_PIPE]  ; [ORIG 16-BIT INS]
    2903                    $C$DW$158       .dwtag  DW_TAG_TI_branch
    2904                            .dwattr $C$DW$158, DW_AT_low_pc(0x00)
    2905                            .dwattr $C$DW$158, DW_AT_TI_return
    2906                    
    2907 0000041a BD1F              POP       {A1, A2, A3, A4, V1, PC} ; [DPU_V7M3_PIPE]  ; [ORIG 16-BIT INS]
    2908                            .dwcfi  cfa_offset, 0
    2909                            .dwcfi  restore_reg, 4
    2910                            .dwcfi  restore_reg, 3
    2911                            .dwcfi  restore_reg, 2
    2912                            .dwcfi  restore_reg, 1
    2913                            .dwcfi  restore_reg, 0
    2914                            ; BRANCH OCCURS                  ; [] 
TI ARM Assembler Unix v18.1.1 Fri Jul  3 20:08:25 2020

Tools Copyright (c) 1996-2017 Texas Instruments Incorporated
lcd.asm                                                              PAGE   54

    2915                            .dwattr $C$DW$149, DW_AT_TI_end_file("../driverlib/lcd.c")
    2916                            .dwattr $C$DW$149, DW_AT_TI_end_line(0x490)
    2917                            .dwattr $C$DW$149, DW_AT_TI_end_column(0x01)
    2918                            .dwendentry
    2919                            .dwendtag $C$DW$149
    2920                    
    2921 0000041c                   .sect   ".text"
    2922                            .clink
    2923                            .thumbfunc LCDRasterSubPanelEnable
    2924 0000041c                   .thumb
    2925                            .global LCDRasterSubPanelEnable
    2926                    
    2927                    $C$DW$159       .dwtag  DW_TAG_subprogram
    2928                            .dwattr $C$DW$159, DW_AT_name("LCDRasterSubPanelEnable")
    2929                            .dwattr $C$DW$159, DW_AT_low_pc(LCDRasterSubPanelEnable)
    2930                            .dwattr $C$DW$159, DW_AT_high_pc(0x00)
    2931                            .dwattr $C$DW$159, DW_AT_TI_symbol_name("LCDRasterSubPanelEnable")
    2932                            .dwattr $C$DW$159, DW_AT_external
    2933                            .dwattr $C$DW$159, DW_AT_TI_begin_file("../driverlib/lcd.c")
    2934                            .dwattr $C$DW$159, DW_AT_TI_begin_line(0x4a6)
    2935                            .dwattr $C$DW$159, DW_AT_TI_begin_column(0x01)
    2936                            .dwattr $C$DW$159, DW_AT_decl_file("../driverlib/lcd.c")
    2937                            .dwattr $C$DW$159, DW_AT_decl_line(0x4a6)
    2938                            .dwattr $C$DW$159, DW_AT_decl_column(0x01)
    2939                            .dwattr $C$DW$159, DW_AT_TI_max_frame_size(0x08)
    2940                            .dwpsn  file "../driverlib/lcd.c",line 1191,column 1,is_stmt,address LCDRasterSubPanelEnable,i
    2941                    
    2942                            .dwfde $C$DW$CIE, LCDRasterSubPanelEnable
    2943                    $C$DW$160       .dwtag  DW_TAG_formal_parameter
    2944                            .dwattr $C$DW$160, DW_AT_name("ui32Base")
    2945                            .dwattr $C$DW$160, DW_AT_TI_symbol_name("ui32Base")
    2946                            .dwattr $C$DW$160, DW_AT_type(*$C$DW$T$25)
    2947                            .dwattr $C$DW$160, DW_AT_location[DW_OP_reg0]
    2948                    
    2949                    ;----------------------------------------------------------------------
    2950                    ; 1190 | LCDRasterSubPanelEnable(uint32_t ui32Base)                             
    2951                    ;----------------------------------------------------------------------
    2952                    
    2953                    ;*****************************************************************************
    2954                    ;* FUNCTION NAME: LCDRasterSubPanelEnable                                    *
    2955                    ;*                                                                           *
    2956                    ;*   Regs Modified     : A1,A2,SP,SR                                         *
    2957                    ;*   Regs Used         : A1,A2,SP,LR,SR                                      *
    2958                    ;*   Local Frame Size  : 0 Args + 4 Auto + 0 Save = 4 byte                   *
    2959                    ;*****************************************************************************
    2960 0000041c           LCDRasterSubPanelEnable:
    2961                    ;* --------------------------------------------------------------------------*
    2962                            .dwcfi  cfa_offset, 0
    2963 0000041c 0D08F1AD          SUB       SP, SP, #8            ; [DPU_V7M3_PIPE]  ; [KEEP 32-BIT INS]
    2964                            .dwcfi  cfa_offset, 8
    2965                    $C$DW$161       .dwtag  DW_TAG_variable
    2966                            .dwattr $C$DW$161, DW_AT_name("ui32Base")
    2967                            .dwattr $C$DW$161, DW_AT_TI_symbol_name("ui32Base")
    2968                            .dwattr $C$DW$161, DW_AT_type(*$C$DW$T$25)
    2969                            .dwattr $C$DW$161, DW_AT_location[DW_OP_breg13 0]
TI ARM Assembler Unix v18.1.1 Fri Jul  3 20:08:25 2020

Tools Copyright (c) 1996-2017 Texas Instruments Incorporated
lcd.asm                                                              PAGE   55

    2970                    
    2971                    ;----------------------------------------------------------------------
    2972                    ; 1192 | //                                                                     
    2973                    ; 1193 | // Sanity check parameters.                                            
    2974                    ; 1194 | //                                                                     
    2975                    ; 1195 | ASSERT(ui32Base == LCD0_BASE);                                         
    2976                    ; 1197 | //                                                                     
    2977                    ; 1198 | // Enable the subpanel.                                                
    2978                    ; 1199 | //                                                                     
    2979                    ;----------------------------------------------------------------------
    2980 00000420 9000              STR       A1, [SP, #0]          ; [DPU_V7M3_PIPE] |1191|  ; [ORIG 16-BIT INS]
    2981                            .dwpsn  file "../driverlib/lcd.c",line 1200,column 5,is_stmt,isa 1
    2982                    ;----------------------------------------------------------------------
    2983                    ; 1200 | HWREG(ui32Base + LCD_O_RASTRSUBP1) |= LCD_RASTRSUBP1_SPEN;             
    2984                    ;----------------------------------------------------------------------
    2985 00000422 9800              LDR       A1, [SP, #0]          ; [DPU_V7M3_PIPE] |1200|  ; [ORIG 16-BIT INS]
    2986 00000424 3038              ADDS      A1, A1, #56           ; [DPU_V7M3_PIPE] |1200|  ; [ORIG 16-BIT INS]
    2987 00000426 6801              LDR       A2, [A1, #0]          ; [DPU_V7M3_PIPE] |1200|  ; [ORIG 16-BIT INS]
    2988 00000428 4100F041          ORR       A2, A2, #-2147483648  ; [DPU_V7M3_PIPE] |1200|  ; [KEEP 32-BIT INS]
    2989 0000042c 6001              STR       A2, [A1, #0]          ; [DPU_V7M3_PIPE] |1200|  ; [ORIG 16-BIT INS]
    2990                            .dwpsn  file "../driverlib/lcd.c",line 1201,column 1,is_stmt,isa 1
    2991 0000042e B002              ADD       SP, SP, #8            ; [DPU_V7M3_PIPE]  ; [ORIG 16-BIT INS]
    2992                            .dwcfi  cfa_offset, 0
    2993                    $C$DW$162       .dwtag  DW_TAG_TI_branch
    2994                            .dwattr $C$DW$162, DW_AT_low_pc(0x00)
    2995                            .dwattr $C$DW$162, DW_AT_TI_return
    2996                    
    2997 00000430 4770              BX        LR                    ; [DPU_V7M3_PIPE]  ; [ORIG 16-BIT INS]
    2998                            ; BRANCH OCCURS                  ; [] 
    2999                            .dwattr $C$DW$159, DW_AT_TI_end_file("../driverlib/lcd.c")
    3000                            .dwattr $C$DW$159, DW_AT_TI_end_line(0x4b1)
    3001                            .dwattr $C$DW$159, DW_AT_TI_end_column(0x01)
    3002                            .dwendentry
    3003                            .dwendtag $C$DW$159
    3004                    
    3005 00000432                   .sect   ".text"
    3006                            .clink
    3007                            .thumbfunc LCDRasterSubPanelDisable
    3008 00000432                   .thumb
    3009                            .global LCDRasterSubPanelDisable
    3010                    
    3011                    $C$DW$163       .dwtag  DW_TAG_subprogram
    3012                            .dwattr $C$DW$163, DW_AT_name("LCDRasterSubPanelDisable")
    3013                            .dwattr $C$DW$163, DW_AT_low_pc(LCDRasterSubPanelDisable)
    3014                            .dwattr $C$DW$163, DW_AT_high_pc(0x00)
    3015                            .dwattr $C$DW$163, DW_AT_TI_symbol_name("LCDRasterSubPanelDisable")
    3016                            .dwattr $C$DW$163, DW_AT_external
    3017                            .dwattr $C$DW$163, DW_AT_TI_begin_file("../driverlib/lcd.c")
    3018                            .dwattr $C$DW$163, DW_AT_TI_begin_line(0x4c3)
    3019                            .dwattr $C$DW$163, DW_AT_TI_begin_column(0x01)
    3020                            .dwattr $C$DW$163, DW_AT_decl_file("../driverlib/lcd.c")
    3021                            .dwattr $C$DW$163, DW_AT_decl_line(0x4c3)
    3022                            .dwattr $C$DW$163, DW_AT_decl_column(0x01)
    3023                            .dwattr $C$DW$163, DW_AT_TI_max_frame_size(0x08)
    3024                            .dwpsn  file "../driverlib/lcd.c",line 1220,column 1,is_stmt,address LCDRasterSubPanelDisable,
TI ARM Assembler Unix v18.1.1 Fri Jul  3 20:08:25 2020

Tools Copyright (c) 1996-2017 Texas Instruments Incorporated
lcd.asm                                                              PAGE   56

    3025                    
    3026                            .dwfde $C$DW$CIE, LCDRasterSubPanelDisable
    3027                    $C$DW$164       .dwtag  DW_TAG_formal_parameter
    3028                            .dwattr $C$DW$164, DW_AT_name("ui32Base")
    3029                            .dwattr $C$DW$164, DW_AT_TI_symbol_name("ui32Base")
    3030                            .dwattr $C$DW$164, DW_AT_type(*$C$DW$T$25)
    3031                            .dwattr $C$DW$164, DW_AT_location[DW_OP_reg0]
    3032                    
    3033                    ;----------------------------------------------------------------------
    3034                    ; 1219 | LCDRasterSubPanelDisable(uint32_t ui32Base)                            
    3035                    ;----------------------------------------------------------------------
    3036                    
    3037                    ;*****************************************************************************
    3038                    ;* FUNCTION NAME: LCDRasterSubPanelDisable                                   *
    3039                    ;*                                                                           *
    3040                    ;*   Regs Modified     : A1,A2,SP,SR                                         *
    3041                    ;*   Regs Used         : A1,A2,SP,LR,SR                                      *
    3042                    ;*   Local Frame Size  : 0 Args + 4 Auto + 0 Save = 4 byte                   *
    3043                    ;*****************************************************************************
    3044 00000432           LCDRasterSubPanelDisable:
    3045                    ;* --------------------------------------------------------------------------*
    3046                            .dwcfi  cfa_offset, 0
    3047 00000432 0D08F1AD          SUB       SP, SP, #8            ; [DPU_V7M3_PIPE]  ; [KEEP 32-BIT INS]
    3048                            .dwcfi  cfa_offset, 8
    3049                    $C$DW$165       .dwtag  DW_TAG_variable
    3050                            .dwattr $C$DW$165, DW_AT_name("ui32Base")
    3051                            .dwattr $C$DW$165, DW_AT_TI_symbol_name("ui32Base")
    3052                            .dwattr $C$DW$165, DW_AT_type(*$C$DW$T$25)
    3053                            .dwattr $C$DW$165, DW_AT_location[DW_OP_breg13 0]
    3054                    
    3055                    ;----------------------------------------------------------------------
    3056                    ; 1221 | //                                                                     
    3057                    ; 1222 | // Sanity check parameters.                                            
    3058                    ; 1223 | //                                                                     
    3059                    ; 1224 | ASSERT(ui32Base == LCD0_BASE);                                         
    3060                    ; 1226 | //                                                                     
    3061                    ; 1227 | // Disable the subpanel.                                               
    3062                    ; 1228 | //                                                                     
    3063                    ;----------------------------------------------------------------------
    3064 00000436 9000              STR       A1, [SP, #0]          ; [DPU_V7M3_PIPE] |1220|  ; [ORIG 16-BIT INS]
    3065                            .dwpsn  file "../driverlib/lcd.c",line 1229,column 5,is_stmt,isa 1
    3066                    ;----------------------------------------------------------------------
    3067                    ; 1229 | HWREG(ui32Base + LCD_O_RASTRSUBP1) &= ~LCD_RASTRSUBP1_SPEN;            
    3068                    ;----------------------------------------------------------------------
    3069 00000438 9800              LDR       A1, [SP, #0]          ; [DPU_V7M3_PIPE] |1229|  ; [ORIG 16-BIT INS]
    3070 0000043a 3038              ADDS      A1, A1, #56           ; [DPU_V7M3_PIPE] |1229|  ; [ORIG 16-BIT INS]
    3071 0000043c 6801              LDR       A2, [A1, #0]          ; [DPU_V7M3_PIPE] |1229|  ; [ORIG 16-BIT INS]
    3072 0000043e 4100F021          BIC       A2, A2, #-2147483648  ; [DPU_V7M3_PIPE] |1229|  ; [KEEP 32-BIT INS]
    3073 00000442 6001              STR       A2, [A1, #0]          ; [DPU_V7M3_PIPE] |1229|  ; [ORIG 16-BIT INS]
    3074                            .dwpsn  file "../driverlib/lcd.c",line 1230,column 1,is_stmt,isa 1
    3075 00000444 B002              ADD       SP, SP, #8            ; [DPU_V7M3_PIPE]  ; [ORIG 16-BIT INS]
    3076                            .dwcfi  cfa_offset, 0
    3077                    $C$DW$166       .dwtag  DW_TAG_TI_branch
    3078                            .dwattr $C$DW$166, DW_AT_low_pc(0x00)
    3079                            .dwattr $C$DW$166, DW_AT_TI_return
TI ARM Assembler Unix v18.1.1 Fri Jul  3 20:08:25 2020

Tools Copyright (c) 1996-2017 Texas Instruments Incorporated
lcd.asm                                                              PAGE   57

    3080                    
    3081 00000446 4770              BX        LR                    ; [DPU_V7M3_PIPE]  ; [ORIG 16-BIT INS]
    3082                            ; BRANCH OCCURS                  ; [] 
    3083                            .dwattr $C$DW$163, DW_AT_TI_end_file("../driverlib/lcd.c")
    3084                            .dwattr $C$DW$163, DW_AT_TI_end_line(0x4ce)
    3085                            .dwattr $C$DW$163, DW_AT_TI_end_column(0x01)
    3086                            .dwendentry
    3087                            .dwendtag $C$DW$163
    3088                    
    3089 00000448                   .sect   ".text"
    3090                            .clink
    3091                            .thumbfunc LCDDMAConfigSet
    3092 00000448                   .thumb
    3093                            .global LCDDMAConfigSet
    3094                    
    3095                    $C$DW$167       .dwtag  DW_TAG_subprogram
    3096                            .dwattr $C$DW$167, DW_AT_name("LCDDMAConfigSet")
    3097                            .dwattr $C$DW$167, DW_AT_low_pc(LCDDMAConfigSet)
    3098                            .dwattr $C$DW$167, DW_AT_high_pc(0x00)
    3099                            .dwattr $C$DW$167, DW_AT_TI_symbol_name("LCDDMAConfigSet")
    3100                            .dwattr $C$DW$167, DW_AT_external
    3101                            .dwattr $C$DW$167, DW_AT_TI_begin_file("../driverlib/lcd.c")
    3102                            .dwattr $C$DW$167, DW_AT_TI_begin_line(0x50d)
    3103                            .dwattr $C$DW$167, DW_AT_TI_begin_column(0x01)
    3104                            .dwattr $C$DW$167, DW_AT_decl_file("../driverlib/lcd.c")
    3105                            .dwattr $C$DW$167, DW_AT_decl_line(0x50d)
    3106                            .dwattr $C$DW$167, DW_AT_decl_column(0x01)
    3107                            .dwattr $C$DW$167, DW_AT_TI_max_frame_size(0x08)
    3108                            .dwpsn  file "../driverlib/lcd.c",line 1294,column 1,is_stmt,address LCDDMAConfigSet,isa 1
    3109                    
    3110                            .dwfde $C$DW$CIE, LCDDMAConfigSet
    3111                    $C$DW$168       .dwtag  DW_TAG_formal_parameter
    3112                            .dwattr $C$DW$168, DW_AT_name("ui32Base")
    3113                            .dwattr $C$DW$168, DW_AT_TI_symbol_name("ui32Base")
    3114                            .dwattr $C$DW$168, DW_AT_type(*$C$DW$T$25)
    3115                            .dwattr $C$DW$168, DW_AT_location[DW_OP_reg0]
    3116                    
    3117                    $C$DW$169       .dwtag  DW_TAG_formal_parameter
    3118                            .dwattr $C$DW$169, DW_AT_name("ui32Config")
    3119                            .dwattr $C$DW$169, DW_AT_TI_symbol_name("ui32Config")
    3120                            .dwattr $C$DW$169, DW_AT_type(*$C$DW$T$25)
    3121                            .dwattr $C$DW$169, DW_AT_location[DW_OP_reg1]
    3122                    
    3123                    ;----------------------------------------------------------------------
    3124                    ; 1293 | LCDDMAConfigSet(uint32_t ui32Base, uint32_t ui32Config)                
    3125                    ;----------------------------------------------------------------------
    3126                    
    3127                    ;*****************************************************************************
    3128                    ;* FUNCTION NAME: LCDDMAConfigSet                                            *
    3129                    ;*                                                                           *
    3130                    ;*   Regs Modified     : A1,A2,SP                                            *
    3131                    ;*   Regs Used         : A1,A2,SP,LR                                         *
    3132                    ;*   Local Frame Size  : 0 Args + 8 Auto + 0 Save = 8 byte                   *
    3133                    ;*****************************************************************************
    3134 00000448           LCDDMAConfigSet:
TI ARM Assembler Unix v18.1.1 Fri Jul  3 20:08:25 2020

Tools Copyright (c) 1996-2017 Texas Instruments Incorporated
lcd.asm                                                              PAGE   58

    3135                    ;* --------------------------------------------------------------------------*
    3136                            .dwcfi  cfa_offset, 0
    3137 00000448 0D08F1AD          SUB       SP, SP, #8            ; [DPU_V7M3_PIPE]  ; [KEEP 32-BIT INS]
    3138                            .dwcfi  cfa_offset, 8
    3139                    $C$DW$170       .dwtag  DW_TAG_variable
    3140                            .dwattr $C$DW$170, DW_AT_name("ui32Base")
    3141                            .dwattr $C$DW$170, DW_AT_TI_symbol_name("ui32Base")
    3142                            .dwattr $C$DW$170, DW_AT_type(*$C$DW$T$25)
    3143                            .dwattr $C$DW$170, DW_AT_location[DW_OP_breg13 0]
    3144                    
    3145                    $C$DW$171       .dwtag  DW_TAG_variable
    3146                            .dwattr $C$DW$171, DW_AT_name("ui32Config")
    3147                            .dwattr $C$DW$171, DW_AT_TI_symbol_name("ui32Config")
    3148                            .dwattr $C$DW$171, DW_AT_type(*$C$DW$T$25)
    3149                            .dwattr $C$DW$171, DW_AT_location[DW_OP_breg13 4]
    3150                    
    3151                    ;----------------------------------------------------------------------
    3152                    ; 1295 | //                                                                     
    3153                    ; 1296 | // Sanity check parameters.                                            
    3154                    ; 1297 | //                                                                     
    3155                    ; 1298 | ASSERT(ui32Base == LCD0_BASE);                                         
    3156                    ; 1299 | ASSERT(!(ui32Config & ~(LCD_DMACTL_FIFORDY_M | LCD_DMACTL_BURSTSZ_M |  
    3157                    ; 1300 |                         LCD_DMACTL_BYTESWAP | LCD_DMACTL_BIGDEND |     
    3158                    ; 1301 |                         LCD_DMACTL_FMODE)));                           
    3159                    ; 1303 | //                                                                     
    3160                    ; 1304 | // Write the DMA control register.                                     
    3161                    ; 1305 | //                                                                     
    3162                    ;----------------------------------------------------------------------
    3163 0000044c 9101              STR       A2, [SP, #4]          ; [DPU_V7M3_PIPE] |1294|  ; [ORIG 16-BIT INS]
    3164 0000044e 9000              STR       A1, [SP, #0]          ; [DPU_V7M3_PIPE] |1294|  ; [ORIG 16-BIT INS]
    3165                            .dwpsn  file "../driverlib/lcd.c",line 1306,column 5,is_stmt,isa 1
    3166                    ;----------------------------------------------------------------------
    3167                    ; 1306 | HWREG(ui32Base + LCD_O_DMACTL) = ui32Config;                           
    3168                    ;----------------------------------------------------------------------
    3169 00000450 9801              LDR       A1, [SP, #4]          ; [DPU_V7M3_PIPE] |1306|  ; [ORIG 16-BIT INS]
    3170 00000452 9900              LDR       A2, [SP, #0]          ; [DPU_V7M3_PIPE] |1306|  ; [ORIG 16-BIT INS]
    3171 00000454 6408              STR       A1, [A2, #64]         ; [DPU_V7M3_PIPE] |1306|  ; [ORIG 16-BIT INS]
    3172                            .dwpsn  file "../driverlib/lcd.c",line 1307,column 1,is_stmt,isa 1
    3173 00000456 B002              ADD       SP, SP, #8            ; [DPU_V7M3_PIPE]  ; [ORIG 16-BIT INS]
    3174                            .dwcfi  cfa_offset, 0
    3175                    $C$DW$172       .dwtag  DW_TAG_TI_branch
    3176                            .dwattr $C$DW$172, DW_AT_low_pc(0x00)
    3177                            .dwattr $C$DW$172, DW_AT_TI_return
    3178                    
    3179 00000458 4770              BX        LR                    ; [DPU_V7M3_PIPE]  ; [ORIG 16-BIT INS]
    3180                            ; BRANCH OCCURS                  ; [] 
    3181                            .dwattr $C$DW$167, DW_AT_TI_end_file("../driverlib/lcd.c")
    3182                            .dwattr $C$DW$167, DW_AT_TI_end_line(0x51b)
    3183                            .dwattr $C$DW$167, DW_AT_TI_end_column(0x01)
    3184                            .dwendentry
    3185                            .dwendtag $C$DW$167
    3186                    
    3187 0000045a                   .sect   ".text"
    3188                            .clink
    3189                            .thumbfunc LCDRasterPaletteSet
TI ARM Assembler Unix v18.1.1 Fri Jul  3 20:08:25 2020

Tools Copyright (c) 1996-2017 Texas Instruments Incorporated
lcd.asm                                                              PAGE   59

    3190 0000045a                   .thumb
    3191                            .global LCDRasterPaletteSet
    3192                    
    3193                    $C$DW$173       .dwtag  DW_TAG_subprogram
    3194                            .dwattr $C$DW$173, DW_AT_name("LCDRasterPaletteSet")
    3195                            .dwattr $C$DW$173, DW_AT_low_pc(LCDRasterPaletteSet)
    3196                            .dwattr $C$DW$173, DW_AT_high_pc(0x00)
    3197                            .dwattr $C$DW$173, DW_AT_TI_symbol_name("LCDRasterPaletteSet")
    3198                            .dwattr $C$DW$173, DW_AT_external
    3199                            .dwattr $C$DW$173, DW_AT_TI_begin_file("../driverlib/lcd.c")
    3200                            .dwattr $C$DW$173, DW_AT_TI_begin_line(0x557)
    3201                            .dwattr $C$DW$173, DW_AT_TI_begin_column(0x01)
    3202                            .dwattr $C$DW$173, DW_AT_decl_file("../driverlib/lcd.c")
    3203                            .dwattr $C$DW$173, DW_AT_decl_line(0x557)
    3204                            .dwattr $C$DW$173, DW_AT_decl_column(0x01)
    3205                            .dwattr $C$DW$173, DW_AT_TI_max_frame_size(0x28)
    3206                            .dwpsn  file "../driverlib/lcd.c",line 1370,column 1,is_stmt,address LCDRasterPaletteSet,isa 1
    3207                    
    3208                            .dwfde $C$DW$CIE, LCDRasterPaletteSet
    3209                    $C$DW$174       .dwtag  DW_TAG_formal_parameter
    3210                            .dwattr $C$DW$174, DW_AT_name("ui32Base")
    3211                            .dwattr $C$DW$174, DW_AT_TI_symbol_name("ui32Base")
    3212                            .dwattr $C$DW$174, DW_AT_type(*$C$DW$T$25)
    3213                            .dwattr $C$DW$174, DW_AT_location[DW_OP_reg0]
    3214                    
    3215                    $C$DW$175       .dwtag  DW_TAG_formal_parameter
    3216                            .dwattr $C$DW$175, DW_AT_name("ui32Type")
    3217                            .dwattr $C$DW$175, DW_AT_TI_symbol_name("ui32Type")
    3218                            .dwattr $C$DW$175, DW_AT_type(*$C$DW$T$25)
    3219                            .dwattr $C$DW$175, DW_AT_location[DW_OP_reg1]
    3220                    
    3221                    $C$DW$176       .dwtag  DW_TAG_formal_parameter
    3222                            .dwattr $C$DW$176, DW_AT_name("pui32Addr")
    3223                            .dwattr $C$DW$176, DW_AT_TI_symbol_name("pui32Addr")
    3224                            .dwattr $C$DW$176, DW_AT_type(*$C$DW$T$56)
    3225                            .dwattr $C$DW$176, DW_AT_location[DW_OP_reg2]
    3226                    
    3227                    $C$DW$177       .dwtag  DW_TAG_formal_parameter
    3228                            .dwattr $C$DW$177, DW_AT_name("pui32SrcColors")
    3229                            .dwattr $C$DW$177, DW_AT_TI_symbol_name("pui32SrcColors")
    3230                            .dwattr $C$DW$177, DW_AT_type(*$C$DW$T$50)
    3231                            .dwattr $C$DW$177, DW_AT_location[DW_OP_reg3]
    3232                    
    3233                    $C$DW$178       .dwtag  DW_TAG_formal_parameter
    3234                            .dwattr $C$DW$178, DW_AT_name("ui32Start")
    3235                            .dwattr $C$DW$178, DW_AT_TI_symbol_name("ui32Start")
    3236                            .dwattr $C$DW$178, DW_AT_type(*$C$DW$T$25)
    3237                            .dwattr $C$DW$178, DW_AT_location[DW_OP_breg13 40]
    3238                    
    3239                    $C$DW$179       .dwtag  DW_TAG_formal_parameter
    3240                            .dwattr $C$DW$179, DW_AT_name("ui32Count")
    3241                            .dwattr $C$DW$179, DW_AT_TI_symbol_name("ui32Count")
    3242                            .dwattr $C$DW$179, DW_AT_type(*$C$DW$T$25)
    3243                            .dwattr $C$DW$179, DW_AT_location[DW_OP_breg13 44]
    3244                    
TI ARM Assembler Unix v18.1.1 Fri Jul  3 20:08:25 2020

Tools Copyright (c) 1996-2017 Texas Instruments Incorporated
lcd.asm                                                              PAGE   60

    3245                    ;----------------------------------------------------------------------
    3246                    ; 1367 | LCDRasterPaletteSet(uint32_t ui32Base, uint32_t ui32Type, uint32_t *pui
    3247                    ;     | 32Addr,                                                                
    3248                    ; 1368 | const uint32_t *pui32SrcColors, uint32_t ui32Start,                    
    3249                    ; 1369 | uint32_t ui32Count)                                                    
    3250                    ;----------------------------------------------------------------------
    3251                    
    3252                    ;*****************************************************************************
    3253                    ;* FUNCTION NAME: LCDRasterPaletteSet                                        *
    3254                    ;*                                                                           *
    3255                    ;*   Regs Modified     : A1,A2,A3,A4,V1,V2,SP,SR                             *
    3256                    ;*   Regs Used         : A1,A2,A3,A4,V1,V2,SP,LR,SR                          *
    3257                    ;*   Local Frame Size  : 0 Args + 28 Auto + 12 Save = 40 byte                *
    3258                    ;*****************************************************************************
    3259 0000045a           LCDRasterPaletteSet:
    3260                    ;* --------------------------------------------------------------------------*
    3261                            .dwcfi  cfa_offset, 0
    3262 0000045a B530              PUSH      {V1, V2, LR}          ; [DPU_V7M3_PIPE]  ; [ORIG 16-BIT INS]
    3263                            .dwcfi  cfa_offset, 12
    3264                            .dwcfi  save_reg_to_mem, 14, -4
    3265                            .dwcfi  save_reg_to_mem, 5, -8
    3266                            .dwcfi  save_reg_to_mem, 4, -12
    3267 0000045c 0D1CF1AD          SUB       SP, SP, #28           ; [DPU_V7M3_PIPE]  ; [KEEP 32-BIT INS]
    3268                            .dwcfi  cfa_offset, 40
    3269                    $C$DW$180       .dwtag  DW_TAG_variable
    3270                            .dwattr $C$DW$180, DW_AT_name("ui32Base")
    3271                            .dwattr $C$DW$180, DW_AT_TI_symbol_name("ui32Base")
    3272                            .dwattr $C$DW$180, DW_AT_type(*$C$DW$T$25)
    3273                            .dwattr $C$DW$180, DW_AT_location[DW_OP_breg13 0]
    3274                    
    3275                    $C$DW$181       .dwtag  DW_TAG_variable
    3276                            .dwattr $C$DW$181, DW_AT_name("ui32Type")
    3277                            .dwattr $C$DW$181, DW_AT_TI_symbol_name("ui32Type")
    3278                            .dwattr $C$DW$181, DW_AT_type(*$C$DW$T$25)
    3279                            .dwattr $C$DW$181, DW_AT_location[DW_OP_breg13 4]
    3280                    
    3281                    $C$DW$182       .dwtag  DW_TAG_variable
    3282                            .dwattr $C$DW$182, DW_AT_name("pui32Addr")
    3283                            .dwattr $C$DW$182, DW_AT_TI_symbol_name("pui32Addr")
    3284                            .dwattr $C$DW$182, DW_AT_type(*$C$DW$T$56)
    3285                            .dwattr $C$DW$182, DW_AT_location[DW_OP_breg13 8]
    3286                    
    3287                    $C$DW$183       .dwtag  DW_TAG_variable
    3288                            .dwattr $C$DW$183, DW_AT_name("pui32SrcColors")
    3289                            .dwattr $C$DW$183, DW_AT_TI_symbol_name("pui32SrcColors")
    3290                            .dwattr $C$DW$183, DW_AT_type(*$C$DW$T$50)
    3291                            .dwattr $C$DW$183, DW_AT_location[DW_OP_breg13 12]
    3292                    
    3293                    $C$DW$184       .dwtag  DW_TAG_variable
    3294                            .dwattr $C$DW$184, DW_AT_name("pui16Pal")
    3295                            .dwattr $C$DW$184, DW_AT_TI_symbol_name("pui16Pal")
    3296                            .dwattr $C$DW$184, DW_AT_type(*$C$DW$T$78)
    3297                            .dwattr $C$DW$184, DW_AT_location[DW_OP_breg13 16]
    3298                    
    3299                    $C$DW$185       .dwtag  DW_TAG_variable
TI ARM Assembler Unix v18.1.1 Fri Jul  3 20:08:25 2020

Tools Copyright (c) 1996-2017 Texas Instruments Incorporated
lcd.asm                                                              PAGE   61

    3300                            .dwattr $C$DW$185, DW_AT_name("pui16Src")
    3301                            .dwattr $C$DW$185, DW_AT_TI_symbol_name("pui16Src")
    3302                            .dwattr $C$DW$185, DW_AT_type(*$C$DW$T$78)
    3303                            .dwattr $C$DW$185, DW_AT_location[DW_OP_breg13 20]
    3304                    
    3305                    $C$DW$186       .dwtag  DW_TAG_variable
    3306                            .dwattr $C$DW$186, DW_AT_name("ui32Loop")
    3307                            .dwattr $C$DW$186, DW_AT_TI_symbol_name("ui32Loop")
    3308                            .dwattr $C$DW$186, DW_AT_type(*$C$DW$T$25)
    3309                            .dwattr $C$DW$186, DW_AT_location[DW_OP_breg13 24]
    3310                    
    3311                    ;----------------------------------------------------------------------
    3312                    ; 1371 | uint16_t *pui16Pal;                                                    
    3313                    ; 1372 | uint16_t *pui16Src;                                                    
    3314                    ; 1373 | uint32_t ui32Loop;                                                     
    3315                    ; 1375 | //                                                                     
    3316                    ; 1376 | // Sanity check parameters.                                            
    3317                    ; 1377 | //                                                                     
    3318                    ; 1378 | ASSERT(ui32Base == LCD0_BASE);                                         
    3319                    ; 1379 | ASSERT(ui32Start < 256);                                               
    3320                    ; 1380 | ASSERT((ui32Start + ui32Count) <= 256);                                
    3321                    ; 1381 | ASSERT(pui32Addr);                                                     
    3322                    ; 1382 | ASSERT((pui32SrcColors) || (ui32Count == 0));                          
    3323                    ; 1383 | ASSERT(!(ui32Type & ~(LCD_PALETTE_SRC_24BIT | LCD_PALETTE_TYPE_DIRECT |
    3324                    ; 1384 |                       LCD_PALETTE_TYPE_8BPP | LCD_PALETTE_TYPE_4BPP |  
    3325                    ; 1385 |                       LCD_PALETTE_TYPE_2BPP | LCD_PALETTE_TYPE_1BPP)));
    3326                    ; 1387 | //                                                                     
    3327                    ; 1388 | // Get a pointer to the start of the palette.                          
    3328                    ; 1389 | //                                                                     
    3329                    ;----------------------------------------------------------------------
    3330 00000460 9303              STR       A4, [SP, #12]         ; [DPU_V7M3_PIPE] |1370|  ; [ORIG 16-BIT INS]
    3331 00000462 9202              STR       A3, [SP, #8]          ; [DPU_V7M3_PIPE] |1370|  ; [ORIG 16-BIT INS]
    3332 00000464 9101              STR       A2, [SP, #4]          ; [DPU_V7M3_PIPE] |1370|  ; [ORIG 16-BIT INS]
    3333 00000466 9000              STR       A1, [SP, #0]          ; [DPU_V7M3_PIPE] |1370|  ; [ORIG 16-BIT INS]
    3334                            .dwpsn  file "../driverlib/lcd.c",line 1390,column 5,is_stmt,isa 1
    3335                    ;----------------------------------------------------------------------
    3336                    ; 1390 | pui16Pal = (uint16_t *)pui32Addr;                                      
    3337                    ; 1392 | //                                                                     
    3338                    ; 1393 | // Are we converting the palette color format?                         
    3339                    ; 1394 | //                                                                     
    3340                    ;----------------------------------------------------------------------
    3341 00000468 9802              LDR       A1, [SP, #8]          ; [DPU_V7M3_PIPE] |1390|  ; [ORIG 16-BIT INS]
    3342 0000046a 9004              STR       A1, [SP, #16]         ; [DPU_V7M3_PIPE] |1390|  ; [ORIG 16-BIT INS]
    3343                            .dwpsn  file "../driverlib/lcd.c",line 1395,column 5,is_stmt,isa 1
    3344                    ;----------------------------------------------------------------------
    3345                    ; 1395 | if(ui32Type & LCD_PALETTE_SRC_24BIT)                                   
    3346                    ; 1397 |     //                                                                 
    3347                    ; 1398 |     // Yes - loop through each of the supplied 24-bit colors converting
    3348                    ; 1399 |     // and storing each.                                               
    3349                    ; 1400 |     //                                                                 
    3350                    ;----------------------------------------------------------------------
    3351 0000046c 9801              LDR       A1, [SP, #4]          ; [DPU_V7M3_PIPE] |1395|  ; [ORIG 16-BIT INS]
    3352 0000046e 0800              LSRS      A1, A1, #32           ; [DPU_V7M3_PIPE] |1395|  ; [ORIG 16-BIT INS]
    3353 00000470 D32B              BCC       ||$C$L27||            ; [DPU_V7M3_PIPE] |1395|  ; [ORIG 16-BIT INS]
    3354                            ; BRANCHCC OCCURS {||$C$L27||}   ; [] |1395| 
TI ARM Assembler Unix v18.1.1 Fri Jul  3 20:08:25 2020

Tools Copyright (c) 1996-2017 Texas Instruments Incorporated
lcd.asm                                                              PAGE   62

    3355                    ;* --------------------------------------------------------------------------*
    3356                            .dwpsn  file "../driverlib/lcd.c",line 1401,column 9,is_stmt,isa 1
    3357                    ;----------------------------------------------------------------------
    3358                    ; 1401 | ui32Loop = 0;                                                          
    3359                    ;----------------------------------------------------------------------
    3360 00000472 2000              MOVS      A1, #0                ; [DPU_V7M3_PIPE] |1401|  ; [ORIG 16-BIT INS]
    3361 00000474 9006              STR       A1, [SP, #24]         ; [DPU_V7M3_PIPE] |1401|  ; [ORIG 16-BIT INS]
    3362                            .dwpsn  file "../driverlib/lcd.c",line 1402,column 9,is_stmt,isa 1
    3363                    ;----------------------------------------------------------------------
    3364                    ; 1402 | while(ui32Count)                                                       
    3365                    ;----------------------------------------------------------------------
    3366 00000476 980B              LDR       A1, [SP, #44]         ; [DPU_V7M3_PIPE] |1402|  ; [ORIG 16-BIT INS]
    3367 00000478 2800              CMP       A1, #0                ; [DPU_V7M3_PIPE] |1402|  ; [ORIG 16-BIT INS]
    3368 0000047a D03B              BEQ       ||$C$L29||            ; [DPU_V7M3_PIPE] |1402|  ; [ORIG 16-BIT INS]
    3369                            ; BRANCHCC OCCURS {||$C$L29||}   ; [] |1402| 
    3370                    ;* --------------------------------------------------------------------------*
    3371                    ;*   BEGIN LOOP ||$C$L26||
    3372                    ;*
    3373                    ;*   Loop source line                : 1402
    3374                    ;*   Loop closing brace source line  : 1408
    3375                    ;*   Known Minimum Trip Count        : 1
    3376                    ;*   Known Maximum Trip Count        : 4294967295
    3377                    ;*   Known Max Trip Count Factor     : 1
    3378                    ;* --------------------------------------------------------------------------*
    3379 0000047c           ||$C$L26||:    
    3380                            .dwpsn  file "../driverlib/lcd.c",line 1404,column 13,is_stmt,isa 1
    3381                    ;----------------------------------------------------------------------
    3382                    ; 1404 | pui16Pal[ui32Start + ui32Loop] =                                       
    3383                    ; 1405 |     PAL_FROM_RGB(pui32SrcColors[ui32Loop]);                            
    3384                    ;----------------------------------------------------------------------
    3385 0000047c 9B06              LDR       A4, [SP, #24]         ; [DPU_V7M3_PIPE] |1404|  ; [ORIG 16-BIT INS]
    3386 0000047e 9C03              LDR       V1, [SP, #12]         ; [DPU_V7M3_PIPE] |1404|  ; [ORIG 16-BIT INS]
    3387 00000480 9906              LDR       A2, [SP, #24]         ; [DPU_V7M3_PIPE] |1404|  ; [ORIG 16-BIT INS]
    3388 00000482 9A03              LDR       A3, [SP, #12]         ; [DPU_V7M3_PIPE] |1404|  ; [ORIG 16-BIT INS]
    3389 00000484 9806              LDR       A1, [SP, #24]         ; [DPU_V7M3_PIPE] |1404|  ; [ORIG 16-BIT INS]
    3390 00000486 9D03              LDR       V2, [SP, #12]         ; [DPU_V7M3_PIPE] |1404|  ; [ORIG 16-BIT INS]
    3391 00000488 3023F854          LDR       A4, [V1, +A4, LSL #2] ; [DPU_V7M3_PIPE] |1404|  ; [KEEP 32-BIT INS]
    3392 0000048c 2021F852          LDR       A3, [A3, +A2, LSL #2] ; [DPU_V7M3_PIPE] |1404|  ; [KEEP 32-BIT INS]
    3393 00000490 0020F855          LDR       A1, [V2, +A1, LSL #2] ; [DPU_V7M3_PIPE] |1404|  ; [KEEP 32-BIT INS]
    3394 00000494 9C06              LDR       V1, [SP, #24]         ; [DPU_V7M3_PIPE] |1404|  ; [ORIG 16-BIT INS]
    3395 00000496 990A              LDR       A2, [SP, #40]         ; [DPU_V7M3_PIPE] |1404|  ; [ORIG 16-BIT INS]
    3396 00000498 9D04              LDR       V2, [SP, #16]         ; [DPU_V7M3_PIPE] |1404|  ; [ORIG 16-BIT INS]
    3397 0000049a 00F0F000          AND       A1, A1, #240          ; [DPU_V7M3_PIPE] |1404|  ; [KEEP 32-BIT INS]
    3398 0000049e 4370F403          AND       A4, A4, #61440        ; [DPU_V7M3_PIPE] |1404|  ; [KEEP 32-BIT INS]
    3399 000004a2 0270F402          AND       A3, A3, #15728640     ; [DPU_V7M3_PIPE] |1404|  ; [KEEP 32-BIT INS]
    3400 000004a6 0900              LSRS      A1, A1, #4            ; [DPU_V7M3_PIPE] |1404|  ; [ORIG 16-BIT INS]
    3401 000004a8 1909              ADDS      A2, A2, V1            ; [DPU_V7M3_PIPE] |1404|  ; [ORIG 16-BIT INS]
    3402 000004aa 2013EA40          ORR       A1, A1, A4, LSR #8    ; [DPU_V7M3_PIPE] |1404|  ; [KEEP 32-BIT INS]
    3403 000004ae 3012EA40          ORR       A1, A1, A3, LSR #12   ; [DPU_V7M3_PIPE] |1404|  ; [KEEP 32-BIT INS]
    3404 000004b2 0011F825          STRH      A1, [V2, +A2, LSL #1] ; [DPU_V7M3_PIPE] |1404|  ; [KEEP 32-BIT INS]
    3405                            .dwpsn  file "../driverlib/lcd.c",line 1406,column 13,is_stmt,isa 1
    3406                    ;----------------------------------------------------------------------
    3407                    ; 1406 | ui32Loop++;                                                            
    3408                    ;----------------------------------------------------------------------
    3409 000004b6 9806              LDR       A1, [SP, #24]         ; [DPU_V7M3_PIPE] |1406|  ; [ORIG 16-BIT INS]
TI ARM Assembler Unix v18.1.1 Fri Jul  3 20:08:25 2020

Tools Copyright (c) 1996-2017 Texas Instruments Incorporated
lcd.asm                                                              PAGE   63

    3410 000004b8 1C40              ADDS      A1, A1, #1            ; [DPU_V7M3_PIPE] |1406|  ; [ORIG 16-BIT INS]
    3411 000004ba 9006              STR       A1, [SP, #24]         ; [DPU_V7M3_PIPE] |1406|  ; [ORIG 16-BIT INS]
    3412                            .dwpsn  file "../driverlib/lcd.c",line 1407,column 13,is_stmt,isa 1
    3413                    ;----------------------------------------------------------------------
    3414                    ; 1407 | ui32Count--;                                                           
    3415                    ;----------------------------------------------------------------------
    3416 000004bc 980B              LDR       A1, [SP, #44]         ; [DPU_V7M3_PIPE] |1407|  ; [ORIG 16-BIT INS]
    3417 000004be 1E40              SUBS      A1, A1, #1            ; [DPU_V7M3_PIPE] |1407|  ; [ORIG 16-BIT INS]
    3418 000004c0 900B              STR       A1, [SP, #44]         ; [DPU_V7M3_PIPE] |1407|  ; [ORIG 16-BIT INS]
    3419                            .dwpsn  file "../driverlib/lcd.c",line 1402,column 9,is_stmt,isa 1
    3420 000004c2 980B              LDR       A1, [SP, #44]         ; [DPU_V7M3_PIPE] |1402|  ; [ORIG 16-BIT INS]
    3421 000004c4 2800              CMP       A1, #0                ; [DPU_V7M3_PIPE] |1402|  ; [ORIG 16-BIT INS]
    3422 000004c6 D1D9              BNE       ||$C$L26||            ; [DPU_V7M3_PIPE] |1402|  ; [ORIG 16-BIT INS]
    3423                            ; BRANCHCC OCCURS {||$C$L26||}   ; [] |1402| 
    3424                    ;* --------------------------------------------------------------------------*
    3425                            .dwpsn  file "../driverlib/lcd.c",line 1409,column 5,is_stmt,isa 1
    3426                    ;----------------------------------------------------------------------
    3427                    ; 1410 | else                                                                   
    3428                    ; 1412 |     //                                                                 
    3429                    ; 1413 |     // No - loop through the supplied 12-bit colors storing each.      
    3430                    ; 1414 |     //                                                                 
    3431                    ;----------------------------------------------------------------------
    3432 000004c8 E014              B         ||$C$L29||            ; [DPU_V7M3_PIPE] |1409|  ; [ORIG 16-BIT INS]
    3433                            ; BRANCH OCCURS {||$C$L29||}     ; [] |1409| 
    3434                    ;* --------------------------------------------------------------------------*
    3435 000004ca           ||$C$L27||:    
    3436                            .dwpsn  file "../driverlib/lcd.c",line 1416,column 9,is_stmt,isa 1
    3437                    ;----------------------------------------------------------------------
    3438                    ; 1416 | pui16Src = (uint16_t *)pui32SrcColors;                                 
    3439                    ;----------------------------------------------------------------------
    3440 000004ca 9803              LDR       A1, [SP, #12]         ; [DPU_V7M3_PIPE] |1416|  ; [ORIG 16-BIT INS]
    3441 000004cc 9005              STR       A1, [SP, #20]         ; [DPU_V7M3_PIPE] |1416|  ; [ORIG 16-BIT INS]
    3442                            .dwpsn  file "../driverlib/lcd.c",line 1417,column 9,is_stmt,isa 1
    3443                    ;----------------------------------------------------------------------
    3444                    ; 1417 | while(ui32Count)                                                       
    3445                    ;----------------------------------------------------------------------
    3446 000004ce 980B              LDR       A1, [SP, #44]         ; [DPU_V7M3_PIPE] |1417|  ; [ORIG 16-BIT INS]
    3447 000004d0 B180              CBZ       A1, ||$C$L29||        ; []  ; [ORIG 16-BIT INS]
    3448                            ; BRANCHCC OCCURS {||$C$L29||}   ; [] |1417| 
    3449                    ;* --------------------------------------------------------------------------*
    3450                    ;*   BEGIN LOOP ||$C$L28||
    3451                    ;*
    3452                    ;*   Loop source line                : 1417
    3453                    ;*   Loop closing brace source line  : 1422
    3454                    ;*   Known Minimum Trip Count        : 1
    3455                    ;*   Known Maximum Trip Count        : 4294967295
    3456                    ;*   Known Max Trip Count Factor     : 1
    3457                    ;* --------------------------------------------------------------------------*
    3458 000004d2           ||$C$L28||:    
    3459                            .dwpsn  file "../driverlib/lcd.c",line 1419,column 13,is_stmt,isa 1
    3460                    ;----------------------------------------------------------------------
    3461                    ; 1419 | pui16Pal[ui32Start] = pui16Src[ui32Start];                             
    3462                    ;----------------------------------------------------------------------
    3463 000004d2 980A              LDR       A1, [SP, #40]         ; [DPU_V7M3_PIPE] |1419|  ; [ORIG 16-BIT INS]
    3464 000004d4 9905              LDR       A2, [SP, #20]         ; [DPU_V7M3_PIPE] |1419|  ; [ORIG 16-BIT INS]
TI ARM Assembler Unix v18.1.1 Fri Jul  3 20:08:25 2020

Tools Copyright (c) 1996-2017 Texas Instruments Incorporated
lcd.asm                                                              PAGE   64

    3465 000004d6 9A0A              LDR       A3, [SP, #40]         ; [DPU_V7M3_PIPE] |1419|  ; [ORIG 16-BIT INS]
    3466 000004d8 9B04              LDR       A4, [SP, #16]         ; [DPU_V7M3_PIPE] |1419|  ; [ORIG 16-BIT INS]
    3467 000004da 0010F831          LDRH      A1, [A2, +A1, LSL #1] ; [DPU_V7M3_PIPE] |1419|  ; [KEEP 32-BIT INS]
    3468 000004de 0012F823          STRH      A1, [A4, +A3, LSL #1] ; [DPU_V7M3_PIPE] |1419|  ; [KEEP 32-BIT INS]
    3469                            .dwpsn  file "../driverlib/lcd.c",line 1420,column 13,is_stmt,isa 1
    3470                    ;----------------------------------------------------------------------
    3471                    ; 1420 | ui32Start++;                                                           
    3472                    ;----------------------------------------------------------------------
    3473 000004e2 980A              LDR       A1, [SP, #40]         ; [DPU_V7M3_PIPE] |1420|  ; [ORIG 16-BIT INS]
    3474 000004e4 1C40              ADDS      A1, A1, #1            ; [DPU_V7M3_PIPE] |1420|  ; [ORIG 16-BIT INS]
    3475 000004e6 900A              STR       A1, [SP, #40]         ; [DPU_V7M3_PIPE] |1420|  ; [ORIG 16-BIT INS]
    3476                            .dwpsn  file "../driverlib/lcd.c",line 1421,column 13,is_stmt,isa 1
    3477                    ;----------------------------------------------------------------------
    3478                    ; 1421 | ui32Count--;                                                           
    3479                    ; 1425 | //                                                                     
    3480                    ; 1426 | // Write the pixel type into the first palette entry.                  
    3481                    ; 1427 | //                                                                     
    3482                    ;----------------------------------------------------------------------
    3483 000004e8 980B              LDR       A1, [SP, #44]         ; [DPU_V7M3_PIPE] |1421|  ; [ORIG 16-BIT INS]
    3484 000004ea 1E40              SUBS      A1, A1, #1            ; [DPU_V7M3_PIPE] |1421|  ; [ORIG 16-BIT INS]
    3485 000004ec 900B              STR       A1, [SP, #44]         ; [DPU_V7M3_PIPE] |1421|  ; [ORIG 16-BIT INS]
    3486                            .dwpsn  file "../driverlib/lcd.c",line 1417,column 9,is_stmt,isa 1
    3487 000004ee 980B              LDR       A1, [SP, #44]         ; [DPU_V7M3_PIPE] |1417|  ; [ORIG 16-BIT INS]
    3488 000004f0 2800              CMP       A1, #0                ; [DPU_V7M3_PIPE] |1417|  ; [ORIG 16-BIT INS]
    3489 000004f2 D1EE              BNE       ||$C$L28||            ; [DPU_V7M3_PIPE] |1417|  ; [ORIG 16-BIT INS]
    3490                            ; BRANCHCC OCCURS {||$C$L28||}   ; [] |1417| 
    3491                    ;* --------------------------------------------------------------------------*
    3492 000004f4           ||$C$L29||:    
    3493                            .dwpsn  file "../driverlib/lcd.c",line 1428,column 5,is_stmt,isa 1
    3494                    ;----------------------------------------------------------------------
    3495                    ; 1428 | pui16Pal[0] &= ~(LCD_PALETTE_TYPE_8BPP | LCD_PALETTE_TYPE_DIRECT);     
    3496                    ;----------------------------------------------------------------------
    3497 000004f4 9904              LDR       A2, [SP, #16]         ; [DPU_V7M3_PIPE] |1428|  ; [ORIG 16-BIT INS]
    3498 000004f6 8808              LDRH      A1, [A2, #0]          ; [DPU_V7M3_PIPE] |1428|  ; [ORIG 16-BIT INS]
    3499 000004f8 40E0F420          BIC       A1, A1, #28672        ; [DPU_V7M3_PIPE] |1428|  ; [KEEP 32-BIT INS]
    3500 000004fc 8008              STRH      A1, [A2, #0]          ; [DPU_V7M3_PIPE] |1428|  ; [ORIG 16-BIT INS]
    3501                            .dwpsn  file "../driverlib/lcd.c",line 1429,column 5,is_stmt,isa 1
    3502                    ;----------------------------------------------------------------------
    3503                    ; 1429 | pui16Pal[0] |= (ui32Type & ~LCD_PALETTE_SRC_24BIT);                    
    3504                    ;----------------------------------------------------------------------
    3505 000004fe 9904              LDR       A2, [SP, #16]         ; [DPU_V7M3_PIPE] |1429|  ; [ORIG 16-BIT INS]
    3506 00000500 9801              LDR       A1, [SP, #4]          ; [DPU_V7M3_PIPE] |1429|  ; [ORIG 16-BIT INS]
    3507 00000502 880A              LDRH      A3, [A2, #0]          ; [DPU_V7M3_PIPE] |1429|  ; [ORIG 16-BIT INS]
    3508 00000504 4000F020          BIC       A1, A1, #-2147483648  ; [DPU_V7M3_PIPE] |1429|  ; [KEEP 32-BIT INS]
    3509 00000508 4310              ORRS      A1, A1, A3            ; [DPU_V7M3_PIPE] |1429|  ; [ORIG 16-BIT INS]
    3510 0000050a 8008              STRH      A1, [A2, #0]          ; [DPU_V7M3_PIPE] |1429|  ; [ORIG 16-BIT INS]
    3511                            .dwpsn  file "../driverlib/lcd.c",line 1430,column 1,is_stmt,isa 1
    3512 0000050c B007              ADD       SP, SP, #28           ; [DPU_V7M3_PIPE]  ; [ORIG 16-BIT INS]
    3513                            .dwcfi  cfa_offset, 12
    3514                    $C$DW$187       .dwtag  DW_TAG_TI_branch
    3515                            .dwattr $C$DW$187, DW_AT_low_pc(0x00)
    3516                            .dwattr $C$DW$187, DW_AT_TI_return
    3517                    
    3518 0000050e BD30              POP       {V1, V2, PC}          ; [DPU_V7M3_PIPE]  ; [ORIG 16-BIT INS]
    3519                            .dwcfi  cfa_offset, 0
TI ARM Assembler Unix v18.1.1 Fri Jul  3 20:08:25 2020

Tools Copyright (c) 1996-2017 Texas Instruments Incorporated
lcd.asm                                                              PAGE   65

    3520                            .dwcfi  restore_reg, 5
    3521                            .dwcfi  restore_reg, 4
    3522                            ; BRANCH OCCURS                  ; [] 
    3523                            .dwattr $C$DW$173, DW_AT_TI_end_file("../driverlib/lcd.c")
    3524                            .dwattr $C$DW$173, DW_AT_TI_end_line(0x596)
    3525                            .dwattr $C$DW$173, DW_AT_TI_end_column(0x01)
    3526                            .dwendentry
    3527                            .dwendtag $C$DW$173
    3528                    
    3529 00000510                   .sect   ".text"
    3530                            .clink
    3531                            .thumbfunc LCDRasterFrameBufferSet
    3532 00000510                   .thumb
    3533                            .global LCDRasterFrameBufferSet
    3534                    
    3535                    $C$DW$188       .dwtag  DW_TAG_subprogram
    3536                            .dwattr $C$DW$188, DW_AT_name("LCDRasterFrameBufferSet")
    3537                            .dwattr $C$DW$188, DW_AT_low_pc(LCDRasterFrameBufferSet)
    3538                            .dwattr $C$DW$188, DW_AT_high_pc(0x00)
    3539                            .dwattr $C$DW$188, DW_AT_TI_symbol_name("LCDRasterFrameBufferSet")
    3540                            .dwattr $C$DW$188, DW_AT_external
    3541                            .dwattr $C$DW$188, DW_AT_TI_begin_file("../driverlib/lcd.c")
    3542                            .dwattr $C$DW$188, DW_AT_TI_begin_line(0x5c4)
    3543                            .dwattr $C$DW$188, DW_AT_TI_begin_column(0x01)
    3544                            .dwattr $C$DW$188, DW_AT_decl_file("../driverlib/lcd.c")
    3545                            .dwattr $C$DW$188, DW_AT_decl_line(0x5c4)
    3546                            .dwattr $C$DW$188, DW_AT_decl_column(0x01)
    3547                            .dwattr $C$DW$188, DW_AT_TI_max_frame_size(0x10)
    3548                            .dwpsn  file "../driverlib/lcd.c",line 1478,column 1,is_stmt,address LCDRasterFrameBufferSet,i
    3549                    
    3550                            .dwfde $C$DW$CIE, LCDRasterFrameBufferSet
    3551                    $C$DW$189       .dwtag  DW_TAG_formal_parameter
    3552                            .dwattr $C$DW$189, DW_AT_name("ui32Base")
    3553                            .dwattr $C$DW$189, DW_AT_TI_symbol_name("ui32Base")
    3554                            .dwattr $C$DW$189, DW_AT_type(*$C$DW$T$25)
    3555                            .dwattr $C$DW$189, DW_AT_location[DW_OP_reg0]
    3556                    
    3557                    $C$DW$190       .dwtag  DW_TAG_formal_parameter
    3558                            .dwattr $C$DW$190, DW_AT_name("ui8Buffer")
    3559                            .dwattr $C$DW$190, DW_AT_TI_symbol_name("ui8Buffer")
    3560                            .dwattr $C$DW$190, DW_AT_type(*$C$DW$T$22)
    3561                            .dwattr $C$DW$190, DW_AT_location[DW_OP_reg1]
    3562                    
    3563                    $C$DW$191       .dwtag  DW_TAG_formal_parameter
    3564                            .dwattr $C$DW$191, DW_AT_name("pui32Addr")
    3565                            .dwattr $C$DW$191, DW_AT_TI_symbol_name("pui32Addr")
    3566                            .dwattr $C$DW$191, DW_AT_type(*$C$DW$T$56)
    3567                            .dwattr $C$DW$191, DW_AT_location[DW_OP_reg2]
    3568                    
    3569                    $C$DW$192       .dwtag  DW_TAG_formal_parameter
    3570                            .dwattr $C$DW$192, DW_AT_name("ui32NumBytes")
    3571                            .dwattr $C$DW$192, DW_AT_TI_symbol_name("ui32NumBytes")
    3572                            .dwattr $C$DW$192, DW_AT_type(*$C$DW$T$25)
    3573                            .dwattr $C$DW$192, DW_AT_location[DW_OP_reg3]
    3574                    
TI ARM Assembler Unix v18.1.1 Fri Jul  3 20:08:25 2020

Tools Copyright (c) 1996-2017 Texas Instruments Incorporated
lcd.asm                                                              PAGE   66

    3575                    ;----------------------------------------------------------------------
    3576                    ; 1476 | LCDRasterFrameBufferSet(uint32_t ui32Base, uint8_t ui8Buffer,          
    3577                    ; 1477 | uint32_t *pui32Addr, uint32_t ui32NumBytes)                            
    3578                    ;----------------------------------------------------------------------
    3579                    
    3580                    ;*****************************************************************************
    3581                    ;* FUNCTION NAME: LCDRasterFrameBufferSet                                    *
    3582                    ;*                                                                           *
    3583                    ;*   Regs Modified     : A1,A2,A3,SP,SR                                      *
    3584                    ;*   Regs Used         : A1,A2,A3,A4,SP,LR,SR                                *
    3585                    ;*   Local Frame Size  : 0 Args + 16 Auto + 0 Save = 16 byte                 *
    3586                    ;*****************************************************************************
    3587 00000510           LCDRasterFrameBufferSet:
    3588                    ;* --------------------------------------------------------------------------*
    3589                            .dwcfi  cfa_offset, 0
    3590 00000510 0D10F1AD          SUB       SP, SP, #16           ; [DPU_V7M3_PIPE]  ; [KEEP 32-BIT INS]
    3591                            .dwcfi  cfa_offset, 16
    3592                    $C$DW$193       .dwtag  DW_TAG_variable
    3593                            .dwattr $C$DW$193, DW_AT_name("ui32Base")
    3594                            .dwattr $C$DW$193, DW_AT_TI_symbol_name("ui32Base")
    3595                            .dwattr $C$DW$193, DW_AT_type(*$C$DW$T$25)
    3596                            .dwattr $C$DW$193, DW_AT_location[DW_OP_breg13 0]
    3597                    
    3598                    $C$DW$194       .dwtag  DW_TAG_variable
    3599                            .dwattr $C$DW$194, DW_AT_name("pui32Addr")
    3600                            .dwattr $C$DW$194, DW_AT_TI_symbol_name("pui32Addr")
    3601                            .dwattr $C$DW$194, DW_AT_type(*$C$DW$T$56)
    3602                            .dwattr $C$DW$194, DW_AT_location[DW_OP_breg13 4]
    3603                    
    3604                    $C$DW$195       .dwtag  DW_TAG_variable
    3605                            .dwattr $C$DW$195, DW_AT_name("ui32NumBytes")
    3606                            .dwattr $C$DW$195, DW_AT_TI_symbol_name("ui32NumBytes")
    3607                            .dwattr $C$DW$195, DW_AT_type(*$C$DW$T$25)
    3608                            .dwattr $C$DW$195, DW_AT_location[DW_OP_breg13 8]
    3609                    
    3610                    $C$DW$196       .dwtag  DW_TAG_variable
    3611                            .dwattr $C$DW$196, DW_AT_name("ui8Buffer")
    3612                            .dwattr $C$DW$196, DW_AT_TI_symbol_name("ui8Buffer")
    3613                            .dwattr $C$DW$196, DW_AT_type(*$C$DW$T$22)
    3614                            .dwattr $C$DW$196, DW_AT_location[DW_OP_breg13 12]
    3615                    
    3616                    ;----------------------------------------------------------------------
    3617                    ; 1479 | //                                                                     
    3618                    ; 1480 | // Sanity check parameters.                                            
    3619                    ; 1481 | //                                                                     
    3620                    ; 1482 | ASSERT(ui32Base == LCD0_BASE);                                         
    3621                    ; 1483 | ASSERT(!((uint32_t)pui32Addr & 3));                                    
    3622                    ; 1484 | ASSERT(!(ui32NumBytes & 3));                                           
    3623                    ; 1485 | ASSERT(ui8Buffer < 2);                                                 
    3624                    ; 1487 | //                                                                     
    3625                    ; 1488 | // Are we setting the values for frame buffer 0?                       
    3626                    ; 1489 | //                                                                     
    3627                    ;----------------------------------------------------------------------
    3628 00000514 9302              STR       A4, [SP, #8]          ; [DPU_V7M3_PIPE] |1478|  ; [ORIG 16-BIT INS]
    3629 00000516 9201              STR       A3, [SP, #4]          ; [DPU_V7M3_PIPE] |1478|  ; [ORIG 16-BIT INS]
TI ARM Assembler Unix v18.1.1 Fri Jul  3 20:08:25 2020

Tools Copyright (c) 1996-2017 Texas Instruments Incorporated
lcd.asm                                                              PAGE   67

    3630 00000518 100CF88D          STRB      A2, [SP, #12]         ; [DPU_V7M3_PIPE] |1478|  ; [KEEP 32-BIT INS]
    3631 0000051c 9000              STR       A1, [SP, #0]          ; [DPU_V7M3_PIPE] |1478|  ; [ORIG 16-BIT INS]
    3632                            .dwpsn  file "../driverlib/lcd.c",line 1490,column 5,is_stmt,isa 1
    3633                    ;----------------------------------------------------------------------
    3634                    ; 1490 | if(!ui8Buffer)                                                         
    3635                    ; 1492 |     //                                                                 
    3636                    ; 1493 |     // Yes - set the registers for frame buffer 0.                     
    3637                    ; 1494 |     //                                                                 
    3638                    ;----------------------------------------------------------------------
    3639 0000051e 000CF89D          LDRB      A1, [SP, #12]         ; [DPU_V7M3_PIPE] |1490|  ; [KEEP 32-BIT INS]
    3640 00000522 B948              CBNZ      A1, ||$C$L30||        ; []  ; [ORIG 16-BIT INS]
    3641                            ; BRANCHCC OCCURS {||$C$L30||}   ; [] |1490| 
    3642                    ;* --------------------------------------------------------------------------*
    3643                            .dwpsn  file "../driverlib/lcd.c",line 1495,column 9,is_stmt,isa 1
    3644                    ;----------------------------------------------------------------------
    3645                    ; 1495 | HWREG(ui32Base + LCD_O_DMABAFB0) = (uint32_t)pui32Addr;                
    3646                    ;----------------------------------------------------------------------
    3647 00000524 9801              LDR       A1, [SP, #4]          ; [DPU_V7M3_PIPE] |1495|  ; [ORIG 16-BIT INS]
    3648 00000526 9900              LDR       A2, [SP, #0]          ; [DPU_V7M3_PIPE] |1495|  ; [ORIG 16-BIT INS]
    3649 00000528 6448              STR       A1, [A2, #68]         ; [DPU_V7M3_PIPE] |1495|  ; [ORIG 16-BIT INS]
    3650                            .dwpsn  file "../driverlib/lcd.c",line 1496,column 9,is_stmt,isa 1
    3651                    ;----------------------------------------------------------------------
    3652                    ; 1496 | HWREG(ui32Base + LCD_O_DMACAFB0) = (uint32_t)pui32Addr +               
    3653                    ; 1497 |                                    ui32NumBytes - 4;                   
    3654                    ;----------------------------------------------------------------------
    3655 0000052a 9A02              LDR       A3, [SP, #8]          ; [DPU_V7M3_PIPE] |1496|  ; [ORIG 16-BIT INS]
    3656 0000052c 9801              LDR       A1, [SP, #4]          ; [DPU_V7M3_PIPE] |1496|  ; [ORIG 16-BIT INS]
    3657 0000052e 9900              LDR       A2, [SP, #0]          ; [DPU_V7M3_PIPE] |1496|  ; [ORIG 16-BIT INS]
    3658 00000530 1880              ADDS      A1, A1, A3            ; [DPU_V7M3_PIPE] |1496|  ; [ORIG 16-BIT INS]
    3659 00000532 1F00              SUBS      A1, A1, #4            ; [DPU_V7M3_PIPE] |1496|  ; [ORIG 16-BIT INS]
    3660 00000534 6488              STR       A1, [A2, #72]         ; [DPU_V7M3_PIPE] |1496|  ; [ORIG 16-BIT INS]
    3661                            .dwpsn  file "../driverlib/lcd.c",line 1498,column 5,is_stmt,isa 1
    3662                    ;----------------------------------------------------------------------
    3663                    ; 1499 | else                                                                   
    3664                    ; 1501 |     //                                                                 
    3665                    ; 1502 |     // No - set the registers for frame buffer 1.                      
    3666                    ; 1503 |     //                                                                 
    3667                    ;----------------------------------------------------------------------
    3668 00000536 E008              B         ||$C$L31||            ; [DPU_V7M3_PIPE] |1498|  ; [ORIG 16-BIT INS]
    3669                            ; BRANCH OCCURS {||$C$L31||}     ; [] |1498| 
    3670                    ;* --------------------------------------------------------------------------*
    3671 00000538           ||$C$L30||:    
    3672                            .dwpsn  file "../driverlib/lcd.c",line 1504,column 9,is_stmt,isa 1
    3673                    ;----------------------------------------------------------------------
    3674                    ; 1504 | HWREG(ui32Base + LCD_O_DMABAFB1) = (uint32_t)pui32Addr;                
    3675                    ;----------------------------------------------------------------------
    3676 00000538 9801              LDR       A1, [SP, #4]          ; [DPU_V7M3_PIPE] |1504|  ; [ORIG 16-BIT INS]
    3677 0000053a 9900              LDR       A2, [SP, #0]          ; [DPU_V7M3_PIPE] |1504|  ; [ORIG 16-BIT INS]
    3678 0000053c 64C8              STR       A1, [A2, #76]         ; [DPU_V7M3_PIPE] |1504|  ; [ORIG 16-BIT INS]
    3679                            .dwpsn  file "../driverlib/lcd.c",line 1505,column 9,is_stmt,isa 1
    3680                    ;----------------------------------------------------------------------
    3681                    ; 1505 | HWREG(ui32Base + LCD_O_DMACAFB1) = (uint32_t)pui32Addr +               
    3682                    ; 1506 |                                    ui32NumBytes - 4;                   
    3683                    ;----------------------------------------------------------------------
    3684 0000053e 9A02              LDR       A3, [SP, #8]          ; [DPU_V7M3_PIPE] |1505|  ; [ORIG 16-BIT INS]
TI ARM Assembler Unix v18.1.1 Fri Jul  3 20:08:25 2020

Tools Copyright (c) 1996-2017 Texas Instruments Incorporated
lcd.asm                                                              PAGE   68

    3685 00000540 9801              LDR       A1, [SP, #4]          ; [DPU_V7M3_PIPE] |1505|  ; [ORIG 16-BIT INS]
    3686 00000542 9900              LDR       A2, [SP, #0]          ; [DPU_V7M3_PIPE] |1505|  ; [ORIG 16-BIT INS]
    3687 00000544 1880              ADDS      A1, A1, A3            ; [DPU_V7M3_PIPE] |1505|  ; [ORIG 16-BIT INS]
    3688 00000546 1F00              SUBS      A1, A1, #4            ; [DPU_V7M3_PIPE] |1505|  ; [ORIG 16-BIT INS]
    3689 00000548 6508              STR       A1, [A2, #80]         ; [DPU_V7M3_PIPE] |1505|  ; [ORIG 16-BIT INS]
    3690                            .dwpsn  file "../driverlib/lcd.c",line 1508,column 1,is_stmt,isa 1
    3691                    ;* --------------------------------------------------------------------------*
    3692 0000054a           ||$C$L31||:    
    3693 0000054a B004              ADD       SP, SP, #16           ; [DPU_V7M3_PIPE]  ; [ORIG 16-BIT INS]
    3694                            .dwcfi  cfa_offset, 0
    3695                    $C$DW$197       .dwtag  DW_TAG_TI_branch
    3696                            .dwattr $C$DW$197, DW_AT_low_pc(0x00)
    3697                            .dwattr $C$DW$197, DW_AT_TI_return
    3698                    
    3699 0000054c 4770              BX        LR                    ; [DPU_V7M3_PIPE]  ; [ORIG 16-BIT INS]
    3700                            ; BRANCH OCCURS                  ; [] 
    3701                            .dwattr $C$DW$188, DW_AT_TI_end_file("../driverlib/lcd.c")
    3702                            .dwattr $C$DW$188, DW_AT_TI_end_line(0x5e4)
    3703                            .dwattr $C$DW$188, DW_AT_TI_end_column(0x01)
    3704                            .dwendentry
    3705                            .dwendtag $C$DW$188
    3706                    
    3707 0000054e                   .sect   ".text"
    3708                            .clink
    3709                            .thumbfunc LCDIntEnable
    3710 0000054e                   .thumb
    3711                            .global LCDIntEnable
    3712                    
    3713                    $C$DW$198       .dwtag  DW_TAG_subprogram
    3714                            .dwattr $C$DW$198, DW_AT_name("LCDIntEnable")
    3715                            .dwattr $C$DW$198, DW_AT_low_pc(LCDIntEnable)
    3716                            .dwattr $C$DW$198, DW_AT_high_pc(0x00)
    3717                            .dwattr $C$DW$198, DW_AT_TI_symbol_name("LCDIntEnable")
    3718                            .dwattr $C$DW$198, DW_AT_external
    3719                            .dwattr $C$DW$198, DW_AT_TI_begin_file("../driverlib/lcd.c")
    3720                            .dwattr $C$DW$198, DW_AT_TI_begin_line(0x608)
    3721                            .dwattr $C$DW$198, DW_AT_TI_begin_column(0x01)
    3722                            .dwattr $C$DW$198, DW_AT_decl_file("../driverlib/lcd.c")
    3723                            .dwattr $C$DW$198, DW_AT_decl_line(0x608)
    3724                            .dwattr $C$DW$198, DW_AT_decl_column(0x01)
    3725                            .dwattr $C$DW$198, DW_AT_TI_max_frame_size(0x08)
    3726                            .dwpsn  file "../driverlib/lcd.c",line 1545,column 1,is_stmt,address LCDIntEnable,isa 1
    3727                    
    3728                            .dwfde $C$DW$CIE, LCDIntEnable
    3729                    $C$DW$199       .dwtag  DW_TAG_formal_parameter
    3730                            .dwattr $C$DW$199, DW_AT_name("ui32Base")
    3731                            .dwattr $C$DW$199, DW_AT_TI_symbol_name("ui32Base")
    3732                            .dwattr $C$DW$199, DW_AT_type(*$C$DW$T$25)
    3733                            .dwattr $C$DW$199, DW_AT_location[DW_OP_reg0]
    3734                    
    3735                    $C$DW$200       .dwtag  DW_TAG_formal_parameter
    3736                            .dwattr $C$DW$200, DW_AT_name("ui32IntFlags")
    3737                            .dwattr $C$DW$200, DW_AT_TI_symbol_name("ui32IntFlags")
    3738                            .dwattr $C$DW$200, DW_AT_type(*$C$DW$T$25)
    3739                            .dwattr $C$DW$200, DW_AT_location[DW_OP_reg1]
TI ARM Assembler Unix v18.1.1 Fri Jul  3 20:08:25 2020

Tools Copyright (c) 1996-2017 Texas Instruments Incorporated
lcd.asm                                                              PAGE   69

    3740                    
    3741                    ;----------------------------------------------------------------------
    3742                    ; 1544 | LCDIntEnable(uint32_t ui32Base, uint32_t ui32IntFlags)                 
    3743                    ;----------------------------------------------------------------------
    3744                    
    3745                    ;*****************************************************************************
    3746                    ;* FUNCTION NAME: LCDIntEnable                                               *
    3747                    ;*                                                                           *
    3748                    ;*   Regs Modified     : A1,A2,SP                                            *
    3749                    ;*   Regs Used         : A1,A2,SP,LR                                         *
    3750                    ;*   Local Frame Size  : 0 Args + 8 Auto + 0 Save = 8 byte                   *
    3751                    ;*****************************************************************************
    3752 0000054e           LCDIntEnable:
    3753                    ;* --------------------------------------------------------------------------*
    3754                            .dwcfi  cfa_offset, 0
    3755 0000054e 0D08F1AD          SUB       SP, SP, #8            ; [DPU_V7M3_PIPE]  ; [KEEP 32-BIT INS]
    3756                            .dwcfi  cfa_offset, 8
    3757                    $C$DW$201       .dwtag  DW_TAG_variable
    3758                            .dwattr $C$DW$201, DW_AT_name("ui32Base")
    3759                            .dwattr $C$DW$201, DW_AT_TI_symbol_name("ui32Base")
    3760                            .dwattr $C$DW$201, DW_AT_type(*$C$DW$T$25)
    3761                            .dwattr $C$DW$201, DW_AT_location[DW_OP_breg13 0]
    3762                    
    3763                    $C$DW$202       .dwtag  DW_TAG_variable
    3764                            .dwattr $C$DW$202, DW_AT_name("ui32IntFlags")
    3765                            .dwattr $C$DW$202, DW_AT_TI_symbol_name("ui32IntFlags")
    3766                            .dwattr $C$DW$202, DW_AT_type(*$C$DW$T$25)
    3767                            .dwattr $C$DW$202, DW_AT_location[DW_OP_breg13 4]
    3768                    
    3769                    ;----------------------------------------------------------------------
    3770                    ; 1546 | ASSERT(ui32Base == LCD0_BASE);                                         
    3771                    ; 1547 | ASSERT(!(ui32IntFlags & ~(LCD_INT_DMA_DONE | LCD_INT_SYNC_LOST |       
    3772                    ; 1548 |                           LCD_INT_AC_BIAS_CNT | LCD_INT_UNDERFLOW |    
    3773                    ; 1549 |                           LCD_INT_PAL_LOAD | LCD_INT_EOF0 | LCD_INT_EOF
    3774                    ;     | 1 |                                                                    
    3775                    ; 1550 |                           LCD_INT_RASTER_FRAME_DONE)));                
    3776                    ; 1552 | //                                                                     
    3777                    ; 1553 | // Enable the interrupt sources by setting the appropriate bits in the 
    3778                    ; 1554 | // mask register.                                                      
    3779                    ; 1555 | //                                                                     
    3780                    ;----------------------------------------------------------------------
    3781 00000552 9101              STR       A2, [SP, #4]          ; [DPU_V7M3_PIPE] |1545|  ; [ORIG 16-BIT INS]
    3782 00000554 9000              STR       A1, [SP, #0]          ; [DPU_V7M3_PIPE] |1545|  ; [ORIG 16-BIT INS]
    3783                            .dwpsn  file "../driverlib/lcd.c",line 1556,column 5,is_stmt,isa 1
    3784                    ;----------------------------------------------------------------------
    3785                    ; 1556 | HWREG(ui32Base + LCD_O_IM) = ui32IntFlags;                             
    3786                    ;----------------------------------------------------------------------
    3787 00000556 9801              LDR       A1, [SP, #4]          ; [DPU_V7M3_PIPE] |1556|  ; [ORIG 16-BIT INS]
    3788 00000558 9900              LDR       A2, [SP, #0]          ; [DPU_V7M3_PIPE] |1556|  ; [ORIG 16-BIT INS]
    3789 0000055a 6608              STR       A1, [A2, #96]         ; [DPU_V7M3_PIPE] |1556|  ; [ORIG 16-BIT INS]
    3790                            .dwpsn  file "../driverlib/lcd.c",line 1557,column 1,is_stmt,isa 1
    3791 0000055c B002              ADD       SP, SP, #8            ; [DPU_V7M3_PIPE]  ; [ORIG 16-BIT INS]
    3792                            .dwcfi  cfa_offset, 0
    3793                    $C$DW$203       .dwtag  DW_TAG_TI_branch
    3794                            .dwattr $C$DW$203, DW_AT_low_pc(0x00)
TI ARM Assembler Unix v18.1.1 Fri Jul  3 20:08:25 2020

Tools Copyright (c) 1996-2017 Texas Instruments Incorporated
lcd.asm                                                              PAGE   70

    3795                            .dwattr $C$DW$203, DW_AT_TI_return
    3796                    
    3797 0000055e 4770              BX        LR                    ; [DPU_V7M3_PIPE]  ; [ORIG 16-BIT INS]
    3798                            ; BRANCH OCCURS                  ; [] 
    3799                            .dwattr $C$DW$198, DW_AT_TI_end_file("../driverlib/lcd.c")
    3800                            .dwattr $C$DW$198, DW_AT_TI_end_line(0x615)
    3801                            .dwattr $C$DW$198, DW_AT_TI_end_column(0x01)
    3802                            .dwendentry
    3803                            .dwendtag $C$DW$198
    3804                    
    3805 00000560                   .sect   ".text"
    3806                            .clink
    3807                            .thumbfunc LCDIntDisable
    3808 00000560                   .thumb
    3809                            .global LCDIntDisable
    3810                    
    3811                    $C$DW$204       .dwtag  DW_TAG_subprogram
    3812                            .dwattr $C$DW$204, DW_AT_name("LCDIntDisable")
    3813                            .dwattr $C$DW$204, DW_AT_low_pc(LCDIntDisable)
    3814                            .dwattr $C$DW$204, DW_AT_high_pc(0x00)
    3815                            .dwattr $C$DW$204, DW_AT_TI_symbol_name("LCDIntDisable")
    3816                            .dwattr $C$DW$204, DW_AT_external
    3817                            .dwattr $C$DW$204, DW_AT_TI_begin_file("../driverlib/lcd.c")
    3818                            .dwattr $C$DW$204, DW_AT_TI_begin_line(0x63a)
    3819                            .dwattr $C$DW$204, DW_AT_TI_begin_column(0x01)
    3820                            .dwattr $C$DW$204, DW_AT_decl_file("../driverlib/lcd.c")
    3821                            .dwattr $C$DW$204, DW_AT_decl_line(0x63a)
    3822                            .dwattr $C$DW$204, DW_AT_decl_column(0x01)
    3823                            .dwattr $C$DW$204, DW_AT_TI_max_frame_size(0x08)
    3824                            .dwpsn  file "../driverlib/lcd.c",line 1595,column 1,is_stmt,address LCDIntDisable,isa 1
    3825                    
    3826                            .dwfde $C$DW$CIE, LCDIntDisable
    3827                    $C$DW$205       .dwtag  DW_TAG_formal_parameter
    3828                            .dwattr $C$DW$205, DW_AT_name("ui32Base")
    3829                            .dwattr $C$DW$205, DW_AT_TI_symbol_name("ui32Base")
    3830                            .dwattr $C$DW$205, DW_AT_type(*$C$DW$T$25)
    3831                            .dwattr $C$DW$205, DW_AT_location[DW_OP_reg0]
    3832                    
    3833                    $C$DW$206       .dwtag  DW_TAG_formal_parameter
    3834                            .dwattr $C$DW$206, DW_AT_name("ui32IntFlags")
    3835                            .dwattr $C$DW$206, DW_AT_TI_symbol_name("ui32IntFlags")
    3836                            .dwattr $C$DW$206, DW_AT_type(*$C$DW$T$25)
    3837                            .dwattr $C$DW$206, DW_AT_location[DW_OP_reg1]
    3838                    
    3839                    ;----------------------------------------------------------------------
    3840                    ; 1594 | LCDIntDisable(uint32_t ui32Base, uint32_t ui32IntFlags)                
    3841                    ;----------------------------------------------------------------------
    3842                    
    3843                    ;*****************************************************************************
    3844                    ;* FUNCTION NAME: LCDIntDisable                                              *
    3845                    ;*                                                                           *
    3846                    ;*   Regs Modified     : A1,A2,SP                                            *
    3847                    ;*   Regs Used         : A1,A2,SP,LR                                         *
    3848                    ;*   Local Frame Size  : 0 Args + 8 Auto + 0 Save = 8 byte                   *
    3849                    ;*****************************************************************************
TI ARM Assembler Unix v18.1.1 Fri Jul  3 20:08:25 2020

Tools Copyright (c) 1996-2017 Texas Instruments Incorporated
lcd.asm                                                              PAGE   71

    3850 00000560           LCDIntDisable:
    3851                    ;* --------------------------------------------------------------------------*
    3852                            .dwcfi  cfa_offset, 0
    3853 00000560 0D08F1AD          SUB       SP, SP, #8            ; [DPU_V7M3_PIPE]  ; [KEEP 32-BIT INS]
    3854                            .dwcfi  cfa_offset, 8
    3855                    $C$DW$207       .dwtag  DW_TAG_variable
    3856                            .dwattr $C$DW$207, DW_AT_name("ui32Base")
    3857                            .dwattr $C$DW$207, DW_AT_TI_symbol_name("ui32Base")
    3858                            .dwattr $C$DW$207, DW_AT_type(*$C$DW$T$25)
    3859                            .dwattr $C$DW$207, DW_AT_location[DW_OP_breg13 0]
    3860                    
    3861                    $C$DW$208       .dwtag  DW_TAG_variable
    3862                            .dwattr $C$DW$208, DW_AT_name("ui32IntFlags")
    3863                            .dwattr $C$DW$208, DW_AT_TI_symbol_name("ui32IntFlags")
    3864                            .dwattr $C$DW$208, DW_AT_type(*$C$DW$T$25)
    3865                            .dwattr $C$DW$208, DW_AT_location[DW_OP_breg13 4]
    3866                    
    3867                    ;----------------------------------------------------------------------
    3868                    ; 1596 | ASSERT(ui32Base == LCD0_BASE);                                         
    3869                    ; 1597 | ASSERT(!(ui32IntFlags & ~(LCD_INT_DMA_DONE | LCD_INT_SYNC_LOST |       
    3870                    ; 1598 |                           LCD_INT_AC_BIAS_CNT | LCD_INT_UNDERFLOW |    
    3871                    ; 1599 |                           LCD_INT_PAL_LOAD | LCD_INT_EOF0 | LCD_INT_EOF
    3872                    ;     | 1 |                                                                    
    3873                    ; 1600 |                           LCD_INT_RASTER_FRAME_DONE)));                
    3874                    ; 1602 | //                                                                     
    3875                    ; 1603 | // Disable the interrupt sources by clearing the appropriate bits in th
    3876                    ;     | e                                                                      
    3877                    ; 1604 | // mask register.                                                      
    3878                    ; 1605 | //                                                                     
    3879                    ;----------------------------------------------------------------------
    3880 00000564 9101              STR       A2, [SP, #4]          ; [DPU_V7M3_PIPE] |1595|  ; [ORIG 16-BIT INS]
    3881 00000566 9000              STR       A1, [SP, #0]          ; [DPU_V7M3_PIPE] |1595|  ; [ORIG 16-BIT INS]
    3882                            .dwpsn  file "../driverlib/lcd.c",line 1606,column 5,is_stmt,isa 1
    3883                    ;----------------------------------------------------------------------
    3884                    ; 1606 | HWREG(ui32Base + LCD_O_IENC) = ui32IntFlags;                           
    3885                    ;----------------------------------------------------------------------
    3886 00000568 9801              LDR       A1, [SP, #4]          ; [DPU_V7M3_PIPE] |1606|  ; [ORIG 16-BIT INS]
    3887 0000056a 9900              LDR       A2, [SP, #0]          ; [DPU_V7M3_PIPE] |1606|  ; [ORIG 16-BIT INS]
    3888 0000056c 6648              STR       A1, [A2, #100]        ; [DPU_V7M3_PIPE] |1606|  ; [ORIG 16-BIT INS]
    3889                            .dwpsn  file "../driverlib/lcd.c",line 1607,column 1,is_stmt,isa 1
    3890 0000056e B002              ADD       SP, SP, #8            ; [DPU_V7M3_PIPE]  ; [ORIG 16-BIT INS]
    3891                            .dwcfi  cfa_offset, 0
    3892                    $C$DW$209       .dwtag  DW_TAG_TI_branch
    3893                            .dwattr $C$DW$209, DW_AT_low_pc(0x00)
    3894                            .dwattr $C$DW$209, DW_AT_TI_return
    3895                    
    3896 00000570 4770              BX        LR                    ; [DPU_V7M3_PIPE]  ; [ORIG 16-BIT INS]
    3897                            ; BRANCH OCCURS                  ; [] 
    3898                            .dwattr $C$DW$204, DW_AT_TI_end_file("../driverlib/lcd.c")
    3899                            .dwattr $C$DW$204, DW_AT_TI_end_line(0x647)
    3900                            .dwattr $C$DW$204, DW_AT_TI_end_column(0x01)
    3901                            .dwendentry
    3902                            .dwendtag $C$DW$204
    3903                    
    3904 00000572                   .sect   ".text"
TI ARM Assembler Unix v18.1.1 Fri Jul  3 20:08:25 2020

Tools Copyright (c) 1996-2017 Texas Instruments Incorporated
lcd.asm                                                              PAGE   72

    3905                            .clink
    3906                            .thumbfunc LCDIntStatus
    3907 00000572                   .thumb
    3908                            .global LCDIntStatus
    3909                    
    3910                    $C$DW$210       .dwtag  DW_TAG_subprogram
    3911                            .dwattr $C$DW$210, DW_AT_name("LCDIntStatus")
    3912                            .dwattr $C$DW$210, DW_AT_low_pc(LCDIntStatus)
    3913                            .dwattr $C$DW$210, DW_AT_high_pc(0x00)
    3914                            .dwattr $C$DW$210, DW_AT_TI_symbol_name("LCDIntStatus")
    3915                            .dwattr $C$DW$210, DW_AT_external
    3916                            .dwattr $C$DW$210, DW_AT_type(*$C$DW$T$25)
    3917                            .dwattr $C$DW$210, DW_AT_TI_begin_file("../driverlib/lcd.c")
    3918                            .dwattr $C$DW$210, DW_AT_TI_begin_line(0x66b)
    3919                            .dwattr $C$DW$210, DW_AT_TI_begin_column(0x01)
    3920                            .dwattr $C$DW$210, DW_AT_decl_file("../driverlib/lcd.c")
    3921                            .dwattr $C$DW$210, DW_AT_decl_line(0x66b)
    3922                            .dwattr $C$DW$210, DW_AT_decl_column(0x01)
    3923                            .dwattr $C$DW$210, DW_AT_TI_max_frame_size(0x08)
    3924                            .dwpsn  file "../driverlib/lcd.c",line 1644,column 1,is_stmt,address LCDIntStatus,isa 1
    3925                    
    3926                            .dwfde $C$DW$CIE, LCDIntStatus
    3927                    $C$DW$211       .dwtag  DW_TAG_formal_parameter
    3928                            .dwattr $C$DW$211, DW_AT_name("ui32Base")
    3929                            .dwattr $C$DW$211, DW_AT_TI_symbol_name("ui32Base")
    3930                            .dwattr $C$DW$211, DW_AT_type(*$C$DW$T$25)
    3931                            .dwattr $C$DW$211, DW_AT_location[DW_OP_reg0]
    3932                    
    3933                    $C$DW$212       .dwtag  DW_TAG_formal_parameter
    3934                            .dwattr $C$DW$212, DW_AT_name("bMasked")
    3935                            .dwattr $C$DW$212, DW_AT_TI_symbol_name("bMasked")
    3936                            .dwattr $C$DW$212, DW_AT_type(*$C$DW$T$137)
    3937                            .dwattr $C$DW$212, DW_AT_location[DW_OP_reg1]
    3938                    
    3939                    ;----------------------------------------------------------------------
    3940                    ; 1643 | LCDIntStatus(uint32_t ui32Base, bool bMasked)                          
    3941                    ;----------------------------------------------------------------------
    3942                    
    3943                    ;*****************************************************************************
    3944                    ;* FUNCTION NAME: LCDIntStatus                                               *
    3945                    ;*                                                                           *
    3946                    ;*   Regs Modified     : A1,SP                                               *
    3947                    ;*   Regs Used         : A1,A2,SP,LR                                         *
    3948                    ;*   Local Frame Size  : 0 Args + 8 Auto + 0 Save = 8 byte                   *
    3949                    ;*****************************************************************************
    3950 00000572           LCDIntStatus:
    3951                    ;* --------------------------------------------------------------------------*
    3952                            .dwcfi  cfa_offset, 0
    3953 00000572 0D08F1AD          SUB       SP, SP, #8            ; [DPU_V7M3_PIPE]  ; [KEEP 32-BIT INS]
    3954                            .dwcfi  cfa_offset, 8
    3955                    $C$DW$213       .dwtag  DW_TAG_variable
    3956                            .dwattr $C$DW$213, DW_AT_name("ui32Base")
    3957                            .dwattr $C$DW$213, DW_AT_TI_symbol_name("ui32Base")
    3958                            .dwattr $C$DW$213, DW_AT_type(*$C$DW$T$25)
    3959                            .dwattr $C$DW$213, DW_AT_location[DW_OP_breg13 0]
TI ARM Assembler Unix v18.1.1 Fri Jul  3 20:08:25 2020

Tools Copyright (c) 1996-2017 Texas Instruments Incorporated
lcd.asm                                                              PAGE   73

    3960                    
    3961                    $C$DW$214       .dwtag  DW_TAG_variable
    3962                            .dwattr $C$DW$214, DW_AT_name("bMasked")
    3963                            .dwattr $C$DW$214, DW_AT_TI_symbol_name("bMasked")
    3964                            .dwattr $C$DW$214, DW_AT_type(*$C$DW$T$137)
    3965                            .dwattr $C$DW$214, DW_AT_location[DW_OP_breg13 4]
    3966                    
    3967                    ;----------------------------------------------------------------------
    3968                    ; 1645 | ASSERT(ui32Base == LCD0_BASE);                                         
    3969                    ; 1647 | //                                                                     
    3970                    ; 1648 | // Were we asked for the masked or raw interrupt status?               
    3971                    ; 1649 | //                                                                     
    3972                    ;----------------------------------------------------------------------
    3973 00000576 1004F88D          STRB      A2, [SP, #4]          ; [DPU_V7M3_PIPE] |1644|  ; [KEEP 32-BIT INS]
    3974 0000057a 9000              STR       A1, [SP, #0]          ; [DPU_V7M3_PIPE] |1644|  ; [ORIG 16-BIT INS]
    3975                            .dwpsn  file "../driverlib/lcd.c",line 1650,column 5,is_stmt,isa 1
    3976                    ;----------------------------------------------------------------------
    3977                    ; 1650 | if(bMasked)                                                            
    3978                    ; 1652 |     //                                                                 
    3979                    ; 1653 |     // Return the masked interrupt status.                             
    3980                    ; 1654 |     //                                                                 
    3981                    ;----------------------------------------------------------------------
    3982 0000057c 0004F89D          LDRB      A1, [SP, #4]          ; [DPU_V7M3_PIPE] |1650|  ; [KEEP 32-BIT INS]
    3983 00000580 B110              CBZ       A1, ||$C$L32||        ; []  ; [ORIG 16-BIT INS]
    3984                            ; BRANCHCC OCCURS {||$C$L32||}   ; [] |1650| 
    3985                    ;* --------------------------------------------------------------------------*
    3986                            .dwpsn  file "../driverlib/lcd.c",line 1655,column 9,is_stmt,isa 1
    3987                    ;----------------------------------------------------------------------
    3988                    ; 1655 | return(HWREG(ui32Base + LCD_O_MISCLR));                                
    3989                    ; 1657 | else                                                                   
    3990                    ; 1659 | //                                                                     
    3991                    ; 1660 | // Return the raw interrupts status.                                   
    3992                    ; 1661 | //                                                                     
    3993                    ;----------------------------------------------------------------------
    3994 00000582 9800              LDR       A1, [SP, #0]          ; [DPU_V7M3_PIPE] |1655|  ; [ORIG 16-BIT INS]
    3995 00000584 6DC0              LDR       A1, [A1, #92]         ; [DPU_V7M3_PIPE] |1655|  ; [ORIG 16-BIT INS]
    3996 00000586 E001              B         ||$C$L33||            ; [DPU_V7M3_PIPE] |1655|  ; [ORIG 16-BIT INS]
    3997                            ; BRANCH OCCURS {||$C$L33||}     ; [] |1655| 
    3998                    ;* --------------------------------------------------------------------------*
    3999                    ;* --------------------------------------------------------------------------*
    4000 00000588           ||$C$L32||:    
    4001                            .dwpsn  file "../driverlib/lcd.c",line 1662,column 9,is_stmt,isa 1
    4002                    ;----------------------------------------------------------------------
    4003                    ; 1662 | return(HWREG(ui32Base + LCD_O_RISSET));                                
    4004                    ;----------------------------------------------------------------------
    4005 00000588 9800              LDR       A1, [SP, #0]          ; [DPU_V7M3_PIPE] |1662|  ; [ORIG 16-BIT INS]
    4006 0000058a 6D80              LDR       A1, [A1, #88]         ; [DPU_V7M3_PIPE] |1662|  ; [ORIG 16-BIT INS]
    4007                    ;* --------------------------------------------------------------------------*
    4008 0000058c           ||$C$L33||:    
    4009                            .dwpsn  file "../driverlib/lcd.c",line 1664,column 1,is_stmt,isa 1
    4010 0000058c B002              ADD       SP, SP, #8            ; [DPU_V7M3_PIPE]  ; [ORIG 16-BIT INS]
    4011                            .dwcfi  cfa_offset, 0
    4012                    $C$DW$215       .dwtag  DW_TAG_TI_branch
    4013                            .dwattr $C$DW$215, DW_AT_low_pc(0x00)
    4014                            .dwattr $C$DW$215, DW_AT_TI_return
TI ARM Assembler Unix v18.1.1 Fri Jul  3 20:08:25 2020

Tools Copyright (c) 1996-2017 Texas Instruments Incorporated
lcd.asm                                                              PAGE   74

    4015                    
    4016 0000058e 4770              BX        LR                    ; [DPU_V7M3_PIPE]  ; [ORIG 16-BIT INS]
    4017                            ; BRANCH OCCURS                  ; [] 
    4018                            .dwattr $C$DW$210, DW_AT_TI_end_file("../driverlib/lcd.c")
    4019                            .dwattr $C$DW$210, DW_AT_TI_end_line(0x680)
    4020                            .dwattr $C$DW$210, DW_AT_TI_end_column(0x01)
    4021                            .dwendentry
    4022                            .dwendtag $C$DW$210
    4023                    
    4024 00000590                   .sect   ".text"
    4025                            .clink
    4026                            .thumbfunc LCDIntClear
    4027 00000590                   .thumb
    4028                            .global LCDIntClear
    4029                    
    4030                    $C$DW$216       .dwtag  DW_TAG_subprogram
    4031                            .dwattr $C$DW$216, DW_AT_name("LCDIntClear")
    4032                            .dwattr $C$DW$216, DW_AT_low_pc(LCDIntClear)
    4033                            .dwattr $C$DW$216, DW_AT_high_pc(0x00)
    4034                            .dwattr $C$DW$216, DW_AT_TI_symbol_name("LCDIntClear")
    4035                            .dwattr $C$DW$216, DW_AT_external
    4036                            .dwattr $C$DW$216, DW_AT_TI_begin_file("../driverlib/lcd.c")
    4037                            .dwattr $C$DW$216, DW_AT_TI_begin_line(0x6ad)
    4038                            .dwattr $C$DW$216, DW_AT_TI_begin_column(0x01)
    4039                            .dwattr $C$DW$216, DW_AT_decl_file("../driverlib/lcd.c")
    4040                            .dwattr $C$DW$216, DW_AT_decl_line(0x6ad)
    4041                            .dwattr $C$DW$216, DW_AT_decl_column(0x01)
    4042                            .dwattr $C$DW$216, DW_AT_TI_max_frame_size(0x08)
    4043                            .dwpsn  file "../driverlib/lcd.c",line 1710,column 1,is_stmt,address LCDIntClear,isa 1
    4044                    
    4045                            .dwfde $C$DW$CIE, LCDIntClear
    4046                    $C$DW$217       .dwtag  DW_TAG_formal_parameter
    4047                            .dwattr $C$DW$217, DW_AT_name("ui32Base")
    4048                            .dwattr $C$DW$217, DW_AT_TI_symbol_name("ui32Base")
    4049                            .dwattr $C$DW$217, DW_AT_type(*$C$DW$T$25)
    4050                            .dwattr $C$DW$217, DW_AT_location[DW_OP_reg0]
    4051                    
    4052                    $C$DW$218       .dwtag  DW_TAG_formal_parameter
    4053                            .dwattr $C$DW$218, DW_AT_name("ui32IntFlags")
    4054                            .dwattr $C$DW$218, DW_AT_TI_symbol_name("ui32IntFlags")
    4055                            .dwattr $C$DW$218, DW_AT_type(*$C$DW$T$25)
    4056                            .dwattr $C$DW$218, DW_AT_location[DW_OP_reg1]
    4057                    
    4058                    ;----------------------------------------------------------------------
    4059                    ; 1709 | LCDIntClear(uint32_t ui32Base, uint32_t ui32IntFlags)                  
    4060                    ;----------------------------------------------------------------------
    4061                    
    4062                    ;*****************************************************************************
    4063                    ;* FUNCTION NAME: LCDIntClear                                                *
    4064                    ;*                                                                           *
    4065                    ;*   Regs Modified     : A1,A2,SP                                            *
    4066                    ;*   Regs Used         : A1,A2,SP,LR                                         *
    4067                    ;*   Local Frame Size  : 0 Args + 8 Auto + 0 Save = 8 byte                   *
    4068                    ;*****************************************************************************
    4069 00000590           LCDIntClear:
TI ARM Assembler Unix v18.1.1 Fri Jul  3 20:08:25 2020

Tools Copyright (c) 1996-2017 Texas Instruments Incorporated
lcd.asm                                                              PAGE   75

    4070                    ;* --------------------------------------------------------------------------*
    4071                            .dwcfi  cfa_offset, 0
    4072 00000590 0D08F1AD          SUB       SP, SP, #8            ; [DPU_V7M3_PIPE]  ; [KEEP 32-BIT INS]
    4073                            .dwcfi  cfa_offset, 8
    4074                    $C$DW$219       .dwtag  DW_TAG_variable
    4075                            .dwattr $C$DW$219, DW_AT_name("ui32Base")
    4076                            .dwattr $C$DW$219, DW_AT_TI_symbol_name("ui32Base")
    4077                            .dwattr $C$DW$219, DW_AT_type(*$C$DW$T$25)
    4078                            .dwattr $C$DW$219, DW_AT_location[DW_OP_breg13 0]
    4079                    
    4080                    $C$DW$220       .dwtag  DW_TAG_variable
    4081                            .dwattr $C$DW$220, DW_AT_name("ui32IntFlags")
    4082                            .dwattr $C$DW$220, DW_AT_TI_symbol_name("ui32IntFlags")
    4083                            .dwattr $C$DW$220, DW_AT_type(*$C$DW$T$25)
    4084                            .dwattr $C$DW$220, DW_AT_location[DW_OP_breg13 4]
    4085                    
    4086                    ;----------------------------------------------------------------------
    4087                    ; 1711 | ASSERT(ui32Base == LCD0_BASE);                                         
    4088                    ; 1712 | ASSERT(!(ui32IntFlags & ~(LCD_INT_DMA_DONE | LCD_INT_SYNC_LOST |       
    4089                    ; 1713 |                           LCD_INT_AC_BIAS_CNT | LCD_INT_UNDERFLOW |    
    4090                    ; 1714 |                           LCD_INT_PAL_LOAD | LCD_INT_EOF0 | LCD_INT_EOF
    4091                    ;     | 1 |                                                                    
    4092                    ; 1715 |                           LCD_INT_RASTER_FRAME_DONE)));                
    4093                    ; 1717 | //                                                                     
    4094                    ; 1718 | // Clear the requested interrupts.                                     
    4095                    ; 1719 | //                                                                     
    4096                    ;----------------------------------------------------------------------
    4097 00000594 9101              STR       A2, [SP, #4]          ; [DPU_V7M3_PIPE] |1710|  ; [ORIG 16-BIT INS]
    4098 00000596 9000              STR       A1, [SP, #0]          ; [DPU_V7M3_PIPE] |1710|  ; [ORIG 16-BIT INS]
    4099                            .dwpsn  file "../driverlib/lcd.c",line 1720,column 5,is_stmt,isa 1
    4100                    ;----------------------------------------------------------------------
    4101                    ; 1720 | HWREG(ui32Base + LCD_O_MISCLR) = ui32IntFlags;                         
    4102                    ;----------------------------------------------------------------------
    4103 00000598 9801              LDR       A1, [SP, #4]          ; [DPU_V7M3_PIPE] |1720|  ; [ORIG 16-BIT INS]
    4104 0000059a 9900              LDR       A2, [SP, #0]          ; [DPU_V7M3_PIPE] |1720|  ; [ORIG 16-BIT INS]
    4105 0000059c 65C8              STR       A1, [A2, #92]         ; [DPU_V7M3_PIPE] |1720|  ; [ORIG 16-BIT INS]
    4106                            .dwpsn  file "../driverlib/lcd.c",line 1721,column 1,is_stmt,isa 1
    4107 0000059e B002              ADD       SP, SP, #8            ; [DPU_V7M3_PIPE]  ; [ORIG 16-BIT INS]
    4108                            .dwcfi  cfa_offset, 0
    4109                    $C$DW$221       .dwtag  DW_TAG_TI_branch
    4110                            .dwattr $C$DW$221, DW_AT_low_pc(0x00)
    4111                            .dwattr $C$DW$221, DW_AT_TI_return
    4112                    
    4113 000005a0 4770              BX        LR                    ; [DPU_V7M3_PIPE]  ; [ORIG 16-BIT INS]
    4114                            ; BRANCH OCCURS                  ; [] 
    4115                            .dwattr $C$DW$216, DW_AT_TI_end_file("../driverlib/lcd.c")
    4116                            .dwattr $C$DW$216, DW_AT_TI_end_line(0x6b9)
    4117                            .dwattr $C$DW$216, DW_AT_TI_end_column(0x01)
    4118                            .dwendentry
    4119                            .dwendtag $C$DW$216
    4120                    
    4121 000005a2                   .sect   ".text"
    4122                            .clink
    4123                            .thumbfunc LCDIntRegister
    4124 000005a2                   .thumb
TI ARM Assembler Unix v18.1.1 Fri Jul  3 20:08:25 2020

Tools Copyright (c) 1996-2017 Texas Instruments Incorporated
lcd.asm                                                              PAGE   76

    4125                            .global LCDIntRegister
    4126                    
    4127                    $C$DW$222       .dwtag  DW_TAG_subprogram
    4128                            .dwattr $C$DW$222, DW_AT_name("LCDIntRegister")
    4129                            .dwattr $C$DW$222, DW_AT_low_pc(LCDIntRegister)
    4130                            .dwattr $C$DW$222, DW_AT_high_pc(0x00)
    4131                            .dwattr $C$DW$222, DW_AT_TI_symbol_name("LCDIntRegister")
    4132                            .dwattr $C$DW$222, DW_AT_external
    4133                            .dwattr $C$DW$222, DW_AT_TI_begin_file("../driverlib/lcd.c")
    4134                            .dwattr $C$DW$222, DW_AT_TI_begin_line(0x6d0)
    4135                            .dwattr $C$DW$222, DW_AT_TI_begin_column(0x01)
    4136                            .dwattr $C$DW$222, DW_AT_decl_file("../driverlib/lcd.c")
    4137                            .dwattr $C$DW$222, DW_AT_decl_line(0x6d0)
    4138                            .dwattr $C$DW$222, DW_AT_decl_column(0x01)
    4139                            .dwattr $C$DW$222, DW_AT_TI_max_frame_size(0x10)
    4140                            .dwpsn  file "../driverlib/lcd.c",line 1745,column 1,is_stmt,address LCDIntRegister,isa 1
    4141                    
    4142                            .dwfde $C$DW$CIE, LCDIntRegister
    4143                    $C$DW$223       .dwtag  DW_TAG_formal_parameter
    4144                            .dwattr $C$DW$223, DW_AT_name("ui32Base")
    4145                            .dwattr $C$DW$223, DW_AT_TI_symbol_name("ui32Base")
    4146                            .dwattr $C$DW$223, DW_AT_type(*$C$DW$T$25)
    4147                            .dwattr $C$DW$223, DW_AT_location[DW_OP_reg0]
    4148                    
    4149                    $C$DW$224       .dwtag  DW_TAG_formal_parameter
    4150                            .dwattr $C$DW$224, DW_AT_name("pfnHandler")
    4151                            .dwattr $C$DW$224, DW_AT_TI_symbol_name("pfnHandler")
    4152                            .dwattr $C$DW$224, DW_AT_type(*$C$DW$T$39)
    4153                            .dwattr $C$DW$224, DW_AT_location[DW_OP_reg1]
    4154                    
    4155                    ;----------------------------------------------------------------------
    4156                    ; 1744 | LCDIntRegister(uint32_t ui32Base, void (*pfnHandler)(void))            
    4157                    ;----------------------------------------------------------------------
    4158                    
    4159                    ;*****************************************************************************
    4160                    ;* FUNCTION NAME: LCDIntRegister                                             *
    4161                    ;*                                                                           *
    4162                    ;*   Regs Modified     : A1,A2,A3,A4,V9,SP,LR,SR,D0,D0_hi,D1,D1_hi,D2,D2_hi, *
    4163                    ;*                           D3,D3_hi,D4,D4_hi,D5,D5_hi,D6,D6_hi,D7,D7_hi,   *
    4164                    ;*                           FPEXC,FPSCR                                     *
    4165                    ;*   Regs Used         : A1,A2,A3,A4,V9,SP,LR,SR,D0,D0_hi,D1,D1_hi,D2,D2_hi, *
    4166                    ;*                           D3,D3_hi,D4,D4_hi,D5,D5_hi,D6,D6_hi,D7,D7_hi,   *
    4167                    ;*                           FPEXC,FPSCR                                     *
    4168                    ;*   Local Frame Size  : 0 Args + 8 Auto + 4 Save = 12 byte                  *
    4169                    ;*****************************************************************************
    4170 000005a2           LCDIntRegister:
    4171                    ;* --------------------------------------------------------------------------*
    4172                            .dwcfi  cfa_offset, 0
    4173 000005a2 B50E              PUSH      {A2, A3, A4, LR}      ; [DPU_V7M3_PIPE]  ; [ORIG 16-BIT INS]
    4174                            .dwcfi  cfa_offset, 16
    4175                            .dwcfi  save_reg_to_mem, 14, -4
    4176                            .dwcfi  save_reg_to_mem, 3, -8
    4177                            .dwcfi  save_reg_to_mem, 2, -12
    4178                            .dwcfi  save_reg_to_mem, 1, -16
    4179                    $C$DW$225       .dwtag  DW_TAG_variable
TI ARM Assembler Unix v18.1.1 Fri Jul  3 20:08:25 2020

Tools Copyright (c) 1996-2017 Texas Instruments Incorporated
lcd.asm                                                              PAGE   77

    4180                            .dwattr $C$DW$225, DW_AT_name("ui32Base")
    4181                            .dwattr $C$DW$225, DW_AT_TI_symbol_name("ui32Base")
    4182                            .dwattr $C$DW$225, DW_AT_type(*$C$DW$T$25)
    4183                            .dwattr $C$DW$225, DW_AT_location[DW_OP_breg13 0]
    4184                    
    4185                    $C$DW$226       .dwtag  DW_TAG_variable
    4186                            .dwattr $C$DW$226, DW_AT_name("pfnHandler")
    4187                            .dwattr $C$DW$226, DW_AT_TI_symbol_name("pfnHandler")
    4188                            .dwattr $C$DW$226, DW_AT_type(*$C$DW$T$39)
    4189                            .dwattr $C$DW$226, DW_AT_location[DW_OP_breg13 4]
    4190                    
    4191                    ;----------------------------------------------------------------------
    4192                    ; 1746 | //                                                                     
    4193                    ; 1747 | // Check the arguments.                                                
    4194                    ; 1748 | //                                                                     
    4195                    ; 1749 | ASSERT(ui32Base == LCD0_BASE);                                         
    4196                    ; 1750 | ASSERT(pfnHandler);                                                    
    4197                    ; 1752 | //                                                                     
    4198                    ; 1753 | // Register the interrupt handler.                                     
    4199                    ; 1754 | //                                                                     
    4200                    ;----------------------------------------------------------------------
    4201 000005a4 9101              STR       A2, [SP, #4]          ; [DPU_V7M3_PIPE] |1745|  ; [ORIG 16-BIT INS]
    4202 000005a6 9000              STR       A1, [SP, #0]          ; [DPU_V7M3_PIPE] |1745|  ; [ORIG 16-BIT INS]
    4203                            .dwpsn  file "../driverlib/lcd.c",line 1755,column 5,is_stmt,isa 1
    4204                    ;----------------------------------------------------------------------
    4205                    ; 1755 | IntRegister(INT_LCD0_TM4C129, pfnHandler);                             
    4206                    ; 1757 | //                                                                     
    4207                    ; 1758 | // Enable the interrupt in the interrupt controller.                   
    4208                    ; 1759 | //                                                                     
    4209                    ;----------------------------------------------------------------------
    4210 000005a8 9901              LDR       A2, [SP, #4]          ; [DPU_V7M3_PIPE] |1755|  ; [ORIG 16-BIT INS]
    4211 000005aa 2071              MOVS      A1, #113              ; [DPU_V7M3_PIPE] |1755|  ; [ORIG 16-BIT INS]
    4212                    $C$DW$227       .dwtag  DW_TAG_TI_branch
    4213                            .dwattr $C$DW$227, DW_AT_low_pc(0x00)
    4214                            .dwattr $C$DW$227, DW_AT_name("IntRegister")
    4215                            .dwattr $C$DW$227, DW_AT_TI_call
    4216                    
    4217 000005ac FFFEF7FF!         BL        IntRegister           ; [DPU_V7M3_PIPE] |1755|  ; [KEEP 32-BIT INS]
    4218                            ; CALL OCCURS {IntRegister }     ; [] |1755| 
    4219                            .dwpsn  file "../driverlib/lcd.c",line 1760,column 5,is_stmt,isa 1
    4220                    ;----------------------------------------------------------------------
    4221                    ; 1760 | IntEnable(INT_LCD0_TM4C129);                                           
    4222                    ;----------------------------------------------------------------------
    4223 000005b0 2071              MOVS      A1, #113              ; [DPU_V7M3_PIPE] |1760|  ; [ORIG 16-BIT INS]
    4224                    $C$DW$228       .dwtag  DW_TAG_TI_branch
    4225                            .dwattr $C$DW$228, DW_AT_low_pc(0x00)
    4226                            .dwattr $C$DW$228, DW_AT_name("IntEnable")
    4227                            .dwattr $C$DW$228, DW_AT_TI_call
    4228                    
    4229 000005b2 FFFEF7FF!         BL        IntEnable             ; [DPU_V7M3_PIPE] |1760|  ; [KEEP 32-BIT INS]
    4230                            ; CALL OCCURS {IntEnable }       ; [] |1760| 
    4231                            .dwpsn  file "../driverlib/lcd.c",line 1761,column 1,is_stmt,isa 1
    4232                    $C$DW$229       .dwtag  DW_TAG_TI_branch
    4233                            .dwattr $C$DW$229, DW_AT_low_pc(0x00)
    4234                            .dwattr $C$DW$229, DW_AT_TI_return
TI ARM Assembler Unix v18.1.1 Fri Jul  3 20:08:25 2020

Tools Copyright (c) 1996-2017 Texas Instruments Incorporated
lcd.asm                                                              PAGE   78

    4235                    
    4236 000005b6 BD0E              POP       {A2, A3, A4, PC}      ; [DPU_V7M3_PIPE]  ; [ORIG 16-BIT INS]
    4237                            .dwcfi  cfa_offset, 0
    4238                            .dwcfi  restore_reg, 3
    4239                            .dwcfi  restore_reg, 2
    4240                            .dwcfi  restore_reg, 1
    4241                            ; BRANCH OCCURS                  ; [] 
    4242                            .dwattr $C$DW$222, DW_AT_TI_end_file("../driverlib/lcd.c")
    4243                            .dwattr $C$DW$222, DW_AT_TI_end_line(0x6e1)
    4244                            .dwattr $C$DW$222, DW_AT_TI_end_column(0x01)
    4245                            .dwendentry
    4246                            .dwendtag $C$DW$222
    4247                    
    4248 000005b8                   .sect   ".text"
    4249                            .clink
    4250                            .thumbfunc LCDIntUnregister
    4251 000005b8                   .thumb
    4252                            .global LCDIntUnregister
    4253                    
    4254                    $C$DW$230       .dwtag  DW_TAG_subprogram
    4255                            .dwattr $C$DW$230, DW_AT_name("LCDIntUnregister")
    4256                            .dwattr $C$DW$230, DW_AT_low_pc(LCDIntUnregister)
    4257                            .dwattr $C$DW$230, DW_AT_high_pc(0x00)
    4258                            .dwattr $C$DW$230, DW_AT_TI_symbol_name("LCDIntUnregister")
    4259                            .dwattr $C$DW$230, DW_AT_external
    4260                            .dwattr $C$DW$230, DW_AT_TI_begin_file("../driverlib/lcd.c")
    4261                            .dwattr $C$DW$230, DW_AT_TI_begin_line(0x6f6)
    4262                            .dwattr $C$DW$230, DW_AT_TI_begin_column(0x01)
    4263                            .dwattr $C$DW$230, DW_AT_decl_file("../driverlib/lcd.c")
    4264                            .dwattr $C$DW$230, DW_AT_decl_line(0x6f6)
    4265                            .dwattr $C$DW$230, DW_AT_decl_column(0x01)
    4266                            .dwattr $C$DW$230, DW_AT_TI_max_frame_size(0x08)
    4267                            .dwpsn  file "../driverlib/lcd.c",line 1783,column 1,is_stmt,address LCDIntUnregister,isa 1
    4268                    
    4269                            .dwfde $C$DW$CIE, LCDIntUnregister
    4270                    $C$DW$231       .dwtag  DW_TAG_formal_parameter
    4271                            .dwattr $C$DW$231, DW_AT_name("ui32Base")
    4272                            .dwattr $C$DW$231, DW_AT_TI_symbol_name("ui32Base")
    4273                            .dwattr $C$DW$231, DW_AT_type(*$C$DW$T$25)
    4274                            .dwattr $C$DW$231, DW_AT_location[DW_OP_reg0]
    4275                    
    4276                    ;----------------------------------------------------------------------
    4277                    ; 1782 | LCDIntUnregister(uint32_t ui32Base)                                    
    4278                    ;----------------------------------------------------------------------
    4279                    
    4280                    ;*****************************************************************************
    4281                    ;* FUNCTION NAME: LCDIntUnregister                                           *
    4282                    ;*                                                                           *
    4283                    ;*   Regs Modified     : A1,A2,A3,A4,V9,SP,LR,SR,D0,D0_hi,D1,D1_hi,D2,D2_hi, *
    4284                    ;*                           D3,D3_hi,D4,D4_hi,D5,D5_hi,D6,D6_hi,D7,D7_hi,   *
    4285                    ;*                           FPEXC,FPSCR                                     *
    4286                    ;*   Regs Used         : A1,A2,A3,A4,V9,SP,LR,SR,D0,D0_hi,D1,D1_hi,D2,D2_hi, *
    4287                    ;*                           D3,D3_hi,D4,D4_hi,D5,D5_hi,D6,D6_hi,D7,D7_hi,   *
    4288                    ;*                           FPEXC,FPSCR                                     *
    4289                    ;*   Local Frame Size  : 0 Args + 4 Auto + 4 Save = 8 byte                   *
TI ARM Assembler Unix v18.1.1 Fri Jul  3 20:08:25 2020

Tools Copyright (c) 1996-2017 Texas Instruments Incorporated
lcd.asm                                                              PAGE   79

    4290                    ;*****************************************************************************
    4291 000005b8           LCDIntUnregister:
    4292                    ;* --------------------------------------------------------------------------*
    4293                            .dwcfi  cfa_offset, 0
    4294 000005b8 B508              PUSH      {A4, LR}              ; [DPU_V7M3_PIPE]  ; [ORIG 16-BIT INS]
    4295                            .dwcfi  cfa_offset, 8
    4296                            .dwcfi  save_reg_to_mem, 14, -4
    4297                            .dwcfi  save_reg_to_mem, 3, -8
    4298                    $C$DW$232       .dwtag  DW_TAG_variable
    4299                            .dwattr $C$DW$232, DW_AT_name("ui32Base")
    4300                            .dwattr $C$DW$232, DW_AT_TI_symbol_name("ui32Base")
    4301                            .dwattr $C$DW$232, DW_AT_type(*$C$DW$T$25)
    4302                            .dwattr $C$DW$232, DW_AT_location[DW_OP_breg13 0]
    4303                    
    4304                    ;----------------------------------------------------------------------
    4305                    ; 1784 | //                                                                     
    4306                    ; 1785 | // Check the arguments.                                                
    4307                    ; 1786 | //                                                                     
    4308                    ; 1787 | ASSERT(ui32Base == LCD0_BASE);                                         
    4309                    ; 1789 | //                                                                     
    4310                    ; 1790 | // Disable the interrupt in the interrupt controller.                  
    4311                    ; 1791 | //                                                                     
    4312                    ;----------------------------------------------------------------------
    4313 000005ba 9000              STR       A1, [SP, #0]          ; [DPU_V7M3_PIPE] |1783|  ; [ORIG 16-BIT INS]
    4314                            .dwpsn  file "../driverlib/lcd.c",line 1792,column 5,is_stmt,isa 1
    4315                    ;----------------------------------------------------------------------
    4316                    ; 1792 | IntDisable(INT_LCD0_TM4C129);                                          
    4317                    ; 1794 | //                                                                     
    4318                    ; 1795 | // Unregister the interrupt handler.                                   
    4319                    ; 1796 | //                                                                     
    4320                    ;----------------------------------------------------------------------
    4321 000005bc 2071              MOVS      A1, #113              ; [DPU_V7M3_PIPE] |1792|  ; [ORIG 16-BIT INS]
    4322                    $C$DW$233       .dwtag  DW_TAG_TI_branch
    4323                            .dwattr $C$DW$233, DW_AT_low_pc(0x00)
    4324                            .dwattr $C$DW$233, DW_AT_name("IntDisable")
    4325                            .dwattr $C$DW$233, DW_AT_TI_call
    4326                    
    4327 000005be FFFEF7FF!         BL        IntDisable            ; [DPU_V7M3_PIPE] |1792|  ; [KEEP 32-BIT INS]
    4328                            ; CALL OCCURS {IntDisable }      ; [] |1792| 
    4329                            .dwpsn  file "../driverlib/lcd.c",line 1797,column 5,is_stmt,isa 1
    4330                    ;----------------------------------------------------------------------
    4331                    ; 1797 | IntUnregister(INT_LCD0_TM4C129);                                       
    4332                    ;----------------------------------------------------------------------
    4333 000005c2 2071              MOVS      A1, #113              ; [DPU_V7M3_PIPE] |1797|  ; [ORIG 16-BIT INS]
    4334                    $C$DW$234       .dwtag  DW_TAG_TI_branch
    4335                            .dwattr $C$DW$234, DW_AT_low_pc(0x00)
    4336                            .dwattr $C$DW$234, DW_AT_name("IntUnregister")
    4337                            .dwattr $C$DW$234, DW_AT_TI_call
    4338                    
    4339 000005c4 FFFEF7FF!         BL        IntUnregister         ; [DPU_V7M3_PIPE] |1797|  ; [KEEP 32-BIT INS]
    4340                            ; CALL OCCURS {IntUnregister }   ; [] |1797| 
    4341                            .dwpsn  file "../driverlib/lcd.c",line 1798,column 1,is_stmt,isa 1
    4342                    $C$DW$235       .dwtag  DW_TAG_TI_branch
    4343                            .dwattr $C$DW$235, DW_AT_low_pc(0x00)
    4344                            .dwattr $C$DW$235, DW_AT_TI_return
TI ARM Assembler Unix v18.1.1 Fri Jul  3 20:08:25 2020

Tools Copyright (c) 1996-2017 Texas Instruments Incorporated
lcd.asm                                                              PAGE   80

    4345                    
    4346 000005c8 BD08              POP       {A4, PC}              ; [DPU_V7M3_PIPE]  ; [ORIG 16-BIT INS]
    4347                            .dwcfi  cfa_offset, 0
    4348                            .dwcfi  restore_reg, 3
    4349                            ; BRANCH OCCURS                  ; [] 
    4350                            .dwattr $C$DW$230, DW_AT_TI_end_file("../driverlib/lcd.c")
    4351                            .dwattr $C$DW$230, DW_AT_TI_end_line(0x706)
    4352                            .dwattr $C$DW$230, DW_AT_TI_end_column(0x01)
    4353                            .dwendentry
    4354                            .dwendtag $C$DW$230
    4355                    
    4356                    ;*****************************************************************************
    4357                    ;* UNDEFINED EXTERNAL REFERENCES                                             *
    4358                    ;*****************************************************************************
    4359                            .global SysCtlDelay
    4360                            .global IntRegister
    4361                            .global IntEnable
    4362                            .global IntDisable
    4363                            .global IntUnregister
    4364                    
    4365                    ;******************************************************************************
    4366                    ;* BUILD ATTRIBUTES                                                           *
    4367                    ;******************************************************************************
    4368                            .battr "aeabi", Tag_File, 1, Tag_ABI_PCS_wchar_t(2)
    4369                            .battr "aeabi", Tag_File, 1, Tag_ABI_FP_rounding(0)
    4370                            .battr "aeabi", Tag_File, 1, Tag_ABI_FP_denormal(0)
    4371                            .battr "aeabi", Tag_File, 1, Tag_ABI_FP_exceptions(0)
    4372                            .battr "aeabi", Tag_File, 1, Tag_ABI_FP_number_model(1)
    4373                            .battr "aeabi", Tag_File, 1, Tag_ABI_enum_size(0)
    4374                            .battr "aeabi", Tag_File, 1, Tag_ABI_optimization_goals(5)
    4375                            .battr "aeabi", Tag_File, 1, Tag_ABI_FP_optimization_goals(0)
    4376                            .battr "TI", Tag_File, 1, Tag_Bitfield_layout(2)
    4377                            .battr "aeabi", Tag_File, 1, Tag_ABI_VFP_args(3)
    4378                            .battr "TI", Tag_File, 1, Tag_FP_interface(1)
    4379                    
    4380                    ;******************************************************************************
    4381                    ;* TYPE INFORMATION                                                           *
    4382                    ;******************************************************************************
    4383                    
    4384                    $C$DW$T$23      .dwtag  DW_TAG_structure_type
    4385                            .dwattr $C$DW$T$23, DW_AT_byte_size(0x07)
    4386                    $C$DW$236       .dwtag  DW_TAG_member
    4387                            .dwattr $C$DW$236, DW_AT_type(*$C$DW$T$22)
    4388                            .dwattr $C$DW$236, DW_AT_name("ui8WSSetup")
    4389                            .dwattr $C$DW$236, DW_AT_TI_symbol_name("ui8WSSetup")
    4390                            .dwattr $C$DW$236, DW_AT_data_member_location[DW_OP_plus_uconst 0x0]
    4391                            .dwattr $C$DW$236, DW_AT_accessibility(DW_ACCESS_public)
    4392                            .dwattr $C$DW$236, DW_AT_decl_file("/home/pola/workspace_v8/Microwave/driverlib/lcd.h")
    4393                            .dwattr $C$DW$236, DW_AT_decl_line(0x76)
    4394                            .dwattr $C$DW$236, DW_AT_decl_column(0x0d)
    4395                    
    4396                    $C$DW$237       .dwtag  DW_TAG_member
    4397                            .dwattr $C$DW$237, DW_AT_type(*$C$DW$T$22)
    4398                            .dwattr $C$DW$237, DW_AT_name("ui8WSDuration")
    4399                            .dwattr $C$DW$237, DW_AT_TI_symbol_name("ui8WSDuration")
TI ARM Assembler Unix v18.1.1 Fri Jul  3 20:08:25 2020

Tools Copyright (c) 1996-2017 Texas Instruments Incorporated
lcd.asm                                                              PAGE   81

    4400                            .dwattr $C$DW$237, DW_AT_data_member_location[DW_OP_plus_uconst 0x1]
    4401                            .dwattr $C$DW$237, DW_AT_accessibility(DW_ACCESS_public)
    4402                            .dwattr $C$DW$237, DW_AT_decl_file("/home/pola/workspace_v8/Microwave/driverlib/lcd.h")
    4403                            .dwattr $C$DW$237, DW_AT_decl_line(0x7d)
    4404                            .dwattr $C$DW$237, DW_AT_decl_column(0x0d)
    4405                    
    4406                    $C$DW$238       .dwtag  DW_TAG_member
    4407                            .dwattr $C$DW$238, DW_AT_type(*$C$DW$T$22)
    4408                            .dwattr $C$DW$238, DW_AT_name("ui8WSHold")
    4409                            .dwattr $C$DW$238, DW_AT_TI_symbol_name("ui8WSHold")
    4410                            .dwattr $C$DW$238, DW_AT_data_member_location[DW_OP_plus_uconst 0x2]
    4411                            .dwattr $C$DW$238, DW_AT_accessibility(DW_ACCESS_public)
    4412                            .dwattr $C$DW$238, DW_AT_decl_file("/home/pola/workspace_v8/Microwave/driverlib/lcd.h")
    4413                            .dwattr $C$DW$238, DW_AT_decl_line(0x85)
    4414                            .dwattr $C$DW$238, DW_AT_decl_column(0x0d)
    4415                    
    4416                    $C$DW$239       .dwtag  DW_TAG_member
    4417                            .dwattr $C$DW$239, DW_AT_type(*$C$DW$T$22)
    4418                            .dwattr $C$DW$239, DW_AT_name("ui8RSSetup")
    4419                            .dwattr $C$DW$239, DW_AT_TI_symbol_name("ui8RSSetup")
    4420                            .dwattr $C$DW$239, DW_AT_data_member_location[DW_OP_plus_uconst 0x3]
    4421                            .dwattr $C$DW$239, DW_AT_accessibility(DW_ACCESS_public)
    4422                            .dwattr $C$DW$239, DW_AT_decl_file("/home/pola/workspace_v8/Microwave/driverlib/lcd.h")
    4423                            .dwattr $C$DW$239, DW_AT_decl_line(0x8d)
    4424                            .dwattr $C$DW$239, DW_AT_decl_column(0x0d)
    4425                    
    4426                    $C$DW$240       .dwtag  DW_TAG_member
    4427                            .dwattr $C$DW$240, DW_AT_type(*$C$DW$T$22)
    4428                            .dwattr $C$DW$240, DW_AT_name("ui8RSDuration")
    4429                            .dwattr $C$DW$240, DW_AT_TI_symbol_name("ui8RSDuration")
    4430                            .dwattr $C$DW$240, DW_AT_data_member_location[DW_OP_plus_uconst 0x4]
    4431                            .dwattr $C$DW$240, DW_AT_accessibility(DW_ACCESS_public)
    4432                            .dwattr $C$DW$240, DW_AT_decl_file("/home/pola/workspace_v8/Microwave/driverlib/lcd.h")
    4433                            .dwattr $C$DW$240, DW_AT_decl_line(0x94)
    4434                            .dwattr $C$DW$240, DW_AT_decl_column(0x0d)
    4435                    
    4436                    $C$DW$241       .dwtag  DW_TAG_member
    4437                            .dwattr $C$DW$241, DW_AT_type(*$C$DW$T$22)
    4438                            .dwattr $C$DW$241, DW_AT_name("ui8RSHold")
    4439                            .dwattr $C$DW$241, DW_AT_TI_symbol_name("ui8RSHold")
    4440                            .dwattr $C$DW$241, DW_AT_data_member_location[DW_OP_plus_uconst 0x5]
    4441                            .dwattr $C$DW$241, DW_AT_accessibility(DW_ACCESS_public)
    4442                            .dwattr $C$DW$241, DW_AT_decl_file("/home/pola/workspace_v8/Microwave/driverlib/lcd.h")
    4443                            .dwattr $C$DW$241, DW_AT_decl_line(0x9c)
    4444                            .dwattr $C$DW$241, DW_AT_decl_column(0x0d)
    4445                    
    4446                    $C$DW$242       .dwtag  DW_TAG_member
    4447                            .dwattr $C$DW$242, DW_AT_type(*$C$DW$T$22)
    4448                            .dwattr $C$DW$242, DW_AT_name("ui8DelayCycles")
    4449                            .dwattr $C$DW$242, DW_AT_TI_symbol_name("ui8DelayCycles")
    4450                            .dwattr $C$DW$242, DW_AT_data_member_location[DW_OP_plus_uconst 0x6]
    4451                            .dwattr $C$DW$242, DW_AT_accessibility(DW_ACCESS_public)
    4452                            .dwattr $C$DW$242, DW_AT_decl_file("/home/pola/workspace_v8/Microwave/driverlib/lcd.h")
    4453                            .dwattr $C$DW$242, DW_AT_decl_line(0xa4)
    4454                            .dwattr $C$DW$242, DW_AT_decl_column(0x0d)
TI ARM Assembler Unix v18.1.1 Fri Jul  3 20:08:25 2020

Tools Copyright (c) 1996-2017 Texas Instruments Incorporated
lcd.asm                                                              PAGE   82

    4455                    
    4456                            .dwattr $C$DW$T$23, DW_AT_decl_file("/home/pola/workspace_v8/Microwave/driverlib/lcd.h")
    4457                            .dwattr $C$DW$T$23, DW_AT_decl_line(0x6f)
    4458                            .dwattr $C$DW$T$23, DW_AT_decl_column(0x01)
    4459                            .dwendtag $C$DW$T$23
    4460                    
    4461                    $C$DW$T$31      .dwtag  DW_TAG_typedef
    4462                            .dwattr $C$DW$T$31, DW_AT_name("tLCDIDDTiming")
    4463                            .dwattr $C$DW$T$31, DW_AT_type(*$C$DW$T$23)
    4464                            .dwattr $C$DW$T$31, DW_AT_language(DW_LANG_C)
    4465                            .dwattr $C$DW$T$31, DW_AT_decl_file("/home/pola/workspace_v8/Microwave/driverlib/lcd.h")
    4466                            .dwattr $C$DW$T$31, DW_AT_decl_line(0xa6)
    4467                            .dwattr $C$DW$T$31, DW_AT_decl_column(0x01)
    4468                    
    4469                    $C$DW$T$32      .dwtag  DW_TAG_const_type
    4470                            .dwattr $C$DW$T$32, DW_AT_type(*$C$DW$T$31)
    4471                    
    4472                    $C$DW$T$33      .dwtag  DW_TAG_pointer_type
    4473                            .dwattr $C$DW$T$33, DW_AT_type(*$C$DW$T$32)
    4474                            .dwattr $C$DW$T$33, DW_AT_address_class(0x20)
    4475                    
    4476                    
    4477                    $C$DW$T$28      .dwtag  DW_TAG_structure_type
    4478                            .dwattr $C$DW$T$28, DW_AT_byte_size(0x14)
    4479                    $C$DW$243       .dwtag  DW_TAG_member
    4480                            .dwattr $C$DW$243, DW_AT_type(*$C$DW$T$25)
    4481                            .dwattr $C$DW$243, DW_AT_name("ui32Flags")
    4482                            .dwattr $C$DW$243, DW_AT_TI_symbol_name("ui32Flags")
    4483                            .dwattr $C$DW$243, DW_AT_data_member_location[DW_OP_plus_uconst 0x0]
    4484                            .dwattr $C$DW$243, DW_AT_accessibility(DW_ACCESS_public)
    4485                            .dwattr $C$DW$243, DW_AT_decl_file("/home/pola/workspace_v8/Microwave/driverlib/lcd.h")
    4486                            .dwattr $C$DW$243, DW_AT_decl_line(0xce)
    4487                            .dwattr $C$DW$243, DW_AT_decl_column(0x0e)
    4488                    
    4489                    $C$DW$244       .dwtag  DW_TAG_member
    4490                            .dwattr $C$DW$244, DW_AT_type(*$C$DW$T$27)
    4491                            .dwattr $C$DW$244, DW_AT_name("ui16PanelWidth")
    4492                            .dwattr $C$DW$244, DW_AT_TI_symbol_name("ui16PanelWidth")
    4493                            .dwattr $C$DW$244, DW_AT_data_member_location[DW_OP_plus_uconst 0x4]
    4494                            .dwattr $C$DW$244, DW_AT_accessibility(DW_ACCESS_public)
    4495                            .dwattr $C$DW$244, DW_AT_decl_file("/home/pola/workspace_v8/Microwave/driverlib/lcd.h")
    4496                            .dwattr $C$DW$244, DW_AT_decl_line(0xd4)
    4497                            .dwattr $C$DW$244, DW_AT_decl_column(0x0e)
    4498                    
    4499                    $C$DW$245       .dwtag  DW_TAG_member
    4500                            .dwattr $C$DW$245, DW_AT_type(*$C$DW$T$27)
    4501                            .dwattr $C$DW$245, DW_AT_name("ui16PanelHeight")
    4502                            .dwattr $C$DW$245, DW_AT_TI_symbol_name("ui16PanelHeight")
    4503                            .dwattr $C$DW$245, DW_AT_data_member_location[DW_OP_plus_uconst 0x6]
    4504                            .dwattr $C$DW$245, DW_AT_accessibility(DW_ACCESS_public)
    4505                            .dwattr $C$DW$245, DW_AT_decl_file("/home/pola/workspace_v8/Microwave/driverlib/lcd.h")
    4506                            .dwattr $C$DW$245, DW_AT_decl_line(0xda)
    4507                            .dwattr $C$DW$245, DW_AT_decl_column(0x0e)
    4508                    
    4509                    $C$DW$246       .dwtag  DW_TAG_member
TI ARM Assembler Unix v18.1.1 Fri Jul  3 20:08:25 2020

Tools Copyright (c) 1996-2017 Texas Instruments Incorporated
lcd.asm                                                              PAGE   83

    4510                            .dwattr $C$DW$246, DW_AT_type(*$C$DW$T$27)
    4511                            .dwattr $C$DW$246, DW_AT_name("ui16HFrontPorch")
    4512                            .dwattr $C$DW$246, DW_AT_TI_symbol_name("ui16HFrontPorch")
    4513                            .dwattr $C$DW$246, DW_AT_data_member_location[DW_OP_plus_uconst 0x8]
    4514                            .dwattr $C$DW$246, DW_AT_accessibility(DW_ACCESS_public)
    4515                            .dwattr $C$DW$246, DW_AT_decl_file("/home/pola/workspace_v8/Microwave/driverlib/lcd.h")
    4516                            .dwattr $C$DW$246, DW_AT_decl_line(0xe0)
    4517                            .dwattr $C$DW$246, DW_AT_decl_column(0x0e)
    4518                    
    4519                    $C$DW$247       .dwtag  DW_TAG_member
    4520                            .dwattr $C$DW$247, DW_AT_type(*$C$DW$T$27)
    4521                            .dwattr $C$DW$247, DW_AT_name("ui16HBackPorch")
    4522                            .dwattr $C$DW$247, DW_AT_TI_symbol_name("ui16HBackPorch")
    4523                            .dwattr $C$DW$247, DW_AT_data_member_location[DW_OP_plus_uconst 0xa]
    4524                            .dwattr $C$DW$247, DW_AT_accessibility(DW_ACCESS_public)
    4525                            .dwattr $C$DW$247, DW_AT_decl_file("/home/pola/workspace_v8/Microwave/driverlib/lcd.h")
    4526                            .dwattr $C$DW$247, DW_AT_decl_line(0xe6)
    4527                            .dwattr $C$DW$247, DW_AT_decl_column(0x0e)
    4528                    
    4529                    $C$DW$248       .dwtag  DW_TAG_member
    4530                            .dwattr $C$DW$248, DW_AT_type(*$C$DW$T$27)
    4531                            .dwattr $C$DW$248, DW_AT_name("ui16HSyncWidth")
    4532                            .dwattr $C$DW$248, DW_AT_TI_symbol_name("ui16HSyncWidth")
    4533                            .dwattr $C$DW$248, DW_AT_data_member_location[DW_OP_plus_uconst 0xc]
    4534                            .dwattr $C$DW$248, DW_AT_accessibility(DW_ACCESS_public)
    4535                            .dwattr $C$DW$248, DW_AT_decl_file("/home/pola/workspace_v8/Microwave/driverlib/lcd.h")
    4536                            .dwattr $C$DW$248, DW_AT_decl_line(0xec)
    4537                            .dwattr $C$DW$248, DW_AT_decl_column(0x0e)
    4538                    
    4539                    $C$DW$249       .dwtag  DW_TAG_member
    4540                            .dwattr $C$DW$249, DW_AT_type(*$C$DW$T$22)
    4541                            .dwattr $C$DW$249, DW_AT_name("ui8VFrontPorch")
    4542                            .dwattr $C$DW$249, DW_AT_TI_symbol_name("ui8VFrontPorch")
    4543                            .dwattr $C$DW$249, DW_AT_data_member_location[DW_OP_plus_uconst 0xe]
    4544                            .dwattr $C$DW$249, DW_AT_accessibility(DW_ACCESS_public)
    4545                            .dwattr $C$DW$249, DW_AT_decl_file("/home/pola/workspace_v8/Microwave/driverlib/lcd.h")
    4546                            .dwattr $C$DW$249, DW_AT_decl_line(0xf2)
    4547                            .dwattr $C$DW$249, DW_AT_decl_column(0x0d)
    4548                    
    4549                    $C$DW$250       .dwtag  DW_TAG_member
    4550                            .dwattr $C$DW$250, DW_AT_type(*$C$DW$T$22)
    4551                            .dwattr $C$DW$250, DW_AT_name("ui8VBackPorch")
    4552                            .dwattr $C$DW$250, DW_AT_TI_symbol_name("ui8VBackPorch")
    4553                            .dwattr $C$DW$250, DW_AT_data_member_location[DW_OP_plus_uconst 0xf]
    4554                            .dwattr $C$DW$250, DW_AT_accessibility(DW_ACCESS_public)
    4555                            .dwattr $C$DW$250, DW_AT_decl_file("/home/pola/workspace_v8/Microwave/driverlib/lcd.h")
    4556                            .dwattr $C$DW$250, DW_AT_decl_line(0xf9)
    4557                            .dwattr $C$DW$250, DW_AT_decl_column(0x0d)
    4558                    
    4559                    $C$DW$251       .dwtag  DW_TAG_member
    4560                            .dwattr $C$DW$251, DW_AT_type(*$C$DW$T$22)
    4561                            .dwattr $C$DW$251, DW_AT_name("ui8VSyncWidth")
    4562                            .dwattr $C$DW$251, DW_AT_TI_symbol_name("ui8VSyncWidth")
    4563                            .dwattr $C$DW$251, DW_AT_data_member_location[DW_OP_plus_uconst 0x10]
    4564                            .dwattr $C$DW$251, DW_AT_accessibility(DW_ACCESS_public)
TI ARM Assembler Unix v18.1.1 Fri Jul  3 20:08:25 2020

Tools Copyright (c) 1996-2017 Texas Instruments Incorporated
lcd.asm                                                              PAGE   84

    4565                            .dwattr $C$DW$251, DW_AT_decl_file("/home/pola/workspace_v8/Microwave/driverlib/lcd.h")
    4566                            .dwattr $C$DW$251, DW_AT_decl_line(0x106)
    4567                            .dwattr $C$DW$251, DW_AT_decl_column(0x0d)
    4568                    
    4569                    $C$DW$252       .dwtag  DW_TAG_member
    4570                            .dwattr $C$DW$252, DW_AT_type(*$C$DW$T$22)
    4571                            .dwattr $C$DW$252, DW_AT_name("ui8ACBiasLineCount")
    4572                            .dwattr $C$DW$252, DW_AT_TI_symbol_name("ui8ACBiasLineCount")
    4573                            .dwattr $C$DW$252, DW_AT_data_member_location[DW_OP_plus_uconst 0x11]
    4574                            .dwattr $C$DW$252, DW_AT_accessibility(DW_ACCESS_public)
    4575                            .dwattr $C$DW$252, DW_AT_decl_file("/home/pola/workspace_v8/Microwave/driverlib/lcd.h")
    4576                            .dwattr $C$DW$252, DW_AT_decl_line(0x10e)
    4577                            .dwattr $C$DW$252, DW_AT_decl_column(0x0d)
    4578                    
    4579                            .dwattr $C$DW$T$28, DW_AT_decl_file("/home/pola/workspace_v8/Microwave/driverlib/lcd.h")
    4580                            .dwattr $C$DW$T$28, DW_AT_decl_line(0xc8)
    4581                            .dwattr $C$DW$T$28, DW_AT_decl_column(0x01)
    4582                            .dwendtag $C$DW$T$28
    4583                    
    4584                    $C$DW$T$34      .dwtag  DW_TAG_typedef
    4585                            .dwattr $C$DW$T$34, DW_AT_name("tLCDRasterTiming")
    4586                            .dwattr $C$DW$T$34, DW_AT_type(*$C$DW$T$28)
    4587                            .dwattr $C$DW$T$34, DW_AT_language(DW_LANG_C)
    4588                            .dwattr $C$DW$T$34, DW_AT_decl_file("/home/pola/workspace_v8/Microwave/driverlib/lcd.h")
    4589                            .dwattr $C$DW$T$34, DW_AT_decl_line(0x110)
    4590                            .dwattr $C$DW$T$34, DW_AT_decl_column(0x01)
    4591                    
    4592                    $C$DW$T$35      .dwtag  DW_TAG_const_type
    4593                            .dwattr $C$DW$T$35, DW_AT_type(*$C$DW$T$34)
    4594                    
    4595                    $C$DW$T$36      .dwtag  DW_TAG_pointer_type
    4596                            .dwattr $C$DW$T$36, DW_AT_type(*$C$DW$T$35)
    4597                            .dwattr $C$DW$T$36, DW_AT_address_class(0x20)
    4598                    
    4599                    
    4600                    $C$DW$T$29      .dwtag  DW_TAG_structure_type
    4601                            .dwattr $C$DW$T$29, DW_AT_byte_size(0x10)
    4602                    $C$DW$253       .dwtag  DW_TAG_member
    4603                            .dwattr $C$DW$253, DW_AT_type(*$C$DW$T$14)
    4604                            .dwattr $C$DW$253, DW_AT_name("__max_align1")
    4605                            .dwattr $C$DW$253, DW_AT_TI_symbol_name("__max_align1")
    4606                            .dwattr $C$DW$253, DW_AT_data_member_location[DW_OP_plus_uconst 0x0]
    4607                            .dwattr $C$DW$253, DW_AT_accessibility(DW_ACCESS_public)
    4608                            .dwattr $C$DW$253, DW_AT_decl_file("/home/pola/ti/ccsv8/tools/compiler/ti-cgt-arm_18.1.1.LTS/i
    4609                            .dwattr $C$DW$253, DW_AT_decl_line(0x70)
    4610                            .dwattr $C$DW$253, DW_AT_decl_column(0x0c)
    4611                    
    4612                    $C$DW$254       .dwtag  DW_TAG_member
    4613                            .dwattr $C$DW$254, DW_AT_type(*$C$DW$T$18)
    4614                            .dwattr $C$DW$254, DW_AT_name("__max_align2")
    4615                            .dwattr $C$DW$254, DW_AT_TI_symbol_name("__max_align2")
    4616                            .dwattr $C$DW$254, DW_AT_data_member_location[DW_OP_plus_uconst 0x8]
    4617                            .dwattr $C$DW$254, DW_AT_accessibility(DW_ACCESS_public)
    4618                            .dwattr $C$DW$254, DW_AT_decl_file("/home/pola/ti/ccsv8/tools/compiler/ti-cgt-arm_18.1.1.LTS/i
    4619                            .dwattr $C$DW$254, DW_AT_decl_line(0x71)
TI ARM Assembler Unix v18.1.1 Fri Jul  3 20:08:25 2020

Tools Copyright (c) 1996-2017 Texas Instruments Incorporated
lcd.asm                                                              PAGE   85

    4620                            .dwattr $C$DW$254, DW_AT_decl_column(0x0e)
    4621                    
    4622                            .dwattr $C$DW$T$29, DW_AT_decl_file("/home/pola/ti/ccsv8/tools/compiler/ti-cgt-arm_18.1.1.LTS/
    4623                            .dwattr $C$DW$T$29, DW_AT_decl_line(0x6f)
    4624                            .dwattr $C$DW$T$29, DW_AT_decl_column(0x10)
    4625                            .dwendtag $C$DW$T$29
    4626                    
    4627                    $C$DW$T$37      .dwtag  DW_TAG_typedef
    4628                            .dwattr $C$DW$T$37, DW_AT_name("__max_align_t")
    4629                            .dwattr $C$DW$T$37, DW_AT_type(*$C$DW$T$29)
    4630                            .dwattr $C$DW$T$37, DW_AT_language(DW_LANG_C)
    4631                            .dwattr $C$DW$T$37, DW_AT_decl_file("/home/pola/ti/ccsv8/tools/compiler/ti-cgt-arm_18.1.1.LTS/
    4632                            .dwattr $C$DW$T$37, DW_AT_decl_line(0x72)
    4633                            .dwattr $C$DW$T$37, DW_AT_decl_column(0x03)
    4634                    
    4635                    $C$DW$T$2       .dwtag  DW_TAG_unspecified_type
    4636                            .dwattr $C$DW$T$2, DW_AT_name("void")
    4637                    
    4638                    $C$DW$T$3       .dwtag  DW_TAG_pointer_type
    4639                            .dwattr $C$DW$T$3, DW_AT_type(*$C$DW$T$2)
    4640                            .dwattr $C$DW$T$3, DW_AT_address_class(0x20)
    4641                    
    4642                    
    4643                    $C$DW$T$38      .dwtag  DW_TAG_subroutine_type
    4644                            .dwattr $C$DW$T$38, DW_AT_language(DW_LANG_C)
    4645                            .dwendtag $C$DW$T$38
    4646                    
    4647                    $C$DW$T$39      .dwtag  DW_TAG_pointer_type
    4648                            .dwattr $C$DW$T$39, DW_AT_type(*$C$DW$T$38)
    4649                            .dwattr $C$DW$T$39, DW_AT_address_class(0x20)
    4650                    
    4651                    $C$DW$T$4       .dwtag  DW_TAG_base_type
    4652                            .dwattr $C$DW$T$4, DW_AT_encoding(DW_ATE_boolean)
    4653                            .dwattr $C$DW$T$4, DW_AT_name("bool")
    4654                            .dwattr $C$DW$T$4, DW_AT_byte_size(0x01)
    4655                    
    4656                    $C$DW$T$5       .dwtag  DW_TAG_base_type
    4657                            .dwattr $C$DW$T$5, DW_AT_encoding(DW_ATE_signed_char)
    4658                            .dwattr $C$DW$T$5, DW_AT_name("signed char")
    4659                            .dwattr $C$DW$T$5, DW_AT_byte_size(0x01)
    4660                    
    4661                    $C$DW$T$59      .dwtag  DW_TAG_typedef
    4662                            .dwattr $C$DW$T$59, DW_AT_name("__int8_t")
    4663                            .dwattr $C$DW$T$59, DW_AT_type(*$C$DW$T$5)
    4664                            .dwattr $C$DW$T$59, DW_AT_language(DW_LANG_C)
    4665                            .dwattr $C$DW$T$59, DW_AT_decl_file("/home/pola/ti/ccsv8/tools/compiler/ti-cgt-arm_18.1.1.LTS/
    4666                            .dwattr $C$DW$T$59, DW_AT_decl_line(0x39)
    4667                            .dwattr $C$DW$T$59, DW_AT_decl_column(0x16)
    4668                    
    4669                    $C$DW$T$60      .dwtag  DW_TAG_typedef
    4670                            .dwattr $C$DW$T$60, DW_AT_name("__int_least8_t")
    4671                            .dwattr $C$DW$T$60, DW_AT_type(*$C$DW$T$59)
    4672                            .dwattr $C$DW$T$60, DW_AT_language(DW_LANG_C)
    4673                            .dwattr $C$DW$T$60, DW_AT_decl_file("/home/pola/ti/ccsv8/tools/compiler/ti-cgt-arm_18.1.1.LTS/
    4674                            .dwattr $C$DW$T$60, DW_AT_decl_line(0x58)
TI ARM Assembler Unix v18.1.1 Fri Jul  3 20:08:25 2020

Tools Copyright (c) 1996-2017 Texas Instruments Incorporated
lcd.asm                                                              PAGE   86

    4675                            .dwattr $C$DW$T$60, DW_AT_decl_column(0x12)
    4676                    
    4677                    $C$DW$T$61      .dwtag  DW_TAG_typedef
    4678                            .dwattr $C$DW$T$61, DW_AT_name("int_least8_t")
    4679                            .dwattr $C$DW$T$61, DW_AT_type(*$C$DW$T$60)
    4680                            .dwattr $C$DW$T$61, DW_AT_language(DW_LANG_C)
    4681                            .dwattr $C$DW$T$61, DW_AT_decl_file("/home/pola/ti/ccsv8/tools/compiler/ti-cgt-arm_18.1.1.LTS/
    4682                            .dwattr $C$DW$T$61, DW_AT_decl_line(0x28)
    4683                            .dwattr $C$DW$T$61, DW_AT_decl_column(0x19)
    4684                    
    4685                    $C$DW$T$62      .dwtag  DW_TAG_typedef
    4686                            .dwattr $C$DW$T$62, DW_AT_name("int8_t")
    4687                            .dwattr $C$DW$T$62, DW_AT_type(*$C$DW$T$59)
    4688                            .dwattr $C$DW$T$62, DW_AT_language(DW_LANG_C)
    4689                            .dwattr $C$DW$T$62, DW_AT_decl_file("/home/pola/ti/ccsv8/tools/compiler/ti-cgt-arm_18.1.1.LTS/
    4690                            .dwattr $C$DW$T$62, DW_AT_decl_line(0x24)
    4691                            .dwattr $C$DW$T$62, DW_AT_decl_column(0x13)
    4692                    
    4693                    $C$DW$T$6       .dwtag  DW_TAG_base_type
    4694                            .dwattr $C$DW$T$6, DW_AT_encoding(DW_ATE_unsigned_char)
    4695                            .dwattr $C$DW$T$6, DW_AT_name("unsigned char")
    4696                            .dwattr $C$DW$T$6, DW_AT_byte_size(0x01)
    4697                    
    4698                    $C$DW$T$21      .dwtag  DW_TAG_typedef
    4699                            .dwattr $C$DW$T$21, DW_AT_name("__uint8_t")
    4700                            .dwattr $C$DW$T$21, DW_AT_type(*$C$DW$T$6)
    4701                            .dwattr $C$DW$T$21, DW_AT_language(DW_LANG_C)
    4702                            .dwattr $C$DW$T$21, DW_AT_decl_file("/home/pola/ti/ccsv8/tools/compiler/ti-cgt-arm_18.1.1.LTS/
    4703                            .dwattr $C$DW$T$21, DW_AT_decl_line(0x3a)
    4704                            .dwattr $C$DW$T$21, DW_AT_decl_column(0x18)
    4705                    
    4706                    $C$DW$T$63      .dwtag  DW_TAG_typedef
    4707                            .dwattr $C$DW$T$63, DW_AT_name("__sa_family_t")
    4708                            .dwattr $C$DW$T$63, DW_AT_type(*$C$DW$T$21)
    4709                            .dwattr $C$DW$T$63, DW_AT_language(DW_LANG_C)
    4710                            .dwattr $C$DW$T$63, DW_AT_decl_file("/home/pola/ti/ccsv8/tools/compiler/ti-cgt-arm_18.1.1.LTS/
    4711                            .dwattr $C$DW$T$63, DW_AT_decl_line(0x43)
    4712                            .dwattr $C$DW$T$63, DW_AT_decl_column(0x13)
    4713                    
    4714                    $C$DW$T$64      .dwtag  DW_TAG_typedef
    4715                            .dwattr $C$DW$T$64, DW_AT_name("__uint_least8_t")
    4716                            .dwattr $C$DW$T$64, DW_AT_type(*$C$DW$T$21)
    4717                            .dwattr $C$DW$T$64, DW_AT_language(DW_LANG_C)
    4718                            .dwattr $C$DW$T$64, DW_AT_decl_file("/home/pola/ti/ccsv8/tools/compiler/ti-cgt-arm_18.1.1.LTS/
    4719                            .dwattr $C$DW$T$64, DW_AT_decl_line(0x6d)
    4720                            .dwattr $C$DW$T$64, DW_AT_decl_column(0x13)
    4721                    
    4722                    $C$DW$T$65      .dwtag  DW_TAG_typedef
    4723                            .dwattr $C$DW$T$65, DW_AT_name("uint_least8_t")
    4724                            .dwattr $C$DW$T$65, DW_AT_type(*$C$DW$T$64)
    4725                            .dwattr $C$DW$T$65, DW_AT_language(DW_LANG_C)
    4726                            .dwattr $C$DW$T$65, DW_AT_decl_file("/home/pola/ti/ccsv8/tools/compiler/ti-cgt-arm_18.1.1.LTS/
    4727                            .dwattr $C$DW$T$65, DW_AT_decl_line(0x2d)
    4728                            .dwattr $C$DW$T$65, DW_AT_decl_column(0x1a)
    4729                    
TI ARM Assembler Unix v18.1.1 Fri Jul  3 20:08:25 2020

Tools Copyright (c) 1996-2017 Texas Instruments Incorporated
lcd.asm                                                              PAGE   87

    4730                    $C$DW$T$22      .dwtag  DW_TAG_typedef
    4731                            .dwattr $C$DW$T$22, DW_AT_name("uint8_t")
    4732                            .dwattr $C$DW$T$22, DW_AT_type(*$C$DW$T$21)
    4733                            .dwattr $C$DW$T$22, DW_AT_language(DW_LANG_C)
    4734                            .dwattr $C$DW$T$22, DW_AT_decl_file("/home/pola/ti/ccsv8/tools/compiler/ti-cgt-arm_18.1.1.LTS/
    4735                            .dwattr $C$DW$T$22, DW_AT_decl_line(0x38)
    4736                            .dwattr $C$DW$T$22, DW_AT_decl_column(0x14)
    4737                    
    4738                    $C$DW$T$7       .dwtag  DW_TAG_base_type
    4739                            .dwattr $C$DW$T$7, DW_AT_encoding(DW_ATE_signed_char)
    4740                            .dwattr $C$DW$T$7, DW_AT_name("wchar_t")
    4741                            .dwattr $C$DW$T$7, DW_AT_byte_size(0x02)
    4742                    
    4743                    $C$DW$T$8       .dwtag  DW_TAG_base_type
    4744                            .dwattr $C$DW$T$8, DW_AT_encoding(DW_ATE_signed)
    4745                            .dwattr $C$DW$T$8, DW_AT_name("short")
    4746                            .dwattr $C$DW$T$8, DW_AT_byte_size(0x02)
    4747                    
    4748                    $C$DW$T$67      .dwtag  DW_TAG_typedef
    4749                            .dwattr $C$DW$T$67, DW_AT_name("__int16_t")
    4750                            .dwattr $C$DW$T$67, DW_AT_type(*$C$DW$T$8)
    4751                            .dwattr $C$DW$T$67, DW_AT_language(DW_LANG_C)
    4752                            .dwattr $C$DW$T$67, DW_AT_decl_file("/home/pola/ti/ccsv8/tools/compiler/ti-cgt-arm_18.1.1.LTS/
    4753                            .dwattr $C$DW$T$67, DW_AT_decl_line(0x3b)
    4754                            .dwattr $C$DW$T$67, DW_AT_decl_column(0x11)
    4755                    
    4756                    $C$DW$T$68      .dwtag  DW_TAG_typedef
    4757                            .dwattr $C$DW$T$68, DW_AT_name("__int_least16_t")
    4758                            .dwattr $C$DW$T$68, DW_AT_type(*$C$DW$T$67)
    4759                            .dwattr $C$DW$T$68, DW_AT_language(DW_LANG_C)
    4760                            .dwattr $C$DW$T$68, DW_AT_decl_file("/home/pola/ti/ccsv8/tools/compiler/ti-cgt-arm_18.1.1.LTS/
    4761                            .dwattr $C$DW$T$68, DW_AT_decl_line(0x59)
    4762                            .dwattr $C$DW$T$68, DW_AT_decl_column(0x13)
    4763                    
    4764                    $C$DW$T$69      .dwtag  DW_TAG_typedef
    4765                            .dwattr $C$DW$T$69, DW_AT_name("int_least16_t")
    4766                            .dwattr $C$DW$T$69, DW_AT_type(*$C$DW$T$68)
    4767                            .dwattr $C$DW$T$69, DW_AT_language(DW_LANG_C)
    4768                            .dwattr $C$DW$T$69, DW_AT_decl_file("/home/pola/ti/ccsv8/tools/compiler/ti-cgt-arm_18.1.1.LTS/
    4769                            .dwattr $C$DW$T$69, DW_AT_decl_line(0x29)
    4770                            .dwattr $C$DW$T$69, DW_AT_decl_column(0x1a)
    4771                    
    4772                    $C$DW$T$70      .dwtag  DW_TAG_typedef
    4773                            .dwattr $C$DW$T$70, DW_AT_name("int16_t")
    4774                            .dwattr $C$DW$T$70, DW_AT_type(*$C$DW$T$67)
    4775                            .dwattr $C$DW$T$70, DW_AT_language(DW_LANG_C)
    4776                            .dwattr $C$DW$T$70, DW_AT_decl_file("/home/pola/ti/ccsv8/tools/compiler/ti-cgt-arm_18.1.1.LTS/
    4777                            .dwattr $C$DW$T$70, DW_AT_decl_line(0x29)
    4778                            .dwattr $C$DW$T$70, DW_AT_decl_column(0x14)
    4779                    
    4780                    $C$DW$T$9       .dwtag  DW_TAG_base_type
    4781                            .dwattr $C$DW$T$9, DW_AT_encoding(DW_ATE_unsigned)
    4782                            .dwattr $C$DW$T$9, DW_AT_name("unsigned short")
    4783                            .dwattr $C$DW$T$9, DW_AT_byte_size(0x02)
    4784                    
TI ARM Assembler Unix v18.1.1 Fri Jul  3 20:08:25 2020

Tools Copyright (c) 1996-2017 Texas Instruments Incorporated
lcd.asm                                                              PAGE   88

    4785                    $C$DW$T$71      .dwtag  DW_TAG_typedef
    4786                            .dwattr $C$DW$T$71, DW_AT_name("___wchar_t")
    4787                            .dwattr $C$DW$T$71, DW_AT_type(*$C$DW$T$9)
    4788                            .dwattr $C$DW$T$71, DW_AT_language(DW_LANG_C)
    4789                            .dwattr $C$DW$T$71, DW_AT_decl_file("/home/pola/ti/ccsv8/tools/compiler/ti-cgt-arm_18.1.1.LTS/
    4790                            .dwattr $C$DW$T$71, DW_AT_decl_line(0x76)
    4791                            .dwattr $C$DW$T$71, DW_AT_decl_column(0x1a)
    4792                    
    4793                    $C$DW$T$26      .dwtag  DW_TAG_typedef
    4794                            .dwattr $C$DW$T$26, DW_AT_name("__uint16_t")
    4795                            .dwattr $C$DW$T$26, DW_AT_type(*$C$DW$T$9)
    4796                            .dwattr $C$DW$T$26, DW_AT_language(DW_LANG_C)
    4797                            .dwattr $C$DW$T$26, DW_AT_decl_file("/home/pola/ti/ccsv8/tools/compiler/ti-cgt-arm_18.1.1.LTS/
    4798                            .dwattr $C$DW$T$26, DW_AT_decl_line(0x3c)
    4799                            .dwattr $C$DW$T$26, DW_AT_decl_column(0x19)
    4800                    
    4801                    $C$DW$T$72      .dwtag  DW_TAG_typedef
    4802                            .dwattr $C$DW$T$72, DW_AT_name("__mode_t")
    4803                            .dwattr $C$DW$T$72, DW_AT_type(*$C$DW$T$26)
    4804                            .dwattr $C$DW$T$72, DW_AT_language(DW_LANG_C)
    4805                            .dwattr $C$DW$T$72, DW_AT_decl_file("/home/pola/ti/ccsv8/tools/compiler/ti-cgt-arm_18.1.1.LTS/
    4806                            .dwattr $C$DW$T$72, DW_AT_decl_line(0x39)
    4807                            .dwattr $C$DW$T$72, DW_AT_decl_column(0x14)
    4808                    
    4809                    $C$DW$T$73      .dwtag  DW_TAG_typedef
    4810                            .dwattr $C$DW$T$73, DW_AT_name("__uint_least16_t")
    4811                            .dwattr $C$DW$T$73, DW_AT_type(*$C$DW$T$26)
    4812                            .dwattr $C$DW$T$73, DW_AT_language(DW_LANG_C)
    4813                            .dwattr $C$DW$T$73, DW_AT_decl_file("/home/pola/ti/ccsv8/tools/compiler/ti-cgt-arm_18.1.1.LTS/
    4814                            .dwattr $C$DW$T$73, DW_AT_decl_line(0x6e)
    4815                            .dwattr $C$DW$T$73, DW_AT_decl_column(0x14)
    4816                    
    4817                    $C$DW$T$74      .dwtag  DW_TAG_typedef
    4818                            .dwattr $C$DW$T$74, DW_AT_name("__char16_t")
    4819                            .dwattr $C$DW$T$74, DW_AT_type(*$C$DW$T$73)
    4820                            .dwattr $C$DW$T$74, DW_AT_language(DW_LANG_C)
    4821                            .dwattr $C$DW$T$74, DW_AT_decl_file("/home/pola/ti/ccsv8/tools/compiler/ti-cgt-arm_18.1.1.LTS/
    4822                            .dwattr $C$DW$T$74, DW_AT_decl_line(0x66)
    4823                            .dwattr $C$DW$T$74, DW_AT_decl_column(0x1a)
    4824                    
    4825                    $C$DW$T$75      .dwtag  DW_TAG_typedef
    4826                            .dwattr $C$DW$T$75, DW_AT_name("uint_least16_t")
    4827                            .dwattr $C$DW$T$75, DW_AT_type(*$C$DW$T$73)
    4828                            .dwattr $C$DW$T$75, DW_AT_language(DW_LANG_C)
    4829                            .dwattr $C$DW$T$75, DW_AT_decl_file("/home/pola/ti/ccsv8/tools/compiler/ti-cgt-arm_18.1.1.LTS/
    4830                            .dwattr $C$DW$T$75, DW_AT_decl_line(0x2e)
    4831                            .dwattr $C$DW$T$75, DW_AT_decl_column(0x1a)
    4832                    
    4833                    $C$DW$T$27      .dwtag  DW_TAG_typedef
    4834                            .dwattr $C$DW$T$27, DW_AT_name("uint16_t")
    4835                            .dwattr $C$DW$T$27, DW_AT_type(*$C$DW$T$26)
    4836                            .dwattr $C$DW$T$27, DW_AT_language(DW_LANG_C)
    4837                            .dwattr $C$DW$T$27, DW_AT_decl_file("/home/pola/ti/ccsv8/tools/compiler/ti-cgt-arm_18.1.1.LTS/
    4838                            .dwattr $C$DW$T$27, DW_AT_decl_line(0x3d)
    4839                            .dwattr $C$DW$T$27, DW_AT_decl_column(0x15)
TI ARM Assembler Unix v18.1.1 Fri Jul  3 20:08:25 2020

Tools Copyright (c) 1996-2017 Texas Instruments Incorporated
lcd.asm                                                              PAGE   89

    4840                    
    4841                    $C$DW$T$78      .dwtag  DW_TAG_pointer_type
    4842                            .dwattr $C$DW$T$78, DW_AT_type(*$C$DW$T$27)
    4843                            .dwattr $C$DW$T$78, DW_AT_address_class(0x20)
    4844                    
    4845                    $C$DW$T$10      .dwtag  DW_TAG_base_type
    4846                            .dwattr $C$DW$T$10, DW_AT_encoding(DW_ATE_signed)
    4847                            .dwattr $C$DW$T$10, DW_AT_name("int")
    4848                            .dwattr $C$DW$T$10, DW_AT_byte_size(0x04)
    4849                    
    4850                    $C$DW$T$80      .dwtag  DW_TAG_typedef
    4851                            .dwattr $C$DW$T$80, DW_AT_name("_Mbstatet")
    4852                            .dwattr $C$DW$T$80, DW_AT_type(*$C$DW$T$10)
    4853                            .dwattr $C$DW$T$80, DW_AT_language(DW_LANG_C)
    4854                            .dwattr $C$DW$T$80, DW_AT_decl_file("/home/pola/ti/ccsv8/tools/compiler/ti-cgt-arm_18.1.1.LTS/
    4855                            .dwattr $C$DW$T$80, DW_AT_decl_line(0x84)
    4856                            .dwattr $C$DW$T$80, DW_AT_decl_column(0x0d)
    4857                    
    4858                    $C$DW$T$81      .dwtag  DW_TAG_typedef
    4859                            .dwattr $C$DW$T$81, DW_AT_name("__mbstate_t")
    4860                            .dwattr $C$DW$T$81, DW_AT_type(*$C$DW$T$80)
    4861                            .dwattr $C$DW$T$81, DW_AT_language(DW_LANG_C)
    4862                            .dwattr $C$DW$T$81, DW_AT_decl_file("/home/pola/ti/ccsv8/tools/compiler/ti-cgt-arm_18.1.1.LTS/
    4863                            .dwattr $C$DW$T$81, DW_AT_decl_line(0x87)
    4864                            .dwattr $C$DW$T$81, DW_AT_decl_column(0x13)
    4865                    
    4866                    $C$DW$T$82      .dwtag  DW_TAG_typedef
    4867                            .dwattr $C$DW$T$82, DW_AT_name("__accmode_t")
    4868                            .dwattr $C$DW$T$82, DW_AT_type(*$C$DW$T$10)
    4869                            .dwattr $C$DW$T$82, DW_AT_language(DW_LANG_C)
    4870                            .dwattr $C$DW$T$82, DW_AT_decl_file("/home/pola/ti/ccsv8/tools/compiler/ti-cgt-arm_18.1.1.LTS/
    4871                            .dwattr $C$DW$T$82, DW_AT_decl_line(0x3a)
    4872                            .dwattr $C$DW$T$82, DW_AT_decl_column(0x0e)
    4873                    
    4874                    $C$DW$T$83      .dwtag  DW_TAG_typedef
    4875                            .dwattr $C$DW$T$83, DW_AT_name("__cpulevel_t")
    4876                            .dwattr $C$DW$T$83, DW_AT_type(*$C$DW$T$10)
    4877                            .dwattr $C$DW$T$83, DW_AT_language(DW_LANG_C)
    4878                            .dwattr $C$DW$T$83, DW_AT_decl_file("/home/pola/ti/ccsv8/tools/compiler/ti-cgt-arm_18.1.1.LTS/
    4879                            .dwattr $C$DW$T$83, DW_AT_decl_line(0x4b)
    4880                            .dwattr $C$DW$T$83, DW_AT_decl_column(0x0e)
    4881                    
    4882                    $C$DW$T$84      .dwtag  DW_TAG_typedef
    4883                            .dwattr $C$DW$T$84, DW_AT_name("__cpusetid_t")
    4884                            .dwattr $C$DW$T$84, DW_AT_type(*$C$DW$T$10)
    4885                            .dwattr $C$DW$T$84, DW_AT_language(DW_LANG_C)
    4886                            .dwattr $C$DW$T$84, DW_AT_decl_file("/home/pola/ti/ccsv8/tools/compiler/ti-cgt-arm_18.1.1.LTS/
    4887                            .dwattr $C$DW$T$84, DW_AT_decl_line(0x4c)
    4888                            .dwattr $C$DW$T$84, DW_AT_decl_column(0x0e)
    4889                    
    4890                    $C$DW$T$85      .dwtag  DW_TAG_typedef
    4891                            .dwattr $C$DW$T$85, DW_AT_name("__cpuwhich_t")
    4892                            .dwattr $C$DW$T$85, DW_AT_type(*$C$DW$T$10)
    4893                            .dwattr $C$DW$T$85, DW_AT_language(DW_LANG_C)
    4894                            .dwattr $C$DW$T$85, DW_AT_decl_file("/home/pola/ti/ccsv8/tools/compiler/ti-cgt-arm_18.1.1.LTS/
TI ARM Assembler Unix v18.1.1 Fri Jul  3 20:08:25 2020

Tools Copyright (c) 1996-2017 Texas Instruments Incorporated
lcd.asm                                                              PAGE   90

    4895                            .dwattr $C$DW$T$85, DW_AT_decl_line(0x4a)
    4896                            .dwattr $C$DW$T$85, DW_AT_decl_column(0x0e)
    4897                    
    4898                    $C$DW$T$86      .dwtag  DW_TAG_typedef
    4899                            .dwattr $C$DW$T$86, DW_AT_name("__ct_rune_t")
    4900                            .dwattr $C$DW$T$86, DW_AT_type(*$C$DW$T$10)
    4901                            .dwattr $C$DW$T$86, DW_AT_language(DW_LANG_C)
    4902                            .dwattr $C$DW$T$86, DW_AT_decl_file("/home/pola/ti/ccsv8/tools/compiler/ti-cgt-arm_18.1.1.LTS/
    4903                            .dwattr $C$DW$T$86, DW_AT_decl_line(0x60)
    4904                            .dwattr $C$DW$T$86, DW_AT_decl_column(0x0e)
    4905                    
    4906                    $C$DW$T$87      .dwtag  DW_TAG_typedef
    4907                            .dwattr $C$DW$T$87, DW_AT_name("__rune_t")
    4908                            .dwattr $C$DW$T$87, DW_AT_type(*$C$DW$T$86)
    4909                            .dwattr $C$DW$T$87, DW_AT_language(DW_LANG_C)
    4910                            .dwattr $C$DW$T$87, DW_AT_decl_file("/home/pola/ti/ccsv8/tools/compiler/ti-cgt-arm_18.1.1.LTS/
    4911                            .dwattr $C$DW$T$87, DW_AT_decl_line(0x61)
    4912                            .dwattr $C$DW$T$87, DW_AT_decl_column(0x15)
    4913                    
    4914                    $C$DW$T$88      .dwtag  DW_TAG_typedef
    4915                            .dwattr $C$DW$T$88, DW_AT_name("__wint_t")
    4916                            .dwattr $C$DW$T$88, DW_AT_type(*$C$DW$T$86)
    4917                            .dwattr $C$DW$T$88, DW_AT_language(DW_LANG_C)
    4918                            .dwattr $C$DW$T$88, DW_AT_decl_file("/home/pola/ti/ccsv8/tools/compiler/ti-cgt-arm_18.1.1.LTS/
    4919                            .dwattr $C$DW$T$88, DW_AT_decl_line(0x62)
    4920                            .dwattr $C$DW$T$88, DW_AT_decl_column(0x15)
    4921                    
    4922                    $C$DW$T$89      .dwtag  DW_TAG_typedef
    4923                            .dwattr $C$DW$T$89, DW_AT_name("__int32_t")
    4924                            .dwattr $C$DW$T$89, DW_AT_type(*$C$DW$T$10)
    4925                            .dwattr $C$DW$T$89, DW_AT_language(DW_LANG_C)
    4926                            .dwattr $C$DW$T$89, DW_AT_decl_file("/home/pola/ti/ccsv8/tools/compiler/ti-cgt-arm_18.1.1.LTS/
    4927                            .dwattr $C$DW$T$89, DW_AT_decl_line(0x3d)
    4928                            .dwattr $C$DW$T$89, DW_AT_decl_column(0x0f)
    4929                    
    4930                    $C$DW$T$90      .dwtag  DW_TAG_typedef
    4931                            .dwattr $C$DW$T$90, DW_AT_name("__blksize_t")
    4932                            .dwattr $C$DW$T$90, DW_AT_type(*$C$DW$T$89)
    4933                            .dwattr $C$DW$T$90, DW_AT_language(DW_LANG_C)
    4934                            .dwattr $C$DW$T$90, DW_AT_decl_file("/home/pola/ti/ccsv8/tools/compiler/ti-cgt-arm_18.1.1.LTS/
    4935                            .dwattr $C$DW$T$90, DW_AT_decl_line(0x2e)
    4936                            .dwattr $C$DW$T$90, DW_AT_decl_column(0x13)
    4937                    
    4938                    $C$DW$T$91      .dwtag  DW_TAG_typedef
    4939                            .dwattr $C$DW$T$91, DW_AT_name("__clockid_t")
    4940                            .dwattr $C$DW$T$91, DW_AT_type(*$C$DW$T$89)
    4941                            .dwattr $C$DW$T$91, DW_AT_language(DW_LANG_C)
    4942                            .dwattr $C$DW$T$91, DW_AT_decl_file("/home/pola/ti/ccsv8/tools/compiler/ti-cgt-arm_18.1.1.LTS/
    4943                            .dwattr $C$DW$T$91, DW_AT_decl_line(0x30)
    4944                            .dwattr $C$DW$T$91, DW_AT_decl_column(0x13)
    4945                    
    4946                    $C$DW$T$92      .dwtag  DW_TAG_typedef
    4947                            .dwattr $C$DW$T$92, DW_AT_name("__critical_t")
    4948                            .dwattr $C$DW$T$92, DW_AT_type(*$C$DW$T$89)
    4949                            .dwattr $C$DW$T$92, DW_AT_language(DW_LANG_C)
TI ARM Assembler Unix v18.1.1 Fri Jul  3 20:08:25 2020

Tools Copyright (c) 1996-2017 Texas Instruments Incorporated
lcd.asm                                                              PAGE   91

    4950                            .dwattr $C$DW$T$92, DW_AT_decl_file("/home/pola/ti/ccsv8/tools/compiler/ti-cgt-arm_18.1.1.LTS/
    4951                            .dwattr $C$DW$T$92, DW_AT_decl_line(0x4e)
    4952                            .dwattr $C$DW$T$92, DW_AT_decl_column(0x13)
    4953                    
    4954                    $C$DW$T$93      .dwtag  DW_TAG_typedef
    4955                            .dwattr $C$DW$T$93, DW_AT_name("__int_fast16_t")
    4956                            .dwattr $C$DW$T$93, DW_AT_type(*$C$DW$T$89)
    4957                            .dwattr $C$DW$T$93, DW_AT_language(DW_LANG_C)
    4958                            .dwattr $C$DW$T$93, DW_AT_decl_file("/home/pola/ti/ccsv8/tools/compiler/ti-cgt-arm_18.1.1.LTS/
    4959                            .dwattr $C$DW$T$93, DW_AT_decl_line(0x55)
    4960                            .dwattr $C$DW$T$93, DW_AT_decl_column(0x13)
    4961                    
    4962                    $C$DW$T$94      .dwtag  DW_TAG_typedef
    4963                            .dwattr $C$DW$T$94, DW_AT_name("int_fast16_t")
    4964                            .dwattr $C$DW$T$94, DW_AT_type(*$C$DW$T$93)
    4965                            .dwattr $C$DW$T$94, DW_AT_language(DW_LANG_C)
    4966                            .dwattr $C$DW$T$94, DW_AT_decl_file("/home/pola/ti/ccsv8/tools/compiler/ti-cgt-arm_18.1.1.LTS/
    4967                            .dwattr $C$DW$T$94, DW_AT_decl_line(0x33)
    4968                            .dwattr $C$DW$T$94, DW_AT_decl_column(0x19)
    4969                    
    4970                    $C$DW$T$95      .dwtag  DW_TAG_typedef
    4971                            .dwattr $C$DW$T$95, DW_AT_name("__int_fast32_t")
    4972                            .dwattr $C$DW$T$95, DW_AT_type(*$C$DW$T$89)
    4973                            .dwattr $C$DW$T$95, DW_AT_language(DW_LANG_C)
    4974                            .dwattr $C$DW$T$95, DW_AT_decl_file("/home/pola/ti/ccsv8/tools/compiler/ti-cgt-arm_18.1.1.LTS/
    4975                            .dwattr $C$DW$T$95, DW_AT_decl_line(0x56)
    4976                            .dwattr $C$DW$T$95, DW_AT_decl_column(0x13)
    4977                    
    4978                    $C$DW$T$96      .dwtag  DW_TAG_typedef
    4979                            .dwattr $C$DW$T$96, DW_AT_name("int_fast32_t")
    4980                            .dwattr $C$DW$T$96, DW_AT_type(*$C$DW$T$95)
    4981                            .dwattr $C$DW$T$96, DW_AT_language(DW_LANG_C)
    4982                            .dwattr $C$DW$T$96, DW_AT_decl_file("/home/pola/ti/ccsv8/tools/compiler/ti-cgt-arm_18.1.1.LTS/
    4983                            .dwattr $C$DW$T$96, DW_AT_decl_line(0x34)
    4984                            .dwattr $C$DW$T$96, DW_AT_decl_column(0x19)
    4985                    
    4986                    $C$DW$T$97      .dwtag  DW_TAG_typedef
    4987                            .dwattr $C$DW$T$97, DW_AT_name("__int_fast8_t")
    4988                            .dwattr $C$DW$T$97, DW_AT_type(*$C$DW$T$89)
    4989                            .dwattr $C$DW$T$97, DW_AT_language(DW_LANG_C)
    4990                            .dwattr $C$DW$T$97, DW_AT_decl_file("/home/pola/ti/ccsv8/tools/compiler/ti-cgt-arm_18.1.1.LTS/
    4991                            .dwattr $C$DW$T$97, DW_AT_decl_line(0x54)
    4992                            .dwattr $C$DW$T$97, DW_AT_decl_column(0x13)
    4993                    
    4994                    $C$DW$T$98      .dwtag  DW_TAG_typedef
    4995                            .dwattr $C$DW$T$98, DW_AT_name("int_fast8_t")
    4996                            .dwattr $C$DW$T$98, DW_AT_type(*$C$DW$T$97)
    4997                            .dwattr $C$DW$T$98, DW_AT_language(DW_LANG_C)
    4998                            .dwattr $C$DW$T$98, DW_AT_decl_file("/home/pola/ti/ccsv8/tools/compiler/ti-cgt-arm_18.1.1.LTS/
    4999                            .dwattr $C$DW$T$98, DW_AT_decl_line(0x32)
    5000                            .dwattr $C$DW$T$98, DW_AT_decl_column(0x18)
    5001                    
    5002                    $C$DW$T$99      .dwtag  DW_TAG_typedef
    5003                            .dwattr $C$DW$T$99, DW_AT_name("__int_least32_t")
    5004                            .dwattr $C$DW$T$99, DW_AT_type(*$C$DW$T$89)
TI ARM Assembler Unix v18.1.1 Fri Jul  3 20:08:25 2020

Tools Copyright (c) 1996-2017 Texas Instruments Incorporated
lcd.asm                                                              PAGE   92

    5005                            .dwattr $C$DW$T$99, DW_AT_language(DW_LANG_C)
    5006                            .dwattr $C$DW$T$99, DW_AT_decl_file("/home/pola/ti/ccsv8/tools/compiler/ti-cgt-arm_18.1.1.LTS/
    5007                            .dwattr $C$DW$T$99, DW_AT_decl_line(0x5a)
    5008                            .dwattr $C$DW$T$99, DW_AT_decl_column(0x13)
    5009                    
    5010                    $C$DW$T$100     .dwtag  DW_TAG_typedef
    5011                            .dwattr $C$DW$T$100, DW_AT_name("int_least32_t")
    5012                            .dwattr $C$DW$T$100, DW_AT_type(*$C$DW$T$99)
    5013                            .dwattr $C$DW$T$100, DW_AT_language(DW_LANG_C)
    5014                            .dwattr $C$DW$T$100, DW_AT_decl_file("/home/pola/ti/ccsv8/tools/compiler/ti-cgt-arm_18.1.1.LTS
    5015                            .dwattr $C$DW$T$100, DW_AT_decl_line(0x2a)
    5016                            .dwattr $C$DW$T$100, DW_AT_decl_column(0x1a)
    5017                    
    5018                    $C$DW$T$101     .dwtag  DW_TAG_typedef
    5019                            .dwattr $C$DW$T$101, DW_AT_name("__intfptr_t")
    5020                            .dwattr $C$DW$T$101, DW_AT_type(*$C$DW$T$89)
    5021                            .dwattr $C$DW$T$101, DW_AT_language(DW_LANG_C)
    5022                            .dwattr $C$DW$T$101, DW_AT_decl_file("/home/pola/ti/ccsv8/tools/compiler/ti-cgt-arm_18.1.1.LTS
    5023                            .dwattr $C$DW$T$101, DW_AT_decl_line(0x51)
    5024                            .dwattr $C$DW$T$101, DW_AT_decl_column(0x13)
    5025                    
    5026                    $C$DW$T$102     .dwtag  DW_TAG_typedef
    5027                            .dwattr $C$DW$T$102, DW_AT_name("__intptr_t")
    5028                            .dwattr $C$DW$T$102, DW_AT_type(*$C$DW$T$89)
    5029                            .dwattr $C$DW$T$102, DW_AT_language(DW_LANG_C)
    5030                            .dwattr $C$DW$T$102, DW_AT_decl_file("/home/pola/ti/ccsv8/tools/compiler/ti-cgt-arm_18.1.1.LTS
    5031                            .dwattr $C$DW$T$102, DW_AT_decl_line(0x53)
    5032                            .dwattr $C$DW$T$102, DW_AT_decl_column(0x13)
    5033                    
    5034                    $C$DW$T$103     .dwtag  DW_TAG_typedef
    5035                            .dwattr $C$DW$T$103, DW_AT_name("intptr_t")
    5036                            .dwattr $C$DW$T$103, DW_AT_type(*$C$DW$T$102)
    5037                            .dwattr $C$DW$T$103, DW_AT_language(DW_LANG_C)
    5038                            .dwattr $C$DW$T$103, DW_AT_decl_file("/home/pola/ti/ccsv8/tools/compiler/ti-cgt-arm_18.1.1.LTS
    5039                            .dwattr $C$DW$T$103, DW_AT_decl_line(0x4c)
    5040                            .dwattr $C$DW$T$103, DW_AT_decl_column(0x15)
    5041                    
    5042                    $C$DW$T$104     .dwtag  DW_TAG_typedef
    5043                            .dwattr $C$DW$T$104, DW_AT_name("__lwpid_t")
    5044                            .dwattr $C$DW$T$104, DW_AT_type(*$C$DW$T$89)
    5045                            .dwattr $C$DW$T$104, DW_AT_language(DW_LANG_C)
    5046                            .dwattr $C$DW$T$104, DW_AT_decl_file("/home/pola/ti/ccsv8/tools/compiler/ti-cgt-arm_18.1.1.LTS
    5047                            .dwattr $C$DW$T$104, DW_AT_decl_line(0x38)
    5048                            .dwattr $C$DW$T$104, DW_AT_decl_column(0x13)
    5049                    
    5050                    $C$DW$T$105     .dwtag  DW_TAG_typedef
    5051                            .dwattr $C$DW$T$105, DW_AT_name("__pid_t")
    5052                            .dwattr $C$DW$T$105, DW_AT_type(*$C$DW$T$89)
    5053                            .dwattr $C$DW$T$105, DW_AT_language(DW_LANG_C)
    5054                            .dwattr $C$DW$T$105, DW_AT_decl_file("/home/pola/ti/ccsv8/tools/compiler/ti-cgt-arm_18.1.1.LTS
    5055                            .dwattr $C$DW$T$105, DW_AT_decl_line(0x3f)
    5056                            .dwattr $C$DW$T$105, DW_AT_decl_column(0x13)
    5057                    
    5058                    $C$DW$T$106     .dwtag  DW_TAG_typedef
    5059                            .dwattr $C$DW$T$106, DW_AT_name("__ptrdiff_t")
TI ARM Assembler Unix v18.1.1 Fri Jul  3 20:08:25 2020

Tools Copyright (c) 1996-2017 Texas Instruments Incorporated
lcd.asm                                                              PAGE   93

    5060                            .dwattr $C$DW$T$106, DW_AT_type(*$C$DW$T$89)
    5061                            .dwattr $C$DW$T$106, DW_AT_language(DW_LANG_C)
    5062                            .dwattr $C$DW$T$106, DW_AT_decl_file("/home/pola/ti/ccsv8/tools/compiler/ti-cgt-arm_18.1.1.LTS
    5063                            .dwattr $C$DW$T$106, DW_AT_decl_line(0x5c)
    5064                            .dwattr $C$DW$T$106, DW_AT_decl_column(0x13)
    5065                    
    5066                    $C$DW$T$107     .dwtag  DW_TAG_typedef
    5067                            .dwattr $C$DW$T$107, DW_AT_name("__register_t")
    5068                            .dwattr $C$DW$T$107, DW_AT_type(*$C$DW$T$89)
    5069                            .dwattr $C$DW$T$107, DW_AT_language(DW_LANG_C)
    5070                            .dwattr $C$DW$T$107, DW_AT_decl_file("/home/pola/ti/ccsv8/tools/compiler/ti-cgt-arm_18.1.1.LTS
    5071                            .dwattr $C$DW$T$107, DW_AT_decl_line(0x5d)
    5072                            .dwattr $C$DW$T$107, DW_AT_decl_column(0x13)
    5073                    
    5074                    $C$DW$T$108     .dwtag  DW_TAG_typedef
    5075                            .dwattr $C$DW$T$108, DW_AT_name("__segsz_t")
    5076                            .dwattr $C$DW$T$108, DW_AT_type(*$C$DW$T$89)
    5077                            .dwattr $C$DW$T$108, DW_AT_language(DW_LANG_C)
    5078                            .dwattr $C$DW$T$108, DW_AT_decl_file("/home/pola/ti/ccsv8/tools/compiler/ti-cgt-arm_18.1.1.LTS
    5079                            .dwattr $C$DW$T$108, DW_AT_decl_line(0x5e)
    5080                            .dwattr $C$DW$T$108, DW_AT_decl_column(0x13)
    5081                    
    5082                    $C$DW$T$109     .dwtag  DW_TAG_typedef
    5083                            .dwattr $C$DW$T$109, DW_AT_name("__ssize_t")
    5084                            .dwattr $C$DW$T$109, DW_AT_type(*$C$DW$T$89)
    5085                            .dwattr $C$DW$T$109, DW_AT_language(DW_LANG_C)
    5086                            .dwattr $C$DW$T$109, DW_AT_decl_file("/home/pola/ti/ccsv8/tools/compiler/ti-cgt-arm_18.1.1.LTS
    5087                            .dwattr $C$DW$T$109, DW_AT_decl_line(0x60)
    5088                            .dwattr $C$DW$T$109, DW_AT_decl_column(0x13)
    5089                    
    5090                    $C$DW$T$110     .dwtag  DW_TAG_typedef
    5091                            .dwattr $C$DW$T$110, DW_AT_name("int32_t")
    5092                            .dwattr $C$DW$T$110, DW_AT_type(*$C$DW$T$89)
    5093                            .dwattr $C$DW$T$110, DW_AT_language(DW_LANG_C)
    5094                            .dwattr $C$DW$T$110, DW_AT_decl_file("/home/pola/ti/ccsv8/tools/compiler/ti-cgt-arm_18.1.1.LTS
    5095                            .dwattr $C$DW$T$110, DW_AT_decl_line(0x2e)
    5096                            .dwattr $C$DW$T$110, DW_AT_decl_column(0x14)
    5097                    
    5098                    $C$DW$T$111     .dwtag  DW_TAG_typedef
    5099                            .dwattr $C$DW$T$111, DW_AT_name("__nl_item")
    5100                            .dwattr $C$DW$T$111, DW_AT_type(*$C$DW$T$10)
    5101                            .dwattr $C$DW$T$111, DW_AT_language(DW_LANG_C)
    5102                            .dwattr $C$DW$T$111, DW_AT_decl_file("/home/pola/ti/ccsv8/tools/compiler/ti-cgt-arm_18.1.1.LTS
    5103                            .dwattr $C$DW$T$111, DW_AT_decl_line(0x3b)
    5104                            .dwattr $C$DW$T$111, DW_AT_decl_column(0x0e)
    5105                    
    5106                    $C$DW$T$11      .dwtag  DW_TAG_base_type
    5107                            .dwattr $C$DW$T$11, DW_AT_encoding(DW_ATE_unsigned)
    5108                            .dwattr $C$DW$T$11, DW_AT_name("unsigned int")
    5109                            .dwattr $C$DW$T$11, DW_AT_byte_size(0x04)
    5110                    
    5111                    $C$DW$T$24      .dwtag  DW_TAG_typedef
    5112                            .dwattr $C$DW$T$24, DW_AT_name("__uint32_t")
    5113                            .dwattr $C$DW$T$24, DW_AT_type(*$C$DW$T$11)
    5114                            .dwattr $C$DW$T$24, DW_AT_language(DW_LANG_C)
TI ARM Assembler Unix v18.1.1 Fri Jul  3 20:08:25 2020

Tools Copyright (c) 1996-2017 Texas Instruments Incorporated
lcd.asm                                                              PAGE   94

    5115                            .dwattr $C$DW$T$24, DW_AT_decl_file("/home/pola/ti/ccsv8/tools/compiler/ti-cgt-arm_18.1.1.LTS/
    5116                            .dwattr $C$DW$T$24, DW_AT_decl_line(0x3e)
    5117                            .dwattr $C$DW$T$24, DW_AT_decl_column(0x17)
    5118                    
    5119                    $C$DW$T$112     .dwtag  DW_TAG_typedef
    5120                            .dwattr $C$DW$T$112, DW_AT_name("__clock_t")
    5121                            .dwattr $C$DW$T$112, DW_AT_type(*$C$DW$T$24)
    5122                            .dwattr $C$DW$T$112, DW_AT_language(DW_LANG_C)
    5123                            .dwattr $C$DW$T$112, DW_AT_decl_file("/home/pola/ti/ccsv8/tools/compiler/ti-cgt-arm_18.1.1.LTS
    5124                            .dwattr $C$DW$T$112, DW_AT_decl_line(0x4d)
    5125                            .dwattr $C$DW$T$112, DW_AT_decl_column(0x14)
    5126                    
    5127                    $C$DW$T$113     .dwtag  DW_TAG_typedef
    5128                            .dwattr $C$DW$T$113, DW_AT_name("__fflags_t")
    5129                            .dwattr $C$DW$T$113, DW_AT_type(*$C$DW$T$24)
    5130                            .dwattr $C$DW$T$113, DW_AT_language(DW_LANG_C)
    5131                            .dwattr $C$DW$T$113, DW_AT_decl_file("/home/pola/ti/ccsv8/tools/compiler/ti-cgt-arm_18.1.1.LTS
    5132                            .dwattr $C$DW$T$113, DW_AT_decl_line(0x31)
    5133                            .dwattr $C$DW$T$113, DW_AT_decl_column(0x14)
    5134                    
    5135                    $C$DW$T$114     .dwtag  DW_TAG_typedef
    5136                            .dwattr $C$DW$T$114, DW_AT_name("__fixpt_t")
    5137                            .dwattr $C$DW$T$114, DW_AT_type(*$C$DW$T$24)
    5138                            .dwattr $C$DW$T$114, DW_AT_language(DW_LANG_C)
    5139                            .dwattr $C$DW$T$114, DW_AT_decl_file("/home/pola/ti/ccsv8/tools/compiler/ti-cgt-arm_18.1.1.LTS
    5140                            .dwattr $C$DW$T$114, DW_AT_decl_line(0x76)
    5141                            .dwattr $C$DW$T$114, DW_AT_decl_column(0x14)
    5142                    
    5143                    $C$DW$T$115     .dwtag  DW_TAG_typedef
    5144                            .dwattr $C$DW$T$115, DW_AT_name("__gid_t")
    5145                            .dwattr $C$DW$T$115, DW_AT_type(*$C$DW$T$24)
    5146                            .dwattr $C$DW$T$115, DW_AT_language(DW_LANG_C)
    5147                            .dwattr $C$DW$T$115, DW_AT_decl_file("/home/pola/ti/ccsv8/tools/compiler/ti-cgt-arm_18.1.1.LTS
    5148                            .dwattr $C$DW$T$115, DW_AT_decl_line(0x34)
    5149                            .dwattr $C$DW$T$115, DW_AT_decl_column(0x14)
    5150                    
    5151                    $C$DW$T$116     .dwtag  DW_TAG_typedef
    5152                            .dwattr $C$DW$T$116, DW_AT_name("__size_t")
    5153                            .dwattr $C$DW$T$116, DW_AT_type(*$C$DW$T$24)
    5154                            .dwattr $C$DW$T$116, DW_AT_language(DW_LANG_C)
    5155                            .dwattr $C$DW$T$116, DW_AT_decl_file("/home/pola/ti/ccsv8/tools/compiler/ti-cgt-arm_18.1.1.LTS
    5156                            .dwattr $C$DW$T$116, DW_AT_decl_line(0x5f)
    5157                            .dwattr $C$DW$T$116, DW_AT_decl_column(0x14)
    5158                    
    5159                    $C$DW$T$117     .dwtag  DW_TAG_typedef
    5160                            .dwattr $C$DW$T$117, DW_AT_name("__socklen_t")
    5161                            .dwattr $C$DW$T$117, DW_AT_type(*$C$DW$T$24)
    5162                            .dwattr $C$DW$T$117, DW_AT_language(DW_LANG_C)
    5163                            .dwattr $C$DW$T$117, DW_AT_decl_file("/home/pola/ti/ccsv8/tools/compiler/ti-cgt-arm_18.1.1.LTS
    5164                            .dwattr $C$DW$T$117, DW_AT_decl_line(0x44)
    5165                            .dwattr $C$DW$T$117, DW_AT_decl_column(0x14)
    5166                    
    5167                    $C$DW$T$118     .dwtag  DW_TAG_typedef
    5168                            .dwattr $C$DW$T$118, DW_AT_name("__time_t")
    5169                            .dwattr $C$DW$T$118, DW_AT_type(*$C$DW$T$24)
TI ARM Assembler Unix v18.1.1 Fri Jul  3 20:08:25 2020

Tools Copyright (c) 1996-2017 Texas Instruments Incorporated
lcd.asm                                                              PAGE   95

    5170                            .dwattr $C$DW$T$118, DW_AT_language(DW_LANG_C)
    5171                            .dwattr $C$DW$T$118, DW_AT_decl_file("/home/pola/ti/ccsv8/tools/compiler/ti-cgt-arm_18.1.1.LTS
    5172                            .dwattr $C$DW$T$118, DW_AT_decl_line(0x64)
    5173                            .dwattr $C$DW$T$118, DW_AT_decl_column(0x19)
    5174                    
    5175                    $C$DW$T$119     .dwtag  DW_TAG_typedef
    5176                            .dwattr $C$DW$T$119, DW_AT_name("__u_register_t")
    5177                            .dwattr $C$DW$T$119, DW_AT_type(*$C$DW$T$24)
    5178                            .dwattr $C$DW$T$119, DW_AT_language(DW_LANG_C)
    5179                            .dwattr $C$DW$T$119, DW_AT_decl_file("/home/pola/ti/ccsv8/tools/compiler/ti-cgt-arm_18.1.1.LTS
    5180                            .dwattr $C$DW$T$119, DW_AT_decl_line(0x71)
    5181                            .dwattr $C$DW$T$119, DW_AT_decl_column(0x14)
    5182                    
    5183                    $C$DW$T$120     .dwtag  DW_TAG_typedef
    5184                            .dwattr $C$DW$T$120, DW_AT_name("__uid_t")
    5185                            .dwattr $C$DW$T$120, DW_AT_type(*$C$DW$T$24)
    5186                            .dwattr $C$DW$T$120, DW_AT_language(DW_LANG_C)
    5187                            .dwattr $C$DW$T$120, DW_AT_decl_file("/home/pola/ti/ccsv8/tools/compiler/ti-cgt-arm_18.1.1.LTS
    5188                            .dwattr $C$DW$T$120, DW_AT_decl_line(0x48)
    5189                            .dwattr $C$DW$T$120, DW_AT_decl_column(0x14)
    5190                    
    5191                    $C$DW$T$121     .dwtag  DW_TAG_typedef
    5192                            .dwattr $C$DW$T$121, DW_AT_name("__uint_fast16_t")
    5193                            .dwattr $C$DW$T$121, DW_AT_type(*$C$DW$T$24)
    5194                            .dwattr $C$DW$T$121, DW_AT_language(DW_LANG_C)
    5195                            .dwattr $C$DW$T$121, DW_AT_decl_file("/home/pola/ti/ccsv8/tools/compiler/ti-cgt-arm_18.1.1.LTS
    5196                            .dwattr $C$DW$T$121, DW_AT_decl_line(0x6a)
    5197                            .dwattr $C$DW$T$121, DW_AT_decl_column(0x14)
    5198                    
    5199                    $C$DW$T$122     .dwtag  DW_TAG_typedef
    5200                            .dwattr $C$DW$T$122, DW_AT_name("uint_fast16_t")
    5201                            .dwattr $C$DW$T$122, DW_AT_type(*$C$DW$T$121)
    5202                            .dwattr $C$DW$T$122, DW_AT_language(DW_LANG_C)
    5203                            .dwattr $C$DW$T$122, DW_AT_decl_file("/home/pola/ti/ccsv8/tools/compiler/ti-cgt-arm_18.1.1.LTS
    5204                            .dwattr $C$DW$T$122, DW_AT_decl_line(0x38)
    5205                            .dwattr $C$DW$T$122, DW_AT_decl_column(0x1a)
    5206                    
    5207                    $C$DW$T$123     .dwtag  DW_TAG_typedef
    5208                            .dwattr $C$DW$T$123, DW_AT_name("__uint_fast32_t")
    5209                            .dwattr $C$DW$T$123, DW_AT_type(*$C$DW$T$24)
    5210                            .dwattr $C$DW$T$123, DW_AT_language(DW_LANG_C)
    5211                            .dwattr $C$DW$T$123, DW_AT_decl_file("/home/pola/ti/ccsv8/tools/compiler/ti-cgt-arm_18.1.1.LTS
    5212                            .dwattr $C$DW$T$123, DW_AT_decl_line(0x6b)
    5213                            .dwattr $C$DW$T$123, DW_AT_decl_column(0x14)
    5214                    
    5215                    $C$DW$T$124     .dwtag  DW_TAG_typedef
    5216                            .dwattr $C$DW$T$124, DW_AT_name("uint_fast32_t")
    5217                            .dwattr $C$DW$T$124, DW_AT_type(*$C$DW$T$123)
    5218                            .dwattr $C$DW$T$124, DW_AT_language(DW_LANG_C)
    5219                            .dwattr $C$DW$T$124, DW_AT_decl_file("/home/pola/ti/ccsv8/tools/compiler/ti-cgt-arm_18.1.1.LTS
    5220                            .dwattr $C$DW$T$124, DW_AT_decl_line(0x39)
    5221                            .dwattr $C$DW$T$124, DW_AT_decl_column(0x1a)
    5222                    
    5223                    $C$DW$T$125     .dwtag  DW_TAG_typedef
    5224                            .dwattr $C$DW$T$125, DW_AT_name("__uint_fast8_t")
TI ARM Assembler Unix v18.1.1 Fri Jul  3 20:08:25 2020

Tools Copyright (c) 1996-2017 Texas Instruments Incorporated
lcd.asm                                                              PAGE   96

    5225                            .dwattr $C$DW$T$125, DW_AT_type(*$C$DW$T$24)
    5226                            .dwattr $C$DW$T$125, DW_AT_language(DW_LANG_C)
    5227                            .dwattr $C$DW$T$125, DW_AT_decl_file("/home/pola/ti/ccsv8/tools/compiler/ti-cgt-arm_18.1.1.LTS
    5228                            .dwattr $C$DW$T$125, DW_AT_decl_line(0x69)
    5229                            .dwattr $C$DW$T$125, DW_AT_decl_column(0x14)
    5230                    
    5231                    $C$DW$T$126     .dwtag  DW_TAG_typedef
    5232                            .dwattr $C$DW$T$126, DW_AT_name("uint_fast8_t")
    5233                            .dwattr $C$DW$T$126, DW_AT_type(*$C$DW$T$125)
    5234                            .dwattr $C$DW$T$126, DW_AT_language(DW_LANG_C)
    5235                            .dwattr $C$DW$T$126, DW_AT_decl_file("/home/pola/ti/ccsv8/tools/compiler/ti-cgt-arm_18.1.1.LTS
    5236                            .dwattr $C$DW$T$126, DW_AT_decl_line(0x37)
    5237                            .dwattr $C$DW$T$126, DW_AT_decl_column(0x19)
    5238                    
    5239                    $C$DW$T$127     .dwtag  DW_TAG_typedef
    5240                            .dwattr $C$DW$T$127, DW_AT_name("__uint_least32_t")
    5241                            .dwattr $C$DW$T$127, DW_AT_type(*$C$DW$T$24)
    5242                            .dwattr $C$DW$T$127, DW_AT_language(DW_LANG_C)
    5243                            .dwattr $C$DW$T$127, DW_AT_decl_file("/home/pola/ti/ccsv8/tools/compiler/ti-cgt-arm_18.1.1.LTS
    5244                            .dwattr $C$DW$T$127, DW_AT_decl_line(0x6f)
    5245                            .dwattr $C$DW$T$127, DW_AT_decl_column(0x14)
    5246                    
    5247                    $C$DW$T$128     .dwtag  DW_TAG_typedef
    5248                            .dwattr $C$DW$T$128, DW_AT_name("__char32_t")
    5249                            .dwattr $C$DW$T$128, DW_AT_type(*$C$DW$T$127)
    5250                            .dwattr $C$DW$T$128, DW_AT_language(DW_LANG_C)
    5251                            .dwattr $C$DW$T$128, DW_AT_decl_file("/home/pola/ti/ccsv8/tools/compiler/ti-cgt-arm_18.1.1.LTS
    5252                            .dwattr $C$DW$T$128, DW_AT_decl_line(0x67)
    5253                            .dwattr $C$DW$T$128, DW_AT_decl_column(0x1a)
    5254                    
    5255                    $C$DW$T$129     .dwtag  DW_TAG_typedef
    5256                            .dwattr $C$DW$T$129, DW_AT_name("uint_least32_t")
    5257                            .dwattr $C$DW$T$129, DW_AT_type(*$C$DW$T$127)
    5258                            .dwattr $C$DW$T$129, DW_AT_language(DW_LANG_C)
    5259                            .dwattr $C$DW$T$129, DW_AT_decl_file("/home/pola/ti/ccsv8/tools/compiler/ti-cgt-arm_18.1.1.LTS
    5260                            .dwattr $C$DW$T$129, DW_AT_decl_line(0x2f)
    5261                            .dwattr $C$DW$T$129, DW_AT_decl_column(0x1a)
    5262                    
    5263                    $C$DW$T$130     .dwtag  DW_TAG_typedef
    5264                            .dwattr $C$DW$T$130, DW_AT_name("__uintfptr_t")
    5265                            .dwattr $C$DW$T$130, DW_AT_type(*$C$DW$T$24)
    5266                            .dwattr $C$DW$T$130, DW_AT_language(DW_LANG_C)
    5267                            .dwattr $C$DW$T$130, DW_AT_decl_file("/home/pola/ti/ccsv8/tools/compiler/ti-cgt-arm_18.1.1.LTS
    5268                            .dwattr $C$DW$T$130, DW_AT_decl_line(0x66)
    5269                            .dwattr $C$DW$T$130, DW_AT_decl_column(0x14)
    5270                    
    5271                    $C$DW$T$131     .dwtag  DW_TAG_typedef
    5272                            .dwattr $C$DW$T$131, DW_AT_name("__uintptr_t")
    5273                            .dwattr $C$DW$T$131, DW_AT_type(*$C$DW$T$24)
    5274                            .dwattr $C$DW$T$131, DW_AT_language(DW_LANG_C)
    5275                            .dwattr $C$DW$T$131, DW_AT_decl_file("/home/pola/ti/ccsv8/tools/compiler/ti-cgt-arm_18.1.1.LTS
    5276                            .dwattr $C$DW$T$131, DW_AT_decl_line(0x68)
    5277                            .dwattr $C$DW$T$131, DW_AT_decl_column(0x14)
    5278                    
    5279                    $C$DW$T$132     .dwtag  DW_TAG_typedef
TI ARM Assembler Unix v18.1.1 Fri Jul  3 20:08:25 2020

Tools Copyright (c) 1996-2017 Texas Instruments Incorporated
lcd.asm                                                              PAGE   97

    5280                            .dwattr $C$DW$T$132, DW_AT_name("uintptr_t")
    5281                            .dwattr $C$DW$T$132, DW_AT_type(*$C$DW$T$131)
    5282                            .dwattr $C$DW$T$132, DW_AT_language(DW_LANG_C)
    5283                            .dwattr $C$DW$T$132, DW_AT_decl_file("/home/pola/ti/ccsv8/tools/compiler/ti-cgt-arm_18.1.1.LTS
    5284                            .dwattr $C$DW$T$132, DW_AT_decl_line(0x50)
    5285                            .dwattr $C$DW$T$132, DW_AT_decl_column(0x16)
    5286                    
    5287                    $C$DW$T$133     .dwtag  DW_TAG_typedef
    5288                            .dwattr $C$DW$T$133, DW_AT_name("__vm_offset_t")
    5289                            .dwattr $C$DW$T$133, DW_AT_type(*$C$DW$T$24)
    5290                            .dwattr $C$DW$T$133, DW_AT_language(DW_LANG_C)
    5291                            .dwattr $C$DW$T$133, DW_AT_decl_file("/home/pola/ti/ccsv8/tools/compiler/ti-cgt-arm_18.1.1.LTS
    5292                            .dwattr $C$DW$T$133, DW_AT_decl_line(0x72)
    5293                            .dwattr $C$DW$T$133, DW_AT_decl_column(0x14)
    5294                    
    5295                    $C$DW$T$134     .dwtag  DW_TAG_typedef
    5296                            .dwattr $C$DW$T$134, DW_AT_name("__vm_paddr_t")
    5297                            .dwattr $C$DW$T$134, DW_AT_type(*$C$DW$T$24)
    5298                            .dwattr $C$DW$T$134, DW_AT_language(DW_LANG_C)
    5299                            .dwattr $C$DW$T$134, DW_AT_decl_file("/home/pola/ti/ccsv8/tools/compiler/ti-cgt-arm_18.1.1.LTS
    5300                            .dwattr $C$DW$T$134, DW_AT_decl_line(0x73)
    5301                            .dwattr $C$DW$T$134, DW_AT_decl_column(0x14)
    5302                    
    5303                    $C$DW$T$135     .dwtag  DW_TAG_typedef
    5304                            .dwattr $C$DW$T$135, DW_AT_name("__vm_size_t")
    5305                            .dwattr $C$DW$T$135, DW_AT_type(*$C$DW$T$24)
    5306                            .dwattr $C$DW$T$135, DW_AT_language(DW_LANG_C)
    5307                            .dwattr $C$DW$T$135, DW_AT_decl_file("/home/pola/ti/ccsv8/tools/compiler/ti-cgt-arm_18.1.1.LTS
    5308                            .dwattr $C$DW$T$135, DW_AT_decl_line(0x74)
    5309                            .dwattr $C$DW$T$135, DW_AT_decl_column(0x14)
    5310                    
    5311                    $C$DW$T$25      .dwtag  DW_TAG_typedef
    5312                            .dwattr $C$DW$T$25, DW_AT_name("uint32_t")
    5313                            .dwattr $C$DW$T$25, DW_AT_type(*$C$DW$T$24)
    5314                            .dwattr $C$DW$T$25, DW_AT_language(DW_LANG_C)
    5315                            .dwattr $C$DW$T$25, DW_AT_decl_file("/home/pola/ti/ccsv8/tools/compiler/ti-cgt-arm_18.1.1.LTS/
    5316                            .dwattr $C$DW$T$25, DW_AT_decl_line(0x42)
    5317                            .dwattr $C$DW$T$25, DW_AT_decl_column(0x15)
    5318                    
    5319                    $C$DW$T$56      .dwtag  DW_TAG_pointer_type
    5320                            .dwattr $C$DW$T$56, DW_AT_type(*$C$DW$T$25)
    5321                            .dwattr $C$DW$T$56, DW_AT_address_class(0x20)
    5322                    
    5323                    $C$DW$T$49      .dwtag  DW_TAG_const_type
    5324                            .dwattr $C$DW$T$49, DW_AT_type(*$C$DW$T$25)
    5325                    
    5326                    $C$DW$T$50      .dwtag  DW_TAG_pointer_type
    5327                            .dwattr $C$DW$T$50, DW_AT_type(*$C$DW$T$49)
    5328                            .dwattr $C$DW$T$50, DW_AT_address_class(0x20)
    5329                    
    5330                    $C$DW$T$141     .dwtag  DW_TAG_typedef
    5331                            .dwattr $C$DW$T$141, DW_AT_name("__useconds_t")
    5332                            .dwattr $C$DW$T$141, DW_AT_type(*$C$DW$T$11)
    5333                            .dwattr $C$DW$T$141, DW_AT_language(DW_LANG_C)
    5334                            .dwattr $C$DW$T$141, DW_AT_decl_file("/home/pola/ti/ccsv8/tools/compiler/ti-cgt-arm_18.1.1.LTS
TI ARM Assembler Unix v18.1.1 Fri Jul  3 20:08:25 2020

Tools Copyright (c) 1996-2017 Texas Instruments Incorporated
lcd.asm                                                              PAGE   98

    5335                            .dwattr $C$DW$T$141, DW_AT_decl_line(0x49)
    5336                            .dwattr $C$DW$T$141, DW_AT_decl_column(0x16)
    5337                    
    5338                    $C$DW$T$12      .dwtag  DW_TAG_base_type
    5339                            .dwattr $C$DW$T$12, DW_AT_encoding(DW_ATE_signed)
    5340                            .dwattr $C$DW$T$12, DW_AT_name("long")
    5341                            .dwattr $C$DW$T$12, DW_AT_byte_size(0x04)
    5342                    
    5343                    $C$DW$T$142     .dwtag  DW_TAG_typedef
    5344                            .dwattr $C$DW$T$142, DW_AT_name("__key_t")
    5345                            .dwattr $C$DW$T$142, DW_AT_type(*$C$DW$T$12)
    5346                            .dwattr $C$DW$T$142, DW_AT_language(DW_LANG_C)
    5347                            .dwattr $C$DW$T$142, DW_AT_decl_file("/home/pola/ti/ccsv8/tools/compiler/ti-cgt-arm_18.1.1.LTS
    5348                            .dwattr $C$DW$T$142, DW_AT_decl_line(0x37)
    5349                            .dwattr $C$DW$T$142, DW_AT_decl_column(0x0f)
    5350                    
    5351                    $C$DW$T$143     .dwtag  DW_TAG_typedef
    5352                            .dwattr $C$DW$T$143, DW_AT_name("__suseconds_t")
    5353                            .dwattr $C$DW$T$143, DW_AT_type(*$C$DW$T$12)
    5354                            .dwattr $C$DW$T$143, DW_AT_language(DW_LANG_C)
    5355                            .dwattr $C$DW$T$143, DW_AT_decl_file("/home/pola/ti/ccsv8/tools/compiler/ti-cgt-arm_18.1.1.LTS
    5356                            .dwattr $C$DW$T$143, DW_AT_decl_line(0x45)
    5357                            .dwattr $C$DW$T$143, DW_AT_decl_column(0x0f)
    5358                    
    5359                    $C$DW$T$13      .dwtag  DW_TAG_base_type
    5360                            .dwattr $C$DW$T$13, DW_AT_encoding(DW_ATE_unsigned)
    5361                            .dwattr $C$DW$T$13, DW_AT_name("unsigned long")
    5362                            .dwattr $C$DW$T$13, DW_AT_byte_size(0x04)
    5363                    
    5364                    $C$DW$T$14      .dwtag  DW_TAG_base_type
    5365                            .dwattr $C$DW$T$14, DW_AT_encoding(DW_ATE_signed)
    5366                            .dwattr $C$DW$T$14, DW_AT_name("long long")
    5367                            .dwattr $C$DW$T$14, DW_AT_byte_size(0x08)
    5368                    
    5369                    $C$DW$T$144     .dwtag  DW_TAG_typedef
    5370                            .dwattr $C$DW$T$144, DW_AT_name("__int64_t")
    5371                            .dwattr $C$DW$T$144, DW_AT_type(*$C$DW$T$14)
    5372                            .dwattr $C$DW$T$144, DW_AT_language(DW_LANG_C)
    5373                            .dwattr $C$DW$T$144, DW_AT_decl_file("/home/pola/ti/ccsv8/tools/compiler/ti-cgt-arm_18.1.1.LTS
    5374                            .dwattr $C$DW$T$144, DW_AT_decl_line(0x43)
    5375                            .dwattr $C$DW$T$144, DW_AT_decl_column(0x14)
    5376                    
    5377                    $C$DW$T$145     .dwtag  DW_TAG_typedef
    5378                            .dwattr $C$DW$T$145, DW_AT_name("__blkcnt_t")
    5379                            .dwattr $C$DW$T$145, DW_AT_type(*$C$DW$T$144)
    5380                            .dwattr $C$DW$T$145, DW_AT_language(DW_LANG_C)
    5381                            .dwattr $C$DW$T$145, DW_AT_decl_file("/home/pola/ti/ccsv8/tools/compiler/ti-cgt-arm_18.1.1.LTS
    5382                            .dwattr $C$DW$T$145, DW_AT_decl_line(0x2f)
    5383                            .dwattr $C$DW$T$145, DW_AT_decl_column(0x13)
    5384                    
    5385                    $C$DW$T$146     .dwtag  DW_TAG_typedef
    5386                            .dwattr $C$DW$T$146, DW_AT_name("__id_t")
    5387                            .dwattr $C$DW$T$146, DW_AT_type(*$C$DW$T$144)
    5388                            .dwattr $C$DW$T$146, DW_AT_language(DW_LANG_C)
    5389                            .dwattr $C$DW$T$146, DW_AT_decl_file("/home/pola/ti/ccsv8/tools/compiler/ti-cgt-arm_18.1.1.LTS
TI ARM Assembler Unix v18.1.1 Fri Jul  3 20:08:25 2020

Tools Copyright (c) 1996-2017 Texas Instruments Incorporated
lcd.asm                                                              PAGE   99

    5390                            .dwattr $C$DW$T$146, DW_AT_decl_line(0x35)
    5391                            .dwattr $C$DW$T$146, DW_AT_decl_column(0x13)
    5392                    
    5393                    $C$DW$T$147     .dwtag  DW_TAG_typedef
    5394                            .dwattr $C$DW$T$147, DW_AT_name("__int_fast64_t")
    5395                            .dwattr $C$DW$T$147, DW_AT_type(*$C$DW$T$144)
    5396                            .dwattr $C$DW$T$147, DW_AT_language(DW_LANG_C)
    5397                            .dwattr $C$DW$T$147, DW_AT_decl_file("/home/pola/ti/ccsv8/tools/compiler/ti-cgt-arm_18.1.1.LTS
    5398                            .dwattr $C$DW$T$147, DW_AT_decl_line(0x57)
    5399                            .dwattr $C$DW$T$147, DW_AT_decl_column(0x13)
    5400                    
    5401                    $C$DW$T$148     .dwtag  DW_TAG_typedef
    5402                            .dwattr $C$DW$T$148, DW_AT_name("int_fast64_t")
    5403                            .dwattr $C$DW$T$148, DW_AT_type(*$C$DW$T$147)
    5404                            .dwattr $C$DW$T$148, DW_AT_language(DW_LANG_C)
    5405                            .dwattr $C$DW$T$148, DW_AT_decl_file("/home/pola/ti/ccsv8/tools/compiler/ti-cgt-arm_18.1.1.LTS
    5406                            .dwattr $C$DW$T$148, DW_AT_decl_line(0x35)
    5407                            .dwattr $C$DW$T$148, DW_AT_decl_column(0x19)
    5408                    
    5409                    $C$DW$T$149     .dwtag  DW_TAG_typedef
    5410                            .dwattr $C$DW$T$149, DW_AT_name("__int_least64_t")
    5411                            .dwattr $C$DW$T$149, DW_AT_type(*$C$DW$T$144)
    5412                            .dwattr $C$DW$T$149, DW_AT_language(DW_LANG_C)
    5413                            .dwattr $C$DW$T$149, DW_AT_decl_file("/home/pola/ti/ccsv8/tools/compiler/ti-cgt-arm_18.1.1.LTS
    5414                            .dwattr $C$DW$T$149, DW_AT_decl_line(0x5b)
    5415                            .dwattr $C$DW$T$149, DW_AT_decl_column(0x13)
    5416                    
    5417                    $C$DW$T$150     .dwtag  DW_TAG_typedef
    5418                            .dwattr $C$DW$T$150, DW_AT_name("int_least64_t")
    5419                            .dwattr $C$DW$T$150, DW_AT_type(*$C$DW$T$149)
    5420                            .dwattr $C$DW$T$150, DW_AT_language(DW_LANG_C)
    5421                            .dwattr $C$DW$T$150, DW_AT_decl_file("/home/pola/ti/ccsv8/tools/compiler/ti-cgt-arm_18.1.1.LTS
    5422                            .dwattr $C$DW$T$150, DW_AT_decl_line(0x2b)
    5423                            .dwattr $C$DW$T$150, DW_AT_decl_column(0x1a)
    5424                    
    5425                    $C$DW$T$151     .dwtag  DW_TAG_typedef
    5426                            .dwattr $C$DW$T$151, DW_AT_name("__intmax_t")
    5427                            .dwattr $C$DW$T$151, DW_AT_type(*$C$DW$T$144)
    5428                            .dwattr $C$DW$T$151, DW_AT_language(DW_LANG_C)
    5429                            .dwattr $C$DW$T$151, DW_AT_decl_file("/home/pola/ti/ccsv8/tools/compiler/ti-cgt-arm_18.1.1.LTS
    5430                            .dwattr $C$DW$T$151, DW_AT_decl_line(0x52)
    5431                            .dwattr $C$DW$T$151, DW_AT_decl_column(0x13)
    5432                    
    5433                    $C$DW$T$152     .dwtag  DW_TAG_typedef
    5434                            .dwattr $C$DW$T$152, DW_AT_name("intmax_t")
    5435                            .dwattr $C$DW$T$152, DW_AT_type(*$C$DW$T$151)
    5436                            .dwattr $C$DW$T$152, DW_AT_language(DW_LANG_C)
    5437                            .dwattr $C$DW$T$152, DW_AT_decl_file("/home/pola/ti/ccsv8/tools/compiler/ti-cgt-arm_18.1.1.LTS
    5438                            .dwattr $C$DW$T$152, DW_AT_decl_line(0x54)
    5439                            .dwattr $C$DW$T$152, DW_AT_decl_column(0x15)
    5440                    
    5441                    $C$DW$T$153     .dwtag  DW_TAG_typedef
    5442                            .dwattr $C$DW$T$153, DW_AT_name("__off64_t")
    5443                            .dwattr $C$DW$T$153, DW_AT_type(*$C$DW$T$144)
    5444                            .dwattr $C$DW$T$153, DW_AT_language(DW_LANG_C)
TI ARM Assembler Unix v18.1.1 Fri Jul  3 20:08:25 2020

Tools Copyright (c) 1996-2017 Texas Instruments Incorporated
lcd.asm                                                              PAGE  100

    5445                            .dwattr $C$DW$T$153, DW_AT_decl_file("/home/pola/ti/ccsv8/tools/compiler/ti-cgt-arm_18.1.1.LTS
    5446                            .dwattr $C$DW$T$153, DW_AT_decl_line(0x3e)
    5447                            .dwattr $C$DW$T$153, DW_AT_decl_column(0x13)
    5448                    
    5449                    $C$DW$T$154     .dwtag  DW_TAG_typedef
    5450                            .dwattr $C$DW$T$154, DW_AT_name("__off_t")
    5451                            .dwattr $C$DW$T$154, DW_AT_type(*$C$DW$T$144)
    5452                            .dwattr $C$DW$T$154, DW_AT_language(DW_LANG_C)
    5453                            .dwattr $C$DW$T$154, DW_AT_decl_file("/home/pola/ti/ccsv8/tools/compiler/ti-cgt-arm_18.1.1.LTS
    5454                            .dwattr $C$DW$T$154, DW_AT_decl_line(0x3d)
    5455                            .dwattr $C$DW$T$154, DW_AT_decl_column(0x13)
    5456                    
    5457                    $C$DW$T$155     .dwtag  DW_TAG_typedef
    5458                            .dwattr $C$DW$T$155, DW_AT_name("__rlim_t")
    5459                            .dwattr $C$DW$T$155, DW_AT_type(*$C$DW$T$144)
    5460                            .dwattr $C$DW$T$155, DW_AT_language(DW_LANG_C)
    5461                            .dwattr $C$DW$T$155, DW_AT_decl_file("/home/pola/ti/ccsv8/tools/compiler/ti-cgt-arm_18.1.1.LTS
    5462                            .dwattr $C$DW$T$155, DW_AT_decl_line(0x40)
    5463                            .dwattr $C$DW$T$155, DW_AT_decl_column(0x13)
    5464                    
    5465                    $C$DW$T$156     .dwtag  DW_TAG_typedef
    5466                            .dwattr $C$DW$T$156, DW_AT_name("int64_t")
    5467                            .dwattr $C$DW$T$156, DW_AT_type(*$C$DW$T$144)
    5468                            .dwattr $C$DW$T$156, DW_AT_language(DW_LANG_C)
    5469                            .dwattr $C$DW$T$156, DW_AT_decl_file("/home/pola/ti/ccsv8/tools/compiler/ti-cgt-arm_18.1.1.LTS
    5470                            .dwattr $C$DW$T$156, DW_AT_decl_line(0x33)
    5471                            .dwattr $C$DW$T$156, DW_AT_decl_column(0x14)
    5472                    
    5473                    $C$DW$T$15      .dwtag  DW_TAG_base_type
    5474                            .dwattr $C$DW$T$15, DW_AT_encoding(DW_ATE_unsigned)
    5475                            .dwattr $C$DW$T$15, DW_AT_name("unsigned long long")
    5476                            .dwattr $C$DW$T$15, DW_AT_byte_size(0x08)
    5477                    
    5478                    $C$DW$T$157     .dwtag  DW_TAG_typedef
    5479                            .dwattr $C$DW$T$157, DW_AT_name("__uint64_t")
    5480                            .dwattr $C$DW$T$157, DW_AT_type(*$C$DW$T$15)
    5481                            .dwattr $C$DW$T$157, DW_AT_language(DW_LANG_C)
    5482                            .dwattr $C$DW$T$157, DW_AT_decl_file("/home/pola/ti/ccsv8/tools/compiler/ti-cgt-arm_18.1.1.LTS
    5483                            .dwattr $C$DW$T$157, DW_AT_decl_line(0x48)
    5484                            .dwattr $C$DW$T$157, DW_AT_decl_column(0x1c)
    5485                    
    5486                    $C$DW$T$158     .dwtag  DW_TAG_typedef
    5487                            .dwattr $C$DW$T$158, DW_AT_name("__dev_t")
    5488                            .dwattr $C$DW$T$158, DW_AT_type(*$C$DW$T$157)
    5489                            .dwattr $C$DW$T$158, DW_AT_language(DW_LANG_C)
    5490                            .dwattr $C$DW$T$158, DW_AT_decl_file("/home/pola/ti/ccsv8/tools/compiler/ti-cgt-arm_18.1.1.LTS
    5491                            .dwattr $C$DW$T$158, DW_AT_decl_line(0x74)
    5492                            .dwattr $C$DW$T$158, DW_AT_decl_column(0x14)
    5493                    
    5494                    $C$DW$T$159     .dwtag  DW_TAG_typedef
    5495                            .dwattr $C$DW$T$159, DW_AT_name("__fsblkcnt_t")
    5496                            .dwattr $C$DW$T$159, DW_AT_type(*$C$DW$T$157)
    5497                            .dwattr $C$DW$T$159, DW_AT_language(DW_LANG_C)
    5498                            .dwattr $C$DW$T$159, DW_AT_decl_file("/home/pola/ti/ccsv8/tools/compiler/ti-cgt-arm_18.1.1.LTS
    5499                            .dwattr $C$DW$T$159, DW_AT_decl_line(0x32)
TI ARM Assembler Unix v18.1.1 Fri Jul  3 20:08:25 2020

Tools Copyright (c) 1996-2017 Texas Instruments Incorporated
lcd.asm                                                              PAGE  101

    5500                            .dwattr $C$DW$T$159, DW_AT_decl_column(0x14)
    5501                    
    5502                    $C$DW$T$160     .dwtag  DW_TAG_typedef
    5503                            .dwattr $C$DW$T$160, DW_AT_name("__fsfilcnt_t")
    5504                            .dwattr $C$DW$T$160, DW_AT_type(*$C$DW$T$157)
    5505                            .dwattr $C$DW$T$160, DW_AT_language(DW_LANG_C)
    5506                            .dwattr $C$DW$T$160, DW_AT_decl_file("/home/pola/ti/ccsv8/tools/compiler/ti-cgt-arm_18.1.1.LTS
    5507                            .dwattr $C$DW$T$160, DW_AT_decl_line(0x33)
    5508                            .dwattr $C$DW$T$160, DW_AT_decl_column(0x14)
    5509                    
    5510                    $C$DW$T$161     .dwtag  DW_TAG_typedef
    5511                            .dwattr $C$DW$T$161, DW_AT_name("__ino_t")
    5512                            .dwattr $C$DW$T$161, DW_AT_type(*$C$DW$T$157)
    5513                            .dwattr $C$DW$T$161, DW_AT_language(DW_LANG_C)
    5514                            .dwattr $C$DW$T$161, DW_AT_decl_file("/home/pola/ti/ccsv8/tools/compiler/ti-cgt-arm_18.1.1.LTS
    5515                            .dwattr $C$DW$T$161, DW_AT_decl_line(0x36)
    5516                            .dwattr $C$DW$T$161, DW_AT_decl_column(0x14)
    5517                    
    5518                    $C$DW$T$162     .dwtag  DW_TAG_typedef
    5519                            .dwattr $C$DW$T$162, DW_AT_name("__nlink_t")
    5520                            .dwattr $C$DW$T$162, DW_AT_type(*$C$DW$T$157)
    5521                            .dwattr $C$DW$T$162, DW_AT_language(DW_LANG_C)
    5522                            .dwattr $C$DW$T$162, DW_AT_decl_file("/home/pola/ti/ccsv8/tools/compiler/ti-cgt-arm_18.1.1.LTS
    5523                            .dwattr $C$DW$T$162, DW_AT_decl_line(0x3c)
    5524                            .dwattr $C$DW$T$162, DW_AT_decl_column(0x14)
    5525                    
    5526                    $C$DW$T$163     .dwtag  DW_TAG_typedef
    5527                            .dwattr $C$DW$T$163, DW_AT_name("__uint_fast64_t")
    5528                            .dwattr $C$DW$T$163, DW_AT_type(*$C$DW$T$157)
    5529                            .dwattr $C$DW$T$163, DW_AT_language(DW_LANG_C)
    5530                            .dwattr $C$DW$T$163, DW_AT_decl_file("/home/pola/ti/ccsv8/tools/compiler/ti-cgt-arm_18.1.1.LTS
    5531                            .dwattr $C$DW$T$163, DW_AT_decl_line(0x6c)
    5532                            .dwattr $C$DW$T$163, DW_AT_decl_column(0x14)
    5533                    
    5534                    $C$DW$T$164     .dwtag  DW_TAG_typedef
    5535                            .dwattr $C$DW$T$164, DW_AT_name("uint_fast64_t")
    5536                            .dwattr $C$DW$T$164, DW_AT_type(*$C$DW$T$163)
    5537                            .dwattr $C$DW$T$164, DW_AT_language(DW_LANG_C)
    5538                            .dwattr $C$DW$T$164, DW_AT_decl_file("/home/pola/ti/ccsv8/tools/compiler/ti-cgt-arm_18.1.1.LTS
    5539                            .dwattr $C$DW$T$164, DW_AT_decl_line(0x3a)
    5540                            .dwattr $C$DW$T$164, DW_AT_decl_column(0x1a)
    5541                    
    5542                    $C$DW$T$165     .dwtag  DW_TAG_typedef
    5543                            .dwattr $C$DW$T$165, DW_AT_name("__uint_least64_t")
    5544                            .dwattr $C$DW$T$165, DW_AT_type(*$C$DW$T$157)
    5545                            .dwattr $C$DW$T$165, DW_AT_language(DW_LANG_C)
    5546                            .dwattr $C$DW$T$165, DW_AT_decl_file("/home/pola/ti/ccsv8/tools/compiler/ti-cgt-arm_18.1.1.LTS
    5547                            .dwattr $C$DW$T$165, DW_AT_decl_line(0x70)
    5548                            .dwattr $C$DW$T$165, DW_AT_decl_column(0x14)
    5549                    
    5550                    $C$DW$T$166     .dwtag  DW_TAG_typedef
    5551                            .dwattr $C$DW$T$166, DW_AT_name("uint_least64_t")
    5552                            .dwattr $C$DW$T$166, DW_AT_type(*$C$DW$T$165)
    5553                            .dwattr $C$DW$T$166, DW_AT_language(DW_LANG_C)
    5554                            .dwattr $C$DW$T$166, DW_AT_decl_file("/home/pola/ti/ccsv8/tools/compiler/ti-cgt-arm_18.1.1.LTS
TI ARM Assembler Unix v18.1.1 Fri Jul  3 20:08:25 2020

Tools Copyright (c) 1996-2017 Texas Instruments Incorporated
lcd.asm                                                              PAGE  102

    5555                            .dwattr $C$DW$T$166, DW_AT_decl_line(0x30)
    5556                            .dwattr $C$DW$T$166, DW_AT_decl_column(0x1a)
    5557                    
    5558                    $C$DW$T$167     .dwtag  DW_TAG_typedef
    5559                            .dwattr $C$DW$T$167, DW_AT_name("__uintmax_t")
    5560                            .dwattr $C$DW$T$167, DW_AT_type(*$C$DW$T$157)
    5561                            .dwattr $C$DW$T$167, DW_AT_language(DW_LANG_C)
    5562                            .dwattr $C$DW$T$167, DW_AT_decl_file("/home/pola/ti/ccsv8/tools/compiler/ti-cgt-arm_18.1.1.LTS
    5563                            .dwattr $C$DW$T$167, DW_AT_decl_line(0x67)
    5564                            .dwattr $C$DW$T$167, DW_AT_decl_column(0x14)
    5565                    
    5566                    $C$DW$T$168     .dwtag  DW_TAG_typedef
    5567                            .dwattr $C$DW$T$168, DW_AT_name("__rman_res_t")
    5568                            .dwattr $C$DW$T$168, DW_AT_type(*$C$DW$T$167)
    5569                            .dwattr $C$DW$T$168, DW_AT_language(DW_LANG_C)
    5570                            .dwattr $C$DW$T$168, DW_AT_decl_file("/home/pola/ti/ccsv8/tools/compiler/ti-cgt-arm_18.1.1.LTS
    5571                            .dwattr $C$DW$T$168, DW_AT_decl_line(0x8f)
    5572                            .dwattr $C$DW$T$168, DW_AT_decl_column(0x19)
    5573                    
    5574                    $C$DW$T$169     .dwtag  DW_TAG_typedef
    5575                            .dwattr $C$DW$T$169, DW_AT_name("uintmax_t")
    5576                            .dwattr $C$DW$T$169, DW_AT_type(*$C$DW$T$167)
    5577                            .dwattr $C$DW$T$169, DW_AT_language(DW_LANG_C)
    5578                            .dwattr $C$DW$T$169, DW_AT_decl_file("/home/pola/ti/ccsv8/tools/compiler/ti-cgt-arm_18.1.1.LTS
    5579                            .dwattr $C$DW$T$169, DW_AT_decl_line(0x58)
    5580                            .dwattr $C$DW$T$169, DW_AT_decl_column(0x16)
    5581                    
    5582                    $C$DW$T$170     .dwtag  DW_TAG_typedef
    5583                            .dwattr $C$DW$T$170, DW_AT_name("uint64_t")
    5584                            .dwattr $C$DW$T$170, DW_AT_type(*$C$DW$T$157)
    5585                            .dwattr $C$DW$T$170, DW_AT_language(DW_LANG_C)
    5586                            .dwattr $C$DW$T$170, DW_AT_decl_file("/home/pola/ti/ccsv8/tools/compiler/ti-cgt-arm_18.1.1.LTS
    5587                            .dwattr $C$DW$T$170, DW_AT_decl_line(0x47)
    5588                            .dwattr $C$DW$T$170, DW_AT_decl_column(0x15)
    5589                    
    5590                    $C$DW$T$16      .dwtag  DW_TAG_base_type
    5591                            .dwattr $C$DW$T$16, DW_AT_encoding(DW_ATE_float)
    5592                            .dwattr $C$DW$T$16, DW_AT_name("float")
    5593                            .dwattr $C$DW$T$16, DW_AT_byte_size(0x04)
    5594                    
    5595                    $C$DW$T$171     .dwtag  DW_TAG_typedef
    5596                            .dwattr $C$DW$T$171, DW_AT_name("__float_t")
    5597                            .dwattr $C$DW$T$171, DW_AT_type(*$C$DW$T$16)
    5598                            .dwattr $C$DW$T$171, DW_AT_language(DW_LANG_C)
    5599                            .dwattr $C$DW$T$171, DW_AT_decl_file("/home/pola/ti/ccsv8/tools/compiler/ti-cgt-arm_18.1.1.LTS
    5600                            .dwattr $C$DW$T$171, DW_AT_decl_line(0x50)
    5601                            .dwattr $C$DW$T$171, DW_AT_decl_column(0x10)
    5602                    
    5603                    $C$DW$T$17      .dwtag  DW_TAG_base_type
    5604                            .dwattr $C$DW$T$17, DW_AT_encoding(DW_ATE_float)
    5605                            .dwattr $C$DW$T$17, DW_AT_name("double")
    5606                            .dwattr $C$DW$T$17, DW_AT_byte_size(0x08)
    5607                    
    5608                    $C$DW$T$172     .dwtag  DW_TAG_typedef
    5609                            .dwattr $C$DW$T$172, DW_AT_name("__double_t")
TI ARM Assembler Unix v18.1.1 Fri Jul  3 20:08:25 2020

Tools Copyright (c) 1996-2017 Texas Instruments Incorporated
lcd.asm                                                              PAGE  103

    5610                            .dwattr $C$DW$T$172, DW_AT_type(*$C$DW$T$17)
    5611                            .dwattr $C$DW$T$172, DW_AT_language(DW_LANG_C)
    5612                            .dwattr $C$DW$T$172, DW_AT_decl_file("/home/pola/ti/ccsv8/tools/compiler/ti-cgt-arm_18.1.1.LTS
    5613                            .dwattr $C$DW$T$172, DW_AT_decl_line(0x4f)
    5614                            .dwattr $C$DW$T$172, DW_AT_decl_column(0x11)
    5615                    
    5616                    $C$DW$T$18      .dwtag  DW_TAG_base_type
    5617                            .dwattr $C$DW$T$18, DW_AT_encoding(DW_ATE_float)
    5618                            .dwattr $C$DW$T$18, DW_AT_name("long double")
    5619                            .dwattr $C$DW$T$18, DW_AT_byte_size(0x08)
    5620                    
    5621                    $C$DW$T$137     .dwtag  DW_TAG_base_type
    5622                            .dwattr $C$DW$T$137, DW_AT_encoding(DW_ATE_unsigned_char)
    5623                            .dwattr $C$DW$T$137, DW_AT_name("unsigned char")
    5624                            .dwattr $C$DW$T$137, DW_AT_byte_size(0x01)
    5625                    
    5626                    
    5627                    $C$DW$T$19      .dwtag  DW_TAG_structure_type
    5628                            .dwattr $C$DW$T$19, DW_AT_name("__mq")
    5629                            .dwattr $C$DW$T$19, DW_AT_declaration
    5630                            .dwattr $C$DW$T$19, DW_AT_decl_file("/home/pola/ti/ccsv8/tools/compiler/ti-cgt-arm_18.1.1.LTS/
    5631                            .dwattr $C$DW$T$19, DW_AT_decl_line(0x47)
    5632                            .dwattr $C$DW$T$19, DW_AT_decl_column(0x10)
    5633                            .dwendtag $C$DW$T$19
    5634                    
    5635                    $C$DW$T$174     .dwtag  DW_TAG_pointer_type
    5636                            .dwattr $C$DW$T$174, DW_AT_type(*$C$DW$T$19)
    5637                            .dwattr $C$DW$T$174, DW_AT_address_class(0x20)
    5638                    
    5639                    $C$DW$T$175     .dwtag  DW_TAG_typedef
    5640                            .dwattr $C$DW$T$175, DW_AT_name("__mqd_t")
    5641                            .dwattr $C$DW$T$175, DW_AT_type(*$C$DW$T$174)
    5642                            .dwattr $C$DW$T$175, DW_AT_language(DW_LANG_C)
    5643                            .dwattr $C$DW$T$175, DW_AT_decl_file("/home/pola/ti/ccsv8/tools/compiler/ti-cgt-arm_18.1.1.LTS
    5644                            .dwattr $C$DW$T$175, DW_AT_decl_line(0x47)
    5645                            .dwattr $C$DW$T$175, DW_AT_decl_column(0x16)
    5646                    
    5647                    
    5648                    $C$DW$T$20      .dwtag  DW_TAG_structure_type
    5649                            .dwattr $C$DW$T$20, DW_AT_name("__timer")
    5650                            .dwattr $C$DW$T$20, DW_AT_declaration
    5651                            .dwattr $C$DW$T$20, DW_AT_decl_file("/home/pola/ti/ccsv8/tools/compiler/ti-cgt-arm_18.1.1.LTS/
    5652                            .dwattr $C$DW$T$20, DW_AT_decl_line(0x46)
    5653                            .dwattr $C$DW$T$20, DW_AT_decl_column(0x10)
    5654                            .dwendtag $C$DW$T$20
    5655                    
    5656                    $C$DW$T$176     .dwtag  DW_TAG_pointer_type
    5657                            .dwattr $C$DW$T$176, DW_AT_type(*$C$DW$T$20)
    5658                            .dwattr $C$DW$T$176, DW_AT_address_class(0x20)
    5659                    
    5660                    $C$DW$T$177     .dwtag  DW_TAG_typedef
    5661                            .dwattr $C$DW$T$177, DW_AT_name("__timer_t")
    5662                            .dwattr $C$DW$T$177, DW_AT_type(*$C$DW$T$176)
    5663                            .dwattr $C$DW$T$177, DW_AT_language(DW_LANG_C)
    5664                            .dwattr $C$DW$T$177, DW_AT_decl_file("/home/pola/ti/ccsv8/tools/compiler/ti-cgt-arm_18.1.1.LTS
TI ARM Assembler Unix v18.1.1 Fri Jul  3 20:08:25 2020

Tools Copyright (c) 1996-2017 Texas Instruments Incorporated
lcd.asm                                                              PAGE  104

    5665                            .dwattr $C$DW$T$177, DW_AT_decl_line(0x46)
    5666                            .dwattr $C$DW$T$177, DW_AT_decl_column(0x19)
    5667                    
    5668                    
    5669                    $C$DW$T$30      .dwtag  DW_TAG_structure_type
    5670                            .dwattr $C$DW$T$30, DW_AT_name("__va_list_t")
    5671                            .dwattr $C$DW$T$30, DW_AT_byte_size(0x04)
    5672                    $C$DW$255       .dwtag  DW_TAG_member
    5673                            .dwattr $C$DW$255, DW_AT_type(*$C$DW$T$3)
    5674                            .dwattr $C$DW$255, DW_AT_name("__ap")
    5675                            .dwattr $C$DW$255, DW_AT_TI_symbol_name("__ap")
    5676                            .dwattr $C$DW$255, DW_AT_data_member_location[DW_OP_plus_uconst 0x0]
    5677                            .dwattr $C$DW$255, DW_AT_accessibility(DW_ACCESS_public)
    5678                            .dwattr $C$DW$255, DW_AT_decl_file("/home/pola/ti/ccsv8/tools/compiler/ti-cgt-arm_18.1.1.LTS/i
    5679                            .dwattr $C$DW$255, DW_AT_decl_line(0x88)
    5680                            .dwattr $C$DW$255, DW_AT_decl_column(0x0c)
    5681                    
    5682                            .dwattr $C$DW$T$30, DW_AT_decl_file("/home/pola/ti/ccsv8/tools/compiler/ti-cgt-arm_18.1.1.LTS/
    5683                            .dwattr $C$DW$T$30, DW_AT_decl_line(0x87)
    5684                            .dwattr $C$DW$T$30, DW_AT_decl_column(0x10)
    5685                            .dwendtag $C$DW$T$30
    5686                    
    5687                    $C$DW$T$178     .dwtag  DW_TAG_typedef
    5688                            .dwattr $C$DW$T$178, DW_AT_name("__va_list")
    5689                            .dwattr $C$DW$T$178, DW_AT_type(*$C$DW$T$30)
    5690                            .dwattr $C$DW$T$178, DW_AT_language(DW_LANG_C)
    5691                            .dwattr $C$DW$T$178, DW_AT_decl_file("/home/pola/ti/ccsv8/tools/compiler/ti-cgt-arm_18.1.1.LTS
    5692                            .dwattr $C$DW$T$178, DW_AT_decl_line(0x89)
    5693                            .dwattr $C$DW$T$178, DW_AT_decl_column(0x03)
    5694                    
    5695                            .dwattr $C$DW$CU, DW_AT_language(DW_LANG_C)
    5696                    
    5697                    ;***************************************************************
    5698                    ;* DWARF CIE ENTRIES                                           *
    5699                    ;***************************************************************
    5700                    
    5701                    $C$DW$CIE       .dwcie 14
    5702                            .dwcfi  cfa_register, 13
    5703                            .dwcfi  cfa_offset, 0
    5704                            .dwcfi  same_value, 4
    5705                            .dwcfi  same_value, 5
    5706                            .dwcfi  same_value, 6
    5707                            .dwcfi  same_value, 7
    5708                            .dwcfi  same_value, 8
    5709                            .dwcfi  same_value, 9
    5710                            .dwcfi  same_value, 10
    5711                            .dwcfi  same_value, 11
    5712                            .dwcfi  same_value, 80
    5713                            .dwcfi  same_value, 81
    5714                            .dwcfi  same_value, 82
    5715                            .dwcfi  same_value, 83
    5716                            .dwcfi  same_value, 84
    5717                            .dwcfi  same_value, 85
    5718                            .dwcfi  same_value, 86
    5719                            .dwcfi  same_value, 87
TI ARM Assembler Unix v18.1.1 Fri Jul  3 20:08:25 2020

Tools Copyright (c) 1996-2017 Texas Instruments Incorporated
lcd.asm                                                              PAGE  105

    5720                            .dwcfi  same_value, 88
    5721                            .dwcfi  same_value, 89
    5722                            .dwcfi  same_value, 90
    5723                            .dwcfi  same_value, 91
    5724                            .dwcfi  same_value, 92
    5725                            .dwcfi  same_value, 93
    5726                            .dwcfi  same_value, 94
    5727                            .dwcfi  same_value, 95
    5728                            .dwendentry
    5729                    
    5730                    ;***************************************************************
    5731                    ;* DWARF REGISTER MAP                                          *
    5732                    ;***************************************************************
    5733                    
    5734                    $C$DW$256       .dwtag  DW_TAG_TI_assign_register
    5735                            .dwattr $C$DW$256, DW_AT_name("A1")
    5736                            .dwattr $C$DW$256, DW_AT_location[DW_OP_reg0]
    5737                    
    5738                    $C$DW$257       .dwtag  DW_TAG_TI_assign_register
    5739                            .dwattr $C$DW$257, DW_AT_name("A2")
    5740                            .dwattr $C$DW$257, DW_AT_location[DW_OP_reg1]
    5741                    
    5742                    $C$DW$258       .dwtag  DW_TAG_TI_assign_register
    5743                            .dwattr $C$DW$258, DW_AT_name("A3")
    5744                            .dwattr $C$DW$258, DW_AT_location[DW_OP_reg2]
    5745                    
    5746                    $C$DW$259       .dwtag  DW_TAG_TI_assign_register
    5747                            .dwattr $C$DW$259, DW_AT_name("A4")
    5748                            .dwattr $C$DW$259, DW_AT_location[DW_OP_reg3]
    5749                    
    5750                    $C$DW$260       .dwtag  DW_TAG_TI_assign_register
    5751                            .dwattr $C$DW$260, DW_AT_name("V1")
    5752                            .dwattr $C$DW$260, DW_AT_location[DW_OP_reg4]
    5753                    
    5754                    $C$DW$261       .dwtag  DW_TAG_TI_assign_register
    5755                            .dwattr $C$DW$261, DW_AT_name("V2")
    5756                            .dwattr $C$DW$261, DW_AT_location[DW_OP_reg5]
    5757                    
    5758                    $C$DW$262       .dwtag  DW_TAG_TI_assign_register
    5759                            .dwattr $C$DW$262, DW_AT_name("V3")
    5760                            .dwattr $C$DW$262, DW_AT_location[DW_OP_reg6]
    5761                    
    5762                    $C$DW$263       .dwtag  DW_TAG_TI_assign_register
    5763                            .dwattr $C$DW$263, DW_AT_name("V4")
    5764                            .dwattr $C$DW$263, DW_AT_location[DW_OP_reg7]
    5765                    
    5766                    $C$DW$264       .dwtag  DW_TAG_TI_assign_register
    5767                            .dwattr $C$DW$264, DW_AT_name("V5")
    5768                            .dwattr $C$DW$264, DW_AT_location[DW_OP_reg8]
    5769                    
    5770                    $C$DW$265       .dwtag  DW_TAG_TI_assign_register
    5771                            .dwattr $C$DW$265, DW_AT_name("V6")
    5772                            .dwattr $C$DW$265, DW_AT_location[DW_OP_reg9]
    5773                    
    5774                    $C$DW$266       .dwtag  DW_TAG_TI_assign_register
TI ARM Assembler Unix v18.1.1 Fri Jul  3 20:08:25 2020

Tools Copyright (c) 1996-2017 Texas Instruments Incorporated
lcd.asm                                                              PAGE  106

    5775                            .dwattr $C$DW$266, DW_AT_name("V7")
    5776                            .dwattr $C$DW$266, DW_AT_location[DW_OP_reg10]
    5777                    
    5778                    $C$DW$267       .dwtag  DW_TAG_TI_assign_register
    5779                            .dwattr $C$DW$267, DW_AT_name("V8")
    5780                            .dwattr $C$DW$267, DW_AT_location[DW_OP_reg11]
    5781                    
    5782                    $C$DW$268       .dwtag  DW_TAG_TI_assign_register
    5783                            .dwattr $C$DW$268, DW_AT_name("V9")
    5784                            .dwattr $C$DW$268, DW_AT_location[DW_OP_reg12]
    5785                    
    5786                    $C$DW$269       .dwtag  DW_TAG_TI_assign_register
    5787                            .dwattr $C$DW$269, DW_AT_name("SP")
    5788                            .dwattr $C$DW$269, DW_AT_location[DW_OP_reg13]
    5789                    
    5790                    $C$DW$270       .dwtag  DW_TAG_TI_assign_register
    5791                            .dwattr $C$DW$270, DW_AT_name("LR")
    5792                            .dwattr $C$DW$270, DW_AT_location[DW_OP_reg14]
    5793                    
    5794                    $C$DW$271       .dwtag  DW_TAG_TI_assign_register
    5795                            .dwattr $C$DW$271, DW_AT_name("PC")
    5796                            .dwattr $C$DW$271, DW_AT_location[DW_OP_reg15]
    5797                    
    5798                    $C$DW$272       .dwtag  DW_TAG_TI_assign_register
    5799                            .dwattr $C$DW$272, DW_AT_name("SR")
    5800                            .dwattr $C$DW$272, DW_AT_location[DW_OP_reg17]
    5801                    
    5802                    $C$DW$273       .dwtag  DW_TAG_TI_assign_register
    5803                            .dwattr $C$DW$273, DW_AT_name("AP")
    5804                            .dwattr $C$DW$273, DW_AT_location[DW_OP_reg7]
    5805                    
    5806                    $C$DW$274       .dwtag  DW_TAG_TI_assign_register
    5807                            .dwattr $C$DW$274, DW_AT_name("D0")
    5808                            .dwattr $C$DW$274, DW_AT_location[DW_OP_regx 0x40]
    5809                    
    5810                    $C$DW$275       .dwtag  DW_TAG_TI_assign_register
    5811                            .dwattr $C$DW$275, DW_AT_name("D0_hi")
    5812                            .dwattr $C$DW$275, DW_AT_location[DW_OP_regx 0x41]
    5813                    
    5814                    $C$DW$276       .dwtag  DW_TAG_TI_assign_register
    5815                            .dwattr $C$DW$276, DW_AT_name("D1")
    5816                            .dwattr $C$DW$276, DW_AT_location[DW_OP_regx 0x42]
    5817                    
    5818                    $C$DW$277       .dwtag  DW_TAG_TI_assign_register
    5819                            .dwattr $C$DW$277, DW_AT_name("D1_hi")
    5820                            .dwattr $C$DW$277, DW_AT_location[DW_OP_regx 0x43]
    5821                    
    5822                    $C$DW$278       .dwtag  DW_TAG_TI_assign_register
    5823                            .dwattr $C$DW$278, DW_AT_name("D2")
    5824                            .dwattr $C$DW$278, DW_AT_location[DW_OP_regx 0x44]
    5825                    
    5826                    $C$DW$279       .dwtag  DW_TAG_TI_assign_register
    5827                            .dwattr $C$DW$279, DW_AT_name("D2_hi")
    5828                            .dwattr $C$DW$279, DW_AT_location[DW_OP_regx 0x45]
    5829                    
TI ARM Assembler Unix v18.1.1 Fri Jul  3 20:08:25 2020

Tools Copyright (c) 1996-2017 Texas Instruments Incorporated
lcd.asm                                                              PAGE  107

    5830                    $C$DW$280       .dwtag  DW_TAG_TI_assign_register
    5831                            .dwattr $C$DW$280, DW_AT_name("D3")
    5832                            .dwattr $C$DW$280, DW_AT_location[DW_OP_regx 0x46]
    5833                    
    5834                    $C$DW$281       .dwtag  DW_TAG_TI_assign_register
    5835                            .dwattr $C$DW$281, DW_AT_name("D3_hi")
    5836                            .dwattr $C$DW$281, DW_AT_location[DW_OP_regx 0x47]
    5837                    
    5838                    $C$DW$282       .dwtag  DW_TAG_TI_assign_register
    5839                            .dwattr $C$DW$282, DW_AT_name("D4")
    5840                            .dwattr $C$DW$282, DW_AT_location[DW_OP_regx 0x48]
    5841                    
    5842                    $C$DW$283       .dwtag  DW_TAG_TI_assign_register
    5843                            .dwattr $C$DW$283, DW_AT_name("D4_hi")
    5844                            .dwattr $C$DW$283, DW_AT_location[DW_OP_regx 0x49]
    5845                    
    5846                    $C$DW$284       .dwtag  DW_TAG_TI_assign_register
    5847                            .dwattr $C$DW$284, DW_AT_name("D5")
    5848                            .dwattr $C$DW$284, DW_AT_location[DW_OP_regx 0x4a]
    5849                    
    5850                    $C$DW$285       .dwtag  DW_TAG_TI_assign_register
    5851                            .dwattr $C$DW$285, DW_AT_name("D5_hi")
    5852                            .dwattr $C$DW$285, DW_AT_location[DW_OP_regx 0x4b]
    5853                    
    5854                    $C$DW$286       .dwtag  DW_TAG_TI_assign_register
    5855                            .dwattr $C$DW$286, DW_AT_name("D6")
    5856                            .dwattr $C$DW$286, DW_AT_location[DW_OP_regx 0x4c]
    5857                    
    5858                    $C$DW$287       .dwtag  DW_TAG_TI_assign_register
    5859                            .dwattr $C$DW$287, DW_AT_name("D6_hi")
    5860                            .dwattr $C$DW$287, DW_AT_location[DW_OP_regx 0x4d]
    5861                    
    5862                    $C$DW$288       .dwtag  DW_TAG_TI_assign_register
    5863                            .dwattr $C$DW$288, DW_AT_name("D7")
    5864                            .dwattr $C$DW$288, DW_AT_location[DW_OP_regx 0x4e]
    5865                    
    5866                    $C$DW$289       .dwtag  DW_TAG_TI_assign_register
    5867                            .dwattr $C$DW$289, DW_AT_name("D7_hi")
    5868                            .dwattr $C$DW$289, DW_AT_location[DW_OP_regx 0x4f]
    5869                    
    5870                    $C$DW$290       .dwtag  DW_TAG_TI_assign_register
    5871                            .dwattr $C$DW$290, DW_AT_name("D8")
    5872                            .dwattr $C$DW$290, DW_AT_location[DW_OP_regx 0x50]
    5873                    
    5874                    $C$DW$291       .dwtag  DW_TAG_TI_assign_register
    5875                            .dwattr $C$DW$291, DW_AT_name("D8_hi")
    5876                            .dwattr $C$DW$291, DW_AT_location[DW_OP_regx 0x51]
    5877                    
    5878                    $C$DW$292       .dwtag  DW_TAG_TI_assign_register
    5879                            .dwattr $C$DW$292, DW_AT_name("D9")
    5880                            .dwattr $C$DW$292, DW_AT_location[DW_OP_regx 0x52]
    5881                    
    5882                    $C$DW$293       .dwtag  DW_TAG_TI_assign_register
    5883                            .dwattr $C$DW$293, DW_AT_name("D9_hi")
    5884                            .dwattr $C$DW$293, DW_AT_location[DW_OP_regx 0x53]
TI ARM Assembler Unix v18.1.1 Fri Jul  3 20:08:25 2020

Tools Copyright (c) 1996-2017 Texas Instruments Incorporated
lcd.asm                                                              PAGE  108

    5885                    
    5886                    $C$DW$294       .dwtag  DW_TAG_TI_assign_register
    5887                            .dwattr $C$DW$294, DW_AT_name("D10")
    5888                            .dwattr $C$DW$294, DW_AT_location[DW_OP_regx 0x54]
    5889                    
    5890                    $C$DW$295       .dwtag  DW_TAG_TI_assign_register
    5891                            .dwattr $C$DW$295, DW_AT_name("D10_hi")
    5892                            .dwattr $C$DW$295, DW_AT_location[DW_OP_regx 0x55]
    5893                    
    5894                    $C$DW$296       .dwtag  DW_TAG_TI_assign_register
    5895                            .dwattr $C$DW$296, DW_AT_name("D11")
    5896                            .dwattr $C$DW$296, DW_AT_location[DW_OP_regx 0x56]
    5897                    
    5898                    $C$DW$297       .dwtag  DW_TAG_TI_assign_register
    5899                            .dwattr $C$DW$297, DW_AT_name("D11_hi")
    5900                            .dwattr $C$DW$297, DW_AT_location[DW_OP_regx 0x57]
    5901                    
    5902                    $C$DW$298       .dwtag  DW_TAG_TI_assign_register
    5903                            .dwattr $C$DW$298, DW_AT_name("D12")
    5904                            .dwattr $C$DW$298, DW_AT_location[DW_OP_regx 0x58]
    5905                    
    5906                    $C$DW$299       .dwtag  DW_TAG_TI_assign_register
    5907                            .dwattr $C$DW$299, DW_AT_name("D12_hi")
    5908                            .dwattr $C$DW$299, DW_AT_location[DW_OP_regx 0x59]
    5909                    
    5910                    $C$DW$300       .dwtag  DW_TAG_TI_assign_register
    5911                            .dwattr $C$DW$300, DW_AT_name("D13")
    5912                            .dwattr $C$DW$300, DW_AT_location[DW_OP_regx 0x5a]
    5913                    
    5914                    $C$DW$301       .dwtag  DW_TAG_TI_assign_register
    5915                            .dwattr $C$DW$301, DW_AT_name("D13_hi")
    5916                            .dwattr $C$DW$301, DW_AT_location[DW_OP_regx 0x5b]
    5917                    
    5918                    $C$DW$302       .dwtag  DW_TAG_TI_assign_register
    5919                            .dwattr $C$DW$302, DW_AT_name("D14")
    5920                            .dwattr $C$DW$302, DW_AT_location[DW_OP_regx 0x5c]
    5921                    
    5922                    $C$DW$303       .dwtag  DW_TAG_TI_assign_register
    5923                            .dwattr $C$DW$303, DW_AT_name("D14_hi")
    5924                            .dwattr $C$DW$303, DW_AT_location[DW_OP_regx 0x5d]
    5925                    
    5926                    $C$DW$304       .dwtag  DW_TAG_TI_assign_register
    5927                            .dwattr $C$DW$304, DW_AT_name("D15")
    5928                            .dwattr $C$DW$304, DW_AT_location[DW_OP_regx 0x5e]
    5929                    
    5930                    $C$DW$305       .dwtag  DW_TAG_TI_assign_register
    5931                            .dwattr $C$DW$305, DW_AT_name("D15_hi")
    5932                            .dwattr $C$DW$305, DW_AT_location[DW_OP_regx 0x5f]
    5933                    
    5934                    $C$DW$306       .dwtag  DW_TAG_TI_assign_register
    5935                            .dwattr $C$DW$306, DW_AT_name("FPEXC")
    5936                            .dwattr $C$DW$306, DW_AT_location[DW_OP_reg18]
    5937                    
    5938                    $C$DW$307       .dwtag  DW_TAG_TI_assign_register
    5939                            .dwattr $C$DW$307, DW_AT_name("FPSCR")
TI ARM Assembler Unix v18.1.1 Fri Jul  3 20:08:25 2020

Tools Copyright (c) 1996-2017 Texas Instruments Incorporated
lcd.asm                                                              PAGE  109

    5940                            .dwattr $C$DW$307, DW_AT_location[DW_OP_reg19]
    5941                    
    5942                            .dwendtag $C$DW$CU
    5943                    

--------------------------
Thumb2 Statistics
--------------------------
Number of Thumb2 ins converted to Thumb = 0 (0%)
Number of Thumb ins in input = 612 (84%)
Number of Thumb2 ins encoded as Thumb2 = 114 (100%)
Number of Thumb2 ins converted to 2 OPND Thumb = 41


No Assembly Errors, No Assembly Warnings
