TI ARM Assembler Unix v18.1.1 Fri Jul  3 20:08:25 2020

Tools Copyright (c) 1996-2017 Texas Instruments Incorporated
lcd.asm                                                              PAGE    1

       1                    ;******************************************************************************
       2                    ;* TI ARM C/C++ Codegen                                      Unix v18.1.1.LTS *
       3                    ;* Date/Time created: Fri Jul  3 20:08:24 2020                                *
       4                    ;******************************************************************************
       5                            .compiler_opts --abi=eabi --arm_vmrs_si_workaround=off --code_state=16 --diag_wrap=off --embed
       6 00000000                   .thumb
       7                    
       8                    $C$DW$CU        .dwtag  DW_TAG_compile_unit
       9                            .dwattr $C$DW$CU, DW_AT_name("../driverlib/lcd.c")
      10                            .dwattr $C$DW$CU, DW_AT_producer("TI TI ARM C/C++ Codegen Unix v18.1.1.LTS Copyright (c) 1996-
      11                            .dwattr $C$DW$CU, DW_AT_TI_version(0x01)
      12                            .dwattr $C$DW$CU, DW_AT_comp_dir("/home/pola/workspace_v8/Microwave/Debug")
      13                    
      14                    $C$DW$1 .dwtag  DW_TAG_subprogram
      15                            .dwattr $C$DW$1, DW_AT_name("SysCtlDelay")
      16                            .dwattr $C$DW$1, DW_AT_TI_symbol_name("SysCtlDelay")
      17                            .dwattr $C$DW$1, DW_AT_declaration
      18                            .dwattr $C$DW$1, DW_AT_external
      19                            .dwattr $C$DW$1, DW_AT_decl_file("/home/pola/workspace_v8/Microwave/driverlib/sysctl.h")
      20                            .dwattr $C$DW$1, DW_AT_decl_line(0x27a)
      21                            .dwattr $C$DW$1, DW_AT_decl_column(0x0d)
      22                    $C$DW$2 .dwtag  DW_TAG_formal_parameter
      23                            .dwattr $C$DW$2, DW_AT_type(*$C$DW$T$25)
      24                    
      25                            .dwendtag $C$DW$1
      26                    
      27                    
      28                    $C$DW$3 .dwtag  DW_TAG_subprogram
      29                            .dwattr $C$DW$3, DW_AT_name("IntRegister")
      30                            .dwattr $C$DW$3, DW_AT_TI_symbol_name("IntRegister")
      31                            .dwattr $C$DW$3, DW_AT_declaration
      32                            .dwattr $C$DW$3, DW_AT_external
      33                            .dwattr $C$DW$3, DW_AT_decl_file("/home/pola/workspace_v8/Microwave/driverlib/interrupt.h")
      34                            .dwattr $C$DW$3, DW_AT_decl_line(0x45)
      35                            .dwattr $C$DW$3, DW_AT_decl_column(0x0d)
      36                    $C$DW$4 .dwtag  DW_TAG_formal_parameter
      37                            .dwattr $C$DW$4, DW_AT_type(*$C$DW$T$25)
      38                    
      39                    $C$DW$5 .dwtag  DW_TAG_formal_parameter
      40                            .dwattr $C$DW$5, DW_AT_type(*$C$DW$T$39)
      41                    
      42                            .dwendtag $C$DW$3
      43                    
      44                    
      45                    $C$DW$6 .dwtag  DW_TAG_subprogram
      46                            .dwattr $C$DW$6, DW_AT_name("IntEnable")
      47                            .dwattr $C$DW$6, DW_AT_TI_symbol_name("IntEnable")
      48                            .dwattr $C$DW$6, DW_AT_declaration
      49                            .dwattr $C$DW$6, DW_AT_external
      50                            .dwattr $C$DW$6, DW_AT_decl_file("/home/pola/workspace_v8/Microwave/driverlib/interrupt.h")
      51                            .dwattr $C$DW$6, DW_AT_decl_line(0x4c)
      52                            .dwattr $C$DW$6, DW_AT_decl_column(0x0d)
      53                    $C$DW$7 .dwtag  DW_TAG_formal_parameter
      54                            .dwattr $C$DW$7, DW_AT_type(*$C$DW$T$25)
      55                    
TI ARM Assembler Unix v18.1.1 Fri Jul  3 20:08:25 2020

Tools Copyright (c) 1996-2017 Texas Instruments Incorporated
lcd.asm                                                              PAGE    2

      56                            .dwendtag $C$DW$6
      57                    
      58                    
      59                    $C$DW$8 .dwtag  DW_TAG_subprogram
      60                            .dwattr $C$DW$8, DW_AT_name("IntDisable")
      61                            .dwattr $C$DW$8, DW_AT_TI_symbol_name("IntDisable")
      62                            .dwattr $C$DW$8, DW_AT_declaration
      63                            .dwattr $C$DW$8, DW_AT_external
      64                            .dwattr $C$DW$8, DW_AT_decl_file("/home/pola/workspace_v8/Microwave/driverlib/interrupt.h")
      65                            .dwattr $C$DW$8, DW_AT_decl_line(0x4d)
      66                            .dwattr $C$DW$8, DW_AT_decl_column(0x0d)
      67                    $C$DW$9 .dwtag  DW_TAG_formal_parameter
      68                            .dwattr $C$DW$9, DW_AT_type(*$C$DW$T$25)
      69                    
      70                            .dwendtag $C$DW$8
      71                    
      72                    
      73                    $C$DW$10        .dwtag  DW_TAG_subprogram
      74                            .dwattr $C$DW$10, DW_AT_name("IntUnregister")
      75                            .dwattr $C$DW$10, DW_AT_TI_symbol_name("IntUnregister")
      76                            .dwattr $C$DW$10, DW_AT_declaration
      77                            .dwattr $C$DW$10, DW_AT_external
      78                            .dwattr $C$DW$10, DW_AT_decl_file("/home/pola/workspace_v8/Microwave/driverlib/interrupt.h")
      79                            .dwattr $C$DW$10, DW_AT_decl_line(0x46)
      80                            .dwattr $C$DW$10, DW_AT_decl_column(0x0d)
      81                    $C$DW$11        .dwtag  DW_TAG_formal_parameter
      82                            .dwattr $C$DW$11, DW_AT_type(*$C$DW$T$25)
      83                    
      84                            .dwendtag $C$DW$10
      85                    
      86                    ;       /home/pola/ti/ccsv8/tools/compiler/ti-cgt-arm_18.1.1.LTS/bin/armacpia -@/tmp/TI3QEGLttqj 
      87 00000000                   .sect   ".text"
      88                            .clink
      89                            .thumbfunc LCDModeSet
      90 00000000                   .thumb
      91                            .global LCDModeSet
      92                    
      93                    $C$DW$12        .dwtag  DW_TAG_subprogram
      94                            .dwattr $C$DW$12, DW_AT_name("LCDModeSet")
      95                            .dwattr $C$DW$12, DW_AT_low_pc(LCDModeSet)
      96                            .dwattr $C$DW$12, DW_AT_high_pc(0x00)
      97                            .dwattr $C$DW$12, DW_AT_TI_symbol_name("LCDModeSet")
      98                            .dwattr $C$DW$12, DW_AT_external
      99                            .dwattr $C$DW$12, DW_AT_type(*$C$DW$T$25)
     100                            .dwattr $C$DW$12, DW_AT_TI_begin_file("../driverlib/lcd.c")
     101                            .dwattr $C$DW$12, DW_AT_TI_begin_line(0x6e)
     102                            .dwattr $C$DW$12, DW_AT_TI_begin_column(0x01)
     103                            .dwattr $C$DW$12, DW_AT_decl_file("../driverlib/lcd.c")
     104                            .dwattr $C$DW$12, DW_AT_decl_line(0x6e)
     105                            .dwattr $C$DW$12, DW_AT_decl_column(0x01)
     106                            .dwattr $C$DW$12, DW_AT_TI_max_frame_size(0x18)
     107                            .dwpsn  file "../driverlib/lcd.c",line 112,column 1,is_stmt,address LCDModeSet,isa 1
     108                    
     109                            .dwfde $C$DW$CIE, LCDModeSet
     110                    $C$DW$13        .dwtag  DW_TAG_formal_parameter
TI ARM Assembler Unix v18.1.1 Fri Jul  3 20:08:25 2020

Tools Copyright (c) 1996-2017 Texas Instruments Incorporated
lcd.asm                                                              PAGE    3

     111                            .dwattr $C$DW$13, DW_AT_name("ui32Base")
     112                            .dwattr $C$DW$13, DW_AT_TI_symbol_name("ui32Base")
     113                            .dwattr $C$DW$13, DW_AT_type(*$C$DW$T$25)
     114                            .dwattr $C$DW$13, DW_AT_location[DW_OP_reg0]
     115                    
     116                    $C$DW$14        .dwtag  DW_TAG_formal_parameter
     117                            .dwattr $C$DW$14, DW_AT_name("ui8Mode")
     118                            .dwattr $C$DW$14, DW_AT_TI_symbol_name("ui8Mode")
     119                            .dwattr $C$DW$14, DW_AT_type(*$C$DW$T$22)
     120                            .dwattr $C$DW$14, DW_AT_location[DW_OP_reg1]
     121                    
     122                    $C$DW$15        .dwtag  DW_TAG_formal_parameter
     123                            .dwattr $C$DW$15, DW_AT_name("ui32PixClk")
     124                            .dwattr $C$DW$15, DW_AT_TI_symbol_name("ui32PixClk")
     125                            .dwattr $C$DW$15, DW_AT_type(*$C$DW$T$25)
     126                            .dwattr $C$DW$15, DW_AT_location[DW_OP_reg2]
     127                    
     128                    $C$DW$16        .dwtag  DW_TAG_formal_parameter
     129                            .dwattr $C$DW$16, DW_AT_name("ui32SysClk")
     130                            .dwattr $C$DW$16, DW_AT_TI_symbol_name("ui32SysClk")
     131                            .dwattr $C$DW$16, DW_AT_type(*$C$DW$T$25)
     132                            .dwattr $C$DW$16, DW_AT_location[DW_OP_reg3]
     133                    
     134                    ;----------------------------------------------------------------------
     135                    ; 110 | LCDModeSet(uint32_t ui32Base, uint8_t ui8Mode, uint32_t ui32PixClk,    
     136                    ; 111 | uint32_t ui32SysClk)                                                   
     137                    ;----------------------------------------------------------------------
     138                    
     139                    ;*****************************************************************************
     140                    ;* FUNCTION NAME: LCDModeSet                                                 *
     141                    ;*                                                                           *
     142                    ;*   Regs Modified     : A1,A2,A3,SP,SR                                      *
     143                    ;*   Regs Used         : A1,A2,A3,A4,SP,LR,SR                                *
     144                    ;*   Local Frame Size  : 0 Args + 20 Auto + 0 Save = 20 byte                 *
     145                    ;*****************************************************************************
     146 00000000           LCDModeSet:
     147                    ;* --------------------------------------------------------------------------*
     148                            .dwcfi  cfa_offset, 0
     149 00000000 0D18F1AD          SUB       SP, SP, #24           ; [DPU_V7M3_PIPE]  ; [KEEP 32-BIT INS]
     150                            .dwcfi  cfa_offset, 24
     151                    $C$DW$17        .dwtag  DW_TAG_variable
     152                            .dwattr $C$DW$17, DW_AT_name("ui32Base")
     153                            .dwattr $C$DW$17, DW_AT_TI_symbol_name("ui32Base")
     154                            .dwattr $C$DW$17, DW_AT_type(*$C$DW$T$25)
     155                            .dwattr $C$DW$17, DW_AT_location[DW_OP_breg13 0]
     156                    
     157                    $C$DW$18        .dwtag  DW_TAG_variable
     158                            .dwattr $C$DW$18, DW_AT_name("ui32PixClk")
     159                            .dwattr $C$DW$18, DW_AT_TI_symbol_name("ui32PixClk")
     160                            .dwattr $C$DW$18, DW_AT_type(*$C$DW$T$25)
     161                            .dwattr $C$DW$18, DW_AT_location[DW_OP_breg13 4]
     162                    
     163                    $C$DW$19        .dwtag  DW_TAG_variable
     164                            .dwattr $C$DW$19, DW_AT_name("ui32SysClk")
     165                            .dwattr $C$DW$19, DW_AT_TI_symbol_name("ui32SysClk")
TI ARM Assembler Unix v18.1.1 Fri Jul  3 20:08:25 2020

Tools Copyright (c) 1996-2017 Texas Instruments Incorporated
lcd.asm                                                              PAGE    4

     166                            .dwattr $C$DW$19, DW_AT_type(*$C$DW$T$25)
     167                            .dwattr $C$DW$19, DW_AT_location[DW_OP_breg13 8]
     168                    
     169                    $C$DW$20        .dwtag  DW_TAG_variable
     170                            .dwattr $C$DW$20, DW_AT_name("ui32Div")
     171                            .dwattr $C$DW$20, DW_AT_TI_symbol_name("ui32Div")
     172                            .dwattr $C$DW$20, DW_AT_type(*$C$DW$T$25)
     173                            .dwattr $C$DW$20, DW_AT_location[DW_OP_breg13 12]
     174                    
     175                    $C$DW$21        .dwtag  DW_TAG_variable
     176                            .dwattr $C$DW$21, DW_AT_name("ui8Mode")
     177                            .dwattr $C$DW$21, DW_AT_TI_symbol_name("ui8Mode")
     178                            .dwattr $C$DW$21, DW_AT_type(*$C$DW$T$22)
     179                            .dwattr $C$DW$21, DW_AT_location[DW_OP_breg13 16]
     180                    
     181                    ;----------------------------------------------------------------------
     182                    ; 113 | uint32_t ui32Div;                                                      
     183                    ; 115 | //                                                                     
     184                    ; 116 | // Sanity check parameters.                                            
     185                    ; 117 | //                                                                     
     186                    ; 118 | ASSERT(ui32Base == LCD0_BASE);                                         
     187                    ; 119 | ASSERT((ui8Mode & ~(LCD_MODE_RASTER | LCD_MODE_LIDD |                  
     188                    ; 120 |                     LCD_MODE_AUTO_UFLOW_RESTART)) == 0);               
     189                    ; 122 | //                                                                     
     190                    ; 123 | // Enable clocks to the LCD controller submodules.                     
     191                    ; 124 | //                                                                     
     192                    ;----------------------------------------------------------------------
     193 00000004 9302              STR       A4, [SP, #8]          ; [DPU_V7M3_PIPE] |112|  ; [ORIG 16-BIT INS]
     194 00000006 9201              STR       A3, [SP, #4]          ; [DPU_V7M3_PIPE] |112|  ; [ORIG 16-BIT INS]
     195 00000008 1010F88D          STRB      A2, [SP, #16]         ; [DPU_V7M3_PIPE] |112|  ; [KEEP 32-BIT INS]
     196 0000000c 9000              STR       A1, [SP, #0]          ; [DPU_V7M3_PIPE] |112|  ; [ORIG 16-BIT INS]
     197                            .dwpsn  file "../driverlib/lcd.c",line 125,column 5,is_stmt,isa 1
     198                    ;----------------------------------------------------------------------
     199                    ; 125 | HWREG(ui32Base + LCD_O_CLKEN) = (LCD_CLKEN_DMA | LCD_CLKEN_CORE |      
     200                    ; 126 |                                  LCD_CLKEN_LIDD);                      
     201                    ; 128 | //                                                                     
     202                    ; 129 | // Determine the clock divider to use to get as close as possible to th
     203                    ;     | e                                                                      
     204                    ; 130 | // desired pixel clock.  Note that we set the division up so that we   
     205                    ; 131 | // round the divisor up and ensure that the clock used is never faster 
     206                    ; 132 | // than the requested rate.                                            
     207                    ; 133 | //                                                                     
     208                    ;----------------------------------------------------------------------
     209 0000000e 9800              LDR       A1, [SP, #0]          ; [DPU_V7M3_PIPE] |125|  ; [ORIG 16-BIT INS]
     210 00000010 2107              MOVS      A2, #7                ; [DPU_V7M3_PIPE] |125|  ; [ORIG 16-BIT INS]
     211 00000012 66C1              STR       A2, [A1, #108]        ; [DPU_V7M3_PIPE] |125|  ; [ORIG 16-BIT INS]
     212                            .dwpsn  file "../driverlib/lcd.c",line 134,column 5,is_stmt,isa 1
     213                    ;----------------------------------------------------------------------
     214                    ; 134 | ui32Div = (ui32SysClk + (ui32PixClk - 1)) / ui32PixClk;                
     215                    ; 136 | //                                                                     
     216                    ; 137 | // Check that the calculated value is valid.                           
     217                    ; 138 | //                                                                     
     218                    ; 139 | ASSERT(ui32Div);                                                       
     219                    ; 140 | ASSERT(ui32Div < 256);                                                 
     220                    ; 141 | ASSERT(!((ui8Mode & LCD_MODE_RASTER) && (ui32Div < 2)));               
TI ARM Assembler Unix v18.1.1 Fri Jul  3 20:08:25 2020

Tools Copyright (c) 1996-2017 Texas Instruments Incorporated
lcd.asm                                                              PAGE    5

     221                    ; 143 | //                                                                     
     222                    ; 144 | // Write the LCDCTL register to set the mode.                          
     223                    ; 145 | //                                                                     
     224                    ;----------------------------------------------------------------------
     225 00000014 9901              LDR       A2, [SP, #4]          ; [DPU_V7M3_PIPE] |134|  ; [ORIG 16-BIT INS]
     226 00000016 9802              LDR       A1, [SP, #8]          ; [DPU_V7M3_PIPE] |134|  ; [ORIG 16-BIT INS]
     227 00000018 9A01              LDR       A3, [SP, #4]          ; [DPU_V7M3_PIPE] |134|  ; [ORIG 16-BIT INS]
     228 0000001a 1840              ADDS      A1, A1, A2            ; [DPU_V7M3_PIPE] |134|  ; [ORIG 16-BIT INS]
     229 0000001c 1E40              SUBS      A1, A1, #1            ; [DPU_V7M3_PIPE] |134|  ; [ORIG 16-BIT INS]
     230 0000001e F0F2FBB0          UDIV      A1, A1, A3            ; [DPU_V7M3_PIPE] |134|  ; [KEEP 32-BIT INS]
     231 00000022 9003              STR       A1, [SP, #12]         ; [DPU_V7M3_PIPE] |134|  ; [ORIG 16-BIT INS]
     232                            .dwpsn  file "../driverlib/lcd.c",line 146,column 5,is_stmt,isa 1
     233                    ;----------------------------------------------------------------------
     234                    ; 146 | HWREG(ui32Base + LCD_O_CTL) = (uint32_t)ui8Mode |                      
     235                    ; 147 |                               (ui32Div << LCD_CTL_CLKDIV_S);           
     236                    ; 149 | //                                                                     
     237                    ; 150 | // Return the selected clock rate.  Finding ui32Div set to 0 should not
     238                    ; 151 | // happen unless someone passed pathological arguments and builds witho
     239                    ;     | ut                                                                     
     240                    ; 152 | // the ASSERTS, but we guard against it just in case.                  
     241                    ; 153 | //                                                                     
     242                    ;----------------------------------------------------------------------
     243 00000024 0010F89D          LDRB      A1, [SP, #16]         ; [DPU_V7M3_PIPE] |146|  ; [KEEP 32-BIT INS]
     244 00000028 9A03              LDR       A3, [SP, #12]         ; [DPU_V7M3_PIPE] |146|  ; [ORIG 16-BIT INS]
     245 0000002a 9900              LDR       A2, [SP, #0]          ; [DPU_V7M3_PIPE] |146|  ; [ORIG 16-BIT INS]
     246 0000002c 2002EA40          ORR       A1, A1, A3, LSL #8    ; [DPU_V7M3_PIPE] |146|  ; [KEEP 32-BIT INS]
     247 00000030 6048              STR       A1, [A2, #4]          ; [DPU_V7M3_PIPE] |146|  ; [ORIG 16-BIT INS]
     248                            .dwpsn  file "../driverlib/lcd.c",line 154,column 5,is_stmt,isa 1
     249                    ;----------------------------------------------------------------------
     250                    ; 154 | return(ui32Div ? (ui32SysClk / ui32Div) : ui32SysClk);                 
     251                    ;----------------------------------------------------------------------
     252 00000032 9803              LDR       A1, [SP, #12]         ; [DPU_V7M3_PIPE] |154|  ; [ORIG 16-BIT INS]
     253 00000034 B120              CBZ       A1, ||$C$L1||         ; []  ; [ORIG 16-BIT INS]
     254                            ; BRANCHCC OCCURS {||$C$L1||}    ; [] |154| 
     255                    ;* --------------------------------------------------------------------------*
     256 00000036 9803              LDR       A1, [SP, #12]         ; [DPU_V7M3_PIPE] |154|  ; [ORIG 16-BIT INS]
     257 00000038 9902              LDR       A2, [SP, #8]          ; [DPU_V7M3_PIPE] |154|  ; [ORIG 16-BIT INS]
     258 0000003a F0F0FBB1          UDIV      A1, A2, A1            ; [DPU_V7M3_PIPE] |154|  ; [KEEP 32-BIT INS]
     259 0000003e E000              B         ||$C$L2||             ; [DPU_V7M3_PIPE] |154|  ; [ORIG 16-BIT INS]
     260                            ; BRANCH OCCURS {||$C$L2||}      ; [] |154| 
     261                    ;* --------------------------------------------------------------------------*
     262 00000040           ||$C$L1||:    
     263 00000040 9802              LDR       A1, [SP, #8]          ; [DPU_V7M3_PIPE] |154|  ; [ORIG 16-BIT INS]
     264                    ;* --------------------------------------------------------------------------*
     265 00000042           ||$C$L2||:    
     266                            .dwpsn  file "../driverlib/lcd.c",line 155,column 1,is_stmt,isa 1
     267 00000042 B006              ADD       SP, SP, #24           ; [DPU_V7M3_PIPE]  ; [ORIG 16-BIT INS]
     268                            .dwcfi  cfa_offset, 0
     269                    $C$DW$22        .dwtag  DW_TAG_TI_branch
     270                            .dwattr $C$DW$22, DW_AT_low_pc(0x00)
     271                            .dwattr $C$DW$22, DW_AT_TI_return
     272                    
     273 00000044 4770              BX        LR                    ; [DPU_V7M3_PIPE]  ; [ORIG 16-BIT INS]
     274                            ; BRANCH OCCURS                  ; [] 
     275                            .dwattr $C$DW$12, DW_AT_TI_end_file("../driverlib/lcd.c")
TI ARM Assembler Unix v18.1.1 Fri Jul  3 20:08:25 2020

Tools Copyright (c) 1996-2017 Texas Instruments Incorporated
lcd.asm                                                              PAGE    6

     276                            .dwattr $C$DW$12, DW_AT_TI_end_line(0x9b)
     277                            .dwattr $C$DW$12, DW_AT_TI_end_column(0x01)
     278                            .dwendentry
     279                            .dwendtag $C$DW$12
     280                    
     281 00000046                   .sect   ".text"
     282                            .clink
     283                            .thumbfunc LCDClockReset
     284 00000046                   .thumb
     285                            .global LCDClockReset
     286                    
     287                    $C$DW$23        .dwtag  DW_TAG_subprogram
     288                            .dwattr $C$DW$23, DW_AT_name("LCDClockReset")
     289                            .dwattr $C$DW$23, DW_AT_low_pc(LCDClockReset)
     290                            .dwattr $C$DW$23, DW_AT_high_pc(0x00)
     291                            .dwattr $C$DW$23, DW_AT_TI_symbol_name("LCDClockReset")
     292                            .dwattr $C$DW$23, DW_AT_external
     293                            .dwattr $C$DW$23, DW_AT_TI_begin_file("../driverlib/lcd.c")
     294                            .dwattr $C$DW$23, DW_AT_TI_begin_line(0xb5)
     295                            .dwattr $C$DW$23, DW_AT_TI_begin_column(0x01)
     296                            .dwattr $C$DW$23, DW_AT_decl_file("../driverlib/lcd.c")
     297                            .dwattr $C$DW$23, DW_AT_decl_line(0xb5)
     298                            .dwattr $C$DW$23, DW_AT_decl_column(0x01)
     299                            .dwattr $C$DW$23, DW_AT_TI_max_frame_size(0x10)
     300                            .dwpsn  file "../driverlib/lcd.c",line 182,column 1,is_stmt,address LCDClockReset,isa 1
     301                    
     302                            .dwfde $C$DW$CIE, LCDClockReset
     303                    $C$DW$24        .dwtag  DW_TAG_formal_parameter
     304                            .dwattr $C$DW$24, DW_AT_name("ui32Base")
     305                            .dwattr $C$DW$24, DW_AT_TI_symbol_name("ui32Base")
     306                            .dwattr $C$DW$24, DW_AT_type(*$C$DW$T$25)
     307                            .dwattr $C$DW$24, DW_AT_location[DW_OP_reg0]
     308                    
     309                    $C$DW$25        .dwtag  DW_TAG_formal_parameter
     310                            .dwattr $C$DW$25, DW_AT_name("ui32Clocks")
     311                            .dwattr $C$DW$25, DW_AT_TI_symbol_name("ui32Clocks")
     312                            .dwattr $C$DW$25, DW_AT_type(*$C$DW$T$25)
     313                            .dwattr $C$DW$25, DW_AT_location[DW_OP_reg1]
     314                    
     315                    ;----------------------------------------------------------------------
     316                    ; 181 | LCDClockReset(uint32_t ui32Base, uint32_t ui32Clocks)                  
     317                    ;----------------------------------------------------------------------
     318                    
     319                    ;*****************************************************************************
     320                    ;* FUNCTION NAME: LCDClockReset                                              *
     321                    ;*                                                                           *
     322                    ;*   Regs Modified     : A1,A2,A3,A4,V9,SP,LR,SR,D0,D0_hi,D1,D1_hi,D2,D2_hi, *
     323                    ;*                           D3,D3_hi,D4,D4_hi,D5,D5_hi,D6,D6_hi,D7,D7_hi,   *
     324                    ;*                           FPEXC,FPSCR                                     *
     325                    ;*   Regs Used         : A1,A2,A3,A4,V9,SP,LR,SR,D0,D0_hi,D1,D1_hi,D2,D2_hi, *
     326                    ;*                           D3,D3_hi,D4,D4_hi,D5,D5_hi,D6,D6_hi,D7,D7_hi,   *
     327                    ;*                           FPEXC,FPSCR                                     *
     328                    ;*   Local Frame Size  : 0 Args + 8 Auto + 4 Save = 12 byte                  *
     329                    ;*****************************************************************************
     330 00000046           LCDClockReset:
TI ARM Assembler Unix v18.1.1 Fri Jul  3 20:08:25 2020

Tools Copyright (c) 1996-2017 Texas Instruments Incorporated
lcd.asm                                                              PAGE    7

     331                    ;* --------------------------------------------------------------------------*
     332                            .dwcfi  cfa_offset, 0
     333 00000046 B50E              PUSH      {A2, A3, A4, LR}      ; [DPU_V7M3_PIPE]  ; [ORIG 16-BIT INS]
     334                            .dwcfi  cfa_offset, 16
     335                            .dwcfi  save_reg_to_mem, 14, -4
     336                            .dwcfi  save_reg_to_mem, 3, -8
     337                            .dwcfi  save_reg_to_mem, 2, -12
     338                            .dwcfi  save_reg_to_mem, 1, -16
     339                    $C$DW$26        .dwtag  DW_TAG_variable
     340                            .dwattr $C$DW$26, DW_AT_name("ui32Base")
     341                            .dwattr $C$DW$26, DW_AT_TI_symbol_name("ui32Base")
     342                            .dwattr $C$DW$26, DW_AT_type(*$C$DW$T$25)
     343                            .dwattr $C$DW$26, DW_AT_location[DW_OP_breg13 0]
     344                    
     345                    $C$DW$27        .dwtag  DW_TAG_variable
     346                            .dwattr $C$DW$27, DW_AT_name("ui32Clocks")
     347                            .dwattr $C$DW$27, DW_AT_TI_symbol_name("ui32Clocks")
     348                            .dwattr $C$DW$27, DW_AT_type(*$C$DW$T$25)
     349                            .dwattr $C$DW$27, DW_AT_location[DW_OP_breg13 4]
     350                    
     351                    ;----------------------------------------------------------------------
     352                    ; 183 | //                                                                     
     353                    ; 184 | // Sanity check parameters.                                            
     354                    ; 185 | //                                                                     
     355                    ; 186 | ASSERT(ui32Base == LCD0_BASE);                                         
     356                    ; 187 | ASSERT(!(ui32Clocks & ~(LCD_CLOCK_MAIN | LCD_CLOCK_LIDD | LCD_CLOCK_DMA
     357                    ;     |  |                                                                     
     358                    ; 188 |                         LCD_CLOCK_CORE)));                             
     359                    ; 190 | //                                                                     
     360                    ; 191 | // Reset the required LCD controller sub-module(s).                    
     361                    ; 192 | //                                                                     
     362                    ;----------------------------------------------------------------------
     363 00000048 9101              STR       A2, [SP, #4]          ; [DPU_V7M3_PIPE] |182|  ; [ORIG 16-BIT INS]
     364 0000004a 9000              STR       A1, [SP, #0]          ; [DPU_V7M3_PIPE] |182|  ; [ORIG 16-BIT INS]
     365                            .dwpsn  file "../driverlib/lcd.c",line 193,column 5,is_stmt,isa 1
     366                    ;----------------------------------------------------------------------
     367                    ; 193 | HWREG(LCD0_BASE + 0x70) = ui32Clocks;                                  
     368                    ; 195 | //                                                                     
     369                    ; 196 | // Wait a while.                                                       
     370                    ; 197 | //                                                                     
     371                    ;----------------------------------------------------------------------
     372 0000004c 4985              LDR       A2, $C$CON1           ; [DPU_V7M3_PIPE] |193|  ; [ORIG 16-BIT INS]
     373 0000004e 9801              LDR       A1, [SP, #4]          ; [DPU_V7M3_PIPE] |193|  ; [ORIG 16-BIT INS]
     374 00000050 6008              STR       A1, [A2, #0]          ; [DPU_V7M3_PIPE] |193|  ; [ORIG 16-BIT INS]
     375                            .dwpsn  file "../driverlib/lcd.c",line 198,column 5,is_stmt,isa 1
     376                    ;----------------------------------------------------------------------
     377                    ; 198 | SysCtlDelay(10);                                                       
     378                    ; 200 | //                                                                     
     379                    ; 201 | // Remove software reset.                                              
     380                    ; 202 | //                                                                     
     381                    ;----------------------------------------------------------------------
     382 00000052 200A              MOVS      A1, #10               ; [DPU_V7M3_PIPE] |198|  ; [ORIG 16-BIT INS]
     383                    $C$DW$28        .dwtag  DW_TAG_TI_branch
     384                            .dwattr $C$DW$28, DW_AT_low_pc(0x00)
     385                            .dwattr $C$DW$28, DW_AT_name("SysCtlDelay")
TI ARM Assembler Unix v18.1.1 Fri Jul  3 20:08:25 2020

Tools Copyright (c) 1996-2017 Texas Instruments Incorporated
lcd.asm                                                              PAGE    8

     386                            .dwattr $C$DW$28, DW_AT_TI_call
     387                    
     388 00000054 FFFEF7FF!         BL        SysCtlDelay           ; [DPU_V7M3_PIPE] |198|  ; [KEEP 32-BIT INS]
     389                            ; CALL OCCURS {SysCtlDelay }     ; [] |198| 
     390                            .dwpsn  file "../driverlib/lcd.c",line 203,column 5,is_stmt,isa 1
     391                    ;----------------------------------------------------------------------
     392                    ; 203 | HWREG(LCD0_BASE + 0x70) = 0x00000000;                                  
     393                    ; 205 | //                                                                     
     394                    ; 206 | // Wait a while.                                                       
     395                    ; 207 | //                                                                     
     396                    ;----------------------------------------------------------------------
     397 00000058 4982              LDR       A2, $C$CON1           ; [DPU_V7M3_PIPE] |203|  ; [ORIG 16-BIT INS]
     398 0000005a 2000              MOVS      A1, #0                ; [DPU_V7M3_PIPE] |203|  ; [ORIG 16-BIT INS]
     399 0000005c 6008              STR       A1, [A2, #0]          ; [DPU_V7M3_PIPE] |203|  ; [ORIG 16-BIT INS]
     400                            .dwpsn  file "../driverlib/lcd.c",line 208,column 5,is_stmt,isa 1
     401                    ;----------------------------------------------------------------------
     402                    ; 208 | SysCtlDelay(10);                                                       
     403                    ;----------------------------------------------------------------------
     404 0000005e 200A              MOVS      A1, #10               ; [DPU_V7M3_PIPE] |208|  ; [ORIG 16-BIT INS]
     405                    $C$DW$29        .dwtag  DW_TAG_TI_branch
     406                            .dwattr $C$DW$29, DW_AT_low_pc(0x00)
     407                            .dwattr $C$DW$29, DW_AT_name("SysCtlDelay")
     408                            .dwattr $C$DW$29, DW_AT_TI_call
     409                    
     410 00000060 FFFEF7FF!         BL        SysCtlDelay           ; [DPU_V7M3_PIPE] |208|  ; [KEEP 32-BIT INS]
     411                            ; CALL OCCURS {SysCtlDelay }     ; [] |208| 
     412                            .dwpsn  file "../driverlib/lcd.c",line 209,column 1,is_stmt,isa 1
     413                    $C$DW$30        .dwtag  DW_TAG_TI_branch
     414                            .dwattr $C$DW$30, DW_AT_low_pc(0x00)
     415                            .dwattr $C$DW$30, DW_AT_TI_return
     416                    
     417 00000064 BD0E              POP       {A2, A3, A4, PC}      ; [DPU_V7M3_PIPE]  ; [ORIG 16-BIT INS]
     418                            .dwcfi  cfa_offset, 0
     419                            .dwcfi  restore_reg, 3
     420                            .dwcfi  restore_reg, 2
     421                            .dwcfi  restore_reg, 1
     422                            ; BRANCH OCCURS                  ; [] 
     423                            .dwattr $C$DW$23, DW_AT_TI_end_file("../driverlib/lcd.c")
     424                            .dwattr $C$DW$23, DW_AT_TI_end_line(0xd1)
     425                            .dwattr $C$DW$23, DW_AT_TI_end_column(0x01)
     426                            .dwendentry
     427                            .dwendtag $C$DW$23
     428                    
     429 00000066                   .sect   ".text"
     430                            .clink
     431                            .thumbfunc LCDIDDConfigSet
     432 00000066                   .thumb
     433                            .global LCDIDDConfigSet
     434                    
     435                    $C$DW$31        .dwtag  DW_TAG_subprogram
     436                            .dwattr $C$DW$31, DW_AT_name("LCDIDDConfigSet")
     437                            .dwattr $C$DW$31, DW_AT_low_pc(LCDIDDConfigSet)
     438                            .dwattr $C$DW$31, DW_AT_high_pc(0x00)
     439                            .dwattr $C$DW$31, DW_AT_TI_symbol_name("LCDIDDConfigSet")
     440                            .dwattr $C$DW$31, DW_AT_external
TI ARM Assembler Unix v18.1.1 Fri Jul  3 20:08:25 2020

Tools Copyright (c) 1996-2017 Texas Instruments Incorporated
lcd.asm                                                              PAGE    9

     441                            .dwattr $C$DW$31, DW_AT_TI_begin_file("../driverlib/lcd.c")
     442                            .dwattr $C$DW$31, DW_AT_TI_begin_line(0x102)
     443                            .dwattr $C$DW$31, DW_AT_TI_begin_column(0x01)
     444                            .dwattr $C$DW$31, DW_AT_decl_file("../driverlib/lcd.c")
     445                            .dwattr $C$DW$31, DW_AT_decl_line(0x102)
     446                            .dwattr $C$DW$31, DW_AT_decl_column(0x01)
     447                            .dwattr $C$DW$31, DW_AT_TI_max_frame_size(0x08)
     448                            .dwpsn  file "../driverlib/lcd.c",line 259,column 1,is_stmt,address LCDIDDConfigSet,isa 1
     449                    
     450                            .dwfde $C$DW$CIE, LCDIDDConfigSet
     451                    $C$DW$32        .dwtag  DW_TAG_formal_parameter
     452                            .dwattr $C$DW$32, DW_AT_name("ui32Base")
     453                            .dwattr $C$DW$32, DW_AT_TI_symbol_name("ui32Base")
     454                            .dwattr $C$DW$32, DW_AT_type(*$C$DW$T$25)
     455                            .dwattr $C$DW$32, DW_AT_location[DW_OP_reg0]
     456                    
     457                    $C$DW$33        .dwtag  DW_TAG_formal_parameter
     458                            .dwattr $C$DW$33, DW_AT_name("ui32Config")
     459                            .dwattr $C$DW$33, DW_AT_TI_symbol_name("ui32Config")
     460                            .dwattr $C$DW$33, DW_AT_type(*$C$DW$T$25)
     461                            .dwattr $C$DW$33, DW_AT_location[DW_OP_reg1]
     462                    
     463                    ;----------------------------------------------------------------------
     464                    ; 258 | LCDIDDConfigSet(uint32_t ui32Base, uint32_t ui32Config)                
     465                    ;----------------------------------------------------------------------
     466                    
     467                    ;*****************************************************************************
     468                    ;* FUNCTION NAME: LCDIDDConfigSet                                            *
     469                    ;*                                                                           *
     470                    ;*   Regs Modified     : A1,A2,SP                                            *
     471                    ;*   Regs Used         : A1,A2,SP,LR                                         *
     472                    ;*   Local Frame Size  : 0 Args + 8 Auto + 0 Save = 8 byte                   *
     473                    ;*****************************************************************************
     474 00000066           LCDIDDConfigSet:
     475                    ;* --------------------------------------------------------------------------*
     476                            .dwcfi  cfa_offset, 0
     477 00000066 0D08F1AD          SUB       SP, SP, #8            ; [DPU_V7M3_PIPE]  ; [KEEP 32-BIT INS]
     478                            .dwcfi  cfa_offset, 8
     479                    $C$DW$34        .dwtag  DW_TAG_variable
     480                            .dwattr $C$DW$34, DW_AT_name("ui32Base")
     481                            .dwattr $C$DW$34, DW_AT_TI_symbol_name("ui32Base")
     482                            .dwattr $C$DW$34, DW_AT_type(*$C$DW$T$25)
     483                            .dwattr $C$DW$34, DW_AT_location[DW_OP_breg13 0]
     484                    
     485                    $C$DW$35        .dwtag  DW_TAG_variable
     486                            .dwattr $C$DW$35, DW_AT_name("ui32Config")
     487                            .dwattr $C$DW$35, DW_AT_TI_symbol_name("ui32Config")
     488                            .dwattr $C$DW$35, DW_AT_type(*$C$DW$T$25)
     489                            .dwattr $C$DW$35, DW_AT_location[DW_OP_breg13 4]
     490                    
     491                    ;----------------------------------------------------------------------
     492                    ; 260 | //                                                                     
     493                    ; 261 | // Sanity check parameters.                                            
     494                    ; 262 | //                                                                     
     495                    ; 263 | ASSERT(ui32Base == LCD0_BASE);                                         
TI ARM Assembler Unix v18.1.1 Fri Jul  3 20:08:25 2020

Tools Copyright (c) 1996-2017 Texas Instruments Incorporated
lcd.asm                                                              PAGE   10

     496                    ; 264 | ASSERT(!(ui32Config & ~(LIDD_CONFIG_SYNC_MPU68 | LIDD_CONFIG_ASYNC_MPU6
     497                    ;     | 8 |                                                                    
     498                    ; 265 |                         LIDD_CONFIG_SYNC_MPU80 | LIDD_CONFIG_ASYNC_MPU8
     499                    ;     | 0 |                                                                    
     500                    ; 266 |                         LIDD_CONFIG_ASYNC_HITACHI |                    
     501                    ; 267 |                         LIDD_CONFIG_INVERT_ALE |                       
     502                    ; 268 |                         LIDD_CONFIG_INVERT_RS_EN |                     
     503                    ; 269 |                         LIDD_CONFIG_INVERT_WS_DIR |                    
     504                    ; 270 |                         LIDD_CONFIG_INVERT_CS0 | LIDD_CONFIG_INVERT_CS1
     505                    ;     | )));                                                                   
     506                    ; 272 | //                                                                     
     507                    ; 273 | // Write the LIDD Control Register.                                    
     508                    ; 274 | //                                                                     
     509                    ;----------------------------------------------------------------------
     510 0000006a 9101              STR       A2, [SP, #4]          ; [DPU_V7M3_PIPE] |259|  ; [ORIG 16-BIT INS]
     511 0000006c 9000              STR       A1, [SP, #0]          ; [DPU_V7M3_PIPE] |259|  ; [ORIG 16-BIT INS]
     512                            .dwpsn  file "../driverlib/lcd.c",line 275,column 5,is_stmt,isa 1
     513                    ;----------------------------------------------------------------------
     514                    ; 275 | HWREG(ui32Base + LCD_O_LIDDCTL) = ui32Config;                          
     515                    ;----------------------------------------------------------------------
     516 0000006e 9801              LDR       A1, [SP, #4]          ; [DPU_V7M3_PIPE] |275|  ; [ORIG 16-BIT INS]
     517 00000070 9900              LDR       A2, [SP, #0]          ; [DPU_V7M3_PIPE] |275|  ; [ORIG 16-BIT INS]
     518 00000072 60C8              STR       A1, [A2, #12]         ; [DPU_V7M3_PIPE] |275|  ; [ORIG 16-BIT INS]
     519                            .dwpsn  file "../driverlib/lcd.c",line 276,column 1,is_stmt,isa 1
     520 00000074 B002              ADD       SP, SP, #8            ; [DPU_V7M3_PIPE]  ; [ORIG 16-BIT INS]
     521                            .dwcfi  cfa_offset, 0
     522                    $C$DW$36        .dwtag  DW_TAG_TI_branch
     523                            .dwattr $C$DW$36, DW_AT_low_pc(0x00)
     524                            .dwattr $C$DW$36, DW_AT_TI_return
     525                    
     526 00000076 4770              BX        LR                    ; [DPU_V7M3_PIPE]  ; [ORIG 16-BIT INS]
     527                            ; BRANCH OCCURS                  ; [] 
     528                            .dwattr $C$DW$31, DW_AT_TI_end_file("../driverlib/lcd.c")
     529                            .dwattr $C$DW$31, DW_AT_TI_end_line(0x114)
     530                            .dwattr $C$DW$31, DW_AT_TI_end_column(0x01)
     531                            .dwendentry
     532                            .dwendtag $C$DW$31
     533                    
     534 00000078                   .sect   ".text"
     535                            .clink
     536                            .thumbfunc LCDIDDTimingSet
     537 00000078                   .thumb
     538                            .global LCDIDDTimingSet
     539                    
     540                    $C$DW$37        .dwtag  DW_TAG_subprogram
     541                            .dwattr $C$DW$37, DW_AT_name("LCDIDDTimingSet")
     542                            .dwattr $C$DW$37, DW_AT_low_pc(LCDIDDTimingSet)
     543                            .dwattr $C$DW$37, DW_AT_high_pc(0x00)
     544                            .dwattr $C$DW$37, DW_AT_TI_symbol_name("LCDIDDTimingSet")
     545                            .dwattr $C$DW$37, DW_AT_external
     546                            .dwattr $C$DW$37, DW_AT_TI_begin_file("../driverlib/lcd.c")
     547                            .dwattr $C$DW$37, DW_AT_TI_begin_line(0x12d)
     548                            .dwattr $C$DW$37, DW_AT_TI_begin_column(0x01)
     549                            .dwattr $C$DW$37, DW_AT_decl_file("../driverlib/lcd.c")
     550                            .dwattr $C$DW$37, DW_AT_decl_line(0x12d)
TI ARM Assembler Unix v18.1.1 Fri Jul  3 20:08:25 2020

Tools Copyright (c) 1996-2017 Texas Instruments Incorporated
lcd.asm                                                              PAGE   11

     551                            .dwattr $C$DW$37, DW_AT_decl_column(0x01)
     552                            .dwattr $C$DW$37, DW_AT_TI_max_frame_size(0x20)
     553                            .dwpsn  file "../driverlib/lcd.c",line 303,column 1,is_stmt,address LCDIDDTimingSet,isa 1
     554                    
     555                            .dwfde $C$DW$CIE, LCDIDDTimingSet
     556                    $C$DW$38        .dwtag  DW_TAG_formal_parameter
     557                            .dwattr $C$DW$38, DW_AT_name("ui32Base")
     558                            .dwattr $C$DW$38, DW_AT_TI_symbol_name("ui32Base")
     559                            .dwattr $C$DW$38, DW_AT_type(*$C$DW$T$25)
     560                            .dwattr $C$DW$38, DW_AT_location[DW_OP_reg0]
     561                    
     562                    $C$DW$39        .dwtag  DW_TAG_formal_parameter
     563                            .dwattr $C$DW$39, DW_AT_name("ui32CS")
     564                            .dwattr $C$DW$39, DW_AT_TI_symbol_name("ui32CS")
     565                            .dwattr $C$DW$39, DW_AT_type(*$C$DW$T$25)
     566                            .dwattr $C$DW$39, DW_AT_location[DW_OP_reg1]
     567                    
     568                    $C$DW$40        .dwtag  DW_TAG_formal_parameter
     569                            .dwattr $C$DW$40, DW_AT_name("pTiming")
     570                            .dwattr $C$DW$40, DW_AT_TI_symbol_name("pTiming")
     571                            .dwattr $C$DW$40, DW_AT_type(*$C$DW$T$33)
     572                            .dwattr $C$DW$40, DW_AT_location[DW_OP_reg2]
     573                    
     574                    ;----------------------------------------------------------------------
     575                    ; 301 | LCDIDDTimingSet(uint32_t ui32Base, uint32_t ui32CS,                    
     576                    ; 302 | const tLCDIDDTiming *pTiming)                                          
     577                    ;----------------------------------------------------------------------
     578                    
     579                    ;*****************************************************************************
     580                    ;* FUNCTION NAME: LCDIDDTimingSet                                            *
     581                    ;*                                                                           *
     582                    ;*   Regs Modified     : A1,A2,A3,A4,V1,V2,V3,SP,SR                          *
     583                    ;*   Regs Used         : A1,A2,A3,A4,V1,V2,V3,SP,LR,SR                       *
     584                    ;*   Local Frame Size  : 0 Args + 16 Auto + 16 Save = 32 byte                *
     585                    ;*****************************************************************************
     586 00000078           LCDIDDTimingSet:
     587                    ;* --------------------------------------------------------------------------*
     588                            .dwcfi  cfa_offset, 0
     589 00000078 B57F              PUSH      {A1, A2, A3, A4, V1, V2, V3, LR} ; [DPU_V7M3_PIPE]  ; [ORIG 16-BIT INS]
     590                            .dwcfi  cfa_offset, 32
     591                            .dwcfi  save_reg_to_mem, 14, -4
     592                            .dwcfi  save_reg_to_mem, 6, -8
     593                            .dwcfi  save_reg_to_mem, 5, -12
     594                            .dwcfi  save_reg_to_mem, 4, -16
     595                            .dwcfi  save_reg_to_mem, 3, -20
     596                            .dwcfi  save_reg_to_mem, 2, -24
     597                            .dwcfi  save_reg_to_mem, 1, -28
     598                            .dwcfi  save_reg_to_mem, 0, -32
     599                    $C$DW$41        .dwtag  DW_TAG_variable
     600                            .dwattr $C$DW$41, DW_AT_name("ui32Base")
     601                            .dwattr $C$DW$41, DW_AT_TI_symbol_name("ui32Base")
     602                            .dwattr $C$DW$41, DW_AT_type(*$C$DW$T$25)
     603                            .dwattr $C$DW$41, DW_AT_location[DW_OP_breg13 0]
     604                    
     605                    $C$DW$42        .dwtag  DW_TAG_variable
TI ARM Assembler Unix v18.1.1 Fri Jul  3 20:08:25 2020

Tools Copyright (c) 1996-2017 Texas Instruments Incorporated
lcd.asm                                                              PAGE   12

     606                            .dwattr $C$DW$42, DW_AT_name("ui32CS")
     607                            .dwattr $C$DW$42, DW_AT_TI_symbol_name("ui32CS")
     608                            .dwattr $C$DW$42, DW_AT_type(*$C$DW$T$25)
     609                            .dwattr $C$DW$42, DW_AT_location[DW_OP_breg13 4]
     610                    
     611                    $C$DW$43        .dwtag  DW_TAG_variable
     612                            .dwattr $C$DW$43, DW_AT_name("pTiming")
     613                            .dwattr $C$DW$43, DW_AT_TI_symbol_name("pTiming")
     614                            .dwattr $C$DW$43, DW_AT_type(*$C$DW$T$33)
     615                            .dwattr $C$DW$43, DW_AT_location[DW_OP_breg13 8]
     616                    
     617                    $C$DW$44        .dwtag  DW_TAG_variable
     618                            .dwattr $C$DW$44, DW_AT_name("ui32Val")
     619                            .dwattr $C$DW$44, DW_AT_TI_symbol_name("ui32Val")
     620                            .dwattr $C$DW$44, DW_AT_type(*$C$DW$T$25)
     621                            .dwattr $C$DW$44, DW_AT_location[DW_OP_breg13 12]
     622                    
     623                    ;----------------------------------------------------------------------
     624                    ; 304 | uint32_t ui32Val;                                                      
     625                    ; 306 | //                                                                     
     626                    ; 307 | // Sanity check parameters.                                            
     627                    ; 308 | //                                                                     
     628                    ; 309 | ASSERT(ui32Base == LCD0_BASE);                                         
     629                    ; 310 | ASSERT((ui32CS == 0) || (ui32CS == 1));                                
     630                    ; 311 | ASSERT(pTiming);                                                       
     631                    ; 312 | ASSERT(pTiming->ui8WSSetup < 32);                                      
     632                    ; 313 | ASSERT(pTiming->ui8WSDuration && (pTiming->ui8WSDuration < 64));       
     633                    ; 314 | ASSERT(pTiming->ui8WSHold && (pTiming->ui8WSHold < 16));               
     634                    ; 315 | ASSERT(pTiming->ui8RSSetup < 32);                                      
     635                    ; 316 | ASSERT(pTiming->ui8RSDuration && (pTiming->ui8RSDuration < 64));       
     636                    ; 317 | ASSERT(pTiming->ui8RSHold && (pTiming->ui8RSHold < 16));               
     637                    ; 318 | ASSERT(pTiming->ui8DelayCycles && (pTiming->ui8DelayCycles < 5));      
     638                    ; 320 | //                                                                     
     639                    ; 321 | // Convert the timings provided into a value ready for the register.   
     640                    ; 322 | //                                                                     
     641                    ;----------------------------------------------------------------------
     642 0000007a 9202              STR       A3, [SP, #8]          ; [DPU_V7M3_PIPE] |303|  ; [ORIG 16-BIT INS]
     643 0000007c 9101              STR       A2, [SP, #4]          ; [DPU_V7M3_PIPE] |303|  ; [ORIG 16-BIT INS]
     644 0000007e 9000              STR       A1, [SP, #0]          ; [DPU_V7M3_PIPE] |303|  ; [ORIG 16-BIT INS]
     645                            .dwpsn  file "../driverlib/lcd.c",line 323,column 5,is_stmt,isa 1
     646                    ;----------------------------------------------------------------------
     647                    ; 323 | ui32Val =                                                              
     648                    ; 324 |     (((uint32_t)(pTiming->ui8WSSetup) << LCD_LIDDCS0CFG_WRSU_S) |      
     649                    ; 325 |      ((uint32_t)(pTiming->ui8WSDuration) << LCD_LIDDCS0CFG_WRDUR_S) |  
     650                    ; 326 |      ((uint32_t)(pTiming->ui8WSHold) << LCD_LIDDCS0CFG_WRHOLD_S) |     
     651                    ; 327 |      ((uint32_t)(pTiming->ui8RSSetup) << LCD_LIDDCS0CFG_RDSU_S) |      
     652                    ; 328 |      ((uint32_t)(pTiming->ui8RSDuration) << LCD_LIDDCS0CFG_RDDUR_S) |  
     653                    ; 329 |      ((uint32_t)(pTiming->ui8RSHold) << LCD_LIDDCS0CFG_RDHOLD_S) |     
     654                    ; 330 |      ((uint32_t)(pTiming->ui8DelayCycles - 1) << LCD_LIDDCS0CFG_GAP_S))
     655                    ;     | ;                                                                      
     656                    ; 332 | //                                                                     
     657                    ; 333 | // Write the appropriate LCD LIDD CS configuration register.           
     658                    ; 334 | //                                                                     
     659                    ;----------------------------------------------------------------------
     660 00000080 9802              LDR       A1, [SP, #8]          ; [DPU_V7M3_PIPE] |323|  ; [ORIG 16-BIT INS]
TI ARM Assembler Unix v18.1.1 Fri Jul  3 20:08:25 2020

Tools Copyright (c) 1996-2017 Texas Instruments Incorporated
lcd.asm                                                              PAGE   13

     661 00000082 9E02              LDR       V3, [SP, #8]          ; [DPU_V7M3_PIPE] |323|  ; [ORIG 16-BIT INS]
     662 00000084 9D02              LDR       V2, [SP, #8]          ; [DPU_V7M3_PIPE] |323|  ; [ORIG 16-BIT INS]
     663 00000086 9902              LDR       A2, [SP, #8]          ; [DPU_V7M3_PIPE] |323|  ; [ORIG 16-BIT INS]
     664 00000088 9C02              LDR       V1, [SP, #8]          ; [DPU_V7M3_PIPE] |323|  ; [ORIG 16-BIT INS]
     665 0000008a 9B02              LDR       A4, [SP, #8]          ; [DPU_V7M3_PIPE] |323|  ; [ORIG 16-BIT INS]
     666 0000008c 9A02              LDR       A3, [SP, #8]          ; [DPU_V7M3_PIPE] |323|  ; [ORIG 16-BIT INS]
     667 0000008e 7800              LDRB      A1, [A1, #0]          ; [DPU_V7M3_PIPE] |323|  ; [ORIG 16-BIT INS]
     668 00000090 7876              LDRB      V3, [V3, #1]          ; [DPU_V7M3_PIPE] |323|  ; [ORIG 16-BIT INS]
     669 00000092 7989              LDRB      A2, [A2, #6]          ; [DPU_V7M3_PIPE] |323|  ; [ORIG 16-BIT INS]
     670 00000094 78AD              LDRB      V2, [V2, #2]          ; [DPU_V7M3_PIPE] |323|  ; [ORIG 16-BIT INS]
     671 00000096 78E4              LDRB      V1, [V1, #3]          ; [DPU_V7M3_PIPE] |323|  ; [ORIG 16-BIT INS]
     672 00000098 791B              LDRB      A4, [A4, #4]          ; [DPU_V7M3_PIPE] |323|  ; [ORIG 16-BIT INS]
     673 0000009a 7952              LDRB      A3, [A3, #5]          ; [DPU_V7M3_PIPE] |323|  ; [ORIG 16-BIT INS]
     674 0000009c 06C0              LSLS      A1, A1, #27           ; [DPU_V7M3_PIPE] |323|  ; [ORIG 16-BIT INS]
     675 0000009e 1E49              SUBS      A2, A2, #1            ; [DPU_V7M3_PIPE] |323|  ; [ORIG 16-BIT INS]
     676 000000a0 5046EA40          ORR       A1, A1, V3, LSL #21   ; [DPU_V7M3_PIPE] |323|  ; [KEEP 32-BIT INS]
     677 000000a4 4045EA40          ORR       A1, A1, V2, LSL #17   ; [DPU_V7M3_PIPE] |323|  ; [KEEP 32-BIT INS]
     678 000000a8 3004EA40          ORR       A1, A1, V1, LSL #12   ; [DPU_V7M3_PIPE] |323|  ; [KEEP 32-BIT INS]
     679 000000ac 1083EA40          ORR       A1, A1, A4, LSL #6    ; [DPU_V7M3_PIPE] |323|  ; [KEEP 32-BIT INS]
     680 000000b0 0082EA40          ORR       A1, A1, A3, LSL #2    ; [DPU_V7M3_PIPE] |323|  ; [KEEP 32-BIT INS]
     681 000000b4 4301              ORRS      A2, A2, A1            ; [DPU_V7M3_PIPE] |323|  ; [ORIG 16-BIT INS]
     682 000000b6 9103              STR       A2, [SP, #12]         ; [DPU_V7M3_PIPE] |323|  ; [ORIG 16-BIT INS]
     683                            .dwpsn  file "../driverlib/lcd.c",line 335,column 5,is_stmt,isa 1
     684                    ;----------------------------------------------------------------------
     685                    ; 335 | if(!ui32CS)                                                            
     686                    ;----------------------------------------------------------------------
     687 000000b8 9801              LDR       A1, [SP, #4]          ; [DPU_V7M3_PIPE] |335|  ; [ORIG 16-BIT INS]
     688 000000ba B918              CBNZ      A1, ||$C$L3||         ; []  ; [ORIG 16-BIT INS]
     689                            ; BRANCHCC OCCURS {||$C$L3||}    ; [] |335| 
     690                    ;* --------------------------------------------------------------------------*
     691                            .dwpsn  file "../driverlib/lcd.c",line 337,column 9,is_stmt,isa 1
     692                    ;----------------------------------------------------------------------
     693                    ; 337 | HWREG(ui32Base + LCD_O_LIDDCS0CFG) = ui32Val;                          
     694                    ;----------------------------------------------------------------------
     695 000000bc 9803              LDR       A1, [SP, #12]         ; [DPU_V7M3_PIPE] |337|  ; [ORIG 16-BIT INS]
     696 000000be 9900              LDR       A2, [SP, #0]          ; [DPU_V7M3_PIPE] |337|  ; [ORIG 16-BIT INS]
     697 000000c0 6108              STR       A1, [A2, #16]         ; [DPU_V7M3_PIPE] |337|  ; [ORIG 16-BIT INS]
     698                            .dwpsn  file "../driverlib/lcd.c",line 338,column 5,is_stmt,isa 1
     699                    ;----------------------------------------------------------------------
     700                    ; 339 | else                                                                   
     701                    ;----------------------------------------------------------------------
     702 000000c2 E002              B         ||$C$L4||             ; [DPU_V7M3_PIPE] |338|  ; [ORIG 16-BIT INS]
     703                            ; BRANCH OCCURS {||$C$L4||}      ; [] |338| 
     704                    ;* --------------------------------------------------------------------------*
     705 000000c4           ||$C$L3||:    
     706                            .dwpsn  file "../driverlib/lcd.c",line 341,column 9,is_stmt,isa 1
     707                    ;----------------------------------------------------------------------
     708                    ; 341 | HWREG(ui32Base + LCD_O_LIDDCS1CFG) = ui32Val;                          
     709                    ;----------------------------------------------------------------------
     710 000000c4 9803              LDR       A1, [SP, #12]         ; [DPU_V7M3_PIPE] |341|  ; [ORIG 16-BIT INS]
     711 000000c6 9900              LDR       A2, [SP, #0]          ; [DPU_V7M3_PIPE] |341|  ; [ORIG 16-BIT INS]
     712 000000c8 61C8              STR       A1, [A2, #28]         ; [DPU_V7M3_PIPE] |341|  ; [ORIG 16-BIT INS]
     713                            .dwpsn  file "../driverlib/lcd.c",line 343,column 1,is_stmt,isa 1
     714                    ;* --------------------------------------------------------------------------*
     715 000000ca           ||$C$L4||:    
TI ARM Assembler Unix v18.1.1 Fri Jul  3 20:08:25 2020

Tools Copyright (c) 1996-2017 Texas Instruments Incorporated
lcd.asm                                                              PAGE   14

     716 000000ca 9000              STR       A1, [SP, #0]          ; [DPU_V7M3_PIPE]  ; [ORIG 16-BIT INS]
     717                    $C$DW$45        .dwtag  DW_TAG_TI_branch
     718                            .dwattr $C$DW$45, DW_AT_low_pc(0x00)
     719                            .dwattr $C$DW$45, DW_AT_TI_return
     720                    
     721 000000cc BD7F              POP       {A1, A2, A3, A4, V1, V2, V3, PC} ; [DPU_V7M3_PIPE]  ; [ORIG 16-BIT INS]
     722                            .dwcfi  cfa_offset, 0
     723                            .dwcfi  restore_reg, 6
     724                            .dwcfi  restore_reg, 5
     725                            .dwcfi  restore_reg, 4
     726                            .dwcfi  restore_reg, 3
     727                            .dwcfi  restore_reg, 2
     728                            .dwcfi  restore_reg, 1
     729                            .dwcfi  restore_reg, 0
     730                            ; BRANCH OCCURS                  ; [] 
     731                            .dwattr $C$DW$37, DW_AT_TI_end_file("../driverlib/lcd.c")
     732                            .dwattr $C$DW$37, DW_AT_TI_end_line(0x157)
     733                            .dwattr $C$DW$37, DW_AT_TI_end_column(0x01)
     734                            .dwendentry
     735                            .dwendtag $C$DW$37
     736                    
     737 000000ce                   .sect   ".text"
     738                            .clink
     739                            .thumbfunc LCDIDDDMADisable
     740 000000ce                   .thumb
     741                            .global LCDIDDDMADisable
     742                    
     743                    $C$DW$46        .dwtag  DW_TAG_subprogram
     744                            .dwattr $C$DW$46, DW_AT_name("LCDIDDDMADisable")
     745                            .dwattr $C$DW$46, DW_AT_low_pc(LCDIDDDMADisable)
     746                            .dwattr $C$DW$46, DW_AT_high_pc(0x00)
     747                            .dwattr $C$DW$46, DW_AT_TI_symbol_name("LCDIDDDMADisable")
     748                            .dwattr $C$DW$46, DW_AT_external
     749                            .dwattr $C$DW$46, DW_AT_TI_begin_file("../driverlib/lcd.c")
     750                            .dwattr $C$DW$46, DW_AT_TI_begin_line(0x16c)
     751                            .dwattr $C$DW$46, DW_AT_TI_begin_column(0x01)
     752                            .dwattr $C$DW$46, DW_AT_decl_file("../driverlib/lcd.c")
     753                            .dwattr $C$DW$46, DW_AT_decl_line(0x16c)
     754                            .dwattr $C$DW$46, DW_AT_decl_column(0x01)
     755                            .dwattr $C$DW$46, DW_AT_TI_max_frame_size(0x08)
     756                            .dwpsn  file "../driverlib/lcd.c",line 365,column 1,is_stmt,address LCDIDDDMADisable,isa 1
     757                    
     758                            .dwfde $C$DW$CIE, LCDIDDDMADisable
     759                    $C$DW$47        .dwtag  DW_TAG_formal_parameter
     760                            .dwattr $C$DW$47, DW_AT_name("ui32Base")
     761                            .dwattr $C$DW$47, DW_AT_TI_symbol_name("ui32Base")
     762                            .dwattr $C$DW$47, DW_AT_type(*$C$DW$T$25)
     763                            .dwattr $C$DW$47, DW_AT_location[DW_OP_reg0]
     764                    
     765                    ;----------------------------------------------------------------------
     766                    ; 364 | LCDIDDDMADisable(uint32_t ui32Base)                                    
     767                    ;----------------------------------------------------------------------
     768                    
     769                    ;*****************************************************************************
     770                    ;* FUNCTION NAME: LCDIDDDMADisable                                           *
TI ARM Assembler Unix v18.1.1 Fri Jul  3 20:08:25 2020

Tools Copyright (c) 1996-2017 Texas Instruments Incorporated
lcd.asm                                                              PAGE   15

     771                    ;*                                                                           *
     772                    ;*   Regs Modified     : A1,A2,SP,SR                                         *
     773                    ;*   Regs Used         : A1,A2,SP,LR,SR                                      *
     774                    ;*   Local Frame Size  : 0 Args + 4 Auto + 0 Save = 4 byte                   *
     775                    ;*****************************************************************************
     776 000000ce           LCDIDDDMADisable:
     777                    ;* --------------------------------------------------------------------------*
     778                            .dwcfi  cfa_offset, 0
     779 000000ce 0D08F1AD          SUB       SP, SP, #8            ; [DPU_V7M3_PIPE]  ; [KEEP 32-BIT INS]
     780                            .dwcfi  cfa_offset, 8
     781                    $C$DW$48        .dwtag  DW_TAG_variable
     782                            .dwattr $C$DW$48, DW_AT_name("ui32Base")
     783                            .dwattr $C$DW$48, DW_AT_TI_symbol_name("ui32Base")
     784                            .dwattr $C$DW$48, DW_AT_type(*$C$DW$T$25)
     785                            .dwattr $C$DW$48, DW_AT_location[DW_OP_breg13 0]
     786                    
     787                    ;----------------------------------------------------------------------
     788                    ; 366 | //                                                                     
     789                    ; 367 | // Sanity check parameters.                                            
     790                    ; 368 | //                                                                     
     791                    ; 369 | ASSERT(ui32Base == LCD0_BASE);                                         
     792                    ; 371 | //                                                                     
     793                    ; 372 | // Disable DMA.                                                        
     794                    ; 373 | //                                                                     
     795                    ;----------------------------------------------------------------------
     796 000000d2 9000              STR       A1, [SP, #0]          ; [DPU_V7M3_PIPE] |365|  ; [ORIG 16-BIT INS]
     797                            .dwpsn  file "../driverlib/lcd.c",line 374,column 5,is_stmt,isa 1
     798                    ;----------------------------------------------------------------------
     799                    ; 374 | HWREG(ui32Base + LCD_O_LIDDCTL) &= ~LCD_LIDDCTL_DMAEN;                 
     800                    ;----------------------------------------------------------------------
     801 000000d4 9800              LDR       A1, [SP, #0]          ; [DPU_V7M3_PIPE] |374|  ; [ORIG 16-BIT INS]
     802 000000d6 300C              ADDS      A1, A1, #12           ; [DPU_V7M3_PIPE] |374|  ; [ORIG 16-BIT INS]
     803 000000d8 6801              LDR       A2, [A1, #0]          ; [DPU_V7M3_PIPE] |374|  ; [ORIG 16-BIT INS]
     804 000000da 7180F421          BIC       A2, A2, #256          ; [DPU_V7M3_PIPE] |374|  ; [KEEP 32-BIT INS]
     805 000000de 6001              STR       A2, [A1, #0]          ; [DPU_V7M3_PIPE] |374|  ; [ORIG 16-BIT INS]
     806                            .dwpsn  file "../driverlib/lcd.c",line 375,column 1,is_stmt,isa 1
     807 000000e0 B002              ADD       SP, SP, #8            ; [DPU_V7M3_PIPE]  ; [ORIG 16-BIT INS]
     808                            .dwcfi  cfa_offset, 0
     809                    $C$DW$49        .dwtag  DW_TAG_TI_branch
     810                            .dwattr $C$DW$49, DW_AT_low_pc(0x00)
     811                            .dwattr $C$DW$49, DW_AT_TI_return
     812                    
     813 000000e2 4770              BX        LR                    ; [DPU_V7M3_PIPE]  ; [ORIG 16-BIT INS]
     814                            ; BRANCH OCCURS                  ; [] 
     815                            .dwattr $C$DW$46, DW_AT_TI_end_file("../driverlib/lcd.c")
     816                            .dwattr $C$DW$46, DW_AT_TI_end_line(0x177)
     817                            .dwattr $C$DW$46, DW_AT_TI_end_column(0x01)
     818                            .dwendentry
     819                            .dwendtag $C$DW$46
     820                    
     821 000000e4                   .sect   ".text"
     822                            .clink
     823                            .thumbfunc LCDIDDCommandWrite
     824 000000e4                   .thumb
     825                            .global LCDIDDCommandWrite
TI ARM Assembler Unix v18.1.1 Fri Jul  3 20:08:25 2020

Tools Copyright (c) 1996-2017 Texas Instruments Incorporated
lcd.asm                                                              PAGE   16

     826                    
     827                    $C$DW$50        .dwtag  DW_TAG_subprogram
     828                            .dwattr $C$DW$50, DW_AT_name("LCDIDDCommandWrite")
     829                            .dwattr $C$DW$50, DW_AT_low_pc(LCDIDDCommandWrite)
     830                            .dwattr $C$DW$50, DW_AT_high_pc(0x00)
     831                            .dwattr $C$DW$50, DW_AT_TI_symbol_name("LCDIDDCommandWrite")
     832                            .dwattr $C$DW$50, DW_AT_external
     833                            .dwattr $C$DW$50, DW_AT_TI_begin_file("../driverlib/lcd.c")
     834                            .dwattr $C$DW$50, DW_AT_TI_begin_line(0x191)
     835                            .dwattr $C$DW$50, DW_AT_TI_begin_column(0x01)
     836                            .dwattr $C$DW$50, DW_AT_decl_file("../driverlib/lcd.c")
     837                            .dwattr $C$DW$50, DW_AT_decl_line(0x191)
     838                            .dwattr $C$DW$50, DW_AT_decl_column(0x01)
     839                            .dwattr $C$DW$50, DW_AT_TI_max_frame_size(0x10)
     840                            .dwpsn  file "../driverlib/lcd.c",line 402,column 1,is_stmt,address LCDIDDCommandWrite,isa 1
     841                    
     842                            .dwfde $C$DW$CIE, LCDIDDCommandWrite
     843                    $C$DW$51        .dwtag  DW_TAG_formal_parameter
     844                            .dwattr $C$DW$51, DW_AT_name("ui32Base")
     845                            .dwattr $C$DW$51, DW_AT_TI_symbol_name("ui32Base")
     846                            .dwattr $C$DW$51, DW_AT_type(*$C$DW$T$25)
     847                            .dwattr $C$DW$51, DW_AT_location[DW_OP_reg0]
     848                    
     849                    $C$DW$52        .dwtag  DW_TAG_formal_parameter
     850                            .dwattr $C$DW$52, DW_AT_name("ui32CS")
     851                            .dwattr $C$DW$52, DW_AT_TI_symbol_name("ui32CS")
     852                            .dwattr $C$DW$52, DW_AT_type(*$C$DW$T$25)
     853                            .dwattr $C$DW$52, DW_AT_location[DW_OP_reg1]
     854                    
     855                    $C$DW$53        .dwtag  DW_TAG_formal_parameter
     856                            .dwattr $C$DW$53, DW_AT_name("ui16Cmd")
     857                            .dwattr $C$DW$53, DW_AT_TI_symbol_name("ui16Cmd")
     858                            .dwattr $C$DW$53, DW_AT_type(*$C$DW$T$27)
     859                            .dwattr $C$DW$53, DW_AT_location[DW_OP_reg2]
     860                    
     861                    ;----------------------------------------------------------------------
     862                    ; 401 | LCDIDDCommandWrite(uint32_t ui32Base, uint32_t ui32CS, uint16_t ui16Cmd
     863                    ;     | )                                                                      
     864                    ;----------------------------------------------------------------------
     865                    
     866                    ;*****************************************************************************
     867                    ;* FUNCTION NAME: LCDIDDCommandWrite                                         *
     868                    ;*                                                                           *
     869                    ;*   Regs Modified     : A1,A2,A3,SP,SR                                      *
     870                    ;*   Regs Used         : A1,A2,A3,SP,LR,SR                                   *
     871                    ;*   Local Frame Size  : 0 Args + 16 Auto + 0 Save = 16 byte                 *
     872                    ;*****************************************************************************
     873 000000e4           LCDIDDCommandWrite:
     874                    ;* --------------------------------------------------------------------------*
     875                            .dwcfi  cfa_offset, 0
     876 000000e4 0D10F1AD          SUB       SP, SP, #16           ; [DPU_V7M3_PIPE]  ; [KEEP 32-BIT INS]
     877                            .dwcfi  cfa_offset, 16
     878                    $C$DW$54        .dwtag  DW_TAG_variable
     879                            .dwattr $C$DW$54, DW_AT_name("ui32Base")
     880                            .dwattr $C$DW$54, DW_AT_TI_symbol_name("ui32Base")
TI ARM Assembler Unix v18.1.1 Fri Jul  3 20:08:25 2020

Tools Copyright (c) 1996-2017 Texas Instruments Incorporated
lcd.asm                                                              PAGE   17

     881                            .dwattr $C$DW$54, DW_AT_type(*$C$DW$T$25)
     882                            .dwattr $C$DW$54, DW_AT_location[DW_OP_breg13 0]
     883                    
     884                    $C$DW$55        .dwtag  DW_TAG_variable
     885                            .dwattr $C$DW$55, DW_AT_name("ui32CS")
     886                            .dwattr $C$DW$55, DW_AT_TI_symbol_name("ui32CS")
     887                            .dwattr $C$DW$55, DW_AT_type(*$C$DW$T$25)
     888                            .dwattr $C$DW$55, DW_AT_location[DW_OP_breg13 4]
     889                    
     890                    $C$DW$56        .dwtag  DW_TAG_variable
     891                            .dwattr $C$DW$56, DW_AT_name("ui32Reg")
     892                            .dwattr $C$DW$56, DW_AT_TI_symbol_name("ui32Reg")
     893                            .dwattr $C$DW$56, DW_AT_type(*$C$DW$T$25)
     894                            .dwattr $C$DW$56, DW_AT_location[DW_OP_breg13 8]
     895                    
     896                    $C$DW$57        .dwtag  DW_TAG_variable
     897                            .dwattr $C$DW$57, DW_AT_name("ui16Cmd")
     898                            .dwattr $C$DW$57, DW_AT_TI_symbol_name("ui16Cmd")
     899                            .dwattr $C$DW$57, DW_AT_type(*$C$DW$T$27)
     900                            .dwattr $C$DW$57, DW_AT_location[DW_OP_breg13 12]
     901                    
     902                    ;----------------------------------------------------------------------
     903                    ; 403 | uint32_t ui32Reg;                                                      
     904                    ; 405 | //                                                                     
     905                    ; 406 | // Sanity check parameters.                                            
     906                    ; 407 | //                                                                     
     907                    ; 408 | ASSERT(ui32Base == LCD0_BASE);                                         
     908                    ; 409 | ASSERT((ui32CS == 0) || (ui32CS == 1));                                
     909                    ; 411 | //                                                                     
     910                    ; 412 | // Determine the register to write based on the CS value supplied.     
     911                    ; 413 | //                                                                     
     912                    ;----------------------------------------------------------------------
     913 000000e8 200CF8AD          STRH      A3, [SP, #12]         ; [DPU_V7M3_PIPE] |402|  ; [KEEP 32-BIT INS]
     914 000000ec 9101              STR       A2, [SP, #4]          ; [DPU_V7M3_PIPE] |402|  ; [ORIG 16-BIT INS]
     915 000000ee 9000              STR       A1, [SP, #0]          ; [DPU_V7M3_PIPE] |402|  ; [ORIG 16-BIT INS]
     916                            .dwpsn  file "../driverlib/lcd.c",line 414,column 5,is_stmt,isa 1
     917                    ;----------------------------------------------------------------------
     918                    ; 414 | ui32Reg = ui32CS ? LCD_O_LIDDCS1ADDR : LCD_O_LIDDCS0ADDR;              
     919                    ; 416 | //                                                                     
     920                    ; 417 | // Write the command/address to the register.                          
     921                    ; 418 | //                                                                     
     922                    ;----------------------------------------------------------------------
     923 000000f0 9801              LDR       A1, [SP, #4]          ; [DPU_V7M3_PIPE] |414|  ; [ORIG 16-BIT INS]
     924 000000f2 B108              CBZ       A1, ||$C$L5||         ; []  ; [ORIG 16-BIT INS]
     925                            ; BRANCHCC OCCURS {||$C$L5||}    ; [] |414| 
     926                    ;* --------------------------------------------------------------------------*
     927 000000f4 2020              MOVS      A1, #32               ; [DPU_V7M3_PIPE] |414|  ; [ORIG 16-BIT INS]
     928 000000f6 E000              B         ||$C$L6||             ; [DPU_V7M3_PIPE] |414|  ; [ORIG 16-BIT INS]
     929                            ; BRANCH OCCURS {||$C$L6||}      ; [] |414| 
     930                    ;* --------------------------------------------------------------------------*
     931 000000f8           ||$C$L5||:    
     932 000000f8 2014              MOVS      A1, #20               ; [DPU_V7M3_PIPE] |414|  ; [ORIG 16-BIT INS]
     933                    ;* --------------------------------------------------------------------------*
     934 000000fa           ||$C$L6||:    
     935 000000fa 9002              STR       A1, [SP, #8]          ; [DPU_V7M3_PIPE] |414|  ; [ORIG 16-BIT INS]
TI ARM Assembler Unix v18.1.1 Fri Jul  3 20:08:25 2020

Tools Copyright (c) 1996-2017 Texas Instruments Incorporated
lcd.asm                                                              PAGE   18

     936                            .dwpsn  file "../driverlib/lcd.c",line 419,column 5,is_stmt,isa 1
     937                    ;----------------------------------------------------------------------
     938                    ; 419 | HWREG(ui32Base + ui32Reg) = ui16Cmd;                                   
     939                    ;----------------------------------------------------------------------
     940 000000fc 9900              LDR       A2, [SP, #0]          ; [DPU_V7M3_PIPE] |419|  ; [ORIG 16-BIT INS]
     941 000000fe 000CF8BD          LDRH      A1, [SP, #12]         ; [DPU_V7M3_PIPE] |419|  ; [KEEP 32-BIT INS]
     942 00000102 9A02              LDR       A3, [SP, #8]          ; [DPU_V7M3_PIPE] |419|  ; [ORIG 16-BIT INS]
     943 00000104 5050              STR       A1, [A3, +A2]         ; [DPU_V7M3_PIPE] |419|  ; [ORIG 16-BIT INS]
     944                            .dwpsn  file "../driverlib/lcd.c",line 420,column 1,is_stmt,isa 1
     945 00000106 B004              ADD       SP, SP, #16           ; [DPU_V7M3_PIPE]  ; [ORIG 16-BIT INS]
     946                            .dwcfi  cfa_offset, 0
     947                    $C$DW$58        .dwtag  DW_TAG_TI_branch
     948                            .dwattr $C$DW$58, DW_AT_low_pc(0x00)
     949                            .dwattr $C$DW$58, DW_AT_TI_return
     950                    
     951 00000108 4770              BX        LR                    ; [DPU_V7M3_PIPE]  ; [ORIG 16-BIT INS]
     952                            ; BRANCH OCCURS                  ; [] 
     953                            .dwattr $C$DW$50, DW_AT_TI_end_file("../driverlib/lcd.c")
     954                            .dwattr $C$DW$50, DW_AT_TI_end_line(0x1a4)
     955                            .dwattr $C$DW$50, DW_AT_TI_end_column(0x01)
     956                            .dwendentry
     957                            .dwendtag $C$DW$50
     958                    
     959 0000010a                   .sect   ".text"
     960                            .clink
     961                            .thumbfunc LCDIDDDataWrite
     962 0000010a                   .thumb
     963                            .global LCDIDDDataWrite
     964                    
     965                    $C$DW$59        .dwtag  DW_TAG_subprogram
     966                            .dwattr $C$DW$59, DW_AT_name("LCDIDDDataWrite")
     967                            .dwattr $C$DW$59, DW_AT_low_pc(LCDIDDDataWrite)
     968                            .dwattr $C$DW$59, DW_AT_high_pc(0x00)
     969                            .dwattr $C$DW$59, DW_AT_TI_symbol_name("LCDIDDDataWrite")
     970                            .dwattr $C$DW$59, DW_AT_external
     971                            .dwattr $C$DW$59, DW_AT_TI_begin_file("../driverlib/lcd.c")
     972                            .dwattr $C$DW$59, DW_AT_TI_begin_line(0x1be)
     973                            .dwattr $C$DW$59, DW_AT_TI_begin_column(0x01)
     974                            .dwattr $C$DW$59, DW_AT_decl_file("../driverlib/lcd.c")
     975                            .dwattr $C$DW$59, DW_AT_decl_line(0x1be)
     976                            .dwattr $C$DW$59, DW_AT_decl_column(0x01)
     977                            .dwattr $C$DW$59, DW_AT_TI_max_frame_size(0x10)
     978                            .dwpsn  file "../driverlib/lcd.c",line 447,column 1,is_stmt,address LCDIDDDataWrite,isa 1
     979                    
     980                            .dwfde $C$DW$CIE, LCDIDDDataWrite
     981                    $C$DW$60        .dwtag  DW_TAG_formal_parameter
     982                            .dwattr $C$DW$60, DW_AT_name("ui32Base")
     983                            .dwattr $C$DW$60, DW_AT_TI_symbol_name("ui32Base")
     984                            .dwattr $C$DW$60, DW_AT_type(*$C$DW$T$25)
     985                            .dwattr $C$DW$60, DW_AT_location[DW_OP_reg0]
     986                    
     987                    $C$DW$61        .dwtag  DW_TAG_formal_parameter
     988                            .dwattr $C$DW$61, DW_AT_name("ui32CS")
     989                            .dwattr $C$DW$61, DW_AT_TI_symbol_name("ui32CS")
     990                            .dwattr $C$DW$61, DW_AT_type(*$C$DW$T$25)
TI ARM Assembler Unix v18.1.1 Fri Jul  3 20:08:25 2020

Tools Copyright (c) 1996-2017 Texas Instruments Incorporated
lcd.asm                                                              PAGE   19

     991                            .dwattr $C$DW$61, DW_AT_location[DW_OP_reg1]
     992                    
     993                    $C$DW$62        .dwtag  DW_TAG_formal_parameter
     994                            .dwattr $C$DW$62, DW_AT_name("ui16Data")
     995                            .dwattr $C$DW$62, DW_AT_TI_symbol_name("ui16Data")
     996                            .dwattr $C$DW$62, DW_AT_type(*$C$DW$T$27)
     997                            .dwattr $C$DW$62, DW_AT_location[DW_OP_reg2]
     998                    
     999                    ;----------------------------------------------------------------------
    1000                    ; 446 | LCDIDDDataWrite(uint32_t ui32Base, uint32_t ui32CS, uint16_t ui16Data) 
    1001                    ;----------------------------------------------------------------------
    1002                    
    1003                    ;*****************************************************************************
    1004                    ;* FUNCTION NAME: LCDIDDDataWrite                                            *
    1005                    ;*                                                                           *
    1006                    ;*   Regs Modified     : A1,A2,A3,SP,SR                                      *
    1007                    ;*   Regs Used         : A1,A2,A3,SP,LR,SR                                   *
    1008                    ;*   Local Frame Size  : 0 Args + 16 Auto + 0 Save = 16 byte                 *
    1009                    ;*****************************************************************************
    1010 0000010a           LCDIDDDataWrite:
    1011                    ;* --------------------------------------------------------------------------*
    1012                            .dwcfi  cfa_offset, 0
    1013 0000010a 0D10F1AD          SUB       SP, SP, #16           ; [DPU_V7M3_PIPE]  ; [KEEP 32-BIT INS]
    1014                            .dwcfi  cfa_offset, 16
    1015                    $C$DW$63        .dwtag  DW_TAG_variable
    1016                            .dwattr $C$DW$63, DW_AT_name("ui32Base")
    1017                            .dwattr $C$DW$63, DW_AT_TI_symbol_name("ui32Base")
    1018                            .dwattr $C$DW$63, DW_AT_type(*$C$DW$T$25)
    1019                            .dwattr $C$DW$63, DW_AT_location[DW_OP_breg13 0]
    1020                    
    1021                    $C$DW$64        .dwtag  DW_TAG_variable
    1022                            .dwattr $C$DW$64, DW_AT_name("ui32CS")
    1023                            .dwattr $C$DW$64, DW_AT_TI_symbol_name("ui32CS")
    1024                            .dwattr $C$DW$64, DW_AT_type(*$C$DW$T$25)
    1025                            .dwattr $C$DW$64, DW_AT_location[DW_OP_breg13 4]
    1026                    
    1027                    $C$DW$65        .dwtag  DW_TAG_variable
    1028                            .dwattr $C$DW$65, DW_AT_name("ui32Reg")
    1029                            .dwattr $C$DW$65, DW_AT_TI_symbol_name("ui32Reg")
    1030                            .dwattr $C$DW$65, DW_AT_type(*$C$DW$T$25)
    1031                            .dwattr $C$DW$65, DW_AT_location[DW_OP_breg13 8]
    1032                    
    1033                    $C$DW$66        .dwtag  DW_TAG_variable
    1034                            .dwattr $C$DW$66, DW_AT_name("ui16Data")
    1035                            .dwattr $C$DW$66, DW_AT_TI_symbol_name("ui16Data")
    1036                            .dwattr $C$DW$66, DW_AT_type(*$C$DW$T$27)
    1037                            .dwattr $C$DW$66, DW_AT_location[DW_OP_breg13 12]
    1038                    
    1039                    ;----------------------------------------------------------------------
    1040                    ; 448 | uint32_t ui32Reg;                                                      
    1041                    ; 450 | //                                                                     
    1042                    ; 451 | // Sanity check parameters.                                            
    1043                    ; 452 | //                                                                     
    1044                    ; 453 | ASSERT(ui32Base == LCD0_BASE);                                         
    1045                    ; 454 | ASSERT((ui32CS == 0) || (ui32CS == 1));                                
TI ARM Assembler Unix v18.1.1 Fri Jul  3 20:08:25 2020

Tools Copyright (c) 1996-2017 Texas Instruments Incorporated
lcd.asm                                                              PAGE   20

    1046                    ; 456 | //                                                                     
    1047                    ; 457 | // Determine the register to write based on the CS value supplied.     
    1048                    ; 458 | //                                                                     
    1049                    ;----------------------------------------------------------------------
    1050 0000010e 200CF8AD          STRH      A3, [SP, #12]         ; [DPU_V7M3_PIPE] |447|  ; [KEEP 32-BIT INS]
    1051 00000112 9101              STR       A2, [SP, #4]          ; [DPU_V7M3_PIPE] |447|  ; [ORIG 16-BIT INS]
    1052 00000114 9000              STR       A1, [SP, #0]          ; [DPU_V7M3_PIPE] |447|  ; [ORIG 16-BIT INS]
    1053                            .dwpsn  file "../driverlib/lcd.c",line 459,column 5,is_stmt,isa 1
    1054                    ;----------------------------------------------------------------------
    1055                    ; 459 | ui32Reg = ui32CS ? LCD_O_LIDDCS1DATA : LCD_O_LIDDCS0DATA;              
    1056                    ; 461 | //                                                                     
    1057                    ; 462 | // Write the data value to the register.                               
    1058                    ; 463 | //                                                                     
    1059                    ;----------------------------------------------------------------------
    1060 00000116 9801              LDR       A1, [SP, #4]          ; [DPU_V7M3_PIPE] |459|  ; [ORIG 16-BIT INS]
    1061 00000118 B108              CBZ       A1, ||$C$L7||         ; []  ; [ORIG 16-BIT INS]
    1062                            ; BRANCHCC OCCURS {||$C$L7||}    ; [] |459| 
    1063                    ;* --------------------------------------------------------------------------*
    1064 0000011a 2024              MOVS      A1, #36               ; [DPU_V7M3_PIPE] |459|  ; [ORIG 16-BIT INS]
    1065 0000011c E000              B         ||$C$L8||             ; [DPU_V7M3_PIPE] |459|  ; [ORIG 16-BIT INS]
    1066                            ; BRANCH OCCURS {||$C$L8||}      ; [] |459| 
    1067                    ;* --------------------------------------------------------------------------*
    1068 0000011e           ||$C$L7||:    
    1069 0000011e 2018              MOVS      A1, #24               ; [DPU_V7M3_PIPE] |459|  ; [ORIG 16-BIT INS]
    1070                    ;* --------------------------------------------------------------------------*
    1071 00000120           ||$C$L8||:    
    1072 00000120 9002              STR       A1, [SP, #8]          ; [DPU_V7M3_PIPE] |459|  ; [ORIG 16-BIT INS]
    1073                            .dwpsn  file "../driverlib/lcd.c",line 464,column 5,is_stmt,isa 1
    1074                    ;----------------------------------------------------------------------
    1075                    ; 464 | HWREG(ui32Base + ui32Reg) = ui16Data;                                  
    1076                    ;----------------------------------------------------------------------
    1077 00000122 9900              LDR       A2, [SP, #0]          ; [DPU_V7M3_PIPE] |464|  ; [ORIG 16-BIT INS]
    1078 00000124 000CF8BD          LDRH      A1, [SP, #12]         ; [DPU_V7M3_PIPE] |464|  ; [KEEP 32-BIT INS]
    1079 00000128 9A02              LDR       A3, [SP, #8]          ; [DPU_V7M3_PIPE] |464|  ; [ORIG 16-BIT INS]
    1080 0000012a 5050              STR       A1, [A3, +A2]         ; [DPU_V7M3_PIPE] |464|  ; [ORIG 16-BIT INS]
    1081                            .dwpsn  file "../driverlib/lcd.c",line 465,column 1,is_stmt,isa 1
    1082 0000012c B004              ADD       SP, SP, #16           ; [DPU_V7M3_PIPE]  ; [ORIG 16-BIT INS]
    1083                            .dwcfi  cfa_offset, 0
    1084                    $C$DW$67        .dwtag  DW_TAG_TI_branch
    1085                            .dwattr $C$DW$67, DW_AT_low_pc(0x00)
    1086                            .dwattr $C$DW$67, DW_AT_TI_return
    1087                    
    1088 0000012e 4770              BX        LR                    ; [DPU_V7M3_PIPE]  ; [ORIG 16-BIT INS]
    1089                            ; BRANCH OCCURS                  ; [] 
    1090                            .dwattr $C$DW$59, DW_AT_TI_end_file("../driverlib/lcd.c")
    1091                            .dwattr $C$DW$59, DW_AT_TI_end_line(0x1d1)
    1092                            .dwattr $C$DW$59, DW_AT_TI_end_column(0x01)
    1093                            .dwendentry
    1094                            .dwendtag $C$DW$59
    1095                    
    1096 00000130                   .sect   ".text"
    1097                            .clink
    1098                            .thumbfunc LCDIDDIndexedWrite
    1099 00000130                   .thumb
    1100                            .global LCDIDDIndexedWrite
TI ARM Assembler Unix v18.1.1 Fri Jul  3 20:08:25 2020

Tools Copyright (c) 1996-2017 Texas Instruments Incorporated
lcd.asm                                                              PAGE   21

    1101                    
    1102                    $C$DW$68        .dwtag  DW_TAG_subprogram
    1103                            .dwattr $C$DW$68, DW_AT_name("LCDIDDIndexedWrite")
    1104                            .dwattr $C$DW$68, DW_AT_low_pc(LCDIDDIndexedWrite)
    1105                            .dwattr $C$DW$68, DW_AT_high_pc(0x00)
    1106                            .dwattr $C$DW$68, DW_AT_TI_symbol_name("LCDIDDIndexedWrite")
    1107                            .dwattr $C$DW$68, DW_AT_external
    1108                            .dwattr $C$DW$68, DW_AT_TI_begin_file("../driverlib/lcd.c")
    1109                            .dwattr $C$DW$68, DW_AT_TI_begin_line(0x1f4)
    1110                            .dwattr $C$DW$68, DW_AT_TI_begin_column(0x01)
    1111                            .dwattr $C$DW$68, DW_AT_decl_file("../driverlib/lcd.c")
    1112                            .dwattr $C$DW$68, DW_AT_decl_line(0x1f4)
    1113                            .dwattr $C$DW$68, DW_AT_decl_column(0x01)
    1114                            .dwattr $C$DW$68, DW_AT_TI_max_frame_size(0x10)
    1115                            .dwpsn  file "../driverlib/lcd.c",line 502,column 1,is_stmt,address LCDIDDIndexedWrite,isa 1
    1116                    
    1117                            .dwfde $C$DW$CIE, LCDIDDIndexedWrite
    1118                    $C$DW$69        .dwtag  DW_TAG_formal_parameter
    1119                            .dwattr $C$DW$69, DW_AT_name("ui32Base")
    1120                            .dwattr $C$DW$69, DW_AT_TI_symbol_name("ui32Base")
    1121                            .dwattr $C$DW$69, DW_AT_type(*$C$DW$T$25)
    1122                            .dwattr $C$DW$69, DW_AT_location[DW_OP_reg0]
    1123                    
    1124                    $C$DW$70        .dwtag  DW_TAG_formal_parameter
    1125                            .dwattr $C$DW$70, DW_AT_name("ui32CS")
    1126                            .dwattr $C$DW$70, DW_AT_TI_symbol_name("ui32CS")
    1127                            .dwattr $C$DW$70, DW_AT_type(*$C$DW$T$25)
    1128                            .dwattr $C$DW$70, DW_AT_location[DW_OP_reg1]
    1129                    
    1130                    $C$DW$71        .dwtag  DW_TAG_formal_parameter
    1131                            .dwattr $C$DW$71, DW_AT_name("ui16Addr")
    1132                            .dwattr $C$DW$71, DW_AT_TI_symbol_name("ui16Addr")
    1133                            .dwattr $C$DW$71, DW_AT_type(*$C$DW$T$27)
    1134                            .dwattr $C$DW$71, DW_AT_location[DW_OP_reg2]
    1135                    
    1136                    $C$DW$72        .dwtag  DW_TAG_formal_parameter
    1137                            .dwattr $C$DW$72, DW_AT_name("ui16Data")
    1138                            .dwattr $C$DW$72, DW_AT_TI_symbol_name("ui16Data")
    1139                            .dwattr $C$DW$72, DW_AT_type(*$C$DW$T$27)
    1140                            .dwattr $C$DW$72, DW_AT_location[DW_OP_reg3]
    1141                    
    1142                    ;----------------------------------------------------------------------
    1143                    ; 500 | LCDIDDIndexedWrite(uint32_t ui32Base, uint32_t ui32CS, uint16_t ui16Add
    1144                    ;     | r,                                                                     
    1145                    ; 501 | uint16_t ui16Data)                                                     
    1146                    ;----------------------------------------------------------------------
    1147                    
    1148                    ;*****************************************************************************
    1149                    ;* FUNCTION NAME: LCDIDDIndexedWrite                                         *
    1150                    ;*                                                                           *
    1151                    ;*   Regs Modified     : A1,A2,A3,SP,SR                                      *
    1152                    ;*   Regs Used         : A1,A2,A3,A4,SP,LR,SR                                *
    1153                    ;*   Local Frame Size  : 0 Args + 16 Auto + 0 Save = 16 byte                 *
    1154                    ;*****************************************************************************
    1155 00000130           LCDIDDIndexedWrite:
TI ARM Assembler Unix v18.1.1 Fri Jul  3 20:08:25 2020

Tools Copyright (c) 1996-2017 Texas Instruments Incorporated
lcd.asm                                                              PAGE   22

    1156                    ;* --------------------------------------------------------------------------*
    1157                            .dwcfi  cfa_offset, 0
    1158 00000130 0D10F1AD          SUB       SP, SP, #16           ; [DPU_V7M3_PIPE]  ; [KEEP 32-BIT INS]
    1159                            .dwcfi  cfa_offset, 16
    1160                    $C$DW$73        .dwtag  DW_TAG_variable
    1161                            .dwattr $C$DW$73, DW_AT_name("ui32Base")
    1162                            .dwattr $C$DW$73, DW_AT_TI_symbol_name("ui32Base")
    1163                            .dwattr $C$DW$73, DW_AT_type(*$C$DW$T$25)
    1164                            .dwattr $C$DW$73, DW_AT_location[DW_OP_breg13 0]
    1165                    
    1166                    $C$DW$74        .dwtag  DW_TAG_variable
    1167                            .dwattr $C$DW$74, DW_AT_name("ui32CS")
    1168                            .dwattr $C$DW$74, DW_AT_TI_symbol_name("ui32CS")
    1169                            .dwattr $C$DW$74, DW_AT_type(*$C$DW$T$25)
    1170                            .dwattr $C$DW$74, DW_AT_location[DW_OP_breg13 4]
    1171                    
    1172                    $C$DW$75        .dwtag  DW_TAG_variable
    1173                            .dwattr $C$DW$75, DW_AT_name("ui32Addr")
    1174                            .dwattr $C$DW$75, DW_AT_TI_symbol_name("ui32Addr")
    1175                            .dwattr $C$DW$75, DW_AT_type(*$C$DW$T$25)
    1176                            .dwattr $C$DW$75, DW_AT_location[DW_OP_breg13 8]
    1177                    
    1178                    $C$DW$76        .dwtag  DW_TAG_variable
    1179                            .dwattr $C$DW$76, DW_AT_name("ui16Addr")
    1180                            .dwattr $C$DW$76, DW_AT_TI_symbol_name("ui16Addr")
    1181                            .dwattr $C$DW$76, DW_AT_type(*$C$DW$T$27)
    1182                            .dwattr $C$DW$76, DW_AT_location[DW_OP_breg13 12]
    1183                    
    1184                    $C$DW$77        .dwtag  DW_TAG_variable
    1185                            .dwattr $C$DW$77, DW_AT_name("ui16Data")
    1186                            .dwattr $C$DW$77, DW_AT_TI_symbol_name("ui16Data")
    1187                            .dwattr $C$DW$77, DW_AT_type(*$C$DW$T$27)
    1188                            .dwattr $C$DW$77, DW_AT_location[DW_OP_breg13 14]
    1189                    
    1190                    ;----------------------------------------------------------------------
    1191                    ; 503 | uint32_t ui32Addr;                                                     
    1192                    ; 505 | //                                                                     
    1193                    ; 506 | // Sanity check parameters.                                            
    1194                    ; 507 | //                                                                     
    1195                    ; 508 | ASSERT(ui32Base == LCD0_BASE);                                         
    1196                    ; 509 | ASSERT((ui32CS == 0) || (ui32CS == 1));                                
    1197                    ; 511 | //                                                                     
    1198                    ; 512 | // Determine the address register to write.                            
    1199                    ; 513 | //                                                                     
    1200                    ;----------------------------------------------------------------------
    1201 00000134 300EF8AD          STRH      A4, [SP, #14]         ; [DPU_V7M3_PIPE] |502|  ; [KEEP 32-BIT INS]
    1202 00000138 200CF8AD          STRH      A3, [SP, #12]         ; [DPU_V7M3_PIPE] |502|  ; [KEEP 32-BIT INS]
    1203 0000013c 9101              STR       A2, [SP, #4]          ; [DPU_V7M3_PIPE] |502|  ; [ORIG 16-BIT INS]
    1204 0000013e 9000              STR       A1, [SP, #0]          ; [DPU_V7M3_PIPE] |502|  ; [ORIG 16-BIT INS]
    1205                            .dwpsn  file "../driverlib/lcd.c",line 514,column 5,is_stmt,isa 1
    1206                    ;----------------------------------------------------------------------
    1207                    ; 514 | ui32Addr = ui32CS ? LCD_O_LIDDCS1ADDR : LCD_O_LIDDCS0ADDR;             
    1208                    ; 516 | //                                                                     
    1209                    ; 517 | // Write the address.                                                  
    1210                    ; 518 | //                                                                     
TI ARM Assembler Unix v18.1.1 Fri Jul  3 20:08:25 2020

Tools Copyright (c) 1996-2017 Texas Instruments Incorporated
lcd.asm                                                              PAGE   23

    1211                    ;----------------------------------------------------------------------
    1212 00000140 9801              LDR       A1, [SP, #4]          ; [DPU_V7M3_PIPE] |514|  ; [ORIG 16-BIT INS]
    1213 00000142 B108              CBZ       A1, ||$C$L9||         ; []  ; [ORIG 16-BIT INS]
    1214                            ; BRANCHCC OCCURS {||$C$L9||}    ; [] |514| 
    1215                    ;* --------------------------------------------------------------------------*
    1216 00000144 2020              MOVS      A1, #32               ; [DPU_V7M3_PIPE] |514|  ; [ORIG 16-BIT INS]
    1217 00000146 E000              B         ||$C$L10||            ; [DPU_V7M3_PIPE] |514|  ; [ORIG 16-BIT INS]
    1218                            ; BRANCH OCCURS {||$C$L10||}     ; [] |514| 
    1219                    ;* --------------------------------------------------------------------------*
    1220 00000148           ||$C$L9||:    
    1221 00000148 2014              MOVS      A1, #20               ; [DPU_V7M3_PIPE] |514|  ; [ORIG 16-BIT INS]
    1222                    ;* --------------------------------------------------------------------------*
    1223 0000014a           ||$C$L10||:    
    1224 0000014a 9002              STR       A1, [SP, #8]          ; [DPU_V7M3_PIPE] |514|  ; [ORIG 16-BIT INS]
    1225                            .dwpsn  file "../driverlib/lcd.c",line 519,column 5,is_stmt,isa 1
    1226                    ;----------------------------------------------------------------------
    1227                    ; 519 | HWREG(ui32Base + ui32Addr) = ui16Addr;                                 
    1228                    ; 521 | //                                                                     
    1229                    ; 522 | // Determine the data register to write.                               
    1230                    ; 523 | //                                                                     
    1231                    ;----------------------------------------------------------------------
    1232 0000014c 9900              LDR       A2, [SP, #0]          ; [DPU_V7M3_PIPE] |519|  ; [ORIG 16-BIT INS]
    1233 0000014e 000CF8BD          LDRH      A1, [SP, #12]         ; [DPU_V7M3_PIPE] |519|  ; [KEEP 32-BIT INS]
    1234 00000152 9A02              LDR       A3, [SP, #8]          ; [DPU_V7M3_PIPE] |519|  ; [ORIG 16-BIT INS]
    1235 00000154 5050              STR       A1, [A3, +A2]         ; [DPU_V7M3_PIPE] |519|  ; [ORIG 16-BIT INS]
    1236                            .dwpsn  file "../driverlib/lcd.c",line 524,column 5,is_stmt,isa 1
    1237                    ;----------------------------------------------------------------------
    1238                    ; 524 | ui32Addr = ui32CS ? LCD_O_LIDDCS1DATA : LCD_O_LIDDCS0DATA;             
    1239                    ; 526 | //                                                                     
    1240                    ; 527 | // Write the data.                                                     
    1241                    ; 528 | //                                                                     
    1242                    ;----------------------------------------------------------------------
    1243 00000156 9801              LDR       A1, [SP, #4]          ; [DPU_V7M3_PIPE] |524|  ; [ORIG 16-BIT INS]
    1244 00000158 B108              CBZ       A1, ||$C$L11||        ; []  ; [ORIG 16-BIT INS]
    1245                            ; BRANCHCC OCCURS {||$C$L11||}   ; [] |524| 
    1246                    ;* --------------------------------------------------------------------------*
    1247 0000015a 2024              MOVS      A1, #36               ; [DPU_V7M3_PIPE] |524|  ; [ORIG 16-BIT INS]
    1248 0000015c E000              B         ||$C$L12||            ; [DPU_V7M3_PIPE] |524|  ; [ORIG 16-BIT INS]
    1249                            ; BRANCH OCCURS {||$C$L12||}     ; [] |524| 
    1250                    ;* --------------------------------------------------------------------------*
    1251 0000015e           ||$C$L11||:    
    1252 0000015e 2018              MOVS      A1, #24               ; [DPU_V7M3_PIPE] |524|  ; [ORIG 16-BIT INS]
    1253                    ;* --------------------------------------------------------------------------*
    1254 00000160           ||$C$L12||:    
    1255 00000160 9002              STR       A1, [SP, #8]          ; [DPU_V7M3_PIPE] |524|  ; [ORIG 16-BIT INS]
    1256                            .dwpsn  file "../driverlib/lcd.c",line 529,column 5,is_stmt,isa 1
    1257                    ;----------------------------------------------------------------------
    1258                    ; 529 | HWREG(ui32Base + ui32Addr) = ui16Data;                                 
    1259                    ;----------------------------------------------------------------------
    1260 00000162 9900              LDR       A2, [SP, #0]          ; [DPU_V7M3_PIPE] |529|  ; [ORIG 16-BIT INS]
    1261 00000164 000EF8BD          LDRH      A1, [SP, #14]         ; [DPU_V7M3_PIPE] |529|  ; [KEEP 32-BIT INS]
    1262 00000168 9A02              LDR       A3, [SP, #8]          ; [DPU_V7M3_PIPE] |529|  ; [ORIG 16-BIT INS]
    1263 0000016a 5050              STR       A1, [A3, +A2]         ; [DPU_V7M3_PIPE] |529|  ; [ORIG 16-BIT INS]
    1264                            .dwpsn  file "../driverlib/lcd.c",line 530,column 1,is_stmt,isa 1
    1265 0000016c B004              ADD       SP, SP, #16           ; [DPU_V7M3_PIPE]  ; [ORIG 16-BIT INS]
TI ARM Assembler Unix v18.1.1 Fri Jul  3 20:08:25 2020

Tools Copyright (c) 1996-2017 Texas Instruments Incorporated
lcd.asm                                                              PAGE   24

    1266                            .dwcfi  cfa_offset, 0
    1267                    $C$DW$78        .dwtag  DW_TAG_TI_branch
    1268                            .dwattr $C$DW$78, DW_AT_low_pc(0x00)
    1269                            .dwattr $C$DW$78, DW_AT_TI_return
    1270                    
    1271 0000016e 4770              BX        LR                    ; [DPU_V7M3_PIPE]  ; [ORIG 16-BIT INS]
    1272                            ; BRANCH OCCURS                  ; [] 
    1273                            .dwattr $C$DW$68, DW_AT_TI_end_file("../driverlib/lcd.c")
    1274                            .dwattr $C$DW$68, DW_AT_TI_end_line(0x212)
    1275                            .dwattr $C$DW$68, DW_AT_TI_end_column(0x01)
    1276                            .dwendentry
    1277                            .dwendtag $C$DW$68
    1278                    
    1279 00000170                   .sect   ".text"
    1280                            .clink
    1281                            .thumbfunc LCDIDDStatusRead
    1282 00000170                   .thumb
    1283                            .global LCDIDDStatusRead
    1284                    
    1285                    $C$DW$79        .dwtag  DW_TAG_subprogram
    1286                            .dwattr $C$DW$79, DW_AT_name("LCDIDDStatusRead")
    1287                            .dwattr $C$DW$79, DW_AT_low_pc(LCDIDDStatusRead)
    1288                            .dwattr $C$DW$79, DW_AT_high_pc(0x00)
    1289                            .dwattr $C$DW$79, DW_AT_TI_symbol_name("LCDIDDStatusRead")
    1290                            .dwattr $C$DW$79, DW_AT_external
    1291                            .dwattr $C$DW$79, DW_AT_type(*$C$DW$T$27)
    1292                            .dwattr $C$DW$79, DW_AT_TI_begin_file("../driverlib/lcd.c")
    1293                            .dwattr $C$DW$79, DW_AT_TI_begin_line(0x22e)
    1294                            .dwattr $C$DW$79, DW_AT_TI_begin_column(0x01)
    1295                            .dwattr $C$DW$79, DW_AT_decl_file("../driverlib/lcd.c")
    1296                            .dwattr $C$DW$79, DW_AT_decl_line(0x22e)
    1297                            .dwattr $C$DW$79, DW_AT_decl_column(0x01)
    1298                            .dwattr $C$DW$79, DW_AT_TI_max_frame_size(0x10)
    1299                            .dwpsn  file "../driverlib/lcd.c",line 559,column 1,is_stmt,address LCDIDDStatusRead,isa 1
    1300                    
    1301                            .dwfde $C$DW$CIE, LCDIDDStatusRead
    1302                    $C$DW$80        .dwtag  DW_TAG_formal_parameter
    1303                            .dwattr $C$DW$80, DW_AT_name("ui32Base")
    1304                            .dwattr $C$DW$80, DW_AT_TI_symbol_name("ui32Base")
    1305                            .dwattr $C$DW$80, DW_AT_type(*$C$DW$T$25)
    1306                            .dwattr $C$DW$80, DW_AT_location[DW_OP_reg0]
    1307                    
    1308                    $C$DW$81        .dwtag  DW_TAG_formal_parameter
    1309                            .dwattr $C$DW$81, DW_AT_name("ui32CS")
    1310                            .dwattr $C$DW$81, DW_AT_TI_symbol_name("ui32CS")
    1311                            .dwattr $C$DW$81, DW_AT_type(*$C$DW$T$25)
    1312                            .dwattr $C$DW$81, DW_AT_location[DW_OP_reg1]
    1313                    
    1314                    ;----------------------------------------------------------------------
    1315                    ; 558 | LCDIDDStatusRead(uint32_t ui32Base, uint32_t ui32CS)                   
    1316                    ;----------------------------------------------------------------------
    1317                    
    1318                    ;*****************************************************************************
    1319                    ;* FUNCTION NAME: LCDIDDStatusRead                                           *
    1320                    ;*                                                                           *
TI ARM Assembler Unix v18.1.1 Fri Jul  3 20:08:25 2020

Tools Copyright (c) 1996-2017 Texas Instruments Incorporated
lcd.asm                                                              PAGE   25

    1321                    ;*   Regs Modified     : A1,A2,SP,SR                                         *
    1322                    ;*   Regs Used         : A1,A2,SP,LR,SR                                      *
    1323                    ;*   Local Frame Size  : 0 Args + 12 Auto + 0 Save = 12 byte                 *
    1324                    ;*****************************************************************************
    1325 00000170           LCDIDDStatusRead:
    1326                    ;* --------------------------------------------------------------------------*
    1327                            .dwcfi  cfa_offset, 0
    1328 00000170 0D10F1AD          SUB       SP, SP, #16           ; [DPU_V7M3_PIPE]  ; [KEEP 32-BIT INS]
    1329                            .dwcfi  cfa_offset, 16
    1330                    $C$DW$82        .dwtag  DW_TAG_variable
    1331                            .dwattr $C$DW$82, DW_AT_name("ui32Base")
    1332                            .dwattr $C$DW$82, DW_AT_TI_symbol_name("ui32Base")
    1333                            .dwattr $C$DW$82, DW_AT_type(*$C$DW$T$25)
    1334                            .dwattr $C$DW$82, DW_AT_location[DW_OP_breg13 0]
    1335                    
    1336                    $C$DW$83        .dwtag  DW_TAG_variable
    1337                            .dwattr $C$DW$83, DW_AT_name("ui32CS")
    1338                            .dwattr $C$DW$83, DW_AT_TI_symbol_name("ui32CS")
    1339                            .dwattr $C$DW$83, DW_AT_type(*$C$DW$T$25)
    1340                            .dwattr $C$DW$83, DW_AT_location[DW_OP_breg13 4]
    1341                    
    1342                    $C$DW$84        .dwtag  DW_TAG_variable
    1343                            .dwattr $C$DW$84, DW_AT_name("ui32Reg")
    1344                            .dwattr $C$DW$84, DW_AT_TI_symbol_name("ui32Reg")
    1345                            .dwattr $C$DW$84, DW_AT_type(*$C$DW$T$25)
    1346                            .dwattr $C$DW$84, DW_AT_location[DW_OP_breg13 8]
    1347                    
    1348                    ;----------------------------------------------------------------------
    1349                    ; 560 | uint32_t ui32Reg;                                                      
    1350                    ; 562 | //                                                                     
    1351                    ; 563 | // Sanity check parameters.                                            
    1352                    ; 564 | //                                                                     
    1353                    ; 565 | ASSERT(ui32Base == LCD0_BASE);                                         
    1354                    ; 566 | ASSERT((ui32CS == 0) || (ui32CS == 1));                                
    1355                    ; 568 | //                                                                     
    1356                    ; 569 | // Determine the register to read based on the CS value supplied.      
    1357                    ; 570 | //                                                                     
    1358                    ;----------------------------------------------------------------------
    1359 00000174 9101              STR       A2, [SP, #4]          ; [DPU_V7M3_PIPE] |559|  ; [ORIG 16-BIT INS]
    1360 00000176 9000              STR       A1, [SP, #0]          ; [DPU_V7M3_PIPE] |559|  ; [ORIG 16-BIT INS]
    1361                            .dwpsn  file "../driverlib/lcd.c",line 571,column 5,is_stmt,isa 1
    1362                    ;----------------------------------------------------------------------
    1363                    ; 571 | ui32Reg = ui32CS ? LCD_O_LIDDCS1ADDR : LCD_O_LIDDCS0ADDR;              
    1364                    ; 573 | //                                                                     
    1365                    ; 574 | // Read the relevant status register.                                  
    1366                    ; 575 | //                                                                     
    1367                    ;----------------------------------------------------------------------
    1368 00000178 9801              LDR       A1, [SP, #4]          ; [DPU_V7M3_PIPE] |571|  ; [ORIG 16-BIT INS]
    1369 0000017a B108              CBZ       A1, ||$C$L13||        ; []  ; [ORIG 16-BIT INS]
    1370                            ; BRANCHCC OCCURS {||$C$L13||}   ; [] |571| 
    1371                    ;* --------------------------------------------------------------------------*
    1372 0000017c 2020              MOVS      A1, #32               ; [DPU_V7M3_PIPE] |571|  ; [ORIG 16-BIT INS]
    1373 0000017e E000              B         ||$C$L14||            ; [DPU_V7M3_PIPE] |571|  ; [ORIG 16-BIT INS]
    1374                            ; BRANCH OCCURS {||$C$L14||}     ; [] |571| 
    1375                    ;* --------------------------------------------------------------------------*
TI ARM Assembler Unix v18.1.1 Fri Jul  3 20:08:25 2020

Tools Copyright (c) 1996-2017 Texas Instruments Incorporated
lcd.asm                                                              PAGE   26

    1376 00000180           ||$C$L13||:    
    1377 00000180 2014              MOVS      A1, #20               ; [DPU_V7M3_PIPE] |571|  ; [ORIG 16-BIT INS]
    1378                    ;* --------------------------------------------------------------------------*
    1379 00000182           ||$C$L14||:    
    1380 00000182 9002              STR       A1, [SP, #8]          ; [DPU_V7M3_PIPE] |571|  ; [ORIG 16-BIT INS]
    1381                            .dwpsn  file "../driverlib/lcd.c",line 576,column 5,is_stmt,isa 1
    1382                    ;----------------------------------------------------------------------
    1383                    ; 576 | return((uint16_t)HWREG(ui32Base + ui32Reg));                           
    1384                    ;----------------------------------------------------------------------
    1385 00000184 9800              LDR       A1, [SP, #0]          ; [DPU_V7M3_PIPE] |576|  ; [ORIG 16-BIT INS]
    1386 00000186 9902              LDR       A2, [SP, #8]          ; [DPU_V7M3_PIPE] |576|  ; [ORIG 16-BIT INS]
    1387 00000188 5808              LDR       A1, [A2, +A1]         ; [DPU_V7M3_PIPE] |576|  ; [ORIG 16-BIT INS]
    1388 0000018a B280              UXTH      A1, A1                ; [DPU_V7M3_PIPE] |576|  ; [ORIG 16-BIT INS]
    1389                            .dwpsn  file "../driverlib/lcd.c",line 577,column 1,is_stmt,isa 1
    1390 0000018c B004              ADD       SP, SP, #16           ; [DPU_V7M3_PIPE]  ; [ORIG 16-BIT INS]
    1391                            .dwcfi  cfa_offset, 0
    1392                    $C$DW$85        .dwtag  DW_TAG_TI_branch
    1393                            .dwattr $C$DW$85, DW_AT_low_pc(0x00)
    1394                            .dwattr $C$DW$85, DW_AT_TI_return
    1395                    
    1396 0000018e 4770              BX        LR                    ; [DPU_V7M3_PIPE]  ; [ORIG 16-BIT INS]
    1397                            ; BRANCH OCCURS                  ; [] 
    1398                            .dwattr $C$DW$79, DW_AT_TI_end_file("../driverlib/lcd.c")
    1399                            .dwattr $C$DW$79, DW_AT_TI_end_line(0x241)
    1400                            .dwattr $C$DW$79, DW_AT_TI_end_column(0x01)
    1401                            .dwendentry
    1402                            .dwendtag $C$DW$79
    1403                    
    1404 00000190                   .sect   ".text"
    1405                            .clink
    1406                            .thumbfunc LCDIDDDataRead
    1407 00000190                   .thumb
    1408                            .global LCDIDDDataRead
    1409                    
    1410                    $C$DW$86        .dwtag  DW_TAG_subprogram
    1411                            .dwattr $C$DW$86, DW_AT_name("LCDIDDDataRead")
    1412                            .dwattr $C$DW$86, DW_AT_low_pc(LCDIDDDataRead)
    1413                            .dwattr $C$DW$86, DW_AT_high_pc(0x00)
    1414                            .dwattr $C$DW$86, DW_AT_TI_symbol_name("LCDIDDDataRead")
    1415                            .dwattr $C$DW$86, DW_AT_external
    1416                            .dwattr $C$DW$86, DW_AT_type(*$C$DW$T$27)
    1417                            .dwattr $C$DW$86, DW_AT_TI_begin_file("../driverlib/lcd.c")
    1418                            .dwattr $C$DW$86, DW_AT_TI_begin_line(0x25b)
    1419                            .dwattr $C$DW$86, DW_AT_TI_begin_column(0x01)
    1420                            .dwattr $C$DW$86, DW_AT_decl_file("../driverlib/lcd.c")
    1421                            .dwattr $C$DW$86, DW_AT_decl_line(0x25b)
    1422                            .dwattr $C$DW$86, DW_AT_decl_column(0x01)
    1423                            .dwattr $C$DW$86, DW_AT_TI_max_frame_size(0x10)
    1424                            .dwpsn  file "../driverlib/lcd.c",line 604,column 1,is_stmt,address LCDIDDDataRead,isa 1
    1425                    
    1426                            .dwfde $C$DW$CIE, LCDIDDDataRead
    1427                    $C$DW$87        .dwtag  DW_TAG_formal_parameter
    1428                            .dwattr $C$DW$87, DW_AT_name("ui32Base")
    1429                            .dwattr $C$DW$87, DW_AT_TI_symbol_name("ui32Base")
    1430                            .dwattr $C$DW$87, DW_AT_type(*$C$DW$T$25)
TI ARM Assembler Unix v18.1.1 Fri Jul  3 20:08:25 2020

Tools Copyright (c) 1996-2017 Texas Instruments Incorporated
lcd.asm                                                              PAGE   27

    1431                            .dwattr $C$DW$87, DW_AT_location[DW_OP_reg0]
    1432                    
    1433                    $C$DW$88        .dwtag  DW_TAG_formal_parameter
    1434                            .dwattr $C$DW$88, DW_AT_name("ui32CS")
    1435                            .dwattr $C$DW$88, DW_AT_TI_symbol_name("ui32CS")
    1436                            .dwattr $C$DW$88, DW_AT_type(*$C$DW$T$25)
    1437                            .dwattr $C$DW$88, DW_AT_location[DW_OP_reg1]
    1438                    
    1439                    ;----------------------------------------------------------------------
    1440                    ; 603 | LCDIDDDataRead(uint32_t ui32Base, uint32_t ui32CS)                     
    1441                    ;----------------------------------------------------------------------
    1442                    
    1443                    ;*****************************************************************************
    1444                    ;* FUNCTION NAME: LCDIDDDataRead                                             *
    1445                    ;*                                                                           *
    1446                    ;*   Regs Modified     : A1,A2,SP,SR                                         *
    1447                    ;*   Regs Used         : A1,A2,SP,LR,SR                                      *
    1448                    ;*   Local Frame Size  : 0 Args + 12 Auto + 0 Save = 12 byte                 *
    1449                    ;*****************************************************************************
    1450 00000190           LCDIDDDataRead:
    1451                    ;* --------------------------------------------------------------------------*
    1452                            .dwcfi  cfa_offset, 0
    1453 00000190 0D10F1AD          SUB       SP, SP, #16           ; [DPU_V7M3_PIPE]  ; [KEEP 32-BIT INS]
    1454                            .dwcfi  cfa_offset, 16
    1455                    $C$DW$89        .dwtag  DW_TAG_variable
    1456                            .dwattr $C$DW$89, DW_AT_name("ui32Base")
    1457                            .dwattr $C$DW$89, DW_AT_TI_symbol_name("ui32Base")
    1458                            .dwattr $C$DW$89, DW_AT_type(*$C$DW$T$25)
    1459                            .dwattr $C$DW$89, DW_AT_location[DW_OP_breg13 0]
    1460                    
    1461                    $C$DW$90        .dwtag  DW_TAG_variable
    1462                            .dwattr $C$DW$90, DW_AT_name("ui32CS")
    1463                            .dwattr $C$DW$90, DW_AT_TI_symbol_name("ui32CS")
    1464                            .dwattr $C$DW$90, DW_AT_type(*$C$DW$T$25)
    1465                            .dwattr $C$DW$90, DW_AT_location[DW_OP_breg13 4]
    1466                    
    1467                    $C$DW$91        .dwtag  DW_TAG_variable
    1468                            .dwattr $C$DW$91, DW_AT_name("ui32Reg")
    1469                            .dwattr $C$DW$91, DW_AT_TI_symbol_name("ui32Reg")
    1470                            .dwattr $C$DW$91, DW_AT_type(*$C$DW$T$25)
    1471                            .dwattr $C$DW$91, DW_AT_location[DW_OP_breg13 8]
    1472                    
    1473                    ;----------------------------------------------------------------------
    1474                    ; 605 | uint32_t ui32Reg;                                                      
    1475                    ; 607 | //                                                                     
    1476                    ; 608 | // Sanity check parameters.                                            
    1477                    ; 609 | //                                                                     
    1478                    ; 610 | ASSERT(ui32Base == LCD0_BASE);                                         
    1479                    ; 611 | ASSERT((ui32CS == 0) || (ui32CS == 1));                                
    1480                    ; 613 | //                                                                     
    1481                    ; 614 | // Determine the register to read based on the CS value supplied.      
    1482                    ; 615 | //                                                                     
    1483                    ;----------------------------------------------------------------------
    1484 00000194 9101              STR       A2, [SP, #4]          ; [DPU_V7M3_PIPE] |604|  ; [ORIG 16-BIT INS]
    1485 00000196 9000              STR       A1, [SP, #0]          ; [DPU_V7M3_PIPE] |604|  ; [ORIG 16-BIT INS]
TI ARM Assembler Unix v18.1.1 Fri Jul  3 20:08:25 2020

Tools Copyright (c) 1996-2017 Texas Instruments Incorporated
lcd.asm                                                              PAGE   28

    1486                            .dwpsn  file "../driverlib/lcd.c",line 616,column 5,is_stmt,isa 1
    1487                    ;----------------------------------------------------------------------
    1488                    ; 616 | ui32Reg = ui32CS ? LCD_O_LIDDCS1DATA : LCD_O_LIDDCS0DATA;              
    1489                    ; 618 | //                                                                     
    1490                    ; 619 | // Read the relevant data register.                                    
    1491                    ; 620 | //                                                                     
    1492                    ;----------------------------------------------------------------------
    1493 00000198 9801              LDR       A1, [SP, #4]          ; [DPU_V7M3_PIPE] |616|  ; [ORIG 16-BIT INS]
    1494 0000019a B108              CBZ       A1, ||$C$L15||        ; []  ; [ORIG 16-BIT INS]
    1495                            ; BRANCHCC OCCURS {||$C$L15||}   ; [] |616| 
    1496                    ;* --------------------------------------------------------------------------*
    1497 0000019c 2024              MOVS      A1, #36               ; [DPU_V7M3_PIPE] |616|  ; [ORIG 16-BIT INS]
    1498 0000019e E000              B         ||$C$L16||            ; [DPU_V7M3_PIPE] |616|  ; [ORIG 16-BIT INS]
    1499                            ; BRANCH OCCURS {||$C$L16||}     ; [] |616| 
    1500                    ;* --------------------------------------------------------------------------*
    1501 000001a0           ||$C$L15||:    
    1502 000001a0 2018              MOVS      A1, #24               ; [DPU_V7M3_PIPE] |616|  ; [ORIG 16-BIT INS]
    1503                    ;* --------------------------------------------------------------------------*
    1504 000001a2           ||$C$L16||:    
    1505 000001a2 9002              STR       A1, [SP, #8]          ; [DPU_V7M3_PIPE] |616|  ; [ORIG 16-BIT INS]
    1506                            .dwpsn  file "../driverlib/lcd.c",line 621,column 5,is_stmt,isa 1
    1507                    ;----------------------------------------------------------------------
    1508                    ; 621 | return((uint16_t)HWREG(ui32Base + ui32Reg));                           
    1509                    ;----------------------------------------------------------------------
    1510 000001a4 9800              LDR       A1, [SP, #0]          ; [DPU_V7M3_PIPE] |621|  ; [ORIG 16-BIT INS]
    1511 000001a6 9902              LDR       A2, [SP, #8]          ; [DPU_V7M3_PIPE] |621|  ; [ORIG 16-BIT INS]
    1512 000001a8 5808              LDR       A1, [A2, +A1]         ; [DPU_V7M3_PIPE] |621|  ; [ORIG 16-BIT INS]
    1513 000001aa B280              UXTH      A1, A1                ; [DPU_V7M3_PIPE] |621|  ; [ORIG 16-BIT INS]
    1514                            .dwpsn  file "../driverlib/lcd.c",line 622,column 1,is_stmt,isa 1
    1515 000001ac B004              ADD       SP, SP, #16           ; [DPU_V7M3_PIPE]  ; [ORIG 16-BIT INS]
    1516                            .dwcfi  cfa_offset, 0
    1517                    $C$DW$92        .dwtag  DW_TAG_TI_branch
    1518                            .dwattr $C$DW$92, DW_AT_low_pc(0x00)
    1519                            .dwattr $C$DW$92, DW_AT_TI_return
    1520                    
    1521 000001ae 4770              BX        LR                    ; [DPU_V7M3_PIPE]  ; [ORIG 16-BIT INS]
    1522                            ; BRANCH OCCURS                  ; [] 
    1523                            .dwattr $C$DW$86, DW_AT_TI_end_file("../driverlib/lcd.c")
    1524                            .dwattr $C$DW$86, DW_AT_TI_end_line(0x26e)
    1525                            .dwattr $C$DW$86, DW_AT_TI_end_column(0x01)
    1526                            .dwendentry
    1527                            .dwendtag $C$DW$86
    1528                    
    1529 000001b0                   .sect   ".text"
    1530                            .clink
    1531                            .thumbfunc LCDIDDIndexedRead
    1532 000001b0                   .thumb
    1533                            .global LCDIDDIndexedRead
    1534                    
    1535                    $C$DW$93        .dwtag  DW_TAG_subprogram
    1536                            .dwattr $C$DW$93, DW_AT_name("LCDIDDIndexedRead")
    1537                            .dwattr $C$DW$93, DW_AT_low_pc(LCDIDDIndexedRead)
    1538                            .dwattr $C$DW$93, DW_AT_high_pc(0x00)
    1539                            .dwattr $C$DW$93, DW_AT_TI_symbol_name("LCDIDDIndexedRead")
    1540                            .dwattr $C$DW$93, DW_AT_external
TI ARM Assembler Unix v18.1.1 Fri Jul  3 20:08:25 2020

Tools Copyright (c) 1996-2017 Texas Instruments Incorporated
lcd.asm                                                              PAGE   29

    1541                            .dwattr $C$DW$93, DW_AT_type(*$C$DW$T$27)
    1542                            .dwattr $C$DW$93, DW_AT_TI_begin_file("../driverlib/lcd.c")
    1543                            .dwattr $C$DW$93, DW_AT_TI_begin_line(0x28f)
    1544                            .dwattr $C$DW$93, DW_AT_TI_begin_column(0x01)
    1545                            .dwattr $C$DW$93, DW_AT_decl_file("../driverlib/lcd.c")
    1546                            .dwattr $C$DW$93, DW_AT_decl_line(0x28f)
    1547                            .dwattr $C$DW$93, DW_AT_decl_column(0x01)
    1548                            .dwattr $C$DW$93, DW_AT_TI_max_frame_size(0x10)
    1549                            .dwpsn  file "../driverlib/lcd.c",line 656,column 1,is_stmt,address LCDIDDIndexedRead,isa 1
    1550                    
    1551                            .dwfde $C$DW$CIE, LCDIDDIndexedRead
    1552                    $C$DW$94        .dwtag  DW_TAG_formal_parameter
    1553                            .dwattr $C$DW$94, DW_AT_name("ui32Base")
    1554                            .dwattr $C$DW$94, DW_AT_TI_symbol_name("ui32Base")
    1555                            .dwattr $C$DW$94, DW_AT_type(*$C$DW$T$25)
    1556                            .dwattr $C$DW$94, DW_AT_location[DW_OP_reg0]
    1557                    
    1558                    $C$DW$95        .dwtag  DW_TAG_formal_parameter
    1559                            .dwattr $C$DW$95, DW_AT_name("ui32CS")
    1560                            .dwattr $C$DW$95, DW_AT_TI_symbol_name("ui32CS")
    1561                            .dwattr $C$DW$95, DW_AT_type(*$C$DW$T$25)
    1562                            .dwattr $C$DW$95, DW_AT_location[DW_OP_reg1]
    1563                    
    1564                    $C$DW$96        .dwtag  DW_TAG_formal_parameter
    1565                            .dwattr $C$DW$96, DW_AT_name("ui16Addr")
    1566                            .dwattr $C$DW$96, DW_AT_TI_symbol_name("ui16Addr")
    1567                            .dwattr $C$DW$96, DW_AT_type(*$C$DW$T$27)
    1568                            .dwattr $C$DW$96, DW_AT_location[DW_OP_reg2]
    1569                    
    1570                    ;----------------------------------------------------------------------
    1571                    ; 655 | LCDIDDIndexedRead(uint32_t ui32Base, uint32_t ui32CS, uint16_t ui16Addr
    1572                    ;     | )                                                                      
    1573                    ;----------------------------------------------------------------------
    1574                    
    1575                    ;*****************************************************************************
    1576                    ;* FUNCTION NAME: LCDIDDIndexedRead                                          *
    1577                    ;*                                                                           *
    1578                    ;*   Regs Modified     : A1,A2,A3,SP,SR                                      *
    1579                    ;*   Regs Used         : A1,A2,A3,SP,LR,SR                                   *
    1580                    ;*   Local Frame Size  : 0 Args + 16 Auto + 0 Save = 16 byte                 *
    1581                    ;*****************************************************************************
    1582 000001b0           LCDIDDIndexedRead:
    1583                    ;* --------------------------------------------------------------------------*
    1584                            .dwcfi  cfa_offset, 0
    1585 000001b0 0D10F1AD          SUB       SP, SP, #16           ; [DPU_V7M3_PIPE]  ; [KEEP 32-BIT INS]
    1586                            .dwcfi  cfa_offset, 16
    1587                    $C$DW$97        .dwtag  DW_TAG_variable
    1588                            .dwattr $C$DW$97, DW_AT_name("ui32Base")
    1589                            .dwattr $C$DW$97, DW_AT_TI_symbol_name("ui32Base")
    1590                            .dwattr $C$DW$97, DW_AT_type(*$C$DW$T$25)
    1591                            .dwattr $C$DW$97, DW_AT_location[DW_OP_breg13 0]
    1592                    
    1593                    $C$DW$98        .dwtag  DW_TAG_variable
    1594                            .dwattr $C$DW$98, DW_AT_name("ui32CS")
    1595                            .dwattr $C$DW$98, DW_AT_TI_symbol_name("ui32CS")
TI ARM Assembler Unix v18.1.1 Fri Jul  3 20:08:25 2020

Tools Copyright (c) 1996-2017 Texas Instruments Incorporated
lcd.asm                                                              PAGE   30

    1596                            .dwattr $C$DW$98, DW_AT_type(*$C$DW$T$25)
    1597                            .dwattr $C$DW$98, DW_AT_location[DW_OP_breg13 4]
    1598                    
    1599                    $C$DW$99        .dwtag  DW_TAG_variable
    1600                            .dwattr $C$DW$99, DW_AT_name("ui32Addr")
    1601                            .dwattr $C$DW$99, DW_AT_TI_symbol_name("ui32Addr")
    1602                            .dwattr $C$DW$99, DW_AT_type(*$C$DW$T$25)
    1603                            .dwattr $C$DW$99, DW_AT_location[DW_OP_breg13 8]
    1604                    
    1605                    $C$DW$100       .dwtag  DW_TAG_variable
    1606                            .dwattr $C$DW$100, DW_AT_name("ui16Addr")
    1607                            .dwattr $C$DW$100, DW_AT_TI_symbol_name("ui16Addr")
    1608                            .dwattr $C$DW$100, DW_AT_type(*$C$DW$T$27)
    1609                            .dwattr $C$DW$100, DW_AT_location[DW_OP_breg13 12]
    1610                    
    1611                    ;----------------------------------------------------------------------
    1612                    ; 657 | uint32_t ui32Addr;                                                     
    1613                    ; 659 | //                                                                     
    1614                    ; 660 | // Sanity check parameters.                                            
    1615                    ; 661 | //                                                                     
    1616                    ; 662 | ASSERT(ui32Base == LCD0_BASE);                                         
    1617                    ; 663 | ASSERT((ui32CS == 0) || (ui32CS == 1));                                
    1618                    ; 665 | //                                                                     
    1619                    ; 666 | // Determine the address register to write.                            
    1620                    ; 667 | //                                                                     
    1621                    ;----------------------------------------------------------------------
    1622 000001b4 200CF8AD          STRH      A3, [SP, #12]         ; [DPU_V7M3_PIPE] |656|  ; [KEEP 32-BIT INS]
    1623 000001b8 9101              STR       A2, [SP, #4]          ; [DPU_V7M3_PIPE] |656|  ; [ORIG 16-BIT INS]
    1624 000001ba 9000              STR       A1, [SP, #0]          ; [DPU_V7M3_PIPE] |656|  ; [ORIG 16-BIT INS]
    1625                            .dwpsn  file "../driverlib/lcd.c",line 668,column 5,is_stmt,isa 1
    1626                    ;----------------------------------------------------------------------
    1627                    ; 668 | ui32Addr = ui32CS ? LCD_O_LIDDCS1ADDR : LCD_O_LIDDCS0ADDR;             
    1628                    ; 670 | //                                                                     
    1629                    ; 671 | // Write the address.                                                  
    1630                    ; 672 | //                                                                     
    1631                    ;----------------------------------------------------------------------
    1632 000001bc 9801              LDR       A1, [SP, #4]          ; [DPU_V7M3_PIPE] |668|  ; [ORIG 16-BIT INS]
    1633 000001be B108              CBZ       A1, ||$C$L17||        ; []  ; [ORIG 16-BIT INS]
    1634                            ; BRANCHCC OCCURS {||$C$L17||}   ; [] |668| 
    1635                    ;* --------------------------------------------------------------------------*
    1636 000001c0 2020              MOVS      A1, #32               ; [DPU_V7M3_PIPE] |668|  ; [ORIG 16-BIT INS]
    1637 000001c2 E000              B         ||$C$L18||            ; [DPU_V7M3_PIPE] |668|  ; [ORIG 16-BIT INS]
    1638                            ; BRANCH OCCURS {||$C$L18||}     ; [] |668| 
    1639                    ;* --------------------------------------------------------------------------*
    1640 000001c4           ||$C$L17||:    
    1641 000001c4 2014              MOVS      A1, #20               ; [DPU_V7M3_PIPE] |668|  ; [ORIG 16-BIT INS]
    1642                    ;* --------------------------------------------------------------------------*
    1643 000001c6           ||$C$L18||:    
    1644 000001c6 9002              STR       A1, [SP, #8]          ; [DPU_V7M3_PIPE] |668|  ; [ORIG 16-BIT INS]
    1645                            .dwpsn  file "../driverlib/lcd.c",line 673,column 5,is_stmt,isa 1
    1646                    ;----------------------------------------------------------------------
    1647                    ; 673 | HWREG(ui32Base + ui32Addr) = ui16Addr;                                 
    1648                    ; 675 | //                                                                     
    1649                    ; 676 | // Determine the data register to read.                                
    1650                    ; 677 | //                                                                     
TI ARM Assembler Unix v18.1.1 Fri Jul  3 20:08:25 2020

Tools Copyright (c) 1996-2017 Texas Instruments Incorporated
lcd.asm                                                              PAGE   31

    1651                    ;----------------------------------------------------------------------
    1652 000001c8 9900              LDR       A2, [SP, #0]          ; [DPU_V7M3_PIPE] |673|  ; [ORIG 16-BIT INS]
    1653 000001ca 000CF8BD          LDRH      A1, [SP, #12]         ; [DPU_V7M3_PIPE] |673|  ; [KEEP 32-BIT INS]
    1654 000001ce 9A02              LDR       A3, [SP, #8]          ; [DPU_V7M3_PIPE] |673|  ; [ORIG 16-BIT INS]
    1655 000001d0 5050              STR       A1, [A3, +A2]         ; [DPU_V7M3_PIPE] |673|  ; [ORIG 16-BIT INS]
    1656                            .dwpsn  file "../driverlib/lcd.c",line 678,column 5,is_stmt,isa 1
    1657                    ;----------------------------------------------------------------------
    1658                    ; 678 | ui32Addr = ui32CS ? LCD_O_LIDDCS1DATA : LCD_O_LIDDCS0DATA;             
    1659                    ; 680 | //                                                                     
    1660                    ; 681 | // Return the data read.                                               
    1661                    ; 682 | //                                                                     
    1662                    ;----------------------------------------------------------------------
    1663 000001d2 9801              LDR       A1, [SP, #4]          ; [DPU_V7M3_PIPE] |678|  ; [ORIG 16-BIT INS]
    1664 000001d4 B108              CBZ       A1, ||$C$L19||        ; []  ; [ORIG 16-BIT INS]
    1665                            ; BRANCHCC OCCURS {||$C$L19||}   ; [] |678| 
    1666                    ;* --------------------------------------------------------------------------*
    1667 000001d6 2024              MOVS      A1, #36               ; [DPU_V7M3_PIPE] |678|  ; [ORIG 16-BIT INS]
    1668 000001d8 E000              B         ||$C$L20||            ; [DPU_V7M3_PIPE] |678|  ; [ORIG 16-BIT INS]
    1669                            ; BRANCH OCCURS {||$C$L20||}     ; [] |678| 
    1670                    ;* --------------------------------------------------------------------------*
    1671 000001da           ||$C$L19||:    
    1672 000001da 2018              MOVS      A1, #24               ; [DPU_V7M3_PIPE] |678|  ; [ORIG 16-BIT INS]
    1673                    ;* --------------------------------------------------------------------------*
    1674 000001dc           ||$C$L20||:    
    1675 000001dc 9002              STR       A1, [SP, #8]          ; [DPU_V7M3_PIPE] |678|  ; [ORIG 16-BIT INS]
    1676                            .dwpsn  file "../driverlib/lcd.c",line 683,column 5,is_stmt,isa 1
    1677                    ;----------------------------------------------------------------------
    1678                    ; 683 | return((uint16_t)HWREG(ui32Base + ui32Addr));                          
    1679                    ;----------------------------------------------------------------------
    1680 000001de 9800              LDR       A1, [SP, #0]          ; [DPU_V7M3_PIPE] |683|  ; [ORIG 16-BIT INS]
    1681 000001e0 9902              LDR       A2, [SP, #8]          ; [DPU_V7M3_PIPE] |683|  ; [ORIG 16-BIT INS]
    1682 000001e2 5808              LDR       A1, [A2, +A1]         ; [DPU_V7M3_PIPE] |683|  ; [ORIG 16-BIT INS]
    1683 000001e4 B280              UXTH      A1, A1                ; [DPU_V7M3_PIPE] |683|  ; [ORIG 16-BIT INS]
    1684                            .dwpsn  file "../driverlib/lcd.c",line 684,column 1,is_stmt,isa 1
    1685 000001e6 B004              ADD       SP, SP, #16           ; [DPU_V7M3_PIPE]  ; [ORIG 16-BIT INS]
    1686                            .dwcfi  cfa_offset, 0
    1687                    $C$DW$101       .dwtag  DW_TAG_TI_branch
    1688                            .dwattr $C$DW$101, DW_AT_low_pc(0x00)
    1689                            .dwattr $C$DW$101, DW_AT_TI_return
    1690                    
    1691 000001e8 4770              BX        LR                    ; [DPU_V7M3_PIPE]  ; [ORIG 16-BIT INS]
    1692                            ; BRANCH OCCURS                  ; [] 
    1693                            .dwattr $C$DW$93, DW_AT_TI_end_file("../driverlib/lcd.c")
    1694                            .dwattr $C$DW$93, DW_AT_TI_end_line(0x2ac)
    1695                            .dwattr $C$DW$93, DW_AT_TI_end_column(0x01)
    1696                            .dwendentry
    1697                            .dwendtag $C$DW$93
    1698                    
    1699 000001ea                   .sect   ".text"
    1700                            .clink
    1701                            .thumbfunc LCDIDDDMAWrite
    1702 000001ea                   .thumb
    1703                            .global LCDIDDDMAWrite
    1704                    
    1705                    $C$DW$102       .dwtag  DW_TAG_subprogram
TI ARM Assembler Unix v18.1.1 Fri Jul  3 20:08:25 2020

Tools Copyright (c) 1996-2017 Texas Instruments Incorporated
lcd.asm                                                              PAGE   32

    1706                            .dwattr $C$DW$102, DW_AT_name("LCDIDDDMAWrite")
    1707                            .dwattr $C$DW$102, DW_AT_low_pc(LCDIDDDMAWrite)
    1708                            .dwattr $C$DW$102, DW_AT_high_pc(0x00)
    1709                            .dwattr $C$DW$102, DW_AT_TI_symbol_name("LCDIDDDMAWrite")
    1710                            .dwattr $C$DW$102, DW_AT_external
    1711                            .dwattr $C$DW$102, DW_AT_TI_begin_file("../driverlib/lcd.c")
    1712                            .dwattr $C$DW$102, DW_AT_TI_begin_line(0x2d1)
    1713                            .dwattr $C$DW$102, DW_AT_TI_begin_column(0x01)
    1714                            .dwattr $C$DW$102, DW_AT_decl_file("../driverlib/lcd.c")
    1715                            .dwattr $C$DW$102, DW_AT_decl_line(0x2d1)
    1716                            .dwattr $C$DW$102, DW_AT_decl_column(0x01)
    1717                            .dwattr $C$DW$102, DW_AT_TI_max_frame_size(0x10)
    1718                            .dwpsn  file "../driverlib/lcd.c",line 723,column 1,is_stmt,address LCDIDDDMAWrite,isa 1
    1719                    
    1720                            .dwfde $C$DW$CIE, LCDIDDDMAWrite
    1721                    $C$DW$103       .dwtag  DW_TAG_formal_parameter
    1722                            .dwattr $C$DW$103, DW_AT_name("ui32Base")
    1723                            .dwattr $C$DW$103, DW_AT_TI_symbol_name("ui32Base")
    1724                            .dwattr $C$DW$103, DW_AT_type(*$C$DW$T$25)
    1725                            .dwattr $C$DW$103, DW_AT_location[DW_OP_reg0]
    1726                    
    1727                    $C$DW$104       .dwtag  DW_TAG_formal_parameter
    1728                            .dwattr $C$DW$104, DW_AT_name("ui32CS")
    1729                            .dwattr $C$DW$104, DW_AT_TI_symbol_name("ui32CS")
    1730                            .dwattr $C$DW$104, DW_AT_type(*$C$DW$T$25)
    1731                            .dwattr $C$DW$104, DW_AT_location[DW_OP_reg1]
    1732                    
    1733                    $C$DW$105       .dwtag  DW_TAG_formal_parameter
    1734                            .dwattr $C$DW$105, DW_AT_name("pui32Data")
    1735                            .dwattr $C$DW$105, DW_AT_TI_symbol_name("pui32Data")
    1736                            .dwattr $C$DW$105, DW_AT_type(*$C$DW$T$50)
    1737                            .dwattr $C$DW$105, DW_AT_location[DW_OP_reg2]
    1738                    
    1739                    $C$DW$106       .dwtag  DW_TAG_formal_parameter
    1740                            .dwattr $C$DW$106, DW_AT_name("ui32Count")
    1741                            .dwattr $C$DW$106, DW_AT_TI_symbol_name("ui32Count")
    1742                            .dwattr $C$DW$106, DW_AT_type(*$C$DW$T$25)
    1743                            .dwattr $C$DW$106, DW_AT_location[DW_OP_reg3]
    1744                    
    1745                    ;----------------------------------------------------------------------
    1746                    ; 721 | LCDIDDDMAWrite(uint32_t ui32Base, uint32_t ui32CS, const uint32_t *pui3
    1747                    ;     | 2Data,                                                                 
    1748                    ; 722 | uint32_t ui32Count)                                                    
    1749                    ;----------------------------------------------------------------------
    1750                    
    1751                    ;*****************************************************************************
    1752                    ;* FUNCTION NAME: LCDIDDDMAWrite                                             *
    1753                    ;*                                                                           *
    1754                    ;*   Regs Modified     : A1,A2,A3,SP,SR                                      *
    1755                    ;*   Regs Used         : A1,A2,A3,A4,SP,LR,SR                                *
    1756                    ;*   Local Frame Size  : 0 Args + 16 Auto + 0 Save = 16 byte                 *
    1757                    ;*****************************************************************************
    1758 000001ea           LCDIDDDMAWrite:
    1759                    ;* --------------------------------------------------------------------------*
    1760                            .dwcfi  cfa_offset, 0
TI ARM Assembler Unix v18.1.1 Fri Jul  3 20:08:25 2020

Tools Copyright (c) 1996-2017 Texas Instruments Incorporated
lcd.asm                                                              PAGE   33

    1761 000001ea 0D10F1AD          SUB       SP, SP, #16           ; [DPU_V7M3_PIPE]  ; [KEEP 32-BIT INS]
    1762                            .dwcfi  cfa_offset, 16
    1763                    $C$DW$107       .dwtag  DW_TAG_variable
    1764                            .dwattr $C$DW$107, DW_AT_name("ui32Base")
    1765                            .dwattr $C$DW$107, DW_AT_TI_symbol_name("ui32Base")
    1766                            .dwattr $C$DW$107, DW_AT_type(*$C$DW$T$25)
    1767                            .dwattr $C$DW$107, DW_AT_location[DW_OP_breg13 0]
    1768                    
    1769                    $C$DW$108       .dwtag  DW_TAG_variable
    1770                            .dwattr $C$DW$108, DW_AT_name("ui32CS")
    1771                            .dwattr $C$DW$108, DW_AT_TI_symbol_name("ui32CS")
    1772                            .dwattr $C$DW$108, DW_AT_type(*$C$DW$T$25)
    1773                            .dwattr $C$DW$108, DW_AT_location[DW_OP_breg13 4]
    1774                    
    1775                    $C$DW$109       .dwtag  DW_TAG_variable
    1776                            .dwattr $C$DW$109, DW_AT_name("pui32Data")
    1777                            .dwattr $C$DW$109, DW_AT_TI_symbol_name("pui32Data")
    1778                            .dwattr $C$DW$109, DW_AT_type(*$C$DW$T$50)
    1779                            .dwattr $C$DW$109, DW_AT_location[DW_OP_breg13 8]
    1780                    
    1781                    $C$DW$110       .dwtag  DW_TAG_variable
    1782                            .dwattr $C$DW$110, DW_AT_name("ui32Count")
    1783                            .dwattr $C$DW$110, DW_AT_TI_symbol_name("ui32Count")
    1784                            .dwattr $C$DW$110, DW_AT_type(*$C$DW$T$25)
    1785                            .dwattr $C$DW$110, DW_AT_location[DW_OP_breg13 12]
    1786                    
    1787                    ;----------------------------------------------------------------------
    1788                    ; 724 | //                                                                     
    1789                    ; 725 | // Sanity check parameters.                                            
    1790                    ; 726 | //                                                                     
    1791                    ; 727 | ASSERT(ui32Base == LCD0_BASE);                                         
    1792                    ; 728 | ASSERT((ui32CS == 0) || (ui32CS == 1));                                
    1793                    ; 729 | ASSERT(!((uint32_t)pui32Data & 3));                                    
    1794                    ; 730 | ASSERT(!(ui32Count & 1));                                              
    1795                    ; 732 | //                                                                     
    1796                    ; 733 | // Make sure DMA is disabled so that enabling it triggers this new     
    1797                    ; 734 | // transfer.                                                           
    1798                    ; 735 | //                                                                     
    1799                    ;----------------------------------------------------------------------
    1800 000001ee 9303              STR       A4, [SP, #12]         ; [DPU_V7M3_PIPE] |723|  ; [ORIG 16-BIT INS]
    1801 000001f0 9202              STR       A3, [SP, #8]          ; [DPU_V7M3_PIPE] |723|  ; [ORIG 16-BIT INS]
    1802 000001f2 9101              STR       A2, [SP, #4]          ; [DPU_V7M3_PIPE] |723|  ; [ORIG 16-BIT INS]
    1803 000001f4 9000              STR       A1, [SP, #0]          ; [DPU_V7M3_PIPE] |723|  ; [ORIG 16-BIT INS]
    1804                            .dwpsn  file "../driverlib/lcd.c",line 736,column 5,is_stmt,isa 1
    1805                    ;----------------------------------------------------------------------
    1806                    ; 736 | HWREG(ui32Base + LCD_O_LIDDCTL) &= ~LCD_LIDDCTL_DMAEN;                 
    1807                    ; 738 | //                                                                     
    1808                    ; 739 | // Set up the transfer.  Note that the ceiling register must contain th
    1809                    ;     | e                                                                      
    1810                    ; 740 | // address of the last word which contains data we want transfered and
    1811                    ;     | NOT                                                                    
    1812                    ; 741 | // the first location after the data we want written.                  
    1813                    ; 742 | //                                                                     
    1814                    ;----------------------------------------------------------------------
    1815 000001f6 9800              LDR       A1, [SP, #0]          ; [DPU_V7M3_PIPE] |736|  ; [ORIG 16-BIT INS]
TI ARM Assembler Unix v18.1.1 Fri Jul  3 20:08:25 2020

Tools Copyright (c) 1996-2017 Texas Instruments Incorporated
lcd.asm                                                              PAGE   34

    1816 000001f8 300C              ADDS      A1, A1, #12           ; [DPU_V7M3_PIPE] |736|  ; [ORIG 16-BIT INS]
    1817 000001fa 6801              LDR       A2, [A1, #0]          ; [DPU_V7M3_PIPE] |736|  ; [ORIG 16-BIT INS]
    1818 000001fc 7180F421          BIC       A2, A2, #256          ; [DPU_V7M3_PIPE] |736|  ; [KEEP 32-BIT INS]
    1819 00000200 6001              STR       A2, [A1, #0]          ; [DPU_V7M3_PIPE] |736|  ; [ORIG 16-BIT INS]
    1820                            .dwpsn  file "../driverlib/lcd.c",line 743,column 5,is_stmt,isa 1
    1821                    ;----------------------------------------------------------------------
    1822                    ; 743 | HWREG(ui32Base + LCD_O_DMABAFB0) = (uint32_t)pui32Data;                
    1823                    ;----------------------------------------------------------------------
    1824 00000202 9900              LDR       A2, [SP, #0]          ; [DPU_V7M3_PIPE] |743|  ; [ORIG 16-BIT INS]
    1825 00000204 9802              LDR       A1, [SP, #8]          ; [DPU_V7M3_PIPE] |743|  ; [ORIG 16-BIT INS]
    1826 00000206 6448              STR       A1, [A2, #68]         ; [DPU_V7M3_PIPE] |743|  ; [ORIG 16-BIT INS]
    1827                            .dwpsn  file "../driverlib/lcd.c",line 744,column 5,is_stmt,isa 1
    1828                    ;----------------------------------------------------------------------
    1829                    ; 744 | HWREG(ui32Base + LCD_O_DMACAFB0) = ((uint32_t)pui32Data +              
    1830                    ; 745 |                                     (ui32Count * 2) - 4);              
    1831                    ; 747 | //                                                                     
    1832                    ; 748 | // Tell the controller which CS to use for the DMA transaction.        
    1833                    ; 749 | //                                                                     
    1834                    ;----------------------------------------------------------------------
    1835 00000208 9A03              LDR       A3, [SP, #12]         ; [DPU_V7M3_PIPE] |744|  ; [ORIG 16-BIT INS]
    1836 0000020a 9802              LDR       A1, [SP, #8]          ; [DPU_V7M3_PIPE] |744|  ; [ORIG 16-BIT INS]
    1837 0000020c 9900              LDR       A2, [SP, #0]          ; [DPU_V7M3_PIPE] |744|  ; [ORIG 16-BIT INS]
    1838 0000020e 0042EB00          ADD       A1, A1, A3, LSL #1    ; [DPU_V7M3_PIPE] |744|  ; [KEEP 32-BIT INS]
    1839 00000212 1F00              SUBS      A1, A1, #4            ; [DPU_V7M3_PIPE] |744|  ; [ORIG 16-BIT INS]
    1840 00000214 6488              STR       A1, [A2, #72]         ; [DPU_V7M3_PIPE] |744|  ; [ORIG 16-BIT INS]
    1841                            .dwpsn  file "../driverlib/lcd.c",line 750,column 5,is_stmt,isa 1
    1842                    ;----------------------------------------------------------------------
    1843                    ; 750 | if(!ui32CS)                                                            
    1844                    ; 752 |     //                                                                 
    1845                    ; 753 |     // Use CS0.                                                        
    1846                    ; 754 |     //                                                                 
    1847                    ;----------------------------------------------------------------------
    1848 00000216 9801              LDR       A1, [SP, #4]          ; [DPU_V7M3_PIPE] |750|  ; [ORIG 16-BIT INS]
    1849 00000218 B930              CBNZ      A1, ||$C$L21||        ; []  ; [ORIG 16-BIT INS]
    1850                            ; BRANCHCC OCCURS {||$C$L21||}   ; [] |750| 
    1851                    ;* --------------------------------------------------------------------------*
    1852                            .dwpsn  file "../driverlib/lcd.c",line 755,column 9,is_stmt,isa 1
    1853                    ;----------------------------------------------------------------------
    1854                    ; 755 | HWREG(ui32Base + LCD_O_LIDDCTL) &= ~LCD_LIDDCTL_DMACS;                 
    1855                    ;----------------------------------------------------------------------
    1856 0000021a 9800              LDR       A1, [SP, #0]          ; [DPU_V7M3_PIPE] |755|  ; [ORIG 16-BIT INS]
    1857 0000021c 300C              ADDS      A1, A1, #12           ; [DPU_V7M3_PIPE] |755|  ; [ORIG 16-BIT INS]
    1858 0000021e 6801              LDR       A2, [A1, #0]          ; [DPU_V7M3_PIPE] |755|  ; [ORIG 16-BIT INS]
    1859 00000220 7100F421          BIC       A2, A2, #512          ; [DPU_V7M3_PIPE] |755|  ; [KEEP 32-BIT INS]
    1860 00000224 6001              STR       A2, [A1, #0]          ; [DPU_V7M3_PIPE] |755|  ; [ORIG 16-BIT INS]
    1861                            .dwpsn  file "../driverlib/lcd.c",line 756,column 5,is_stmt,isa 1
    1862                    ;----------------------------------------------------------------------
    1863                    ; 757 | else                                                                   
    1864                    ; 759 |     //                                                                 
    1865                    ; 760 |     // Use CS1.                                                        
    1866                    ; 761 |     //                                                                 
    1867                    ;----------------------------------------------------------------------
    1868 00000226 E005              B         ||$C$L22||            ; [DPU_V7M3_PIPE] |756|  ; [ORIG 16-BIT INS]
    1869                            ; BRANCH OCCURS {||$C$L22||}     ; [] |756| 
    1870                    ;* --------------------------------------------------------------------------*
TI ARM Assembler Unix v18.1.1 Fri Jul  3 20:08:25 2020

Tools Copyright (c) 1996-2017 Texas Instruments Incorporated
lcd.asm                                                              PAGE   35

    1871 00000228           ||$C$L21||:    
    1872                            .dwpsn  file "../driverlib/lcd.c",line 762,column 9,is_stmt,isa 1
    1873                    ;----------------------------------------------------------------------
    1874                    ; 762 | HWREG(ui32Base + LCD_O_LIDDCTL) |= LCD_LIDDCTL_DMACS;                  
    1875                    ; 765 | //                                                                     
    1876                    ; 766 | // Enable the DMA engine and start the transaction.                    
    1877                    ; 767 | //                                                                     
    1878                    ;----------------------------------------------------------------------
    1879 00000228 9800              LDR       A1, [SP, #0]          ; [DPU_V7M3_PIPE] |762|  ; [ORIG 16-BIT INS]
    1880 0000022a 300C              ADDS      A1, A1, #12           ; [DPU_V7M3_PIPE] |762|  ; [ORIG 16-BIT INS]
    1881 0000022c 6801              LDR       A2, [A1, #0]          ; [DPU_V7M3_PIPE] |762|  ; [ORIG 16-BIT INS]
    1882 0000022e 7100F441          ORR       A2, A2, #512          ; [DPU_V7M3_PIPE] |762|  ; [KEEP 32-BIT INS]
    1883 00000232 6001              STR       A2, [A1, #0]          ; [DPU_V7M3_PIPE] |762|  ; [ORIG 16-BIT INS]
    1884                    ;* --------------------------------------------------------------------------*
    1885 00000234           ||$C$L22||:    
    1886                            .dwpsn  file "../driverlib/lcd.c",line 768,column 5,is_stmt,isa 1
    1887                    ;----------------------------------------------------------------------
    1888                    ; 768 | HWREG(ui32Base + LCD_O_LIDDCTL) |= LCD_LIDDCTL_DMAEN;                  
    1889                    ;----------------------------------------------------------------------
    1890 00000234 9800              LDR       A1, [SP, #0]          ; [DPU_V7M3_PIPE] |768|  ; [ORIG 16-BIT INS]
    1891 00000236 300C              ADDS      A1, A1, #12           ; [DPU_V7M3_PIPE] |768|  ; [ORIG 16-BIT INS]
    1892 00000238 6801              LDR       A2, [A1, #0]          ; [DPU_V7M3_PIPE] |768|  ; [ORIG 16-BIT INS]
    1893 0000023a 7180F441          ORR       A2, A2, #256          ; [DPU_V7M3_PIPE] |768|  ; [KEEP 32-BIT INS]
    1894 0000023e 6001              STR       A2, [A1, #0]          ; [DPU_V7M3_PIPE] |768|  ; [ORIG 16-BIT INS]
    1895                            .dwpsn  file "../driverlib/lcd.c",line 769,column 1,is_stmt,isa 1
    1896 00000240 B004              ADD       SP, SP, #16           ; [DPU_V7M3_PIPE]  ; [ORIG 16-BIT INS]
    1897                            .dwcfi  cfa_offset, 0
    1898                    $C$DW$111       .dwtag  DW_TAG_TI_branch
    1899                            .dwattr $C$DW$111, DW_AT_low_pc(0x00)
    1900                            .dwattr $C$DW$111, DW_AT_TI_return
    1901                    
    1902 00000242 4770              BX        LR                    ; [DPU_V7M3_PIPE]  ; [ORIG 16-BIT INS]
    1903                            ; BRANCH OCCURS                  ; [] 
    1904                            .dwattr $C$DW$102, DW_AT_TI_end_file("../driverlib/lcd.c")
    1905                            .dwattr $C$DW$102, DW_AT_TI_end_line(0x301)
    1906                            .dwattr $C$DW$102, DW_AT_TI_end_column(0x01)
    1907                            .dwendentry
    1908                            .dwendtag $C$DW$102
    1909                    
    1910 00000244                   .sect   ".text"
    1911                            .clink
    1912                            .thumbfunc LCDRasterConfigSet
    1913 00000244                   .thumb
    1914                            .global LCDRasterConfigSet
    1915                    
    1916                    $C$DW$112       .dwtag  DW_TAG_subprogram
    1917                            .dwattr $C$DW$112, DW_AT_name("LCDRasterConfigSet")
    1918                            .dwattr $C$DW$112, DW_AT_low_pc(LCDRasterConfigSet)
    1919                            .dwattr $C$DW$112, DW_AT_high_pc(0x00)
    1920                            .dwattr $C$DW$112, DW_AT_TI_symbol_name("LCDRasterConfigSet")
    1921                            .dwattr $C$DW$112, DW_AT_external
    1922                            .dwattr $C$DW$112, DW_AT_TI_begin_file("../driverlib/lcd.c")
    1923                            .dwattr $C$DW$112, DW_AT_TI_begin_line(0x34e)
    1924                            .dwattr $C$DW$112, DW_AT_TI_begin_column(0x01)
    1925                            .dwattr $C$DW$112, DW_AT_decl_file("../driverlib/lcd.c")
TI ARM Assembler Unix v18.1.1 Fri Jul  3 20:08:25 2020

Tools Copyright (c) 1996-2017 Texas Instruments Incorporated
lcd.asm                                                              PAGE   36

    1926                            .dwattr $C$DW$112, DW_AT_decl_line(0x34e)
    1927                            .dwattr $C$DW$112, DW_AT_decl_column(0x01)
    1928                            .dwattr $C$DW$112, DW_AT_TI_max_frame_size(0x10)
    1929                            .dwpsn  file "../driverlib/lcd.c",line 848,column 1,is_stmt,address LCDRasterConfigSet,isa 1
    1930                    
    1931                            .dwfde $C$DW$CIE, LCDRasterConfigSet
    1932                    $C$DW$113       .dwtag  DW_TAG_formal_parameter
    1933                            .dwattr $C$DW$113, DW_AT_name("ui32Base")
    1934                            .dwattr $C$DW$113, DW_AT_TI_symbol_name("ui32Base")
    1935                            .dwattr $C$DW$113, DW_AT_type(*$C$DW$T$25)
    1936                            .dwattr $C$DW$113, DW_AT_location[DW_OP_reg0]
    1937                    
    1938                    $C$DW$114       .dwtag  DW_TAG_formal_parameter
    1939                            .dwattr $C$DW$114, DW_AT_name("ui32Config")
    1940                            .dwattr $C$DW$114, DW_AT_TI_symbol_name("ui32Config")
    1941                            .dwattr $C$DW$114, DW_AT_type(*$C$DW$T$25)
    1942                            .dwattr $C$DW$114, DW_AT_location[DW_OP_reg1]
    1943                    
    1944                    $C$DW$115       .dwtag  DW_TAG_formal_parameter
    1945                            .dwattr $C$DW$115, DW_AT_name("ui8PalLoadDelay")
    1946                            .dwattr $C$DW$115, DW_AT_TI_symbol_name("ui8PalLoadDelay")
    1947                            .dwattr $C$DW$115, DW_AT_type(*$C$DW$T$22)
    1948                            .dwattr $C$DW$115, DW_AT_location[DW_OP_reg2]
    1949                    
    1950                    ;----------------------------------------------------------------------
    1951                    ; 846 | LCDRasterConfigSet(uint32_t ui32Base, uint32_t ui32Config,             
    1952                    ; 847 | uint8_t ui8PalLoadDelay)                                               
    1953                    ;----------------------------------------------------------------------
    1954                    
    1955                    ;*****************************************************************************
    1956                    ;* FUNCTION NAME: LCDRasterConfigSet                                         *
    1957                    ;*                                                                           *
    1958                    ;*   Regs Modified     : A1,A2,A3,SP                                         *
    1959                    ;*   Regs Used         : A1,A2,A3,SP,LR                                      *
    1960                    ;*   Local Frame Size  : 0 Args + 12 Auto + 0 Save = 12 byte                 *
    1961                    ;*****************************************************************************
    1962 00000244           LCDRasterConfigSet:
    1963                    ;* --------------------------------------------------------------------------*
    1964                            .dwcfi  cfa_offset, 0
    1965 00000244 0D10F1AD          SUB       SP, SP, #16           ; [DPU_V7M3_PIPE]  ; [KEEP 32-BIT INS]
    1966                            .dwcfi  cfa_offset, 16
    1967                    $C$DW$116       .dwtag  DW_TAG_variable
    1968                            .dwattr $C$DW$116, DW_AT_name("ui32Base")
    1969                            .dwattr $C$DW$116, DW_AT_TI_symbol_name("ui32Base")
    1970                            .dwattr $C$DW$116, DW_AT_type(*$C$DW$T$25)
    1971                            .dwattr $C$DW$116, DW_AT_location[DW_OP_breg13 0]
    1972                    
    1973                    $C$DW$117       .dwtag  DW_TAG_variable
    1974                            .dwattr $C$DW$117, DW_AT_name("ui32Config")
    1975                            .dwattr $C$DW$117, DW_AT_TI_symbol_name("ui32Config")
    1976                            .dwattr $C$DW$117, DW_AT_type(*$C$DW$T$25)
    1977                            .dwattr $C$DW$117, DW_AT_location[DW_OP_breg13 4]
    1978                    
    1979                    $C$DW$118       .dwtag  DW_TAG_variable
    1980                            .dwattr $C$DW$118, DW_AT_name("ui8PalLoadDelay")
TI ARM Assembler Unix v18.1.1 Fri Jul  3 20:08:25 2020

Tools Copyright (c) 1996-2017 Texas Instruments Incorporated
lcd.asm                                                              PAGE   37

    1981                            .dwattr $C$DW$118, DW_AT_TI_symbol_name("ui8PalLoadDelay")
    1982                            .dwattr $C$DW$118, DW_AT_type(*$C$DW$T$22)
    1983                            .dwattr $C$DW$118, DW_AT_location[DW_OP_breg13 8]
    1984                    
    1985                    ;----------------------------------------------------------------------
    1986                    ; 849 | //                                                                     
    1987                    ; 850 | // Sanity check parameters.                                            
    1988                    ; 851 | //                                                                     
    1989                    ; 852 | ASSERT(ui32Base == LCD0_BASE);                                         
    1990                    ; 853 | ASSERT(!(ui32Config & ~(RASTER_FMT_ACTIVE_24BPP_PACKED |               
    1991                    ; 854 |                         RASTER_FMT_ACTIVE_24BPP_UNPACKED |             
    1992                    ; 855 |                         RASTER_FMT_ACTIVE_PALETTIZED_12BIT |           
    1993                    ; 856 |                         RASTER_FMT_ACTIVE_PALETTIZED_16BIT |           
    1994                    ; 857 |                         RASTER_FMT_PASSIVE_MONO_4PIX |                 
    1995                    ; 858 |                         RASTER_FMT_PASSIVE_MONO_8PIX |                 
    1996                    ; 859 |                         RASTER_FMT_PASSIVE_PALETTIZED |                
    1997                    ; 860 |                         RASTER_FMT_PASSIVE_COLOR_12BIT |               
    1998                    ; 861 |                         RASTER_FMT_PASSIVE_COLOR_16BIT |               
    1999                    ; 862 |                         RASTER_ACTVID_DURING_BLANK |                   
    2000                    ; 863 |                         RASTER_NIBBLE_MODE_ENABLED |                   
    2001                    ; 864 |                         RASTER_LOAD_DATA_ONLY |                        
    2002                    ; 865 |                         RASTER_LOAD_PALETTE_ONLY |                     
    2003                    ; 866 |                         RASTER_READ_ORDER_REVERSED)));                 
    2004                    ; 868 | //                                                                     
    2005                    ; 869 | // Write the raster control register.                                  
    2006                    ; 870 | //                                                                     
    2007                    ;----------------------------------------------------------------------
    2008 00000248 2008F88D          STRB      A3, [SP, #8]          ; [DPU_V7M3_PIPE] |848|  ; [KEEP 32-BIT INS]
    2009 0000024c 9101              STR       A2, [SP, #4]          ; [DPU_V7M3_PIPE] |848|  ; [ORIG 16-BIT INS]
    2010 0000024e 9000              STR       A1, [SP, #0]          ; [DPU_V7M3_PIPE] |848|  ; [ORIG 16-BIT INS]
    2011                            .dwpsn  file "../driverlib/lcd.c",line 871,column 5,is_stmt,isa 1
    2012                    ;----------------------------------------------------------------------
    2013                    ; 871 | HWREG(ui32Base + LCD_O_RASTRCTL) = (ui32Config |                       
    2014                    ; 872 |                                     ((uint32_t)ui8PalLoadDelay <<      
    2015                    ; 873 |                                      LCD_RASTRCTL_REQDLY_S));          
    2016                    ;----------------------------------------------------------------------
    2017 00000250 2008F89D          LDRB      A3, [SP, #8]          ; [DPU_V7M3_PIPE] |871|  ; [KEEP 32-BIT INS]
    2018 00000254 9801              LDR       A1, [SP, #4]          ; [DPU_V7M3_PIPE] |871|  ; [ORIG 16-BIT INS]
    2019 00000256 9900              LDR       A2, [SP, #0]          ; [DPU_V7M3_PIPE] |871|  ; [ORIG 16-BIT INS]
    2020 00000258 3002EA40          ORR       A1, A1, A3, LSL #12   ; [DPU_V7M3_PIPE] |871|  ; [KEEP 32-BIT INS]
    2021 0000025c 6288              STR       A1, [A2, #40]         ; [DPU_V7M3_PIPE] |871|  ; [ORIG 16-BIT INS]
    2022                            .dwpsn  file "../driverlib/lcd.c",line 874,column 1,is_stmt,isa 1
    2023 0000025e B004              ADD       SP, SP, #16           ; [DPU_V7M3_PIPE]  ; [ORIG 16-BIT INS]
    2024                            .dwcfi  cfa_offset, 0
    2025                    $C$DW$119       .dwtag  DW_TAG_TI_branch
    2026                            .dwattr $C$DW$119, DW_AT_low_pc(0x00)
    2027                            .dwattr $C$DW$119, DW_AT_TI_return
    2028                    
    2029 00000260 4770              BX        LR                    ; [DPU_V7M3_PIPE]  ; [ORIG 16-BIT INS]
    2030                            ; BRANCH OCCURS                  ; [] 
    2031                            .dwattr $C$DW$112, DW_AT_TI_end_file("../driverlib/lcd.c")
    2032                            .dwattr $C$DW$112, DW_AT_TI_end_line(0x36a)
    2033                            .dwattr $C$DW$112, DW_AT_TI_end_column(0x01)
    2034                            .dwendentry
    2035                            .dwendtag $C$DW$112
TI ARM Assembler Unix v18.1.1 Fri Jul  3 20:08:25 2020

Tools Copyright (c) 1996-2017 Texas Instruments Incorporated
lcd.asm                                                              PAGE   38

    2036                    
    2037                    ;******************************************************************************
    2038                    ;* CONSTANT TABLE                                                             *
    2039                    ;******************************************************************************
    2040 00000262                   .sect   ".text"
    2041                            .align  4
    2042 00000262 007046C0  ||$C$CON1||:    .bits   1141178480,32
         00000266 00004405 
    2043 00000268                   .sect   ".text"
    2044                            .clink
    2045                            .thumbfunc LCDRasterTimingSet
    2046 00000268                   .thumb
    2047                            .global LCDRasterTimingSet
    2048                    
    2049                    $C$DW$120       .dwtag  DW_TAG_subprogram
    2050                            .dwattr $C$DW$120, DW_AT_name("LCDRasterTimingSet")
    2051                            .dwattr $C$DW$120, DW_AT_low_pc(LCDRasterTimingSet)
    2052                            .dwattr $C$DW$120, DW_AT_high_pc(0x00)
    2053                            .dwattr $C$DW$120, DW_AT_TI_symbol_name("LCDRasterTimingSet")
    2054                            .dwattr $C$DW$120, DW_AT_external
    2055                            .dwattr $C$DW$120, DW_AT_TI_begin_file("../driverlib/lcd.c")
    2056                            .dwattr $C$DW$120, DW_AT_TI_begin_line(0x37e)
    2057                            .dwattr $C$DW$120, DW_AT_TI_begin_column(0x01)
    2058                            .dwattr $C$DW$120, DW_AT_decl_file("../driverlib/lcd.c")
    2059                            .dwattr $C$DW$120, DW_AT_decl_line(0x37e)
    2060                            .dwattr $C$DW$120, DW_AT_decl_column(0x01)
    2061                            .dwattr $C$DW$120, DW_AT_TI_max_frame_size(0x20)
    2062                            .dwpsn  file "../driverlib/lcd.c",line 895,column 1,is_stmt,address LCDRasterTimingSet,isa 1
    2063                    
    2064                            .dwfde $C$DW$CIE, LCDRasterTimingSet
    2065                    $C$DW$121       .dwtag  DW_TAG_formal_parameter
    2066                            .dwattr $C$DW$121, DW_AT_name("ui32Base")
    2067                            .dwattr $C$DW$121, DW_AT_TI_symbol_name("ui32Base")
    2068                            .dwattr $C$DW$121, DW_AT_type(*$C$DW$T$25)
    2069                            .dwattr $C$DW$121, DW_AT_location[DW_OP_reg0]
    2070                    
    2071                    $C$DW$122       .dwtag  DW_TAG_formal_parameter
    2072                            .dwattr $C$DW$122, DW_AT_name("pTiming")
    2073                            .dwattr $C$DW$122, DW_AT_TI_symbol_name("pTiming")
    2074                            .dwattr $C$DW$122, DW_AT_type(*$C$DW$T$36)
    2075                            .dwattr $C$DW$122, DW_AT_location[DW_OP_reg1]
    2076                    
    2077                    ;----------------------------------------------------------------------
    2078                    ; 894 | LCDRasterTimingSet(uint32_t ui32Base, const tLCDRasterTiming *pTiming) 
    2079                    ;----------------------------------------------------------------------
    2080                    
    2081                    ;*****************************************************************************
    2082                    ;* FUNCTION NAME: LCDRasterTimingSet                                         *
    2083                    ;*                                                                           *
    2084                    ;*   Regs Modified     : A1,A2,A3,A4,V1,V2,SP,SR                             *
    2085                    ;*   Regs Used         : A1,A2,A3,A4,V1,V2,SP,LR,SR                          *
    2086                    ;*   Local Frame Size  : 0 Args + 20 Auto + 12 Save = 32 byte                *
    2087                    ;*****************************************************************************
    2088 00000268           LCDRasterTimingSet:
    2089                    ;* --------------------------------------------------------------------------*
TI ARM Assembler Unix v18.1.1 Fri Jul  3 20:08:25 2020

Tools Copyright (c) 1996-2017 Texas Instruments Incorporated
lcd.asm                                                              PAGE   39

    2090                            .dwcfi  cfa_offset, 0
    2091 00000268 B530              PUSH      {V1, V2, LR}          ; [DPU_V7M3_PIPE]  ; [ORIG 16-BIT INS]
    2092                            .dwcfi  cfa_offset, 12
    2093                            .dwcfi  save_reg_to_mem, 14, -4
    2094                            .dwcfi  save_reg_to_mem, 5, -8
    2095                            .dwcfi  save_reg_to_mem, 4, -12
    2096 0000026a 0D14F1AD          SUB       SP, SP, #20           ; [DPU_V7M3_PIPE]  ; [KEEP 32-BIT INS]
    2097                            .dwcfi  cfa_offset, 32
    2098                    $C$DW$123       .dwtag  DW_TAG_variable
    2099                            .dwattr $C$DW$123, DW_AT_name("ui32Base")
    2100                            .dwattr $C$DW$123, DW_AT_TI_symbol_name("ui32Base")
    2101                            .dwattr $C$DW$123, DW_AT_type(*$C$DW$T$25)
    2102                            .dwattr $C$DW$123, DW_AT_location[DW_OP_breg13 0]
    2103                    
    2104                    $C$DW$124       .dwtag  DW_TAG_variable
    2105                            .dwattr $C$DW$124, DW_AT_name("pTiming")
    2106                            .dwattr $C$DW$124, DW_AT_TI_symbol_name("pTiming")
    2107                            .dwattr $C$DW$124, DW_AT_type(*$C$DW$T$36)
    2108                            .dwattr $C$DW$124, DW_AT_location[DW_OP_breg13 4]
    2109                    
    2110                    $C$DW$125       .dwtag  DW_TAG_variable
    2111                            .dwattr $C$DW$125, DW_AT_name("ui32T0")
    2112                            .dwattr $C$DW$125, DW_AT_TI_symbol_name("ui32T0")
    2113                            .dwattr $C$DW$125, DW_AT_type(*$C$DW$T$25)
    2114                            .dwattr $C$DW$125, DW_AT_location[DW_OP_breg13 8]
    2115                    
    2116                    $C$DW$126       .dwtag  DW_TAG_variable
    2117                            .dwattr $C$DW$126, DW_AT_name("ui32T1")
    2118                            .dwattr $C$DW$126, DW_AT_TI_symbol_name("ui32T1")
    2119                            .dwattr $C$DW$126, DW_AT_type(*$C$DW$T$25)
    2120                            .dwattr $C$DW$126, DW_AT_location[DW_OP_breg13 12]
    2121                    
    2122                    $C$DW$127       .dwtag  DW_TAG_variable
    2123                            .dwattr $C$DW$127, DW_AT_name("ui32T2")
    2124                            .dwattr $C$DW$127, DW_AT_TI_symbol_name("ui32T2")
    2125                            .dwattr $C$DW$127, DW_AT_type(*$C$DW$T$25)
    2126                            .dwattr $C$DW$127, DW_AT_location[DW_OP_breg13 16]
    2127                    
    2128                    ;----------------------------------------------------------------------
    2129                    ; 896 | uint32_t ui32T0, ui32T1, ui32T2;                                       
    2130                    ; 898 | //                                                                     
    2131                    ; 899 | // Sanity check parameters.                                            
    2132                    ; 900 | //                                                                     
    2133                    ; 901 | ASSERT(ui32Base == LCD0_BASE);                                         
    2134                    ; 902 | ASSERT(pTiming);                                                       
    2135                    ; 903 | ASSERT(!(pTiming->ui32Flags & ~(RASTER_TIMING_SYNCS_OPPOSITE_PIXCLK |  
    2136                    ; 904 |                                 RASTER_TIMING_SYNCS_ON_FALLING_PIXCLK |
    2137                    ; 905 |                                 RASTER_TIMING_SYNCS_ON_RISING_PIXCLK | 
    2138                    ; 906 |                                 RASTER_TIMING_ACTIVE_LOW_OE |          
    2139                    ; 907 |                                 RASTER_TIMING_ACTIVE_LOW_PIXCLK |      
    2140                    ; 908 |                                 RASTER_TIMING_ACTIVE_LOW_HSYNC |       
    2141                    ; 909 |                                 RASTER_TIMING_ACTIVE_LOW_VSYNC)));     
    2142                    ; 910 | ASSERT(pTiming->ui16PanelWidth && (pTiming->ui16PanelWidth <= 2048) && 
    2143                    ; 911 |        ((pTiming->ui16PanelWidth % 16) == 0));                         
    2144                    ; 912 | ASSERT(pTiming->ui16PanelHeight && (pTiming->ui16PanelHeight <= 2048));
TI ARM Assembler Unix v18.1.1 Fri Jul  3 20:08:25 2020

Tools Copyright (c) 1996-2017 Texas Instruments Incorporated
lcd.asm                                                              PAGE   40

    2145                    ; 913 | ASSERT(pTiming->ui16HFrontPorch && (pTiming->ui16HFrontPorch <= 1024));
    2146                    ; 914 | ASSERT(pTiming->ui16HBackPorch && (pTiming->ui16HBackPorch <= 1024));  
    2147                    ; 915 | ASSERT(pTiming->ui16HSyncWidth && (pTiming->ui16HSyncWidth <= 1024));  
    2148                    ; 916 | ASSERT(pTiming->ui8VSyncWidth && (pTiming->ui8VSyncWidth <= 64));      
    2149                    ; 918 | //                                                                     
    2150                    ; 919 | // Construct the values we need for the three raster timing registers. 
    2151                    ; 920 | //                                                                     
    2152                    ;----------------------------------------------------------------------
    2153 0000026e 9101              STR       A2, [SP, #4]          ; [DPU_V7M3_PIPE] |895|  ; [ORIG 16-BIT INS]
    2154 00000270 9000              STR       A1, [SP, #0]          ; [DPU_V7M3_PIPE] |895|  ; [ORIG 16-BIT INS]
    2155                            .dwpsn  file "../driverlib/lcd.c",line 921,column 5,is_stmt,isa 1
    2156                    ;----------------------------------------------------------------------
    2157                    ; 921 | ui32T0 = ((uint32_t)((pTiming->ui16HBackPorch - 1) & 0xFF) <<          
    2158                    ; 922 |           LCD_RASTRTIM0_HBP_S) |                                       
    2159                    ; 923 |          ((uint32_t)((pTiming->ui16HFrontPorch - 1) & 0xFF) <<         
    2160                    ; 924 |           LCD_RASTRTIM0_HFP_S) |                                       
    2161                    ; 925 |          ((uint32_t)((pTiming->ui16HSyncWidth - 1) & 0x3F) <<          
    2162                    ; 926 |           LCD_RASTRTIM0_HSW_S) |                                       
    2163                    ; 927 |          (((uint32_t)((pTiming->ui16PanelWidth - 1) & 0x3F0) >> 4) <<  
    2164                    ; 928 |           LCD_RASTRTIM0_PPL_S) |                                       
    2165                    ; 929 |          (((uint32_t)((pTiming->ui16PanelWidth - 1) & 0x400) >> 10) << 
    2166                    ; 930 |           LCD_RASTRTIM0_MSBPPL_S);                                     
    2167                    ;----------------------------------------------------------------------
    2168 00000272 9C01              LDR       V1, [SP, #4]          ; [DPU_V7M3_PIPE] |921|  ; [ORIG 16-BIT INS]
    2169 00000274 9B01              LDR       A4, [SP, #4]          ; [DPU_V7M3_PIPE] |921|  ; [ORIG 16-BIT INS]
    2170 00000276 9901              LDR       A2, [SP, #4]          ; [DPU_V7M3_PIPE] |921|  ; [ORIG 16-BIT INS]
    2171 00000278 9A01              LDR       A3, [SP, #4]          ; [DPU_V7M3_PIPE] |921|  ; [ORIG 16-BIT INS]
    2172 0000027a 9801              LDR       A1, [SP, #4]          ; [DPU_V7M3_PIPE] |921|  ; [ORIG 16-BIT INS]
    2173 0000027c 8964              LDRH      V1, [V1, #10]         ; [DPU_V7M3_PIPE] |921|  ; [ORIG 16-BIT INS]
    2174 0000027e 891B              LDRH      A4, [A4, #8]          ; [DPU_V7M3_PIPE] |921|  ; [ORIG 16-BIT INS]
    2175 00000280 8889              LDRH      A2, [A2, #4]          ; [DPU_V7M3_PIPE] |921|  ; [ORIG 16-BIT INS]
    2176 00000282 8992              LDRH      A3, [A3, #12]         ; [DPU_V7M3_PIPE] |921|  ; [ORIG 16-BIT INS]
    2177 00000284 8880              LDRH      A1, [A1, #4]          ; [DPU_V7M3_PIPE] |921|  ; [ORIG 16-BIT INS]
    2178 00000286 1E64              SUBS      V1, V1, #1            ; [DPU_V7M3_PIPE] |921|  ; [ORIG 16-BIT INS]
    2179 00000288 1E5B              SUBS      A4, A4, #1            ; [DPU_V7M3_PIPE] |921|  ; [ORIG 16-BIT INS]
    2180 0000028a 1E49              SUBS      A2, A2, #1            ; [DPU_V7M3_PIPE] |921|  ; [ORIG 16-BIT INS]
    2181 0000028c 1E52              SUBS      A3, A3, #1            ; [DPU_V7M3_PIPE] |921|  ; [ORIG 16-BIT INS]
    2182 0000028e 1E40              SUBS      A1, A1, #1            ; [DPU_V7M3_PIPE] |921|  ; [ORIG 16-BIT INS]
    2183 00000290 04FFF004          AND       V1, V1, #255          ; [DPU_V7M3_PIPE] |921|  ; [KEEP 32-BIT INS]
    2184 00000294 717CF401          AND       A2, A2, #1008         ; [DPU_V7M3_PIPE] |921|  ; [KEEP 32-BIT INS]
    2185 00000298 03FFF003          AND       A4, A4, #255          ; [DPU_V7M3_PIPE] |921|  ; [KEEP 32-BIT INS]
    2186 0000029c 6080F400          AND       A1, A1, #1024         ; [DPU_V7M3_PIPE] |921|  ; [KEEP 32-BIT INS]
    2187 000002a0 023FF002          AND       A3, A3, #63           ; [DPU_V7M3_PIPE] |921|  ; [KEEP 32-BIT INS]
    2188 000002a4 0624              LSLS      V1, V1, #24           ; [DPU_V7M3_PIPE] |921|  ; [ORIG 16-BIT INS]
    2189 000002a6 0909              LSRS      A2, A2, #4            ; [DPU_V7M3_PIPE] |921|  ; [ORIG 16-BIT INS]
    2190 000002a8 0A80              LSRS      A1, A1, #10           ; [DPU_V7M3_PIPE] |921|  ; [ORIG 16-BIT INS]
    2191 000002aa 4403EA44          ORR       V1, V1, A4, LSL #16   ; [DPU_V7M3_PIPE] |921|  ; [KEEP 32-BIT INS]
    2192 000002ae 2482EA44          ORR       V1, V1, A3, LSL #10   ; [DPU_V7M3_PIPE] |921|  ; [KEEP 32-BIT INS]
    2193 000002b2 1401EA44          ORR       V1, V1, A2, LSL #4    ; [DPU_V7M3_PIPE] |921|  ; [KEEP 32-BIT INS]
    2194 000002b6 04C0EA44          ORR       V1, V1, A1, LSL #3    ; [DPU_V7M3_PIPE] |921|  ; [KEEP 32-BIT INS]
    2195 000002ba 9402              STR       V1, [SP, #8]          ; [DPU_V7M3_PIPE] |921|  ; [ORIG 16-BIT INS]
    2196                            .dwpsn  file "../driverlib/lcd.c",line 931,column 5,is_stmt,isa 1
    2197                    ;----------------------------------------------------------------------
    2198                    ; 931 | ui32T1 = ((uint32_t)pTiming->ui8VBackPorch << LCD_RASTRTIM1_VBP_S) |   
    2199                    ; 932 |          ((uint32_t)pTiming->ui8VFrontPorch << LCD_RASTRTIM1_VFP_S) |  
TI ARM Assembler Unix v18.1.1 Fri Jul  3 20:08:25 2020

Tools Copyright (c) 1996-2017 Texas Instruments Incorporated
lcd.asm                                                              PAGE   41

    2200                    ; 933 |          ((uint32_t)((pTiming->ui8VSyncWidth - 1) & 0x3F) <<           
    2201                    ; 934 |           LCD_RASTRTIM1_VSW_S) |                                       
    2202                    ; 935 |          ((uint32_t)(pTiming->ui16PanelHeight - 1) & 0x3FF) <<         
    2203                    ; 936 |          LCD_RASTRTIM1_LPP_S;                                          
    2204                    ;----------------------------------------------------------------------
    2205 000002bc 9901              LDR       A2, [SP, #4]          ; [DPU_V7M3_PIPE] |931|  ; [ORIG 16-BIT INS]
    2206 000002be 9801              LDR       A1, [SP, #4]          ; [DPU_V7M3_PIPE] |931|  ; [ORIG 16-BIT INS]
    2207 000002c0 9A01              LDR       A3, [SP, #4]          ; [DPU_V7M3_PIPE] |931|  ; [ORIG 16-BIT INS]
    2208 000002c2 9B01              LDR       A4, [SP, #4]          ; [DPU_V7M3_PIPE] |931|  ; [ORIG 16-BIT INS]
    2209 000002c4 7C09              LDRB      A2, [A2, #16]         ; [DPU_V7M3_PIPE] |931|  ; [ORIG 16-BIT INS]
    2210 000002c6 88C0              LDRH      A1, [A1, #6]          ; [DPU_V7M3_PIPE] |931|  ; [ORIG 16-BIT INS]
    2211 000002c8 7BD2              LDRB      A3, [A3, #15]         ; [DPU_V7M3_PIPE] |931|  ; [ORIG 16-BIT INS]
    2212 000002ca 7B9B              LDRB      A4, [A4, #14]         ; [DPU_V7M3_PIPE] |931|  ; [ORIG 16-BIT INS]
    2213 000002cc 1E49              SUBS      A2, A2, #1            ; [DPU_V7M3_PIPE] |931|  ; [ORIG 16-BIT INS]
    2214 000002ce 1E40              SUBS      A1, A1, #1            ; [DPU_V7M3_PIPE] |931|  ; [ORIG 16-BIT INS]
    2215 000002d0 0612              LSLS      A3, A3, #24           ; [DPU_V7M3_PIPE] |931|  ; [ORIG 16-BIT INS]
    2216 000002d2 013FF001          AND       A2, A2, #63           ; [DPU_V7M3_PIPE] |931|  ; [KEEP 32-BIT INS]
    2217 000002d6 209FF36F          BFC       A1, #10, #22          ; [DPU_V7M3_PIPE] |931|  ; [KEEP 32-BIT INS]
    2218 000002da 4203EA42          ORR       A3, A3, A4, LSL #16   ; [DPU_V7M3_PIPE] |931|  ; [KEEP 32-BIT INS]
    2219 000002de 2281EA42          ORR       A3, A3, A2, LSL #10   ; [DPU_V7M3_PIPE] |931|  ; [KEEP 32-BIT INS]
    2220 000002e2 4310              ORRS      A1, A1, A3            ; [DPU_V7M3_PIPE] |931|  ; [ORIG 16-BIT INS]
    2221 000002e4 9003              STR       A1, [SP, #12]         ; [DPU_V7M3_PIPE] |931|  ; [ORIG 16-BIT INS]
    2222                            .dwpsn  file "../driverlib/lcd.c",line 937,column 5,is_stmt,isa 1
    2223                    ;----------------------------------------------------------------------
    2224                    ; 937 | ui32T2 = pTiming->ui32Flags |                                          
    2225                    ; 938 |          ((((pTiming->ui16HSyncWidth - 1) & 0x3C0) >> 6) <<            
    2226                    ; 939 |           LCD_RASTRTIM2_HSW_S) |                                       
    2227                    ; 940 |          ((((pTiming->ui16PanelHeight - 1) & 0x400) >> 10) <<          
    2228                    ; 941 |           LCD_RASTRTIM2_MSBLPP_S) |                                    
    2229                    ; 942 |          ((((pTiming->ui16HBackPorch - 1) & 0x300) >> 8) <<            
    2230                    ; 943 |           LCD_RASTRTIM2_MSBHBP_S) |                                    
    2231                    ; 944 |          ((((pTiming->ui16HFrontPorch - 1) & 0x300) >> 8) <<           
    2232                    ; 945 |           LCD_RASTRTIM2_MSBHFP_S) |                                    
    2233                    ; 946 |          (pTiming->ui8ACBiasLineCount << LCD_RASTRTIM2_ACBF_S);        
    2234                    ; 948 | //                                                                     
    2235                    ; 949 | // Write the timing registers, taking care to preserve any existing val
    2236                    ;     | ue                                                                     
    2237                    ; 950 | // in the AC Bias interrupt field of RASTRTIM2.                        
    2238                    ; 951 | //                                                                     
    2239                    ;----------------------------------------------------------------------
    2240 000002e6 9B01              LDR       A4, [SP, #4]          ; [DPU_V7M3_PIPE] |937|  ; [ORIG 16-BIT INS]
    2241 000002e8 9A01              LDR       A3, [SP, #4]          ; [DPU_V7M3_PIPE] |937|  ; [ORIG 16-BIT INS]
    2242 000002ea 9901              LDR       A2, [SP, #4]          ; [DPU_V7M3_PIPE] |937|  ; [ORIG 16-BIT INS]
    2243 000002ec 9801              LDR       A1, [SP, #4]          ; [DPU_V7M3_PIPE] |937|  ; [ORIG 16-BIT INS]
    2244 000002ee 9C01              LDR       V1, [SP, #4]          ; [DPU_V7M3_PIPE] |937|  ; [ORIG 16-BIT INS]
    2245 000002f0 9D01              LDR       V2, [SP, #4]          ; [DPU_V7M3_PIPE] |937|  ; [ORIG 16-BIT INS]
    2246 000002f2 899B              LDRH      A4, [A4, #12]         ; [DPU_V7M3_PIPE] |937|  ; [ORIG 16-BIT INS]
    2247 000002f4 88D2              LDRH      A3, [A3, #6]          ; [DPU_V7M3_PIPE] |937|  ; [ORIG 16-BIT INS]
    2248 000002f6 8949              LDRH      A2, [A2, #10]         ; [DPU_V7M3_PIPE] |937|  ; [ORIG 16-BIT INS]
    2249 000002f8 8900              LDRH      A1, [A1, #8]          ; [DPU_V7M3_PIPE] |937|  ; [ORIG 16-BIT INS]
    2250 000002fa 6824              LDR       V1, [V1, #0]          ; [DPU_V7M3_PIPE] |937|  ; [ORIG 16-BIT INS]
    2251 000002fc 7C6D              LDRB      V2, [V2, #17]         ; [DPU_V7M3_PIPE] |937|  ; [ORIG 16-BIT INS]
    2252 000002fe 1E5B              SUBS      A4, A4, #1            ; [DPU_V7M3_PIPE] |937|  ; [ORIG 16-BIT INS]
    2253 00000300 1E52              SUBS      A3, A3, #1            ; [DPU_V7M3_PIPE] |937|  ; [ORIG 16-BIT INS]
    2254 00000302 1E49              SUBS      A2, A2, #1            ; [DPU_V7M3_PIPE] |937|  ; [ORIG 16-BIT INS]
TI ARM Assembler Unix v18.1.1 Fri Jul  3 20:08:25 2020

Tools Copyright (c) 1996-2017 Texas Instruments Incorporated
lcd.asm                                                              PAGE   42

    2255 00000304 1E40              SUBS      A1, A1, #1            ; [DPU_V7M3_PIPE] |937|  ; [ORIG 16-BIT INS]
    2256 00000306 7370F403          AND       A4, A4, #960          ; [DPU_V7M3_PIPE] |937|  ; [KEEP 32-BIT INS]
    2257 0000030a 6280F402          AND       A3, A3, #1024         ; [DPU_V7M3_PIPE] |937|  ; [KEEP 32-BIT INS]
    2258 0000030e 7140F401          AND       A2, A2, #768          ; [DPU_V7M3_PIPE] |937|  ; [KEEP 32-BIT INS]
    2259 00000312 7040F400          AND       A1, A1, #768          ; [DPU_V7M3_PIPE] |937|  ; [KEEP 32-BIT INS]
    2260 00000316 119B              ASRS      A4, A4, #6            ; [DPU_V7M3_PIPE] |937|  ; [ORIG 16-BIT INS]
    2261 00000318 1292              ASRS      A3, A3, #10           ; [DPU_V7M3_PIPE] |937|  ; [ORIG 16-BIT INS]
    2262 0000031a 1209              ASRS      A2, A2, #8            ; [DPU_V7M3_PIPE] |937|  ; [ORIG 16-BIT INS]
    2263 0000031c 64C3EA44          ORR       V1, V1, A4, LSL #27   ; [DPU_V7M3_PIPE] |937|  ; [KEEP 32-BIT INS]
    2264 00000320 6482EA44          ORR       V1, V1, A3, LSL #26   ; [DPU_V7M3_PIPE] |937|  ; [KEEP 32-BIT INS]
    2265 00000324 1401EA44          ORR       V1, V1, A2, LSL #4    ; [DPU_V7M3_PIPE] |937|  ; [KEEP 32-BIT INS]
    2266 00000328 2420EA44          ORR       V1, V1, A1, ASR #8    ; [DPU_V7M3_PIPE] |937|  ; [KEEP 32-BIT INS]
    2267 0000032c 2405EA44          ORR       V1, V1, V2, LSL #8    ; [DPU_V7M3_PIPE] |937|  ; [KEEP 32-BIT INS]
    2268 00000330 9404              STR       V1, [SP, #16]         ; [DPU_V7M3_PIPE] |937|  ; [ORIG 16-BIT INS]
    2269                            .dwpsn  file "../driverlib/lcd.c",line 952,column 5,is_stmt,isa 1
    2270                    ;----------------------------------------------------------------------
    2271                    ; 952 | HWREG(ui32Base + LCD_O_RASTRTIM0) = ui32T0;                            
    2272                    ;----------------------------------------------------------------------
    2273 00000332 9802              LDR       A1, [SP, #8]          ; [DPU_V7M3_PIPE] |952|  ; [ORIG 16-BIT INS]
    2274 00000334 9900              LDR       A2, [SP, #0]          ; [DPU_V7M3_PIPE] |952|  ; [ORIG 16-BIT INS]
    2275 00000336 62C8              STR       A1, [A2, #44]         ; [DPU_V7M3_PIPE] |952|  ; [ORIG 16-BIT INS]
    2276                            .dwpsn  file "../driverlib/lcd.c",line 953,column 5,is_stmt,isa 1
    2277                    ;----------------------------------------------------------------------
    2278                    ; 953 | HWREG(ui32Base + LCD_O_RASTRTIM1) = ui32T1;                            
    2279                    ;----------------------------------------------------------------------
    2280 00000338 9803              LDR       A1, [SP, #12]         ; [DPU_V7M3_PIPE] |953|  ; [ORIG 16-BIT INS]
    2281 0000033a 9900              LDR       A2, [SP, #0]          ; [DPU_V7M3_PIPE] |953|  ; [ORIG 16-BIT INS]
    2282 0000033c 6308              STR       A1, [A2, #48]         ; [DPU_V7M3_PIPE] |953|  ; [ORIG 16-BIT INS]
    2283                            .dwpsn  file "../driverlib/lcd.c",line 954,column 5,is_stmt,isa 1
    2284                    ;----------------------------------------------------------------------
    2285                    ; 954 | HWREG(ui32Base + LCD_O_RASTRTIM2) = (HWREG(ui32Base + LCD_O_RASTRTIM2)
    2286                    ;     | &                                                                      
    2287                    ; 955 |                                      LCD_RASTRTIM2_ACBI_M) | ui32T2;   
    2288                    ;----------------------------------------------------------------------
    2289 0000033e 9800              LDR       A1, [SP, #0]          ; [DPU_V7M3_PIPE] |954|  ; [ORIG 16-BIT INS]
    2290 00000340 9904              LDR       A2, [SP, #16]         ; [DPU_V7M3_PIPE] |954|  ; [ORIG 16-BIT INS]
    2291 00000342 9A00              LDR       A3, [SP, #0]          ; [DPU_V7M3_PIPE] |954|  ; [ORIG 16-BIT INS]
    2292 00000344 6B40              LDR       A1, [A1, #52]         ; [DPU_V7M3_PIPE] |954|  ; [ORIG 16-BIT INS]
    2293 00000346 2070F400          AND       A1, A1, #983040       ; [DPU_V7M3_PIPE] |954|  ; [KEEP 32-BIT INS]
    2294 0000034a 4301              ORRS      A2, A2, A1            ; [DPU_V7M3_PIPE] |954|  ; [ORIG 16-BIT INS]
    2295 0000034c 6351              STR       A2, [A3, #52]         ; [DPU_V7M3_PIPE] |954|  ; [ORIG 16-BIT INS]
    2296                            .dwpsn  file "../driverlib/lcd.c",line 956,column 1,is_stmt,isa 1
    2297 0000034e B005              ADD       SP, SP, #20           ; [DPU_V7M3_PIPE]  ; [ORIG 16-BIT INS]
    2298                            .dwcfi  cfa_offset, 12
    2299                    $C$DW$128       .dwtag  DW_TAG_TI_branch
    2300                            .dwattr $C$DW$128, DW_AT_low_pc(0x00)
    2301                            .dwattr $C$DW$128, DW_AT_TI_return
    2302                    
    2303 00000350 BD30              POP       {V1, V2, PC}          ; [DPU_V7M3_PIPE]  ; [ORIG 16-BIT INS]
    2304                            .dwcfi  cfa_offset, 0
    2305                            .dwcfi  restore_reg, 5
    2306                            .dwcfi  restore_reg, 4
    2307                            ; BRANCH OCCURS                  ; [] 
    2308                            .dwattr $C$DW$120, DW_AT_TI_end_file("../driverlib/lcd.c")
    2309                            .dwattr $C$DW$120, DW_AT_TI_end_line(0x3bc)
TI ARM Assembler Unix v18.1.1 Fri Jul  3 20:08:25 2020

Tools Copyright (c) 1996-2017 Texas Instruments Incorporated
lcd.asm                                                              PAGE   43

    2310                            .dwattr $C$DW$120, DW_AT_TI_end_column(0x01)
    2311                            .dwendentry
    2312                            .dwendtag $C$DW$120
    2313                    
    2314 00000352                   .sect   ".text"
    2315                            .clink
    2316                            .thumbfunc LCDRasterACBiasIntCountSet
    2317 00000352                   .thumb
    2318                            .global LCDRasterACBiasIntCountSet
    2319                    
    2320                    $C$DW$129       .dwtag  DW_TAG_subprogram
    2321                            .dwattr $C$DW$129, DW_AT_name("LCDRasterACBiasIntCountSet")
    2322                            .dwattr $C$DW$129, DW_AT_low_pc(LCDRasterACBiasIntCountSet)
    2323                            .dwattr $C$DW$129, DW_AT_high_pc(0x00)
    2324                            .dwattr $C$DW$129, DW_AT_TI_symbol_name("LCDRasterACBiasIntCountSet")
    2325                            .dwattr $C$DW$129, DW_AT_external
    2326                            .dwattr $C$DW$129, DW_AT_TI_begin_file("../driverlib/lcd.c")
    2327                            .dwattr $C$DW$129, DW_AT_TI_begin_line(0x3ce)
    2328                            .dwattr $C$DW$129, DW_AT_TI_begin_column(0x01)
    2329                            .dwattr $C$DW$129, DW_AT_decl_file("../driverlib/lcd.c")
    2330                            .dwattr $C$DW$129, DW_AT_decl_line(0x3ce)
    2331                            .dwattr $C$DW$129, DW_AT_decl_column(0x01)
    2332                            .dwattr $C$DW$129, DW_AT_TI_max_frame_size(0x10)
    2333                            .dwpsn  file "../driverlib/lcd.c",line 975,column 1,is_stmt,address LCDRasterACBiasIntCountSet
    2334                    
    2335                            .dwfde $C$DW$CIE, LCDRasterACBiasIntCountSet
    2336                    $C$DW$130       .dwtag  DW_TAG_formal_parameter
    2337                            .dwattr $C$DW$130, DW_AT_name("ui32Base")
    2338                            .dwattr $C$DW$130, DW_AT_TI_symbol_name("ui32Base")
    2339                            .dwattr $C$DW$130, DW_AT_type(*$C$DW$T$25)
    2340                            .dwattr $C$DW$130, DW_AT_location[DW_OP_reg0]
    2341                    
    2342                    $C$DW$131       .dwtag  DW_TAG_formal_parameter
    2343                            .dwattr $C$DW$131, DW_AT_name("ui8Count")
    2344                            .dwattr $C$DW$131, DW_AT_TI_symbol_name("ui8Count")
    2345                            .dwattr $C$DW$131, DW_AT_type(*$C$DW$T$22)
    2346                            .dwattr $C$DW$131, DW_AT_location[DW_OP_reg1]
    2347                    
    2348                    ;----------------------------------------------------------------------
    2349                    ; 974 | LCDRasterACBiasIntCountSet(uint32_t ui32Base, uint8_t ui8Count)        
    2350                    ;----------------------------------------------------------------------
    2351                    
    2352                    ;*****************************************************************************
    2353                    ;* FUNCTION NAME: LCDRasterACBiasIntCountSet                                 *
    2354                    ;*                                                                           *
    2355                    ;*   Regs Modified     : A1,A2,SP,SR                                         *
    2356                    ;*   Regs Used         : A1,A2,SP,LR,SR                                      *
    2357                    ;*   Local Frame Size  : 0 Args + 12 Auto + 0 Save = 12 byte                 *
    2358                    ;*****************************************************************************
    2359 00000352           LCDRasterACBiasIntCountSet:
    2360                    ;* --------------------------------------------------------------------------*
    2361                            .dwcfi  cfa_offset, 0
    2362 00000352 0D10F1AD          SUB       SP, SP, #16           ; [DPU_V7M3_PIPE]  ; [KEEP 32-BIT INS]
    2363                            .dwcfi  cfa_offset, 16
    2364                    $C$DW$132       .dwtag  DW_TAG_variable
TI ARM Assembler Unix v18.1.1 Fri Jul  3 20:08:25 2020

Tools Copyright (c) 1996-2017 Texas Instruments Incorporated
lcd.asm                                                              PAGE   44

    2365                            .dwattr $C$DW$132, DW_AT_name("ui32Base")
    2366                            .dwattr $C$DW$132, DW_AT_TI_symbol_name("ui32Base")
    2367                            .dwattr $C$DW$132, DW_AT_type(*$C$DW$T$25)
    2368                            .dwattr $C$DW$132, DW_AT_location[DW_OP_breg13 0]
    2369                    
    2370                    $C$DW$133       .dwtag  DW_TAG_variable
    2371                            .dwattr $C$DW$133, DW_AT_name("ui32Val")
    2372                            .dwattr $C$DW$133, DW_AT_TI_symbol_name("ui32Val")
    2373                            .dwattr $C$DW$133, DW_AT_type(*$C$DW$T$25)
    2374                            .dwattr $C$DW$133, DW_AT_location[DW_OP_breg13 4]
    2375                    
    2376                    $C$DW$134       .dwtag  DW_TAG_variable
    2377                            .dwattr $C$DW$134, DW_AT_name("ui8Count")
    2378                            .dwattr $C$DW$134, DW_AT_TI_symbol_name("ui8Count")
    2379                            .dwattr $C$DW$134, DW_AT_type(*$C$DW$T$22)
    2380                            .dwattr $C$DW$134, DW_AT_location[DW_OP_breg13 8]
    2381                    
    2382                    ;----------------------------------------------------------------------
    2383                    ; 976 | uint32_t ui32Val;                                                      
    2384                    ; 978 | //                                                                     
    2385                    ; 979 | // Sanity check parameters.                                            
    2386                    ; 980 | //                                                                     
    2387                    ; 981 | ASSERT(ui32Base == LCD0_BASE);                                         
    2388                    ; 982 | ASSERT(ui8Count < 16);                                                 
    2389                    ; 984 | //                                                                     
    2390                    ; 985 | // Get the existing raster timing 2 register value and mask in the new 
    2391                    ; 986 | // AC Bias interrupt count.                                            
    2392                    ; 987 | //                                                                     
    2393                    ;----------------------------------------------------------------------
    2394 00000356 1008F88D          STRB      A2, [SP, #8]          ; [DPU_V7M3_PIPE] |975|  ; [KEEP 32-BIT INS]
    2395 0000035a 9000              STR       A1, [SP, #0]          ; [DPU_V7M3_PIPE] |975|  ; [ORIG 16-BIT INS]
    2396                            .dwpsn  file "../driverlib/lcd.c",line 988,column 5,is_stmt,isa 1
    2397                    ;----------------------------------------------------------------------
    2398                    ; 988 | ui32Val = HWREG(ui32Base + LCD_O_RASTRTIM2);                           
    2399                    ;----------------------------------------------------------------------
    2400 0000035c 9800              LDR       A1, [SP, #0]          ; [DPU_V7M3_PIPE] |988|  ; [ORIG 16-BIT INS]
    2401 0000035e 6B40              LDR       A1, [A1, #52]         ; [DPU_V7M3_PIPE] |988|  ; [ORIG 16-BIT INS]
    2402 00000360 9001              STR       A1, [SP, #4]          ; [DPU_V7M3_PIPE] |988|  ; [ORIG 16-BIT INS]
    2403                            .dwpsn  file "../driverlib/lcd.c",line 989,column 5,is_stmt,isa 1
    2404                    ;----------------------------------------------------------------------
    2405                    ; 989 | ui32Val &= ~LCD_RASTRTIM2_ACBI_M;                                      
    2406                    ;----------------------------------------------------------------------
    2407 00000362 9801              LDR       A1, [SP, #4]          ; [DPU_V7M3_PIPE] |989|  ; [ORIG 16-BIT INS]
    2408 00000364 2070F420          BIC       A1, A1, #983040       ; [DPU_V7M3_PIPE] |989|  ; [KEEP 32-BIT INS]
    2409 00000368 9001              STR       A1, [SP, #4]          ; [DPU_V7M3_PIPE] |989|  ; [ORIG 16-BIT INS]
    2410                            .dwpsn  file "../driverlib/lcd.c",line 990,column 5,is_stmt,isa 1
    2411                    ;----------------------------------------------------------------------
    2412                    ; 990 | ui32Val |= ((ui8Count << LCD_RASTRTIM2_ACBI_S) & LCD_RASTRTIM2_ACBI_M);
    2413                    ; 992 | //                                                                     
    2414                    ; 993 | // Write the new value back to the register.                           
    2415                    ; 994 | //                                                                     
    2416                    ;----------------------------------------------------------------------
    2417 0000036a 0008F89D          LDRB      A1, [SP, #8]          ; [DPU_V7M3_PIPE] |990|  ; [KEEP 32-BIT INS]
    2418 0000036e 9901              LDR       A2, [SP, #4]          ; [DPU_V7M3_PIPE] |990|  ; [ORIG 16-BIT INS]
    2419 00000370 0400              LSLS      A1, A1, #16           ; [DPU_V7M3_PIPE] |990|  ; [ORIG 16-BIT INS]
TI ARM Assembler Unix v18.1.1 Fri Jul  3 20:08:25 2020

Tools Copyright (c) 1996-2017 Texas Instruments Incorporated
lcd.asm                                                              PAGE   45

    2420 00000372 2070F400          AND       A1, A1, #983040       ; [DPU_V7M3_PIPE] |990|  ; [KEEP 32-BIT INS]
    2421 00000376 4308              ORRS      A1, A1, A2            ; [DPU_V7M3_PIPE] |990|  ; [ORIG 16-BIT INS]
    2422 00000378 9001              STR       A1, [SP, #4]          ; [DPU_V7M3_PIPE] |990|  ; [ORIG 16-BIT INS]
    2423                            .dwpsn  file "../driverlib/lcd.c",line 995,column 5,is_stmt,isa 1
    2424                    ;----------------------------------------------------------------------
    2425                    ; 995 | HWREG(ui32Base + LCD_O_RASTRTIM2) = ui32Val;                           
    2426                    ;----------------------------------------------------------------------
    2427 0000037a 9900              LDR       A2, [SP, #0]          ; [DPU_V7M3_PIPE] |995|  ; [ORIG 16-BIT INS]
    2428 0000037c 9801              LDR       A1, [SP, #4]          ; [DPU_V7M3_PIPE] |995|  ; [ORIG 16-BIT INS]
    2429 0000037e 6348              STR       A1, [A2, #52]         ; [DPU_V7M3_PIPE] |995|  ; [ORIG 16-BIT INS]
    2430                            .dwpsn  file "../driverlib/lcd.c",line 996,column 1,is_stmt,isa 1
    2431 00000380 B004              ADD       SP, SP, #16           ; [DPU_V7M3_PIPE]  ; [ORIG 16-BIT INS]
    2432                            .dwcfi  cfa_offset, 0
    2433                    $C$DW$135       .dwtag  DW_TAG_TI_branch
    2434                            .dwattr $C$DW$135, DW_AT_low_pc(0x00)
    2435                            .dwattr $C$DW$135, DW_AT_TI_return
    2436                    
    2437 00000382 4770              BX        LR                    ; [DPU_V7M3_PIPE]  ; [ORIG 16-BIT INS]
    2438                            ; BRANCH OCCURS                  ; [] 
    2439                            .dwattr $C$DW$129, DW_AT_TI_end_file("../driverlib/lcd.c")
    2440                            .dwattr $C$DW$129, DW_AT_TI_end_line(0x3e4)
    2441                            .dwattr $C$DW$129, DW_AT_TI_end_column(0x01)
    2442                            .dwendentry
    2443                            .dwendtag $C$DW$129
    2444                    
    2445 00000384                   .sect   ".text"
    2446                            .clink
    2447                            .thumbfunc LCDRasterEnable
    2448 00000384                   .thumb
    2449                            .global LCDRasterEnable
    2450                    
    2451                    $C$DW$136       .dwtag  DW_TAG_subprogram
    2452                            .dwattr $C$DW$136, DW_AT_name("LCDRasterEnable")
    2453                            .dwattr $C$DW$136, DW_AT_low_pc(LCDRasterEnable)
    2454                            .dwattr $C$DW$136, DW_AT_high_pc(0x00)
    2455                            .dwattr $C$DW$136, DW_AT_TI_symbol_name("LCDRasterEnable")
    2456                            .dwattr $C$DW$136, DW_AT_external
    2457                            .dwattr $C$DW$136, DW_AT_TI_begin_file("../driverlib/lcd.c")
    2458                            .dwattr $C$DW$136, DW_AT_TI_begin_line(0x3f6)
    2459                            .dwattr $C$DW$136, DW_AT_TI_begin_column(0x01)
    2460                            .dwattr $C$DW$136, DW_AT_decl_file("../driverlib/lcd.c")
    2461                            .dwattr $C$DW$136, DW_AT_decl_line(0x3f6)
    2462                            .dwattr $C$DW$136, DW_AT_decl_column(0x01)
    2463                            .dwattr $C$DW$136, DW_AT_TI_max_frame_size(0x08)
    2464                            .dwpsn  file "../driverlib/lcd.c",line 1015,column 1,is_stmt,address LCDRasterEnable,isa 1
    2465                    
    2466                            .dwfde $C$DW$CIE, LCDRasterEnable
    2467                    $C$DW$137       .dwtag  DW_TAG_formal_parameter
    2468                            .dwattr $C$DW$137, DW_AT_name("ui32Base")
    2469                            .dwattr $C$DW$137, DW_AT_TI_symbol_name("ui32Base")
    2470                            .dwattr $C$DW$137, DW_AT_type(*$C$DW$T$25)
    2471                            .dwattr $C$DW$137, DW_AT_location[DW_OP_reg0]
    2472                    
    2473                    ;----------------------------------------------------------------------
    2474                    ; 1014 | LCDRasterEnable(uint32_t ui32Base)                                     
TI ARM Assembler Unix v18.1.1 Fri Jul  3 20:08:25 2020

Tools Copyright (c) 1996-2017 Texas Instruments Incorporated
lcd.asm                                                              PAGE   46

    2475                    ;----------------------------------------------------------------------
    2476                    
    2477                    ;*****************************************************************************
    2478                    ;* FUNCTION NAME: LCDRasterEnable                                            *
    2479                    ;*                                                                           *
    2480                    ;*   Regs Modified     : A1,A2,A3,A4,V9,SP,LR,SR,D0,D0_hi,D1,D1_hi,D2,D2_hi, *
    2481                    ;*                           D3,D3_hi,D4,D4_hi,D5,D5_hi,D6,D6_hi,D7,D7_hi,   *
    2482                    ;*                           FPEXC,FPSCR                                     *
    2483                    ;*   Regs Used         : A1,A2,A3,A4,V9,SP,LR,SR,D0,D0_hi,D1,D1_hi,D2,D2_hi, *
    2484                    ;*                           D3,D3_hi,D4,D4_hi,D5,D5_hi,D6,D6_hi,D7,D7_hi,   *
    2485                    ;*                           FPEXC,FPSCR                                     *
    2486                    ;*   Local Frame Size  : 0 Args + 4 Auto + 4 Save = 8 byte                   *
    2487                    ;*****************************************************************************
    2488 00000384           LCDRasterEnable:
    2489                    ;* --------------------------------------------------------------------------*
    2490                            .dwcfi  cfa_offset, 0
    2491 00000384 B508              PUSH      {A4, LR}              ; [DPU_V7M3_PIPE]  ; [ORIG 16-BIT INS]
    2492                            .dwcfi  cfa_offset, 8
    2493                            .dwcfi  save_reg_to_mem, 14, -4
    2494                            .dwcfi  save_reg_to_mem, 3, -8
    2495                    $C$DW$138       .dwtag  DW_TAG_variable
    2496                            .dwattr $C$DW$138, DW_AT_name("ui32Base")
    2497                            .dwattr $C$DW$138, DW_AT_TI_symbol_name("ui32Base")
    2498                            .dwattr $C$DW$138, DW_AT_type(*$C$DW$T$25)
    2499                            .dwattr $C$DW$138, DW_AT_location[DW_OP_breg13 0]
    2500                    
    2501                    ;----------------------------------------------------------------------
    2502                    ; 1016 | //                                                                     
    2503                    ; 1017 | // Sanity check parameters.                                            
    2504                    ; 1018 | //                                                                     
    2505                    ; 1019 | ASSERT(ui32Base == LCD0_BASE);                                         
    2506                    ; 1021 | //                                                                     
    2507                    ; 1022 | // Reset the module prior to starting the raster.  This is required to 
    2508                    ; 1023 | // ensure correct operation of the raster engine.                      
    2509                    ; 1024 | //                                                                     
    2510                    ;----------------------------------------------------------------------
    2511 00000386 9000              STR       A1, [SP, #0]          ; [DPU_V7M3_PIPE] |1015|  ; [ORIG 16-BIT INS]
    2512                            .dwpsn  file "../driverlib/lcd.c",line 1025,column 5,is_stmt,isa 1
    2513                    ;----------------------------------------------------------------------
    2514                    ; 1025 | LCDClockReset(ui32Base, LCD_CLOCK_MAIN);                               
    2515                    ; 1027 | //                                                                     
    2516                    ; 1028 | // Enable the raster engine.                                           
    2517                    ; 1029 | //                                                                     
    2518                    ;----------------------------------------------------------------------
    2519 00000388 9800              LDR       A1, [SP, #0]          ; [DPU_V7M3_PIPE] |1025|  ; [ORIG 16-BIT INS]
    2520 0000038a 2108              MOVS      A2, #8                ; [DPU_V7M3_PIPE] |1025|  ; [ORIG 16-BIT INS]
    2521                    $C$DW$139       .dwtag  DW_TAG_TI_branch
    2522                            .dwattr $C$DW$139, DW_AT_low_pc(0x00)
    2523                            .dwattr $C$DW$139, DW_AT_name("LCDClockReset")
    2524                            .dwattr $C$DW$139, DW_AT_TI_call
    2525                    
    2526 0000038c FFFEF7FF!         BL        LCDClockReset         ; [DPU_V7M3_PIPE] |1025|  ; [KEEP 32-BIT INS]
    2527                            ; CALL OCCURS {LCDClockReset }   ; [] |1025| 
    2528                            .dwpsn  file "../driverlib/lcd.c",line 1030,column 5,is_stmt,isa 1
    2529                    ;----------------------------------------------------------------------
TI ARM Assembler Unix v18.1.1 Fri Jul  3 20:08:25 2020

Tools Copyright (c) 1996-2017 Texas Instruments Incorporated
lcd.asm                                                              PAGE   47

    2530                    ; 1030 | HWREG(ui32Base + LCD_O_RASTRCTL) |= LCD_RASTRCTL_LCDEN;                
    2531                    ;----------------------------------------------------------------------
    2532 00000390 9800              LDR       A1, [SP, #0]          ; [DPU_V7M3_PIPE] |1030|  ; [ORIG 16-BIT INS]
    2533 00000392 3028              ADDS      A1, A1, #40           ; [DPU_V7M3_PIPE] |1030|  ; [ORIG 16-BIT INS]
    2534 00000394 6801              LDR       A2, [A1, #0]          ; [DPU_V7M3_PIPE] |1030|  ; [ORIG 16-BIT INS]
    2535 00000396 0101F041          ORR       A2, A2, #1            ; [DPU_V7M3_PIPE] |1030|  ; [KEEP 32-BIT INS]
    2536 0000039a 6001              STR       A2, [A1, #0]          ; [DPU_V7M3_PIPE] |1030|  ; [ORIG 16-BIT INS]
    2537                            .dwpsn  file "../driverlib/lcd.c",line 1031,column 1,is_stmt,isa 1
    2538                    $C$DW$140       .dwtag  DW_TAG_TI_branch
    2539                            .dwattr $C$DW$140, DW_AT_low_pc(0x00)
    2540                            .dwattr $C$DW$140, DW_AT_TI_return
    2541                    
    2542 0000039c BD08              POP       {A4, PC}              ; [DPU_V7M3_PIPE]  ; [ORIG 16-BIT INS]
    2543                            .dwcfi  cfa_offset, 0
    2544                            .dwcfi  restore_reg, 3
    2545                            ; BRANCH OCCURS                  ; [] 
    2546                            .dwattr $C$DW$136, DW_AT_TI_end_file("../driverlib/lcd.c")
    2547                            .dwattr $C$DW$136, DW_AT_TI_end_line(0x407)
    2548                            .dwattr $C$DW$136, DW_AT_TI_end_column(0x01)
    2549                            .dwendentry
    2550                            .dwendtag $C$DW$136
    2551                    
    2552 0000039e                   .sect   ".text"
    2553                            .clink
    2554                            .thumbfunc LCDRasterEnabled
    2555 0000039e                   .thumb
    2556                            .global LCDRasterEnabled
    2557                    
    2558                    $C$DW$141       .dwtag  DW_TAG_subprogram
    2559                            .dwattr $C$DW$141, DW_AT_name("LCDRasterEnabled")
    2560                            .dwattr $C$DW$141, DW_AT_low_pc(LCDRasterEnabled)
    2561                            .dwattr $C$DW$141, DW_AT_high_pc(0x00)
    2562                            .dwattr $C$DW$141, DW_AT_TI_symbol_name("LCDRasterEnabled")
    2563                            .dwattr $C$DW$141, DW_AT_external
    2564                            .dwattr $C$DW$141, DW_AT_type(*$C$DW$T$137)
    2565                            .dwattr $C$DW$141, DW_AT_TI_begin_file("../driverlib/lcd.c")
    2566                            .dwattr $C$DW$141, DW_AT_TI_begin_line(0x417)
    2567                            .dwattr $C$DW$141, DW_AT_TI_begin_column(0x01)
    2568                            .dwattr $C$DW$141, DW_AT_decl_file("../driverlib/lcd.c")
    2569                            .dwattr $C$DW$141, DW_AT_decl_line(0x417)
    2570                            .dwattr $C$DW$141, DW_AT_decl_column(0x01)
    2571                            .dwattr $C$DW$141, DW_AT_TI_max_frame_size(0x08)
    2572                            .dwpsn  file "../driverlib/lcd.c",line 1048,column 1,is_stmt,address LCDRasterEnabled,isa 1
    2573                    
    2574                            .dwfde $C$DW$CIE, LCDRasterEnabled
    2575                    $C$DW$142       .dwtag  DW_TAG_formal_parameter
    2576                            .dwattr $C$DW$142, DW_AT_name("ui32Base")
    2577                            .dwattr $C$DW$142, DW_AT_TI_symbol_name("ui32Base")
    2578                            .dwattr $C$DW$142, DW_AT_type(*$C$DW$T$25)
    2579                            .dwattr $C$DW$142, DW_AT_location[DW_OP_reg0]
    2580                    
    2581                    ;----------------------------------------------------------------------
    2582                    ; 1047 | LCDRasterEnabled(uint32_t ui32Base)                                    
    2583                    ;----------------------------------------------------------------------
    2584                    
TI ARM Assembler Unix v18.1.1 Fri Jul  3 20:08:25 2020

Tools Copyright (c) 1996-2017 Texas Instruments Incorporated
lcd.asm                                                              PAGE   48

    2585                    ;*****************************************************************************
    2586                    ;* FUNCTION NAME: LCDRasterEnabled                                           *
    2587                    ;*                                                                           *
    2588                    ;*   Regs Modified     : A1,A2,SP,SR                                         *
    2589                    ;*   Regs Used         : A1,A2,SP,LR,SR                                      *
    2590                    ;*   Local Frame Size  : 0 Args + 4 Auto + 0 Save = 4 byte                   *
    2591                    ;*****************************************************************************
    2592 0000039e           LCDRasterEnabled:
    2593                    ;* --------------------------------------------------------------------------*
    2594                            .dwcfi  cfa_offset, 0
    2595 0000039e 0D08F1AD          SUB       SP, SP, #8            ; [DPU_V7M3_PIPE]  ; [KEEP 32-BIT INS]
    2596                            .dwcfi  cfa_offset, 8
    2597                    $C$DW$143       .dwtag  DW_TAG_variable
    2598                            .dwattr $C$DW$143, DW_AT_name("ui32Base")
    2599                            .dwattr $C$DW$143, DW_AT_TI_symbol_name("ui32Base")
    2600                            .dwattr $C$DW$143, DW_AT_type(*$C$DW$T$25)
    2601                            .dwattr $C$DW$143, DW_AT_location[DW_OP_breg13 0]
    2602                    
    2603                    ;----------------------------------------------------------------------
    2604                    ; 1049 | //                                                                     
    2605                    ; 1050 | // Sanity check parameters.                                            
    2606                    ; 1051 | //                                                                     
    2607                    ; 1052 | ASSERT(ui32Base == LCD0_BASE);                                         
    2608                    ; 1054 | //                                                                     
    2609                    ; 1055 | // Return the current raster engine status.                            
    2610                    ; 1056 | //                                                                     
    2611                    ;----------------------------------------------------------------------
    2612 000003a2 9000              STR       A1, [SP, #0]          ; [DPU_V7M3_PIPE] |1048|  ; [ORIG 16-BIT INS]
    2613                            .dwpsn  file "../driverlib/lcd.c",line 1057,column 5,is_stmt,isa 1
    2614                    ;----------------------------------------------------------------------
    2615                    ; 1057 | return((HWREG(ui32Base + LCD_O_RASTRCTL) & LCD_RASTRCTL_LCDEN) ?       
    2616                    ; 1058 |        true : false);                                                  
    2617                    ;----------------------------------------------------------------------
    2618 000003a4 9800              LDR       A1, [SP, #0]          ; [DPU_V7M3_PIPE] |1057|  ; [ORIG 16-BIT INS]
    2619 000003a6 6A81              LDR       A2, [A1, #40]         ; [DPU_V7M3_PIPE] |1057|  ; [ORIG 16-BIT INS]
    2620 000003a8 2000              MOVS      A1, #0                ; [DPU_V7M3_PIPE] |1057|  ; [ORIG 16-BIT INS]
    2621 000003aa 0849              LSRS      A2, A2, #1            ; [DPU_V7M3_PIPE] |1057|  ; [ORIG 16-BIT INS]
    2622 000003ac D301              BCC       ||$C$L23||            ; [DPU_V7M3_PIPE] |1057|  ; [ORIG 16-BIT INS]
    2623                            ; BRANCHCC OCCURS {||$C$L23||}   ; [] |1057| 
    2624                    ;* --------------------------------------------------------------------------*
    2625 000003ae 2101              MOVS      A2, #1                ; [DPU_V7M3_PIPE] |1057|  ; [ORIG 16-BIT INS]
    2626 000003b0 E000              B         ||$C$L24||            ; [DPU_V7M3_PIPE] |1057|  ; [ORIG 16-BIT INS]
    2627                            ; BRANCH OCCURS {||$C$L24||}     ; [] |1057| 
    2628                    ;* --------------------------------------------------------------------------*
    2629 000003b2           ||$C$L23||:    
    2630 000003b2 2100              MOVS      A2, #0                ; [DPU_V7M3_PIPE] |1057|  ; [ORIG 16-BIT INS]
    2631                    ;* --------------------------------------------------------------------------*
    2632 000003b4           ||$C$L24||:    
    2633 000003b4 B101              CBZ       A2, ||$C$L25||        ; []  ; [ORIG 16-BIT INS]
    2634                            ; BRANCHCC OCCURS {||$C$L25||}   ; [] |1057| 
    2635                    ;* --------------------------------------------------------------------------*
    2636 000003b6 2001              MOVS      A1, #1                ; [DPU_V7M3_PIPE] |1057|  ; [ORIG 16-BIT INS]
    2637                    ;* --------------------------------------------------------------------------*
    2638 000003b8           ||$C$L25||:    
    2639                            .dwpsn  file "../driverlib/lcd.c",line 1059,column 1,is_stmt,isa 1
TI ARM Assembler Unix v18.1.1 Fri Jul  3 20:08:25 2020

Tools Copyright (c) 1996-2017 Texas Instruments Incorporated
lcd.asm                                                              PAGE   49

    2640 000003b8 B002              ADD       SP, SP, #8            ; [DPU_V7M3_PIPE]  ; [ORIG 16-BIT INS]
    2641                            .dwcfi  cfa_offset, 0
    2642                    $C$DW$144       .dwtag  DW_TAG_TI_branch
    2643                            .dwattr $C$DW$144, DW_AT_low_pc(0x00)
    2644                            .dwattr $C$DW$144, DW_AT_TI_return
    2645                    
    2646 000003ba 4770              BX        LR                    ; [DPU_V7M3_PIPE]  ; [ORIG 16-BIT INS]
    2647                            ; BRANCH OCCURS                  ; [] 
    2648                            .dwattr $C$DW$141, DW_AT_TI_end_file("../driverlib/lcd.c")
    2649                            .dwattr $C$DW$141, DW_AT_TI_end_line(0x423)
    2650                            .dwattr $C$DW$141, DW_AT_TI_end_column(0x01)
    2651                            .dwendentry
    2652                            .dwendtag $C$DW$141
    2653                    
    2654 000003bc                   .sect   ".text"
    2655                            .clink
    2656                            .thumbfunc LCDRasterDisable
    2657 000003bc                   .thumb
    2658                            .global LCDRasterDisable
    2659                    
    2660                    $C$DW$145       .dwtag  DW_TAG_subprogram
    2661                            .dwattr $C$DW$145, DW_AT_name("LCDRasterDisable")
    2662                            .dwattr $C$DW$145, DW_AT_low_pc(LCDRasterDisable)
    2663                            .dwattr $C$DW$145, DW_AT_high_pc(0x00)
    2664                            .dwattr $C$DW$145, DW_AT_TI_symbol_name("LCDRasterDisable")
    2665                            .dwattr $C$DW$145, DW_AT_external
    2666                            .dwattr $C$DW$145, DW_AT_TI_begin_file("../driverlib/lcd.c")
    2667                            .dwattr $C$DW$145, DW_AT_TI_begin_line(0x437)
    2668                            .dwattr $C$DW$145, DW_AT_TI_begin_column(0x01)
    2669                            .dwattr $C$DW$145, DW_AT_decl_file("../driverlib/lcd.c")
    2670                            .dwattr $C$DW$145, DW_AT_decl_line(0x437)
    2671                            .dwattr $C$DW$145, DW_AT_decl_column(0x01)
    2672                            .dwattr $C$DW$145, DW_AT_TI_max_frame_size(0x08)
    2673                            .dwpsn  file "../driverlib/lcd.c",line 1080,column 1,is_stmt,address LCDRasterDisable,isa 1
    2674                    
    2675                            .dwfde $C$DW$CIE, LCDRasterDisable
    2676                    $C$DW$146       .dwtag  DW_TAG_formal_parameter
    2677                            .dwattr $C$DW$146, DW_AT_name("ui32Base")
    2678                            .dwattr $C$DW$146, DW_AT_TI_symbol_name("ui32Base")
    2679                            .dwattr $C$DW$146, DW_AT_type(*$C$DW$T$25)
    2680                            .dwattr $C$DW$146, DW_AT_location[DW_OP_reg0]
    2681                    
    2682                    ;----------------------------------------------------------------------
    2683                    ; 1079 | LCDRasterDisable(uint32_t ui32Base)                                    
    2684                    ;----------------------------------------------------------------------
    2685                    
    2686                    ;*****************************************************************************
    2687                    ;* FUNCTION NAME: LCDRasterDisable                                           *
    2688                    ;*                                                                           *
    2689                    ;*   Regs Modified     : A1,A2,SP,SR                                         *
    2690                    ;*   Regs Used         : A1,A2,SP,LR,SR                                      *
    2691                    ;*   Local Frame Size  : 0 Args + 4 Auto + 0 Save = 4 byte                   *
    2692                    ;*****************************************************************************
    2693 000003bc           LCDRasterDisable:
    2694                    ;* --------------------------------------------------------------------------*
TI ARM Assembler Unix v18.1.1 Fri Jul  3 20:08:25 2020

Tools Copyright (c) 1996-2017 Texas Instruments Incorporated
lcd.asm                                                              PAGE   50

    2695                            .dwcfi  cfa_offset, 0
    2696 000003bc 0D08F1AD          SUB       SP, SP, #8            ; [DPU_V7M3_PIPE]  ; [KEEP 32-BIT INS]
    2697                            .dwcfi  cfa_offset, 8
    2698                    $C$DW$147       .dwtag  DW_TAG_variable
    2699                            .dwattr $C$DW$147, DW_AT_name("ui32Base")
    2700                            .dwattr $C$DW$147, DW_AT_TI_symbol_name("ui32Base")
    2701                            .dwattr $C$DW$147, DW_AT_type(*$C$DW$T$25)
    2702                            .dwattr $C$DW$147, DW_AT_location[DW_OP_breg13 0]
    2703                    
    2704                    ;----------------------------------------------------------------------
    2705                    ; 1081 | //                                                                     
    2706                    ; 1082 | // Sanity check parameters.                                            
    2707                    ; 1083 | //                                                                     
    2708                    ; 1084 | ASSERT(ui32Base == LCD0_BASE);                                         
    2709                    ; 1086 | //                                                                     
    2710                    ; 1087 | // Disable the raster engine.                                          
    2711                    ; 1088 | //                                                                     
    2712                    ;----------------------------------------------------------------------
    2713 000003c0 9000              STR       A1, [SP, #0]          ; [DPU_V7M3_PIPE] |1080|  ; [ORIG 16-BIT INS]
    2714                            .dwpsn  file "../driverlib/lcd.c",line 1089,column 5,is_stmt,isa 1
    2715                    ;----------------------------------------------------------------------
    2716                    ; 1089 | HWREG(ui32Base + LCD_O_RASTRCTL) &= ~LCD_RASTRCTL_LCDEN;               
    2717                    ;----------------------------------------------------------------------
    2718 000003c2 9800              LDR       A1, [SP, #0]          ; [DPU_V7M3_PIPE] |1089|  ; [ORIG 16-BIT INS]
    2719 000003c4 3028              ADDS      A1, A1, #40           ; [DPU_V7M3_PIPE] |1089|  ; [ORIG 16-BIT INS]
    2720 000003c6 6801              LDR       A2, [A1, #0]          ; [DPU_V7M3_PIPE] |1089|  ; [ORIG 16-BIT INS]
    2721 000003c8 0101F021          BIC       A2, A2, #1            ; [DPU_V7M3_PIPE] |1089|  ; [KEEP 32-BIT INS]
    2722 000003cc 6001              STR       A2, [A1, #0]          ; [DPU_V7M3_PIPE] |1089|  ; [ORIG 16-BIT INS]
    2723                            .dwpsn  file "../driverlib/lcd.c",line 1090,column 1,is_stmt,isa 1
    2724 000003ce B002              ADD       SP, SP, #8            ; [DPU_V7M3_PIPE]  ; [ORIG 16-BIT INS]
    2725                            .dwcfi  cfa_offset, 0
    2726                    $C$DW$148       .dwtag  DW_TAG_TI_branch
    2727                            .dwattr $C$DW$148, DW_AT_low_pc(0x00)
    2728                            .dwattr $C$DW$148, DW_AT_TI_return
    2729                    
    2730 000003d0 4770              BX        LR                    ; [DPU_V7M3_PIPE]  ; [ORIG 16-BIT INS]
    2731                            ; BRANCH OCCURS                  ; [] 
    2732                            .dwattr $C$DW$145, DW_AT_TI_end_file("../driverlib/lcd.c")
    2733                            .dwattr $C$DW$145, DW_AT_TI_end_line(0x442)
    2734                            .dwattr $C$DW$145, DW_AT_TI_end_column(0x01)
    2735                            .dwendentry
    2736                            .dwendtag $C$DW$145
    2737                    
    2738 000003d2                   .sect   ".text"
    2739                            .clink
    2740                            .thumbfunc LCDRasterSubPanelConfigSet
    2741 000003d2                   .thumb
    2742                            .global LCDRasterSubPanelConfigSet
    2743                    
    2744                    $C$DW$149       .dwtag  DW_TAG_subprogram
    2745                            .dwattr $C$DW$149, DW_AT_name("LCDRasterSubPanelConfigSet")
    2746                            .dwattr $C$DW$149, DW_AT_low_pc(LCDRasterSubPanelConfigSet)
    2747                            .dwattr $C$DW$149, DW_AT_high_pc(0x00)
    2748                            .dwattr $C$DW$149, DW_AT_TI_symbol_name("LCDRasterSubPanelConfigSet")
    2749                            .dwattr $C$DW$149, DW_AT_external
TI ARM Assembler Unix v18.1.1 Fri Jul  3 20:08:25 2020

Tools Copyright (c) 1996-2017 Texas Instruments Incorporated
lcd.asm                                                              PAGE   51

    2750                            .dwattr $C$DW$149, DW_AT_TI_begin_file("../driverlib/lcd.c")
    2751                            .dwattr $C$DW$149, DW_AT_TI_begin_line(0x46e)
    2752                            .dwattr $C$DW$149, DW_AT_TI_begin_column(0x01)
    2753                            .dwattr $C$DW$149, DW_AT_decl_file("../driverlib/lcd.c")
    2754                            .dwattr $C$DW$149, DW_AT_decl_line(0x46e)
    2755                            .dwattr $C$DW$149, DW_AT_decl_column(0x01)
    2756                            .dwattr $C$DW$149, DW_AT_TI_max_frame_size(0x18)
    2757                            .dwpsn  file "../driverlib/lcd.c",line 1136,column 1,is_stmt,address LCDRasterSubPanelConfigSe
    2758                    
    2759                            .dwfde $C$DW$CIE, LCDRasterSubPanelConfigSet
    2760                    $C$DW$150       .dwtag  DW_TAG_formal_parameter
    2761                            .dwattr $C$DW$150, DW_AT_name("ui32Base")
    2762                            .dwattr $C$DW$150, DW_AT_TI_symbol_name("ui32Base")
    2763                            .dwattr $C$DW$150, DW_AT_type(*$C$DW$T$25)
    2764                            .dwattr $C$DW$150, DW_AT_location[DW_OP_reg0]
    2765                    
    2766                    $C$DW$151       .dwtag  DW_TAG_formal_parameter
    2767                            .dwattr $C$DW$151, DW_AT_name("ui32Flags")
    2768                            .dwattr $C$DW$151, DW_AT_TI_symbol_name("ui32Flags")
