TI ARM Assembler Unix v18.1.1 Fri Jul  3 20:08:25 2020

Tools Copyright (c) 1996-2017 Texas Instruments Incorporated
onewire.asm                                                          PAGE    1

       1                    ;******************************************************************************
       2                    ;* TI ARM C/C++ Codegen                                      Unix v18.1.1.LTS *
       3                    ;* Date/Time created: Fri Jul  3 20:08:24 2020                                *
       4                    ;******************************************************************************
       5                            .compiler_opts --abi=eabi --arm_vmrs_si_workaround=off --code_state=16 --diag_wrap=off --embed
       6 00000000                   .thumb
       7                    
       8                    $C$DW$CU        .dwtag  DW_TAG_compile_unit
       9                            .dwattr $C$DW$CU, DW_AT_name("../driverlib/onewire.c")
      10                            .dwattr $C$DW$CU, DW_AT_producer("TI TI ARM C/C++ Codegen Unix v18.1.1.LTS Copyright (c) 1996-
      11                            .dwattr $C$DW$CU, DW_AT_TI_version(0x01)
      12                            .dwattr $C$DW$CU, DW_AT_comp_dir("/home/pola/workspace_v8/Microwave/Debug")
      13                    
      14                    $C$DW$1 .dwtag  DW_TAG_subprogram
      15                            .dwattr $C$DW$1, DW_AT_name("IntRegister")
      16                            .dwattr $C$DW$1, DW_AT_TI_symbol_name("IntRegister")
      17                            .dwattr $C$DW$1, DW_AT_declaration
      18                            .dwattr $C$DW$1, DW_AT_external
      19                            .dwattr $C$DW$1, DW_AT_decl_file("/home/pola/workspace_v8/Microwave/driverlib/interrupt.h")
      20                            .dwattr $C$DW$1, DW_AT_decl_line(0x45)
      21                            .dwattr $C$DW$1, DW_AT_decl_column(0x0d)
      22                    $C$DW$2 .dwtag  DW_TAG_formal_parameter
      23                            .dwattr $C$DW$2, DW_AT_type(*$C$DW$T$27)
      24                    
      25                    $C$DW$3 .dwtag  DW_TAG_formal_parameter
      26                            .dwattr $C$DW$3, DW_AT_type(*$C$DW$T$25)
      27                    
      28                            .dwendtag $C$DW$1
      29                    
      30                    
      31                    $C$DW$4 .dwtag  DW_TAG_subprogram
      32                            .dwattr $C$DW$4, DW_AT_name("IntEnable")
      33                            .dwattr $C$DW$4, DW_AT_TI_symbol_name("IntEnable")
      34                            .dwattr $C$DW$4, DW_AT_declaration
      35                            .dwattr $C$DW$4, DW_AT_external
      36                            .dwattr $C$DW$4, DW_AT_decl_file("/home/pola/workspace_v8/Microwave/driverlib/interrupt.h")
      37                            .dwattr $C$DW$4, DW_AT_decl_line(0x4c)
      38                            .dwattr $C$DW$4, DW_AT_decl_column(0x0d)
      39                    $C$DW$5 .dwtag  DW_TAG_formal_parameter
      40                            .dwattr $C$DW$5, DW_AT_type(*$C$DW$T$27)
      41                    
      42                            .dwendtag $C$DW$4
      43                    
      44                    
      45                    $C$DW$6 .dwtag  DW_TAG_subprogram
      46                            .dwattr $C$DW$6, DW_AT_name("IntDisable")
      47                            .dwattr $C$DW$6, DW_AT_TI_symbol_name("IntDisable")
      48                            .dwattr $C$DW$6, DW_AT_declaration
      49                            .dwattr $C$DW$6, DW_AT_external
      50                            .dwattr $C$DW$6, DW_AT_decl_file("/home/pola/workspace_v8/Microwave/driverlib/interrupt.h")
      51                            .dwattr $C$DW$6, DW_AT_decl_line(0x4d)
      52                            .dwattr $C$DW$6, DW_AT_decl_column(0x0d)
      53                    $C$DW$7 .dwtag  DW_TAG_formal_parameter
      54                            .dwattr $C$DW$7, DW_AT_type(*$C$DW$T$27)
      55                    
TI ARM Assembler Unix v18.1.1 Fri Jul  3 20:08:25 2020

Tools Copyright (c) 1996-2017 Texas Instruments Incorporated
onewire.asm                                                          PAGE    2

      56                            .dwendtag $C$DW$6
      57                    
      58                    
      59                    $C$DW$8 .dwtag  DW_TAG_subprogram
      60                            .dwattr $C$DW$8, DW_AT_name("IntUnregister")
      61                            .dwattr $C$DW$8, DW_AT_TI_symbol_name("IntUnregister")
      62                            .dwattr $C$DW$8, DW_AT_declaration
      63                            .dwattr $C$DW$8, DW_AT_external
      64                            .dwattr $C$DW$8, DW_AT_decl_file("/home/pola/workspace_v8/Microwave/driverlib/interrupt.h")
      65                            .dwattr $C$DW$8, DW_AT_decl_line(0x46)
      66                            .dwattr $C$DW$8, DW_AT_decl_column(0x0d)
      67                    $C$DW$9 .dwtag  DW_TAG_formal_parameter
      68                            .dwattr $C$DW$9, DW_AT_type(*$C$DW$T$27)
      69                    
      70                            .dwendtag $C$DW$8
      71                    
      72                    
      73                    $C$DW$10        .dwtag  DW_TAG_subprogram
      74                            .dwattr $C$DW$10, DW_AT_name("SysCtlDelay")
      75                            .dwattr $C$DW$10, DW_AT_TI_symbol_name("SysCtlDelay")
      76                            .dwattr $C$DW$10, DW_AT_declaration
      77                            .dwattr $C$DW$10, DW_AT_external
      78                            .dwattr $C$DW$10, DW_AT_decl_file("/home/pola/workspace_v8/Microwave/driverlib/sysctl.h")
      79                            .dwattr $C$DW$10, DW_AT_decl_line(0x27a)
      80                            .dwattr $C$DW$10, DW_AT_decl_column(0x0d)
      81                    $C$DW$11        .dwtag  DW_TAG_formal_parameter
      82                            .dwattr $C$DW$11, DW_AT_type(*$C$DW$T$27)
      83                    
      84                            .dwendtag $C$DW$10
      85                    
      86                    ;       /home/pola/ti/ccsv8/tools/compiler/ti-cgt-arm_18.1.1.LTS/bin/armacpia -@/tmp/TI3QSWizfBn 
      87 00000000                   .sect   ".text"
      88                            .clink
      89                            .thumbfunc OneWireInit
      90 00000000                   .thumb
      91                            .global OneWireInit
      92                    
      93                    $C$DW$12        .dwtag  DW_TAG_subprogram
      94                            .dwattr $C$DW$12, DW_AT_name("OneWireInit")
      95                            .dwattr $C$DW$12, DW_AT_low_pc(OneWireInit)
      96                            .dwattr $C$DW$12, DW_AT_high_pc(0x00)
      97                            .dwattr $C$DW$12, DW_AT_TI_symbol_name("OneWireInit")
      98                            .dwattr $C$DW$12, DW_AT_external
      99                            .dwattr $C$DW$12, DW_AT_TI_begin_file("../driverlib/onewire.c")
     100                            .dwattr $C$DW$12, DW_AT_TI_begin_line(0x6e)
     101                            .dwattr $C$DW$12, DW_AT_TI_begin_column(0x01)
     102                            .dwattr $C$DW$12, DW_AT_decl_file("../driverlib/onewire.c")
     103                            .dwattr $C$DW$12, DW_AT_decl_line(0x6e)
     104                            .dwattr $C$DW$12, DW_AT_decl_column(0x01)
     105                            .dwattr $C$DW$12, DW_AT_TI_max_frame_size(0x08)
     106                            .dwpsn  file "../driverlib/onewire.c",line 111,column 1,is_stmt,address OneWireInit,isa 1
     107                    
     108                            .dwfde $C$DW$CIE, OneWireInit
     109                    $C$DW$13        .dwtag  DW_TAG_formal_parameter
     110                            .dwattr $C$DW$13, DW_AT_name("ui32Base")
TI ARM Assembler Unix v18.1.1 Fri Jul  3 20:08:25 2020

Tools Copyright (c) 1996-2017 Texas Instruments Incorporated
onewire.asm                                                          PAGE    3

     111                            .dwattr $C$DW$13, DW_AT_TI_symbol_name("ui32Base")
     112                            .dwattr $C$DW$13, DW_AT_type(*$C$DW$T$27)
     113                            .dwattr $C$DW$13, DW_AT_location[DW_OP_reg0]
     114                    
     115                    $C$DW$14        .dwtag  DW_TAG_formal_parameter
     116                            .dwattr $C$DW$14, DW_AT_name("ui32InitFlags")
     117                            .dwattr $C$DW$14, DW_AT_TI_symbol_name("ui32InitFlags")
     118                            .dwattr $C$DW$14, DW_AT_type(*$C$DW$T$27)
     119                            .dwattr $C$DW$14, DW_AT_location[DW_OP_reg1]
     120                    
     121                    ;----------------------------------------------------------------------
     122                    ; 110 | OneWireInit(uint32_t ui32Base, uint32_t ui32InitFlags)                 
     123                    ;----------------------------------------------------------------------
     124                    
     125                    ;*****************************************************************************
     126                    ;* FUNCTION NAME: OneWireInit                                                *
     127                    ;*                                                                           *
     128                    ;*   Regs Modified     : A1,A2,SP                                            *
     129                    ;*   Regs Used         : A1,A2,SP,LR                                         *
     130                    ;*   Local Frame Size  : 0 Args + 8 Auto + 0 Save = 8 byte                   *
     131                    ;*****************************************************************************
     132 00000000           OneWireInit:
     133                    ;* --------------------------------------------------------------------------*
     134                            .dwcfi  cfa_offset, 0
     135 00000000 0D08F1AD          SUB       SP, SP, #8            ; [DPU_V7M3_PIPE]  ; [KEEP 32-BIT INS]
     136                            .dwcfi  cfa_offset, 8
     137                    $C$DW$15        .dwtag  DW_TAG_variable
     138                            .dwattr $C$DW$15, DW_AT_name("ui32Base")
     139                            .dwattr $C$DW$15, DW_AT_TI_symbol_name("ui32Base")
     140                            .dwattr $C$DW$15, DW_AT_type(*$C$DW$T$27)
     141                            .dwattr $C$DW$15, DW_AT_location[DW_OP_breg13 0]
     142                    
     143                    $C$DW$16        .dwtag  DW_TAG_variable
     144                            .dwattr $C$DW$16, DW_AT_name("ui32InitFlags")
     145                            .dwattr $C$DW$16, DW_AT_TI_symbol_name("ui32InitFlags")
     146                            .dwattr $C$DW$16, DW_AT_type(*$C$DW$T$27)
     147                            .dwattr $C$DW$16, DW_AT_location[DW_OP_breg13 4]
     148                    
     149                    ;----------------------------------------------------------------------
     150                    ; 112 | //                                                                     
     151                    ; 113 | // Check the arguments.                                                
     152                    ; 114 | //                                                                     
     153                    ; 115 | ASSERT(ui32Base == ONEWIRE0_BASE);                                     
     154                    ; 117 | //                                                                     
     155                    ; 118 | // Initialize control register.                                        
     156                    ; 119 | //                                                                     
     157                    ;----------------------------------------------------------------------
     158 00000004 9101              STR       A2, [SP, #4]          ; [DPU_V7M3_PIPE] |111|  ; [ORIG 16-BIT INS]
     159 00000006 9000              STR       A1, [SP, #0]          ; [DPU_V7M3_PIPE] |111|  ; [ORIG 16-BIT INS]
     160                            .dwpsn  file "../driverlib/onewire.c",line 120,column 5,is_stmt,isa 1
     161                    ;----------------------------------------------------------------------
     162                    ; 120 | HWREG(ui32Base + ONEWIRE_O_CS) = ui32InitFlags;                        
     163                    ;----------------------------------------------------------------------
     164 00000008 9801              LDR       A1, [SP, #4]          ; [DPU_V7M3_PIPE] |120|  ; [ORIG 16-BIT INS]
     165 0000000a 9900              LDR       A2, [SP, #0]          ; [DPU_V7M3_PIPE] |120|  ; [ORIG 16-BIT INS]
TI ARM Assembler Unix v18.1.1 Fri Jul  3 20:08:25 2020

Tools Copyright (c) 1996-2017 Texas Instruments Incorporated
onewire.asm                                                          PAGE    4

     166 0000000c 6008              STR       A1, [A2, #0]          ; [DPU_V7M3_PIPE] |120|  ; [ORIG 16-BIT INS]
     167                            .dwpsn  file "../driverlib/onewire.c",line 121,column 1,is_stmt,isa 1
     168 0000000e B002              ADD       SP, SP, #8            ; [DPU_V7M3_PIPE]  ; [ORIG 16-BIT INS]
     169                            .dwcfi  cfa_offset, 0
     170                    $C$DW$17        .dwtag  DW_TAG_TI_branch
     171                            .dwattr $C$DW$17, DW_AT_low_pc(0x00)
     172                            .dwattr $C$DW$17, DW_AT_TI_return
     173                    
     174 00000010 4770              BX        LR                    ; [DPU_V7M3_PIPE]  ; [ORIG 16-BIT INS]
     175                            ; BRANCH OCCURS                  ; [] 
     176                            .dwattr $C$DW$12, DW_AT_TI_end_file("../driverlib/onewire.c")
     177                            .dwattr $C$DW$12, DW_AT_TI_end_line(0x79)
     178                            .dwattr $C$DW$12, DW_AT_TI_end_column(0x01)
     179                            .dwendentry
     180                            .dwendtag $C$DW$12
     181                    
     182 00000012                   .sect   ".text"
     183                            .clink
     184                            .thumbfunc OneWireBusReset
     185 00000012                   .thumb
     186                            .global OneWireBusReset
     187                    
     188                    $C$DW$18        .dwtag  DW_TAG_subprogram
     189                            .dwattr $C$DW$18, DW_AT_name("OneWireBusReset")
     190                            .dwattr $C$DW$18, DW_AT_low_pc(OneWireBusReset)
     191                            .dwattr $C$DW$18, DW_AT_high_pc(0x00)
     192                            .dwattr $C$DW$18, DW_AT_TI_symbol_name("OneWireBusReset")
     193                            .dwattr $C$DW$18, DW_AT_external
     194                            .dwattr $C$DW$18, DW_AT_TI_begin_file("../driverlib/onewire.c")
     195                            .dwattr $C$DW$18, DW_AT_TI_begin_line(0x88)
     196                            .dwattr $C$DW$18, DW_AT_TI_begin_column(0x01)
     197                            .dwattr $C$DW$18, DW_AT_decl_file("../driverlib/onewire.c")
     198                            .dwattr $C$DW$18, DW_AT_decl_line(0x88)
     199                            .dwattr $C$DW$18, DW_AT_decl_column(0x01)
     200                            .dwattr $C$DW$18, DW_AT_TI_max_frame_size(0x08)
     201                            .dwpsn  file "../driverlib/onewire.c",line 137,column 1,is_stmt,address OneWireBusReset,isa 1
     202                    
     203                            .dwfde $C$DW$CIE, OneWireBusReset
     204                    $C$DW$19        .dwtag  DW_TAG_formal_parameter
     205                            .dwattr $C$DW$19, DW_AT_name("ui32Base")
     206                            .dwattr $C$DW$19, DW_AT_TI_symbol_name("ui32Base")
     207                            .dwattr $C$DW$19, DW_AT_type(*$C$DW$T$27)
     208                            .dwattr $C$DW$19, DW_AT_location[DW_OP_reg0]
     209                    
     210                    ;----------------------------------------------------------------------
     211                    ; 136 | OneWireBusReset(uint32_t ui32Base)                                     
     212                    ;----------------------------------------------------------------------
     213                    
     214                    ;*****************************************************************************
     215                    ;* FUNCTION NAME: OneWireBusReset                                            *
     216                    ;*                                                                           *
     217                    ;*   Regs Modified     : A1,A2,SP                                            *
     218                    ;*   Regs Used         : A1,A2,SP,LR                                         *
     219                    ;*   Local Frame Size  : 0 Args + 4 Auto + 0 Save = 4 byte                   *
     220                    ;*****************************************************************************
TI ARM Assembler Unix v18.1.1 Fri Jul  3 20:08:25 2020

Tools Copyright (c) 1996-2017 Texas Instruments Incorporated
onewire.asm                                                          PAGE    5

     221 00000012           OneWireBusReset:
     222                    ;* --------------------------------------------------------------------------*
     223                            .dwcfi  cfa_offset, 0
     224 00000012 0D08F1AD          SUB       SP, SP, #8            ; [DPU_V7M3_PIPE]  ; [KEEP 32-BIT INS]
     225                            .dwcfi  cfa_offset, 8
     226                    $C$DW$20        .dwtag  DW_TAG_variable
     227                            .dwattr $C$DW$20, DW_AT_name("ui32Base")
     228                            .dwattr $C$DW$20, DW_AT_TI_symbol_name("ui32Base")
     229                            .dwattr $C$DW$20, DW_AT_type(*$C$DW$T$27)
     230                            .dwattr $C$DW$20, DW_AT_location[DW_OP_breg13 0]
     231                    
     232                    ;----------------------------------------------------------------------
     233                    ; 138 | //                                                                     
     234                    ; 139 | // Check the argument.                                                 
     235                    ; 140 | //                                                                     
     236                    ; 141 | ASSERT(ui32Base == ONEWIRE0_BASE);                                     
     237                    ; 143 | //                                                                     
     238                    ; 144 | // Issue a bus reset.                                                  
     239                    ; 145 | //                                                                     
     240                    ;----------------------------------------------------------------------
     241 00000016 9000              STR       A1, [SP, #0]          ; [DPU_V7M3_PIPE] |137|  ; [ORIG 16-BIT INS]
     242                            .dwpsn  file "../driverlib/onewire.c",line 146,column 5,is_stmt,isa 1
     243                    ;----------------------------------------------------------------------
     244                    ; 146 | HWREG(ui32Base + ONEWIRE_O_CS) |= ONEWIRE_CS_RST;                      
     245                    ;----------------------------------------------------------------------
     246 00000018 9900              LDR       A2, [SP, #0]          ; [DPU_V7M3_PIPE] |146|  ; [ORIG 16-BIT INS]
     247 0000001a 6808              LDR       A1, [A2, #0]          ; [DPU_V7M3_PIPE] |146|  ; [ORIG 16-BIT INS]
     248 0000001c 0001F040          ORR       A1, A1, #1            ; [DPU_V7M3_PIPE] |146|  ; [KEEP 32-BIT INS]
     249 00000020 6008              STR       A1, [A2, #0]          ; [DPU_V7M3_PIPE] |146|  ; [ORIG 16-BIT INS]
     250                            .dwpsn  file "../driverlib/onewire.c",line 147,column 1,is_stmt,isa 1
     251 00000022 B002              ADD       SP, SP, #8            ; [DPU_V7M3_PIPE]  ; [ORIG 16-BIT INS]
     252                            .dwcfi  cfa_offset, 0
     253                    $C$DW$21        .dwtag  DW_TAG_TI_branch
     254                            .dwattr $C$DW$21, DW_AT_low_pc(0x00)
     255                            .dwattr $C$DW$21, DW_AT_TI_return
     256                    
     257 00000024 4770              BX        LR                    ; [DPU_V7M3_PIPE]  ; [ORIG 16-BIT INS]
     258                            ; BRANCH OCCURS                  ; [] 
     259                            .dwattr $C$DW$18, DW_AT_TI_end_file("../driverlib/onewire.c")
     260                            .dwattr $C$DW$18, DW_AT_TI_end_line(0x93)
     261                            .dwattr $C$DW$18, DW_AT_TI_end_column(0x01)
     262                            .dwendentry
     263                            .dwendtag $C$DW$18
     264                    
     265 00000026                   .sect   ".text"
     266                            .clink
     267                            .thumbfunc OneWireBusStatus
     268 00000026                   .thumb
     269                            .global OneWireBusStatus
     270                    
     271                    $C$DW$22        .dwtag  DW_TAG_subprogram
     272                            .dwattr $C$DW$22, DW_AT_name("OneWireBusStatus")
     273                            .dwattr $C$DW$22, DW_AT_low_pc(OneWireBusStatus)
     274                            .dwattr $C$DW$22, DW_AT_high_pc(0x00)
     275                            .dwattr $C$DW$22, DW_AT_TI_symbol_name("OneWireBusStatus")
TI ARM Assembler Unix v18.1.1 Fri Jul  3 20:08:25 2020

Tools Copyright (c) 1996-2017 Texas Instruments Incorporated
onewire.asm                                                          PAGE    6

     276                            .dwattr $C$DW$22, DW_AT_external
     277                            .dwattr $C$DW$22, DW_AT_type(*$C$DW$T$27)
     278                            .dwattr $C$DW$22, DW_AT_TI_begin_file("../driverlib/onewire.c")
     279                            .dwattr $C$DW$22, DW_AT_TI_begin_line(0xa6)
     280                            .dwattr $C$DW$22, DW_AT_TI_begin_column(0x01)
     281                            .dwattr $C$DW$22, DW_AT_decl_file("../driverlib/onewire.c")
     282                            .dwattr $C$DW$22, DW_AT_decl_line(0xa6)
     283                            .dwattr $C$DW$22, DW_AT_decl_column(0x01)
     284                            .dwattr $C$DW$22, DW_AT_TI_max_frame_size(0x08)
     285                            .dwpsn  file "../driverlib/onewire.c",line 167,column 1,is_stmt,address OneWireBusStatus,isa 1
     286                    
     287                            .dwfde $C$DW$CIE, OneWireBusStatus
     288                    $C$DW$23        .dwtag  DW_TAG_formal_parameter
     289                            .dwattr $C$DW$23, DW_AT_name("ui32Base")
     290                            .dwattr $C$DW$23, DW_AT_TI_symbol_name("ui32Base")
     291                            .dwattr $C$DW$23, DW_AT_type(*$C$DW$T$27)
     292                            .dwattr $C$DW$23, DW_AT_location[DW_OP_reg0]
     293                    
     294                    ;----------------------------------------------------------------------
     295                    ; 166 | OneWireBusStatus(uint32_t ui32Base)                                    
     296                    ;----------------------------------------------------------------------
     297                    
     298                    ;*****************************************************************************
     299                    ;* FUNCTION NAME: OneWireBusStatus                                           *
     300                    ;*                                                                           *
     301                    ;*   Regs Modified     : A1,SP                                               *
     302                    ;*   Regs Used         : A1,SP,LR                                            *
     303                    ;*   Local Frame Size  : 0 Args + 4 Auto + 0 Save = 4 byte                   *
     304                    ;*****************************************************************************
     305 00000026           OneWireBusStatus:
     306                    ;* --------------------------------------------------------------------------*
     307                            .dwcfi  cfa_offset, 0
     308 00000026 0D08F1AD          SUB       SP, SP, #8            ; [DPU_V7M3_PIPE]  ; [KEEP 32-BIT INS]
     309                            .dwcfi  cfa_offset, 8
     310                    $C$DW$24        .dwtag  DW_TAG_variable
     311                            .dwattr $C$DW$24, DW_AT_name("ui32Base")
     312                            .dwattr $C$DW$24, DW_AT_TI_symbol_name("ui32Base")
     313                            .dwattr $C$DW$24, DW_AT_type(*$C$DW$T$27)
     314                            .dwattr $C$DW$24, DW_AT_location[DW_OP_breg13 0]
     315                    
     316                    ;----------------------------------------------------------------------
     317                    ; 168 | //                                                                     
     318                    ; 169 | // Check the argument.                                                 
     319                    ; 170 | //                                                                     
     320                    ; 171 | ASSERT(ui32Base == ONEWIRE0_BASE);                                     
     321                    ; 173 | //                                                                     
     322                    ; 174 | // Return the status bits from control and status register.            
     323                    ; 175 | //                                                                     
     324                    ;----------------------------------------------------------------------
     325 0000002a 9000              STR       A1, [SP, #0]          ; [DPU_V7M3_PIPE] |167|  ; [ORIG 16-BIT INS]
     326                            .dwpsn  file "../driverlib/onewire.c",line 176,column 5,is_stmt,isa 1
     327                    ;----------------------------------------------------------------------
     328                    ; 176 | return(HWREG(ui32Base + ONEWIRE_O_CS) & (ONEWIRE_CS_BUSY |             
     329                    ; 177 |                                          ONEWIRE_CS_NOATR |            
     330                    ; 178 |                                          ONEWIRE_CS_STUCK));           
TI ARM Assembler Unix v18.1.1 Fri Jul  3 20:08:25 2020

Tools Copyright (c) 1996-2017 Texas Instruments Incorporated
onewire.asm                                                          PAGE    7

     331                    ;----------------------------------------------------------------------
     332 0000002c 9800              LDR       A1, [SP, #0]          ; [DPU_V7M3_PIPE] |176|  ; [ORIG 16-BIT INS]
     333 0000002e 6800              LDR       A1, [A1, #0]          ; [DPU_V7M3_PIPE] |176|  ; [ORIG 16-BIT INS]
     334 00000030 60E0F400          AND       A1, A1, #1792         ; [DPU_V7M3_PIPE] |176|  ; [KEEP 32-BIT INS]
     335                            .dwpsn  file "../driverlib/onewire.c",line 179,column 1,is_stmt,isa 1
     336 00000034 B002              ADD       SP, SP, #8            ; [DPU_V7M3_PIPE]  ; [ORIG 16-BIT INS]
     337                            .dwcfi  cfa_offset, 0
     338                    $C$DW$25        .dwtag  DW_TAG_TI_branch
     339                            .dwattr $C$DW$25, DW_AT_low_pc(0x00)
     340                            .dwattr $C$DW$25, DW_AT_TI_return
     341                    
     342 00000036 4770              BX        LR                    ; [DPU_V7M3_PIPE]  ; [ORIG 16-BIT INS]
     343                            ; BRANCH OCCURS                  ; [] 
     344                            .dwattr $C$DW$22, DW_AT_TI_end_file("../driverlib/onewire.c")
     345                            .dwattr $C$DW$22, DW_AT_TI_end_line(0xb3)
     346                            .dwattr $C$DW$22, DW_AT_TI_end_column(0x01)
     347                            .dwendentry
     348                            .dwendtag $C$DW$22
     349                    
     350 00000038                   .sect   ".text"
     351                            .clink
     352                            .thumbfunc OneWireDataGet
     353 00000038                   .thumb
     354                            .global OneWireDataGet
     355                    
     356                    $C$DW$26        .dwtag  DW_TAG_subprogram
     357                            .dwattr $C$DW$26, DW_AT_name("OneWireDataGet")
     358                            .dwattr $C$DW$26, DW_AT_low_pc(OneWireDataGet)
     359                            .dwattr $C$DW$26, DW_AT_high_pc(0x00)
     360                            .dwattr $C$DW$26, DW_AT_TI_symbol_name("OneWireDataGet")
     361                            .dwattr $C$DW$26, DW_AT_external
     362                            .dwattr $C$DW$26, DW_AT_TI_begin_file("../driverlib/onewire.c")
     363                            .dwattr $C$DW$26, DW_AT_TI_begin_line(0xc5)
     364                            .dwattr $C$DW$26, DW_AT_TI_begin_column(0x01)
     365                            .dwattr $C$DW$26, DW_AT_decl_file("../driverlib/onewire.c")
     366                            .dwattr $C$DW$26, DW_AT_decl_line(0xc5)
     367                            .dwattr $C$DW$26, DW_AT_decl_column(0x01)
     368                            .dwattr $C$DW$26, DW_AT_TI_max_frame_size(0x08)
     369                            .dwpsn  file "../driverlib/onewire.c",line 198,column 1,is_stmt,address OneWireDataGet,isa 1
     370                    
     371                            .dwfde $C$DW$CIE, OneWireDataGet
     372                    $C$DW$27        .dwtag  DW_TAG_formal_parameter
     373                            .dwattr $C$DW$27, DW_AT_name("ui32Base")
     374                            .dwattr $C$DW$27, DW_AT_TI_symbol_name("ui32Base")
     375                            .dwattr $C$DW$27, DW_AT_type(*$C$DW$T$27)
     376                            .dwattr $C$DW$27, DW_AT_location[DW_OP_reg0]
     377                    
     378                    $C$DW$28        .dwtag  DW_TAG_formal_parameter
     379                            .dwattr $C$DW$28, DW_AT_name("pui32Data")
     380                            .dwattr $C$DW$28, DW_AT_TI_symbol_name("pui32Data")
     381                            .dwattr $C$DW$28, DW_AT_type(*$C$DW$T$33)
     382                            .dwattr $C$DW$28, DW_AT_location[DW_OP_reg1]
     383                    
     384                    ;----------------------------------------------------------------------
     385                    ; 197 | OneWireDataGet(uint32_t ui32Base, uint32_t *pui32Data)                 
TI ARM Assembler Unix v18.1.1 Fri Jul  3 20:08:25 2020

Tools Copyright (c) 1996-2017 Texas Instruments Incorporated
onewire.asm                                                          PAGE    8

     386                    ;----------------------------------------------------------------------
     387                    
     388                    ;*****************************************************************************
     389                    ;* FUNCTION NAME: OneWireDataGet                                             *
     390                    ;*                                                                           *
     391                    ;*   Regs Modified     : A1,A2,SP,SR                                         *
     392                    ;*   Regs Used         : A1,A2,SP,LR,SR                                      *
     393                    ;*   Local Frame Size  : 0 Args + 8 Auto + 0 Save = 8 byte                   *
     394                    ;*****************************************************************************
     395 00000038           OneWireDataGet:
     396                    ;* --------------------------------------------------------------------------*
     397                            .dwcfi  cfa_offset, 0
     398 00000038 0D08F1AD          SUB       SP, SP, #8            ; [DPU_V7M3_PIPE]  ; [KEEP 32-BIT INS]
     399                            .dwcfi  cfa_offset, 8
     400                    $C$DW$29        .dwtag  DW_TAG_variable
     401                            .dwattr $C$DW$29, DW_AT_name("ui32Base")
     402                            .dwattr $C$DW$29, DW_AT_TI_symbol_name("ui32Base")
     403                            .dwattr $C$DW$29, DW_AT_type(*$C$DW$T$27)
     404                            .dwattr $C$DW$29, DW_AT_location[DW_OP_breg13 0]
     405                    
     406                    $C$DW$30        .dwtag  DW_TAG_variable
     407                            .dwattr $C$DW$30, DW_AT_name("pui32Data")
     408                            .dwattr $C$DW$30, DW_AT_TI_symbol_name("pui32Data")
     409                            .dwattr $C$DW$30, DW_AT_type(*$C$DW$T$33)
     410                            .dwattr $C$DW$30, DW_AT_location[DW_OP_breg13 4]
     411                    
     412                    ;----------------------------------------------------------------------
     413                    ; 199 | //                                                                     
     414                    ; 200 | // Check the arguments.                                                
     415                    ; 201 | //                                                                     
     416                    ; 202 | ASSERT(ui32Base == ONEWIRE0_BASE);                                     
     417                    ; 203 | ASSERT(pui32Data);                                                     
     418                    ; 205 | //                                                                     
     419                    ; 206 | // Wait for any active operations to complete.                         
     420                    ; 207 | //                                                                     
     421                    ;----------------------------------------------------------------------
     422 0000003c 9101              STR       A2, [SP, #4]          ; [DPU_V7M3_PIPE] |198|  ; [ORIG 16-BIT INS]
     423 0000003e 9000              STR       A1, [SP, #0]          ; [DPU_V7M3_PIPE] |198|  ; [ORIG 16-BIT INS]
     424                            .dwpsn  file "../driverlib/onewire.c",line 208,column 5,is_stmt,isa 1
     425                    ;----------------------------------------------------------------------
     426                    ; 208 | while(HWREG(ui32Base + ONEWIRE_O_CS) & ONEWIRE_CS_BUSY)                
     427                    ; 212 | //                                                                     
     428                    ; 213 | // Copy the data into the provided storage.                            
     429                    ; 214 | //                                                                     
     430                    ;----------------------------------------------------------------------
     431                    ;* --------------------------------------------------------------------------*
     432                    ;*   BEGIN LOOP ||$C$L1||
     433                    ;*
     434                    ;*   Loop source line                : 208
     435                    ;*   Loop closing brace source line  : 210
     436                    ;*   Known Minimum Trip Count        : 1
     437                    ;*   Known Maximum Trip Count        : 4294967295
     438                    ;*   Known Max Trip Count Factor     : 1
     439                    ;* --------------------------------------------------------------------------*
     440 00000040           ||$C$L1||:    
TI ARM Assembler Unix v18.1.1 Fri Jul  3 20:08:25 2020

Tools Copyright (c) 1996-2017 Texas Instruments Incorporated
onewire.asm                                                          PAGE    9

     441 00000040 9800              LDR       A1, [SP, #0]          ; [DPU_V7M3_PIPE] |208|  ; [ORIG 16-BIT INS]
     442 00000042 6800              LDR       A1, [A1, #0]          ; [DPU_V7M3_PIPE] |208|  ; [ORIG 16-BIT INS]
     443 00000044 0A40              LSRS      A1, A1, #9            ; [DPU_V7M3_PIPE] |208|  ; [ORIG 16-BIT INS]
     444 00000046 D2FB              BCS       ||$C$L1||             ; [DPU_V7M3_PIPE] |208|  ; [ORIG 16-BIT INS]
     445                            ; BRANCHCC OCCURS {||$C$L1||}    ; [] |208| 
     446                    ;* --------------------------------------------------------------------------*
     447                            .dwpsn  file "../driverlib/onewire.c",line 215,column 5,is_stmt,isa 1
     448                    ;----------------------------------------------------------------------
     449                    ; 215 | *pui32Data = HWREG(ui32Base + ONEWIRE_O_DATR);                         
     450                    ;----------------------------------------------------------------------
     451 00000048 9800              LDR       A1, [SP, #0]          ; [DPU_V7M3_PIPE] |215|  ; [ORIG 16-BIT INS]
     452 0000004a 9901              LDR       A2, [SP, #4]          ; [DPU_V7M3_PIPE] |215|  ; [ORIG 16-BIT INS]
     453 0000004c 68C0              LDR       A1, [A1, #12]         ; [DPU_V7M3_PIPE] |215|  ; [ORIG 16-BIT INS]
     454 0000004e 6008              STR       A1, [A2, #0]          ; [DPU_V7M3_PIPE] |215|  ; [ORIG 16-BIT INS]
     455                            .dwpsn  file "../driverlib/onewire.c",line 216,column 1,is_stmt,isa 1
     456 00000050 B002              ADD       SP, SP, #8            ; [DPU_V7M3_PIPE]  ; [ORIG 16-BIT INS]
     457                            .dwcfi  cfa_offset, 0
     458                    $C$DW$31        .dwtag  DW_TAG_TI_branch
     459                            .dwattr $C$DW$31, DW_AT_low_pc(0x00)
     460                            .dwattr $C$DW$31, DW_AT_TI_return
     461                    
     462 00000052 4770              BX        LR                    ; [DPU_V7M3_PIPE]  ; [ORIG 16-BIT INS]
     463                            ; BRANCH OCCURS                  ; [] 
     464                            .dwattr $C$DW$26, DW_AT_TI_end_file("../driverlib/onewire.c")
     465                            .dwattr $C$DW$26, DW_AT_TI_end_line(0xd8)
     466                            .dwattr $C$DW$26, DW_AT_TI_end_column(0x01)
     467                            .dwendentry
     468                            .dwendtag $C$DW$26
     469                    
     470 00000054                   .sect   ".text"
     471                            .clink
     472                            .thumbfunc OneWireDataGetNonBlocking
     473 00000054                   .thumb
     474                            .global OneWireDataGetNonBlocking
     475                    
     476                    $C$DW$32        .dwtag  DW_TAG_subprogram
     477                            .dwattr $C$DW$32, DW_AT_name("OneWireDataGetNonBlocking")
     478                            .dwattr $C$DW$32, DW_AT_low_pc(OneWireDataGetNonBlocking)
     479                            .dwattr $C$DW$32, DW_AT_high_pc(0x00)
     480                            .dwattr $C$DW$32, DW_AT_TI_symbol_name("OneWireDataGetNonBlocking")
     481                            .dwattr $C$DW$32, DW_AT_external
     482                            .dwattr $C$DW$32, DW_AT_type(*$C$DW$T$114)
     483                            .dwattr $C$DW$32, DW_AT_TI_begin_file("../driverlib/onewire.c")
     484                            .dwattr $C$DW$32, DW_AT_TI_begin_line(0xed)
     485                            .dwattr $C$DW$32, DW_AT_TI_begin_column(0x01)
     486                            .dwattr $C$DW$32, DW_AT_decl_file("../driverlib/onewire.c")
     487                            .dwattr $C$DW$32, DW_AT_decl_line(0xed)
     488                            .dwattr $C$DW$32, DW_AT_decl_column(0x01)
     489                            .dwattr $C$DW$32, DW_AT_TI_max_frame_size(0x08)
     490                            .dwpsn  file "../driverlib/onewire.c",line 238,column 1,is_stmt,address OneWireDataGetNonBlock
     491                    
     492                            .dwfde $C$DW$CIE, OneWireDataGetNonBlocking
     493                    $C$DW$33        .dwtag  DW_TAG_formal_parameter
     494                            .dwattr $C$DW$33, DW_AT_name("ui32Base")
     495                            .dwattr $C$DW$33, DW_AT_TI_symbol_name("ui32Base")
TI ARM Assembler Unix v18.1.1 Fri Jul  3 20:08:25 2020

Tools Copyright (c) 1996-2017 Texas Instruments Incorporated
onewire.asm                                                          PAGE   10

     496                            .dwattr $C$DW$33, DW_AT_type(*$C$DW$T$27)
     497                            .dwattr $C$DW$33, DW_AT_location[DW_OP_reg0]
     498                    
     499                    $C$DW$34        .dwtag  DW_TAG_formal_parameter
     500                            .dwattr $C$DW$34, DW_AT_name("pui32Data")
     501                            .dwattr $C$DW$34, DW_AT_TI_symbol_name("pui32Data")
     502                            .dwattr $C$DW$34, DW_AT_type(*$C$DW$T$33)
     503                            .dwattr $C$DW$34, DW_AT_location[DW_OP_reg1]
     504                    
     505                    ;----------------------------------------------------------------------
     506                    ; 237 | OneWireDataGetNonBlocking(uint32_t ui32Base, uint32_t *pui32Data)      
     507                    ;----------------------------------------------------------------------
     508                    
     509                    ;*****************************************************************************
     510                    ;* FUNCTION NAME: OneWireDataGetNonBlocking                                  *
     511                    ;*                                                                           *
     512                    ;*   Regs Modified     : A1,A2,SP,SR                                         *
     513                    ;*   Regs Used         : A1,A2,SP,LR,SR                                      *
     514                    ;*   Local Frame Size  : 0 Args + 8 Auto + 0 Save = 8 byte                   *
     515                    ;*****************************************************************************
     516 00000054           OneWireDataGetNonBlocking:
     517                    ;* --------------------------------------------------------------------------*
     518                            .dwcfi  cfa_offset, 0
     519 00000054 0D08F1AD          SUB       SP, SP, #8            ; [DPU_V7M3_PIPE]  ; [KEEP 32-BIT INS]
     520                            .dwcfi  cfa_offset, 8
     521                    $C$DW$35        .dwtag  DW_TAG_variable
     522                            .dwattr $C$DW$35, DW_AT_name("ui32Base")
     523                            .dwattr $C$DW$35, DW_AT_TI_symbol_name("ui32Base")
     524                            .dwattr $C$DW$35, DW_AT_type(*$C$DW$T$27)
     525                            .dwattr $C$DW$35, DW_AT_location[DW_OP_breg13 0]
     526                    
     527                    $C$DW$36        .dwtag  DW_TAG_variable
     528                            .dwattr $C$DW$36, DW_AT_name("pui32Data")
     529                            .dwattr $C$DW$36, DW_AT_TI_symbol_name("pui32Data")
     530                            .dwattr $C$DW$36, DW_AT_type(*$C$DW$T$33)
     531                            .dwattr $C$DW$36, DW_AT_location[DW_OP_breg13 4]
     532                    
     533                    ;----------------------------------------------------------------------
     534                    ; 239 | //                                                                     
     535                    ; 240 | // Check the arguments.                                                
     536                    ; 241 | //                                                                     
     537                    ; 242 | ASSERT(ui32Base == ONEWIRE0_BASE);                                     
     538                    ; 243 | ASSERT(pui32Data);                                                     
     539                    ; 245 | //                                                                     
     540                    ; 246 | // If the bus is busy, return without reading.                         
     541                    ; 247 | //                                                                     
     542                    ;----------------------------------------------------------------------
     543 00000058 9101              STR       A2, [SP, #4]          ; [DPU_V7M3_PIPE] |238|  ; [ORIG 16-BIT INS]
     544 0000005a 9000              STR       A1, [SP, #0]          ; [DPU_V7M3_PIPE] |238|  ; [ORIG 16-BIT INS]
     545                            .dwpsn  file "../driverlib/onewire.c",line 248,column 5,is_stmt,isa 1
     546                    ;----------------------------------------------------------------------
     547                    ; 248 | if(HWREG(ui32Base + ONEWIRE_O_CS) & ONEWIRE_CS_BUSY)                   
     548                    ;----------------------------------------------------------------------
     549 0000005c 9800              LDR       A1, [SP, #0]          ; [DPU_V7M3_PIPE] |248|  ; [ORIG 16-BIT INS]
     550 0000005e 6800              LDR       A1, [A1, #0]          ; [DPU_V7M3_PIPE] |248|  ; [ORIG 16-BIT INS]
TI ARM Assembler Unix v18.1.1 Fri Jul  3 20:08:25 2020

Tools Copyright (c) 1996-2017 Texas Instruments Incorporated
onewire.asm                                                          PAGE   11

     551 00000060 0A40              LSRS      A1, A1, #9            ; [DPU_V7M3_PIPE] |248|  ; [ORIG 16-BIT INS]
     552 00000062 D301              BCC       ||$C$L2||             ; [DPU_V7M3_PIPE] |248|  ; [ORIG 16-BIT INS]
     553                            ; BRANCHCC OCCURS {||$C$L2||}    ; [] |248| 
     554                    ;* --------------------------------------------------------------------------*
     555                            .dwpsn  file "../driverlib/onewire.c",line 250,column 9,is_stmt,isa 1
     556                    ;----------------------------------------------------------------------
     557                    ; 250 | return(false);                                                         
     558                    ; 253 | //                                                                     
     559                    ; 254 | // Copy the data into the provided storage.                            
     560                    ; 255 | //                                                                     
     561                    ;----------------------------------------------------------------------
     562 00000064 2000              MOVS      A1, #0                ; [DPU_V7M3_PIPE] |250|  ; [ORIG 16-BIT INS]
     563 00000066 E004              B         ||$C$L3||             ; [DPU_V7M3_PIPE] |250|  ; [ORIG 16-BIT INS]
     564                            ; BRANCH OCCURS {||$C$L3||}      ; [] |250| 
     565                    ;* --------------------------------------------------------------------------*
     566 00000068           ||$C$L2||:    
     567                            .dwpsn  file "../driverlib/onewire.c",line 256,column 5,is_stmt,isa 1
     568                    ;----------------------------------------------------------------------
     569                    ; 256 | *pui32Data = HWREG(ui32Base + ONEWIRE_O_DATR);                         
     570                    ; 258 | //                                                                     
     571                    ; 259 | // Notify the caller data was read from the read register.             
     572                    ; 260 | //                                                                     
     573                    ;----------------------------------------------------------------------
     574 00000068 9800              LDR       A1, [SP, #0]          ; [DPU_V7M3_PIPE] |256|  ; [ORIG 16-BIT INS]
     575 0000006a 9901              LDR       A2, [SP, #4]          ; [DPU_V7M3_PIPE] |256|  ; [ORIG 16-BIT INS]
     576 0000006c 68C0              LDR       A1, [A1, #12]         ; [DPU_V7M3_PIPE] |256|  ; [ORIG 16-BIT INS]
     577 0000006e 6008              STR       A1, [A2, #0]          ; [DPU_V7M3_PIPE] |256|  ; [ORIG 16-BIT INS]
     578                            .dwpsn  file "../driverlib/onewire.c",line 261,column 5,is_stmt,isa 1
     579                    ;----------------------------------------------------------------------
     580                    ; 261 | return(true);                                                          
     581                    ;----------------------------------------------------------------------
     582 00000070 2001              MOVS      A1, #1                ; [DPU_V7M3_PIPE] |261|  ; [ORIG 16-BIT INS]
     583                    ;* --------------------------------------------------------------------------*
     584 00000072           ||$C$L3||:    
     585                            .dwpsn  file "../driverlib/onewire.c",line 262,column 1,is_stmt,isa 1
     586 00000072 B002              ADD       SP, SP, #8            ; [DPU_V7M3_PIPE]  ; [ORIG 16-BIT INS]
     587                            .dwcfi  cfa_offset, 0
     588                    $C$DW$37        .dwtag  DW_TAG_TI_branch
     589                            .dwattr $C$DW$37, DW_AT_low_pc(0x00)
     590                            .dwattr $C$DW$37, DW_AT_TI_return
     591                    
     592 00000074 4770              BX        LR                    ; [DPU_V7M3_PIPE]  ; [ORIG 16-BIT INS]
     593                            ; BRANCH OCCURS                  ; [] 
     594                            .dwattr $C$DW$32, DW_AT_TI_end_file("../driverlib/onewire.c")
     595                            .dwattr $C$DW$32, DW_AT_TI_end_line(0x106)
     596                            .dwattr $C$DW$32, DW_AT_TI_end_column(0x01)
     597                            .dwendentry
     598                            .dwendtag $C$DW$32
     599                    
     600 00000076                   .sect   ".text"
     601                            .clink
     602                            .thumbfunc OneWireIntClear
     603 00000076                   .thumb
     604                            .global OneWireIntClear
     605                    
TI ARM Assembler Unix v18.1.1 Fri Jul  3 20:08:25 2020

Tools Copyright (c) 1996-2017 Texas Instruments Incorporated
onewire.asm                                                          PAGE   12

     606                    $C$DW$38        .dwtag  DW_TAG_subprogram
     607                            .dwattr $C$DW$38, DW_AT_name("OneWireIntClear")
     608                            .dwattr $C$DW$38, DW_AT_low_pc(OneWireIntClear)
     609                            .dwattr $C$DW$38, DW_AT_high_pc(0x00)
     610                            .dwattr $C$DW$38, DW_AT_TI_symbol_name("OneWireIntClear")
     611                            .dwattr $C$DW$38, DW_AT_external
     612                            .dwattr $C$DW$38, DW_AT_TI_begin_file("../driverlib/onewire.c")
     613                            .dwattr $C$DW$38, DW_AT_TI_begin_line(0x129)
     614                            .dwattr $C$DW$38, DW_AT_TI_begin_column(0x01)
     615                            .dwattr $C$DW$38, DW_AT_decl_file("../driverlib/onewire.c")
     616                            .dwattr $C$DW$38, DW_AT_decl_line(0x129)
     617                            .dwattr $C$DW$38, DW_AT_decl_column(0x01)
     618                            .dwattr $C$DW$38, DW_AT_TI_max_frame_size(0x08)
     619                            .dwpsn  file "../driverlib/onewire.c",line 298,column 1,is_stmt,address OneWireIntClear,isa 1
     620                    
     621                            .dwfde $C$DW$CIE, OneWireIntClear
     622                    $C$DW$39        .dwtag  DW_TAG_formal_parameter
     623                            .dwattr $C$DW$39, DW_AT_name("ui32Base")
     624                            .dwattr $C$DW$39, DW_AT_TI_symbol_name("ui32Base")
     625                            .dwattr $C$DW$39, DW_AT_type(*$C$DW$T$27)
     626                            .dwattr $C$DW$39, DW_AT_location[DW_OP_reg0]
     627                    
     628                    $C$DW$40        .dwtag  DW_TAG_formal_parameter
     629                            .dwattr $C$DW$40, DW_AT_name("ui32IntFlags")
     630                            .dwattr $C$DW$40, DW_AT_TI_symbol_name("ui32IntFlags")
     631                            .dwattr $C$DW$40, DW_AT_type(*$C$DW$T$27)
     632                            .dwattr $C$DW$40, DW_AT_location[DW_OP_reg1]
     633                    
     634                    ;----------------------------------------------------------------------
     635                    ; 297 | OneWireIntClear(uint32_t ui32Base, uint32_t ui32IntFlags)              
     636                    ;----------------------------------------------------------------------
     637                    
     638                    ;*****************************************************************************
     639                    ;* FUNCTION NAME: OneWireIntClear                                            *
     640                    ;*                                                                           *
     641                    ;*   Regs Modified     : A1,A2,SP                                            *
     642                    ;*   Regs Used         : A1,A2,SP,LR                                         *
     643                    ;*   Local Frame Size  : 0 Args + 8 Auto + 0 Save = 8 byte                   *
     644                    ;*****************************************************************************
     645 00000076           OneWireIntClear:
     646                    ;* --------------------------------------------------------------------------*
     647                            .dwcfi  cfa_offset, 0
     648 00000076 0D08F1AD          SUB       SP, SP, #8            ; [DPU_V7M3_PIPE]  ; [KEEP 32-BIT INS]
     649                            .dwcfi  cfa_offset, 8
     650                    $C$DW$41        .dwtag  DW_TAG_variable
     651                            .dwattr $C$DW$41, DW_AT_name("ui32Base")
     652                            .dwattr $C$DW$41, DW_AT_TI_symbol_name("ui32Base")
     653                            .dwattr $C$DW$41, DW_AT_type(*$C$DW$T$27)
     654                            .dwattr $C$DW$41, DW_AT_location[DW_OP_breg13 0]
     655                    
     656                    $C$DW$42        .dwtag  DW_TAG_variable
     657                            .dwattr $C$DW$42, DW_AT_name("ui32IntFlags")
     658                            .dwattr $C$DW$42, DW_AT_TI_symbol_name("ui32IntFlags")
     659                            .dwattr $C$DW$42, DW_AT_type(*$C$DW$T$27)
     660                            .dwattr $C$DW$42, DW_AT_location[DW_OP_breg13 4]
TI ARM Assembler Unix v18.1.1 Fri Jul  3 20:08:25 2020

Tools Copyright (c) 1996-2017 Texas Instruments Incorporated
onewire.asm                                                          PAGE   13

     661                    
     662                    ;----------------------------------------------------------------------
     663                    ; 299 | //                                                                     
     664                    ; 300 | // Check the argument.                                                 
     665                    ; 301 | //                                                                     
     666                    ; 302 | ASSERT(ui32Base == ONEWIRE0_BASE);                                     
     667                    ; 303 | ASSERT((ui32IntFlags & ~(ONEWIRE_IM_RST | ONEWIRE_IM_OPC | ONEWIRE_IM_D
     668                    ;     | MA |                                                                   
     669                    ; 304 |                          ONEWIRE_IM_NOATR | ONEWIRE_IM_STUCK)) == 0);  
     670                    ; 306 | //                                                                     
     671                    ; 307 | // Clear the requested interrupts.                                     
     672                    ; 308 | //                                                                     
     673                    ;----------------------------------------------------------------------
     674 0000007a 9101              STR       A2, [SP, #4]          ; [DPU_V7M3_PIPE] |298|  ; [ORIG 16-BIT INS]
     675 0000007c 9000              STR       A1, [SP, #0]          ; [DPU_V7M3_PIPE] |298|  ; [ORIG 16-BIT INS]
     676                            .dwpsn  file "../driverlib/onewire.c",line 309,column 5,is_stmt,isa 1
     677                    ;----------------------------------------------------------------------
     678                    ; 309 | HWREG(ui32Base + ONEWIRE_O_ICR) = ui32IntFlags;                        
     679                    ;----------------------------------------------------------------------
     680 0000007e 9801              LDR       A1, [SP, #4]          ; [DPU_V7M3_PIPE] |309|  ; [ORIG 16-BIT INS]
     681 00000080 9900              LDR       A2, [SP, #0]          ; [DPU_V7M3_PIPE] |309|  ; [ORIG 16-BIT INS]
     682 00000082 010CF8C1          STR       A1, [A2, #268]        ; [DPU_V7M3_PIPE] |309|  ; [KEEP 32-BIT INS]
     683                            .dwpsn  file "../driverlib/onewire.c",line 310,column 1,is_stmt,isa 1
     684 00000086 B002              ADD       SP, SP, #8            ; [DPU_V7M3_PIPE]  ; [ORIG 16-BIT INS]
     685                            .dwcfi  cfa_offset, 0
     686                    $C$DW$43        .dwtag  DW_TAG_TI_branch
     687                            .dwattr $C$DW$43, DW_AT_low_pc(0x00)
     688                            .dwattr $C$DW$43, DW_AT_TI_return
     689                    
     690 00000088 4770              BX        LR                    ; [DPU_V7M3_PIPE]  ; [ORIG 16-BIT INS]
     691                            ; BRANCH OCCURS                  ; [] 
     692                            .dwattr $C$DW$38, DW_AT_TI_end_file("../driverlib/onewire.c")
     693                            .dwattr $C$DW$38, DW_AT_TI_end_line(0x136)
     694                            .dwattr $C$DW$38, DW_AT_TI_end_column(0x01)
     695                            .dwendentry
     696                            .dwendtag $C$DW$38
     697                    
     698 0000008a                   .sect   ".text"
     699                            .clink
     700                            .thumbfunc OneWireIntDisable
     701 0000008a                   .thumb
     702                            .global OneWireIntDisable
     703                    
     704                    $C$DW$44        .dwtag  DW_TAG_subprogram
     705                            .dwattr $C$DW$44, DW_AT_name("OneWireIntDisable")
     706                            .dwattr $C$DW$44, DW_AT_low_pc(OneWireIntDisable)
     707                            .dwattr $C$DW$44, DW_AT_high_pc(0x00)
     708                            .dwattr $C$DW$44, DW_AT_TI_symbol_name("OneWireIntDisable")
     709                            .dwattr $C$DW$44, DW_AT_external
     710                            .dwattr $C$DW$44, DW_AT_TI_begin_file("../driverlib/onewire.c")
     711                            .dwattr $C$DW$44, DW_AT_TI_begin_line(0x14e)
     712                            .dwattr $C$DW$44, DW_AT_TI_begin_column(0x01)
     713                            .dwattr $C$DW$44, DW_AT_decl_file("../driverlib/onewire.c")
     714                            .dwattr $C$DW$44, DW_AT_decl_line(0x14e)
     715                            .dwattr $C$DW$44, DW_AT_decl_column(0x01)
TI ARM Assembler Unix v18.1.1 Fri Jul  3 20:08:25 2020

Tools Copyright (c) 1996-2017 Texas Instruments Incorporated
onewire.asm                                                          PAGE   14

     716                            .dwattr $C$DW$44, DW_AT_TI_max_frame_size(0x08)
     717                            .dwpsn  file "../driverlib/onewire.c",line 335,column 1,is_stmt,address OneWireIntDisable,isa 
     718                    
     719                            .dwfde $C$DW$CIE, OneWireIntDisable
     720                    $C$DW$45        .dwtag  DW_TAG_formal_parameter
     721                            .dwattr $C$DW$45, DW_AT_name("ui32Base")
     722                            .dwattr $C$DW$45, DW_AT_TI_symbol_name("ui32Base")
     723                            .dwattr $C$DW$45, DW_AT_type(*$C$DW$T$27)
     724                            .dwattr $C$DW$45, DW_AT_location[DW_OP_reg0]
     725                    
     726                    $C$DW$46        .dwtag  DW_TAG_formal_parameter
     727                            .dwattr $C$DW$46, DW_AT_name("ui32IntFlags")
     728                            .dwattr $C$DW$46, DW_AT_TI_symbol_name("ui32IntFlags")
     729                            .dwattr $C$DW$46, DW_AT_type(*$C$DW$T$27)
     730                            .dwattr $C$DW$46, DW_AT_location[DW_OP_reg1]
     731                    
     732                    ;----------------------------------------------------------------------
     733                    ; 334 | OneWireIntDisable(uint32_t ui32Base, uint32_t ui32IntFlags)            
     734                    ;----------------------------------------------------------------------
     735                    
     736                    ;*****************************************************************************
     737                    ;* FUNCTION NAME: OneWireIntDisable                                          *
     738                    ;*                                                                           *
     739                    ;*   Regs Modified     : A1,A2,A3,SP,SR                                      *
     740                    ;*   Regs Used         : A1,A2,A3,SP,LR,SR                                   *
     741                    ;*   Local Frame Size  : 0 Args + 8 Auto + 0 Save = 8 byte                   *
     742                    ;*****************************************************************************
     743 0000008a           OneWireIntDisable:
     744                    ;* --------------------------------------------------------------------------*
     745                            .dwcfi  cfa_offset, 0
     746 0000008a 0D08F1AD          SUB       SP, SP, #8            ; [DPU_V7M3_PIPE]  ; [KEEP 32-BIT INS]
     747                            .dwcfi  cfa_offset, 8
     748                    $C$DW$47        .dwtag  DW_TAG_variable
     749                            .dwattr $C$DW$47, DW_AT_name("ui32Base")
     750                            .dwattr $C$DW$47, DW_AT_TI_symbol_name("ui32Base")
     751                            .dwattr $C$DW$47, DW_AT_type(*$C$DW$T$27)
     752                            .dwattr $C$DW$47, DW_AT_location[DW_OP_breg13 0]
     753                    
     754                    $C$DW$48        .dwtag  DW_TAG_variable
     755                            .dwattr $C$DW$48, DW_AT_name("ui32IntFlags")
     756                            .dwattr $C$DW$48, DW_AT_TI_symbol_name("ui32IntFlags")
     757                            .dwattr $C$DW$48, DW_AT_type(*$C$DW$T$27)
     758                            .dwattr $C$DW$48, DW_AT_location[DW_OP_breg13 4]
     759                    
     760                    ;----------------------------------------------------------------------
     761                    ; 336 | //                                                                     
     762                    ; 337 | // Check the arguments.                                                
     763                    ; 338 | //                                                                     
     764                    ; 339 | ASSERT(ui32Base == ONEWIRE0_BASE);                                     
     765                    ; 340 | ASSERT((ui32IntFlags & ~(ONEWIRE_IM_RST | ONEWIRE_IM_OPC | ONEWIRE_IM_D
     766                    ;     | MA |                                                                   
     767                    ; 341 |                          ONEWIRE_IM_NOATR | ONEWIRE_IM_STUCK)) == 0);  
     768                    ; 343 | //                                                                     
     769                    ; 344 | // Disable the requested interrupts.                                   
     770                    ; 345 | //                                                                     
TI ARM Assembler Unix v18.1.1 Fri Jul  3 20:08:25 2020

Tools Copyright (c) 1996-2017 Texas Instruments Incorporated
onewire.asm                                                          PAGE   15

     771                    ;----------------------------------------------------------------------
     772 0000008e 9101              STR       A2, [SP, #4]          ; [DPU_V7M3_PIPE] |335|  ; [ORIG 16-BIT INS]
     773 00000090 9000              STR       A1, [SP, #0]          ; [DPU_V7M3_PIPE] |335|  ; [ORIG 16-BIT INS]
     774                            .dwpsn  file "../driverlib/onewire.c",line 346,column 5,is_stmt,isa 1
     775                    ;----------------------------------------------------------------------
     776                    ; 346 | HWREG(ui32Base + ONEWIRE_O_IM) &= ~ui32IntFlags;                       
     777                    ;----------------------------------------------------------------------
     778 00000092 9800              LDR       A1, [SP, #0]          ; [DPU_V7M3_PIPE] |346|  ; [ORIG 16-BIT INS]
     779 00000094 9A01              LDR       A3, [SP, #4]          ; [DPU_V7M3_PIPE] |346|  ; [ORIG 16-BIT INS]
     780 00000096 7080F500          ADD       A1, A1, #256          ; [DPU_V7M3_PIPE] |346|  ; [KEEP 32-BIT INS]
     781 0000009a 6801              LDR       A2, [A1, #0]          ; [DPU_V7M3_PIPE] |346|  ; [ORIG 16-BIT INS]
     782 0000009c 4391              BICS      A2, A2, A3            ; [DPU_V7M3_PIPE] |346|  ; [ORIG 16-BIT INS]
     783 0000009e 6001              STR       A2, [A1, #0]          ; [DPU_V7M3_PIPE] |346|  ; [ORIG 16-BIT INS]
     784                            .dwpsn  file "../driverlib/onewire.c",line 347,column 1,is_stmt,isa 1
     785 000000a0 B002              ADD       SP, SP, #8            ; [DPU_V7M3_PIPE]  ; [ORIG 16-BIT INS]
     786                            .dwcfi  cfa_offset, 0
     787                    $C$DW$49        .dwtag  DW_TAG_TI_branch
     788                            .dwattr $C$DW$49, DW_AT_low_pc(0x00)
     789                            .dwattr $C$DW$49, DW_AT_TI_return
     790                    
     791 000000a2 4770              BX        LR                    ; [DPU_V7M3_PIPE]  ; [ORIG 16-BIT INS]
     792                            ; BRANCH OCCURS                  ; [] 
     793                            .dwattr $C$DW$44, DW_AT_TI_end_file("../driverlib/onewire.c")
     794                            .dwattr $C$DW$44, DW_AT_TI_end_line(0x15b)
     795                            .dwattr $C$DW$44, DW_AT_TI_end_column(0x01)
     796                            .dwendentry
     797                            .dwendtag $C$DW$44
     798                    
     799 000000a4                   .sect   ".text"
     800                            .clink
     801                            .thumbfunc OneWireIntEnable
     802 000000a4                   .thumb
     803                            .global OneWireIntEnable
     804                    
     805                    $C$DW$50        .dwtag  DW_TAG_subprogram
     806                            .dwattr $C$DW$50, DW_AT_name("OneWireIntEnable")
     807                            .dwattr $C$DW$50, DW_AT_low_pc(OneWireIntEnable)
     808                            .dwattr $C$DW$50, DW_AT_high_pc(0x00)
     809                            .dwattr $C$DW$50, DW_AT_TI_symbol_name("OneWireIntEnable")
     810                            .dwattr $C$DW$50, DW_AT_external
     811                            .dwattr $C$DW$50, DW_AT_TI_begin_file("../driverlib/onewire.c")
     812                            .dwattr $C$DW$50, DW_AT_TI_begin_line(0x175)
     813                            .dwattr $C$DW$50, DW_AT_TI_begin_column(0x01)
     814                            .dwattr $C$DW$50, DW_AT_decl_file("../driverlib/onewire.c")
     815                            .dwattr $C$DW$50, DW_AT_decl_line(0x175)
     816                            .dwattr $C$DW$50, DW_AT_decl_column(0x01)
     817                            .dwattr $C$DW$50, DW_AT_TI_max_frame_size(0x08)
     818                            .dwpsn  file "../driverlib/onewire.c",line 374,column 1,is_stmt,address OneWireIntEnable,isa 1
     819                    
     820                            .dwfde $C$DW$CIE, OneWireIntEnable
     821                    $C$DW$51        .dwtag  DW_TAG_formal_parameter
     822                            .dwattr $C$DW$51, DW_AT_name("ui32Base")
     823                            .dwattr $C$DW$51, DW_AT_TI_symbol_name("ui32Base")
     824                            .dwattr $C$DW$51, DW_AT_type(*$C$DW$T$27)
     825                            .dwattr $C$DW$51, DW_AT_location[DW_OP_reg0]
TI ARM Assembler Unix v18.1.1 Fri Jul  3 20:08:25 2020

Tools Copyright (c) 1996-2017 Texas Instruments Incorporated
onewire.asm                                                          PAGE   16

     826                    
     827                    $C$DW$52        .dwtag  DW_TAG_formal_parameter
     828                            .dwattr $C$DW$52, DW_AT_name("ui32IntFlags")
     829                            .dwattr $C$DW$52, DW_AT_TI_symbol_name("ui32IntFlags")
     830                            .dwattr $C$DW$52, DW_AT_type(*$C$DW$T$27)
     831                            .dwattr $C$DW$52, DW_AT_location[DW_OP_reg1]
     832                    
     833                    ;----------------------------------------------------------------------
     834                    ; 373 | OneWireIntEnable(uint32_t ui32Base, uint32_t ui32IntFlags)             
     835                    ;----------------------------------------------------------------------
     836                    
     837                    ;*****************************************************************************
     838                    ;* FUNCTION NAME: OneWireIntEnable                                           *
     839                    ;*                                                                           *
     840                    ;*   Regs Modified     : A1,A2,A3,SP,SR                                      *
     841                    ;*   Regs Used         : A1,A2,A3,SP,LR,SR                                   *
     842                    ;*   Local Frame Size  : 0 Args + 8 Auto + 0 Save = 8 byte                   *
     843                    ;*****************************************************************************
     844 000000a4           OneWireIntEnable:
     845                    ;* --------------------------------------------------------------------------*
     846                            .dwcfi  cfa_offset, 0
     847 000000a4 0D08F1AD          SUB       SP, SP, #8            ; [DPU_V7M3_PIPE]  ; [KEEP 32-BIT INS]
     848                            .dwcfi  cfa_offset, 8
     849                    $C$DW$53        .dwtag  DW_TAG_variable
     850                            .dwattr $C$DW$53, DW_AT_name("ui32Base")
     851                            .dwattr $C$DW$53, DW_AT_TI_symbol_name("ui32Base")
     852                            .dwattr $C$DW$53, DW_AT_type(*$C$DW$T$27)
     853                            .dwattr $C$DW$53, DW_AT_location[DW_OP_breg13 0]
     854                    
     855                    $C$DW$54        .dwtag  DW_TAG_variable
     856                            .dwattr $C$DW$54, DW_AT_name("ui32IntFlags")
     857                            .dwattr $C$DW$54, DW_AT_TI_symbol_name("ui32IntFlags")
     858                            .dwattr $C$DW$54, DW_AT_type(*$C$DW$T$27)
     859                            .dwattr $C$DW$54, DW_AT_location[DW_OP_breg13 4]
     860                    
     861                    ;----------------------------------------------------------------------
     862                    ; 375 | //                                                                     
     863                    ; 376 | // Check the arguments.                                                
     864                    ; 377 | //                                                                     
     865                    ; 378 | ASSERT(ui32Base == ONEWIRE0_BASE);                                     
     866                    ; 379 | ASSERT((ui32IntFlags & ~(ONEWIRE_IM_RST | ONEWIRE_IM_OPC | ONEWIRE_IM_D
     867                    ;     | MA |                                                                   
     868                    ; 380 |                          ONEWIRE_IM_NOATR | ONEWIRE_IM_STUCK)) == 0);  
     869                    ; 382 | //                                                                     
     870                    ; 383 | // Enable the requested interrupts.                                    
     871                    ; 384 | //                                                                     
     872                    ;----------------------------------------------------------------------
     873 000000a8 9101              STR       A2, [SP, #4]          ; [DPU_V7M3_PIPE] |374|  ; [ORIG 16-BIT INS]
     874 000000aa 9000              STR       A1, [SP, #0]          ; [DPU_V7M3_PIPE] |374|  ; [ORIG 16-BIT INS]
     875                            .dwpsn  file "../driverlib/onewire.c",line 385,column 5,is_stmt,isa 1
     876                    ;----------------------------------------------------------------------
     877                    ; 385 | HWREG(ui32Base + ONEWIRE_O_IM) |= ui32IntFlags;                        
     878                    ;----------------------------------------------------------------------
     879 000000ac 9800              LDR       A1, [SP, #0]          ; [DPU_V7M3_PIPE] |385|  ; [ORIG 16-BIT INS]
     880 000000ae 9901              LDR       A2, [SP, #4]          ; [DPU_V7M3_PIPE] |385|  ; [ORIG 16-BIT INS]
TI ARM Assembler Unix v18.1.1 Fri Jul  3 20:08:25 2020

Tools Copyright (c) 1996-2017 Texas Instruments Incorporated
onewire.asm                                                          PAGE   17

     881 000000b0 7080F500          ADD       A1, A1, #256          ; [DPU_V7M3_PIPE] |385|  ; [KEEP 32-BIT INS]
     882 000000b4 6802              LDR       A3, [A1, #0]          ; [DPU_V7M3_PIPE] |385|  ; [ORIG 16-BIT INS]
     883 000000b6 4311              ORRS      A2, A2, A3            ; [DPU_V7M3_PIPE] |385|  ; [ORIG 16-BIT INS]
     884 000000b8 6001              STR       A2, [A1, #0]          ; [DPU_V7M3_PIPE] |385|  ; [ORIG 16-BIT INS]
     885                            .dwpsn  file "../driverlib/onewire.c",line 386,column 1,is_stmt,isa 1
     886 000000ba B002              ADD       SP, SP, #8            ; [DPU_V7M3_PIPE]  ; [ORIG 16-BIT INS]
     887                            .dwcfi  cfa_offset, 0
     888                    $C$DW$55        .dwtag  DW_TAG_TI_branch
     889                            .dwattr $C$DW$55, DW_AT_low_pc(0x00)
     890                            .dwattr $C$DW$55, DW_AT_TI_return
     891                    
     892 000000bc 4770              BX        LR                    ; [DPU_V7M3_PIPE]  ; [ORIG 16-BIT INS]
     893                            ; BRANCH OCCURS                  ; [] 
     894                            .dwattr $C$DW$50, DW_AT_TI_end_file("../driverlib/onewire.c")
     895                            .dwattr $C$DW$50, DW_AT_TI_end_line(0x182)
     896                            .dwattr $C$DW$50, DW_AT_TI_end_column(0x01)
     897                            .dwendentry
     898                            .dwendtag $C$DW$50
     899                    
     900 000000be                   .sect   ".text"
     901                            .clink
     902                            .thumbfunc OneWireIntStatus
     903 000000be                   .thumb
     904                            .global OneWireIntStatus
     905                    
     906                    $C$DW$56        .dwtag  DW_TAG_subprogram
     907                            .dwattr $C$DW$56, DW_AT_name("OneWireIntStatus")
     908                            .dwattr $C$DW$56, DW_AT_low_pc(OneWireIntStatus)
     909                            .dwattr $C$DW$56, DW_AT_high_pc(0x00)
     910                            .dwattr $C$DW$56, DW_AT_TI_symbol_name("OneWireIntStatus")
     911                            .dwattr $C$DW$56, DW_AT_external
     912                            .dwattr $C$DW$56, DW_AT_type(*$C$DW$T$27)
     913                            .dwattr $C$DW$56, DW_AT_TI_begin_file("../driverlib/onewire.c")
     914                            .dwattr $C$DW$56, DW_AT_TI_begin_line(0x19b)
     915                            .dwattr $C$DW$56, DW_AT_TI_begin_column(0x01)
     916                            .dwattr $C$DW$56, DW_AT_decl_file("../driverlib/onewire.c")
     917                            .dwattr $C$DW$56, DW_AT_decl_line(0x19b)
     918                            .dwattr $C$DW$56, DW_AT_decl_column(0x01)
     919                            .dwattr $C$DW$56, DW_AT_TI_max_frame_size(0x08)
     920                            .dwpsn  file "../driverlib/onewire.c",line 412,column 1,is_stmt,address OneWireIntStatus,isa 1
     921                    
     922                            .dwfde $C$DW$CIE, OneWireIntStatus
     923                    $C$DW$57        .dwtag  DW_TAG_formal_parameter
     924                            .dwattr $C$DW$57, DW_AT_name("ui32Base")
     925                            .dwattr $C$DW$57, DW_AT_TI_symbol_name("ui32Base")
     926                            .dwattr $C$DW$57, DW_AT_type(*$C$DW$T$27)
     927                            .dwattr $C$DW$57, DW_AT_location[DW_OP_reg0]
     928                    
     929                    $C$DW$58        .dwtag  DW_TAG_formal_parameter
     930                            .dwattr $C$DW$58, DW_AT_name("bMasked")
     931                            .dwattr $C$DW$58, DW_AT_TI_symbol_name("bMasked")
     932                            .dwattr $C$DW$58, DW_AT_type(*$C$DW$T$114)
     933                            .dwattr $C$DW$58, DW_AT_location[DW_OP_reg1]
     934                    
     935                    ;----------------------------------------------------------------------
TI ARM Assembler Unix v18.1.1 Fri Jul  3 20:08:25 2020

Tools Copyright (c) 1996-2017 Texas Instruments Incorporated
onewire.asm                                                          PAGE   18

     936                    ; 411 | OneWireIntStatus(uint32_t ui32Base, bool bMasked)                      
     937                    ;----------------------------------------------------------------------
     938                    
     939                    ;*****************************************************************************
     940                    ;* FUNCTION NAME: OneWireIntStatus                                           *
     941                    ;*                                                                           *
     942                    ;*   Regs Modified     : A1,SP                                               *
     943                    ;*   Regs Used         : A1,A2,SP,LR                                         *
     944                    ;*   Local Frame Size  : 0 Args + 8 Auto + 0 Save = 8 byte                   *
     945                    ;*****************************************************************************
     946 000000be           OneWireIntStatus:
     947                    ;* --------------------------------------------------------------------------*
     948                            .dwcfi  cfa_offset, 0
     949 000000be 0D08F1AD          SUB       SP, SP, #8            ; [DPU_V7M3_PIPE]  ; [KEEP 32-BIT INS]
     950                            .dwcfi  cfa_offset, 8
     951                    $C$DW$59        .dwtag  DW_TAG_variable
     952                            .dwattr $C$DW$59, DW_AT_name("ui32Base")
     953                            .dwattr $C$DW$59, DW_AT_TI_symbol_name("ui32Base")
     954                            .dwattr $C$DW$59, DW_AT_type(*$C$DW$T$27)
     955                            .dwattr $C$DW$59, DW_AT_location[DW_OP_breg13 0]
     956                    
     957                    $C$DW$60        .dwtag  DW_TAG_variable
     958                            .dwattr $C$DW$60, DW_AT_name("bMasked")
     959                            .dwattr $C$DW$60, DW_AT_TI_symbol_name("bMasked")
     960                            .dwattr $C$DW$60, DW_AT_type(*$C$DW$T$114)
     961                            .dwattr $C$DW$60, DW_AT_location[DW_OP_breg13 4]
     962                    
     963                    ;----------------------------------------------------------------------
     964                    ; 413 | //                                                                     
     965                    ; 414 | // Check the argument.                                                 
     966                    ; 415 | //                                                                     
     967                    ; 416 | ASSERT(ui32Base == ONEWIRE0_BASE);                                     
     968                    ; 418 | //                                                                     
     969                    ; 419 | // Return either the interrupt status or the raw interrupt status as   
     970                    ; 420 | // requested.                                                          
     971                    ; 421 | //                                                                     
     972                    ;----------------------------------------------------------------------
     973 000000c2 1004F88D          STRB      A2, [SP, #4]          ; [DPU_V7M3_PIPE] |412|  ; [KEEP 32-BIT INS]
     974 000000c6 9000              STR       A1, [SP, #0]          ; [DPU_V7M3_PIPE] |412|  ; [ORIG 16-BIT INS]
     975                            .dwpsn  file "../driverlib/onewire.c",line 422,column 5,is_stmt,isa 1
     976                    ;----------------------------------------------------------------------
     977                    ; 422 | if(bMasked)                                                            
     978                    ;----------------------------------------------------------------------
     979 000000c8 0004F89D          LDRB      A1, [SP, #4]          ; [DPU_V7M3_PIPE] |422|  ; [KEEP 32-BIT INS]
     980 000000cc B118              CBZ       A1, ||$C$L4||         ; []  ; [ORIG 16-BIT INS]
     981                            ; BRANCHCC OCCURS {||$C$L4||}    ; [] |422| 
     982                    ;* --------------------------------------------------------------------------*
     983                            .dwpsn  file "../driverlib/onewire.c",line 424,column 9,is_stmt,isa 1
     984                    ;----------------------------------------------------------------------
     985                    ; 424 | return(HWREG(ui32Base + ONEWIRE_O_MIS));                               
     986                    ; 426 | else                                                                   
     987                    ;----------------------------------------------------------------------
     988 000000ce 9800              LDR       A1, [SP, #0]          ; [DPU_V7M3_PIPE] |424|  ; [ORIG 16-BIT INS]
     989 000000d0 0108F8D0          LDR       A1, [A1, #264]        ; [DPU_V7M3_PIPE] |424|  ; [KEEP 32-BIT INS]
     990 000000d4 E002              B         ||$C$L5||             ; [DPU_V7M3_PIPE] |424|  ; [ORIG 16-BIT INS]
TI ARM Assembler Unix v18.1.1 Fri Jul  3 20:08:25 2020

Tools Copyright (c) 1996-2017 Texas Instruments Incorporated
onewire.asm                                                          PAGE   19

     991                            ; BRANCH OCCURS {||$C$L5||}      ; [] |424| 
     992                    ;* --------------------------------------------------------------------------*
     993                    ;* --------------------------------------------------------------------------*
     994 000000d6           ||$C$L4||:    
     995                            .dwpsn  file "../driverlib/onewire.c",line 428,column 9,is_stmt,isa 1
     996                    ;----------------------------------------------------------------------
     997                    ; 428 | return(HWREG(ui32Base + ONEWIRE_O_RIS));                               
     998                    ;----------------------------------------------------------------------
     999 000000d6 9800              LDR       A1, [SP, #0]          ; [DPU_V7M3_PIPE] |428|  ; [ORIG 16-BIT INS]
    1000 000000d8 0104F8D0          LDR       A1, [A1, #260]        ; [DPU_V7M3_PIPE] |428|  ; [KEEP 32-BIT INS]
    1001                    ;* --------------------------------------------------------------------------*
    1002 000000dc           ||$C$L5||:    
    1003                            .dwpsn  file "../driverlib/onewire.c",line 430,column 1,is_stmt,isa 1
    1004 000000dc B002              ADD       SP, SP, #8            ; [DPU_V7M3_PIPE]  ; [ORIG 16-BIT INS]
    1005                            .dwcfi  cfa_offset, 0
    1006                    $C$DW$61        .dwtag  DW_TAG_TI_branch
    1007                            .dwattr $C$DW$61, DW_AT_low_pc(0x00)
    1008                            .dwattr $C$DW$61, DW_AT_TI_return
    1009                    
    1010 000000de 4770              BX        LR                    ; [DPU_V7M3_PIPE]  ; [ORIG 16-BIT INS]
    1011                            ; BRANCH OCCURS                  ; [] 
    1012                            .dwattr $C$DW$56, DW_AT_TI_end_file("../driverlib/onewire.c")
    1013                            .dwattr $C$DW$56, DW_AT_TI_end_line(0x1ae)
    1014                            .dwattr $C$DW$56, DW_AT_TI_end_column(0x01)
    1015                            .dwendentry
    1016                            .dwendtag $C$DW$56
    1017                    
    1018 000000e0                   .sect   ".text"
    1019                            .clink
    1020                            .thumbfunc _OneWireIntNumberGet
    1021 000000e0                   .thumb
    1022                    
    1023                    $C$DW$62        .dwtag  DW_TAG_subprogram
    1024                            .dwattr $C$DW$62, DW_AT_name("_OneWireIntNumberGet")
    1025                            .dwattr $C$DW$62, DW_AT_low_pc(_OneWireIntNumberGet)
    1026                            .dwattr $C$DW$62, DW_AT_high_pc(0x00)
    1027                            .dwattr $C$DW$62, DW_AT_TI_symbol_name("_OneWireIntNumberGet")
    1028                            .dwattr $C$DW$62, DW_AT_type(*$C$DW$T$27)
    1029                            .dwattr $C$DW$62, DW_AT_TI_begin_file("../driverlib/onewire.c")
    1030                            .dwattr $C$DW$62, DW_AT_TI_begin_line(0x1be)
    1031                            .dwattr $C$DW$62, DW_AT_TI_begin_column(0x01)
    1032                            .dwattr $C$DW$62, DW_AT_decl_file("../driverlib/onewire.c")
    1033                            .dwattr $C$DW$62, DW_AT_decl_line(0x1be)
    1034                            .dwattr $C$DW$62, DW_AT_decl_column(0x01)
    1035                            .dwattr $C$DW$62, DW_AT_TI_max_frame_size(0x08)
    1036                            .dwpsn  file "../driverlib/onewire.c",line 447,column 1,is_stmt,address _OneWireIntNumberGet,i
    1037                    
    1038                            .dwfde $C$DW$CIE, _OneWireIntNumberGet
    1039                    $C$DW$63        .dwtag  DW_TAG_formal_parameter
    1040                            .dwattr $C$DW$63, DW_AT_name("ui32Base")
    1041                            .dwattr $C$DW$63, DW_AT_TI_symbol_name("ui32Base")
    1042                            .dwattr $C$DW$63, DW_AT_type(*$C$DW$T$27)
    1043                            .dwattr $C$DW$63, DW_AT_location[DW_OP_reg0]
    1044                    
    1045                    ;----------------------------------------------------------------------
TI ARM Assembler Unix v18.1.1 Fri Jul  3 20:08:25 2020

Tools Copyright (c) 1996-2017 Texas Instruments Incorporated
onewire.asm                                                          PAGE   20

    1046                    ; 446 | _OneWireIntNumberGet(uint32_t ui32Base)                                
    1047                    ;----------------------------------------------------------------------
    1048                    
    1049                    ;*****************************************************************************
    1050                    ;* FUNCTION NAME: _OneWireIntNumberGet                                       *
    1051                    ;*                                                                           *
    1052                    ;*   Regs Modified     : A1,A2,A3,SP,SR                                      *
    1053                    ;*   Regs Used         : A1,A2,A3,SP,LR,SR                                   *
    1054                    ;*   Local Frame Size  : 0 Args + 8 Auto + 0 Save = 8 byte                   *
    1055                    ;*****************************************************************************
    1056 000000e0           _OneWireIntNumberGet:
    1057                    ;* --------------------------------------------------------------------------*
    1058                            .dwcfi  cfa_offset, 0
    1059 000000e0 0D08F1AD          SUB       SP, SP, #8            ; [DPU_V7M3_PIPE]  ; [KEEP 32-BIT INS]
    1060                            .dwcfi  cfa_offset, 8
    1061                    $C$DW$64        .dwtag  DW_TAG_variable
    1062                            .dwattr $C$DW$64, DW_AT_name("ui32Base")
    1063                            .dwattr $C$DW$64, DW_AT_TI_symbol_name("ui32Base")
    1064                            .dwattr $C$DW$64, DW_AT_type(*$C$DW$T$27)
    1065                            .dwattr $C$DW$64, DW_AT_location[DW_OP_breg13 0]
    1066                    
    1067                    $C$DW$65        .dwtag  DW_TAG_variable
    1068                            .dwattr $C$DW$65, DW_AT_name("ui32Int")
    1069                            .dwattr $C$DW$65, DW_AT_TI_symbol_name("ui32Int")
    1070                            .dwattr $C$DW$65, DW_AT_type(*$C$DW$T$27)
    1071                            .dwattr $C$DW$65, DW_AT_location[DW_OP_breg13 4]
    1072                    
    1073                    ;----------------------------------------------------------------------
    1074                    ; 448 | uint32_t ui32Int;                                                      
    1075                    ; 450 | ASSERT(ui32Base == ONEWIRE0_BASE);                                     
    1076                    ;----------------------------------------------------------------------
    1077 000000e4 9000              STR       A1, [SP, #0]          ; [DPU_V7M3_PIPE] |447|  ; [ORIG 16-BIT INS]
    1078                            .dwpsn  file "../driverlib/onewire.c",line 452,column 5,is_stmt,isa 1
    1079                    ;----------------------------------------------------------------------
    1080                    ; 452 | ui32Int = 0;                                                           
    1081                    ; 454 | //                                                                     
    1082                    ; 455 | // Find the valid interrupt number for the 1-Wire module.              
    1083                    ; 456 | //                                                                     
    1084                    ;----------------------------------------------------------------------
    1085 000000e6 2000              MOVS      A1, #0                ; [DPU_V7M3_PIPE] |452|  ; [ORIG 16-BIT INS]
    1086 000000e8 9001              STR       A1, [SP, #4]          ; [DPU_V7M3_PIPE] |452|  ; [ORIG 16-BIT INS]
    1087                            .dwpsn  file "../driverlib/onewire.c",line 457,column 5,is_stmt,isa 1
    1088                    ;----------------------------------------------------------------------
    1089                    ; 457 | if(CLASS_IS_TM4C129)                                                   
    1090                    ;----------------------------------------------------------------------
    1091 000000ea 494E              LDR       A2, $C$CON2           ; [DPU_V7M3_PIPE] |457|  ; [ORIG 16-BIT INS]
    1092 000000ec 484C              LDR       A1, $C$CON1           ; [DPU_V7M3_PIPE] |457|  ; [ORIG 16-BIT INS]
    1093 000000ee 680A              LDR       A3, [A2, #0]          ; [DPU_V7M3_PIPE] |457|  ; [ORIG 16-BIT INS]
    1094 000000f0 494D              LDR       A2, $C$CON3           ; [DPU_V7M3_PIPE] |457|  ; [ORIG 16-BIT INS]
    1095 000000f2 4010              ANDS      A1, A1, A3            ; [DPU_V7M3_PIPE] |457|  ; [ORIG 16-BIT INS]
    1096 000000f4 4281              CMP       A2, A1                ; [DPU_V7M3_PIPE] |457|  ; [ORIG 16-BIT INS]
    1097 000000f6 D101              BNE       ||$C$L6||             ; [DPU_V7M3_PIPE] |457|  ; [ORIG 16-BIT INS]
    1098                            ; BRANCHCC OCCURS {||$C$L6||}    ; [] |457| 
    1099                    ;* --------------------------------------------------------------------------*
    1100                            .dwpsn  file "../driverlib/onewire.c",line 459,column 9,is_stmt,isa 1
TI ARM Assembler Unix v18.1.1 Fri Jul  3 20:08:25 2020

Tools Copyright (c) 1996-2017 Texas Instruments Incorporated
onewire.asm                                                          PAGE   21

    1101                    ;----------------------------------------------------------------------
    1102                    ; 459 | ui32Int = INT_ONEWIRE0_TM4C129;                                        
    1103                    ;----------------------------------------------------------------------
    1104 000000f8 2079              MOVS      A1, #121              ; [DPU_V7M3_PIPE] |459|  ; [ORIG 16-BIT INS]
    1105 000000fa 9001              STR       A1, [SP, #4]          ; [DPU_V7M3_PIPE] |459|  ; [ORIG 16-BIT INS]
    1106                    ;* --------------------------------------------------------------------------*
    1107 000000fc           ||$C$L6||:    
    1108                            .dwpsn  file "../driverlib/onewire.c",line 462,column 5,is_stmt,isa 1
    1109                    ;----------------------------------------------------------------------
    1110                    ; 462 | return(ui32Int);                                                       
    1111                    ;----------------------------------------------------------------------
    1112 000000fc 9801              LDR       A1, [SP, #4]          ; [DPU_V7M3_PIPE] |462|  ; [ORIG 16-BIT INS]
    1113                            .dwpsn  file "../driverlib/onewire.c",line 463,column 1,is_stmt,isa 1
    1114 000000fe B002              ADD       SP, SP, #8            ; [DPU_V7M3_PIPE]  ; [ORIG 16-BIT INS]
    1115                            .dwcfi  cfa_offset, 0
    1116                    $C$DW$66        .dwtag  DW_TAG_TI_branch
    1117                            .dwattr $C$DW$66, DW_AT_low_pc(0x00)
    1118                            .dwattr $C$DW$66, DW_AT_TI_return
    1119                    
    1120 00000100 4770              BX        LR                    ; [DPU_V7M3_PIPE]  ; [ORIG 16-BIT INS]
    1121                            ; BRANCH OCCURS                  ; [] 
    1122                            .dwattr $C$DW$62, DW_AT_TI_end_file("../driverlib/onewire.c")
    1123                            .dwattr $C$DW$62, DW_AT_TI_end_line(0x1cf)
    1124                            .dwattr $C$DW$62, DW_AT_TI_end_column(0x01)
    1125                            .dwendentry
    1126                            .dwendtag $C$DW$62
    1127                    
    1128 00000102                   .sect   ".text"
    1129                            .clink
    1130                            .thumbfunc OneWireIntRegister
    1131 00000102                   .thumb
    1132                            .global OneWireIntRegister
    1133                    
    1134                    $C$DW$67        .dwtag  DW_TAG_subprogram
    1135                            .dwattr $C$DW$67, DW_AT_name("OneWireIntRegister")
    1136                            .dwattr $C$DW$67, DW_AT_low_pc(OneWireIntRegister)
    1137                            .dwattr $C$DW$67, DW_AT_high_pc(0x00)
    1138                            .dwattr $C$DW$67, DW_AT_TI_symbol_name("OneWireIntRegister")
    1139                            .dwattr $C$DW$67, DW_AT_external
    1140                            .dwattr $C$DW$67, DW_AT_TI_begin_file("../driverlib/onewire.c")
    1141                            .dwattr $C$DW$67, DW_AT_TI_begin_line(0x1e6)
    1142                            .dwattr $C$DW$67, DW_AT_TI_begin_column(0x01)
    1143                            .dwattr $C$DW$67, DW_AT_decl_file("../driverlib/onewire.c")
    1144                            .dwattr $C$DW$67, DW_AT_decl_line(0x1e6)
    1145                            .dwattr $C$DW$67, DW_AT_decl_column(0x01)
    1146                            .dwattr $C$DW$67, DW_AT_TI_max_frame_size(0x10)
    1147                            .dwpsn  file "../driverlib/onewire.c",line 487,column 1,is_stmt,address OneWireIntRegister,isa
    1148                    
    1149                            .dwfde $C$DW$CIE, OneWireIntRegister
    1150                    $C$DW$68        .dwtag  DW_TAG_formal_parameter
    1151                            .dwattr $C$DW$68, DW_AT_name("ui32Base")
    1152                            .dwattr $C$DW$68, DW_AT_TI_symbol_name("ui32Base")
    1153                            .dwattr $C$DW$68, DW_AT_type(*$C$DW$T$27)
    1154                            .dwattr $C$DW$68, DW_AT_location[DW_OP_reg0]
    1155                    
TI ARM Assembler Unix v18.1.1 Fri Jul  3 20:08:25 2020

Tools Copyright (c) 1996-2017 Texas Instruments Incorporated
onewire.asm                                                          PAGE   22

    1156                    $C$DW$69        .dwtag  DW_TAG_formal_parameter
    1157                            .dwattr $C$DW$69, DW_AT_name("pfnHandler")
    1158                            .dwattr $C$DW$69, DW_AT_TI_symbol_name("pfnHandler")
    1159                            .dwattr $C$DW$69, DW_AT_type(*$C$DW$T$25)
    1160                            .dwattr $C$DW$69, DW_AT_location[DW_OP_reg1]
    1161                    
    1162                    ;----------------------------------------------------------------------
    1163                    ; 486 | OneWireIntRegister(uint32_t ui32Base, void (*pfnHandler)(void))        
    1164                    ;----------------------------------------------------------------------
    1165                    
    1166                    ;*****************************************************************************
    1167                    ;* FUNCTION NAME: OneWireIntRegister                                         *
    1168                    ;*                                                                           *
    1169                    ;*   Regs Modified     : A1,A2,A3,A4,V9,SP,LR,SR,D0,D0_hi,D1,D1_hi,D2,D2_hi, *
    1170                    ;*                           D3,D3_hi,D4,D4_hi,D5,D5_hi,D6,D6_hi,D7,D7_hi,   *
    1171                    ;*                           FPEXC,FPSCR                                     *
    1172                    ;*   Regs Used         : A1,A2,A3,A4,V9,SP,LR,SR,D0,D0_hi,D1,D1_hi,D2,D2_hi, *
    1173                    ;*                           D3,D3_hi,D4,D4_hi,D5,D5_hi,D6,D6_hi,D7,D7_hi,   *
    1174                    ;*                           FPEXC,FPSCR                                     *
    1175                    ;*   Local Frame Size  : 0 Args + 12 Auto + 4 Save = 16 byte                 *
    1176                    ;*****************************************************************************
    1177 00000102           OneWireIntRegister:
    1178                    ;* --------------------------------------------------------------------------*
    1179                            .dwcfi  cfa_offset, 0
    1180 00000102 B50E              PUSH      {A2, A3, A4, LR}      ; [DPU_V7M3_PIPE]  ; [ORIG 16-BIT INS]
    1181                            .dwcfi  cfa_offset, 16
    1182                            .dwcfi  save_reg_to_mem, 14, -4
    1183                            .dwcfi  save_reg_to_mem, 3, -8
    1184                            .dwcfi  save_reg_to_mem, 2, -12
    1185                            .dwcfi  save_reg_to_mem, 1, -16
    1186                    $C$DW$70        .dwtag  DW_TAG_variable
    1187                            .dwattr $C$DW$70, DW_AT_name("ui32Base")
    1188                            .dwattr $C$DW$70, DW_AT_TI_symbol_name("ui32Base")
    1189                            .dwattr $C$DW$70, DW_AT_type(*$C$DW$T$27)
    1190                            .dwattr $C$DW$70, DW_AT_location[DW_OP_breg13 0]
    1191                    
    1192                    $C$DW$71        .dwtag  DW_TAG_variable
    1193                            .dwattr $C$DW$71, DW_AT_name("pfnHandler")
    1194                            .dwattr $C$DW$71, DW_AT_TI_symbol_name("pfnHandler")
    1195                            .dwattr $C$DW$71, DW_AT_type(*$C$DW$T$25)
    1196                            .dwattr $C$DW$71, DW_AT_location[DW_OP_breg13 4]
    1197                    
    1198                    $C$DW$72        .dwtag  DW_TAG_variable
    1199                            .dwattr $C$DW$72, DW_AT_name("ui32Int")
    1200                            .dwattr $C$DW$72, DW_AT_TI_symbol_name("ui32Int")
    1201                            .dwattr $C$DW$72, DW_AT_type(*$C$DW$T$27)
    1202                            .dwattr $C$DW$72, DW_AT_location[DW_OP_breg13 8]
    1203                    
    1204                    ;----------------------------------------------------------------------
    1205                    ; 488 | uint32_t ui32Int;                                                      
    1206                    ; 490 | //                                                                     
    1207                    ; 491 | // Check the argument.                                                 
    1208                    ; 492 | //                                                                     
    1209                    ; 493 | ASSERT(ui32Base == ONEWIRE0_BASE);                                     
    1210                    ; 494 | ASSERT(pfnHandler);                                                    
TI ARM Assembler Unix v18.1.1 Fri Jul  3 20:08:25 2020

Tools Copyright (c) 1996-2017 Texas Instruments Incorporated
onewire.asm                                                          PAGE   23

    1211                    ; 496 | //                                                                     
    1212                    ; 497 | // Get the actual interrupt number for the 1-Wire module.              
    1213                    ; 498 | //                                                                     
    1214                    ;----------------------------------------------------------------------
    1215 00000104 9101              STR       A2, [SP, #4]          ; [DPU_V7M3_PIPE] |487|  ; [ORIG 16-BIT INS]
    1216 00000106 9000              STR       A1, [SP, #0]          ; [DPU_V7M3_PIPE] |487|  ; [ORIG 16-BIT INS]
    1217                            .dwpsn  file "../driverlib/onewire.c",line 499,column 5,is_stmt,isa 1
    1218                    ;----------------------------------------------------------------------
    1219                    ; 499 | ui32Int = _OneWireIntNumberGet(ui32Base);                              
    1220                    ; 501 | ASSERT(ui32Int != 0);                                                  
    1221                    ; 503 | //                                                                     
    1222                    ; 504 | // Register the interrupt handler.                                     
    1223                    ; 505 | //                                                                     
    1224                    ;----------------------------------------------------------------------
    1225 00000108 9800              LDR       A1, [SP, #0]          ; [DPU_V7M3_PIPE] |499|  ; [ORIG 16-BIT INS]
    1226                    $C$DW$73        .dwtag  DW_TAG_TI_branch
    1227                            .dwattr $C$DW$73, DW_AT_low_pc(0x00)
    1228                            .dwattr $C$DW$73, DW_AT_name("_OneWireIntNumberGet")
    1229                            .dwattr $C$DW$73, DW_AT_TI_call
    1230                    
    1231 0000010a FFFEF7FF!         BL        _OneWireIntNumberGet  ; [DPU_V7M3_PIPE] |499|  ; [KEEP 32-BIT INS]
    1232                            ; CALL OCCURS {_OneWireIntNumberGet }  ; [] |499| 
    1233 0000010e 9002              STR       A1, [SP, #8]          ; [DPU_V7M3_PIPE] |499|  ; [ORIG 16-BIT INS]
    1234                            .dwpsn  file "../driverlib/onewire.c",line 506,column 5,is_stmt,isa 1
    1235                    ;----------------------------------------------------------------------
    1236                    ; 506 | IntRegister(ui32Int, pfnHandler);                                      
    1237                    ; 508 | //                                                                     
    1238                    ; 509 | // Enable the 1-Wire peripheral interrupt.                             
    1239                    ; 510 | //                                                                     
    1240                    ;----------------------------------------------------------------------
    1241 00000110 9901              LDR       A2, [SP, #4]          ; [DPU_V7M3_PIPE] |506|  ; [ORIG 16-BIT INS]
    1242 00000112 9802              LDR       A1, [SP, #8]          ; [DPU_V7M3_PIPE] |506|  ; [ORIG 16-BIT INS]
    1243                    $C$DW$74        .dwtag  DW_TAG_TI_branch
    1244                            .dwattr $C$DW$74, DW_AT_low_pc(0x00)
    1245                            .dwattr $C$DW$74, DW_AT_name("IntRegister")
    1246                            .dwattr $C$DW$74, DW_AT_TI_call
    1247                    
    1248 00000114 FFFEF7FF!         BL        IntRegister           ; [DPU_V7M3_PIPE] |506|  ; [KEEP 32-BIT INS]
    1249                            ; CALL OCCURS {IntRegister }     ; [] |506| 
    1250                            .dwpsn  file "../driverlib/onewire.c",line 511,column 5,is_stmt,isa 1
    1251                    ;----------------------------------------------------------------------
    1252                    ; 511 | IntEnable(ui32Int);                                                    
    1253                    ;----------------------------------------------------------------------
    1254 00000118 9802              LDR       A1, [SP, #8]          ; [DPU_V7M3_PIPE] |511|  ; [ORIG 16-BIT INS]
    1255                    $C$DW$75        .dwtag  DW_TAG_TI_branch
    1256                            .dwattr $C$DW$75, DW_AT_low_pc(0x00)
    1257                            .dwattr $C$DW$75, DW_AT_name("IntEnable")
    1258                            .dwattr $C$DW$75, DW_AT_TI_call
    1259                    
    1260 0000011a FFFEF7FF!         BL        IntEnable             ; [DPU_V7M3_PIPE] |511|  ; [KEEP 32-BIT INS]
    1261                            ; CALL OCCURS {IntEnable }       ; [] |511| 
    1262                            .dwpsn  file "../driverlib/onewire.c",line 512,column 1,is_stmt,isa 1
    1263                    $C$DW$76        .dwtag  DW_TAG_TI_branch
    1264                            .dwattr $C$DW$76, DW_AT_low_pc(0x00)
    1265                            .dwattr $C$DW$76, DW_AT_TI_return
TI ARM Assembler Unix v18.1.1 Fri Jul  3 20:08:25 2020

Tools Copyright (c) 1996-2017 Texas Instruments Incorporated
onewire.asm                                                          PAGE   24

    1266                    
    1267 0000011e BD0E              POP       {A2, A3, A4, PC}      ; [DPU_V7M3_PIPE]  ; [ORIG 16-BIT INS]
    1268                            .dwcfi  cfa_offset, 0
    1269                            .dwcfi  restore_reg, 3
    1270                            .dwcfi  restore_reg, 2
    1271                            .dwcfi  restore_reg, 1
    1272                            ; BRANCH OCCURS                  ; [] 
    1273                            .dwattr $C$DW$67, DW_AT_TI_end_file("../driverlib/onewire.c")
    1274                            .dwattr $C$DW$67, DW_AT_TI_end_line(0x200)
    1275                            .dwattr $C$DW$67, DW_AT_TI_end_column(0x01)
    1276                            .dwendentry
    1277                            .dwendtag $C$DW$67
    1278                    
    1279 00000120                   .sect   ".text"
    1280                            .clink
    1281                            .thumbfunc OneWireIntUnregister
    1282 00000120                   .thumb
    1283                            .global OneWireIntUnregister
    1284                    
    1285                    $C$DW$77        .dwtag  DW_TAG_subprogram
    1286                            .dwattr $C$DW$77, DW_AT_name("OneWireIntUnregister")
    1287                            .dwattr $C$DW$77, DW_AT_low_pc(OneWireIntUnregister)
    1288                            .dwattr $C$DW$77, DW_AT_high_pc(0x00)
    1289                            .dwattr $C$DW$77, DW_AT_TI_symbol_name("OneWireIntUnregister")
    1290                            .dwattr $C$DW$77, DW_AT_external
    1291                            .dwattr $C$DW$77, DW_AT_TI_begin_file("../driverlib/onewire.c")
    1292                            .dwattr $C$DW$77, DW_AT_TI_begin_line(0x213)
    1293                            .dwattr $C$DW$77, DW_AT_TI_begin_column(0x01)
    1294                            .dwattr $C$DW$77, DW_AT_decl_file("../driverlib/onewire.c")
    1295                            .dwattr $C$DW$77, DW_AT_decl_line(0x213)
    1296                            .dwattr $C$DW$77, DW_AT_decl_column(0x01)
    1297                            .dwattr $C$DW$77, DW_AT_TI_max_frame_size(0x10)
    1298                            .dwpsn  file "../driverlib/onewire.c",line 532,column 1,is_stmt,address OneWireIntUnregister,i
    1299                    
    1300                            .dwfde $C$DW$CIE, OneWireIntUnregister
    1301                    $C$DW$78        .dwtag  DW_TAG_formal_parameter
    1302                            .dwattr $C$DW$78, DW_AT_name("ui32Base")
    1303                            .dwattr $C$DW$78, DW_AT_TI_symbol_name("ui32Base")
    1304                            .dwattr $C$DW$78, DW_AT_type(*$C$DW$T$27)
    1305                            .dwattr $C$DW$78, DW_AT_location[DW_OP_reg0]
    1306                    
    1307                    ;----------------------------------------------------------------------
    1308                    ; 531 | OneWireIntUnregister(uint32_t ui32Base)                                
    1309                    ;----------------------------------------------------------------------
    1310                    
    1311                    ;*****************************************************************************
    1312                    ;* FUNCTION NAME: OneWireIntUnregister                                       *
    1313                    ;*                                                                           *
    1314                    ;*   Regs Modified     : A1,A2,A3,A4,V9,SP,LR,SR,D0,D0_hi,D1,D1_hi,D2,D2_hi, *
    1315                    ;*                           D3,D3_hi,D4,D4_hi,D5,D5_hi,D6,D6_hi,D7,D7_hi,   *
    1316                    ;*                           FPEXC,FPSCR                                     *
    1317                    ;*   Regs Used         : A1,A2,A3,A4,V9,SP,LR,SR,D0,D0_hi,D1,D1_hi,D2,D2_hi, *
    1318                    ;*                           D3,D3_hi,D4,D4_hi,D5,D5_hi,D6,D6_hi,D7,D7_hi,   *
    1319                    ;*                           FPEXC,FPSCR                                     *
    1320                    ;*   Local Frame Size  : 0 Args + 8 Auto + 4 Save = 12 byte                  *
TI ARM Assembler Unix v18.1.1 Fri Jul  3 20:08:25 2020

Tools Copyright (c) 1996-2017 Texas Instruments Incorporated
onewire.asm                                                          PAGE   25

    1321                    ;*****************************************************************************
    1322 00000120           OneWireIntUnregister:
    1323                    ;* --------------------------------------------------------------------------*
    1324                            .dwcfi  cfa_offset, 0
    1325 00000120 B50E              PUSH      {A2, A3, A4, LR}      ; [DPU_V7M3_PIPE]  ; [ORIG 16-BIT INS]
    1326                            .dwcfi  cfa_offset, 16
    1327                            .dwcfi  save_reg_to_mem, 14, -4
    1328                            .dwcfi  save_reg_to_mem, 3, -8
    1329                            .dwcfi  save_reg_to_mem, 2, -12
    1330                            .dwcfi  save_reg_to_mem, 1, -16
    1331                    $C$DW$79        .dwtag  DW_TAG_variable
    1332                            .dwattr $C$DW$79, DW_AT_name("ui32Base")
    1333                            .dwattr $C$DW$79, DW_AT_TI_symbol_name("ui32Base")
    1334                            .dwattr $C$DW$79, DW_AT_type(*$C$DW$T$27)
    1335                            .dwattr $C$DW$79, DW_AT_location[DW_OP_breg13 0]
    1336                    
    1337                    $C$DW$80        .dwtag  DW_TAG_variable
    1338                            .dwattr $C$DW$80, DW_AT_name("ui32Int")
    1339                            .dwattr $C$DW$80, DW_AT_TI_symbol_name("ui32Int")
    1340                            .dwattr $C$DW$80, DW_AT_type(*$C$DW$T$27)
    1341                            .dwattr $C$DW$80, DW_AT_location[DW_OP_breg13 4]
    1342                    
    1343                    ;----------------------------------------------------------------------
    1344                    ; 533 | uint32_t ui32Int;                                                      
    1345                    ; 535 | //                                                                     
    1346                    ; 536 | // Check the argument.                                                 
    1347                    ; 537 | //                                                                     
    1348                    ; 538 | ASSERT(ui32Base == ONEWIRE0_BASE);                                     
    1349                    ; 540 | //                                                                     
    1350                    ; 541 | // Get the actual interrupt number for the 1-Wire module.              
    1351                    ; 542 | //                                                                     
    1352                    ;----------------------------------------------------------------------
    1353 00000122 9000              STR       A1, [SP, #0]          ; [DPU_V7M3_PIPE] |532|  ; [ORIG 16-BIT INS]
    1354                            .dwpsn  file "../driverlib/onewire.c",line 543,column 5,is_stmt,isa 1
    1355                    ;----------------------------------------------------------------------
    1356                    ; 543 | ui32Int = _OneWireIntNumberGet(ui32Base);                              
    1357                    ; 544 | ASSERT(ui32Int != 0);                                                  
    1358                    ; 546 | //                                                                     
    1359                    ; 547 | // Disable the 1-Wire peripheral interrupt.                            
    1360                    ; 548 | //                                                                     
    1361                    ;----------------------------------------------------------------------
    1362 00000124 9800              LDR       A1, [SP, #0]          ; [DPU_V7M3_PIPE] |543|  ; [ORIG 16-BIT INS]
    1363                    $C$DW$81        .dwtag  DW_TAG_TI_branch
    1364                            .dwattr $C$DW$81, DW_AT_low_pc(0x00)
    1365                            .dwattr $C$DW$81, DW_AT_name("_OneWireIntNumberGet")
    1366                            .dwattr $C$DW$81, DW_AT_TI_call
    1367                    
    1368 00000126 FFFEF7FF!         BL        _OneWireIntNumberGet  ; [DPU_V7M3_PIPE] |543|  ; [KEEP 32-BIT INS]
    1369                            ; CALL OCCURS {_OneWireIntNumberGet }  ; [] |543| 
    1370 0000012a 9001              STR       A1, [SP, #4]          ; [DPU_V7M3_PIPE] |543|  ; [ORIG 16-BIT INS]
    1371                            .dwpsn  file "../driverlib/onewire.c",line 549,column 5,is_stmt,isa 1
    1372                    ;----------------------------------------------------------------------
    1373                    ; 549 | IntDisable(ui32Int);                                                   
    1374                    ; 551 | //                                                                     
    1375                    ; 552 | // Unregister the interrupt handler.                                   
TI ARM Assembler Unix v18.1.1 Fri Jul  3 20:08:25 2020

Tools Copyright (c) 1996-2017 Texas Instruments Incorporated
onewire.asm                                                          PAGE   26

    1376                    ; 553 | //                                                                     
    1377                    ;----------------------------------------------------------------------
    1378 0000012c 9801              LDR       A1, [SP, #4]          ; [DPU_V7M3_PIPE] |549|  ; [ORIG 16-BIT INS]
    1379                    $C$DW$82        .dwtag  DW_TAG_TI_branch
    1380                            .dwattr $C$DW$82, DW_AT_low_pc(0x00)
    1381                            .dwattr $C$DW$82, DW_AT_name("IntDisable")
    1382                            .dwattr $C$DW$82, DW_AT_TI_call
    1383                    
    1384 0000012e FFFEF7FF!         BL        IntDisable            ; [DPU_V7M3_PIPE] |549|  ; [KEEP 32-BIT INS]
    1385                            ; CALL OCCURS {IntDisable }      ; [] |549| 
    1386                            .dwpsn  file "../driverlib/onewire.c",line 554,column 5,is_stmt,isa 1
    1387                    ;----------------------------------------------------------------------
    1388                    ; 554 | IntUnregister(ui32Int);                                                
    1389                    ;----------------------------------------------------------------------
    1390 00000132 9801              LDR       A1, [SP, #4]          ; [DPU_V7M3_PIPE] |554|  ; [ORIG 16-BIT INS]
    1391                    $C$DW$83        .dwtag  DW_TAG_TI_branch
    1392                            .dwattr $C$DW$83, DW_AT_low_pc(0x00)
    1393                            .dwattr $C$DW$83, DW_AT_name("IntUnregister")
    1394                            .dwattr $C$DW$83, DW_AT_TI_call
    1395                    
    1396 00000134 FFFEF7FF!         BL        IntUnregister         ; [DPU_V7M3_PIPE] |554|  ; [KEEP 32-BIT INS]
    1397                            ; CALL OCCURS {IntUnregister }   ; [] |554| 
    1398                            .dwpsn  file "../driverlib/onewire.c",line 555,column 1,is_stmt,isa 1
    1399                    $C$DW$84        .dwtag  DW_TAG_TI_branch
    1400                            .dwattr $C$DW$84, DW_AT_low_pc(0x00)
    1401                            .dwattr $C$DW$84, DW_AT_TI_return
    1402                    
    1403 00000138 BD0E              POP       {A2, A3, A4, PC}      ; [DPU_V7M3_PIPE]  ; [ORIG 16-BIT INS]
    1404                            .dwcfi  cfa_offset, 0
    1405                            .dwcfi  restore_reg, 3
    1406                            .dwcfi  restore_reg, 2
    1407                            .dwcfi  restore_reg, 1
    1408                            ; BRANCH OCCURS                  ; [] 
    1409                            .dwattr $C$DW$77, DW_AT_TI_end_file("../driverlib/onewire.c")
    1410                            .dwattr $C$DW$77, DW_AT_TI_end_line(0x22b)
    1411                            .dwattr $C$DW$77, DW_AT_TI_end_column(0x01)
    1412                            .dwendentry
    1413                            .dwendtag $C$DW$77
    1414                    
    1415 0000013a                   .sect   ".text"
    1416                            .clink
    1417                            .thumbfunc OneWireDMADisable
    1418 0000013a                   .thumb
    1419                            .global OneWireDMADisable
    1420                    
    1421                    $C$DW$85        .dwtag  DW_TAG_subprogram
    1422                            .dwattr $C$DW$85, DW_AT_name("OneWireDMADisable")
    1423                            .dwattr $C$DW$85, DW_AT_low_pc(OneWireDMADisable)
    1424                            .dwattr $C$DW$85, DW_AT_high_pc(0x00)
    1425                            .dwattr $C$DW$85, DW_AT_TI_symbol_name("OneWireDMADisable")
    1426                            .dwattr $C$DW$85, DW_AT_external
    1427                            .dwattr $C$DW$85, DW_AT_TI_begin_file("../driverlib/onewire.c")
    1428                            .dwattr $C$DW$85, DW_AT_TI_begin_line(0x246)
    1429                            .dwattr $C$DW$85, DW_AT_TI_begin_column(0x01)
    1430                            .dwattr $C$DW$85, DW_AT_decl_file("../driverlib/onewire.c")
TI ARM Assembler Unix v18.1.1 Fri Jul  3 20:08:25 2020

Tools Copyright (c) 1996-2017 Texas Instruments Incorporated
onewire.asm                                                          PAGE   27

    1431                            .dwattr $C$DW$85, DW_AT_decl_line(0x246)
    1432                            .dwattr $C$DW$85, DW_AT_decl_column(0x01)
    1433                            .dwattr $C$DW$85, DW_AT_TI_max_frame_size(0x08)
    1434                            .dwpsn  file "../driverlib/onewire.c",line 583,column 1,is_stmt,address OneWireDMADisable,isa 
    1435                    
    1436                            .dwfde $C$DW$CIE, OneWireDMADisable
    1437                    $C$DW$86        .dwtag  DW_TAG_formal_parameter
    1438                            .dwattr $C$DW$86, DW_AT_name("ui32Base")
    1439                            .dwattr $C$DW$86, DW_AT_TI_symbol_name("ui32Base")
    1440                            .dwattr $C$DW$86, DW_AT_type(*$C$DW$T$27)
    1441                            .dwattr $C$DW$86, DW_AT_location[DW_OP_reg0]
    1442                    
    1443                    $C$DW$87        .dwtag  DW_TAG_formal_parameter
    1444                            .dwattr $C$DW$87, DW_AT_name("ui32DMAFlags")
    1445                            .dwattr $C$DW$87, DW_AT_TI_symbol_name("ui32DMAFlags")
    1446                            .dwattr $C$DW$87, DW_AT_type(*$C$DW$T$27)
    1447                            .dwattr $C$DW$87, DW_AT_location[DW_OP_reg1]
    1448                    
    1449                    ;----------------------------------------------------------------------
    1450                    ; 582 | OneWireDMADisable(uint32_t ui32Base, uint32_t ui32DMAFlags)            
    1451                    ;----------------------------------------------------------------------
    1452                    
    1453                    ;*****************************************************************************
    1454                    ;* FUNCTION NAME: OneWireDMADisable                                          *
    1455                    ;*                                                                           *
    1456                    ;*   Regs Modified     : A1,A2,A3,SP,SR                                      *
    1457                    ;*   Regs Used         : A1,A2,A3,SP,LR,SR                                   *
    1458                    ;*   Local Frame Size  : 0 Args + 8 Auto + 0 Save = 8 byte                   *
    1459                    ;*****************************************************************************
    1460 0000013a           OneWireDMADisable:
    1461                    ;* --------------------------------------------------------------------------*
    1462                            .dwcfi  cfa_offset, 0
    1463 0000013a 0D08F1AD          SUB       SP, SP, #8            ; [DPU_V7M3_PIPE]  ; [KEEP 32-BIT INS]
    1464                            .dwcfi  cfa_offset, 8
    1465                    $C$DW$88        .dwtag  DW_TAG_variable
    1466                            .dwattr $C$DW$88, DW_AT_name("ui32Base")
    1467                            .dwattr $C$DW$88, DW_AT_TI_symbol_name("ui32Base")
    1468                            .dwattr $C$DW$88, DW_AT_type(*$C$DW$T$27)
    1469                            .dwattr $C$DW$88, DW_AT_location[DW_OP_breg13 0]
    1470                    
    1471                    $C$DW$89        .dwtag  DW_TAG_variable
    1472                            .dwattr $C$DW$89, DW_AT_name("ui32DMAFlags")
    1473                            .dwattr $C$DW$89, DW_AT_TI_symbol_name("ui32DMAFlags")
    1474                            .dwattr $C$DW$89, DW_AT_type(*$C$DW$T$27)
    1475                            .dwattr $C$DW$89, DW_AT_location[DW_OP_breg13 4]
    1476                    
    1477                    ;----------------------------------------------------------------------
    1478                    ; 584 | //                                                                     
    1479                    ; 585 | // Check the arguments.                                                
    1480                    ; 586 | //                                                                     
    1481                    ; 587 | ASSERT(ui32Base == ONEWIRE0_BASE);                                     
    1482                    ; 588 | ASSERT(ui32DMAFlags > 0);                                              
    1483                    ; 590 | //                                                                     
    1484                    ; 591 | // Clear the transaction size bits                                     
    1485                    ; 592 | //                                                                     
TI ARM Assembler Unix v18.1.1 Fri Jul  3 20:08:25 2020

Tools Copyright (c) 1996-2017 Texas Instruments Incorporated
onewire.asm                                                          PAGE   28

    1486                    ;----------------------------------------------------------------------
    1487 0000013e 9101              STR       A2, [SP, #4]          ; [DPU_V7M3_PIPE] |583|  ; [ORIG 16-BIT INS]
    1488 00000140 9000              STR       A1, [SP, #0]          ; [DPU_V7M3_PIPE] |583|  ; [ORIG 16-BIT INS]
    1489                            .dwpsn  file "../driverlib/onewire.c",line 593,column 5,is_stmt,isa 1
    1490                    ;----------------------------------------------------------------------
    1491                    ; 593 | HWREG(ui32Base + ONEWIRE_O_CS) = (HWREG(ui32Base + ONEWIRE_O_CS) &     
    1492                    ; 594 |                                   ~(ONEWIRE_TXN_MASK));                
    1493                    ; 596 | //                                                                     
    1494                    ; 597 | // Disable the DMA features as requested.                              
    1495                    ; 598 | //                                                                     
    1496                    ;----------------------------------------------------------------------
    1497 00000142 9900              LDR       A2, [SP, #0]          ; [DPU_V7M3_PIPE] |593|  ; [ORIG 16-BIT INS]
    1498 00000144 4839              LDR       A1, $C$CON4           ; [DPU_V7M3_PIPE] |593|  ; [ORIG 16-BIT INS]
    1499 00000146 680A              LDR       A3, [A2, #0]          ; [DPU_V7M3_PIPE] |593|  ; [ORIG 16-BIT INS]
    1500 00000148 9900              LDR       A2, [SP, #0]          ; [DPU_V7M3_PIPE] |593|  ; [ORIG 16-BIT INS]
    1501 0000014a 4010              ANDS      A1, A1, A3            ; [DPU_V7M3_PIPE] |593|  ; [ORIG 16-BIT INS]
    1502 0000014c 6008              STR       A1, [A2, #0]          ; [DPU_V7M3_PIPE] |593|  ; [ORIG 16-BIT INS]
    1503                            .dwpsn  file "../driverlib/onewire.c",line 599,column 5,is_stmt,isa 1
    1504                    ;----------------------------------------------------------------------
    1505                    ; 599 | HWREG(ui32Base + ONEWIRE_O_DMA) &= ~(ui32DMAFlags & 0xff);             
    1506                    ;----------------------------------------------------------------------
    1507 0000014e 9800              LDR       A1, [SP, #0]          ; [DPU_V7M3_PIPE] |599|  ; [ORIG 16-BIT INS]
    1508 00000150 9901              LDR       A2, [SP, #4]          ; [DPU_V7M3_PIPE] |599|  ; [ORIG 16-BIT INS]
    1509 00000152 7090F500          ADD       A1, A1, #288          ; [DPU_V7M3_PIPE] |599|  ; [KEEP 32-BIT INS]
    1510 00000156 6802              LDR       A3, [A1, #0]          ; [DPU_V7M3_PIPE] |599|  ; [ORIG 16-BIT INS]
    1511 00000158 01FFF001          AND       A2, A2, #255          ; [DPU_V7M3_PIPE] |599|  ; [KEEP 32-BIT INS]
    1512 0000015c 438A              BICS      A3, A3, A2            ; [DPU_V7M3_PIPE] |599|  ; [ORIG 16-BIT INS]
    1513 0000015e 6002              STR       A3, [A1, #0]          ; [DPU_V7M3_PIPE] |599|  ; [ORIG 16-BIT INS]
    1514                            .dwpsn  file "../driverlib/onewire.c",line 600,column 1,is_stmt,isa 1
    1515 00000160 B002              ADD       SP, SP, #8            ; [DPU_V7M3_PIPE]  ; [ORIG 16-BIT INS]
    1516                            .dwcfi  cfa_offset, 0
    1517                    $C$DW$90        .dwtag  DW_TAG_TI_branch
    1518                            .dwattr $C$DW$90, DW_AT_low_pc(0x00)
    1519                            .dwattr $C$DW$90, DW_AT_TI_return
    1520                    
    1521 00000162 4770              BX        LR                    ; [DPU_V7M3_PIPE]  ; [ORIG 16-BIT INS]
    1522                            ; BRANCH OCCURS                  ; [] 
    1523                            .dwattr $C$DW$85, DW_AT_TI_end_file("../driverlib/onewire.c")
    1524                            .dwattr $C$DW$85, DW_AT_TI_end_line(0x258)
    1525                            .dwattr $C$DW$85, DW_AT_TI_end_column(0x01)
    1526                            .dwendentry
    1527                            .dwendtag $C$DW$85
    1528                    
    1529 00000164                   .sect   ".text"
    1530                            .clink
    1531                            .thumbfunc OneWireDMAEnable
    1532 00000164                   .thumb
    1533                            .global OneWireDMAEnable
    1534                    
    1535                    $C$DW$91        .dwtag  DW_TAG_subprogram
    1536                            .dwattr $C$DW$91, DW_AT_name("OneWireDMAEnable")
    1537                            .dwattr $C$DW$91, DW_AT_low_pc(OneWireDMAEnable)
    1538                            .dwattr $C$DW$91, DW_AT_high_pc(0x00)
    1539                            .dwattr $C$DW$91, DW_AT_TI_symbol_name("OneWireDMAEnable")
    1540                            .dwattr $C$DW$91, DW_AT_external
TI ARM Assembler Unix v18.1.1 Fri Jul  3 20:08:25 2020

Tools Copyright (c) 1996-2017 Texas Instruments Incorporated
onewire.asm                                                          PAGE   29

    1541                            .dwattr $C$DW$91, DW_AT_TI_begin_file("../driverlib/onewire.c")
    1542                            .dwattr $C$DW$91, DW_AT_TI_begin_line(0x278)
    1543                            .dwattr $C$DW$91, DW_AT_TI_begin_column(0x01)
    1544                            .dwattr $C$DW$91, DW_AT_decl_file("../driverlib/onewire.c")
    1545                            .dwattr $C$DW$91, DW_AT_decl_line(0x278)
    1546                            .dwattr $C$DW$91, DW_AT_decl_column(0x01)
    1547                            .dwattr $C$DW$91, DW_AT_TI_max_frame_size(0x10)
    1548                            .dwpsn  file "../driverlib/onewire.c",line 633,column 1,is_stmt,address OneWireDMAEnable,isa 1
    1549                    
    1550                            .dwfde $C$DW$CIE, OneWireDMAEnable
    1551                    $C$DW$92        .dwtag  DW_TAG_formal_parameter
    1552                            .dwattr $C$DW$92, DW_AT_name("ui32Base")
    1553                            .dwattr $C$DW$92, DW_AT_TI_symbol_name("ui32Base")
    1554                            .dwattr $C$DW$92, DW_AT_type(*$C$DW$T$27)
    1555                            .dwattr $C$DW$92, DW_AT_location[DW_OP_reg0]
    1556                    
    1557                    $C$DW$93        .dwtag  DW_TAG_formal_parameter
    1558                            .dwattr $C$DW$93, DW_AT_name("ui32DMAFlags")
    1559                            .dwattr $C$DW$93, DW_AT_TI_symbol_name("ui32DMAFlags")
    1560                            .dwattr $C$DW$93, DW_AT_type(*$C$DW$T$27)
    1561                            .dwattr $C$DW$93, DW_AT_location[DW_OP_reg1]
    1562                    
    1563                    ;----------------------------------------------------------------------
    1564                    ; 632 | OneWireDMAEnable(uint32_t ui32Base, uint32_t ui32DMAFlags)             
    1565                    ;----------------------------------------------------------------------
    1566                    
    1567                    ;*****************************************************************************
    1568                    ;* FUNCTION NAME: OneWireDMAEnable                                           *
    1569                    ;*                                                                           *
    1570                    ;*   Regs Modified     : A1,A2,A3,A4,V9,SP,LR,SR,D0,D0_hi,D1,D1_hi,D2,D2_hi, *
    1571                    ;*                           D3,D3_hi,D4,D4_hi,D5,D5_hi,D6,D6_hi,D7,D7_hi,   *
    1572                    ;*                           FPEXC,FPSCR                                     *
    1573                    ;*   Regs Used         : A1,A2,A3,A4,V9,SP,LR,SR,D0,D0_hi,D1,D1_hi,D2,D2_hi, *
    1574                    ;*                           D3,D3_hi,D4,D4_hi,D5,D5_hi,D6,D6_hi,D7,D7_hi,   *
    1575                    ;*                           FPEXC,FPSCR                                     *
    1576                    ;*   Local Frame Size  : 0 Args + 8 Auto + 4 Save = 12 byte                  *
    1577                    ;*****************************************************************************
    1578 00000164           OneWireDMAEnable:
    1579                    ;* --------------------------------------------------------------------------*
    1580                            .dwcfi  cfa_offset, 0
    1581 00000164 B50E              PUSH      {A2, A3, A4, LR}      ; [DPU_V7M3_PIPE]  ; [ORIG 16-BIT INS]
    1582                            .dwcfi  cfa_offset, 16
    1583                            .dwcfi  save_reg_to_mem, 14, -4
    1584                            .dwcfi  save_reg_to_mem, 3, -8
    1585                            .dwcfi  save_reg_to_mem, 2, -12
    1586                            .dwcfi  save_reg_to_mem, 1, -16
    1587                    $C$DW$94        .dwtag  DW_TAG_variable
    1588                            .dwattr $C$DW$94, DW_AT_name("ui32Base")
    1589                            .dwattr $C$DW$94, DW_AT_TI_symbol_name("ui32Base")
    1590                            .dwattr $C$DW$94, DW_AT_type(*$C$DW$T$27)
    1591                            .dwattr $C$DW$94, DW_AT_location[DW_OP_breg13 0]
    1592                    
    1593                    $C$DW$95        .dwtag  DW_TAG_variable
    1594                            .dwattr $C$DW$95, DW_AT_name("ui32DMAFlags")
    1595                            .dwattr $C$DW$95, DW_AT_TI_symbol_name("ui32DMAFlags")
TI ARM Assembler Unix v18.1.1 Fri Jul  3 20:08:25 2020

Tools Copyright (c) 1996-2017 Texas Instruments Incorporated
onewire.asm                                                          PAGE   30

    1596                            .dwattr $C$DW$95, DW_AT_type(*$C$DW$T$27)
    1597                            .dwattr $C$DW$95, DW_AT_location[DW_OP_breg13 4]
    1598                    
    1599                    ;----------------------------------------------------------------------
    1600                    ; 634 | //                                                                     
    1601                    ; 635 | // Check the arguments.                                                
    1602                    ; 636 | //                                                                     
    1603                    ; 637 | ASSERT(ui32Base == ONEWIRE0_BASE);                                     
    1604                    ; 638 | ASSERT(ui32DMAFlags > 0);                                              
    1605                    ; 640 | //                                                                     
    1606                    ; 641 | // set up the transaction size.                                        
    1607                    ; 642 | //                                                                     
    1608                    ;----------------------------------------------------------------------
    1609 00000166 9101              STR       A2, [SP, #4]          ; [DPU_V7M3_PIPE] |633|  ; [ORIG 16-BIT INS]
    1610 00000168 9000              STR       A1, [SP, #0]          ; [DPU_V7M3_PIPE] |633|  ; [ORIG 16-BIT INS]
    1611                            .dwpsn  file "../driverlib/onewire.c",line 643,column 5,is_stmt,isa 1
    1612                    ;----------------------------------------------------------------------
    1613                    ; 643 | HWREG(ui32Base + ONEWIRE_O_CS) = ((HWREG(ui32Base + ONEWIRE_O_CS) &    
    1614                    ; 644 |                                    ~(ONEWIRE_TXN_MASK)) |              
    1615                    ; 645 |                                   (ui32DMAFlags >> 8));                
    1616                    ; 647 | //                                                                     
    1617                    ; 648 | // Enable DMA with the parameters provided.                            
    1618                    ; 649 | //                                                                     
    1619                    ;----------------------------------------------------------------------
    1620 0000016a 4830              LDR       A1, $C$CON4           ; [DPU_V7M3_PIPE] |643|  ; [ORIG 16-BIT INS]
    1621 0000016c 9900              LDR       A2, [SP, #0]          ; [DPU_V7M3_PIPE] |643|  ; [ORIG 16-BIT INS]
    1622 0000016e 9B01              LDR       A4, [SP, #4]          ; [DPU_V7M3_PIPE] |643|  ; [ORIG 16-BIT INS]
    1623 00000170 680A              LDR       A3, [A2, #0]          ; [DPU_V7M3_PIPE] |643|  ; [ORIG 16-BIT INS]
    1624 00000172 9900              LDR       A2, [SP, #0]          ; [DPU_V7M3_PIPE] |643|  ; [ORIG 16-BIT INS]
    1625 00000174 4010              ANDS      A1, A1, A3            ; [DPU_V7M3_PIPE] |643|  ; [ORIG 16-BIT INS]
    1626 00000176 2013EA40          ORR       A1, A1, A4, LSR #8    ; [DPU_V7M3_PIPE] |643|  ; [KEEP 32-BIT INS]
    1627 0000017a 6008              STR       A1, [A2, #0]          ; [DPU_V7M3_PIPE] |643|  ; [ORIG 16-BIT INS]
    1628                            .dwpsn  file "../driverlib/onewire.c",line 650,column 5,is_stmt,isa 1
    1629                    ;----------------------------------------------------------------------
    1630                    ; 650 | HWREG(ui32Base + ONEWIRE_O_DMA) = (ui32DMAFlags & 0xf);                
    1631                    ; 652 | //                                                                     
    1632                    ; 653 | // If a read transaction was requested, seed the write data register.
    1633                    ;     | This                                                                   
    1634                    ; 654 | // will trigger the DMA reads to start.  This should not be done for   
    1635                    ; 655 | // scatter-gather operations.                                          
    1636                    ; 656 | //                                                                     
    1637                    ;----------------------------------------------------------------------
    1638 0000017c 9801              LDR       A1, [SP, #4]          ; [DPU_V7M3_PIPE] |650|  ; [ORIG 16-BIT INS]
    1639 0000017e 9900              LDR       A2, [SP, #0]          ; [DPU_V7M3_PIPE] |650|  ; [ORIG 16-BIT INS]
    1640 00000180 000FF000          AND       A1, A1, #15           ; [DPU_V7M3_PIPE] |650|  ; [KEEP 32-BIT INS]
    1641 00000184 0120F8C1          STR       A1, [A2, #288]        ; [DPU_V7M3_PIPE] |650|  ; [KEEP 32-BIT INS]
    1642                            .dwpsn  file "../driverlib/onewire.c",line 657,column 5,is_stmt,isa 1
    1643                    ;----------------------------------------------------------------------
    1644                    ; 657 | if((ui32DMAFlags & (ONEWIRE_DMA_DMAOP_RDSNG | ONEWIRE_DMA_DMAOP_RDMUL))
    1645                    ;     |  &&                                                                    
    1646                    ; 658 |    !(ui32DMAFlags & ONEWIRE_DMA_SG))                                   
    1647                    ; 660 |     //                                                                 
    1648                    ; 661 |     // Workaround for Snowflake DMA receive trigger errata.            
    1649                    ; 662 |     //                                                                 
    1650                    ;----------------------------------------------------------------------
TI ARM Assembler Unix v18.1.1 Fri Jul  3 20:08:25 2020

Tools Copyright (c) 1996-2017 Texas Instruments Incorporated
onewire.asm                                                          PAGE   31

    1651 00000188 9801              LDR       A1, [SP, #4]          ; [DPU_V7M3_PIPE] |657|  ; [ORIG 16-BIT INS]
    1652 0000018a 0F06F010          TST       A1, #6                ; [DPU_V7M3_PIPE] |657|  ; [KEEP 32-BIT INS]
    1653 0000018e D010              BEQ       ||$C$L8||             ; [DPU_V7M3_PIPE] |657|  ; [ORIG 16-BIT INS]
    1654                            ; BRANCHCC OCCURS {||$C$L8||}    ; [] |657| 
    1655                    ;* --------------------------------------------------------------------------*
    1656 00000190 9801              LDR       A1, [SP, #4]          ; [DPU_V7M3_PIPE] |657|  ; [ORIG 16-BIT INS]
    1657 00000192 0900              LSRS      A1, A1, #4            ; [DPU_V7M3_PIPE] |657|  ; [ORIG 16-BIT INS]
    1658 00000194 D20D              BCS       ||$C$L8||             ; [DPU_V7M3_PIPE] |657|  ; [ORIG 16-BIT INS]
    1659                            ; BRANCHCC OCCURS {||$C$L8||}    ; [] |657| 
    1660                    ;* --------------------------------------------------------------------------*
    1661                            .dwpsn  file "../driverlib/onewire.c",line 663,column 9,is_stmt,isa 1
    1662                    ;----------------------------------------------------------------------
    1663                    ; 663 | if(CLASS_IS_TM4C129)                                                   
    1664                    ;----------------------------------------------------------------------
    1665 00000196 4923              LDR       A2, $C$CON2           ; [DPU_V7M3_PIPE] |663|  ; [ORIG 16-BIT INS]
    1666 00000198 4821              LDR       A1, $C$CON1           ; [DPU_V7M3_PIPE] |663|  ; [ORIG 16-BIT INS]
    1667 0000019a 680A              LDR       A3, [A2, #0]          ; [DPU_V7M3_PIPE] |663|  ; [ORIG 16-BIT INS]
    1668 0000019c 4922              LDR       A2, $C$CON3           ; [DPU_V7M3_PIPE] |663|  ; [ORIG 16-BIT INS]
    1669 0000019e 4010              ANDS      A1, A1, A3            ; [DPU_V7M3_PIPE] |663|  ; [ORIG 16-BIT INS]
    1670 000001a0 4281              CMP       A2, A1                ; [DPU_V7M3_PIPE] |663|  ; [ORIG 16-BIT INS]
    1671 000001a2 D102              BNE       ||$C$L7||             ; [DPU_V7M3_PIPE] |663|  ; [ORIG 16-BIT INS]
    1672                            ; BRANCHCC OCCURS {||$C$L7||}    ; [] |663| 
    1673                    ;* --------------------------------------------------------------------------*
    1674                            .dwpsn  file "../driverlib/onewire.c",line 665,column 13,is_stmt,isa 1
    1675                    ;----------------------------------------------------------------------
    1676                    ; 665 | SysCtlDelay(9);                                                        
    1677                    ; 668 | //                                                                     
    1678                    ; 669 | // Write DATW to trigger DMA receive start.                            
    1679                    ; 670 | //                                                                     
    1680                    ;----------------------------------------------------------------------
    1681 000001a4 2009              MOVS      A1, #9                ; [DPU_V7M3_PIPE] |665|  ; [ORIG 16-BIT INS]
    1682                    $C$DW$96        .dwtag  DW_TAG_TI_branch
    1683                            .dwattr $C$DW$96, DW_AT_low_pc(0x00)
    1684                            .dwattr $C$DW$96, DW_AT_name("SysCtlDelay")
    1685                            .dwattr $C$DW$96, DW_AT_TI_call
    1686                    
    1687 000001a6 FFFEF7FF!         BL        SysCtlDelay           ; [DPU_V7M3_PIPE] |665|  ; [KEEP 32-BIT INS]
    1688                            ; CALL OCCURS {SysCtlDelay }     ; [] |665| 
    1689                    ;* --------------------------------------------------------------------------*
    1690 000001aa           ||$C$L7||:    
    1691                            .dwpsn  file "../driverlib/onewire.c",line 671,column 9,is_stmt,isa 1
    1692                    ;----------------------------------------------------------------------
    1693                    ; 671 | HWREG(ui32Base + ONEWIRE_O_DATW) = 0xffffffff;                         
    1694                    ;----------------------------------------------------------------------
    1695 000001aa 9800              LDR       A1, [SP, #0]          ; [DPU_V7M3_PIPE] |671|  ; [ORIG 16-BIT INS]
    1696 000001ac 31FFF04F          MOV       A2, #-1               ; [DPU_V7M3_PIPE] |671|  ; [KEEP 32-BIT INS]
    1697 000001b0 6081              STR       A2, [A1, #8]          ; [DPU_V7M3_PIPE] |671|  ; [ORIG 16-BIT INS]
    1698                            .dwpsn  file "../driverlib/onewire.c",line 673,column 1,is_stmt,isa 1
    1699                    ;* --------------------------------------------------------------------------*
    1700                    ||$C$L8||:    
    1701                    $C$DW$97        .dwtag  DW_TAG_TI_branch
    1702                            .dwattr $C$DW$97, DW_AT_low_pc(0x00)
    1703                            .dwattr $C$DW$97, DW_AT_TI_return
    1704                    
    1705 000001b2 BD0E              POP       {A2, A3, A4, PC}      ; [DPU_V7M3_PIPE]  ; [ORIG 16-BIT INS]
TI ARM Assembler Unix v18.1.1 Fri Jul  3 20:08:25 2020

Tools Copyright (c) 1996-2017 Texas Instruments Incorporated
onewire.asm                                                          PAGE   32

    1706                            .dwcfi  cfa_offset, 0
    1707                            .dwcfi  restore_reg, 3
    1708                            .dwcfi  restore_reg, 2
    1709                            .dwcfi  restore_reg, 1
    1710                            ; BRANCH OCCURS                  ; [] 
    1711                            .dwattr $C$DW$91, DW_AT_TI_end_file("../driverlib/onewire.c")
    1712                            .dwattr $C$DW$91, DW_AT_TI_end_line(0x2a1)
    1713                            .dwattr $C$DW$91, DW_AT_TI_end_column(0x01)
    1714                            .dwendentry
    1715                            .dwendtag $C$DW$91
    1716                    
    1717 000001b4                   .sect   ".text"
    1718                            .clink
    1719                            .thumbfunc OneWireTransaction
    1720 000001b4                   .thumb
    1721                            .global OneWireTransaction
    1722                    
    1723                    $C$DW$98        .dwtag  DW_TAG_subprogram
    1724                            .dwattr $C$DW$98, DW_AT_name("OneWireTransaction")
    1725                            .dwattr $C$DW$98, DW_AT_low_pc(OneWireTransaction)
    1726                            .dwattr $C$DW$98, DW_AT_high_pc(0x00)
    1727                            .dwattr $C$DW$98, DW_AT_TI_symbol_name("OneWireTransaction")
    1728                            .dwattr $C$DW$98, DW_AT_external
    1729                            .dwattr $C$DW$98, DW_AT_TI_begin_file("../driverlib/onewire.c")
    1730                            .dwattr $C$DW$98, DW_AT_TI_begin_line(0x2c0)
    1731                            .dwattr $C$DW$98, DW_AT_TI_begin_column(0x01)
    1732                            .dwattr $C$DW$98, DW_AT_decl_file("../driverlib/onewire.c")
    1733                            .dwattr $C$DW$98, DW_AT_decl_line(0x2c0)
    1734                            .dwattr $C$DW$98, DW_AT_decl_column(0x01)
    1735                            .dwattr $C$DW$98, DW_AT_TI_max_frame_size(0x18)
    1736                            .dwpsn  file "../driverlib/onewire.c",line 706,column 1,is_stmt,address OneWireTransaction,isa
    1737                    
    1738                            .dwfde $C$DW$CIE, OneWireTransaction
    1739                    $C$DW$99        .dwtag  DW_TAG_formal_parameter
    1740                            .dwattr $C$DW$99, DW_AT_name("ui32Base")
    1741                            .dwattr $C$DW$99, DW_AT_TI_symbol_name("ui32Base")
    1742                            .dwattr $C$DW$99, DW_AT_type(*$C$DW$T$27)
    1743                            .dwattr $C$DW$99, DW_AT_location[DW_OP_reg0]
    1744                    
    1745                    $C$DW$100       .dwtag  DW_TAG_formal_parameter
    1746                            .dwattr $C$DW$100, DW_AT_name("ui32OpMode")
    1747                            .dwattr $C$DW$100, DW_AT_TI_symbol_name("ui32OpMode")
    1748                            .dwattr $C$DW$100, DW_AT_type(*$C$DW$T$27)
    1749                            .dwattr $C$DW$100, DW_AT_location[DW_OP_reg1]
    1750                    
    1751                    $C$DW$101       .dwtag  DW_TAG_formal_parameter
    1752                            .dwattr $C$DW$101, DW_AT_name("ui32Data")
    1753                            .dwattr $C$DW$101, DW_AT_TI_symbol_name("ui32Data")
    1754                            .dwattr $C$DW$101, DW_AT_type(*$C$DW$T$27)
    1755                            .dwattr $C$DW$101, DW_AT_location[DW_OP_reg2]
    1756                    
    1757                    $C$DW$102       .dwtag  DW_TAG_formal_parameter
    1758                            .dwattr $C$DW$102, DW_AT_name("ui32BitCnt")
    1759                            .dwattr $C$DW$102, DW_AT_TI_symbol_name("ui32BitCnt")
    1760                            .dwattr $C$DW$102, DW_AT_type(*$C$DW$T$27)
TI ARM Assembler Unix v18.1.1 Fri Jul  3 20:08:25 2020

Tools Copyright (c) 1996-2017 Texas Instruments Incorporated
onewire.asm                                                          PAGE   33

    1761                            .dwattr $C$DW$102, DW_AT_location[DW_OP_reg3]
    1762                    
    1763                    ;----------------------------------------------------------------------
    1764                    ; 704 | OneWireTransaction(uint32_t ui32Base, uint32_t ui32OpMode, uint32_t ui3
    1765                    ;     | 2Data,                                                                 
    1766                    ; 705 | uint32_t ui32BitCnt)                                                   
    1767                    ;----------------------------------------------------------------------
    1768                    
    1769                    ;*****************************************************************************
    1770                    ;* FUNCTION NAME: OneWireTransaction                                         *
    1771                    ;*                                                                           *
    1772                    ;*   Regs Modified     : A1,A2,SP,SR                                         *
    1773                    ;*   Regs Used         : A1,A2,A3,A4,SP,LR,SR                                *
    1774                    ;*   Local Frame Size  : 0 Args + 20 Auto + 0 Save = 20 byte                 *
    1775                    ;*****************************************************************************
    1776 000001b4           OneWireTransaction:
    1777                    ;* --------------------------------------------------------------------------*
    1778                            .dwcfi  cfa_offset, 0
    1779 000001b4 0D18F1AD          SUB       SP, SP, #24           ; [DPU_V7M3_PIPE]  ; [KEEP 32-BIT INS]
    1780                            .dwcfi  cfa_offset, 24
    1781                    $C$DW$103       .dwtag  DW_TAG_variable
    1782                            .dwattr $C$DW$103, DW_AT_name("ui32Base")
    1783                            .dwattr $C$DW$103, DW_AT_TI_symbol_name("ui32Base")
    1784                            .dwattr $C$DW$103, DW_AT_type(*$C$DW$T$27)
    1785                            .dwattr $C$DW$103, DW_AT_location[DW_OP_breg13 0]
    1786                    
    1787                    $C$DW$104       .dwtag  DW_TAG_variable
    1788                            .dwattr $C$DW$104, DW_AT_name("ui32OpMode")
    1789                            .dwattr $C$DW$104, DW_AT_TI_symbol_name("ui32OpMode")
    1790                            .dwattr $C$DW$104, DW_AT_type(*$C$DW$T$27)
    1791                            .dwattr $C$DW$104, DW_AT_location[DW_OP_breg13 4]
    1792                    
    1793                    $C$DW$105       .dwtag  DW_TAG_variable
    1794                            .dwattr $C$DW$105, DW_AT_name("ui32Data")
    1795                            .dwattr $C$DW$105, DW_AT_TI_symbol_name("ui32Data")
    1796                            .dwattr $C$DW$105, DW_AT_type(*$C$DW$T$27)
    1797                            .dwattr $C$DW$105, DW_AT_location[DW_OP_breg13 8]
    1798                    
    1799                    $C$DW$106       .dwtag  DW_TAG_variable
    1800                            .dwattr $C$DW$106, DW_AT_name("ui32BitCnt")
    1801                            .dwattr $C$DW$106, DW_AT_TI_symbol_name("ui32BitCnt")
    1802                            .dwattr $C$DW$106, DW_AT_type(*$C$DW$T$27)
    1803                            .dwattr $C$DW$106, DW_AT_location[DW_OP_breg13 12]
    1804                    
    1805                    $C$DW$107       .dwtag  DW_TAG_variable
    1806                            .dwattr $C$DW$107, DW_AT_name("ui32Transaction")
    1807                            .dwattr $C$DW$107, DW_AT_TI_symbol_name("ui32Transaction")
    1808                            .dwattr $C$DW$107, DW_AT_type(*$C$DW$T$27)
    1809                            .dwattr $C$DW$107, DW_AT_location[DW_OP_breg13 16]
    1810                    
    1811                    ;----------------------------------------------------------------------
    1812                    ; 707 | uint32_t ui32Transaction;                                              
    1813                    ; 709 | //                                                                     
    1814                    ; 710 | // Check the arguments.                                                
    1815                    ; 711 | //                                                                     
TI ARM Assembler Unix v18.1.1 Fri Jul  3 20:08:25 2020

Tools Copyright (c) 1996-2017 Texas Instruments Incorporated
onewire.asm                                                          PAGE   34

    1816                    ; 712 | ASSERT(ui32Base == ONEWIRE0_BASE);                                     
    1817                    ; 713 | ASSERT((ui32OpMode & (ONEWIRE_OP_RESET | ONEWIRE_OP_WRITE |            
    1818                    ; 714 |                       ONEWIRE_OP_READ)) > 0);                          
    1819                    ; 715 | ASSERT((ui32BitCnt >= 1) && (ui32BitCnt <= 32));                       
    1820                    ; 717 | //                                                                     
    1821                    ; 718 | // Read the control register and clear any transaction related         
    1822                    ; 719 | // bit fields.                                                         
    1823                    ; 720 | //                                                                     
    1824                    ;----------------------------------------------------------------------
    1825 000001b8 9303              STR       A4, [SP, #12]         ; [DPU_V7M3_PIPE] |706|  ; [ORIG 16-BIT INS]
    1826 000001ba 9202              STR       A3, [SP, #8]          ; [DPU_V7M3_PIPE] |706|  ; [ORIG 16-BIT INS]
    1827 000001bc 9101              STR       A2, [SP, #4]          ; [DPU_V7M3_PIPE] |706|  ; [ORIG 16-BIT INS]
    1828 000001be 9000              STR       A1, [SP, #0]          ; [DPU_V7M3_PIPE] |706|  ; [ORIG 16-BIT INS]
    1829                            .dwpsn  file "../driverlib/onewire.c",line 721,column 5,is_stmt,isa 1
    1830                    ;----------------------------------------------------------------------
    1831                    ; 721 | ui32Transaction = HWREG(ui32Base + ONEWIRE_O_CS) & ~(ONEWIRE_TXN_MASK);
    1832                    ; 723 | //                                                                     
    1833                    ; 724 | // Add the user specified operation flags.                             
    1834                    ; 725 | //                                                                     
    1835                    ;----------------------------------------------------------------------
    1836 000001c0 9900              LDR       A2, [SP, #0]          ; [DPU_V7M3_PIPE] |721|  ; [ORIG 16-BIT INS]
    1837 000001c2 481A              LDR       A1, $C$CON4           ; [DPU_V7M3_PIPE] |721|  ; [ORIG 16-BIT INS]
    1838 000001c4 6809              LDR       A2, [A2, #0]          ; [DPU_V7M3_PIPE] |721|  ; [ORIG 16-BIT INS]
    1839 000001c6 4008              ANDS      A1, A1, A2            ; [DPU_V7M3_PIPE] |721|  ; [ORIG 16-BIT INS]
    1840 000001c8 9004              STR       A1, [SP, #16]         ; [DPU_V7M3_PIPE] |721|  ; [ORIG 16-BIT INS]
    1841                            .dwpsn  file "../driverlib/onewire.c",line 726,column 5,is_stmt,isa 1
    1842                    ;----------------------------------------------------------------------
    1843                    ; 726 | ui32Transaction |= (ui32OpMode & (ONEWIRE_OP_RESET | ONEWIRE_OP_WRITE |
    1844                    ; 727 |                                   ONEWIRE_OP_READ));                   
    1845                    ; 729 | //                                                                     
    1846                    ; 730 | // set up for a read or write transaction.                             
    1847                    ; 731 | //                                                                     
    1848                    ;----------------------------------------------------------------------
    1849 000001ca 9801              LDR       A1, [SP, #4]          ; [DPU_V7M3_PIPE] |726|  ; [ORIG 16-BIT INS]
    1850 000001cc 9904              LDR       A2, [SP, #16]         ; [DPU_V7M3_PIPE] |726|  ; [ORIG 16-BIT INS]
    1851 000001ce 0007F000          AND       A1, A1, #7            ; [DPU_V7M3_PIPE] |726|  ; [KEEP 32-BIT INS]
    1852 000001d2 4308              ORRS      A1, A1, A2            ; [DPU_V7M3_PIPE] |726|  ; [ORIG 16-BIT INS]
    1853 000001d4 9004              STR       A1, [SP, #16]         ; [DPU_V7M3_PIPE] |726|  ; [ORIG 16-BIT INS]
    1854                            .dwpsn  file "../driverlib/onewire.c",line 732,column 5,is_stmt,isa 1
    1855                    ;----------------------------------------------------------------------
    1856                    ; 732 | if(ui32Transaction & (ONEWIRE_CS_OP_WR | ONEWIRE_CS_OP_RD))            
    1857                    ; 734 |     //                                                                 
    1858                    ; 735 |     // Configure the 1-Wire module for the transaction size.  This is  
    1859                    ; 736 |     // specified as 1-4 bytes and the specific bit size for the last   
    1860                    ; 737 |     // byte therein.                                                   
    1861                    ; 738 |     //                                                                 
    1862                    ;----------------------------------------------------------------------
    1863 000001d6 9804              LDR       A1, [SP, #16]         ; [DPU_V7M3_PIPE] |732|  ; [ORIG 16-BIT INS]
    1864 000001d8 0F06F010          TST       A1, #6                ; [DPU_V7M3_PIPE] |732|  ; [KEEP 32-BIT INS]
    1865 000001dc D01B              BEQ       ||$C$L11||            ; [DPU_V7M3_PIPE] |732|  ; [ORIG 16-BIT INS]
    1866                            ; BRANCHCC OCCURS {||$C$L11||}   ; [] |732| 
    1867                    ;* --------------------------------------------------------------------------*
    1868                            .dwpsn  file "../driverlib/onewire.c",line 739,column 9,is_stmt,isa 1
    1869                    ;----------------------------------------------------------------------
    1870                    ; 739 | ui32Transaction |= ((((ui32BitCnt % 8) ? (ui32BitCnt / 8) + 1 :        
TI ARM Assembler Unix v18.1.1 Fri Jul  3 20:08:25 2020

Tools Copyright (c) 1996-2017 Texas Instruments Incorporated
onewire.asm                                                          PAGE   35

    1871                    ; 740 |                       (ui32BitCnt / 8)) - 1) <<                        
    1872                    ; 741 |                     ONEWIRE_TXN_SIZE_LSHIFT);                          
    1873                    ;----------------------------------------------------------------------
    1874 000001de 9803              LDR       A1, [SP, #12]         ; [DPU_V7M3_PIPE] |739|  ; [ORIG 16-BIT INS]
    1875 000001e0 0F07F010          TST       A1, #7                ; [DPU_V7M3_PIPE] |739|  ; [KEEP 32-BIT INS]
    1876 000001e4 D003              BEQ       ||$C$L9||             ; [DPU_V7M3_PIPE] |739|  ; [ORIG 16-BIT INS]
    1877                            ; BRANCHCC OCCURS {||$C$L9||}    ; [] |739| 
    1878                    ;* --------------------------------------------------------------------------*
    1879 000001e6 9803              LDR       A1, [SP, #12]         ; [DPU_V7M3_PIPE] |739|  ; [ORIG 16-BIT INS]
    1880 000001e8 08C0              LSRS      A1, A1, #3            ; [DPU_V7M3_PIPE] |739|  ; [ORIG 16-BIT INS]
    1881 000001ea 1C40              ADDS      A1, A1, #1            ; [DPU_V7M3_PIPE] |739|  ; [ORIG 16-BIT INS]
    1882 000001ec E001              B         ||$C$L10||            ; [DPU_V7M3_PIPE] |739|  ; [ORIG 16-BIT INS]
    1883                            ; BRANCH OCCURS {||$C$L10||}     ; [] |739| 
    1884                    ;* --------------------------------------------------------------------------*
    1885 000001ee           ||$C$L9||:    
    1886 000001ee 9803              LDR       A1, [SP, #12]         ; [DPU_V7M3_PIPE] |739|  ; [ORIG 16-BIT INS]
    1887 000001f0 08C0              LSRS      A1, A1, #3            ; [DPU_V7M3_PIPE] |739|  ; [ORIG 16-BIT INS]
    1888                    ;* --------------------------------------------------------------------------*
    1889 000001f2           ||$C$L10||:    
    1890 000001f2 9904              LDR       A2, [SP, #16]         ; [DPU_V7M3_PIPE] |739|  ; [ORIG 16-BIT INS]
    1891 000001f4 1E40              SUBS      A1, A1, #1            ; [DPU_V7M3_PIPE] |739|  ; [ORIG 16-BIT INS]
    1892 000001f6 01C0EA41          ORR       A2, A2, A1, LSL #3    ; [DPU_V7M3_PIPE] |739|  ; [KEEP 32-BIT INS]
    1893 000001fa 9104              STR       A2, [SP, #16]         ; [DPU_V7M3_PIPE] |739|  ; [ORIG 16-BIT INS]
    1894                            .dwpsn  file "../driverlib/onewire.c",line 742,column 9,is_stmt,isa 1
    1895                    ;----------------------------------------------------------------------
    1896                    ; 742 | ui32Transaction |= ((ui32BitCnt % 8) << ONEWIRE_TXN_BSIZE_LSHIFT);     
    1897                    ; 744 | //                                                                     
    1898                    ; 745 | // Write specific setup.                                               
    1899                    ; 746 | //                                                                     
    1900                    ;----------------------------------------------------------------------
    1901 000001fc 9803              LDR       A1, [SP, #12]         ; [DPU_V7M3_PIPE] |742|  ; [ORIG 16-BIT INS]
    1902 000001fe 9904              LDR       A2, [SP, #16]         ; [DPU_V7M3_PIPE] |742|  ; [ORIG 16-BIT INS]
    1903 00000200 0007F000          AND       A1, A1, #7            ; [DPU_V7M3_PIPE] |742|  ; [KEEP 32-BIT INS]
    1904 00000204 4100EA41          ORR       A2, A2, A1, LSL #16   ; [DPU_V7M3_PIPE] |742|  ; [KEEP 32-BIT INS]
    1905 00000208 9104              STR       A2, [SP, #16]         ; [DPU_V7M3_PIPE] |742|  ; [ORIG 16-BIT INS]
    1906                            .dwpsn  file "../driverlib/onewire.c",line 747,column 9,is_stmt,isa 1
    1907                    ;----------------------------------------------------------------------
    1908                    ; 747 | if(ui32Transaction & ONEWIRE_CS_OP_WR)                                 
    1909                    ; 749 |     //                                                                 
    1910                    ; 750 |     // Load the data into the write register.                          
    1911                    ; 751 |     //                                                                 
    1912                    ;----------------------------------------------------------------------
    1913 0000020a 9804              LDR       A1, [SP, #16]         ; [DPU_V7M3_PIPE] |747|  ; [ORIG 16-BIT INS]
    1914 0000020c 08C0              LSRS      A1, A1, #3            ; [DPU_V7M3_PIPE] |747|  ; [ORIG 16-BIT INS]
    1915 0000020e D302              BCC       ||$C$L11||            ; [DPU_V7M3_PIPE] |747|  ; [ORIG 16-BIT INS]
    1916                            ; BRANCHCC OCCURS {||$C$L11||}   ; [] |747| 
    1917                    ;* --------------------------------------------------------------------------*
    1918                            .dwpsn  file "../driverlib/onewire.c",line 752,column 13,is_stmt,isa 1
    1919                    ;----------------------------------------------------------------------
    1920                    ; 752 | HWREG(ui32Base + ONEWIRE_O_DATW) = ui32Data;                           
    1921                    ; 756 | //                                                                     
    1922                    ; 757 | // Start the transaction.                                              
    1923                    ; 758 | //                                                                     
    1924                    ;----------------------------------------------------------------------
    1925 00000210 9802              LDR       A1, [SP, #8]          ; [DPU_V7M3_PIPE] |752|  ; [ORIG 16-BIT INS]
TI ARM Assembler Unix v18.1.1 Fri Jul  3 20:08:25 2020

Tools Copyright (c) 1996-2017 Texas Instruments Incorporated
onewire.asm                                                          PAGE   36

    1926 00000212 9900              LDR       A2, [SP, #0]          ; [DPU_V7M3_PIPE] |752|  ; [ORIG 16-BIT INS]
    1927 00000214 6088              STR       A1, [A2, #8]          ; [DPU_V7M3_PIPE] |752|  ; [ORIG 16-BIT INS]
    1928                    ;* --------------------------------------------------------------------------*
    1929 00000216           ||$C$L11||:    
    1930                            .dwpsn  file "../driverlib/onewire.c",line 759,column 5,is_stmt,isa 1
    1931                    ;----------------------------------------------------------------------
    1932                    ; 759 | HWREG(ui32Base + ONEWIRE_O_CS) = ui32Transaction;                      
    1933                    ;----------------------------------------------------------------------
    1934 00000216 9804              LDR       A1, [SP, #16]         ; [DPU_V7M3_PIPE] |759|  ; [ORIG 16-BIT INS]
    1935 00000218 9900              LDR       A2, [SP, #0]          ; [DPU_V7M3_PIPE] |759|  ; [ORIG 16-BIT INS]
    1936 0000021a 6008              STR       A1, [A2, #0]          ; [DPU_V7M3_PIPE] |759|  ; [ORIG 16-BIT INS]
    1937                            .dwpsn  file "../driverlib/onewire.c",line 760,column 1,is_stmt,isa 1
    1938 0000021c B006              ADD       SP, SP, #24           ; [DPU_V7M3_PIPE]  ; [ORIG 16-BIT INS]
    1939                            .dwcfi  cfa_offset, 0
    1940                    $C$DW$108       .dwtag  DW_TAG_TI_branch
    1941                            .dwattr $C$DW$108, DW_AT_low_pc(0x00)
    1942                            .dwattr $C$DW$108, DW_AT_TI_return
    1943                    
    1944 0000021e 4770              BX        LR                    ; [DPU_V7M3_PIPE]  ; [ORIG 16-BIT INS]
    1945                            ; BRANCH OCCURS                  ; [] 
    1946                            .dwattr $C$DW$98, DW_AT_TI_end_file("../driverlib/onewire.c")
    1947                            .dwattr $C$DW$98, DW_AT_TI_end_line(0x2f8)
    1948                            .dwattr $C$DW$98, DW_AT_TI_end_column(0x01)
    1949                            .dwendentry
    1950                            .dwendtag $C$DW$98
    1951                    
    1952                    ;******************************************************************************
    1953                    ;* CONSTANT TABLE                                                             *
    1954                    ;******************************************************************************
    1955 00000220                   .sect   ".text"
    1956                            .align  4
    1957 00000220 70FF0000  ||$C$CON1||:    .bits   1895759872,32
    1958                            .align  4
    1959 00000224 400FE000  ||$C$CON2||:    .bits   1074782208,32
    1960                            .align  4
    1961 00000228 100A0000  ||$C$CON3||:    .bits   269090816,32
    1962                            .align  4
    1963 0000022c FFF8FFE1  ||$C$CON4||:    .bits   -458783,32
    1964                    ;*****************************************************************************
    1965                    ;* UNDEFINED EXTERNAL REFERENCES                                             *
    1966                    ;*****************************************************************************
    1967                            .global IntRegister
    1968                            .global IntEnable
    1969                            .global IntDisable
    1970                            .global IntUnregister
    1971                            .global SysCtlDelay
    1972                    
    1973                    ;******************************************************************************
    1974                    ;* BUILD ATTRIBUTES                                                           *
    1975                    ;******************************************************************************
    1976                            .battr "aeabi", Tag_File, 1, Tag_ABI_PCS_wchar_t(2)
    1977                            .battr "aeabi", Tag_File, 1, Tag_ABI_FP_rounding(0)
    1978                            .battr "aeabi", Tag_File, 1, Tag_ABI_FP_denormal(0)
    1979                            .battr "aeabi", Tag_File, 1, Tag_ABI_FP_exceptions(0)
    1980                            .battr "aeabi", Tag_File, 1, Tag_ABI_FP_number_model(1)
TI ARM Assembler Unix v18.1.1 Fri Jul  3 20:08:25 2020

Tools Copyright (c) 1996-2017 Texas Instruments Incorporated
onewire.asm                                                          PAGE   37

    1981                            .battr "aeabi", Tag_File, 1, Tag_ABI_enum_size(0)
    1982                            .battr "aeabi", Tag_File, 1, Tag_ABI_optimization_goals(5)
    1983                            .battr "aeabi", Tag_File, 1, Tag_ABI_FP_optimization_goals(0)
    1984                            .battr "TI", Tag_File, 1, Tag_Bitfield_layout(2)
    1985                            .battr "aeabi", Tag_File, 1, Tag_ABI_VFP_args(3)
    1986                            .battr "TI", Tag_File, 1, Tag_FP_interface(1)
    1987                    
    1988                    ;******************************************************************************
    1989                    ;* TYPE INFORMATION                                                           *
    1990                    ;******************************************************************************
    1991                    
    1992                    $C$DW$T$21      .dwtag  DW_TAG_structure_type
    1993                            .dwattr $C$DW$T$21, DW_AT_byte_size(0x10)
    1994                    $C$DW$109       .dwtag  DW_TAG_member
    1995                            .dwattr $C$DW$109, DW_AT_type(*$C$DW$T$14)
    1996                            .dwattr $C$DW$109, DW_AT_name("__max_align1")
    1997                            .dwattr $C$DW$109, DW_AT_TI_symbol_name("__max_align1")
    1998                            .dwattr $C$DW$109, DW_AT_data_member_location[DW_OP_plus_uconst 0x0]
    1999                            .dwattr $C$DW$109, DW_AT_accessibility(DW_ACCESS_public)
    2000                            .dwattr $C$DW$109, DW_AT_decl_file("/home/pola/ti/ccsv8/tools/compiler/ti-cgt-arm_18.1.1.LTS/i
    2001                            .dwattr $C$DW$109, DW_AT_decl_line(0x70)
    2002                            .dwattr $C$DW$109, DW_AT_decl_column(0x0c)
    2003                    
    2004                    $C$DW$110       .dwtag  DW_TAG_member
    2005                            .dwattr $C$DW$110, DW_AT_type(*$C$DW$T$18)
    2006                            .dwattr $C$DW$110, DW_AT_name("__max_align2")
    2007                            .dwattr $C$DW$110, DW_AT_TI_symbol_name("__max_align2")
    2008                            .dwattr $C$DW$110, DW_AT_data_member_location[DW_OP_plus_uconst 0x8]
    2009                            .dwattr $C$DW$110, DW_AT_accessibility(DW_ACCESS_public)
    2010                            .dwattr $C$DW$110, DW_AT_decl_file("/home/pola/ti/ccsv8/tools/compiler/ti-cgt-arm_18.1.1.LTS/i
    2011                            .dwattr $C$DW$110, DW_AT_decl_line(0x71)
    2012                            .dwattr $C$DW$110, DW_AT_decl_column(0x0e)
    2013                    
    2014                            .dwattr $C$DW$T$21, DW_AT_decl_file("/home/pola/ti/ccsv8/tools/compiler/ti-cgt-arm_18.1.1.LTS/
    2015                            .dwattr $C$DW$T$21, DW_AT_decl_line(0x6f)
    2016                            .dwattr $C$DW$T$21, DW_AT_decl_column(0x10)
    2017                            .dwendtag $C$DW$T$21
    2018                    
    2019                    $C$DW$T$23      .dwtag  DW_TAG_typedef
    2020                            .dwattr $C$DW$T$23, DW_AT_name("__max_align_t")
    2021                            .dwattr $C$DW$T$23, DW_AT_type(*$C$DW$T$21)
    2022                            .dwattr $C$DW$T$23, DW_AT_language(DW_LANG_C)
    2023                            .dwattr $C$DW$T$23, DW_AT_decl_file("/home/pola/ti/ccsv8/tools/compiler/ti-cgt-arm_18.1.1.LTS/
    2024                            .dwattr $C$DW$T$23, DW_AT_decl_line(0x72)
    2025                            .dwattr $C$DW$T$23, DW_AT_decl_column(0x03)
    2026                    
    2027                    $C$DW$T$2       .dwtag  DW_TAG_unspecified_type
    2028                            .dwattr $C$DW$T$2, DW_AT_name("void")
    2029                    
    2030                    $C$DW$T$3       .dwtag  DW_TAG_pointer_type
    2031                            .dwattr $C$DW$T$3, DW_AT_type(*$C$DW$T$2)
    2032                            .dwattr $C$DW$T$3, DW_AT_address_class(0x20)
    2033                    
    2034                    
    2035                    $C$DW$T$24      .dwtag  DW_TAG_subroutine_type
TI ARM Assembler Unix v18.1.1 Fri Jul  3 20:08:25 2020

Tools Copyright (c) 1996-2017 Texas Instruments Incorporated
onewire.asm                                                          PAGE   38

    2036                            .dwattr $C$DW$T$24, DW_AT_language(DW_LANG_C)
    2037                            .dwendtag $C$DW$T$24
    2038                    
    2039                    $C$DW$T$25      .dwtag  DW_TAG_pointer_type
    2040                            .dwattr $C$DW$T$25, DW_AT_type(*$C$DW$T$24)
    2041                            .dwattr $C$DW$T$25, DW_AT_address_class(0x20)
    2042                    
    2043                    $C$DW$T$4       .dwtag  DW_TAG_base_type
    2044                            .dwattr $C$DW$T$4, DW_AT_encoding(DW_ATE_boolean)
    2045                            .dwattr $C$DW$T$4, DW_AT_name("bool")
    2046                            .dwattr $C$DW$T$4, DW_AT_byte_size(0x01)
    2047                    
    2048                    $C$DW$T$5       .dwtag  DW_TAG_base_type
    2049                            .dwattr $C$DW$T$5, DW_AT_encoding(DW_ATE_signed_char)
    2050                            .dwattr $C$DW$T$5, DW_AT_name("signed char")
    2051                            .dwattr $C$DW$T$5, DW_AT_byte_size(0x01)
    2052                    
    2053                    $C$DW$T$36      .dwtag  DW_TAG_typedef
    2054                            .dwattr $C$DW$T$36, DW_AT_name("__int8_t")
    2055                            .dwattr $C$DW$T$36, DW_AT_type(*$C$DW$T$5)
    2056                            .dwattr $C$DW$T$36, DW_AT_language(DW_LANG_C)
    2057                            .dwattr $C$DW$T$36, DW_AT_decl_file("/home/pola/ti/ccsv8/tools/compiler/ti-cgt-arm_18.1.1.LTS/
    2058                            .dwattr $C$DW$T$36, DW_AT_decl_line(0x39)
    2059                            .dwattr $C$DW$T$36, DW_AT_decl_column(0x16)
    2060                    
    2061                    $C$DW$T$37      .dwtag  DW_TAG_typedef
    2062                            .dwattr $C$DW$T$37, DW_AT_name("__int_least8_t")
    2063                            .dwattr $C$DW$T$37, DW_AT_type(*$C$DW$T$36)
    2064                            .dwattr $C$DW$T$37, DW_AT_language(DW_LANG_C)
    2065                            .dwattr $C$DW$T$37, DW_AT_decl_file("/home/pola/ti/ccsv8/tools/compiler/ti-cgt-arm_18.1.1.LTS/
    2066                            .dwattr $C$DW$T$37, DW_AT_decl_line(0x58)
    2067                            .dwattr $C$DW$T$37, DW_AT_decl_column(0x12)
    2068                    
    2069                    $C$DW$T$38      .dwtag  DW_TAG_typedef
    2070                            .dwattr $C$DW$T$38, DW_AT_name("int_least8_t")
    2071                            .dwattr $C$DW$T$38, DW_AT_type(*$C$DW$T$37)
    2072                            .dwattr $C$DW$T$38, DW_AT_language(DW_LANG_C)
    2073                            .dwattr $C$DW$T$38, DW_AT_decl_file("/home/pola/ti/ccsv8/tools/compiler/ti-cgt-arm_18.1.1.LTS/
    2074                            .dwattr $C$DW$T$38, DW_AT_decl_line(0x28)
    2075                            .dwattr $C$DW$T$38, DW_AT_decl_column(0x19)
    2076                    
    2077                    $C$DW$T$39      .dwtag  DW_TAG_typedef
    2078                            .dwattr $C$DW$T$39, DW_AT_name("int8_t")
    2079                            .dwattr $C$DW$T$39, DW_AT_type(*$C$DW$T$36)
    2080                            .dwattr $C$DW$T$39, DW_AT_language(DW_LANG_C)
    2081                            .dwattr $C$DW$T$39, DW_AT_decl_file("/home/pola/ti/ccsv8/tools/compiler/ti-cgt-arm_18.1.1.LTS/
    2082                            .dwattr $C$DW$T$39, DW_AT_decl_line(0x24)
    2083                            .dwattr $C$DW$T$39, DW_AT_decl_column(0x13)
    2084                    
    2085                    $C$DW$T$6       .dwtag  DW_TAG_base_type
    2086                            .dwattr $C$DW$T$6, DW_AT_encoding(DW_ATE_unsigned_char)
    2087                            .dwattr $C$DW$T$6, DW_AT_name("unsigned char")
    2088                            .dwattr $C$DW$T$6, DW_AT_byte_size(0x01)
    2089                    
    2090                    $C$DW$T$40      .dwtag  DW_TAG_typedef
TI ARM Assembler Unix v18.1.1 Fri Jul  3 20:08:25 2020

Tools Copyright (c) 1996-2017 Texas Instruments Incorporated
onewire.asm                                                          PAGE   39

    2091                            .dwattr $C$DW$T$40, DW_AT_name("__uint8_t")
    2092                            .dwattr $C$DW$T$40, DW_AT_type(*$C$DW$T$6)
    2093                            .dwattr $C$DW$T$40, DW_AT_language(DW_LANG_C)
    2094                            .dwattr $C$DW$T$40, DW_AT_decl_file("/home/pola/ti/ccsv8/tools/compiler/ti-cgt-arm_18.1.1.LTS/
    2095                            .dwattr $C$DW$T$40, DW_AT_decl_line(0x3a)
    2096                            .dwattr $C$DW$T$40, DW_AT_decl_column(0x18)
    2097                    
    2098                    $C$DW$T$41      .dwtag  DW_TAG_typedef
    2099                            .dwattr $C$DW$T$41, DW_AT_name("__sa_family_t")
    2100                            .dwattr $C$DW$T$41, DW_AT_type(*$C$DW$T$40)
    2101                            .dwattr $C$DW$T$41, DW_AT_language(DW_LANG_C)
    2102                            .dwattr $C$DW$T$41, DW_AT_decl_file("/home/pola/ti/ccsv8/tools/compiler/ti-cgt-arm_18.1.1.LTS/
    2103                            .dwattr $C$DW$T$41, DW_AT_decl_line(0x43)
    2104                            .dwattr $C$DW$T$41, DW_AT_decl_column(0x13)
    2105                    
    2106                    $C$DW$T$42      .dwtag  DW_TAG_typedef
    2107                            .dwattr $C$DW$T$42, DW_AT_name("__uint_least8_t")
    2108                            .dwattr $C$DW$T$42, DW_AT_type(*$C$DW$T$40)
    2109                            .dwattr $C$DW$T$42, DW_AT_language(DW_LANG_C)
    2110                            .dwattr $C$DW$T$42, DW_AT_decl_file("/home/pola/ti/ccsv8/tools/compiler/ti-cgt-arm_18.1.1.LTS/
    2111                            .dwattr $C$DW$T$42, DW_AT_decl_line(0x6d)
    2112                            .dwattr $C$DW$T$42, DW_AT_decl_column(0x13)
    2113                    
    2114                    $C$DW$T$43      .dwtag  DW_TAG_typedef
    2115                            .dwattr $C$DW$T$43, DW_AT_name("uint_least8_t")
    2116                            .dwattr $C$DW$T$43, DW_AT_type(*$C$DW$T$42)
    2117                            .dwattr $C$DW$T$43, DW_AT_language(DW_LANG_C)
    2118                            .dwattr $C$DW$T$43, DW_AT_decl_file("/home/pola/ti/ccsv8/tools/compiler/ti-cgt-arm_18.1.1.LTS/
    2119                            .dwattr $C$DW$T$43, DW_AT_decl_line(0x2d)
    2120                            .dwattr $C$DW$T$43, DW_AT_decl_column(0x1a)
    2121                    
    2122                    $C$DW$T$44      .dwtag  DW_TAG_typedef
    2123                            .dwattr $C$DW$T$44, DW_AT_name("uint8_t")
    2124                            .dwattr $C$DW$T$44, DW_AT_type(*$C$DW$T$40)
    2125                            .dwattr $C$DW$T$44, DW_AT_language(DW_LANG_C)
    2126                            .dwattr $C$DW$T$44, DW_AT_decl_file("/home/pola/ti/ccsv8/tools/compiler/ti-cgt-arm_18.1.1.LTS/
    2127                            .dwattr $C$DW$T$44, DW_AT_decl_line(0x38)
    2128                            .dwattr $C$DW$T$44, DW_AT_decl_column(0x14)
    2129                    
    2130                    $C$DW$T$7       .dwtag  DW_TAG_base_type
    2131                            .dwattr $C$DW$T$7, DW_AT_encoding(DW_ATE_signed_char)
    2132                            .dwattr $C$DW$T$7, DW_AT_name("wchar_t")
    2133                            .dwattr $C$DW$T$7, DW_AT_byte_size(0x02)
    2134                    
    2135                    $C$DW$T$8       .dwtag  DW_TAG_base_type
    2136                            .dwattr $C$DW$T$8, DW_AT_encoding(DW_ATE_signed)
    2137                            .dwattr $C$DW$T$8, DW_AT_name("short")
    2138                            .dwattr $C$DW$T$8, DW_AT_byte_size(0x02)
    2139                    
    2140                    $C$DW$T$45      .dwtag  DW_TAG_typedef
    2141                            .dwattr $C$DW$T$45, DW_AT_name("__int16_t")
    2142                            .dwattr $C$DW$T$45, DW_AT_type(*$C$DW$T$8)
    2143                            .dwattr $C$DW$T$45, DW_AT_language(DW_LANG_C)
    2144                            .dwattr $C$DW$T$45, DW_AT_decl_file("/home/pola/ti/ccsv8/tools/compiler/ti-cgt-arm_18.1.1.LTS/
    2145                            .dwattr $C$DW$T$45, DW_AT_decl_line(0x3b)
TI ARM Assembler Unix v18.1.1 Fri Jul  3 20:08:25 2020

Tools Copyright (c) 1996-2017 Texas Instruments Incorporated
onewire.asm                                                          PAGE   40

    2146                            .dwattr $C$DW$T$45, DW_AT_decl_column(0x11)
    2147                    
    2148                    $C$DW$T$46      .dwtag  DW_TAG_typedef
    2149                            .dwattr $C$DW$T$46, DW_AT_name("__int_least16_t")
    2150                            .dwattr $C$DW$T$46, DW_AT_type(*$C$DW$T$45)
    2151                            .dwattr $C$DW$T$46, DW_AT_language(DW_LANG_C)
    2152                            .dwattr $C$DW$T$46, DW_AT_decl_file("/home/pola/ti/ccsv8/tools/compiler/ti-cgt-arm_18.1.1.LTS/
    2153                            .dwattr $C$DW$T$46, DW_AT_decl_line(0x59)
    2154                            .dwattr $C$DW$T$46, DW_AT_decl_column(0x13)
    2155                    
    2156                    $C$DW$T$47      .dwtag  DW_TAG_typedef
    2157                            .dwattr $C$DW$T$47, DW_AT_name("int_least16_t")
    2158                            .dwattr $C$DW$T$47, DW_AT_type(*$C$DW$T$46)
    2159                            .dwattr $C$DW$T$47, DW_AT_language(DW_LANG_C)
    2160                            .dwattr $C$DW$T$47, DW_AT_decl_file("/home/pola/ti/ccsv8/tools/compiler/ti-cgt-arm_18.1.1.LTS/
    2161                            .dwattr $C$DW$T$47, DW_AT_decl_line(0x29)
    2162                            .dwattr $C$DW$T$47, DW_AT_decl_column(0x1a)
    2163                    
    2164                    $C$DW$T$48      .dwtag  DW_TAG_typedef
    2165                            .dwattr $C$DW$T$48, DW_AT_name("int16_t")
    2166                            .dwattr $C$DW$T$48, DW_AT_type(*$C$DW$T$45)
    2167                            .dwattr $C$DW$T$48, DW_AT_language(DW_LANG_C)
    2168                            .dwattr $C$DW$T$48, DW_AT_decl_file("/home/pola/ti/ccsv8/tools/compiler/ti-cgt-arm_18.1.1.LTS/
    2169                            .dwattr $C$DW$T$48, DW_AT_decl_line(0x29)
    2170                            .dwattr $C$DW$T$48, DW_AT_decl_column(0x14)
    2171                    
    2172                    $C$DW$T$9       .dwtag  DW_TAG_base_type
    2173                            .dwattr $C$DW$T$9, DW_AT_encoding(DW_ATE_unsigned)
    2174                            .dwattr $C$DW$T$9, DW_AT_name("unsigned short")
    2175                            .dwattr $C$DW$T$9, DW_AT_byte_size(0x02)
    2176                    
    2177                    $C$DW$T$49      .dwtag  DW_TAG_typedef
    2178                            .dwattr $C$DW$T$49, DW_AT_name("___wchar_t")
    2179                            .dwattr $C$DW$T$49, DW_AT_type(*$C$DW$T$9)
    2180                            .dwattr $C$DW$T$49, DW_AT_language(DW_LANG_C)
    2181                            .dwattr $C$DW$T$49, DW_AT_decl_file("/home/pola/ti/ccsv8/tools/compiler/ti-cgt-arm_18.1.1.LTS/
    2182                            .dwattr $C$DW$T$49, DW_AT_decl_line(0x76)
    2183                            .dwattr $C$DW$T$49, DW_AT_decl_column(0x1a)
    2184                    
    2185                    $C$DW$T$50      .dwtag  DW_TAG_typedef
    2186                            .dwattr $C$DW$T$50, DW_AT_name("__uint16_t")
    2187                            .dwattr $C$DW$T$50, DW_AT_type(*$C$DW$T$9)
    2188                            .dwattr $C$DW$T$50, DW_AT_language(DW_LANG_C)
    2189                            .dwattr $C$DW$T$50, DW_AT_decl_file("/home/pola/ti/ccsv8/tools/compiler/ti-cgt-arm_18.1.1.LTS/
    2190                            .dwattr $C$DW$T$50, DW_AT_decl_line(0x3c)
    2191                            .dwattr $C$DW$T$50, DW_AT_decl_column(0x19)
    2192                    
    2193                    $C$DW$T$51      .dwtag  DW_TAG_typedef
    2194                            .dwattr $C$DW$T$51, DW_AT_name("__mode_t")
    2195                            .dwattr $C$DW$T$51, DW_AT_type(*$C$DW$T$50)
    2196                            .dwattr $C$DW$T$51, DW_AT_language(DW_LANG_C)
    2197                            .dwattr $C$DW$T$51, DW_AT_decl_file("/home/pola/ti/ccsv8/tools/compiler/ti-cgt-arm_18.1.1.LTS/
    2198                            .dwattr $C$DW$T$51, DW_AT_decl_line(0x39)
    2199                            .dwattr $C$DW$T$51, DW_AT_decl_column(0x14)
    2200                    
TI ARM Assembler Unix v18.1.1 Fri Jul  3 20:08:25 2020

Tools Copyright (c) 1996-2017 Texas Instruments Incorporated
onewire.asm                                                          PAGE   41

    2201                    $C$DW$T$52      .dwtag  DW_TAG_typedef
    2202                            .dwattr $C$DW$T$52, DW_AT_name("__uint_least16_t")
    2203                            .dwattr $C$DW$T$52, DW_AT_type(*$C$DW$T$50)
    2204                            .dwattr $C$DW$T$52, DW_AT_language(DW_LANG_C)
    2205                            .dwattr $C$DW$T$52, DW_AT_decl_file("/home/pola/ti/ccsv8/tools/compiler/ti-cgt-arm_18.1.1.LTS/
    2206                            .dwattr $C$DW$T$52, DW_AT_decl_line(0x6e)
    2207                            .dwattr $C$DW$T$52, DW_AT_decl_column(0x14)
    2208                    
    2209                    $C$DW$T$53      .dwtag  DW_TAG_typedef
    2210                            .dwattr $C$DW$T$53, DW_AT_name("__char16_t")
    2211                            .dwattr $C$DW$T$53, DW_AT_type(*$C$DW$T$52)
    2212                            .dwattr $C$DW$T$53, DW_AT_language(DW_LANG_C)
    2213                            .dwattr $C$DW$T$53, DW_AT_decl_file("/home/pola/ti/ccsv8/tools/compiler/ti-cgt-arm_18.1.1.LTS/
    2214                            .dwattr $C$DW$T$53, DW_AT_decl_line(0x66)
    2215                            .dwattr $C$DW$T$53, DW_AT_decl_column(0x1a)
    2216                    
    2217                    $C$DW$T$54      .dwtag  DW_TAG_typedef
    2218                            .dwattr $C$DW$T$54, DW_AT_name("uint_least16_t")
    2219                            .dwattr $C$DW$T$54, DW_AT_type(*$C$DW$T$52)
    2220                            .dwattr $C$DW$T$54, DW_AT_language(DW_LANG_C)
    2221                            .dwattr $C$DW$T$54, DW_AT_decl_file("/home/pola/ti/ccsv8/tools/compiler/ti-cgt-arm_18.1.1.LTS/
    2222                            .dwattr $C$DW$T$54, DW_AT_decl_line(0x2e)
    2223                            .dwattr $C$DW$T$54, DW_AT_decl_column(0x1a)
    2224                    
    2225                    $C$DW$T$55      .dwtag  DW_TAG_typedef
    2226                            .dwattr $C$DW$T$55, DW_AT_name("uint16_t")
    2227                            .dwattr $C$DW$T$55, DW_AT_type(*$C$DW$T$50)
    2228                            .dwattr $C$DW$T$55, DW_AT_language(DW_LANG_C)
    2229                            .dwattr $C$DW$T$55, DW_AT_decl_file("/home/pola/ti/ccsv8/tools/compiler/ti-cgt-arm_18.1.1.LTS/
    2230                            .dwattr $C$DW$T$55, DW_AT_decl_line(0x3d)
    2231                            .dwattr $C$DW$T$55, DW_AT_decl_column(0x15)
    2232                    
    2233                    $C$DW$T$10      .dwtag  DW_TAG_base_type
    2234                            .dwattr $C$DW$T$10, DW_AT_encoding(DW_ATE_signed)
    2235                            .dwattr $C$DW$T$10, DW_AT_name("int")
    2236                            .dwattr $C$DW$T$10, DW_AT_byte_size(0x04)
    2237                    
    2238                    $C$DW$T$56      .dwtag  DW_TAG_typedef
    2239                            .dwattr $C$DW$T$56, DW_AT_name("_Mbstatet")
    2240                            .dwattr $C$DW$T$56, DW_AT_type(*$C$DW$T$10)
    2241                            .dwattr $C$DW$T$56, DW_AT_language(DW_LANG_C)
    2242                            .dwattr $C$DW$T$56, DW_AT_decl_file("/home/pola/ti/ccsv8/tools/compiler/ti-cgt-arm_18.1.1.LTS/
    2243                            .dwattr $C$DW$T$56, DW_AT_decl_line(0x84)
    2244                            .dwattr $C$DW$T$56, DW_AT_decl_column(0x0d)
    2245                    
    2246                    $C$DW$T$57      .dwtag  DW_TAG_typedef
    2247                            .dwattr $C$DW$T$57, DW_AT_name("__mbstate_t")
    2248                            .dwattr $C$DW$T$57, DW_AT_type(*$C$DW$T$56)
    2249                            .dwattr $C$DW$T$57, DW_AT_language(DW_LANG_C)
    2250                            .dwattr $C$DW$T$57, DW_AT_decl_file("/home/pola/ti/ccsv8/tools/compiler/ti-cgt-arm_18.1.1.LTS/
    2251                            .dwattr $C$DW$T$57, DW_AT_decl_line(0x87)
    2252                            .dwattr $C$DW$T$57, DW_AT_decl_column(0x13)
    2253                    
    2254                    $C$DW$T$58      .dwtag  DW_TAG_typedef
    2255                            .dwattr $C$DW$T$58, DW_AT_name("__accmode_t")
TI ARM Assembler Unix v18.1.1 Fri Jul  3 20:08:25 2020

Tools Copyright (c) 1996-2017 Texas Instruments Incorporated
onewire.asm                                                          PAGE   42

    2256                            .dwattr $C$DW$T$58, DW_AT_type(*$C$DW$T$10)
    2257                            .dwattr $C$DW$T$58, DW_AT_language(DW_LANG_C)
    2258                            .dwattr $C$DW$T$58, DW_AT_decl_file("/home/pola/ti/ccsv8/tools/compiler/ti-cgt-arm_18.1.1.LTS/
    2259                            .dwattr $C$DW$T$58, DW_AT_decl_line(0x3a)
    2260                            .dwattr $C$DW$T$58, DW_AT_decl_column(0x0e)
    2261                    
    2262                    $C$DW$T$59      .dwtag  DW_TAG_typedef
    2263                            .dwattr $C$DW$T$59, DW_AT_name("__cpulevel_t")
    2264                            .dwattr $C$DW$T$59, DW_AT_type(*$C$DW$T$10)
    2265                            .dwattr $C$DW$T$59, DW_AT_language(DW_LANG_C)
    2266                            .dwattr $C$DW$T$59, DW_AT_decl_file("/home/pola/ti/ccsv8/tools/compiler/ti-cgt-arm_18.1.1.LTS/
    2267                            .dwattr $C$DW$T$59, DW_AT_decl_line(0x4b)
    2268                            .dwattr $C$DW$T$59, DW_AT_decl_column(0x0e)
    2269                    
    2270                    $C$DW$T$60      .dwtag  DW_TAG_typedef
    2271                            .dwattr $C$DW$T$60, DW_AT_name("__cpusetid_t")
    2272                            .dwattr $C$DW$T$60, DW_AT_type(*$C$DW$T$10)
    2273                            .dwattr $C$DW$T$60, DW_AT_language(DW_LANG_C)
    2274                            .dwattr $C$DW$T$60, DW_AT_decl_file("/home/pola/ti/ccsv8/tools/compiler/ti-cgt-arm_18.1.1.LTS/
    2275                            .dwattr $C$DW$T$60, DW_AT_decl_line(0x4c)
    2276                            .dwattr $C$DW$T$60, DW_AT_decl_column(0x0e)
    2277                    
    2278                    $C$DW$T$61      .dwtag  DW_TAG_typedef
    2279                            .dwattr $C$DW$T$61, DW_AT_name("__cpuwhich_t")
    2280                            .dwattr $C$DW$T$61, DW_AT_type(*$C$DW$T$10)
    2281                            .dwattr $C$DW$T$61, DW_AT_language(DW_LANG_C)
    2282                            .dwattr $C$DW$T$61, DW_AT_decl_file("/home/pola/ti/ccsv8/tools/compiler/ti-cgt-arm_18.1.1.LTS/
    2283                            .dwattr $C$DW$T$61, DW_AT_decl_line(0x4a)
    2284                            .dwattr $C$DW$T$61, DW_AT_decl_column(0x0e)
    2285                    
    2286                    $C$DW$T$62      .dwtag  DW_TAG_typedef
    2287                            .dwattr $C$DW$T$62, DW_AT_name("__ct_rune_t")
    2288                            .dwattr $C$DW$T$62, DW_AT_type(*$C$DW$T$10)
    2289                            .dwattr $C$DW$T$62, DW_AT_language(DW_LANG_C)
    2290                            .dwattr $C$DW$T$62, DW_AT_decl_file("/home/pola/ti/ccsv8/tools/compiler/ti-cgt-arm_18.1.1.LTS/
    2291                            .dwattr $C$DW$T$62, DW_AT_decl_line(0x60)
    2292                            .dwattr $C$DW$T$62, DW_AT_decl_column(0x0e)
    2293                    
    2294                    $C$DW$T$63      .dwtag  DW_TAG_typedef
    2295                            .dwattr $C$DW$T$63, DW_AT_name("__rune_t")
    2296                            .dwattr $C$DW$T$63, DW_AT_type(*$C$DW$T$62)
    2297                            .dwattr $C$DW$T$63, DW_AT_language(DW_LANG_C)
    2298                            .dwattr $C$DW$T$63, DW_AT_decl_file("/home/pola/ti/ccsv8/tools/compiler/ti-cgt-arm_18.1.1.LTS/
    2299                            .dwattr $C$DW$T$63, DW_AT_decl_line(0x61)
    2300                            .dwattr $C$DW$T$63, DW_AT_decl_column(0x15)
    2301                    
    2302                    $C$DW$T$64      .dwtag  DW_TAG_typedef
    2303                            .dwattr $C$DW$T$64, DW_AT_name("__wint_t")
    2304                            .dwattr $C$DW$T$64, DW_AT_type(*$C$DW$T$62)
    2305                            .dwattr $C$DW$T$64, DW_AT_language(DW_LANG_C)
    2306                            .dwattr $C$DW$T$64, DW_AT_decl_file("/home/pola/ti/ccsv8/tools/compiler/ti-cgt-arm_18.1.1.LTS/
    2307                            .dwattr $C$DW$T$64, DW_AT_decl_line(0x62)
    2308                            .dwattr $C$DW$T$64, DW_AT_decl_column(0x15)
    2309                    
    2310                    $C$DW$T$65      .dwtag  DW_TAG_typedef
TI ARM Assembler Unix v18.1.1 Fri Jul  3 20:08:25 2020

Tools Copyright (c) 1996-2017 Texas Instruments Incorporated
onewire.asm                                                          PAGE   43

    2311                            .dwattr $C$DW$T$65, DW_AT_name("__int32_t")
    2312                            .dwattr $C$DW$T$65, DW_AT_type(*$C$DW$T$10)
    2313                            .dwattr $C$DW$T$65, DW_AT_language(DW_LANG_C)
    2314                            .dwattr $C$DW$T$65, DW_AT_decl_file("/home/pola/ti/ccsv8/tools/compiler/ti-cgt-arm_18.1.1.LTS/
    2315                            .dwattr $C$DW$T$65, DW_AT_decl_line(0x3d)
    2316                            .dwattr $C$DW$T$65, DW_AT_decl_column(0x0f)
    2317                    
    2318                    $C$DW$T$66      .dwtag  DW_TAG_typedef
    2319                            .dwattr $C$DW$T$66, DW_AT_name("__blksize_t")
    2320                            .dwattr $C$DW$T$66, DW_AT_type(*$C$DW$T$65)
    2321                            .dwattr $C$DW$T$66, DW_AT_language(DW_LANG_C)
    2322                            .dwattr $C$DW$T$66, DW_AT_decl_file("/home/pola/ti/ccsv8/tools/compiler/ti-cgt-arm_18.1.1.LTS/
    2323                            .dwattr $C$DW$T$66, DW_AT_decl_line(0x2e)
    2324                            .dwattr $C$DW$T$66, DW_AT_decl_column(0x13)
    2325                    
    2326                    $C$DW$T$67      .dwtag  DW_TAG_typedef
    2327                            .dwattr $C$DW$T$67, DW_AT_name("__clockid_t")
    2328                            .dwattr $C$DW$T$67, DW_AT_type(*$C$DW$T$65)
    2329                            .dwattr $C$DW$T$67, DW_AT_language(DW_LANG_C)
    2330                            .dwattr $C$DW$T$67, DW_AT_decl_file("/home/pola/ti/ccsv8/tools/compiler/ti-cgt-arm_18.1.1.LTS/
    2331                            .dwattr $C$DW$T$67, DW_AT_decl_line(0x30)
    2332                            .dwattr $C$DW$T$67, DW_AT_decl_column(0x13)
    2333                    
    2334                    $C$DW$T$68      .dwtag  DW_TAG_typedef
    2335                            .dwattr $C$DW$T$68, DW_AT_name("__critical_t")
    2336                            .dwattr $C$DW$T$68, DW_AT_type(*$C$DW$T$65)
    2337                            .dwattr $C$DW$T$68, DW_AT_language(DW_LANG_C)
    2338                            .dwattr $C$DW$T$68, DW_AT_decl_file("/home/pola/ti/ccsv8/tools/compiler/ti-cgt-arm_18.1.1.LTS/
    2339                            .dwattr $C$DW$T$68, DW_AT_decl_line(0x4e)
    2340                            .dwattr $C$DW$T$68, DW_AT_decl_column(0x13)
    2341                    
    2342                    $C$DW$T$69      .dwtag  DW_TAG_typedef
    2343                            .dwattr $C$DW$T$69, DW_AT_name("__int_fast16_t")
    2344                            .dwattr $C$DW$T$69, DW_AT_type(*$C$DW$T$65)
    2345                            .dwattr $C$DW$T$69, DW_AT_language(DW_LANG_C)
    2346                            .dwattr $C$DW$T$69, DW_AT_decl_file("/home/pola/ti/ccsv8/tools/compiler/ti-cgt-arm_18.1.1.LTS/
    2347                            .dwattr $C$DW$T$69, DW_AT_decl_line(0x55)
    2348                            .dwattr $C$DW$T$69, DW_AT_decl_column(0x13)
    2349                    
    2350                    $C$DW$T$70      .dwtag  DW_TAG_typedef
    2351                            .dwattr $C$DW$T$70, DW_AT_name("int_fast16_t")
    2352                            .dwattr $C$DW$T$70, DW_AT_type(*$C$DW$T$69)
    2353                            .dwattr $C$DW$T$70, DW_AT_language(DW_LANG_C)
    2354                            .dwattr $C$DW$T$70, DW_AT_decl_file("/home/pola/ti/ccsv8/tools/compiler/ti-cgt-arm_18.1.1.LTS/
    2355                            .dwattr $C$DW$T$70, DW_AT_decl_line(0x33)
    2356                            .dwattr $C$DW$T$70, DW_AT_decl_column(0x19)
    2357                    
    2358                    $C$DW$T$71      .dwtag  DW_TAG_typedef
    2359                            .dwattr $C$DW$T$71, DW_AT_name("__int_fast32_t")
    2360                            .dwattr $C$DW$T$71, DW_AT_type(*$C$DW$T$65)
    2361                            .dwattr $C$DW$T$71, DW_AT_language(DW_LANG_C)
    2362                            .dwattr $C$DW$T$71, DW_AT_decl_file("/home/pola/ti/ccsv8/tools/compiler/ti-cgt-arm_18.1.1.LTS/
    2363                            .dwattr $C$DW$T$71, DW_AT_decl_line(0x56)
    2364                            .dwattr $C$DW$T$71, DW_AT_decl_column(0x13)
    2365                    
TI ARM Assembler Unix v18.1.1 Fri Jul  3 20:08:25 2020

Tools Copyright (c) 1996-2017 Texas Instruments Incorporated
onewire.asm                                                          PAGE   44

    2366                    $C$DW$T$72      .dwtag  DW_TAG_typedef
    2367                            .dwattr $C$DW$T$72, DW_AT_name("int_fast32_t")
    2368                            .dwattr $C$DW$T$72, DW_AT_type(*$C$DW$T$71)
    2369                            .dwattr $C$DW$T$72, DW_AT_language(DW_LANG_C)
    2370                            .dwattr $C$DW$T$72, DW_AT_decl_file("/home/pola/ti/ccsv8/tools/compiler/ti-cgt-arm_18.1.1.LTS/
    2371                            .dwattr $C$DW$T$72, DW_AT_decl_line(0x34)
    2372                            .dwattr $C$DW$T$72, DW_AT_decl_column(0x19)
    2373                    
    2374                    $C$DW$T$73      .dwtag  DW_TAG_typedef
    2375                            .dwattr $C$DW$T$73, DW_AT_name("__int_fast8_t")
    2376                            .dwattr $C$DW$T$73, DW_AT_type(*$C$DW$T$65)
    2377                            .dwattr $C$DW$T$73, DW_AT_language(DW_LANG_C)
    2378                            .dwattr $C$DW$T$73, DW_AT_decl_file("/home/pola/ti/ccsv8/tools/compiler/ti-cgt-arm_18.1.1.LTS/
    2379                            .dwattr $C$DW$T$73, DW_AT_decl_line(0x54)
    2380                            .dwattr $C$DW$T$73, DW_AT_decl_column(0x13)
    2381                    
    2382                    $C$DW$T$74      .dwtag  DW_TAG_typedef
    2383                            .dwattr $C$DW$T$74, DW_AT_name("int_fast8_t")
    2384                            .dwattr $C$DW$T$74, DW_AT_type(*$C$DW$T$73)
    2385                            .dwattr $C$DW$T$74, DW_AT_language(DW_LANG_C)
    2386                            .dwattr $C$DW$T$74, DW_AT_decl_file("/home/pola/ti/ccsv8/tools/compiler/ti-cgt-arm_18.1.1.LTS/
    2387                            .dwattr $C$DW$T$74, DW_AT_decl_line(0x32)
    2388                            .dwattr $C$DW$T$74, DW_AT_decl_column(0x18)
    2389                    
    2390                    $C$DW$T$75      .dwtag  DW_TAG_typedef
    2391                            .dwattr $C$DW$T$75, DW_AT_name("__int_least32_t")
    2392                            .dwattr $C$DW$T$75, DW_AT_type(*$C$DW$T$65)
    2393                            .dwattr $C$DW$T$75, DW_AT_language(DW_LANG_C)
    2394                            .dwattr $C$DW$T$75, DW_AT_decl_file("/home/pola/ti/ccsv8/tools/compiler/ti-cgt-arm_18.1.1.LTS/
    2395                            .dwattr $C$DW$T$75, DW_AT_decl_line(0x5a)
    2396                            .dwattr $C$DW$T$75, DW_AT_decl_column(0x13)
    2397                    
    2398                    $C$DW$T$76      .dwtag  DW_TAG_typedef
    2399                            .dwattr $C$DW$T$76, DW_AT_name("int_least32_t")
    2400                            .dwattr $C$DW$T$76, DW_AT_type(*$C$DW$T$75)
    2401                            .dwattr $C$DW$T$76, DW_AT_language(DW_LANG_C)
    2402                            .dwattr $C$DW$T$76, DW_AT_decl_file("/home/pola/ti/ccsv8/tools/compiler/ti-cgt-arm_18.1.1.LTS/
    2403                            .dwattr $C$DW$T$76, DW_AT_decl_line(0x2a)
    2404                            .dwattr $C$DW$T$76, DW_AT_decl_column(0x1a)
    2405                    
    2406                    $C$DW$T$77      .dwtag  DW_TAG_typedef
    2407                            .dwattr $C$DW$T$77, DW_AT_name("__intfptr_t")
    2408                            .dwattr $C$DW$T$77, DW_AT_type(*$C$DW$T$65)
    2409                            .dwattr $C$DW$T$77, DW_AT_language(DW_LANG_C)
    2410                            .dwattr $C$DW$T$77, DW_AT_decl_file("/home/pola/ti/ccsv8/tools/compiler/ti-cgt-arm_18.1.1.LTS/
    2411                            .dwattr $C$DW$T$77, DW_AT_decl_line(0x51)
    2412                            .dwattr $C$DW$T$77, DW_AT_decl_column(0x13)
    2413                    
    2414                    $C$DW$T$78      .dwtag  DW_TAG_typedef
    2415                            .dwattr $C$DW$T$78, DW_AT_name("__intptr_t")
    2416                            .dwattr $C$DW$T$78, DW_AT_type(*$C$DW$T$65)
    2417                            .dwattr $C$DW$T$78, DW_AT_language(DW_LANG_C)
    2418                            .dwattr $C$DW$T$78, DW_AT_decl_file("/home/pola/ti/ccsv8/tools/compiler/ti-cgt-arm_18.1.1.LTS/
    2419                            .dwattr $C$DW$T$78, DW_AT_decl_line(0x53)
    2420                            .dwattr $C$DW$T$78, DW_AT_decl_column(0x13)
TI ARM Assembler Unix v18.1.1 Fri Jul  3 20:08:25 2020

Tools Copyright (c) 1996-2017 Texas Instruments Incorporated
onewire.asm                                                          PAGE   45

    2421                    
    2422                    $C$DW$T$79      .dwtag  DW_TAG_typedef
    2423                            .dwattr $C$DW$T$79, DW_AT_name("intptr_t")
    2424                            .dwattr $C$DW$T$79, DW_AT_type(*$C$DW$T$78)
    2425                            .dwattr $C$DW$T$79, DW_AT_language(DW_LANG_C)
    2426                            .dwattr $C$DW$T$79, DW_AT_decl_file("/home/pola/ti/ccsv8/tools/compiler/ti-cgt-arm_18.1.1.LTS/
    2427                            .dwattr $C$DW$T$79, DW_AT_decl_line(0x4c)
    2428                            .dwattr $C$DW$T$79, DW_AT_decl_column(0x15)
    2429                    
    2430                    $C$DW$T$80      .dwtag  DW_TAG_typedef
    2431                            .dwattr $C$DW$T$80, DW_AT_name("__lwpid_t")
    2432                            .dwattr $C$DW$T$80, DW_AT_type(*$C$DW$T$65)
    2433                            .dwattr $C$DW$T$80, DW_AT_language(DW_LANG_C)
    2434                            .dwattr $C$DW$T$80, DW_AT_decl_file("/home/pola/ti/ccsv8/tools/compiler/ti-cgt-arm_18.1.1.LTS/
    2435                            .dwattr $C$DW$T$80, DW_AT_decl_line(0x38)
    2436                            .dwattr $C$DW$T$80, DW_AT_decl_column(0x13)
    2437                    
    2438                    $C$DW$T$81      .dwtag  DW_TAG_typedef
    2439                            .dwattr $C$DW$T$81, DW_AT_name("__pid_t")
    2440                            .dwattr $C$DW$T$81, DW_AT_type(*$C$DW$T$65)
    2441                            .dwattr $C$DW$T$81, DW_AT_language(DW_LANG_C)
    2442                            .dwattr $C$DW$T$81, DW_AT_decl_file("/home/pola/ti/ccsv8/tools/compiler/ti-cgt-arm_18.1.1.LTS/
    2443                            .dwattr $C$DW$T$81, DW_AT_decl_line(0x3f)
    2444                            .dwattr $C$DW$T$81, DW_AT_decl_column(0x13)
    2445                    
    2446                    $C$DW$T$82      .dwtag  DW_TAG_typedef
    2447                            .dwattr $C$DW$T$82, DW_AT_name("__ptrdiff_t")
    2448                            .dwattr $C$DW$T$82, DW_AT_type(*$C$DW$T$65)
    2449                            .dwattr $C$DW$T$82, DW_AT_language(DW_LANG_C)
    2450                            .dwattr $C$DW$T$82, DW_AT_decl_file("/home/pola/ti/ccsv8/tools/compiler/ti-cgt-arm_18.1.1.LTS/
    2451                            .dwattr $C$DW$T$82, DW_AT_decl_line(0x5c)
    2452                            .dwattr $C$DW$T$82, DW_AT_decl_column(0x13)
    2453                    
    2454                    $C$DW$T$83      .dwtag  DW_TAG_typedef
    2455                            .dwattr $C$DW$T$83, DW_AT_name("__register_t")
    2456                            .dwattr $C$DW$T$83, DW_AT_type(*$C$DW$T$65)
    2457                            .dwattr $C$DW$T$83, DW_AT_language(DW_LANG_C)
    2458                            .dwattr $C$DW$T$83, DW_AT_decl_file("/home/pola/ti/ccsv8/tools/compiler/ti-cgt-arm_18.1.1.LTS/
    2459                            .dwattr $C$DW$T$83, DW_AT_decl_line(0x5d)
    2460                            .dwattr $C$DW$T$83, DW_AT_decl_column(0x13)
    2461                    
    2462                    $C$DW$T$84      .dwtag  DW_TAG_typedef
    2463                            .dwattr $C$DW$T$84, DW_AT_name("__segsz_t")
    2464                            .dwattr $C$DW$T$84, DW_AT_type(*$C$DW$T$65)
    2465                            .dwattr $C$DW$T$84, DW_AT_language(DW_LANG_C)
    2466                            .dwattr $C$DW$T$84, DW_AT_decl_file("/home/pola/ti/ccsv8/tools/compiler/ti-cgt-arm_18.1.1.LTS/
    2467                            .dwattr $C$DW$T$84, DW_AT_decl_line(0x5e)
    2468                            .dwattr $C$DW$T$84, DW_AT_decl_column(0x13)
    2469                    
    2470                    $C$DW$T$85      .dwtag  DW_TAG_typedef
    2471                            .dwattr $C$DW$T$85, DW_AT_name("__ssize_t")
    2472                            .dwattr $C$DW$T$85, DW_AT_type(*$C$DW$T$65)
    2473                            .dwattr $C$DW$T$85, DW_AT_language(DW_LANG_C)
    2474                            .dwattr $C$DW$T$85, DW_AT_decl_file("/home/pola/ti/ccsv8/tools/compiler/ti-cgt-arm_18.1.1.LTS/
    2475                            .dwattr $C$DW$T$85, DW_AT_decl_line(0x60)
TI ARM Assembler Unix v18.1.1 Fri Jul  3 20:08:25 2020

Tools Copyright (c) 1996-2017 Texas Instruments Incorporated
onewire.asm                                                          PAGE   46

    2476                            .dwattr $C$DW$T$85, DW_AT_decl_column(0x13)
    2477                    
    2478                    $C$DW$T$86      .dwtag  DW_TAG_typedef
    2479                            .dwattr $C$DW$T$86, DW_AT_name("int32_t")
    2480                            .dwattr $C$DW$T$86, DW_AT_type(*$C$DW$T$65)
    2481                            .dwattr $C$DW$T$86, DW_AT_language(DW_LANG_C)
    2482                            .dwattr $C$DW$T$86, DW_AT_decl_file("/home/pola/ti/ccsv8/tools/compiler/ti-cgt-arm_18.1.1.LTS/
    2483                            .dwattr $C$DW$T$86, DW_AT_decl_line(0x2e)
    2484                            .dwattr $C$DW$T$86, DW_AT_decl_column(0x14)
    2485                    
    2486                    $C$DW$T$87      .dwtag  DW_TAG_typedef
    2487                            .dwattr $C$DW$T$87, DW_AT_name("__nl_item")
    2488                            .dwattr $C$DW$T$87, DW_AT_type(*$C$DW$T$10)
    2489                            .dwattr $C$DW$T$87, DW_AT_language(DW_LANG_C)
    2490                            .dwattr $C$DW$T$87, DW_AT_decl_file("/home/pola/ti/ccsv8/tools/compiler/ti-cgt-arm_18.1.1.LTS/
    2491                            .dwattr $C$DW$T$87, DW_AT_decl_line(0x3b)
    2492                            .dwattr $C$DW$T$87, DW_AT_decl_column(0x0e)
    2493                    
    2494                    $C$DW$T$11      .dwtag  DW_TAG_base_type
    2495                            .dwattr $C$DW$T$11, DW_AT_encoding(DW_ATE_unsigned)
    2496                            .dwattr $C$DW$T$11, DW_AT_name("unsigned int")
    2497                            .dwattr $C$DW$T$11, DW_AT_byte_size(0x04)
    2498                    
    2499                    $C$DW$T$26      .dwtag  DW_TAG_typedef
    2500                            .dwattr $C$DW$T$26, DW_AT_name("__uint32_t")
    2501                            .dwattr $C$DW$T$26, DW_AT_type(*$C$DW$T$11)
    2502                            .dwattr $C$DW$T$26, DW_AT_language(DW_LANG_C)
    2503                            .dwattr $C$DW$T$26, DW_AT_decl_file("/home/pola/ti/ccsv8/tools/compiler/ti-cgt-arm_18.1.1.LTS/
    2504                            .dwattr $C$DW$T$26, DW_AT_decl_line(0x3e)
    2505                            .dwattr $C$DW$T$26, DW_AT_decl_column(0x17)
    2506                    
    2507                    $C$DW$T$88      .dwtag  DW_TAG_typedef
    2508                            .dwattr $C$DW$T$88, DW_AT_name("__clock_t")
    2509                            .dwattr $C$DW$T$88, DW_AT_type(*$C$DW$T$26)
    2510                            .dwattr $C$DW$T$88, DW_AT_language(DW_LANG_C)
    2511                            .dwattr $C$DW$T$88, DW_AT_decl_file("/home/pola/ti/ccsv8/tools/compiler/ti-cgt-arm_18.1.1.LTS/
    2512                            .dwattr $C$DW$T$88, DW_AT_decl_line(0x4d)
    2513                            .dwattr $C$DW$T$88, DW_AT_decl_column(0x14)
    2514                    
    2515                    $C$DW$T$89      .dwtag  DW_TAG_typedef
    2516                            .dwattr $C$DW$T$89, DW_AT_name("__fflags_t")
    2517                            .dwattr $C$DW$T$89, DW_AT_type(*$C$DW$T$26)
    2518                            .dwattr $C$DW$T$89, DW_AT_language(DW_LANG_C)
    2519                            .dwattr $C$DW$T$89, DW_AT_decl_file("/home/pola/ti/ccsv8/tools/compiler/ti-cgt-arm_18.1.1.LTS/
    2520                            .dwattr $C$DW$T$89, DW_AT_decl_line(0x31)
    2521                            .dwattr $C$DW$T$89, DW_AT_decl_column(0x14)
    2522                    
    2523                    $C$DW$T$90      .dwtag  DW_TAG_typedef
    2524                            .dwattr $C$DW$T$90, DW_AT_name("__fixpt_t")
    2525                            .dwattr $C$DW$T$90, DW_AT_type(*$C$DW$T$26)
    2526                            .dwattr $C$DW$T$90, DW_AT_language(DW_LANG_C)
    2527                            .dwattr $C$DW$T$90, DW_AT_decl_file("/home/pola/ti/ccsv8/tools/compiler/ti-cgt-arm_18.1.1.LTS/
    2528                            .dwattr $C$DW$T$90, DW_AT_decl_line(0x76)
    2529                            .dwattr $C$DW$T$90, DW_AT_decl_column(0x14)
    2530                    
TI ARM Assembler Unix v18.1.1 Fri Jul  3 20:08:25 2020

Tools Copyright (c) 1996-2017 Texas Instruments Incorporated
onewire.asm                                                          PAGE   47

    2531                    $C$DW$T$91      .dwtag  DW_TAG_typedef
    2532                            .dwattr $C$DW$T$91, DW_AT_name("__gid_t")
    2533                            .dwattr $C$DW$T$91, DW_AT_type(*$C$DW$T$26)
    2534                            .dwattr $C$DW$T$91, DW_AT_language(DW_LANG_C)
    2535                            .dwattr $C$DW$T$91, DW_AT_decl_file("/home/pola/ti/ccsv8/tools/compiler/ti-cgt-arm_18.1.1.LTS/
    2536                            .dwattr $C$DW$T$91, DW_AT_decl_line(0x34)
    2537                            .dwattr $C$DW$T$91, DW_AT_decl_column(0x14)
    2538                    
    2539                    $C$DW$T$92      .dwtag  DW_TAG_typedef
    2540                            .dwattr $C$DW$T$92, DW_AT_name("__size_t")
    2541                            .dwattr $C$DW$T$92, DW_AT_type(*$C$DW$T$26)
    2542                            .dwattr $C$DW$T$92, DW_AT_language(DW_LANG_C)
    2543                            .dwattr $C$DW$T$92, DW_AT_decl_file("/home/pola/ti/ccsv8/tools/compiler/ti-cgt-arm_18.1.1.LTS/
    2544                            .dwattr $C$DW$T$92, DW_AT_decl_line(0x5f)
    2545                            .dwattr $C$DW$T$92, DW_AT_decl_column(0x14)
    2546                    
    2547                    $C$DW$T$93      .dwtag  DW_TAG_typedef
    2548                            .dwattr $C$DW$T$93, DW_AT_name("__socklen_t")
    2549                            .dwattr $C$DW$T$93, DW_AT_type(*$C$DW$T$26)
    2550                            .dwattr $C$DW$T$93, DW_AT_language(DW_LANG_C)
    2551                            .dwattr $C$DW$T$93, DW_AT_decl_file("/home/pola/ti/ccsv8/tools/compiler/ti-cgt-arm_18.1.1.LTS/
    2552                            .dwattr $C$DW$T$93, DW_AT_decl_line(0x44)
    2553                            .dwattr $C$DW$T$93, DW_AT_decl_column(0x14)
    2554                    
    2555                    $C$DW$T$94      .dwtag  DW_TAG_typedef
    2556                            .dwattr $C$DW$T$94, DW_AT_name("__time_t")
    2557                            .dwattr $C$DW$T$94, DW_AT_type(*$C$DW$T$26)
    2558                            .dwattr $C$DW$T$94, DW_AT_language(DW_LANG_C)
    2559                            .dwattr $C$DW$T$94, DW_AT_decl_file("/home/pola/ti/ccsv8/tools/compiler/ti-cgt-arm_18.1.1.LTS/
    2560                            .dwattr $C$DW$T$94, DW_AT_decl_line(0x64)
    2561                            .dwattr $C$DW$T$94, DW_AT_decl_column(0x19)
    2562                    
    2563                    $C$DW$T$95      .dwtag  DW_TAG_typedef
    2564                            .dwattr $C$DW$T$95, DW_AT_name("__u_register_t")
    2565                            .dwattr $C$DW$T$95, DW_AT_type(*$C$DW$T$26)
    2566                            .dwattr $C$DW$T$95, DW_AT_language(DW_LANG_C)
    2567                            .dwattr $C$DW$T$95, DW_AT_decl_file("/home/pola/ti/ccsv8/tools/compiler/ti-cgt-arm_18.1.1.LTS/
    2568                            .dwattr $C$DW$T$95, DW_AT_decl_line(0x71)
    2569                            .dwattr $C$DW$T$95, DW_AT_decl_column(0x14)
    2570                    
    2571                    $C$DW$T$96      .dwtag  DW_TAG_typedef
    2572                            .dwattr $C$DW$T$96, DW_AT_name("__uid_t")
    2573                            .dwattr $C$DW$T$96, DW_AT_type(*$C$DW$T$26)
    2574                            .dwattr $C$DW$T$96, DW_AT_language(DW_LANG_C)
    2575                            .dwattr $C$DW$T$96, DW_AT_decl_file("/home/pola/ti/ccsv8/tools/compiler/ti-cgt-arm_18.1.1.LTS/
    2576                            .dwattr $C$DW$T$96, DW_AT_decl_line(0x48)
    2577                            .dwattr $C$DW$T$96, DW_AT_decl_column(0x14)
    2578                    
    2579                    $C$DW$T$97      .dwtag  DW_TAG_typedef
    2580                            .dwattr $C$DW$T$97, DW_AT_name("__uint_fast16_t")
    2581                            .dwattr $C$DW$T$97, DW_AT_type(*$C$DW$T$26)
    2582                            .dwattr $C$DW$T$97, DW_AT_language(DW_LANG_C)
    2583                            .dwattr $C$DW$T$97, DW_AT_decl_file("/home/pola/ti/ccsv8/tools/compiler/ti-cgt-arm_18.1.1.LTS/
    2584                            .dwattr $C$DW$T$97, DW_AT_decl_line(0x6a)
    2585                            .dwattr $C$DW$T$97, DW_AT_decl_column(0x14)
TI ARM Assembler Unix v18.1.1 Fri Jul  3 20:08:25 2020

Tools Copyright (c) 1996-2017 Texas Instruments Incorporated
onewire.asm                                                          PAGE   48

    2586                    
    2587                    $C$DW$T$98      .dwtag  DW_TAG_typedef
    2588                            .dwattr $C$DW$T$98, DW_AT_name("uint_fast16_t")
    2589                            .dwattr $C$DW$T$98, DW_AT_type(*$C$DW$T$97)
    2590                            .dwattr $C$DW$T$98, DW_AT_language(DW_LANG_C)
    2591                            .dwattr $C$DW$T$98, DW_AT_decl_file("/home/pola/ti/ccsv8/tools/compiler/ti-cgt-arm_18.1.1.LTS/
    2592                            .dwattr $C$DW$T$98, DW_AT_decl_line(0x38)
    2593                            .dwattr $C$DW$T$98, DW_AT_decl_column(0x1a)
    2594                    
    2595                    $C$DW$T$99      .dwtag  DW_TAG_typedef
    2596                            .dwattr $C$DW$T$99, DW_AT_name("__uint_fast32_t")
    2597                            .dwattr $C$DW$T$99, DW_AT_type(*$C$DW$T$26)
    2598                            .dwattr $C$DW$T$99, DW_AT_language(DW_LANG_C)
    2599                            .dwattr $C$DW$T$99, DW_AT_decl_file("/home/pola/ti/ccsv8/tools/compiler/ti-cgt-arm_18.1.1.LTS/
    2600                            .dwattr $C$DW$T$99, DW_AT_decl_line(0x6b)
    2601                            .dwattr $C$DW$T$99, DW_AT_decl_column(0x14)
    2602                    
    2603                    $C$DW$T$100     .dwtag  DW_TAG_typedef
    2604                            .dwattr $C$DW$T$100, DW_AT_name("uint_fast32_t")
    2605                            .dwattr $C$DW$T$100, DW_AT_type(*$C$DW$T$99)
    2606                            .dwattr $C$DW$T$100, DW_AT_language(DW_LANG_C)
    2607                            .dwattr $C$DW$T$100, DW_AT_decl_file("/home/pola/ti/ccsv8/tools/compiler/ti-cgt-arm_18.1.1.LTS
    2608                            .dwattr $C$DW$T$100, DW_AT_decl_line(0x39)
    2609                            .dwattr $C$DW$T$100, DW_AT_decl_column(0x1a)
    2610                    
    2611                    $C$DW$T$101     .dwtag  DW_TAG_typedef
    2612                            .dwattr $C$DW$T$101, DW_AT_name("__uint_fast8_t")
    2613                            .dwattr $C$DW$T$101, DW_AT_type(*$C$DW$T$26)
    2614                            .dwattr $C$DW$T$101, DW_AT_language(DW_LANG_C)
    2615                            .dwattr $C$DW$T$101, DW_AT_decl_file("/home/pola/ti/ccsv8/tools/compiler/ti-cgt-arm_18.1.1.LTS
    2616                            .dwattr $C$DW$T$101, DW_AT_decl_line(0x69)
    2617                            .dwattr $C$DW$T$101, DW_AT_decl_column(0x14)
    2618                    
    2619                    $C$DW$T$102     .dwtag  DW_TAG_typedef
    2620                            .dwattr $C$DW$T$102, DW_AT_name("uint_fast8_t")
    2621                            .dwattr $C$DW$T$102, DW_AT_type(*$C$DW$T$101)
    2622                            .dwattr $C$DW$T$102, DW_AT_language(DW_LANG_C)
    2623                            .dwattr $C$DW$T$102, DW_AT_decl_file("/home/pola/ti/ccsv8/tools/compiler/ti-cgt-arm_18.1.1.LTS
    2624                            .dwattr $C$DW$T$102, DW_AT_decl_line(0x37)
    2625                            .dwattr $C$DW$T$102, DW_AT_decl_column(0x19)
    2626                    
    2627                    $C$DW$T$103     .dwtag  DW_TAG_typedef
    2628                            .dwattr $C$DW$T$103, DW_AT_name("__uint_least32_t")
    2629                            .dwattr $C$DW$T$103, DW_AT_type(*$C$DW$T$26)
    2630                            .dwattr $C$DW$T$103, DW_AT_language(DW_LANG_C)
    2631                            .dwattr $C$DW$T$103, DW_AT_decl_file("/home/pola/ti/ccsv8/tools/compiler/ti-cgt-arm_18.1.1.LTS
    2632                            .dwattr $C$DW$T$103, DW_AT_decl_line(0x6f)
    2633                            .dwattr $C$DW$T$103, DW_AT_decl_column(0x14)
    2634                    
    2635                    $C$DW$T$104     .dwtag  DW_TAG_typedef
    2636                            .dwattr $C$DW$T$104, DW_AT_name("__char32_t")
    2637                            .dwattr $C$DW$T$104, DW_AT_type(*$C$DW$T$103)
    2638                            .dwattr $C$DW$T$104, DW_AT_language(DW_LANG_C)
    2639                            .dwattr $C$DW$T$104, DW_AT_decl_file("/home/pola/ti/ccsv8/tools/compiler/ti-cgt-arm_18.1.1.LTS
    2640                            .dwattr $C$DW$T$104, DW_AT_decl_line(0x67)
TI ARM Assembler Unix v18.1.1 Fri Jul  3 20:08:25 2020

Tools Copyright (c) 1996-2017 Texas Instruments Incorporated
onewire.asm                                                          PAGE   49

    2641                            .dwattr $C$DW$T$104, DW_AT_decl_column(0x1a)
    2642                    
    2643                    $C$DW$T$105     .dwtag  DW_TAG_typedef
    2644                            .dwattr $C$DW$T$105, DW_AT_name("uint_least32_t")
    2645                            .dwattr $C$DW$T$105, DW_AT_type(*$C$DW$T$103)
    2646                            .dwattr $C$DW$T$105, DW_AT_language(DW_LANG_C)
    2647                            .dwattr $C$DW$T$105, DW_AT_decl_file("/home/pola/ti/ccsv8/tools/compiler/ti-cgt-arm_18.1.1.LTS
    2648                            .dwattr $C$DW$T$105, DW_AT_decl_line(0x2f)
    2649                            .dwattr $C$DW$T$105, DW_AT_decl_column(0x1a)
    2650                    
    2651                    $C$DW$T$106     .dwtag  DW_TAG_typedef
    2652                            .dwattr $C$DW$T$106, DW_AT_name("__uintfptr_t")
    2653                            .dwattr $C$DW$T$106, DW_AT_type(*$C$DW$T$26)
    2654                            .dwattr $C$DW$T$106, DW_AT_language(DW_LANG_C)
    2655                            .dwattr $C$DW$T$106, DW_AT_decl_file("/home/pola/ti/ccsv8/tools/compiler/ti-cgt-arm_18.1.1.LTS
    2656                            .dwattr $C$DW$T$106, DW_AT_decl_line(0x66)
    2657                            .dwattr $C$DW$T$106, DW_AT_decl_column(0x14)
    2658                    
    2659                    $C$DW$T$107     .dwtag  DW_TAG_typedef
    2660                            .dwattr $C$DW$T$107, DW_AT_name("__uintptr_t")
    2661                            .dwattr $C$DW$T$107, DW_AT_type(*$C$DW$T$26)
    2662                            .dwattr $C$DW$T$107, DW_AT_language(DW_LANG_C)
    2663                            .dwattr $C$DW$T$107, DW_AT_decl_file("/home/pola/ti/ccsv8/tools/compiler/ti-cgt-arm_18.1.1.LTS
    2664                            .dwattr $C$DW$T$107, DW_AT_decl_line(0x68)
    2665                            .dwattr $C$DW$T$107, DW_AT_decl_column(0x14)
    2666                    
    2667                    $C$DW$T$108     .dwtag  DW_TAG_typedef
    2668                            .dwattr $C$DW$T$108, DW_AT_name("uintptr_t")
    2669                            .dwattr $C$DW$T$108, DW_AT_type(*$C$DW$T$107)
    2670                            .dwattr $C$DW$T$108, DW_AT_language(DW_LANG_C)
    2671                            .dwattr $C$DW$T$108, DW_AT_decl_file("/home/pola/ti/ccsv8/tools/compiler/ti-cgt-arm_18.1.1.LTS
    2672                            .dwattr $C$DW$T$108, DW_AT_decl_line(0x50)
    2673                            .dwattr $C$DW$T$108, DW_AT_decl_column(0x16)
    2674                    
    2675                    $C$DW$T$109     .dwtag  DW_TAG_typedef
    2676                            .dwattr $C$DW$T$109, DW_AT_name("__vm_offset_t")
    2677                            .dwattr $C$DW$T$109, DW_AT_type(*$C$DW$T$26)
    2678                            .dwattr $C$DW$T$109, DW_AT_language(DW_LANG_C)
    2679                            .dwattr $C$DW$T$109, DW_AT_decl_file("/home/pola/ti/ccsv8/tools/compiler/ti-cgt-arm_18.1.1.LTS
    2680                            .dwattr $C$DW$T$109, DW_AT_decl_line(0x72)
    2681                            .dwattr $C$DW$T$109, DW_AT_decl_column(0x14)
    2682                    
    2683                    $C$DW$T$110     .dwtag  DW_TAG_typedef
    2684                            .dwattr $C$DW$T$110, DW_AT_name("__vm_paddr_t")
    2685                            .dwattr $C$DW$T$110, DW_AT_type(*$C$DW$T$26)
    2686                            .dwattr $C$DW$T$110, DW_AT_language(DW_LANG_C)
    2687                            .dwattr $C$DW$T$110, DW_AT_decl_file("/home/pola/ti/ccsv8/tools/compiler/ti-cgt-arm_18.1.1.LTS
    2688                            .dwattr $C$DW$T$110, DW_AT_decl_line(0x73)
    2689                            .dwattr $C$DW$T$110, DW_AT_decl_column(0x14)
    2690                    
    2691                    $C$DW$T$111     .dwtag  DW_TAG_typedef
    2692                            .dwattr $C$DW$T$111, DW_AT_name("__vm_size_t")
    2693                            .dwattr $C$DW$T$111, DW_AT_type(*$C$DW$T$26)
    2694                            .dwattr $C$DW$T$111, DW_AT_language(DW_LANG_C)
    2695                            .dwattr $C$DW$T$111, DW_AT_decl_file("/home/pola/ti/ccsv8/tools/compiler/ti-cgt-arm_18.1.1.LTS
TI ARM Assembler Unix v18.1.1 Fri Jul  3 20:08:25 2020

Tools Copyright (c) 1996-2017 Texas Instruments Incorporated
onewire.asm                                                          PAGE   50

    2696                            .dwattr $C$DW$T$111, DW_AT_decl_line(0x74)
    2697                            .dwattr $C$DW$T$111, DW_AT_decl_column(0x14)
    2698                    
    2699                    $C$DW$T$27      .dwtag  DW_TAG_typedef
    2700                            .dwattr $C$DW$T$27, DW_AT_name("uint32_t")
    2701                            .dwattr $C$DW$T$27, DW_AT_type(*$C$DW$T$26)
    2702                            .dwattr $C$DW$T$27, DW_AT_language(DW_LANG_C)
    2703                            .dwattr $C$DW$T$27, DW_AT_decl_file("/home/pola/ti/ccsv8/tools/compiler/ti-cgt-arm_18.1.1.LTS/
    2704                            .dwattr $C$DW$T$27, DW_AT_decl_line(0x42)
    2705                            .dwattr $C$DW$T$27, DW_AT_decl_column(0x15)
    2706                    
    2707                    $C$DW$T$33      .dwtag  DW_TAG_pointer_type
    2708                            .dwattr $C$DW$T$33, DW_AT_type(*$C$DW$T$27)
    2709                            .dwattr $C$DW$T$33, DW_AT_address_class(0x20)
    2710                    
    2711                    $C$DW$T$118     .dwtag  DW_TAG_typedef
    2712                            .dwattr $C$DW$T$118, DW_AT_name("__useconds_t")
    2713                            .dwattr $C$DW$T$118, DW_AT_type(*$C$DW$T$11)
    2714                            .dwattr $C$DW$T$118, DW_AT_language(DW_LANG_C)
    2715                            .dwattr $C$DW$T$118, DW_AT_decl_file("/home/pola/ti/ccsv8/tools/compiler/ti-cgt-arm_18.1.1.LTS
    2716                            .dwattr $C$DW$T$118, DW_AT_decl_line(0x49)
    2717                            .dwattr $C$DW$T$118, DW_AT_decl_column(0x16)
    2718                    
    2719                    $C$DW$T$12      .dwtag  DW_TAG_base_type
    2720                            .dwattr $C$DW$T$12, DW_AT_encoding(DW_ATE_signed)
    2721                            .dwattr $C$DW$T$12, DW_AT_name("long")
    2722                            .dwattr $C$DW$T$12, DW_AT_byte_size(0x04)
    2723                    
    2724                    $C$DW$T$119     .dwtag  DW_TAG_typedef
    2725                            .dwattr $C$DW$T$119, DW_AT_name("__key_t")
    2726                            .dwattr $C$DW$T$119, DW_AT_type(*$C$DW$T$12)
    2727                            .dwattr $C$DW$T$119, DW_AT_language(DW_LANG_C)
    2728                            .dwattr $C$DW$T$119, DW_AT_decl_file("/home/pola/ti/ccsv8/tools/compiler/ti-cgt-arm_18.1.1.LTS
    2729                            .dwattr $C$DW$T$119, DW_AT_decl_line(0x37)
    2730                            .dwattr $C$DW$T$119, DW_AT_decl_column(0x0f)
    2731                    
    2732                    $C$DW$T$120     .dwtag  DW_TAG_typedef
    2733                            .dwattr $C$DW$T$120, DW_AT_name("__suseconds_t")
    2734                            .dwattr $C$DW$T$120, DW_AT_type(*$C$DW$T$12)
    2735                            .dwattr $C$DW$T$120, DW_AT_language(DW_LANG_C)
    2736                            .dwattr $C$DW$T$120, DW_AT_decl_file("/home/pola/ti/ccsv8/tools/compiler/ti-cgt-arm_18.1.1.LTS
    2737                            .dwattr $C$DW$T$120, DW_AT_decl_line(0x45)
    2738                            .dwattr $C$DW$T$120, DW_AT_decl_column(0x0f)
    2739                    
    2740                    $C$DW$T$13      .dwtag  DW_TAG_base_type
    2741                            .dwattr $C$DW$T$13, DW_AT_encoding(DW_ATE_unsigned)
    2742                            .dwattr $C$DW$T$13, DW_AT_name("unsigned long")
    2743                            .dwattr $C$DW$T$13, DW_AT_byte_size(0x04)
    2744                    
    2745                    $C$DW$T$14      .dwtag  DW_TAG_base_type
    2746                            .dwattr $C$DW$T$14, DW_AT_encoding(DW_ATE_signed)
    2747                            .dwattr $C$DW$T$14, DW_AT_name("long long")
    2748                            .dwattr $C$DW$T$14, DW_AT_byte_size(0x08)
    2749                    
    2750                    $C$DW$T$121     .dwtag  DW_TAG_typedef
TI ARM Assembler Unix v18.1.1 Fri Jul  3 20:08:25 2020

Tools Copyright (c) 1996-2017 Texas Instruments Incorporated
onewire.asm                                                          PAGE   51

    2751                            .dwattr $C$DW$T$121, DW_AT_name("__int64_t")
    2752                            .dwattr $C$DW$T$121, DW_AT_type(*$C$DW$T$14)
    2753                            .dwattr $C$DW$T$121, DW_AT_language(DW_LANG_C)
    2754                            .dwattr $C$DW$T$121, DW_AT_decl_file("/home/pola/ti/ccsv8/tools/compiler/ti-cgt-arm_18.1.1.LTS
    2755                            .dwattr $C$DW$T$121, DW_AT_decl_line(0x43)
    2756                            .dwattr $C$DW$T$121, DW_AT_decl_column(0x14)
    2757                    
    2758                    $C$DW$T$122     .dwtag  DW_TAG_typedef
    2759                            .dwattr $C$DW$T$122, DW_AT_name("__blkcnt_t")
    2760                            .dwattr $C$DW$T$122, DW_AT_type(*$C$DW$T$121)
    2761                            .dwattr $C$DW$T$122, DW_AT_language(DW_LANG_C)
    2762                            .dwattr $C$DW$T$122, DW_AT_decl_file("/home/pola/ti/ccsv8/tools/compiler/ti-cgt-arm_18.1.1.LTS
    2763                            .dwattr $C$DW$T$122, DW_AT_decl_line(0x2f)
    2764                            .dwattr $C$DW$T$122, DW_AT_decl_column(0x13)
    2765                    
    2766                    $C$DW$T$123     .dwtag  DW_TAG_typedef
    2767                            .dwattr $C$DW$T$123, DW_AT_name("__id_t")
    2768                            .dwattr $C$DW$T$123, DW_AT_type(*$C$DW$T$121)
    2769                            .dwattr $C$DW$T$123, DW_AT_language(DW_LANG_C)
    2770                            .dwattr $C$DW$T$123, DW_AT_decl_file("/home/pola/ti/ccsv8/tools/compiler/ti-cgt-arm_18.1.1.LTS
    2771                            .dwattr $C$DW$T$123, DW_AT_decl_line(0x35)
    2772                            .dwattr $C$DW$T$123, DW_AT_decl_column(0x13)
    2773                    
    2774                    $C$DW$T$124     .dwtag  DW_TAG_typedef
    2775                            .dwattr $C$DW$T$124, DW_AT_name("__int_fast64_t")
    2776                            .dwattr $C$DW$T$124, DW_AT_type(*$C$DW$T$121)
    2777                            .dwattr $C$DW$T$124, DW_AT_language(DW_LANG_C)
    2778                            .dwattr $C$DW$T$124, DW_AT_decl_file("/home/pola/ti/ccsv8/tools/compiler/ti-cgt-arm_18.1.1.LTS
    2779                            .dwattr $C$DW$T$124, DW_AT_decl_line(0x57)
    2780                            .dwattr $C$DW$T$124, DW_AT_decl_column(0x13)
    2781                    
    2782                    $C$DW$T$125     .dwtag  DW_TAG_typedef
    2783                            .dwattr $C$DW$T$125, DW_AT_name("int_fast64_t")
    2784                            .dwattr $C$DW$T$125, DW_AT_type(*$C$DW$T$124)
    2785                            .dwattr $C$DW$T$125, DW_AT_language(DW_LANG_C)
    2786                            .dwattr $C$DW$T$125, DW_AT_decl_file("/home/pola/ti/ccsv8/tools/compiler/ti-cgt-arm_18.1.1.LTS
    2787                            .dwattr $C$DW$T$125, DW_AT_decl_line(0x35)
    2788                            .dwattr $C$DW$T$125, DW_AT_decl_column(0x19)
    2789                    
    2790                    $C$DW$T$126     .dwtag  DW_TAG_typedef
    2791                            .dwattr $C$DW$T$126, DW_AT_name("__int_least64_t")
    2792                            .dwattr $C$DW$T$126, DW_AT_type(*$C$DW$T$121)
    2793                            .dwattr $C$DW$T$126, DW_AT_language(DW_LANG_C)
    2794                            .dwattr $C$DW$T$126, DW_AT_decl_file("/home/pola/ti/ccsv8/tools/compiler/ti-cgt-arm_18.1.1.LTS
    2795                            .dwattr $C$DW$T$126, DW_AT_decl_line(0x5b)
    2796                            .dwattr $C$DW$T$126, DW_AT_decl_column(0x13)
    2797                    
    2798                    $C$DW$T$127     .dwtag  DW_TAG_typedef
    2799                            .dwattr $C$DW$T$127, DW_AT_name("int_least64_t")
    2800                            .dwattr $C$DW$T$127, DW_AT_type(*$C$DW$T$126)
    2801                            .dwattr $C$DW$T$127, DW_AT_language(DW_LANG_C)
    2802                            .dwattr $C$DW$T$127, DW_AT_decl_file("/home/pola/ti/ccsv8/tools/compiler/ti-cgt-arm_18.1.1.LTS
    2803                            .dwattr $C$DW$T$127, DW_AT_decl_line(0x2b)
    2804                            .dwattr $C$DW$T$127, DW_AT_decl_column(0x1a)
    2805                    
TI ARM Assembler Unix v18.1.1 Fri Jul  3 20:08:25 2020

Tools Copyright (c) 1996-2017 Texas Instruments Incorporated
onewire.asm                                                          PAGE   52

    2806                    $C$DW$T$128     .dwtag  DW_TAG_typedef
    2807                            .dwattr $C$DW$T$128, DW_AT_name("__intmax_t")
    2808                            .dwattr $C$DW$T$128, DW_AT_type(*$C$DW$T$121)
    2809                            .dwattr $C$DW$T$128, DW_AT_language(DW_LANG_C)
    2810                            .dwattr $C$DW$T$128, DW_AT_decl_file("/home/pola/ti/ccsv8/tools/compiler/ti-cgt-arm_18.1.1.LTS
    2811                            .dwattr $C$DW$T$128, DW_AT_decl_line(0x52)
    2812                            .dwattr $C$DW$T$128, DW_AT_decl_column(0x13)
    2813                    
    2814                    $C$DW$T$129     .dwtag  DW_TAG_typedef
    2815                            .dwattr $C$DW$T$129, DW_AT_name("intmax_t")
    2816                            .dwattr $C$DW$T$129, DW_AT_type(*$C$DW$T$128)
    2817                            .dwattr $C$DW$T$129, DW_AT_language(DW_LANG_C)
    2818                            .dwattr $C$DW$T$129, DW_AT_decl_file("/home/pola/ti/ccsv8/tools/compiler/ti-cgt-arm_18.1.1.LTS
    2819                            .dwattr $C$DW$T$129, DW_AT_decl_line(0x54)
    2820                            .dwattr $C$DW$T$129, DW_AT_decl_column(0x15)
    2821                    
    2822                    $C$DW$T$130     .dwtag  DW_TAG_typedef
    2823                            .dwattr $C$DW$T$130, DW_AT_name("__off64_t")
    2824                            .dwattr $C$DW$T$130, DW_AT_type(*$C$DW$T$121)
    2825                            .dwattr $C$DW$T$130, DW_AT_language(DW_LANG_C)
    2826                            .dwattr $C$DW$T$130, DW_AT_decl_file("/home/pola/ti/ccsv8/tools/compiler/ti-cgt-arm_18.1.1.LTS
    2827                            .dwattr $C$DW$T$130, DW_AT_decl_line(0x3e)
    2828                            .dwattr $C$DW$T$130, DW_AT_decl_column(0x13)
    2829                    
    2830                    $C$DW$T$131     .dwtag  DW_TAG_typedef
    2831                            .dwattr $C$DW$T$131, DW_AT_name("__off_t")
    2832                            .dwattr $C$DW$T$131, DW_AT_type(*$C$DW$T$121)
    2833                            .dwattr $C$DW$T$131, DW_AT_language(DW_LANG_C)
    2834                            .dwattr $C$DW$T$131, DW_AT_decl_file("/home/pola/ti/ccsv8/tools/compiler/ti-cgt-arm_18.1.1.LTS
    2835                            .dwattr $C$DW$T$131, DW_AT_decl_line(0x3d)
    2836                            .dwattr $C$DW$T$131, DW_AT_decl_column(0x13)
    2837                    
    2838                    $C$DW$T$132     .dwtag  DW_TAG_typedef
    2839                            .dwattr $C$DW$T$132, DW_AT_name("__rlim_t")
    2840                            .dwattr $C$DW$T$132, DW_AT_type(*$C$DW$T$121)
    2841                            .dwattr $C$DW$T$132, DW_AT_language(DW_LANG_C)
    2842                            .dwattr $C$DW$T$132, DW_AT_decl_file("/home/pola/ti/ccsv8/tools/compiler/ti-cgt-arm_18.1.1.LTS
    2843                            .dwattr $C$DW$T$132, DW_AT_decl_line(0x40)
    2844                            .dwattr $C$DW$T$132, DW_AT_decl_column(0x13)
    2845                    
    2846                    $C$DW$T$133     .dwtag  DW_TAG_typedef
    2847                            .dwattr $C$DW$T$133, DW_AT_name("int64_t")
    2848                            .dwattr $C$DW$T$133, DW_AT_type(*$C$DW$T$121)
    2849                            .dwattr $C$DW$T$133, DW_AT_language(DW_LANG_C)
    2850                            .dwattr $C$DW$T$133, DW_AT_decl_file("/home/pola/ti/ccsv8/tools/compiler/ti-cgt-arm_18.1.1.LTS
    2851                            .dwattr $C$DW$T$133, DW_AT_decl_line(0x33)
    2852                            .dwattr $C$DW$T$133, DW_AT_decl_column(0x14)
    2853                    
    2854                    $C$DW$T$15      .dwtag  DW_TAG_base_type
    2855                            .dwattr $C$DW$T$15, DW_AT_encoding(DW_ATE_unsigned)
    2856                            .dwattr $C$DW$T$15, DW_AT_name("unsigned long long")
    2857                            .dwattr $C$DW$T$15, DW_AT_byte_size(0x08)
    2858                    
    2859                    $C$DW$T$134     .dwtag  DW_TAG_typedef
    2860                            .dwattr $C$DW$T$134, DW_AT_name("__uint64_t")
TI ARM Assembler Unix v18.1.1 Fri Jul  3 20:08:25 2020

Tools Copyright (c) 1996-2017 Texas Instruments Incorporated
onewire.asm                                                          PAGE   53

    2861                            .dwattr $C$DW$T$134, DW_AT_type(*$C$DW$T$15)
    2862                            .dwattr $C$DW$T$134, DW_AT_language(DW_LANG_C)
    2863                            .dwattr $C$DW$T$134, DW_AT_decl_file("/home/pola/ti/ccsv8/tools/compiler/ti-cgt-arm_18.1.1.LTS
    2864                            .dwattr $C$DW$T$134, DW_AT_decl_line(0x48)
    2865                            .dwattr $C$DW$T$134, DW_AT_decl_column(0x1c)
    2866                    
    2867                    $C$DW$T$135     .dwtag  DW_TAG_typedef
    2868                            .dwattr $C$DW$T$135, DW_AT_name("__dev_t")
    2869                            .dwattr $C$DW$T$135, DW_AT_type(*$C$DW$T$134)
    2870                            .dwattr $C$DW$T$135, DW_AT_language(DW_LANG_C)
    2871                            .dwattr $C$DW$T$135, DW_AT_decl_file("/home/pola/ti/ccsv8/tools/compiler/ti-cgt-arm_18.1.1.LTS
    2872                            .dwattr $C$DW$T$135, DW_AT_decl_line(0x74)
    2873                            .dwattr $C$DW$T$135, DW_AT_decl_column(0x14)
    2874                    
    2875                    $C$DW$T$136     .dwtag  DW_TAG_typedef
    2876                            .dwattr $C$DW$T$136, DW_AT_name("__fsblkcnt_t")
    2877                            .dwattr $C$DW$T$136, DW_AT_type(*$C$DW$T$134)
    2878                            .dwattr $C$DW$T$136, DW_AT_language(DW_LANG_C)
    2879                            .dwattr $C$DW$T$136, DW_AT_decl_file("/home/pola/ti/ccsv8/tools/compiler/ti-cgt-arm_18.1.1.LTS
    2880                            .dwattr $C$DW$T$136, DW_AT_decl_line(0x32)
    2881                            .dwattr $C$DW$T$136, DW_AT_decl_column(0x14)
    2882                    
    2883                    $C$DW$T$137     .dwtag  DW_TAG_typedef
    2884                            .dwattr $C$DW$T$137, DW_AT_name("__fsfilcnt_t")
    2885                            .dwattr $C$DW$T$137, DW_AT_type(*$C$DW$T$134)
    2886                            .dwattr $C$DW$T$137, DW_AT_language(DW_LANG_C)
