TI ARM Assembler Unix v18.1.1 Fri Jul  3 20:08:25 2020

Tools Copyright (c) 1996-2017 Texas Instruments Incorporated
pwm.asm                                                              PAGE    1

       1                    ;******************************************************************************
       2                    ;* TI ARM C/C++ Codegen                                      Unix v18.1.1.LTS *
       3                    ;* Date/Time created: Fri Jul  3 20:08:25 2020                                *
       4                    ;******************************************************************************
       5                            .compiler_opts --abi=eabi --arm_vmrs_si_workaround=off --code_state=16 --diag_wrap=off --embed
       6 00000000                   .thumb
       7                    
       8                    $C$DW$CU        .dwtag  DW_TAG_compile_unit
       9                            .dwattr $C$DW$CU, DW_AT_name("../driverlib/pwm.c")
      10                            .dwattr $C$DW$CU, DW_AT_producer("TI TI ARM C/C++ Codegen Unix v18.1.1.LTS Copyright (c) 1996-
      11                            .dwattr $C$DW$CU, DW_AT_TI_version(0x01)
      12                            .dwattr $C$DW$CU, DW_AT_comp_dir("/home/pola/workspace_v8/Microwave/Debug")
      13                    
      14                    $C$DW$1 .dwtag  DW_TAG_subprogram
      15                            .dwattr $C$DW$1, DW_AT_name("IntRegister")
      16                            .dwattr $C$DW$1, DW_AT_TI_symbol_name("IntRegister")
      17                            .dwattr $C$DW$1, DW_AT_declaration
      18                            .dwattr $C$DW$1, DW_AT_external
      19                            .dwattr $C$DW$1, DW_AT_decl_file("/home/pola/workspace_v8/Microwave/driverlib/interrupt.h")
      20                            .dwattr $C$DW$1, DW_AT_decl_line(0x45)
      21                            .dwattr $C$DW$1, DW_AT_decl_column(0x0d)
      22                    $C$DW$2 .dwtag  DW_TAG_formal_parameter
      23                            .dwattr $C$DW$2, DW_AT_type(*$C$DW$T$27)
      24                    
      25                    $C$DW$3 .dwtag  DW_TAG_formal_parameter
      26                            .dwattr $C$DW$3, DW_AT_type(*$C$DW$T$25)
      27                    
      28                            .dwendtag $C$DW$1
      29                    
      30                    
      31                    $C$DW$4 .dwtag  DW_TAG_subprogram
      32                            .dwattr $C$DW$4, DW_AT_name("IntEnable")
      33                            .dwattr $C$DW$4, DW_AT_TI_symbol_name("IntEnable")
      34                            .dwattr $C$DW$4, DW_AT_declaration
      35                            .dwattr $C$DW$4, DW_AT_external
      36                            .dwattr $C$DW$4, DW_AT_decl_file("/home/pola/workspace_v8/Microwave/driverlib/interrupt.h")
      37                            .dwattr $C$DW$4, DW_AT_decl_line(0x4c)
      38                            .dwattr $C$DW$4, DW_AT_decl_column(0x0d)
      39                    $C$DW$5 .dwtag  DW_TAG_formal_parameter
      40                            .dwattr $C$DW$5, DW_AT_type(*$C$DW$T$27)
      41                    
      42                            .dwendtag $C$DW$4
      43                    
      44                    
      45                    $C$DW$6 .dwtag  DW_TAG_subprogram
      46                            .dwattr $C$DW$6, DW_AT_name("IntDisable")
      47                            .dwattr $C$DW$6, DW_AT_TI_symbol_name("IntDisable")
      48                            .dwattr $C$DW$6, DW_AT_declaration
      49                            .dwattr $C$DW$6, DW_AT_external
      50                            .dwattr $C$DW$6, DW_AT_decl_file("/home/pola/workspace_v8/Microwave/driverlib/interrupt.h")
      51                            .dwattr $C$DW$6, DW_AT_decl_line(0x4d)
      52                            .dwattr $C$DW$6, DW_AT_decl_column(0x0d)
      53                    $C$DW$7 .dwtag  DW_TAG_formal_parameter
      54                            .dwattr $C$DW$7, DW_AT_type(*$C$DW$T$27)
      55                    
TI ARM Assembler Unix v18.1.1 Fri Jul  3 20:08:25 2020

Tools Copyright (c) 1996-2017 Texas Instruments Incorporated
pwm.asm                                                              PAGE    2

      56                            .dwendtag $C$DW$6
      57                    
      58                    
      59                    $C$DW$8 .dwtag  DW_TAG_subprogram
      60                            .dwattr $C$DW$8, DW_AT_name("IntUnregister")
      61                            .dwattr $C$DW$8, DW_AT_TI_symbol_name("IntUnregister")
      62                            .dwattr $C$DW$8, DW_AT_declaration
      63                            .dwattr $C$DW$8, DW_AT_external
      64                            .dwattr $C$DW$8, DW_AT_decl_file("/home/pola/workspace_v8/Microwave/driverlib/interrupt.h")
      65                            .dwattr $C$DW$8, DW_AT_decl_line(0x46)
      66                            .dwattr $C$DW$8, DW_AT_decl_column(0x0d)
      67                    $C$DW$9 .dwtag  DW_TAG_formal_parameter
      68                            .dwattr $C$DW$9, DW_AT_type(*$C$DW$T$27)
      69                    
      70                            .dwendtag $C$DW$8
      71                    
      72                    ;       /home/pola/ti/ccsv8/tools/compiler/ti-cgt-arm_18.1.1.LTS/bin/armacpia -@/tmp/TI3R65zd6Gp 
      73 00000000                   .sect   ".text"
      74                            .clink
      75                            .thumbfunc PWMGenConfigure
      76 00000000                   .thumb
      77                            .global PWMGenConfigure
      78                    
      79                    $C$DW$10        .dwtag  DW_TAG_subprogram
      80                            .dwattr $C$DW$10, DW_AT_name("PWMGenConfigure")
      81                            .dwattr $C$DW$10, DW_AT_low_pc(PWMGenConfigure)
      82                            .dwattr $C$DW$10, DW_AT_high_pc(0x00)
      83                            .dwattr $C$DW$10, DW_AT_TI_symbol_name("PWMGenConfigure")
      84                            .dwattr $C$DW$10, DW_AT_external
      85                            .dwattr $C$DW$10, DW_AT_TI_begin_file("../driverlib/pwm.c")
      86                            .dwattr $C$DW$10, DW_AT_TI_begin_line(0xc8)
      87                            .dwattr $C$DW$10, DW_AT_TI_begin_column(0x01)
      88                            .dwattr $C$DW$10, DW_AT_decl_file("../driverlib/pwm.c")
      89                            .dwattr $C$DW$10, DW_AT_decl_line(0xc8)
      90                            .dwattr $C$DW$10, DW_AT_decl_column(0x01)
      91                            .dwattr $C$DW$10, DW_AT_TI_max_frame_size(0x10)
      92                            .dwpsn  file "../driverlib/pwm.c",line 202,column 1,is_stmt,address PWMGenConfigure,isa 1
      93                    
      94                            .dwfde $C$DW$CIE, PWMGenConfigure
      95                    $C$DW$11        .dwtag  DW_TAG_formal_parameter
      96                            .dwattr $C$DW$11, DW_AT_name("ui32Base")
      97                            .dwattr $C$DW$11, DW_AT_TI_symbol_name("ui32Base")
      98                            .dwattr $C$DW$11, DW_AT_type(*$C$DW$T$27)
      99                            .dwattr $C$DW$11, DW_AT_location[DW_OP_reg0]
     100                    
     101                    $C$DW$12        .dwtag  DW_TAG_formal_parameter
     102                            .dwattr $C$DW$12, DW_AT_name("ui32Gen")
     103                            .dwattr $C$DW$12, DW_AT_TI_symbol_name("ui32Gen")
     104                            .dwattr $C$DW$12, DW_AT_type(*$C$DW$T$27)
     105                            .dwattr $C$DW$12, DW_AT_location[DW_OP_reg1]
     106                    
     107                    $C$DW$13        .dwtag  DW_TAG_formal_parameter
     108                            .dwattr $C$DW$13, DW_AT_name("ui32Config")
     109                            .dwattr $C$DW$13, DW_AT_TI_symbol_name("ui32Config")
     110                            .dwattr $C$DW$13, DW_AT_type(*$C$DW$T$27)
TI ARM Assembler Unix v18.1.1 Fri Jul  3 20:08:25 2020

Tools Copyright (c) 1996-2017 Texas Instruments Incorporated
pwm.asm                                                              PAGE    3

     111                            .dwattr $C$DW$13, DW_AT_location[DW_OP_reg2]
     112                    
     113                    ;----------------------------------------------------------------------
     114                    ; 200 | PWMGenConfigure(uint32_t ui32Base, uint32_t ui32Gen,                   
     115                    ; 201 | uint32_t ui32Config)                                                   
     116                    ;----------------------------------------------------------------------
     117                    
     118                    ;*****************************************************************************
     119                    ;* FUNCTION NAME: PWMGenConfigure                                            *
     120                    ;*                                                                           *
     121                    ;*   Regs Modified     : A1,A2,A3,SP,SR                                      *
     122                    ;*   Regs Used         : A1,A2,A3,SP,LR,SR                                   *
     123                    ;*   Local Frame Size  : 0 Args + 12 Auto + 0 Save = 12 byte                 *
     124                    ;*****************************************************************************
     125 00000000           PWMGenConfigure:
     126                    ;* --------------------------------------------------------------------------*
     127                            .dwcfi  cfa_offset, 0
     128 00000000 0D10F1AD          SUB       SP, SP, #16           ; [DPU_V7M3_PIPE]  ; [KEEP 32-BIT INS]
     129                            .dwcfi  cfa_offset, 16
     130                    $C$DW$14        .dwtag  DW_TAG_variable
     131                            .dwattr $C$DW$14, DW_AT_name("ui32Base")
     132                            .dwattr $C$DW$14, DW_AT_TI_symbol_name("ui32Base")
     133                            .dwattr $C$DW$14, DW_AT_type(*$C$DW$T$27)
     134                            .dwattr $C$DW$14, DW_AT_location[DW_OP_breg13 0]
     135                    
     136                    $C$DW$15        .dwtag  DW_TAG_variable
     137                            .dwattr $C$DW$15, DW_AT_name("ui32Gen")
     138                            .dwattr $C$DW$15, DW_AT_TI_symbol_name("ui32Gen")
     139                            .dwattr $C$DW$15, DW_AT_type(*$C$DW$T$27)
     140                            .dwattr $C$DW$15, DW_AT_location[DW_OP_breg13 4]
     141                    
     142                    $C$DW$16        .dwtag  DW_TAG_variable
     143                            .dwattr $C$DW$16, DW_AT_name("ui32Config")
     144                            .dwattr $C$DW$16, DW_AT_TI_symbol_name("ui32Config")
     145                            .dwattr $C$DW$16, DW_AT_type(*$C$DW$T$27)
     146                            .dwattr $C$DW$16, DW_AT_location[DW_OP_breg13 8]
     147                    
     148                    ;----------------------------------------------------------------------
     149                    ; 203 | //                                                                     
     150                    ; 204 | // Check the arguments.                                                
     151                    ; 205 | //                                                                     
     152                    ; 206 | ASSERT((ui32Base == PWM0_BASE) || (ui32Base == PWM1_BASE));            
     153                    ; 207 | ASSERT(_PWMGenValid(ui32Gen));                                         
     154                    ; 209 | //                                                                     
     155                    ; 210 | // Compute the generator's base address.                               
     156                    ; 211 | //                                                                     
     157                    ;----------------------------------------------------------------------
     158 00000004 9202              STR       A3, [SP, #8]          ; [DPU_V7M3_PIPE] |202|  ; [ORIG 16-BIT INS]
     159 00000006 9101              STR       A2, [SP, #4]          ; [DPU_V7M3_PIPE] |202|  ; [ORIG 16-BIT INS]
     160 00000008 9000              STR       A1, [SP, #0]          ; [DPU_V7M3_PIPE] |202|  ; [ORIG 16-BIT INS]
     161                            .dwpsn  file "../driverlib/pwm.c",line 212,column 5,is_stmt,isa 1
     162                    ;----------------------------------------------------------------------
     163                    ; 212 | ui32Gen = PWM_GEN_BADDR(ui32Base, ui32Gen);                            
     164                    ; 214 | //                                                                     
     165                    ; 215 | // Change the global configuration of the generator.                   
TI ARM Assembler Unix v18.1.1 Fri Jul  3 20:08:25 2020

Tools Copyright (c) 1996-2017 Texas Instruments Incorporated
pwm.asm                                                              PAGE    4

     166                    ; 216 | //                                                                     
     167                    ;----------------------------------------------------------------------
     168 0000000a 9901              LDR       A2, [SP, #4]          ; [DPU_V7M3_PIPE] |212|  ; [ORIG 16-BIT INS]
     169 0000000c 9800              LDR       A1, [SP, #0]          ; [DPU_V7M3_PIPE] |212|  ; [ORIG 16-BIT INS]
     170 0000000e 1840              ADDS      A1, A1, A2            ; [DPU_V7M3_PIPE] |212|  ; [ORIG 16-BIT INS]
     171 00000010 9001              STR       A1, [SP, #4]          ; [DPU_V7M3_PIPE] |212|  ; [ORIG 16-BIT INS]
     172                            .dwpsn  file "../driverlib/pwm.c",line 217,column 5,is_stmt,isa 1
     173                    ;----------------------------------------------------------------------
     174                    ; 217 | HWREG(ui32Gen + PWM_O_X_CTL) = ((HWREG(ui32Gen + PWM_O_X_CTL) &        
     175                    ; 218 |                                  ~(PWM_X_CTL_MODE | PWM_X_CTL_DEBUG |  
     176                    ; 219 |                                    PWM_X_CTL_LATCH | PWM_X_CTL_MINFLTPE
     177                    ;     | R |                                                                    
     178                    ; 220 |                                    PWM_X_CTL_FLTSRC |                  
     179                    ; 221 |                                    PWM_X_CTL_DBFALLUPD_M |             
     180                    ; 222 |                                    PWM_X_CTL_DBRISEUPD_M |             
     181                    ; 223 |                                    PWM_X_CTL_DBCTLUPD_M |              
     182                    ; 224 |                                    PWM_X_CTL_GENBUPD_M |               
     183                    ; 225 |                                    PWM_X_CTL_GENAUPD_M |               
     184                    ; 226 |                                    PWM_X_CTL_LOADUPD | PWM_X_CTL_CMPAUP
     185                    ;     | D |                                                                    
     186                    ; 227 |                                    PWM_X_CTL_CMPBUPD)) | ui32Config);  
     187                    ; 229 | //                                                                     
     188                    ; 230 | // Set the individual PWM generator controls.                          
     189                    ; 231 | //                                                                     
     190                    ;----------------------------------------------------------------------
     191 00000012 9801              LDR       A1, [SP, #4]          ; [DPU_V7M3_PIPE] |217|  ; [ORIG 16-BIT INS]
     192 00000014 9901              LDR       A2, [SP, #4]          ; [DPU_V7M3_PIPE] |217|  ; [ORIG 16-BIT INS]
     193 00000016 6802              LDR       A3, [A1, #0]          ; [DPU_V7M3_PIPE] |217|  ; [ORIG 16-BIT INS]
     194 00000018 9802              LDR       A1, [SP, #8]          ; [DPU_V7M3_PIPE] |217|  ; [ORIG 16-BIT INS]
     195 0000001a 0252F36F          BFC       A3, #1, #18           ; [DPU_V7M3_PIPE] |217|  ; [KEEP 32-BIT INS]
     196 0000001e 4310              ORRS      A1, A1, A3            ; [DPU_V7M3_PIPE] |217|  ; [ORIG 16-BIT INS]
     197 00000020 6008              STR       A1, [A2, #0]          ; [DPU_V7M3_PIPE] |217|  ; [ORIG 16-BIT INS]
     198                            .dwpsn  file "../driverlib/pwm.c",line 232,column 5,is_stmt,isa 1
     199                    ;----------------------------------------------------------------------
     200                    ; 232 | if(ui32Config & PWM_X_CTL_MODE)                                        
     201                    ; 234 |     //                                                                 
     202                    ; 235 |     // In up/down count mode, set the signal high on up count compariso
     203                    ;     | n                                                                      
     204                    ; 236 |     // and low on down count comparison (that is, center align the     
     205                    ; 237 |     // signals).                                                       
     206                    ; 238 |     //                                                                 
     207                    ;----------------------------------------------------------------------
     208 00000022 9802              LDR       A1, [SP, #8]          ; [DPU_V7M3_PIPE] |232|  ; [ORIG 16-BIT INS]
     209 00000024 0880              LSRS      A1, A1, #2            ; [DPU_V7M3_PIPE] |232|  ; [ORIG 16-BIT INS]
     210 00000026 D307              BCC       ||$C$L1||             ; [DPU_V7M3_PIPE] |232|  ; [ORIG 16-BIT INS]
     211                            ; BRANCHCC OCCURS {||$C$L1||}    ; [] |232| 
     212                    ;* --------------------------------------------------------------------------*
     213                            .dwpsn  file "../driverlib/pwm.c",line 239,column 9,is_stmt,isa 1
     214                    ;----------------------------------------------------------------------
     215                    ; 239 | HWREG(ui32Gen + PWM_O_X_GENA) = (PWM_X_GENA_ACTCMPAU_ONE |             
     216                    ; 240 |                                  PWM_X_GENA_ACTCMPAD_ZERO);            
     217                    ;----------------------------------------------------------------------
     218 00000028 9801              LDR       A1, [SP, #4]          ; [DPU_V7M3_PIPE] |239|  ; [ORIG 16-BIT INS]
     219 0000002a 21B0              MOVS      A2, #176              ; [DPU_V7M3_PIPE] |239|  ; [ORIG 16-BIT INS]
     220 0000002c 6201              STR       A2, [A1, #32]         ; [DPU_V7M3_PIPE] |239|  ; [ORIG 16-BIT INS]
TI ARM Assembler Unix v18.1.1 Fri Jul  3 20:08:25 2020

Tools Copyright (c) 1996-2017 Texas Instruments Incorporated
pwm.asm                                                              PAGE    5

     221                            .dwpsn  file "../driverlib/pwm.c",line 241,column 9,is_stmt,isa 1
     222                    ;----------------------------------------------------------------------
     223                    ; 241 | HWREG(ui32Gen + PWM_O_X_GENB) = (PWM_X_GENB_ACTCMPBU_ONE |             
     224                    ; 242 |                                  PWM_X_GENB_ACTCMPBD_ZERO);            
     225                    ;----------------------------------------------------------------------
     226 0000002e 9801              LDR       A1, [SP, #4]          ; [DPU_V7M3_PIPE] |241|  ; [ORIG 16-BIT INS]
     227 00000030 6130F44F          MOV       A2, #2816             ; [DPU_V7M3_PIPE] |241|  ; [KEEP 32-BIT INS]
     228 00000034 6241              STR       A2, [A1, #36]         ; [DPU_V7M3_PIPE] |241|  ; [ORIG 16-BIT INS]
     229                            .dwpsn  file "../driverlib/pwm.c",line 243,column 5,is_stmt,isa 1
     230                    ;----------------------------------------------------------------------
     231                    ; 244 | else                                                                   
     232                    ; 246 |     //                                                                 
     233                    ; 247 |     // In down count mode, set the signal high on load and low on count
     234                    ; 248 |     // comparison (that is, left align the signals).                   
     235                    ; 249 |     //                                                                 
     236                    ;----------------------------------------------------------------------
     237 00000036 E006              B         ||$C$L2||             ; [DPU_V7M3_PIPE] |243|  ; [ORIG 16-BIT INS]
     238                            ; BRANCH OCCURS {||$C$L2||}      ; [] |243| 
     239                    ;* --------------------------------------------------------------------------*
     240 00000038           ||$C$L1||:    
     241                            .dwpsn  file "../driverlib/pwm.c",line 250,column 9,is_stmt,isa 1
     242                    ;----------------------------------------------------------------------
     243                    ; 250 | HWREG(ui32Gen + PWM_O_X_GENA) = (PWM_X_GENA_ACTLOAD_ONE |              
     244                    ; 251 |                                  PWM_X_GENA_ACTCMPAD_ZERO);            
     245                    ;----------------------------------------------------------------------
     246 00000038 9801              LDR       A1, [SP, #4]          ; [DPU_V7M3_PIPE] |250|  ; [ORIG 16-BIT INS]
     247 0000003a 218C              MOVS      A2, #140              ; [DPU_V7M3_PIPE] |250|  ; [ORIG 16-BIT INS]
     248 0000003c 6201              STR       A2, [A1, #32]         ; [DPU_V7M3_PIPE] |250|  ; [ORIG 16-BIT INS]
     249                            .dwpsn  file "../driverlib/pwm.c",line 252,column 9,is_stmt,isa 1
     250                    ;----------------------------------------------------------------------
     251                    ; 252 | HWREG(ui32Gen + PWM_O_X_GENB) = (PWM_X_GENB_ACTLOAD_ONE |              
     252                    ; 253 |                                  PWM_X_GENB_ACTCMPBD_ZERO);            
     253                    ;----------------------------------------------------------------------
     254 0000003e 9801              LDR       A1, [SP, #4]          ; [DPU_V7M3_PIPE] |252|  ; [ORIG 16-BIT INS]
     255 00000040 010CF640          MOV       A2, #2060             ; [DPU_V7M3_PIPE] |252|  ; [KEEP 32-BIT INS]
     256 00000044 6241              STR       A2, [A1, #36]         ; [DPU_V7M3_PIPE] |252|  ; [ORIG 16-BIT INS]
     257                            .dwpsn  file "../driverlib/pwm.c",line 255,column 1,is_stmt,isa 1
     258                    ;* --------------------------------------------------------------------------*
     259 00000046           ||$C$L2||:    
     260 00000046 B004              ADD       SP, SP, #16           ; [DPU_V7M3_PIPE]  ; [ORIG 16-BIT INS]
     261                            .dwcfi  cfa_offset, 0
     262                    $C$DW$17        .dwtag  DW_TAG_TI_branch
     263                            .dwattr $C$DW$17, DW_AT_low_pc(0x00)
     264                            .dwattr $C$DW$17, DW_AT_TI_return
     265                    
     266 00000048 4770              BX        LR                    ; [DPU_V7M3_PIPE]  ; [ORIG 16-BIT INS]
     267                            ; BRANCH OCCURS                  ; [] 
     268                            .dwattr $C$DW$10, DW_AT_TI_end_file("../driverlib/pwm.c")
     269                            .dwattr $C$DW$10, DW_AT_TI_end_line(0xff)
     270                            .dwattr $C$DW$10, DW_AT_TI_end_column(0x01)
     271                            .dwendentry
     272                            .dwendtag $C$DW$10
     273                    
     274 0000004a                   .sect   ".text"
     275                            .clink
TI ARM Assembler Unix v18.1.1 Fri Jul  3 20:08:25 2020

Tools Copyright (c) 1996-2017 Texas Instruments Incorporated
pwm.asm                                                              PAGE    6

     276                            .thumbfunc PWMGenPeriodSet
     277 0000004a                   .thumb
     278                            .global PWMGenPeriodSet
     279                    
     280                    $C$DW$18        .dwtag  DW_TAG_subprogram
     281                            .dwattr $C$DW$18, DW_AT_name("PWMGenPeriodSet")
     282                            .dwattr $C$DW$18, DW_AT_low_pc(PWMGenPeriodSet)
     283                            .dwattr $C$DW$18, DW_AT_high_pc(0x00)
     284                            .dwattr $C$DW$18, DW_AT_TI_symbol_name("PWMGenPeriodSet")
     285                            .dwattr $C$DW$18, DW_AT_external
     286                            .dwattr $C$DW$18, DW_AT_TI_begin_file("../driverlib/pwm.c")
     287                            .dwattr $C$DW$18, DW_AT_TI_begin_line(0x116)
     288                            .dwattr $C$DW$18, DW_AT_TI_begin_column(0x01)
     289                            .dwattr $C$DW$18, DW_AT_decl_file("../driverlib/pwm.c")
     290                            .dwattr $C$DW$18, DW_AT_decl_line(0x116)
     291                            .dwattr $C$DW$18, DW_AT_decl_column(0x01)
     292                            .dwattr $C$DW$18, DW_AT_TI_max_frame_size(0x10)
     293                            .dwpsn  file "../driverlib/pwm.c",line 280,column 1,is_stmt,address PWMGenPeriodSet,isa 1
     294                    
     295                            .dwfde $C$DW$CIE, PWMGenPeriodSet
     296                    $C$DW$19        .dwtag  DW_TAG_formal_parameter
     297                            .dwattr $C$DW$19, DW_AT_name("ui32Base")
     298                            .dwattr $C$DW$19, DW_AT_TI_symbol_name("ui32Base")
     299                            .dwattr $C$DW$19, DW_AT_type(*$C$DW$T$27)
     300                            .dwattr $C$DW$19, DW_AT_location[DW_OP_reg0]
     301                    
     302                    $C$DW$20        .dwtag  DW_TAG_formal_parameter
     303                            .dwattr $C$DW$20, DW_AT_name("ui32Gen")
     304                            .dwattr $C$DW$20, DW_AT_TI_symbol_name("ui32Gen")
     305                            .dwattr $C$DW$20, DW_AT_type(*$C$DW$T$27)
     306                            .dwattr $C$DW$20, DW_AT_location[DW_OP_reg1]
     307                    
     308                    $C$DW$21        .dwtag  DW_TAG_formal_parameter
     309                            .dwattr $C$DW$21, DW_AT_name("ui32Period")
     310                            .dwattr $C$DW$21, DW_AT_TI_symbol_name("ui32Period")
     311                            .dwattr $C$DW$21, DW_AT_type(*$C$DW$T$27)
     312                            .dwattr $C$DW$21, DW_AT_location[DW_OP_reg2]
     313                    
     314                    ;----------------------------------------------------------------------
     315                    ; 278 | PWMGenPeriodSet(uint32_t ui32Base, uint32_t ui32Gen,                   
     316                    ; 279 | uint32_t ui32Period)                                                   
     317                    ;----------------------------------------------------------------------
     318                    
     319                    ;*****************************************************************************
     320                    ;* FUNCTION NAME: PWMGenPeriodSet                                            *
     321                    ;*                                                                           *
     322                    ;*   Regs Modified     : A1,A2,SP,SR                                         *
     323                    ;*   Regs Used         : A1,A2,A3,SP,LR,SR                                   *
     324                    ;*   Local Frame Size  : 0 Args + 12 Auto + 0 Save = 12 byte                 *
     325                    ;*****************************************************************************
     326 0000004a           PWMGenPeriodSet:
     327                    ;* --------------------------------------------------------------------------*
     328                            .dwcfi  cfa_offset, 0
     329 0000004a 0D10F1AD          SUB       SP, SP, #16           ; [DPU_V7M3_PIPE]  ; [KEEP 32-BIT INS]
     330                            .dwcfi  cfa_offset, 16
TI ARM Assembler Unix v18.1.1 Fri Jul  3 20:08:25 2020

Tools Copyright (c) 1996-2017 Texas Instruments Incorporated
pwm.asm                                                              PAGE    7

     331                    $C$DW$22        .dwtag  DW_TAG_variable
     332                            .dwattr $C$DW$22, DW_AT_name("ui32Base")
     333                            .dwattr $C$DW$22, DW_AT_TI_symbol_name("ui32Base")
     334                            .dwattr $C$DW$22, DW_AT_type(*$C$DW$T$27)
     335                            .dwattr $C$DW$22, DW_AT_location[DW_OP_breg13 0]
     336                    
     337                    $C$DW$23        .dwtag  DW_TAG_variable
     338                            .dwattr $C$DW$23, DW_AT_name("ui32Gen")
     339                            .dwattr $C$DW$23, DW_AT_TI_symbol_name("ui32Gen")
     340                            .dwattr $C$DW$23, DW_AT_type(*$C$DW$T$27)
     341                            .dwattr $C$DW$23, DW_AT_location[DW_OP_breg13 4]
     342                    
     343                    $C$DW$24        .dwtag  DW_TAG_variable
     344                            .dwattr $C$DW$24, DW_AT_name("ui32Period")
     345                            .dwattr $C$DW$24, DW_AT_TI_symbol_name("ui32Period")
     346                            .dwattr $C$DW$24, DW_AT_type(*$C$DW$T$27)
     347                            .dwattr $C$DW$24, DW_AT_location[DW_OP_breg13 8]
     348                    
     349                    ;----------------------------------------------------------------------
     350                    ; 281 | //                                                                     
     351                    ; 282 | // Check the arguments.                                                
     352                    ; 283 | //                                                                     
     353                    ; 284 | ASSERT((ui32Base == PWM0_BASE) || (ui32Base == PWM1_BASE));            
     354                    ; 285 | ASSERT(_PWMGenValid(ui32Gen));                                         
     355                    ; 287 | //                                                                     
     356                    ; 288 | // Compute the generator's base address.                               
     357                    ; 289 | //                                                                     
     358                    ;----------------------------------------------------------------------
     359 0000004e 9202              STR       A3, [SP, #8]          ; [DPU_V7M3_PIPE] |280|  ; [ORIG 16-BIT INS]
     360 00000050 9101              STR       A2, [SP, #4]          ; [DPU_V7M3_PIPE] |280|  ; [ORIG 16-BIT INS]
     361 00000052 9000              STR       A1, [SP, #0]          ; [DPU_V7M3_PIPE] |280|  ; [ORIG 16-BIT INS]
     362                            .dwpsn  file "../driverlib/pwm.c",line 290,column 5,is_stmt,isa 1
     363                    ;----------------------------------------------------------------------
     364                    ; 290 | ui32Gen = PWM_GEN_BADDR(ui32Base, ui32Gen);                            
     365                    ; 292 | //                                                                     
     366                    ; 293 | // Set the reload register based on the mode.                          
     367                    ; 294 | //                                                                     
     368                    ;----------------------------------------------------------------------
     369 00000054 9901              LDR       A2, [SP, #4]          ; [DPU_V7M3_PIPE] |290|  ; [ORIG 16-BIT INS]
     370 00000056 9800              LDR       A1, [SP, #0]          ; [DPU_V7M3_PIPE] |290|  ; [ORIG 16-BIT INS]
     371 00000058 1840              ADDS      A1, A1, A2            ; [DPU_V7M3_PIPE] |290|  ; [ORIG 16-BIT INS]
     372 0000005a 9001              STR       A1, [SP, #4]          ; [DPU_V7M3_PIPE] |290|  ; [ORIG 16-BIT INS]
     373                            .dwpsn  file "../driverlib/pwm.c",line 295,column 5,is_stmt,isa 1
     374                    ;----------------------------------------------------------------------
     375                    ; 295 | if(HWREG(ui32Gen + PWM_O_X_CTL) & PWM_X_CTL_MODE)                      
     376                    ; 297 |     //                                                                 
     377                    ; 298 |     // In up/down count mode, set the reload register to half the reque
     378                    ;     | sted                                                                   
     379                    ; 299 |     // period.                                                         
     380                    ; 300 |     //                                                                 
     381                    ; 301 |     ASSERT((ui32Period / 2) < 65536);                                  
     382                    ;----------------------------------------------------------------------
     383 0000005c 9801              LDR       A1, [SP, #4]          ; [DPU_V7M3_PIPE] |295|  ; [ORIG 16-BIT INS]
     384 0000005e 6800              LDR       A1, [A1, #0]          ; [DPU_V7M3_PIPE] |295|  ; [ORIG 16-BIT INS]
     385 00000060 0880              LSRS      A1, A1, #2            ; [DPU_V7M3_PIPE] |295|  ; [ORIG 16-BIT INS]
TI ARM Assembler Unix v18.1.1 Fri Jul  3 20:08:25 2020

Tools Copyright (c) 1996-2017 Texas Instruments Incorporated
pwm.asm                                                              PAGE    8

     386 00000062 D304              BCC       ||$C$L3||             ; [DPU_V7M3_PIPE] |295|  ; [ORIG 16-BIT INS]
     387                            ; BRANCHCC OCCURS {||$C$L3||}    ; [] |295| 
     388                    ;* --------------------------------------------------------------------------*
     389                            .dwpsn  file "../driverlib/pwm.c",line 302,column 9,is_stmt,isa 1
     390                    ;----------------------------------------------------------------------
     391                    ; 302 | HWREG(ui32Gen + PWM_O_X_LOAD) = ui32Period / 2;                        
     392                    ;----------------------------------------------------------------------
     393 00000064 9802              LDR       A1, [SP, #8]          ; [DPU_V7M3_PIPE] |302|  ; [ORIG 16-BIT INS]
     394 00000066 9901              LDR       A2, [SP, #4]          ; [DPU_V7M3_PIPE] |302|  ; [ORIG 16-BIT INS]
     395 00000068 0840              LSRS      A1, A1, #1            ; [DPU_V7M3_PIPE] |302|  ; [ORIG 16-BIT INS]
     396 0000006a 6108              STR       A1, [A2, #16]         ; [DPU_V7M3_PIPE] |302|  ; [ORIG 16-BIT INS]
     397                            .dwpsn  file "../driverlib/pwm.c",line 303,column 5,is_stmt,isa 1
     398                    ;----------------------------------------------------------------------
     399                    ; 304 | else                                                                   
     400                    ; 306 |     //                                                                 
     401                    ; 307 |     // In down count mode, set the reload register to the requested per
     402                    ;     | iod                                                                    
     403                    ; 308 |     // minus one.                                                      
     404                    ; 309 |     //                                                                 
     405                    ; 310 |     ASSERT((ui32Period <= 65536) && (ui32Period != 0));                
     406                    ;----------------------------------------------------------------------
     407 0000006c E003              B         ||$C$L4||             ; [DPU_V7M3_PIPE] |303|  ; [ORIG 16-BIT INS]
     408                            ; BRANCH OCCURS {||$C$L4||}      ; [] |303| 
     409                    ;* --------------------------------------------------------------------------*
     410 0000006e           ||$C$L3||:    
     411                            .dwpsn  file "../driverlib/pwm.c",line 311,column 9,is_stmt,isa 1
     412                    ;----------------------------------------------------------------------
     413                    ; 311 | HWREG(ui32Gen + PWM_O_X_LOAD) = ui32Period - 1;                        
     414                    ;----------------------------------------------------------------------
     415 0000006e 9802              LDR       A1, [SP, #8]          ; [DPU_V7M3_PIPE] |311|  ; [ORIG 16-BIT INS]
     416 00000070 9901              LDR       A2, [SP, #4]          ; [DPU_V7M3_PIPE] |311|  ; [ORIG 16-BIT INS]
     417 00000072 1E40              SUBS      A1, A1, #1            ; [DPU_V7M3_PIPE] |311|  ; [ORIG 16-BIT INS]
     418 00000074 6108              STR       A1, [A2, #16]         ; [DPU_V7M3_PIPE] |311|  ; [ORIG 16-BIT INS]
     419                            .dwpsn  file "../driverlib/pwm.c",line 313,column 1,is_stmt,isa 1
     420                    ;* --------------------------------------------------------------------------*
     421 00000076           ||$C$L4||:    
     422 00000076 B004              ADD       SP, SP, #16           ; [DPU_V7M3_PIPE]  ; [ORIG 16-BIT INS]
     423                            .dwcfi  cfa_offset, 0
     424                    $C$DW$25        .dwtag  DW_TAG_TI_branch
     425                            .dwattr $C$DW$25, DW_AT_low_pc(0x00)
     426                            .dwattr $C$DW$25, DW_AT_TI_return
     427                    
     428 00000078 4770              BX        LR                    ; [DPU_V7M3_PIPE]  ; [ORIG 16-BIT INS]
     429                            ; BRANCH OCCURS                  ; [] 
     430                            .dwattr $C$DW$18, DW_AT_TI_end_file("../driverlib/pwm.c")
     431                            .dwattr $C$DW$18, DW_AT_TI_end_line(0x139)
     432                            .dwattr $C$DW$18, DW_AT_TI_end_column(0x01)
     433                            .dwendentry
     434                            .dwendtag $C$DW$18
     435                    
     436 0000007a                   .sect   ".text"
     437                            .clink
     438                            .thumbfunc PWMGenPeriodGet
     439 0000007a                   .thumb
     440                            .global PWMGenPeriodGet
TI ARM Assembler Unix v18.1.1 Fri Jul  3 20:08:25 2020

Tools Copyright (c) 1996-2017 Texas Instruments Incorporated
pwm.asm                                                              PAGE    9

     441                    
     442                    $C$DW$26        .dwtag  DW_TAG_subprogram
     443                            .dwattr $C$DW$26, DW_AT_name("PWMGenPeriodGet")
     444                            .dwattr $C$DW$26, DW_AT_low_pc(PWMGenPeriodGet)
     445                            .dwattr $C$DW$26, DW_AT_high_pc(0x00)
     446                            .dwattr $C$DW$26, DW_AT_TI_symbol_name("PWMGenPeriodGet")
     447                            .dwattr $C$DW$26, DW_AT_external
     448                            .dwattr $C$DW$26, DW_AT_type(*$C$DW$T$27)
     449                            .dwattr $C$DW$26, DW_AT_TI_begin_file("../driverlib/pwm.c")
     450                            .dwattr $C$DW$26, DW_AT_TI_begin_line(0x150)
     451                            .dwattr $C$DW$26, DW_AT_TI_begin_column(0x01)
     452                            .dwattr $C$DW$26, DW_AT_decl_file("../driverlib/pwm.c")
     453                            .dwattr $C$DW$26, DW_AT_decl_line(0x150)
     454                            .dwattr $C$DW$26, DW_AT_decl_column(0x01)
     455                            .dwattr $C$DW$26, DW_AT_TI_max_frame_size(0x08)
     456                            .dwpsn  file "../driverlib/pwm.c",line 337,column 1,is_stmt,address PWMGenPeriodGet,isa 1
     457                    
     458                            .dwfde $C$DW$CIE, PWMGenPeriodGet
     459                    $C$DW$27        .dwtag  DW_TAG_formal_parameter
     460                            .dwattr $C$DW$27, DW_AT_name("ui32Base")
     461                            .dwattr $C$DW$27, DW_AT_TI_symbol_name("ui32Base")
     462                            .dwattr $C$DW$27, DW_AT_type(*$C$DW$T$27)
     463                            .dwattr $C$DW$27, DW_AT_location[DW_OP_reg0]
     464                    
     465                    $C$DW$28        .dwtag  DW_TAG_formal_parameter
     466                            .dwattr $C$DW$28, DW_AT_name("ui32Gen")
     467                            .dwattr $C$DW$28, DW_AT_TI_symbol_name("ui32Gen")
     468                            .dwattr $C$DW$28, DW_AT_type(*$C$DW$T$27)
     469                            .dwattr $C$DW$28, DW_AT_location[DW_OP_reg1]
     470                    
     471                    ;----------------------------------------------------------------------
     472                    ; 336 | PWMGenPeriodGet(uint32_t ui32Base, uint32_t ui32Gen)                   
     473                    ;----------------------------------------------------------------------
     474                    
     475                    ;*****************************************************************************
     476                    ;* FUNCTION NAME: PWMGenPeriodGet                                            *
     477                    ;*                                                                           *
     478                    ;*   Regs Modified     : A1,A2,SP,SR                                         *
     479                    ;*   Regs Used         : A1,A2,SP,LR,SR                                      *
     480                    ;*   Local Frame Size  : 0 Args + 8 Auto + 0 Save = 8 byte                   *
     481                    ;*****************************************************************************
     482 0000007a           PWMGenPeriodGet:
     483                    ;* --------------------------------------------------------------------------*
     484                            .dwcfi  cfa_offset, 0
     485 0000007a 0D08F1AD          SUB       SP, SP, #8            ; [DPU_V7M3_PIPE]  ; [KEEP 32-BIT INS]
     486                            .dwcfi  cfa_offset, 8
     487                    $C$DW$29        .dwtag  DW_TAG_variable
     488                            .dwattr $C$DW$29, DW_AT_name("ui32Base")
     489                            .dwattr $C$DW$29, DW_AT_TI_symbol_name("ui32Base")
     490                            .dwattr $C$DW$29, DW_AT_type(*$C$DW$T$27)
     491                            .dwattr $C$DW$29, DW_AT_location[DW_OP_breg13 0]
     492                    
     493                    $C$DW$30        .dwtag  DW_TAG_variable
     494                            .dwattr $C$DW$30, DW_AT_name("ui32Gen")
     495                            .dwattr $C$DW$30, DW_AT_TI_symbol_name("ui32Gen")
TI ARM Assembler Unix v18.1.1 Fri Jul  3 20:08:25 2020

Tools Copyright (c) 1996-2017 Texas Instruments Incorporated
pwm.asm                                                              PAGE   10

     496                            .dwattr $C$DW$30, DW_AT_type(*$C$DW$T$27)
     497                            .dwattr $C$DW$30, DW_AT_location[DW_OP_breg13 4]
     498                    
     499                    ;----------------------------------------------------------------------
     500                    ; 338 | //                                                                     
     501                    ; 339 | // Check the arguments.                                                
     502                    ; 340 | //                                                                     
     503                    ; 341 | ASSERT((ui32Base == PWM0_BASE) || (ui32Base == PWM1_BASE));            
     504                    ; 342 | ASSERT(_PWMGenValid(ui32Gen));                                         
     505                    ; 344 | //                                                                     
     506                    ; 345 | // Compute the generator's base address.                               
     507                    ; 346 | //                                                                     
     508                    ;----------------------------------------------------------------------
     509 0000007e 9101              STR       A2, [SP, #4]          ; [DPU_V7M3_PIPE] |337|  ; [ORIG 16-BIT INS]
     510 00000080 9000              STR       A1, [SP, #0]          ; [DPU_V7M3_PIPE] |337|  ; [ORIG 16-BIT INS]
     511                            .dwpsn  file "../driverlib/pwm.c",line 347,column 5,is_stmt,isa 1
     512                    ;----------------------------------------------------------------------
     513                    ; 347 | ui32Gen = PWM_GEN_BADDR(ui32Base, ui32Gen);                            
     514                    ; 349 | //                                                                     
     515                    ; 350 | // Figure out the counter mode.                                        
     516                    ; 351 | //                                                                     
     517                    ;----------------------------------------------------------------------
     518 00000082 9901              LDR       A2, [SP, #4]          ; [DPU_V7M3_PIPE] |347|  ; [ORIG 16-BIT INS]
     519 00000084 9800              LDR       A1, [SP, #0]          ; [DPU_V7M3_PIPE] |347|  ; [ORIG 16-BIT INS]
     520 00000086 1840              ADDS      A1, A1, A2            ; [DPU_V7M3_PIPE] |347|  ; [ORIG 16-BIT INS]
     521 00000088 9001              STR       A1, [SP, #4]          ; [DPU_V7M3_PIPE] |347|  ; [ORIG 16-BIT INS]
     522                            .dwpsn  file "../driverlib/pwm.c",line 352,column 5,is_stmt,isa 1
     523                    ;----------------------------------------------------------------------
     524                    ; 352 | if(HWREG(ui32Gen + PWM_O_X_CTL) & PWM_X_CTL_MODE)                      
     525                    ; 354 |     //                                                                 
     526                    ; 355 |     // The period is twice the reload register value.                  
     527                    ; 356 |     //                                                                 
     528                    ;----------------------------------------------------------------------
     529 0000008a 9801              LDR       A1, [SP, #4]          ; [DPU_V7M3_PIPE] |352|  ; [ORIG 16-BIT INS]
     530 0000008c 6800              LDR       A1, [A1, #0]          ; [DPU_V7M3_PIPE] |352|  ; [ORIG 16-BIT INS]
     531 0000008e 0880              LSRS      A1, A1, #2            ; [DPU_V7M3_PIPE] |352|  ; [ORIG 16-BIT INS]
     532 00000090 D303              BCC       ||$C$L5||             ; [DPU_V7M3_PIPE] |352|  ; [ORIG 16-BIT INS]
     533                            ; BRANCHCC OCCURS {||$C$L5||}    ; [] |352| 
     534                    ;* --------------------------------------------------------------------------*
     535                            .dwpsn  file "../driverlib/pwm.c",line 357,column 9,is_stmt,isa 1
     536                    ;----------------------------------------------------------------------
     537                    ; 357 | return(HWREG(ui32Gen + PWM_O_X_LOAD) * 2);                             
     538                    ; 359 | else                                                                   
     539                    ; 361 | //                                                                     
     540                    ; 362 | // The period is the reload register value plus one.                   
     541                    ; 363 | //                                                                     
     542                    ;----------------------------------------------------------------------
     543 00000092 9801              LDR       A1, [SP, #4]          ; [DPU_V7M3_PIPE] |357|  ; [ORIG 16-BIT INS]
     544 00000094 6900              LDR       A1, [A1, #16]         ; [DPU_V7M3_PIPE] |357|  ; [ORIG 16-BIT INS]
     545 00000096 0040              LSLS      A1, A1, #1            ; [DPU_V7M3_PIPE] |357|  ; [ORIG 16-BIT INS]
     546 00000098 E002              B         ||$C$L6||             ; [DPU_V7M3_PIPE] |357|  ; [ORIG 16-BIT INS]
     547                            ; BRANCH OCCURS {||$C$L6||}      ; [] |357| 
     548                    ;* --------------------------------------------------------------------------*
     549                    ;* --------------------------------------------------------------------------*
     550 0000009a           ||$C$L5||:    
TI ARM Assembler Unix v18.1.1 Fri Jul  3 20:08:25 2020

Tools Copyright (c) 1996-2017 Texas Instruments Incorporated
pwm.asm                                                              PAGE   11

     551                            .dwpsn  file "../driverlib/pwm.c",line 364,column 9,is_stmt,isa 1
     552                    ;----------------------------------------------------------------------
     553                    ; 364 | return(HWREG(ui32Gen + PWM_O_X_LOAD) + 1);                             
     554                    ;----------------------------------------------------------------------
     555 0000009a 9801              LDR       A1, [SP, #4]          ; [DPU_V7M3_PIPE] |364|  ; [ORIG 16-BIT INS]
     556 0000009c 6900              LDR       A1, [A1, #16]         ; [DPU_V7M3_PIPE] |364|  ; [ORIG 16-BIT INS]
     557 0000009e 1C40              ADDS      A1, A1, #1            ; [DPU_V7M3_PIPE] |364|  ; [ORIG 16-BIT INS]
     558                    ;* --------------------------------------------------------------------------*
     559 000000a0           ||$C$L6||:    
     560                            .dwpsn  file "../driverlib/pwm.c",line 366,column 1,is_stmt,isa 1
     561 000000a0 B002              ADD       SP, SP, #8            ; [DPU_V7M3_PIPE]  ; [ORIG 16-BIT INS]
     562                            .dwcfi  cfa_offset, 0
     563                    $C$DW$31        .dwtag  DW_TAG_TI_branch
     564                            .dwattr $C$DW$31, DW_AT_low_pc(0x00)
     565                            .dwattr $C$DW$31, DW_AT_TI_return
     566                    
     567 000000a2 4770              BX        LR                    ; [DPU_V7M3_PIPE]  ; [ORIG 16-BIT INS]
     568                            ; BRANCH OCCURS                  ; [] 
     569                            .dwattr $C$DW$26, DW_AT_TI_end_file("../driverlib/pwm.c")
     570                            .dwattr $C$DW$26, DW_AT_TI_end_line(0x16e)
     571                            .dwattr $C$DW$26, DW_AT_TI_end_column(0x01)
     572                            .dwendentry
     573                            .dwendtag $C$DW$26
     574                    
     575 000000a4                   .sect   ".text"
     576                            .clink
     577                            .thumbfunc PWMGenEnable
     578 000000a4                   .thumb
     579                            .global PWMGenEnable
     580                    
     581                    $C$DW$32        .dwtag  DW_TAG_subprogram
     582                            .dwattr $C$DW$32, DW_AT_name("PWMGenEnable")
     583                            .dwattr $C$DW$32, DW_AT_low_pc(PWMGenEnable)
     584                            .dwattr $C$DW$32, DW_AT_high_pc(0x00)
     585                            .dwattr $C$DW$32, DW_AT_TI_symbol_name("PWMGenEnable")
     586                            .dwattr $C$DW$32, DW_AT_external
     587                            .dwattr $C$DW$32, DW_AT_TI_begin_file("../driverlib/pwm.c")
     588                            .dwattr $C$DW$32, DW_AT_TI_begin_line(0x17f)
     589                            .dwattr $C$DW$32, DW_AT_TI_begin_column(0x01)
     590                            .dwattr $C$DW$32, DW_AT_decl_file("../driverlib/pwm.c")
     591                            .dwattr $C$DW$32, DW_AT_decl_line(0x17f)
     592                            .dwattr $C$DW$32, DW_AT_decl_column(0x01)
     593                            .dwattr $C$DW$32, DW_AT_TI_max_frame_size(0x08)
     594                            .dwpsn  file "../driverlib/pwm.c",line 384,column 1,is_stmt,address PWMGenEnable,isa 1
     595                    
     596                            .dwfde $C$DW$CIE, PWMGenEnable
     597                    $C$DW$33        .dwtag  DW_TAG_formal_parameter
     598                            .dwattr $C$DW$33, DW_AT_name("ui32Base")
     599                            .dwattr $C$DW$33, DW_AT_TI_symbol_name("ui32Base")
     600                            .dwattr $C$DW$33, DW_AT_type(*$C$DW$T$27)
     601                            .dwattr $C$DW$33, DW_AT_location[DW_OP_reg0]
     602                    
     603                    $C$DW$34        .dwtag  DW_TAG_formal_parameter
     604                            .dwattr $C$DW$34, DW_AT_name("ui32Gen")
     605                            .dwattr $C$DW$34, DW_AT_TI_symbol_name("ui32Gen")
TI ARM Assembler Unix v18.1.1 Fri Jul  3 20:08:25 2020

Tools Copyright (c) 1996-2017 Texas Instruments Incorporated
pwm.asm                                                              PAGE   12

     606                            .dwattr $C$DW$34, DW_AT_type(*$C$DW$T$27)
     607                            .dwattr $C$DW$34, DW_AT_location[DW_OP_reg1]
     608                    
     609                    ;----------------------------------------------------------------------
     610                    ; 383 | PWMGenEnable(uint32_t ui32Base, uint32_t ui32Gen)                      
     611                    ;----------------------------------------------------------------------
     612                    
     613                    ;*****************************************************************************
     614                    ;* FUNCTION NAME: PWMGenEnable                                               *
     615                    ;*                                                                           *
     616                    ;*   Regs Modified     : A1,A2,SP,SR                                         *
     617                    ;*   Regs Used         : A1,A2,SP,LR,SR                                      *
     618                    ;*   Local Frame Size  : 0 Args + 8 Auto + 0 Save = 8 byte                   *
     619                    ;*****************************************************************************
     620 000000a4           PWMGenEnable:
     621                    ;* --------------------------------------------------------------------------*
     622                            .dwcfi  cfa_offset, 0
     623 000000a4 0D08F1AD          SUB       SP, SP, #8            ; [DPU_V7M3_PIPE]  ; [KEEP 32-BIT INS]
     624                            .dwcfi  cfa_offset, 8
     625                    $C$DW$35        .dwtag  DW_TAG_variable
     626                            .dwattr $C$DW$35, DW_AT_name("ui32Base")
     627                            .dwattr $C$DW$35, DW_AT_TI_symbol_name("ui32Base")
     628                            .dwattr $C$DW$35, DW_AT_type(*$C$DW$T$27)
     629                            .dwattr $C$DW$35, DW_AT_location[DW_OP_breg13 0]
     630                    
     631                    $C$DW$36        .dwtag  DW_TAG_variable
     632                            .dwattr $C$DW$36, DW_AT_name("ui32Gen")
     633                            .dwattr $C$DW$36, DW_AT_TI_symbol_name("ui32Gen")
     634                            .dwattr $C$DW$36, DW_AT_type(*$C$DW$T$27)
     635                            .dwattr $C$DW$36, DW_AT_location[DW_OP_breg13 4]
     636                    
     637                    ;----------------------------------------------------------------------
     638                    ; 385 | //                                                                     
     639                    ; 386 | // Check the arguments.                                                
     640                    ; 387 | //                                                                     
     641                    ; 388 | ASSERT((ui32Base == PWM0_BASE) || (ui32Base == PWM1_BASE));            
     642                    ; 389 | ASSERT(_PWMGenValid(ui32Gen));                                         
     643                    ; 391 | //                                                                     
     644                    ; 392 | // Enable the PWM generator.                                           
     645                    ; 393 | //                                                                     
     646                    ;----------------------------------------------------------------------
     647 000000a8 9101              STR       A2, [SP, #4]          ; [DPU_V7M3_PIPE] |384|  ; [ORIG 16-BIT INS]
     648 000000aa 9000              STR       A1, [SP, #0]          ; [DPU_V7M3_PIPE] |384|  ; [ORIG 16-BIT INS]
     649                            .dwpsn  file "../driverlib/pwm.c",line 394,column 5,is_stmt,isa 1
     650                    ;----------------------------------------------------------------------
     651                    ; 394 | HWREG(PWM_GEN_BADDR(ui32Base, ui32Gen) + PWM_O_X_CTL) |= PWM_X_CTL_ENAB
     652                    ;     | LE;                                                                    
     653                    ;----------------------------------------------------------------------
     654 000000ac 9901              LDR       A2, [SP, #4]          ; [DPU_V7M3_PIPE] |394|  ; [ORIG 16-BIT INS]
     655 000000ae 9800              LDR       A1, [SP, #0]          ; [DPU_V7M3_PIPE] |394|  ; [ORIG 16-BIT INS]
     656 000000b0 1840              ADDS      A1, A1, A2            ; [DPU_V7M3_PIPE] |394|  ; [ORIG 16-BIT INS]
     657 000000b2 6801              LDR       A2, [A1, #0]          ; [DPU_V7M3_PIPE] |394|  ; [ORIG 16-BIT INS]
     658 000000b4 0101F041          ORR       A2, A2, #1            ; [DPU_V7M3_PIPE] |394|  ; [KEEP 32-BIT INS]
     659 000000b8 6001              STR       A2, [A1, #0]          ; [DPU_V7M3_PIPE] |394|  ; [ORIG 16-BIT INS]
     660                            .dwpsn  file "../driverlib/pwm.c",line 395,column 1,is_stmt,isa 1
TI ARM Assembler Unix v18.1.1 Fri Jul  3 20:08:25 2020

Tools Copyright (c) 1996-2017 Texas Instruments Incorporated
pwm.asm                                                              PAGE   13

     661 000000ba B002              ADD       SP, SP, #8            ; [DPU_V7M3_PIPE]  ; [ORIG 16-BIT INS]
     662                            .dwcfi  cfa_offset, 0
     663                    $C$DW$37        .dwtag  DW_TAG_TI_branch
     664                            .dwattr $C$DW$37, DW_AT_low_pc(0x00)
     665                            .dwattr $C$DW$37, DW_AT_TI_return
     666                    
     667 000000bc 4770              BX        LR                    ; [DPU_V7M3_PIPE]  ; [ORIG 16-BIT INS]
     668                            ; BRANCH OCCURS                  ; [] 
     669                            .dwattr $C$DW$32, DW_AT_TI_end_file("../driverlib/pwm.c")
     670                            .dwattr $C$DW$32, DW_AT_TI_end_line(0x18b)
     671                            .dwattr $C$DW$32, DW_AT_TI_end_column(0x01)
     672                            .dwendentry
     673                            .dwendtag $C$DW$32
     674                    
     675 000000be                   .sect   ".text"
     676                            .clink
     677                            .thumbfunc PWMGenDisable
     678 000000be                   .thumb
     679                            .global PWMGenDisable
     680                    
     681                    $C$DW$38        .dwtag  DW_TAG_subprogram
     682                            .dwattr $C$DW$38, DW_AT_name("PWMGenDisable")
     683                            .dwattr $C$DW$38, DW_AT_low_pc(PWMGenDisable)
     684                            .dwattr $C$DW$38, DW_AT_high_pc(0x00)
     685                            .dwattr $C$DW$38, DW_AT_TI_symbol_name("PWMGenDisable")
     686                            .dwattr $C$DW$38, DW_AT_external
     687                            .dwattr $C$DW$38, DW_AT_TI_begin_file("../driverlib/pwm.c")
     688                            .dwattr $C$DW$38, DW_AT_TI_begin_line(0x19c)
     689                            .dwattr $C$DW$38, DW_AT_TI_begin_column(0x01)
     690                            .dwattr $C$DW$38, DW_AT_decl_file("../driverlib/pwm.c")
     691                            .dwattr $C$DW$38, DW_AT_decl_line(0x19c)
     692                            .dwattr $C$DW$38, DW_AT_decl_column(0x01)
     693                            .dwattr $C$DW$38, DW_AT_TI_max_frame_size(0x08)
     694                            .dwpsn  file "../driverlib/pwm.c",line 413,column 1,is_stmt,address PWMGenDisable,isa 1
     695                    
     696                            .dwfde $C$DW$CIE, PWMGenDisable
     697                    $C$DW$39        .dwtag  DW_TAG_formal_parameter
     698                            .dwattr $C$DW$39, DW_AT_name("ui32Base")
     699                            .dwattr $C$DW$39, DW_AT_TI_symbol_name("ui32Base")
     700                            .dwattr $C$DW$39, DW_AT_type(*$C$DW$T$27)
     701                            .dwattr $C$DW$39, DW_AT_location[DW_OP_reg0]
     702                    
     703                    $C$DW$40        .dwtag  DW_TAG_formal_parameter
     704                            .dwattr $C$DW$40, DW_AT_name("ui32Gen")
     705                            .dwattr $C$DW$40, DW_AT_TI_symbol_name("ui32Gen")
     706                            .dwattr $C$DW$40, DW_AT_type(*$C$DW$T$27)
     707                            .dwattr $C$DW$40, DW_AT_location[DW_OP_reg1]
     708                    
     709                    ;----------------------------------------------------------------------
     710                    ; 412 | PWMGenDisable(uint32_t ui32Base, uint32_t ui32Gen)                     
     711                    ;----------------------------------------------------------------------
     712                    
     713                    ;*****************************************************************************
     714                    ;* FUNCTION NAME: PWMGenDisable                                              *
     715                    ;*                                                                           *
TI ARM Assembler Unix v18.1.1 Fri Jul  3 20:08:25 2020

Tools Copyright (c) 1996-2017 Texas Instruments Incorporated
pwm.asm                                                              PAGE   14

     716                    ;*   Regs Modified     : A1,A2,SP,SR                                         *
     717                    ;*   Regs Used         : A1,A2,SP,LR,SR                                      *
     718                    ;*   Local Frame Size  : 0 Args + 8 Auto + 0 Save = 8 byte                   *
     719                    ;*****************************************************************************
     720 000000be           PWMGenDisable:
     721                    ;* --------------------------------------------------------------------------*
     722                            .dwcfi  cfa_offset, 0
     723 000000be 0D08F1AD          SUB       SP, SP, #8            ; [DPU_V7M3_PIPE]  ; [KEEP 32-BIT INS]
     724                            .dwcfi  cfa_offset, 8
     725                    $C$DW$41        .dwtag  DW_TAG_variable
     726                            .dwattr $C$DW$41, DW_AT_name("ui32Base")
     727                            .dwattr $C$DW$41, DW_AT_TI_symbol_name("ui32Base")
     728                            .dwattr $C$DW$41, DW_AT_type(*$C$DW$T$27)
     729                            .dwattr $C$DW$41, DW_AT_location[DW_OP_breg13 0]
     730                    
     731                    $C$DW$42        .dwtag  DW_TAG_variable
     732                            .dwattr $C$DW$42, DW_AT_name("ui32Gen")
     733                            .dwattr $C$DW$42, DW_AT_TI_symbol_name("ui32Gen")
     734                            .dwattr $C$DW$42, DW_AT_type(*$C$DW$T$27)
     735                            .dwattr $C$DW$42, DW_AT_location[DW_OP_breg13 4]
     736                    
     737                    ;----------------------------------------------------------------------
     738                    ; 414 | //                                                                     
     739                    ; 415 | // Check the arguments.                                                
     740                    ; 416 | //                                                                     
     741                    ; 417 | ASSERT((ui32Base == PWM0_BASE) || (ui32Base == PWM1_BASE));            
     742                    ; 418 | ASSERT(_PWMGenValid(ui32Gen));                                         
     743                    ; 420 | //                                                                     
     744                    ; 421 | // Disable the PWM generator.                                          
     745                    ; 422 | //                                                                     
     746                    ;----------------------------------------------------------------------
     747 000000c2 9101              STR       A2, [SP, #4]          ; [DPU_V7M3_PIPE] |413|  ; [ORIG 16-BIT INS]
     748 000000c4 9000              STR       A1, [SP, #0]          ; [DPU_V7M3_PIPE] |413|  ; [ORIG 16-BIT INS]
     749                            .dwpsn  file "../driverlib/pwm.c",line 423,column 5,is_stmt,isa 1
     750                    ;----------------------------------------------------------------------
     751                    ; 423 | HWREG(PWM_GEN_BADDR(ui32Base, ui32Gen) + PWM_O_X_CTL) &=               
     752                    ; 424 |     ~(PWM_X_CTL_ENABLE);                                               
     753                    ;----------------------------------------------------------------------
     754 000000c6 9901              LDR       A2, [SP, #4]          ; [DPU_V7M3_PIPE] |423|  ; [ORIG 16-BIT INS]
     755 000000c8 9800              LDR       A1, [SP, #0]          ; [DPU_V7M3_PIPE] |423|  ; [ORIG 16-BIT INS]
     756 000000ca 1840              ADDS      A1, A1, A2            ; [DPU_V7M3_PIPE] |423|  ; [ORIG 16-BIT INS]
     757 000000cc 6801              LDR       A2, [A1, #0]          ; [DPU_V7M3_PIPE] |423|  ; [ORIG 16-BIT INS]
     758 000000ce 0101F021          BIC       A2, A2, #1            ; [DPU_V7M3_PIPE] |423|  ; [KEEP 32-BIT INS]
     759 000000d2 6001              STR       A2, [A1, #0]          ; [DPU_V7M3_PIPE] |423|  ; [ORIG 16-BIT INS]
     760                            .dwpsn  file "../driverlib/pwm.c",line 425,column 1,is_stmt,isa 1
     761 000000d4 B002              ADD       SP, SP, #8            ; [DPU_V7M3_PIPE]  ; [ORIG 16-BIT INS]
     762                            .dwcfi  cfa_offset, 0
     763                    $C$DW$43        .dwtag  DW_TAG_TI_branch
     764                            .dwattr $C$DW$43, DW_AT_low_pc(0x00)
     765                            .dwattr $C$DW$43, DW_AT_TI_return
     766                    
     767 000000d6 4770              BX        LR                    ; [DPU_V7M3_PIPE]  ; [ORIG 16-BIT INS]
     768                            ; BRANCH OCCURS                  ; [] 
     769                            .dwattr $C$DW$38, DW_AT_TI_end_file("../driverlib/pwm.c")
     770                            .dwattr $C$DW$38, DW_AT_TI_end_line(0x1a9)
TI ARM Assembler Unix v18.1.1 Fri Jul  3 20:08:25 2020

Tools Copyright (c) 1996-2017 Texas Instruments Incorporated
pwm.asm                                                              PAGE   15

     771                            .dwattr $C$DW$38, DW_AT_TI_end_column(0x01)
     772                            .dwendentry
     773                            .dwendtag $C$DW$38
     774                    
     775 000000d8                   .sect   ".text"
     776                            .clink
     777                            .thumbfunc PWMPulseWidthSet
     778 000000d8                   .thumb
     779                            .global PWMPulseWidthSet
     780                    
     781                    $C$DW$44        .dwtag  DW_TAG_subprogram
     782                            .dwattr $C$DW$44, DW_AT_name("PWMPulseWidthSet")
     783                            .dwattr $C$DW$44, DW_AT_low_pc(PWMPulseWidthSet)
     784                            .dwattr $C$DW$44, DW_AT_high_pc(0x00)
     785                            .dwattr $C$DW$44, DW_AT_TI_symbol_name("PWMPulseWidthSet")
     786                            .dwattr $C$DW$44, DW_AT_external
     787                            .dwattr $C$DW$44, DW_AT_TI_begin_file("../driverlib/pwm.c")
     788                            .dwattr $C$DW$44, DW_AT_TI_begin_line(0x1bf)
     789                            .dwattr $C$DW$44, DW_AT_TI_begin_column(0x01)
     790                            .dwattr $C$DW$44, DW_AT_decl_file("../driverlib/pwm.c")
     791                            .dwattr $C$DW$44, DW_AT_decl_line(0x1bf)
     792                            .dwattr $C$DW$44, DW_AT_decl_column(0x01)
     793                            .dwattr $C$DW$44, DW_AT_TI_max_frame_size(0x18)
     794                            .dwpsn  file "../driverlib/pwm.c",line 449,column 1,is_stmt,address PWMPulseWidthSet,isa 1
     795                    
     796                            .dwfde $C$DW$CIE, PWMPulseWidthSet
     797                    $C$DW$45        .dwtag  DW_TAG_formal_parameter
     798                            .dwattr $C$DW$45, DW_AT_name("ui32Base")
     799                            .dwattr $C$DW$45, DW_AT_TI_symbol_name("ui32Base")
     800                            .dwattr $C$DW$45, DW_AT_type(*$C$DW$T$27)
     801                            .dwattr $C$DW$45, DW_AT_location[DW_OP_reg0]
     802                    
     803                    $C$DW$46        .dwtag  DW_TAG_formal_parameter
     804                            .dwattr $C$DW$46, DW_AT_name("ui32PWMOut")
     805                            .dwattr $C$DW$46, DW_AT_TI_symbol_name("ui32PWMOut")
     806                            .dwattr $C$DW$46, DW_AT_type(*$C$DW$T$27)
     807                            .dwattr $C$DW$46, DW_AT_location[DW_OP_reg1]
     808                    
     809                    $C$DW$47        .dwtag  DW_TAG_formal_parameter
     810                            .dwattr $C$DW$47, DW_AT_name("ui32Width")
     811                            .dwattr $C$DW$47, DW_AT_TI_symbol_name("ui32Width")
     812                            .dwattr $C$DW$47, DW_AT_type(*$C$DW$T$27)
     813                            .dwattr $C$DW$47, DW_AT_location[DW_OP_reg2]
     814                    
     815                    ;----------------------------------------------------------------------
     816                    ; 447 | PWMPulseWidthSet(uint32_t ui32Base, uint32_t ui32PWMOut,               
     817                    ; 448 | uint32_t ui32Width)                                                    
     818                    ;----------------------------------------------------------------------
     819                    
     820                    ;*****************************************************************************
     821                    ;* FUNCTION NAME: PWMPulseWidthSet                                           *
     822                    ;*                                                                           *
     823                    ;*   Regs Modified     : A1,A2,SP,SR                                         *
     824                    ;*   Regs Used         : A1,A2,A3,SP,LR,SR                                   *
     825                    ;*   Local Frame Size  : 0 Args + 20 Auto + 0 Save = 20 byte                 *
TI ARM Assembler Unix v18.1.1 Fri Jul  3 20:08:25 2020

Tools Copyright (c) 1996-2017 Texas Instruments Incorporated
pwm.asm                                                              PAGE   16

     826                    ;*****************************************************************************
     827 000000d8           PWMPulseWidthSet:
     828                    ;* --------------------------------------------------------------------------*
     829                            .dwcfi  cfa_offset, 0
     830 000000d8 0D18F1AD          SUB       SP, SP, #24           ; [DPU_V7M3_PIPE]  ; [KEEP 32-BIT INS]
     831                            .dwcfi  cfa_offset, 24
     832                    $C$DW$48        .dwtag  DW_TAG_variable
     833                            .dwattr $C$DW$48, DW_AT_name("ui32Base")
     834                            .dwattr $C$DW$48, DW_AT_TI_symbol_name("ui32Base")
     835                            .dwattr $C$DW$48, DW_AT_type(*$C$DW$T$27)
     836                            .dwattr $C$DW$48, DW_AT_location[DW_OP_breg13 0]
     837                    
     838                    $C$DW$49        .dwtag  DW_TAG_variable
     839                            .dwattr $C$DW$49, DW_AT_name("ui32PWMOut")
     840                            .dwattr $C$DW$49, DW_AT_TI_symbol_name("ui32PWMOut")
     841                            .dwattr $C$DW$49, DW_AT_type(*$C$DW$T$27)
     842                            .dwattr $C$DW$49, DW_AT_location[DW_OP_breg13 4]
     843                    
     844                    $C$DW$50        .dwtag  DW_TAG_variable
     845                            .dwattr $C$DW$50, DW_AT_name("ui32Width")
     846                            .dwattr $C$DW$50, DW_AT_TI_symbol_name("ui32Width")
     847                            .dwattr $C$DW$50, DW_AT_type(*$C$DW$T$27)
     848                            .dwattr $C$DW$50, DW_AT_location[DW_OP_breg13 8]
     849                    
     850                    $C$DW$51        .dwtag  DW_TAG_variable
     851                            .dwattr $C$DW$51, DW_AT_name("ui32GenBase")
     852                            .dwattr $C$DW$51, DW_AT_TI_symbol_name("ui32GenBase")
     853                            .dwattr $C$DW$51, DW_AT_type(*$C$DW$T$27)
     854                            .dwattr $C$DW$51, DW_AT_location[DW_OP_breg13 12]
     855                    
     856                    $C$DW$52        .dwtag  DW_TAG_variable
     857                            .dwattr $C$DW$52, DW_AT_name("ui32Reg")
     858                            .dwattr $C$DW$52, DW_AT_TI_symbol_name("ui32Reg")
     859                            .dwattr $C$DW$52, DW_AT_type(*$C$DW$T$27)
     860                            .dwattr $C$DW$52, DW_AT_location[DW_OP_breg13 16]
     861                    
     862                    ;----------------------------------------------------------------------
     863                    ; 450 | uint32_t ui32GenBase, ui32Reg;                                         
     864                    ; 452 | //                                                                     
     865                    ; 453 | // Check the arguments.                                                
     866                    ; 454 | //                                                                     
     867                    ; 455 | ASSERT((ui32Base == PWM0_BASE) || (ui32Base == PWM1_BASE));            
     868                    ; 456 | ASSERT(_PWMOutValid(ui32PWMOut));                                      
     869                    ; 458 | //                                                                     
     870                    ; 459 | // Compute the generator's base address.                               
     871                    ; 460 | //                                                                     
     872                    ;----------------------------------------------------------------------
     873 000000dc 9202              STR       A3, [SP, #8]          ; [DPU_V7M3_PIPE] |449|  ; [ORIG 16-BIT INS]
     874 000000de 9101              STR       A2, [SP, #4]          ; [DPU_V7M3_PIPE] |449|  ; [ORIG 16-BIT INS]
     875 000000e0 9000              STR       A1, [SP, #0]          ; [DPU_V7M3_PIPE] |449|  ; [ORIG 16-BIT INS]
     876                            .dwpsn  file "../driverlib/pwm.c",line 461,column 5,is_stmt,isa 1
     877                    ;----------------------------------------------------------------------
     878                    ; 461 | ui32GenBase = PWM_OUT_BADDR(ui32Base, ui32PWMOut);                     
     879                    ; 463 | //                                                                     
     880                    ; 464 | // If the counter is in up/down count mode, divide the width by two.   
TI ARM Assembler Unix v18.1.1 Fri Jul  3 20:08:25 2020

Tools Copyright (c) 1996-2017 Texas Instruments Incorporated
pwm.asm                                                              PAGE   17

     881                    ; 465 | //                                                                     
     882                    ;----------------------------------------------------------------------
     883 000000e2 9801              LDR       A1, [SP, #4]          ; [DPU_V7M3_PIPE] |461|  ; [ORIG 16-BIT INS]
     884 000000e4 9900              LDR       A2, [SP, #0]          ; [DPU_V7M3_PIPE] |461|  ; [ORIG 16-BIT INS]
     885 000000e6 003FF020          BIC       A1, A1, #63           ; [DPU_V7M3_PIPE] |461|  ; [KEEP 32-BIT INS]
     886 000000ea 1809              ADDS      A2, A2, A1            ; [DPU_V7M3_PIPE] |461|  ; [ORIG 16-BIT INS]
     887 000000ec 9103              STR       A2, [SP, #12]         ; [DPU_V7M3_PIPE] |461|  ; [ORIG 16-BIT INS]
     888                            .dwpsn  file "../driverlib/pwm.c",line 466,column 5,is_stmt,isa 1
     889                    ;----------------------------------------------------------------------
     890                    ; 466 | if(HWREG(ui32GenBase + PWM_O_X_CTL) & PWM_X_CTL_MODE)                  
     891                    ;----------------------------------------------------------------------
     892 000000ee 9803              LDR       A1, [SP, #12]         ; [DPU_V7M3_PIPE] |466|  ; [ORIG 16-BIT INS]
     893 000000f0 6800              LDR       A1, [A1, #0]          ; [DPU_V7M3_PIPE] |466|  ; [ORIG 16-BIT INS]
     894 000000f2 0880              LSRS      A1, A1, #2            ; [DPU_V7M3_PIPE] |466|  ; [ORIG 16-BIT INS]
     895 000000f4 D302              BCC       ||$C$L7||             ; [DPU_V7M3_PIPE] |466|  ; [ORIG 16-BIT INS]
     896                            ; BRANCHCC OCCURS {||$C$L7||}    ; [] |466| 
     897                    ;* --------------------------------------------------------------------------*
     898                            .dwpsn  file "../driverlib/pwm.c",line 468,column 9,is_stmt,isa 1
     899                    ;----------------------------------------------------------------------
     900                    ; 468 | ui32Width /= 2;                                                        
     901                    ; 471 | //                                                                     
     902                    ; 472 | // Get the period.                                                     
     903                    ; 473 | //                                                                     
     904                    ;----------------------------------------------------------------------
     905 000000f6 9802              LDR       A1, [SP, #8]          ; [DPU_V7M3_PIPE] |468|  ; [ORIG 16-BIT INS]
     906 000000f8 0840              LSRS      A1, A1, #1            ; [DPU_V7M3_PIPE] |468|  ; [ORIG 16-BIT INS]
     907 000000fa 9002              STR       A1, [SP, #8]          ; [DPU_V7M3_PIPE] |468|  ; [ORIG 16-BIT INS]
     908                    ;* --------------------------------------------------------------------------*
     909 000000fc           ||$C$L7||:    
     910                            .dwpsn  file "../driverlib/pwm.c",line 474,column 5,is_stmt,isa 1
     911                    ;----------------------------------------------------------------------
     912                    ; 474 | ui32Reg = HWREG(ui32GenBase + PWM_O_X_LOAD);                           
     913                    ; 476 | //                                                                     
     914                    ; 477 | // Make sure the width is not too large.                               
     915                    ; 478 | //                                                                     
     916                    ; 479 | ASSERT(ui32Width < ui32Reg);                                           
     917                    ; 481 | //                                                                     
     918                    ; 482 | // Compute the compare value.                                          
     919                    ; 483 | //                                                                     
     920                    ;----------------------------------------------------------------------
     921 000000fc 9803              LDR       A1, [SP, #12]         ; [DPU_V7M3_PIPE] |474|  ; [ORIG 16-BIT INS]
     922 000000fe 6900              LDR       A1, [A1, #16]         ; [DPU_V7M3_PIPE] |474|  ; [ORIG 16-BIT INS]
     923 00000100 9004              STR       A1, [SP, #16]         ; [DPU_V7M3_PIPE] |474|  ; [ORIG 16-BIT INS]
     924                            .dwpsn  file "../driverlib/pwm.c",line 484,column 5,is_stmt,isa 1
     925                    ;----------------------------------------------------------------------
     926                    ; 484 | ui32Reg = ui32Reg - ui32Width;                                         
     927                    ; 486 | //                                                                     
     928                    ; 487 | // Write to the appropriate registers.                                 
     929                    ; 488 | //                                                                     
     930                    ;----------------------------------------------------------------------
     931 00000102 9902              LDR       A2, [SP, #8]          ; [DPU_V7M3_PIPE] |484|  ; [ORIG 16-BIT INS]
     932 00000104 9804              LDR       A1, [SP, #16]         ; [DPU_V7M3_PIPE] |484|  ; [ORIG 16-BIT INS]
     933 00000106 1A40              SUBS      A1, A1, A2            ; [DPU_V7M3_PIPE] |484|  ; [ORIG 16-BIT INS]
     934 00000108 9004              STR       A1, [SP, #16]         ; [DPU_V7M3_PIPE] |484|  ; [ORIG 16-BIT INS]
     935                            .dwpsn  file "../driverlib/pwm.c",line 489,column 5,is_stmt,isa 1
TI ARM Assembler Unix v18.1.1 Fri Jul  3 20:08:25 2020

Tools Copyright (c) 1996-2017 Texas Instruments Incorporated
pwm.asm                                                              PAGE   18

     936                    ;----------------------------------------------------------------------
     937                    ; 489 | if(PWM_IS_OUTPUT_ODD(ui32PWMOut))                                      
     938                    ;----------------------------------------------------------------------
     939 0000010a 9801              LDR       A1, [SP, #4]          ; [DPU_V7M3_PIPE] |489|  ; [ORIG 16-BIT INS]
     940 0000010c 0840              LSRS      A1, A1, #1            ; [DPU_V7M3_PIPE] |489|  ; [ORIG 16-BIT INS]
     941 0000010e D303              BCC       ||$C$L8||             ; [DPU_V7M3_PIPE] |489|  ; [ORIG 16-BIT INS]
     942                            ; BRANCHCC OCCURS {||$C$L8||}    ; [] |489| 
     943                    ;* --------------------------------------------------------------------------*
     944                            .dwpsn  file "../driverlib/pwm.c",line 491,column 9,is_stmt,isa 1
     945                    ;----------------------------------------------------------------------
     946                    ; 491 | HWREG(ui32GenBase + PWM_O_X_CMPB) = ui32Reg;                           
     947                    ;----------------------------------------------------------------------
     948 00000110 9804              LDR       A1, [SP, #16]         ; [DPU_V7M3_PIPE] |491|  ; [ORIG 16-BIT INS]
     949 00000112 9903              LDR       A2, [SP, #12]         ; [DPU_V7M3_PIPE] |491|  ; [ORIG 16-BIT INS]
     950 00000114 61C8              STR       A1, [A2, #28]         ; [DPU_V7M3_PIPE] |491|  ; [ORIG 16-BIT INS]
     951                            .dwpsn  file "../driverlib/pwm.c",line 492,column 5,is_stmt,isa 1
     952                    ;----------------------------------------------------------------------
     953                    ; 493 | else                                                                   
     954                    ;----------------------------------------------------------------------
     955 00000116 E002              B         ||$C$L9||             ; [DPU_V7M3_PIPE] |492|  ; [ORIG 16-BIT INS]
     956                            ; BRANCH OCCURS {||$C$L9||}      ; [] |492| 
     957                    ;* --------------------------------------------------------------------------*
     958 00000118           ||$C$L8||:    
     959                            .dwpsn  file "../driverlib/pwm.c",line 495,column 9,is_stmt,isa 1
     960                    ;----------------------------------------------------------------------
     961                    ; 495 | HWREG(ui32GenBase + PWM_O_X_CMPA) = ui32Reg;                           
     962                    ;----------------------------------------------------------------------
     963 00000118 9804              LDR       A1, [SP, #16]         ; [DPU_V7M3_PIPE] |495|  ; [ORIG 16-BIT INS]
     964 0000011a 9903              LDR       A2, [SP, #12]         ; [DPU_V7M3_PIPE] |495|  ; [ORIG 16-BIT INS]
     965 0000011c 6188              STR       A1, [A2, #24]         ; [DPU_V7M3_PIPE] |495|  ; [ORIG 16-BIT INS]
     966                            .dwpsn  file "../driverlib/pwm.c",line 497,column 1,is_stmt,isa 1
     967                    ;* --------------------------------------------------------------------------*
     968 0000011e           ||$C$L9||:    
     969 0000011e B006              ADD       SP, SP, #24           ; [DPU_V7M3_PIPE]  ; [ORIG 16-BIT INS]
     970                            .dwcfi  cfa_offset, 0
     971                    $C$DW$53        .dwtag  DW_TAG_TI_branch
     972                            .dwattr $C$DW$53, DW_AT_low_pc(0x00)
     973                            .dwattr $C$DW$53, DW_AT_TI_return
     974                    
     975 00000120 4770              BX        LR                    ; [DPU_V7M3_PIPE]  ; [ORIG 16-BIT INS]
     976                            ; BRANCH OCCURS                  ; [] 
     977                            .dwattr $C$DW$44, DW_AT_TI_end_file("../driverlib/pwm.c")
     978                            .dwattr $C$DW$44, DW_AT_TI_end_line(0x1f1)
     979                            .dwattr $C$DW$44, DW_AT_TI_end_column(0x01)
     980                            .dwendentry
     981                            .dwendtag $C$DW$44
     982                    
     983 00000122                   .sect   ".text"
     984                            .clink
     985                            .thumbfunc PWMPulseWidthGet
     986 00000122                   .thumb
     987                            .global PWMPulseWidthGet
     988                    
     989                    $C$DW$54        .dwtag  DW_TAG_subprogram
     990                            .dwattr $C$DW$54, DW_AT_name("PWMPulseWidthGet")
TI ARM Assembler Unix v18.1.1 Fri Jul  3 20:08:25 2020

Tools Copyright (c) 1996-2017 Texas Instruments Incorporated
pwm.asm                                                              PAGE   19

     991                            .dwattr $C$DW$54, DW_AT_low_pc(PWMPulseWidthGet)
     992                            .dwattr $C$DW$54, DW_AT_high_pc(0x00)
     993                            .dwattr $C$DW$54, DW_AT_TI_symbol_name("PWMPulseWidthGet")
     994                            .dwattr $C$DW$54, DW_AT_external
     995                            .dwattr $C$DW$54, DW_AT_type(*$C$DW$T$27)
     996                            .dwattr $C$DW$54, DW_AT_TI_begin_file("../driverlib/pwm.c")
     997                            .dwattr $C$DW$54, DW_AT_TI_begin_line(0x206)
     998                            .dwattr $C$DW$54, DW_AT_TI_begin_column(0x01)
     999                            .dwattr $C$DW$54, DW_AT_decl_file("../driverlib/pwm.c")
    1000                            .dwattr $C$DW$54, DW_AT_decl_line(0x206)
    1001                            .dwattr $C$DW$54, DW_AT_decl_column(0x01)
    1002                            .dwattr $C$DW$54, DW_AT_TI_max_frame_size(0x18)
    1003                            .dwpsn  file "../driverlib/pwm.c",line 519,column 1,is_stmt,address PWMPulseWidthGet,isa 1
    1004                    
    1005                            .dwfde $C$DW$CIE, PWMPulseWidthGet
    1006                    $C$DW$55        .dwtag  DW_TAG_formal_parameter
    1007                            .dwattr $C$DW$55, DW_AT_name("ui32Base")
    1008                            .dwattr $C$DW$55, DW_AT_TI_symbol_name("ui32Base")
    1009                            .dwattr $C$DW$55, DW_AT_type(*$C$DW$T$27)
    1010                            .dwattr $C$DW$55, DW_AT_location[DW_OP_reg0]
    1011                    
    1012                    $C$DW$56        .dwtag  DW_TAG_formal_parameter
    1013                            .dwattr $C$DW$56, DW_AT_name("ui32PWMOut")
    1014                            .dwattr $C$DW$56, DW_AT_TI_symbol_name("ui32PWMOut")
    1015                            .dwattr $C$DW$56, DW_AT_type(*$C$DW$T$27)
    1016                            .dwattr $C$DW$56, DW_AT_location[DW_OP_reg1]
    1017                    
    1018                    ;----------------------------------------------------------------------
    1019                    ; 518 | PWMPulseWidthGet(uint32_t ui32Base, uint32_t ui32PWMOut)               
    1020                    ;----------------------------------------------------------------------
    1021                    
    1022                    ;*****************************************************************************
    1023                    ;* FUNCTION NAME: PWMPulseWidthGet                                           *
    1024                    ;*                                                                           *
    1025                    ;*   Regs Modified     : A1,A2,SP,SR                                         *
    1026                    ;*   Regs Used         : A1,A2,SP,LR,SR                                      *
    1027                    ;*   Local Frame Size  : 0 Args + 20 Auto + 0 Save = 20 byte                 *
    1028                    ;*****************************************************************************
    1029 00000122           PWMPulseWidthGet:
    1030                    ;* --------------------------------------------------------------------------*
    1031                            .dwcfi  cfa_offset, 0
    1032 00000122 0D18F1AD          SUB       SP, SP, #24           ; [DPU_V7M3_PIPE]  ; [KEEP 32-BIT INS]
    1033                            .dwcfi  cfa_offset, 24
    1034                    $C$DW$57        .dwtag  DW_TAG_variable
    1035                            .dwattr $C$DW$57, DW_AT_name("ui32Base")
    1036                            .dwattr $C$DW$57, DW_AT_TI_symbol_name("ui32Base")
    1037                            .dwattr $C$DW$57, DW_AT_type(*$C$DW$T$27)
    1038                            .dwattr $C$DW$57, DW_AT_location[DW_OP_breg13 0]
    1039                    
    1040                    $C$DW$58        .dwtag  DW_TAG_variable
    1041                            .dwattr $C$DW$58, DW_AT_name("ui32PWMOut")
    1042                            .dwattr $C$DW$58, DW_AT_TI_symbol_name("ui32PWMOut")
    1043                            .dwattr $C$DW$58, DW_AT_type(*$C$DW$T$27)
    1044                            .dwattr $C$DW$58, DW_AT_location[DW_OP_breg13 4]
    1045                    
TI ARM Assembler Unix v18.1.1 Fri Jul  3 20:08:25 2020

Tools Copyright (c) 1996-2017 Texas Instruments Incorporated
pwm.asm                                                              PAGE   20

    1046                    $C$DW$59        .dwtag  DW_TAG_variable
    1047                            .dwattr $C$DW$59, DW_AT_name("ui32GenBase")
    1048                            .dwattr $C$DW$59, DW_AT_TI_symbol_name("ui32GenBase")
    1049                            .dwattr $C$DW$59, DW_AT_type(*$C$DW$T$27)
    1050                            .dwattr $C$DW$59, DW_AT_location[DW_OP_breg13 8]
    1051                    
    1052                    $C$DW$60        .dwtag  DW_TAG_variable
    1053                            .dwattr $C$DW$60, DW_AT_name("ui32Reg")
    1054                            .dwattr $C$DW$60, DW_AT_TI_symbol_name("ui32Reg")
    1055                            .dwattr $C$DW$60, DW_AT_type(*$C$DW$T$27)
    1056                            .dwattr $C$DW$60, DW_AT_location[DW_OP_breg13 12]
    1057                    
    1058                    $C$DW$61        .dwtag  DW_TAG_variable
    1059                            .dwattr $C$DW$61, DW_AT_name("ui32Load")
    1060                            .dwattr $C$DW$61, DW_AT_TI_symbol_name("ui32Load")
    1061                            .dwattr $C$DW$61, DW_AT_type(*$C$DW$T$27)
    1062                            .dwattr $C$DW$61, DW_AT_location[DW_OP_breg13 16]
    1063                    
    1064                    ;----------------------------------------------------------------------
    1065                    ; 520 | uint32_t ui32GenBase, ui32Reg, ui32Load;                               
    1066                    ; 522 | //                                                                     
    1067                    ; 523 | // Check the arguments.                                                
    1068                    ; 524 | //                                                                     
    1069                    ; 525 | ASSERT((ui32Base == PWM0_BASE) || (ui32Base == PWM1_BASE));            
    1070                    ; 526 | ASSERT(_PWMOutValid(ui32PWMOut));                                      
    1071                    ; 528 | //                                                                     
    1072                    ; 529 | // Compute the generator's base address.                               
    1073                    ; 530 | //                                                                     
    1074                    ;----------------------------------------------------------------------
    1075 00000126 9101              STR       A2, [SP, #4]          ; [DPU_V7M3_PIPE] |519|  ; [ORIG 16-BIT INS]
    1076 00000128 9000              STR       A1, [SP, #0]          ; [DPU_V7M3_PIPE] |519|  ; [ORIG 16-BIT INS]
    1077                            .dwpsn  file "../driverlib/pwm.c",line 531,column 5,is_stmt,isa 1
    1078                    ;----------------------------------------------------------------------
    1079                    ; 531 | ui32GenBase = PWM_OUT_BADDR(ui32Base, ui32PWMOut);                     
    1080                    ; 533 | //                                                                     
    1081                    ; 534 | // Then compute the pulse width.  If mode is UpDown, set               
    1082                    ; 535 | // width = (load - compare) * 2.  Otherwise, set width = load - compare
    1083                    ;     | .                                                                      
    1084                    ; 536 | //                                                                     
    1085                    ;----------------------------------------------------------------------
    1086 0000012a 9801              LDR       A1, [SP, #4]          ; [DPU_V7M3_PIPE] |531|  ; [ORIG 16-BIT INS]
    1087 0000012c 9900              LDR       A2, [SP, #0]          ; [DPU_V7M3_PIPE] |531|  ; [ORIG 16-BIT INS]
    1088 0000012e 003FF020          BIC       A1, A1, #63           ; [DPU_V7M3_PIPE] |531|  ; [KEEP 32-BIT INS]
    1089 00000132 1809              ADDS      A2, A2, A1            ; [DPU_V7M3_PIPE] |531|  ; [ORIG 16-BIT INS]
    1090 00000134 9102              STR       A2, [SP, #8]          ; [DPU_V7M3_PIPE] |531|  ; [ORIG 16-BIT INS]
    1091                            .dwpsn  file "../driverlib/pwm.c",line 537,column 5,is_stmt,isa 1
    1092                    ;----------------------------------------------------------------------
    1093                    ; 537 | ui32Load = HWREG(ui32GenBase + PWM_O_X_LOAD);                          
    1094                    ;----------------------------------------------------------------------
    1095 00000136 9802              LDR       A1, [SP, #8]          ; [DPU_V7M3_PIPE] |537|  ; [ORIG 16-BIT INS]
    1096 00000138 6900              LDR       A1, [A1, #16]         ; [DPU_V7M3_PIPE] |537|  ; [ORIG 16-BIT INS]
    1097 0000013a 9004              STR       A1, [SP, #16]         ; [DPU_V7M3_PIPE] |537|  ; [ORIG 16-BIT INS]
    1098                            .dwpsn  file "../driverlib/pwm.c",line 538,column 5,is_stmt,isa 1
    1099                    ;----------------------------------------------------------------------
    1100                    ; 538 | if(PWM_IS_OUTPUT_ODD(ui32PWMOut))                                      
TI ARM Assembler Unix v18.1.1 Fri Jul  3 20:08:25 2020

Tools Copyright (c) 1996-2017 Texas Instruments Incorporated
pwm.asm                                                              PAGE   21

    1101                    ;----------------------------------------------------------------------
    1102 0000013c 9801              LDR       A1, [SP, #4]          ; [DPU_V7M3_PIPE] |538|  ; [ORIG 16-BIT INS]
    1103 0000013e 0840              LSRS      A1, A1, #1            ; [DPU_V7M3_PIPE] |538|  ; [ORIG 16-BIT INS]
    1104 00000140 D303              BCC       ||$C$L10||            ; [DPU_V7M3_PIPE] |538|  ; [ORIG 16-BIT INS]
    1105                            ; BRANCHCC OCCURS {||$C$L10||}   ; [] |538| 
    1106                    ;* --------------------------------------------------------------------------*
    1107                            .dwpsn  file "../driverlib/pwm.c",line 540,column 9,is_stmt,isa 1
    1108                    ;----------------------------------------------------------------------
    1109                    ; 540 | ui32Reg = HWREG(ui32GenBase + PWM_O_X_CMPB);                           
    1110                    ;----------------------------------------------------------------------
    1111 00000142 9802              LDR       A1, [SP, #8]          ; [DPU_V7M3_PIPE] |540|  ; [ORIG 16-BIT INS]
    1112 00000144 69C0              LDR       A1, [A1, #28]         ; [DPU_V7M3_PIPE] |540|  ; [ORIG 16-BIT INS]
    1113 00000146 9003              STR       A1, [SP, #12]         ; [DPU_V7M3_PIPE] |540|  ; [ORIG 16-BIT INS]
    1114                            .dwpsn  file "../driverlib/pwm.c",line 541,column 5,is_stmt,isa 1
    1115                    ;----------------------------------------------------------------------
    1116                    ; 542 | else                                                                   
    1117                    ;----------------------------------------------------------------------
    1118 00000148 E002              B         ||$C$L11||            ; [DPU_V7M3_PIPE] |541|  ; [ORIG 16-BIT INS]
    1119                            ; BRANCH OCCURS {||$C$L11||}     ; [] |541| 
    1120                    ;* --------------------------------------------------------------------------*
    1121 0000014a           ||$C$L10||:    
    1122                            .dwpsn  file "../driverlib/pwm.c",line 544,column 9,is_stmt,isa 1
    1123                    ;----------------------------------------------------------------------
    1124                    ; 544 | ui32Reg = HWREG(ui32GenBase + PWM_O_X_CMPA);                           
    1125                    ;----------------------------------------------------------------------
    1126 0000014a 9802              LDR       A1, [SP, #8]          ; [DPU_V7M3_PIPE] |544|  ; [ORIG 16-BIT INS]
    1127 0000014c 6980              LDR       A1, [A1, #24]         ; [DPU_V7M3_PIPE] |544|  ; [ORIG 16-BIT INS]
    1128 0000014e 9003              STR       A1, [SP, #12]         ; [DPU_V7M3_PIPE] |544|  ; [ORIG 16-BIT INS]
    1129                    ;* --------------------------------------------------------------------------*
    1130 00000150           ||$C$L11||:    
    1131                            .dwpsn  file "../driverlib/pwm.c",line 546,column 5,is_stmt,isa 1
    1132                    ;----------------------------------------------------------------------
    1133                    ; 546 | ui32Reg = ui32Load - ui32Reg;                                          
    1134                    ; 548 | //                                                                     
    1135                    ; 549 | // If in up/down count mode, double the pulse width.                   
    1136                    ; 550 | //                                                                     
    1137                    ;----------------------------------------------------------------------
    1138 00000150 9903              LDR       A2, [SP, #12]         ; [DPU_V7M3_PIPE] |546|  ; [ORIG 16-BIT INS]
    1139 00000152 9804              LDR       A1, [SP, #16]         ; [DPU_V7M3_PIPE] |546|  ; [ORIG 16-BIT INS]
    1140 00000154 1A40              SUBS      A1, A1, A2            ; [DPU_V7M3_PIPE] |546|  ; [ORIG 16-BIT INS]
    1141 00000156 9003              STR       A1, [SP, #12]         ; [DPU_V7M3_PIPE] |546|  ; [ORIG 16-BIT INS]
    1142                            .dwpsn  file "../driverlib/pwm.c",line 551,column 5,is_stmt,isa 1
    1143                    ;----------------------------------------------------------------------
    1144                    ; 551 | if(HWREG(ui32GenBase + PWM_O_X_CTL) & PWM_X_CTL_MODE)                  
    1145                    ;----------------------------------------------------------------------
    1146 00000158 9802              LDR       A1, [SP, #8]          ; [DPU_V7M3_PIPE] |551|  ; [ORIG 16-BIT INS]
    1147 0000015a 6800              LDR       A1, [A1, #0]          ; [DPU_V7M3_PIPE] |551|  ; [ORIG 16-BIT INS]
    1148 0000015c 0880              LSRS      A1, A1, #2            ; [DPU_V7M3_PIPE] |551|  ; [ORIG 16-BIT INS]
    1149 0000015e D302              BCC       ||$C$L12||            ; [DPU_V7M3_PIPE] |551|  ; [ORIG 16-BIT INS]
    1150                            ; BRANCHCC OCCURS {||$C$L12||}   ; [] |551| 
    1151                    ;* --------------------------------------------------------------------------*
    1152                            .dwpsn  file "../driverlib/pwm.c",line 553,column 9,is_stmt,isa 1
    1153                    ;----------------------------------------------------------------------
    1154                    ; 553 | ui32Reg = ui32Reg * 2;                                                 
    1155                    ; 556 | //                                                                     
TI ARM Assembler Unix v18.1.1 Fri Jul  3 20:08:25 2020

Tools Copyright (c) 1996-2017 Texas Instruments Incorporated
pwm.asm                                                              PAGE   22

    1156                    ; 557 | // Return the pulse width.                                             
    1157                    ; 558 | //                                                                     
    1158                    ;----------------------------------------------------------------------
    1159 00000160 9803              LDR       A1, [SP, #12]         ; [DPU_V7M3_PIPE] |553|  ; [ORIG 16-BIT INS]
    1160 00000162 0040              LSLS      A1, A1, #1            ; [DPU_V7M3_PIPE] |553|  ; [ORIG 16-BIT INS]
    1161 00000164 9003              STR       A1, [SP, #12]         ; [DPU_V7M3_PIPE] |553|  ; [ORIG 16-BIT INS]
    1162                    ;* --------------------------------------------------------------------------*
    1163 00000166           ||$C$L12||:    
    1164                            .dwpsn  file "../driverlib/pwm.c",line 559,column 5,is_stmt,isa 1
    1165                    ;----------------------------------------------------------------------
    1166                    ; 559 | return(ui32Reg);                                                       
    1167                    ;----------------------------------------------------------------------
    1168 00000166 9803              LDR       A1, [SP, #12]         ; [DPU_V7M3_PIPE] |559|  ; [ORIG 16-BIT INS]
    1169                            .dwpsn  file "../driverlib/pwm.c",line 560,column 1,is_stmt,isa 1
    1170 00000168 B006              ADD       SP, SP, #24           ; [DPU_V7M3_PIPE]  ; [ORIG 16-BIT INS]
    1171                            .dwcfi  cfa_offset, 0
    1172                    $C$DW$62        .dwtag  DW_TAG_TI_branch
    1173                            .dwattr $C$DW$62, DW_AT_low_pc(0x00)
    1174                            .dwattr $C$DW$62, DW_AT_TI_return
    1175                    
    1176 0000016a 4770              BX        LR                    ; [DPU_V7M3_PIPE]  ; [ORIG 16-BIT INS]
    1177                            ; BRANCH OCCURS                  ; [] 
    1178                            .dwattr $C$DW$54, DW_AT_TI_end_file("../driverlib/pwm.c")
    1179                            .dwattr $C$DW$54, DW_AT_TI_end_line(0x230)
    1180                            .dwattr $C$DW$54, DW_AT_TI_end_column(0x01)
    1181                            .dwendentry
    1182                            .dwendtag $C$DW$54
    1183                    
    1184 0000016c                   .sect   ".text"
    1185                            .clink
    1186                            .thumbfunc PWMDeadBandEnable
    1187 0000016c                   .thumb
    1188                            .global PWMDeadBandEnable
    1189                    
    1190                    $C$DW$63        .dwtag  DW_TAG_subprogram
    1191                            .dwattr $C$DW$63, DW_AT_name("PWMDeadBandEnable")
    1192                            .dwattr $C$DW$63, DW_AT_low_pc(PWMDeadBandEnable)
    1193                            .dwattr $C$DW$63, DW_AT_high_pc(0x00)
    1194                            .dwattr $C$DW$63, DW_AT_TI_symbol_name("PWMDeadBandEnable")
    1195                            .dwattr $C$DW$63, DW_AT_external
    1196                            .dwattr $C$DW$63, DW_AT_TI_begin_file("../driverlib/pwm.c")
    1197                            .dwattr $C$DW$63, DW_AT_TI_begin_line(0x245)
    1198                            .dwattr $C$DW$63, DW_AT_TI_begin_column(0x01)
    1199                            .dwattr $C$DW$63, DW_AT_decl_file("../driverlib/pwm.c")
    1200                            .dwattr $C$DW$63, DW_AT_decl_line(0x245)
    1201                            .dwattr $C$DW$63, DW_AT_decl_column(0x01)
    1202                            .dwattr $C$DW$63, DW_AT_TI_max_frame_size(0x10)
    1203                            .dwpsn  file "../driverlib/pwm.c",line 583,column 1,is_stmt,address PWMDeadBandEnable,isa 1
    1204                    
    1205                            .dwfde $C$DW$CIE, PWMDeadBandEnable
    1206                    $C$DW$64        .dwtag  DW_TAG_formal_parameter
    1207                            .dwattr $C$DW$64, DW_AT_name("ui32Base")
    1208                            .dwattr $C$DW$64, DW_AT_TI_symbol_name("ui32Base")
    1209                            .dwattr $C$DW$64, DW_AT_type(*$C$DW$T$27)
    1210                            .dwattr $C$DW$64, DW_AT_location[DW_OP_reg0]
TI ARM Assembler Unix v18.1.1 Fri Jul  3 20:08:25 2020

Tools Copyright (c) 1996-2017 Texas Instruments Incorporated
pwm.asm                                                              PAGE   23

    1211                    
    1212                    $C$DW$65        .dwtag  DW_TAG_formal_parameter
    1213                            .dwattr $C$DW$65, DW_AT_name("ui32Gen")
    1214                            .dwattr $C$DW$65, DW_AT_TI_symbol_name("ui32Gen")
    1215                            .dwattr $C$DW$65, DW_AT_type(*$C$DW$T$27)
    1216                            .dwattr $C$DW$65, DW_AT_location[DW_OP_reg1]
    1217                    
    1218                    $C$DW$66        .dwtag  DW_TAG_formal_parameter
    1219                            .dwattr $C$DW$66, DW_AT_name("ui16Rise")
    1220                            .dwattr $C$DW$66, DW_AT_TI_symbol_name("ui16Rise")
    1221                            .dwattr $C$DW$66, DW_AT_type(*$C$DW$T$35)
    1222                            .dwattr $C$DW$66, DW_AT_location[DW_OP_reg2]
    1223                    
    1224                    $C$DW$67        .dwtag  DW_TAG_formal_parameter
    1225                            .dwattr $C$DW$67, DW_AT_name("ui16Fall")
    1226                            .dwattr $C$DW$67, DW_AT_TI_symbol_name("ui16Fall")
    1227                            .dwattr $C$DW$67, DW_AT_type(*$C$DW$T$35)
    1228                            .dwattr $C$DW$67, DW_AT_location[DW_OP_reg3]
    1229                    
    1230                    ;----------------------------------------------------------------------
    1231                    ; 581 | PWMDeadBandEnable(uint32_t ui32Base, uint32_t ui32Gen,                 
    1232                    ; 582 | uint16_t ui16Rise, uint16_t ui16Fall)                                  
    1233                    ;----------------------------------------------------------------------
    1234                    
    1235                    ;*****************************************************************************
    1236                    ;* FUNCTION NAME: PWMDeadBandEnable                                          *
    1237                    ;*                                                                           *
    1238                    ;*   Regs Modified     : A1,A2,SP,SR                                         *
    1239                    ;*   Regs Used         : A1,A2,A3,A4,SP,LR,SR                                *
    1240                    ;*   Local Frame Size  : 0 Args + 12 Auto + 0 Save = 12 byte                 *
    1241                    ;*****************************************************************************
    1242 0000016c           PWMDeadBandEnable:
    1243                    ;* --------------------------------------------------------------------------*
    1244                            .dwcfi  cfa_offset, 0
    1245 0000016c 0D10F1AD          SUB       SP, SP, #16           ; [DPU_V7M3_PIPE]  ; [KEEP 32-BIT INS]
    1246                            .dwcfi  cfa_offset, 16
    1247                    $C$DW$68        .dwtag  DW_TAG_variable
    1248                            .dwattr $C$DW$68, DW_AT_name("ui32Base")
    1249                            .dwattr $C$DW$68, DW_AT_TI_symbol_name("ui32Base")
    1250                            .dwattr $C$DW$68, DW_AT_type(*$C$DW$T$27)
    1251                            .dwattr $C$DW$68, DW_AT_location[DW_OP_breg13 0]
    1252                    
    1253                    $C$DW$69        .dwtag  DW_TAG_variable
    1254                            .dwattr $C$DW$69, DW_AT_name("ui32Gen")
    1255                            .dwattr $C$DW$69, DW_AT_TI_symbol_name("ui32Gen")
    1256                            .dwattr $C$DW$69, DW_AT_type(*$C$DW$T$27)
    1257                            .dwattr $C$DW$69, DW_AT_location[DW_OP_breg13 4]
    1258                    
    1259                    $C$DW$70        .dwtag  DW_TAG_variable
    1260                            .dwattr $C$DW$70, DW_AT_name("ui16Rise")
    1261                            .dwattr $C$DW$70, DW_AT_TI_symbol_name("ui16Rise")
    1262                            .dwattr $C$DW$70, DW_AT_type(*$C$DW$T$35)
    1263                            .dwattr $C$DW$70, DW_AT_location[DW_OP_breg13 8]
    1264                    
    1265                    $C$DW$71        .dwtag  DW_TAG_variable
TI ARM Assembler Unix v18.1.1 Fri Jul  3 20:08:25 2020

Tools Copyright (c) 1996-2017 Texas Instruments Incorporated
pwm.asm                                                              PAGE   24

    1266                            .dwattr $C$DW$71, DW_AT_name("ui16Fall")
    1267                            .dwattr $C$DW$71, DW_AT_TI_symbol_name("ui16Fall")
    1268                            .dwattr $C$DW$71, DW_AT_type(*$C$DW$T$35)
    1269                            .dwattr $C$DW$71, DW_AT_location[DW_OP_breg13 10]
    1270                    
    1271                    ;----------------------------------------------------------------------
    1272                    ; 584 | //                                                                     
    1273                    ; 585 | // Check the arguments.                                                
    1274                    ; 586 | //                                                                     
    1275                    ; 587 | ASSERT((ui32Base == PWM0_BASE) || (ui32Base == PWM1_BASE));            
    1276                    ; 588 | ASSERT(_PWMGenValid(ui32Gen));                                         
    1277                    ; 589 | ASSERT(ui16Rise < 4096);                                               
    1278                    ; 590 | ASSERT(ui16Fall < 4096);                                               
    1279                    ; 592 | //                                                                     
    1280                    ; 593 | // Compute the generator's base address.                               
    1281                    ; 594 | //                                                                     
    1282                    ;----------------------------------------------------------------------
    1283 00000170 300AF8AD          STRH      A4, [SP, #10]         ; [DPU_V7M3_PIPE] |583|  ; [KEEP 32-BIT INS]
    1284 00000174 2008F8AD          STRH      A3, [SP, #8]          ; [DPU_V7M3_PIPE] |583|  ; [KEEP 32-BIT INS]
    1285 00000178 9101              STR       A2, [SP, #4]          ; [DPU_V7M3_PIPE] |583|  ; [ORIG 16-BIT INS]
    1286 0000017a 9000              STR       A1, [SP, #0]          ; [DPU_V7M3_PIPE] |583|  ; [ORIG 16-BIT INS]
    1287                            .dwpsn  file "../driverlib/pwm.c",line 595,column 5,is_stmt,isa 1
    1288                    ;----------------------------------------------------------------------
    1289                    ; 595 | ui32Gen = PWM_GEN_BADDR(ui32Base, ui32Gen);                            
    1290                    ; 597 | //                                                                     
    1291                    ; 598 | // Write the dead band delay values.                                   
    1292                    ; 599 | //                                                                     
    1293                    ;----------------------------------------------------------------------
    1294 0000017c 9901              LDR       A2, [SP, #4]          ; [DPU_V7M3_PIPE] |595|  ; [ORIG 16-BIT INS]
    1295 0000017e 9800              LDR       A1, [SP, #0]          ; [DPU_V7M3_PIPE] |595|  ; [ORIG 16-BIT INS]
    1296 00000180 1840              ADDS      A1, A1, A2            ; [DPU_V7M3_PIPE] |595|  ; [ORIG 16-BIT INS]
    1297 00000182 9001              STR       A1, [SP, #4]          ; [DPU_V7M3_PIPE] |595|  ; [ORIG 16-BIT INS]
    1298                            .dwpsn  file "../driverlib/pwm.c",line 600,column 5,is_stmt,isa 1
    1299                    ;----------------------------------------------------------------------
    1300                    ; 600 | HWREG(ui32Gen + PWM_O_X_DBRISE) = ui16Rise;                            
    1301                    ;----------------------------------------------------------------------
    1302 00000184 0008F8BD          LDRH      A1, [SP, #8]          ; [DPU_V7M3_PIPE] |600|  ; [KEEP 32-BIT INS]
    1303 00000188 9901              LDR       A2, [SP, #4]          ; [DPU_V7M3_PIPE] |600|  ; [ORIG 16-BIT INS]
    1304 0000018a 62C8              STR       A1, [A2, #44]         ; [DPU_V7M3_PIPE] |600|  ; [ORIG 16-BIT INS]
    1305                            .dwpsn  file "../driverlib/pwm.c",line 601,column 5,is_stmt,isa 1
    1306                    ;----------------------------------------------------------------------
    1307                    ; 601 | HWREG(ui32Gen + PWM_O_X_DBFALL) = ui16Fall;                            
    1308                    ; 603 | //                                                                     
    1309                    ; 604 | // Enable the deadband functionality.                                  
    1310                    ; 605 | //                                                                     
    1311                    ;----------------------------------------------------------------------
    1312 0000018c 000AF8BD          LDRH      A1, [SP, #10]         ; [DPU_V7M3_PIPE] |601|  ; [KEEP 32-BIT INS]
    1313 00000190 9901              LDR       A2, [SP, #4]          ; [DPU_V7M3_PIPE] |601|  ; [ORIG 16-BIT INS]
    1314 00000192 6308              STR       A1, [A2, #48]         ; [DPU_V7M3_PIPE] |601|  ; [ORIG 16-BIT INS]
    1315                            .dwpsn  file "../driverlib/pwm.c",line 606,column 5,is_stmt,isa 1
    1316                    ;----------------------------------------------------------------------
    1317                    ; 606 | HWREG(ui32Gen + PWM_O_X_DBCTL) |= PWM_X_DBCTL_ENABLE;                  
    1318                    ;----------------------------------------------------------------------
    1319 00000194 9801              LDR       A1, [SP, #4]          ; [DPU_V7M3_PIPE] |606|  ; [ORIG 16-BIT INS]
    1320 00000196 3028              ADDS      A1, A1, #40           ; [DPU_V7M3_PIPE] |606|  ; [ORIG 16-BIT INS]
TI ARM Assembler Unix v18.1.1 Fri Jul  3 20:08:25 2020

Tools Copyright (c) 1996-2017 Texas Instruments Incorporated
pwm.asm                                                              PAGE   25

    1321 00000198 6801              LDR       A2, [A1, #0]          ; [DPU_V7M3_PIPE] |606|  ; [ORIG 16-BIT INS]
    1322 0000019a 0101F041          ORR       A2, A2, #1            ; [DPU_V7M3_PIPE] |606|  ; [KEEP 32-BIT INS]
    1323 0000019e 6001              STR       A2, [A1, #0]          ; [DPU_V7M3_PIPE] |606|  ; [ORIG 16-BIT INS]
    1324                            .dwpsn  file "../driverlib/pwm.c",line 607,column 1,is_stmt,isa 1
    1325 000001a0 B004              ADD       SP, SP, #16           ; [DPU_V7M3_PIPE]  ; [ORIG 16-BIT INS]
    1326                            .dwcfi  cfa_offset, 0
    1327                    $C$DW$72        .dwtag  DW_TAG_TI_branch
    1328                            .dwattr $C$DW$72, DW_AT_low_pc(0x00)
    1329                            .dwattr $C$DW$72, DW_AT_TI_return
    1330                    
    1331 000001a2 4770              BX        LR                    ; [DPU_V7M3_PIPE]  ; [ORIG 16-BIT INS]
    1332                            ; BRANCH OCCURS                  ; [] 
    1333                            .dwattr $C$DW$63, DW_AT_TI_end_file("../driverlib/pwm.c")
    1334                            .dwattr $C$DW$63, DW_AT_TI_end_line(0x25f)
    1335                            .dwattr $C$DW$63, DW_AT_TI_end_column(0x01)
    1336                            .dwendentry
    1337                            .dwendtag $C$DW$63
    1338                    
    1339 000001a4                   .sect   ".text"
    1340                            .clink
    1341                            .thumbfunc PWMDeadBandDisable
    1342 000001a4                   .thumb
    1343                            .global PWMDeadBandDisable
    1344                    
    1345                    $C$DW$73        .dwtag  DW_TAG_subprogram
    1346                            .dwattr $C$DW$73, DW_AT_name("PWMDeadBandDisable")
    1347                            .dwattr $C$DW$73, DW_AT_low_pc(PWMDeadBandDisable)
    1348                            .dwattr $C$DW$73, DW_AT_high_pc(0x00)
    1349                            .dwattr $C$DW$73, DW_AT_TI_symbol_name("PWMDeadBandDisable")
    1350                            .dwattr $C$DW$73, DW_AT_external
    1351                            .dwattr $C$DW$73, DW_AT_TI_begin_file("../driverlib/pwm.c")
    1352                            .dwattr $C$DW$73, DW_AT_TI_begin_line(0x270)
    1353                            .dwattr $C$DW$73, DW_AT_TI_begin_column(0x01)
    1354                            .dwattr $C$DW$73, DW_AT_decl_file("../driverlib/pwm.c")
    1355                            .dwattr $C$DW$73, DW_AT_decl_line(0x270)
    1356                            .dwattr $C$DW$73, DW_AT_decl_column(0x01)
    1357                            .dwattr $C$DW$73, DW_AT_TI_max_frame_size(0x08)
    1358                            .dwpsn  file "../driverlib/pwm.c",line 625,column 1,is_stmt,address PWMDeadBandDisable,isa 1
    1359                    
    1360                            .dwfde $C$DW$CIE, PWMDeadBandDisable
    1361                    $C$DW$74        .dwtag  DW_TAG_formal_parameter
    1362                            .dwattr $C$DW$74, DW_AT_name("ui32Base")
    1363                            .dwattr $C$DW$74, DW_AT_TI_symbol_name("ui32Base")
    1364                            .dwattr $C$DW$74, DW_AT_type(*$C$DW$T$27)
    1365                            .dwattr $C$DW$74, DW_AT_location[DW_OP_reg0]
    1366                    
    1367                    $C$DW$75        .dwtag  DW_TAG_formal_parameter
    1368                            .dwattr $C$DW$75, DW_AT_name("ui32Gen")
    1369                            .dwattr $C$DW$75, DW_AT_TI_symbol_name("ui32Gen")
    1370                            .dwattr $C$DW$75, DW_AT_type(*$C$DW$T$27)
    1371                            .dwattr $C$DW$75, DW_AT_location[DW_OP_reg1]
    1372                    
    1373                    ;----------------------------------------------------------------------
    1374                    ; 624 | PWMDeadBandDisable(uint32_t ui32Base, uint32_t ui32Gen)                
    1375                    ;----------------------------------------------------------------------
TI ARM Assembler Unix v18.1.1 Fri Jul  3 20:08:25 2020

Tools Copyright (c) 1996-2017 Texas Instruments Incorporated
pwm.asm                                                              PAGE   26

    1376                    
    1377                    ;*****************************************************************************
    1378                    ;* FUNCTION NAME: PWMDeadBandDisable                                         *
    1379                    ;*                                                                           *
    1380                    ;*   Regs Modified     : A1,A2,SP,SR                                         *
    1381                    ;*   Regs Used         : A1,A2,SP,LR,SR                                      *
    1382                    ;*   Local Frame Size  : 0 Args + 8 Auto + 0 Save = 8 byte                   *
    1383                    ;*****************************************************************************
    1384 000001a4           PWMDeadBandDisable:
    1385                    ;* --------------------------------------------------------------------------*
    1386                            .dwcfi  cfa_offset, 0
    1387 000001a4 0D08F1AD          SUB       SP, SP, #8            ; [DPU_V7M3_PIPE]  ; [KEEP 32-BIT INS]
    1388                            .dwcfi  cfa_offset, 8
    1389                    $C$DW$76        .dwtag  DW_TAG_variable
    1390                            .dwattr $C$DW$76, DW_AT_name("ui32Base")
    1391                            .dwattr $C$DW$76, DW_AT_TI_symbol_name("ui32Base")
    1392                            .dwattr $C$DW$76, DW_AT_type(*$C$DW$T$27)
    1393                            .dwattr $C$DW$76, DW_AT_location[DW_OP_breg13 0]
    1394                    
    1395                    $C$DW$77        .dwtag  DW_TAG_variable
    1396                            .dwattr $C$DW$77, DW_AT_name("ui32Gen")
    1397                            .dwattr $C$DW$77, DW_AT_TI_symbol_name("ui32Gen")
    1398                            .dwattr $C$DW$77, DW_AT_type(*$C$DW$T$27)
    1399                            .dwattr $C$DW$77, DW_AT_location[DW_OP_breg13 4]
    1400                    
    1401                    ;----------------------------------------------------------------------
    1402                    ; 626 | //                                                                     
    1403                    ; 627 | // Check the arguments.                                                
    1404                    ; 628 | //                                                                     
    1405                    ; 629 | ASSERT((ui32Base == PWM0_BASE) || (ui32Base == PWM1_BASE));            
    1406                    ; 630 | ASSERT(_PWMGenValid(ui32Gen));                                         
    1407                    ; 632 | //                                                                     
    1408                    ; 633 | // Disable the deadband functionality.                                 
    1409                    ; 634 | //                                                                     
    1410                    ;----------------------------------------------------------------------
    1411 000001a8 9101              STR       A2, [SP, #4]          ; [DPU_V7M3_PIPE] |625|  ; [ORIG 16-BIT INS]
    1412 000001aa 9000              STR       A1, [SP, #0]          ; [DPU_V7M3_PIPE] |625|  ; [ORIG 16-BIT INS]
    1413                            .dwpsn  file "../driverlib/pwm.c",line 635,column 5,is_stmt,isa 1
    1414                    ;----------------------------------------------------------------------
    1415                    ; 635 | HWREG(PWM_GEN_BADDR(ui32Base, ui32Gen) + PWM_O_X_DBCTL) &=             
    1416                    ; 636 |     ~(PWM_X_DBCTL_ENABLE);                                             
    1417                    ;----------------------------------------------------------------------
    1418 000001ac 9901              LDR       A2, [SP, #4]          ; [DPU_V7M3_PIPE] |635|  ; [ORIG 16-BIT INS]
    1419 000001ae 9800              LDR       A1, [SP, #0]          ; [DPU_V7M3_PIPE] |635|  ; [ORIG 16-BIT INS]
    1420 000001b0 1840              ADDS      A1, A1, A2            ; [DPU_V7M3_PIPE] |635|  ; [ORIG 16-BIT INS]
    1421 000001b2 3028              ADDS      A1, A1, #40           ; [DPU_V7M3_PIPE] |635|  ; [ORIG 16-BIT INS]
    1422 000001b4 6801              LDR       A2, [A1, #0]          ; [DPU_V7M3_PIPE] |635|  ; [ORIG 16-BIT INS]
    1423 000001b6 0101F021          BIC       A2, A2, #1            ; [DPU_V7M3_PIPE] |635|  ; [KEEP 32-BIT INS]
    1424 000001ba 6001              STR       A2, [A1, #0]          ; [DPU_V7M3_PIPE] |635|  ; [ORIG 16-BIT INS]
    1425                            .dwpsn  file "../driverlib/pwm.c",line 637,column 1,is_stmt,isa 1
    1426 000001bc B002              ADD       SP, SP, #8            ; [DPU_V7M3_PIPE]  ; [ORIG 16-BIT INS]
    1427                            .dwcfi  cfa_offset, 0
    1428                    $C$DW$78        .dwtag  DW_TAG_TI_branch
    1429                            .dwattr $C$DW$78, DW_AT_low_pc(0x00)
    1430                            .dwattr $C$DW$78, DW_AT_TI_return
TI ARM Assembler Unix v18.1.1 Fri Jul  3 20:08:25 2020

Tools Copyright (c) 1996-2017 Texas Instruments Incorporated
pwm.asm                                                              PAGE   27

    1431                    
    1432 000001be 4770              BX        LR                    ; [DPU_V7M3_PIPE]  ; [ORIG 16-BIT INS]
    1433                            ; BRANCH OCCURS                  ; [] 
    1434                            .dwattr $C$DW$73, DW_AT_TI_end_file("../driverlib/pwm.c")
    1435                            .dwattr $C$DW$73, DW_AT_TI_end_line(0x27d)
    1436                            .dwattr $C$DW$73, DW_AT_TI_end_column(0x01)
    1437                            .dwendentry
    1438                            .dwendtag $C$DW$73
    1439                    
    1440 000001c0                   .sect   ".text"
    1441                            .clink
    1442                            .thumbfunc PWMSyncUpdate
    1443 000001c0                   .thumb
    1444                            .global PWMSyncUpdate
    1445                    
    1446                    $C$DW$79        .dwtag  DW_TAG_subprogram
    1447                            .dwattr $C$DW$79, DW_AT_name("PWMSyncUpdate")
    1448                            .dwattr $C$DW$79, DW_AT_low_pc(PWMSyncUpdate)
    1449                            .dwattr $C$DW$79, DW_AT_high_pc(0x00)
    1450                            .dwattr $C$DW$79, DW_AT_TI_symbol_name("PWMSyncUpdate")
    1451                            .dwattr $C$DW$79, DW_AT_external
    1452                            .dwattr $C$DW$79, DW_AT_TI_begin_file("../driverlib/pwm.c")
    1453                            .dwattr $C$DW$79, DW_AT_TI_begin_line(0x290)
    1454                            .dwattr $C$DW$79, DW_AT_TI_begin_column(0x01)
    1455                            .dwattr $C$DW$79, DW_AT_decl_file("../driverlib/pwm.c")
    1456                            .dwattr $C$DW$79, DW_AT_decl_line(0x290)
    1457                            .dwattr $C$DW$79, DW_AT_decl_column(0x01)
    1458                            .dwattr $C$DW$79, DW_AT_TI_max_frame_size(0x08)
    1459                            .dwpsn  file "../driverlib/pwm.c",line 657,column 1,is_stmt,address PWMSyncUpdate,isa 1
    1460                    
    1461                            .dwfde $C$DW$CIE, PWMSyncUpdate
    1462                    $C$DW$80        .dwtag  DW_TAG_formal_parameter
    1463                            .dwattr $C$DW$80, DW_AT_name("ui32Base")
    1464                            .dwattr $C$DW$80, DW_AT_TI_symbol_name("ui32Base")
    1465                            .dwattr $C$DW$80, DW_AT_type(*$C$DW$T$27)
    1466                            .dwattr $C$DW$80, DW_AT_location[DW_OP_reg0]
    1467                    
    1468                    $C$DW$81        .dwtag  DW_TAG_formal_parameter
    1469                            .dwattr $C$DW$81, DW_AT_name("ui32GenBits")
    1470                            .dwattr $C$DW$81, DW_AT_TI_symbol_name("ui32GenBits")
    1471                            .dwattr $C$DW$81, DW_AT_type(*$C$DW$T$27)
    1472                            .dwattr $C$DW$81, DW_AT_location[DW_OP_reg1]
    1473                    
    1474                    ;----------------------------------------------------------------------
    1475                    ; 656 | PWMSyncUpdate(uint32_t ui32Base, uint32_t ui32GenBits)                 
    1476                    ;----------------------------------------------------------------------
    1477                    
    1478                    ;*****************************************************************************
    1479                    ;* FUNCTION NAME: PWMSyncUpdate                                              *
    1480                    ;*                                                                           *
    1481                    ;*   Regs Modified     : A1,A2,SP                                            *
    1482                    ;*   Regs Used         : A1,A2,SP,LR                                         *
    1483                    ;*   Local Frame Size  : 0 Args + 8 Auto + 0 Save = 8 byte                   *
    1484                    ;*****************************************************************************
    1485 000001c0           PWMSyncUpdate:
TI ARM Assembler Unix v18.1.1 Fri Jul  3 20:08:25 2020

Tools Copyright (c) 1996-2017 Texas Instruments Incorporated
pwm.asm                                                              PAGE   28

    1486                    ;* --------------------------------------------------------------------------*
    1487                            .dwcfi  cfa_offset, 0
    1488 000001c0 0D08F1AD          SUB       SP, SP, #8            ; [DPU_V7M3_PIPE]  ; [KEEP 32-BIT INS]
    1489                            .dwcfi  cfa_offset, 8
    1490                    $C$DW$82        .dwtag  DW_TAG_variable
    1491                            .dwattr $C$DW$82, DW_AT_name("ui32Base")
    1492                            .dwattr $C$DW$82, DW_AT_TI_symbol_name("ui32Base")
    1493                            .dwattr $C$DW$82, DW_AT_type(*$C$DW$T$27)
    1494                            .dwattr $C$DW$82, DW_AT_location[DW_OP_breg13 0]
    1495                    
    1496                    $C$DW$83        .dwtag  DW_TAG_variable
    1497                            .dwattr $C$DW$83, DW_AT_name("ui32GenBits")
    1498                            .dwattr $C$DW$83, DW_AT_TI_symbol_name("ui32GenBits")
    1499                            .dwattr $C$DW$83, DW_AT_type(*$C$DW$T$27)
    1500                            .dwattr $C$DW$83, DW_AT_location[DW_OP_breg13 4]
    1501                    
    1502                    ;----------------------------------------------------------------------
    1503                    ; 658 | //                                                                     
    1504                    ; 659 | // Check the arguments.                                                
    1505                    ; 660 | //                                                                     
    1506                    ; 661 | ASSERT((ui32Base == PWM0_BASE) || (ui32Base == PWM1_BASE));            
    1507                    ; 662 | ASSERT(!(ui32GenBits & ~(PWM_GEN_0_BIT | PWM_GEN_1_BIT | PWM_GEN_2_BIT
    1508                    ;     | |                                                                      
    1509                    ; 663 |                          PWM_GEN_3_BIT)));                             
    1510                    ; 665 | //                                                                     
    1511                    ; 666 | // Synchronize pending PWM register changes.                           
    1512                    ; 667 | //                                                                     
    1513                    ;----------------------------------------------------------------------
    1514 000001c4 9101              STR       A2, [SP, #4]          ; [DPU_V7M3_PIPE] |657|  ; [ORIG 16-BIT INS]
    1515 000001c6 9000              STR       A1, [SP, #0]          ; [DPU_V7M3_PIPE] |657|  ; [ORIG 16-BIT INS]
    1516                            .dwpsn  file "../driverlib/pwm.c",line 668,column 5,is_stmt,isa 1
    1517                    ;----------------------------------------------------------------------
    1518                    ; 668 | HWREG(ui32Base + PWM_O_CTL) = ui32GenBits;                             
    1519                    ;----------------------------------------------------------------------
    1520 000001c8 9801              LDR       A1, [SP, #4]          ; [DPU_V7M3_PIPE] |668|  ; [ORIG 16-BIT INS]
    1521 000001ca 9900              LDR       A2, [SP, #0]          ; [DPU_V7M3_PIPE] |668|  ; [ORIG 16-BIT INS]
    1522 000001cc 6008              STR       A1, [A2, #0]          ; [DPU_V7M3_PIPE] |668|  ; [ORIG 16-BIT INS]
    1523                            .dwpsn  file "../driverlib/pwm.c",line 669,column 1,is_stmt,isa 1
    1524 000001ce B002              ADD       SP, SP, #8            ; [DPU_V7M3_PIPE]  ; [ORIG 16-BIT INS]
    1525                            .dwcfi  cfa_offset, 0
    1526                    $C$DW$84        .dwtag  DW_TAG_TI_branch
    1527                            .dwattr $C$DW$84, DW_AT_low_pc(0x00)
    1528                            .dwattr $C$DW$84, DW_AT_TI_return
    1529                    
    1530 000001d0 4770              BX        LR                    ; [DPU_V7M3_PIPE]  ; [ORIG 16-BIT INS]
    1531                            ; BRANCH OCCURS                  ; [] 
    1532                            .dwattr $C$DW$79, DW_AT_TI_end_file("../driverlib/pwm.c")
    1533                            .dwattr $C$DW$79, DW_AT_TI_end_line(0x29d)
    1534                            .dwattr $C$DW$79, DW_AT_TI_end_column(0x01)
    1535                            .dwendentry
    1536                            .dwendtag $C$DW$79
    1537                    
    1538 000001d2                   .sect   ".text"
    1539                            .clink
    1540                            .thumbfunc PWMSyncTimeBase
TI ARM Assembler Unix v18.1.1 Fri Jul  3 20:08:25 2020

Tools Copyright (c) 1996-2017 Texas Instruments Incorporated
pwm.asm                                                              PAGE   29

    1541 000001d2                   .thumb
    1542                            .global PWMSyncTimeBase
    1543                    
    1544                    $C$DW$85        .dwtag  DW_TAG_subprogram
    1545                            .dwattr $C$DW$85, DW_AT_name("PWMSyncTimeBase")
    1546                            .dwattr $C$DW$85, DW_AT_low_pc(PWMSyncTimeBase)
    1547                            .dwattr $C$DW$85, DW_AT_high_pc(0x00)
    1548                            .dwattr $C$DW$85, DW_AT_TI_symbol_name("PWMSyncTimeBase")
    1549                            .dwattr $C$DW$85, DW_AT_external
    1550                            .dwattr $C$DW$85, DW_AT_TI_begin_file("../driverlib/pwm.c")
    1551                            .dwattr $C$DW$85, DW_AT_TI_begin_line(0x2b0)
    1552                            .dwattr $C$DW$85, DW_AT_TI_begin_column(0x01)
    1553                            .dwattr $C$DW$85, DW_AT_decl_file("../driverlib/pwm.c")
    1554                            .dwattr $C$DW$85, DW_AT_decl_line(0x2b0)
    1555                            .dwattr $C$DW$85, DW_AT_decl_column(0x01)
    1556                            .dwattr $C$DW$85, DW_AT_TI_max_frame_size(0x08)
    1557                            .dwpsn  file "../driverlib/pwm.c",line 689,column 1,is_stmt,address PWMSyncTimeBase,isa 1
    1558                    
    1559                            .dwfde $C$DW$CIE, PWMSyncTimeBase
    1560                    $C$DW$86        .dwtag  DW_TAG_formal_parameter
    1561                            .dwattr $C$DW$86, DW_AT_name("ui32Base")
    1562                            .dwattr $C$DW$86, DW_AT_TI_symbol_name("ui32Base")
    1563                            .dwattr $C$DW$86, DW_AT_type(*$C$DW$T$27)
    1564                            .dwattr $C$DW$86, DW_AT_location[DW_OP_reg0]
    1565                    
    1566                    $C$DW$87        .dwtag  DW_TAG_formal_parameter
    1567                            .dwattr $C$DW$87, DW_AT_name("ui32GenBits")
    1568                            .dwattr $C$DW$87, DW_AT_TI_symbol_name("ui32GenBits")
    1569                            .dwattr $C$DW$87, DW_AT_type(*$C$DW$T$27)
    1570                            .dwattr $C$DW$87, DW_AT_location[DW_OP_reg1]
    1571                    
    1572                    ;----------------------------------------------------------------------
    1573                    ; 688 | PWMSyncTimeBase(uint32_t ui32Base, uint32_t ui32GenBits)               
    1574                    ;----------------------------------------------------------------------
    1575                    
    1576                    ;*****************************************************************************
    1577                    ;* FUNCTION NAME: PWMSyncTimeBase                                            *
    1578                    ;*                                                                           *
    1579                    ;*   Regs Modified     : A1,A2,SP                                            *
    1580                    ;*   Regs Used         : A1,A2,SP,LR                                         *
    1581                    ;*   Local Frame Size  : 0 Args + 8 Auto + 0 Save = 8 byte                   *
    1582                    ;*****************************************************************************
    1583 000001d2           PWMSyncTimeBase:
    1584                    ;* --------------------------------------------------------------------------*
    1585                            .dwcfi  cfa_offset, 0
    1586 000001d2 0D08F1AD          SUB       SP, SP, #8            ; [DPU_V7M3_PIPE]  ; [KEEP 32-BIT INS]
    1587                            .dwcfi  cfa_offset, 8
    1588                    $C$DW$88        .dwtag  DW_TAG_variable
    1589                            .dwattr $C$DW$88, DW_AT_name("ui32Base")
    1590                            .dwattr $C$DW$88, DW_AT_TI_symbol_name("ui32Base")
    1591                            .dwattr $C$DW$88, DW_AT_type(*$C$DW$T$27)
    1592                            .dwattr $C$DW$88, DW_AT_location[DW_OP_breg13 0]
    1593                    
    1594                    $C$DW$89        .dwtag  DW_TAG_variable
    1595                            .dwattr $C$DW$89, DW_AT_name("ui32GenBits")
TI ARM Assembler Unix v18.1.1 Fri Jul  3 20:08:25 2020

Tools Copyright (c) 1996-2017 Texas Instruments Incorporated
pwm.asm                                                              PAGE   30

    1596                            .dwattr $C$DW$89, DW_AT_TI_symbol_name("ui32GenBits")
    1597                            .dwattr $C$DW$89, DW_AT_type(*$C$DW$T$27)
    1598                            .dwattr $C$DW$89, DW_AT_location[DW_OP_breg13 4]
    1599                    
    1600                    ;----------------------------------------------------------------------
    1601                    ; 690 | //                                                                     
    1602                    ; 691 | // Check the arguments.                                                
    1603                    ; 692 | //                                                                     
    1604                    ; 693 | ASSERT((ui32Base == PWM0_BASE) || (ui32Base == PWM1_BASE));            
    1605                    ; 694 | ASSERT(!(ui32GenBits & ~(PWM_GEN_0_BIT | PWM_GEN_1_BIT | PWM_GEN_2_BIT
    1606                    ;     | |                                                                      
    1607                    ; 695 |                          PWM_GEN_3_BIT)));                             
    1608                    ; 697 | //                                                                     
    1609                    ; 698 | // Synchronize the counters in the specified generators by writing to t
    1610                    ;     | he                                                                     
    1611                    ; 699 | // module's synchronization register.                                  
    1612                    ; 700 | //                                                                     
    1613                    ;----------------------------------------------------------------------
    1614 000001d6 9101              STR       A2, [SP, #4]          ; [DPU_V7M3_PIPE] |689|  ; [ORIG 16-BIT INS]
    1615 000001d8 9000              STR       A1, [SP, #0]          ; [DPU_V7M3_PIPE] |689|  ; [ORIG 16-BIT INS]
    1616                            .dwpsn  file "../driverlib/pwm.c",line 701,column 5,is_stmt,isa 1
    1617                    ;----------------------------------------------------------------------
    1618                    ; 701 | HWREG(ui32Base + PWM_O_SYNC) = ui32GenBits;                            
    1619                    ;----------------------------------------------------------------------
    1620 000001da 9801              LDR       A1, [SP, #4]          ; [DPU_V7M3_PIPE] |701|  ; [ORIG 16-BIT INS]
    1621 000001dc 9900              LDR       A2, [SP, #0]          ; [DPU_V7M3_PIPE] |701|  ; [ORIG 16-BIT INS]
    1622 000001de 6048              STR       A1, [A2, #4]          ; [DPU_V7M3_PIPE] |701|  ; [ORIG 16-BIT INS]
    1623                            .dwpsn  file "../driverlib/pwm.c",line 702,column 1,is_stmt,isa 1
    1624 000001e0 B002              ADD       SP, SP, #8            ; [DPU_V7M3_PIPE]  ; [ORIG 16-BIT INS]
    1625                            .dwcfi  cfa_offset, 0
    1626                    $C$DW$90        .dwtag  DW_TAG_TI_branch
    1627                            .dwattr $C$DW$90, DW_AT_low_pc(0x00)
    1628                            .dwattr $C$DW$90, DW_AT_TI_return
    1629                    
    1630 000001e2 4770              BX        LR                    ; [DPU_V7M3_PIPE]  ; [ORIG 16-BIT INS]
    1631                            ; BRANCH OCCURS                  ; [] 
    1632                            .dwattr $C$DW$85, DW_AT_TI_end_file("../driverlib/pwm.c")
    1633                            .dwattr $C$DW$85, DW_AT_TI_end_line(0x2be)
    1634                            .dwattr $C$DW$85, DW_AT_TI_end_column(0x01)
    1635                            .dwendentry
    1636                            .dwendtag $C$DW$85
    1637                    
    1638 000001e4                   .sect   ".text"
    1639                            .clink
    1640                            .thumbfunc PWMOutputState
    1641 000001e4                   .thumb
    1642                            .global PWMOutputState
    1643                    
    1644                    $C$DW$91        .dwtag  DW_TAG_subprogram
    1645                            .dwattr $C$DW$91, DW_AT_name("PWMOutputState")
    1646                            .dwattr $C$DW$91, DW_AT_low_pc(PWMOutputState)
    1647                            .dwattr $C$DW$91, DW_AT_high_pc(0x00)
    1648                            .dwattr $C$DW$91, DW_AT_TI_symbol_name("PWMOutputState")
    1649                            .dwattr $C$DW$91, DW_AT_external
    1650                            .dwattr $C$DW$91, DW_AT_TI_begin_file("../driverlib/pwm.c")
TI ARM Assembler Unix v18.1.1 Fri Jul  3 20:08:25 2020

Tools Copyright (c) 1996-2017 Texas Instruments Incorporated
pwm.asm                                                              PAGE   31

    1651                            .dwattr $C$DW$91, DW_AT_TI_begin_line(0x2d6)
    1652                            .dwattr $C$DW$91, DW_AT_TI_begin_column(0x01)
    1653                            .dwattr $C$DW$91, DW_AT_decl_file("../driverlib/pwm.c")
    1654                            .dwattr $C$DW$91, DW_AT_decl_line(0x2d6)
    1655                            .dwattr $C$DW$91, DW_AT_decl_column(0x01)
    1656                            .dwattr $C$DW$91, DW_AT_TI_max_frame_size(0x10)
    1657                            .dwpsn  file "../driverlib/pwm.c",line 728,column 1,is_stmt,address PWMOutputState,isa 1
    1658                    
    1659                            .dwfde $C$DW$CIE, PWMOutputState
    1660                    $C$DW$92        .dwtag  DW_TAG_formal_parameter
    1661                            .dwattr $C$DW$92, DW_AT_name("ui32Base")
    1662                            .dwattr $C$DW$92, DW_AT_TI_symbol_name("ui32Base")
    1663                            .dwattr $C$DW$92, DW_AT_type(*$C$DW$T$27)
    1664                            .dwattr $C$DW$92, DW_AT_location[DW_OP_reg0]
    1665                    
    1666                    $C$DW$93        .dwtag  DW_TAG_formal_parameter
    1667                            .dwattr $C$DW$93, DW_AT_name("ui32PWMOutBits")
    1668                            .dwattr $C$DW$93, DW_AT_TI_symbol_name("ui32PWMOutBits")
    1669                            .dwattr $C$DW$93, DW_AT_type(*$C$DW$T$27)
    1670                            .dwattr $C$DW$93, DW_AT_location[DW_OP_reg1]
    1671                    
    1672                    $C$DW$94        .dwtag  DW_TAG_formal_parameter
    1673                            .dwattr $C$DW$94, DW_AT_name("bEnable")
    1674                            .dwattr $C$DW$94, DW_AT_TI_symbol_name("bEnable")
    1675                            .dwattr $C$DW$94, DW_AT_type(*$C$DW$T$37)
    1676                            .dwattr $C$DW$94, DW_AT_location[DW_OP_reg2]
    1677                    
    1678                    ;----------------------------------------------------------------------
    1679                    ; 726 | PWMOutputState(uint32_t ui32Base, uint32_t ui32PWMOutBits,             
    1680                    ; 727 | bool bEnable)                                                          
    1681                    ;----------------------------------------------------------------------
    1682                    
    1683                    ;*****************************************************************************
    1684                    ;* FUNCTION NAME: PWMOutputState                                             *
    1685                    ;*                                                                           *
    1686                    ;*   Regs Modified     : A1,A2,A3,SP,SR                                      *
    1687                    ;*   Regs Used         : A1,A2,A3,SP,LR,SR                                   *
    1688                    ;*   Local Frame Size  : 0 Args + 12 Auto + 0 Save = 12 byte                 *
    1689                    ;*****************************************************************************
    1690 000001e4           PWMOutputState:
    1691                    ;* --------------------------------------------------------------------------*
    1692                            .dwcfi  cfa_offset, 0
    1693 000001e4 0D10F1AD          SUB       SP, SP, #16           ; [DPU_V7M3_PIPE]  ; [KEEP 32-BIT INS]
    1694                            .dwcfi  cfa_offset, 16
    1695                    $C$DW$95        .dwtag  DW_TAG_variable
    1696                            .dwattr $C$DW$95, DW_AT_name("ui32Base")
    1697                            .dwattr $C$DW$95, DW_AT_TI_symbol_name("ui32Base")
    1698                            .dwattr $C$DW$95, DW_AT_type(*$C$DW$T$27)
    1699                            .dwattr $C$DW$95, DW_AT_location[DW_OP_breg13 0]
    1700                    
    1701                    $C$DW$96        .dwtag  DW_TAG_variable
    1702                            .dwattr $C$DW$96, DW_AT_name("ui32PWMOutBits")
    1703                            .dwattr $C$DW$96, DW_AT_TI_symbol_name("ui32PWMOutBits")
    1704                            .dwattr $C$DW$96, DW_AT_type(*$C$DW$T$27)
    1705                            .dwattr $C$DW$96, DW_AT_location[DW_OP_breg13 4]
TI ARM Assembler Unix v18.1.1 Fri Jul  3 20:08:25 2020

Tools Copyright (c) 1996-2017 Texas Instruments Incorporated
pwm.asm                                                              PAGE   32

    1706                    
    1707                    $C$DW$97        .dwtag  DW_TAG_variable
    1708                            .dwattr $C$DW$97, DW_AT_name("bEnable")
    1709                            .dwattr $C$DW$97, DW_AT_TI_symbol_name("bEnable")
    1710                            .dwattr $C$DW$97, DW_AT_type(*$C$DW$T$37)
    1711                            .dwattr $C$DW$97, DW_AT_location[DW_OP_breg13 8]
    1712                    
    1713                    ;----------------------------------------------------------------------
    1714                    ; 729 | //                                                                     
    1715                    ; 730 | // Check the arguments.                                                
    1716                    ; 731 | //                                                                     
    1717                    ; 732 | ASSERT((ui32Base == PWM0_BASE) || (ui32Base == PWM1_BASE));            
    1718                    ; 733 | ASSERT(!(ui32PWMOutBits & ~(PWM_OUT_0_BIT | PWM_OUT_1_BIT | PWM_OUT_2_B
    1719                    ;     | IT |                                                                   
    1720                    ; 734 |                             PWM_OUT_3_BIT | PWM_OUT_4_BIT | PWM_OUT_5_B
    1721                    ;     | IT |                                                                   
    1722                    ; 735 |                             PWM_OUT_6_BIT | PWM_OUT_7_BIT)));          
    1723                    ; 737 | //                                                                     
    1724                    ; 738 | // Read the module's ENABLE output control register and set or clear th
    1725                    ;     | e                                                                      
    1726                    ; 739 | // requested bits.                                                     
    1727                    ; 740 | //                                                                     
    1728                    ;----------------------------------------------------------------------
    1729 000001e8 2008F88D          STRB      A3, [SP, #8]          ; [DPU_V7M3_PIPE] |728|  ; [KEEP 32-BIT INS]
    1730 000001ec 9101              STR       A2, [SP, #4]          ; [DPU_V7M3_PIPE] |728|  ; [ORIG 16-BIT INS]
    1731 000001ee 9000              STR       A1, [SP, #0]          ; [DPU_V7M3_PIPE] |728|  ; [ORIG 16-BIT INS]
    1732                            .dwpsn  file "../driverlib/pwm.c",line 741,column 5,is_stmt,isa 1
    1733                    ;----------------------------------------------------------------------
    1734                    ; 741 | if(bEnable == true)                                                    
    1735                    ;----------------------------------------------------------------------
    1736 000001f0 0008F89D          LDRB      A1, [SP, #8]          ; [DPU_V7M3_PIPE] |741|  ; [KEEP 32-BIT INS]
    1737 000001f4 2801              CMP       A1, #1                ; [DPU_V7M3_PIPE] |741|  ; [ORIG 16-BIT INS]
    1738 000001f6 D106              BNE       ||$C$L13||            ; [DPU_V7M3_PIPE] |741|  ; [ORIG 16-BIT INS]
    1739                            ; BRANCHCC OCCURS {||$C$L13||}   ; [] |741| 
    1740                    ;* --------------------------------------------------------------------------*
    1741                            .dwpsn  file "../driverlib/pwm.c",line 743,column 9,is_stmt,isa 1
    1742                    ;----------------------------------------------------------------------
    1743                    ; 743 | HWREG(ui32Base + PWM_O_ENABLE) |= ui32PWMOutBits;                      
    1744                    ;----------------------------------------------------------------------
    1745 000001f8 9800              LDR       A1, [SP, #0]          ; [DPU_V7M3_PIPE] |743|  ; [ORIG 16-BIT INS]
    1746 000001fa 9901              LDR       A2, [SP, #4]          ; [DPU_V7M3_PIPE] |743|  ; [ORIG 16-BIT INS]
    1747 000001fc 3008              ADDS      A1, A1, #8            ; [DPU_V7M3_PIPE] |743|  ; [ORIG 16-BIT INS]
    1748 000001fe 6802              LDR       A3, [A1, #0]          ; [DPU_V7M3_PIPE] |743|  ; [ORIG 16-BIT INS]
    1749 00000200 4311              ORRS      A2, A2, A3            ; [DPU_V7M3_PIPE] |743|  ; [ORIG 16-BIT INS]
    1750 00000202 6001              STR       A2, [A1, #0]          ; [DPU_V7M3_PIPE] |743|  ; [ORIG 16-BIT INS]
    1751                            .dwpsn  file "../driverlib/pwm.c",line 744,column 5,is_stmt,isa 1
    1752                    ;----------------------------------------------------------------------
    1753                    ; 745 | else                                                                   
    1754                    ;----------------------------------------------------------------------
    1755 00000204 E005              B         ||$C$L14||            ; [DPU_V7M3_PIPE] |744|  ; [ORIG 16-BIT INS]
    1756                            ; BRANCH OCCURS {||$C$L14||}     ; [] |744| 
    1757                    ;* --------------------------------------------------------------------------*
    1758 00000206           ||$C$L13||:    
    1759                            .dwpsn  file "../driverlib/pwm.c",line 747,column 9,is_stmt,isa 1
    1760                    ;----------------------------------------------------------------------
TI ARM Assembler Unix v18.1.1 Fri Jul  3 20:08:25 2020

Tools Copyright (c) 1996-2017 Texas Instruments Incorporated
pwm.asm                                                              PAGE   33

    1761                    ; 747 | HWREG(ui32Base + PWM_O_ENABLE) &= ~(ui32PWMOutBits);                   
    1762                    ;----------------------------------------------------------------------
    1763 00000206 9800              LDR       A1, [SP, #0]          ; [DPU_V7M3_PIPE] |747|  ; [ORIG 16-BIT INS]
    1764 00000208 9A01              LDR       A3, [SP, #4]          ; [DPU_V7M3_PIPE] |747|  ; [ORIG 16-BIT INS]
    1765 0000020a 3008              ADDS      A1, A1, #8            ; [DPU_V7M3_PIPE] |747|  ; [ORIG 16-BIT INS]
    1766 0000020c 6801              LDR       A2, [A1, #0]          ; [DPU_V7M3_PIPE] |747|  ; [ORIG 16-BIT INS]
    1767 0000020e 4391              BICS      A2, A2, A3            ; [DPU_V7M3_PIPE] |747|  ; [ORIG 16-BIT INS]
    1768 00000210 6001              STR       A2, [A1, #0]          ; [DPU_V7M3_PIPE] |747|  ; [ORIG 16-BIT INS]
    1769                            .dwpsn  file "../driverlib/pwm.c",line 749,column 1,is_stmt,isa 1
    1770                    ;* --------------------------------------------------------------------------*
    1771 00000212           ||$C$L14||:    
    1772 00000212 B004              ADD       SP, SP, #16           ; [DPU_V7M3_PIPE]  ; [ORIG 16-BIT INS]
    1773                            .dwcfi  cfa_offset, 0
    1774                    $C$DW$98        .dwtag  DW_TAG_TI_branch
    1775                            .dwattr $C$DW$98, DW_AT_low_pc(0x00)
    1776                            .dwattr $C$DW$98, DW_AT_TI_return
    1777                    
    1778 00000214 4770              BX        LR                    ; [DPU_V7M3_PIPE]  ; [ORIG 16-BIT INS]
    1779                            ; BRANCH OCCURS                  ; [] 
    1780                            .dwattr $C$DW$91, DW_AT_TI_end_file("../driverlib/pwm.c")
    1781                            .dwattr $C$DW$91, DW_AT_TI_end_line(0x2ed)
    1782                            .dwattr $C$DW$91, DW_AT_TI_end_column(0x01)
    1783                            .dwendentry
    1784                            .dwendtag $C$DW$91
    1785                    
    1786 00000216                   .sect   ".text"
    1787                            .clink
    1788                            .thumbfunc PWMOutputInvert
    1789 00000216                   .thumb
    1790                            .global PWMOutputInvert
    1791                    
    1792                    $C$DW$99        .dwtag  DW_TAG_subprogram
    1793                            .dwattr $C$DW$99, DW_AT_name("PWMOutputInvert")
    1794                            .dwattr $C$DW$99, DW_AT_low_pc(PWMOutputInvert)
    1795                            .dwattr $C$DW$99, DW_AT_high_pc(0x00)
    1796                            .dwattr $C$DW$99, DW_AT_TI_symbol_name("PWMOutputInvert")
    1797                            .dwattr $C$DW$99, DW_AT_external
    1798                            .dwattr $C$DW$99, DW_AT_TI_begin_file("../driverlib/pwm.c")
    1799                            .dwattr $C$DW$99, DW_AT_TI_begin_line(0x306)
    1800                            .dwattr $C$DW$99, DW_AT_TI_begin_column(0x01)
    1801                            .dwattr $C$DW$99, DW_AT_decl_file("../driverlib/pwm.c")
    1802                            .dwattr $C$DW$99, DW_AT_decl_line(0x306)
    1803                            .dwattr $C$DW$99, DW_AT_decl_column(0x01)
    1804                            .dwattr $C$DW$99, DW_AT_TI_max_frame_size(0x10)
    1805                            .dwpsn  file "../driverlib/pwm.c",line 776,column 1,is_stmt,address PWMOutputInvert,isa 1
    1806                    
    1807                            .dwfde $C$DW$CIE, PWMOutputInvert
    1808                    $C$DW$100       .dwtag  DW_TAG_formal_parameter
    1809                            .dwattr $C$DW$100, DW_AT_name("ui32Base")
    1810                            .dwattr $C$DW$100, DW_AT_TI_symbol_name("ui32Base")
    1811                            .dwattr $C$DW$100, DW_AT_type(*$C$DW$T$27)
    1812                            .dwattr $C$DW$100, DW_AT_location[DW_OP_reg0]
    1813                    
    1814                    $C$DW$101       .dwtag  DW_TAG_formal_parameter
    1815                            .dwattr $C$DW$101, DW_AT_name("ui32PWMOutBits")
TI ARM Assembler Unix v18.1.1 Fri Jul  3 20:08:25 2020

Tools Copyright (c) 1996-2017 Texas Instruments Incorporated
pwm.asm                                                              PAGE   34

    1816                            .dwattr $C$DW$101, DW_AT_TI_symbol_name("ui32PWMOutBits")
    1817                            .dwattr $C$DW$101, DW_AT_type(*$C$DW$T$27)
    1818                            .dwattr $C$DW$101, DW_AT_location[DW_OP_reg1]
    1819                    
    1820                    $C$DW$102       .dwtag  DW_TAG_formal_parameter
    1821                            .dwattr $C$DW$102, DW_AT_name("bInvert")
    1822                            .dwattr $C$DW$102, DW_AT_TI_symbol_name("bInvert")
    1823                            .dwattr $C$DW$102, DW_AT_type(*$C$DW$T$37)
    1824                            .dwattr $C$DW$102, DW_AT_location[DW_OP_reg2]
    1825                    
    1826                    ;----------------------------------------------------------------------
    1827                    ; 774 | PWMOutputInvert(uint32_t ui32Base, uint32_t ui32PWMOutBits,            
    1828                    ; 775 | bool bInvert)                                                          
    1829                    ;----------------------------------------------------------------------
    1830                    
    1831                    ;*****************************************************************************
    1832                    ;* FUNCTION NAME: PWMOutputInvert                                            *
    1833                    ;*                                                                           *
    1834                    ;*   Regs Modified     : A1,A2,A3,SP,SR                                      *
    1835                    ;*   Regs Used         : A1,A2,A3,SP,LR,SR                                   *
    1836                    ;*   Local Frame Size  : 0 Args + 12 Auto + 0 Save = 12 byte                 *
    1837                    ;*****************************************************************************
    1838 00000216           PWMOutputInvert:
    1839                    ;* --------------------------------------------------------------------------*
    1840                            .dwcfi  cfa_offset, 0
    1841 00000216 0D10F1AD          SUB       SP, SP, #16           ; [DPU_V7M3_PIPE]  ; [KEEP 32-BIT INS]
    1842                            .dwcfi  cfa_offset, 16
    1843                    $C$DW$103       .dwtag  DW_TAG_variable
    1844                            .dwattr $C$DW$103, DW_AT_name("ui32Base")
    1845                            .dwattr $C$DW$103, DW_AT_TI_symbol_name("ui32Base")
    1846                            .dwattr $C$DW$103, DW_AT_type(*$C$DW$T$27)
    1847                            .dwattr $C$DW$103, DW_AT_location[DW_OP_breg13 0]
    1848                    
    1849                    $C$DW$104       .dwtag  DW_TAG_variable
    1850                            .dwattr $C$DW$104, DW_AT_name("ui32PWMOutBits")
    1851                            .dwattr $C$DW$104, DW_AT_TI_symbol_name("ui32PWMOutBits")
    1852                            .dwattr $C$DW$104, DW_AT_type(*$C$DW$T$27)
    1853                            .dwattr $C$DW$104, DW_AT_location[DW_OP_breg13 4]
    1854                    
    1855                    $C$DW$105       .dwtag  DW_TAG_variable
    1856                            .dwattr $C$DW$105, DW_AT_name("bInvert")
    1857                            .dwattr $C$DW$105, DW_AT_TI_symbol_name("bInvert")
    1858                            .dwattr $C$DW$105, DW_AT_type(*$C$DW$T$37)
    1859                            .dwattr $C$DW$105, DW_AT_location[DW_OP_breg13 8]
    1860                    
    1861                    ;----------------------------------------------------------------------
    1862                    ; 777 | //                                                                     
    1863                    ; 778 | // Check the arguments.                                                
    1864                    ; 779 | //                                                                     
    1865                    ; 780 | ASSERT((ui32Base == PWM0_BASE) || (ui32Base == PWM1_BASE));            
    1866                    ; 781 | ASSERT(!(ui32PWMOutBits & ~(PWM_OUT_0_BIT | PWM_OUT_1_BIT | PWM_OUT_2_B
    1867                    ;     | IT |                                                                   
    1868                    ; 782 |                             PWM_OUT_3_BIT | PWM_OUT_4_BIT | PWM_OUT_5_B
    1869                    ;     | IT |                                                                   
    1870                    ; 783 |                             PWM_OUT_6_BIT | PWM_OUT_7_BIT)));          
TI ARM Assembler Unix v18.1.1 Fri Jul  3 20:08:25 2020

Tools Copyright (c) 1996-2017 Texas Instruments Incorporated
pwm.asm                                                              PAGE   35

    1871                    ; 785 | //                                                                     
    1872                    ; 786 | // Read the module's INVERT output control register and set or clear th
    1873                    ;     | e                                                                      
    1874                    ; 787 | // requested bits.                                                     
    1875                    ; 788 | //                                                                     
    1876                    ;----------------------------------------------------------------------
    1877 0000021a 2008F88D          STRB      A3, [SP, #8]          ; [DPU_V7M3_PIPE] |776|  ; [KEEP 32-BIT INS]
    1878 0000021e 9101              STR       A2, [SP, #4]          ; [DPU_V7M3_PIPE] |776|  ; [ORIG 16-BIT INS]
    1879 00000220 9000              STR       A1, [SP, #0]          ; [DPU_V7M3_PIPE] |776|  ; [ORIG 16-BIT INS]
    1880                            .dwpsn  file "../driverlib/pwm.c",line 789,column 5,is_stmt,isa 1
    1881                    ;----------------------------------------------------------------------
    1882                    ; 789 | if(bInvert == true)                                                    
    1883                    ;----------------------------------------------------------------------
    1884 00000222 0008F89D          LDRB      A1, [SP, #8]          ; [DPU_V7M3_PIPE] |789|  ; [KEEP 32-BIT INS]
    1885 00000226 2801              CMP       A1, #1                ; [DPU_V7M3_PIPE] |789|  ; [ORIG 16-BIT INS]
    1886 00000228 D106              BNE       ||$C$L15||            ; [DPU_V7M3_PIPE] |789|  ; [ORIG 16-BIT INS]
    1887                            ; BRANCHCC OCCURS {||$C$L15||}   ; [] |789| 
    1888                    ;* --------------------------------------------------------------------------*
    1889                            .dwpsn  file "../driverlib/pwm.c",line 791,column 9,is_stmt,isa 1
    1890                    ;----------------------------------------------------------------------
    1891                    ; 791 | HWREG(ui32Base + PWM_O_INVERT) |= ui32PWMOutBits;                      
    1892                    ;----------------------------------------------------------------------
    1893 0000022a 9800              LDR       A1, [SP, #0]          ; [DPU_V7M3_PIPE] |791|  ; [ORIG 16-BIT INS]
    1894 0000022c 9901              LDR       A2, [SP, #4]          ; [DPU_V7M3_PIPE] |791|  ; [ORIG 16-BIT INS]
    1895 0000022e 300C              ADDS      A1, A1, #12           ; [DPU_V7M3_PIPE] |791|  ; [ORIG 16-BIT INS]
    1896 00000230 6802              LDR       A3, [A1, #0]          ; [DPU_V7M3_PIPE] |791|  ; [ORIG 16-BIT INS]
    1897 00000232 4311              ORRS      A2, A2, A3            ; [DPU_V7M3_PIPE] |791|  ; [ORIG 16-BIT INS]
    1898 00000234 6001              STR       A2, [A1, #0]          ; [DPU_V7M3_PIPE] |791|  ; [ORIG 16-BIT INS]
    1899                            .dwpsn  file "../driverlib/pwm.c",line 792,column 5,is_stmt,isa 1
    1900                    ;----------------------------------------------------------------------
    1901                    ; 793 | else                                                                   
    1902                    ;----------------------------------------------------------------------
    1903 00000236 E005              B         ||$C$L16||            ; [DPU_V7M3_PIPE] |792|  ; [ORIG 16-BIT INS]
    1904                            ; BRANCH OCCURS {||$C$L16||}     ; [] |792| 
    1905                    ;* --------------------------------------------------------------------------*
    1906 00000238           ||$C$L15||:    
    1907                            .dwpsn  file "../driverlib/pwm.c",line 795,column 9,is_stmt,isa 1
    1908                    ;----------------------------------------------------------------------
    1909                    ; 795 | HWREG(ui32Base + PWM_O_INVERT) &= ~(ui32PWMOutBits);                   
    1910                    ;----------------------------------------------------------------------
    1911 00000238 9800              LDR       A1, [SP, #0]          ; [DPU_V7M3_PIPE] |795|  ; [ORIG 16-BIT INS]
    1912 0000023a 9A01              LDR       A3, [SP, #4]          ; [DPU_V7M3_PIPE] |795|  ; [ORIG 16-BIT INS]
    1913 0000023c 300C              ADDS      A1, A1, #12           ; [DPU_V7M3_PIPE] |795|  ; [ORIG 16-BIT INS]
    1914 0000023e 6801              LDR       A2, [A1, #0]          ; [DPU_V7M3_PIPE] |795|  ; [ORIG 16-BIT INS]
    1915 00000240 4391              BICS      A2, A2, A3            ; [DPU_V7M3_PIPE] |795|  ; [ORIG 16-BIT INS]
    1916 00000242 6001              STR       A2, [A1, #0]          ; [DPU_V7M3_PIPE] |795|  ; [ORIG 16-BIT INS]
    1917                            .dwpsn  file "../driverlib/pwm.c",line 797,column 1,is_stmt,isa 1
    1918                    ;* --------------------------------------------------------------------------*
    1919 00000244           ||$C$L16||:    
    1920 00000244 B004              ADD       SP, SP, #16           ; [DPU_V7M3_PIPE]  ; [ORIG 16-BIT INS]
    1921                            .dwcfi  cfa_offset, 0
    1922                    $C$DW$106       .dwtag  DW_TAG_TI_branch
    1923                            .dwattr $C$DW$106, DW_AT_low_pc(0x00)
    1924                            .dwattr $C$DW$106, DW_AT_TI_return
    1925                    
TI ARM Assembler Unix v18.1.1 Fri Jul  3 20:08:25 2020

Tools Copyright (c) 1996-2017 Texas Instruments Incorporated
pwm.asm                                                              PAGE   36

    1926 00000246 4770              BX        LR                    ; [DPU_V7M3_PIPE]  ; [ORIG 16-BIT INS]
    1927                            ; BRANCH OCCURS                  ; [] 
    1928                            .dwattr $C$DW$99, DW_AT_TI_end_file("../driverlib/pwm.c")
    1929                            .dwattr $C$DW$99, DW_AT_TI_end_line(0x31d)
    1930                            .dwattr $C$DW$99, DW_AT_TI_end_column(0x01)
    1931                            .dwendentry
    1932                            .dwendtag $C$DW$99
    1933                    
    1934 00000248                   .sect   ".text"
    1935                            .clink
    1936                            .thumbfunc PWMOutputFaultLevel
    1937 00000248                   .thumb
    1938                            .global PWMOutputFaultLevel
    1939                    
    1940                    $C$DW$107       .dwtag  DW_TAG_subprogram
    1941                            .dwattr $C$DW$107, DW_AT_name("PWMOutputFaultLevel")
    1942                            .dwattr $C$DW$107, DW_AT_low_pc(PWMOutputFaultLevel)
    1943                            .dwattr $C$DW$107, DW_AT_high_pc(0x00)
    1944                            .dwattr $C$DW$107, DW_AT_TI_symbol_name("PWMOutputFaultLevel")
    1945                            .dwattr $C$DW$107, DW_AT_external
    1946                            .dwattr $C$DW$107, DW_AT_TI_begin_file("../driverlib/pwm.c")
    1947                            .dwattr $C$DW$107, DW_AT_TI_begin_line(0x33e)
    1948                            .dwattr $C$DW$107, DW_AT_TI_begin_column(0x01)
    1949                            .dwattr $C$DW$107, DW_AT_decl_file("../driverlib/pwm.c")
    1950                            .dwattr $C$DW$107, DW_AT_decl_line(0x33e)
    1951                            .dwattr $C$DW$107, DW_AT_decl_column(0x01)
    1952                            .dwattr $C$DW$107, DW_AT_TI_max_frame_size(0x10)
    1953                            .dwpsn  file "../driverlib/pwm.c",line 832,column 1,is_stmt,address PWMOutputFaultLevel,isa 1
    1954                    
    1955                            .dwfde $C$DW$CIE, PWMOutputFaultLevel
    1956                    $C$DW$108       .dwtag  DW_TAG_formal_parameter
    1957                            .dwattr $C$DW$108, DW_AT_name("ui32Base")
    1958                            .dwattr $C$DW$108, DW_AT_TI_symbol_name("ui32Base")
    1959                            .dwattr $C$DW$108, DW_AT_type(*$C$DW$T$27)
    1960                            .dwattr $C$DW$108, DW_AT_location[DW_OP_reg0]
    1961                    
    1962                    $C$DW$109       .dwtag  DW_TAG_formal_parameter
    1963                            .dwattr $C$DW$109, DW_AT_name("ui32PWMOutBits")
    1964                            .dwattr $C$DW$109, DW_AT_TI_symbol_name("ui32PWMOutBits")
    1965                            .dwattr $C$DW$109, DW_AT_type(*$C$DW$T$27)
    1966                            .dwattr $C$DW$109, DW_AT_location[DW_OP_reg1]
    1967                    
    1968                    $C$DW$110       .dwtag  DW_TAG_formal_parameter
    1969                            .dwattr $C$DW$110, DW_AT_name("bDriveHigh")
    1970                            .dwattr $C$DW$110, DW_AT_TI_symbol_name("bDriveHigh")
    1971                            .dwattr $C$DW$110, DW_AT_type(*$C$DW$T$37)
    1972                            .dwattr $C$DW$110, DW_AT_location[DW_OP_reg2]
    1973                    
    1974                    ;----------------------------------------------------------------------
    1975                    ; 830 | PWMOutputFaultLevel(uint32_t ui32Base, uint32_t ui32PWMOutBits,        
    1976                    ; 831 | bool bDriveHigh)                                                       
    1977                    ;----------------------------------------------------------------------
    1978                    
    1979                    ;*****************************************************************************
    1980                    ;* FUNCTION NAME: PWMOutputFaultLevel                                        *
TI ARM Assembler Unix v18.1.1 Fri Jul  3 20:08:25 2020

Tools Copyright (c) 1996-2017 Texas Instruments Incorporated
pwm.asm                                                              PAGE   37

    1981                    ;*                                                                           *
    1982                    ;*   Regs Modified     : A1,A2,A3,SP,SR                                      *
    1983                    ;*   Regs Used         : A1,A2,A3,SP,LR,SR                                   *
    1984                    ;*   Local Frame Size  : 0 Args + 12 Auto + 0 Save = 12 byte                 *
    1985                    ;*****************************************************************************
    1986 00000248           PWMOutputFaultLevel:
    1987                    ;* --------------------------------------------------------------------------*
    1988                            .dwcfi  cfa_offset, 0
    1989 00000248 0D10F1AD          SUB       SP, SP, #16           ; [DPU_V7M3_PIPE]  ; [KEEP 32-BIT INS]
    1990                            .dwcfi  cfa_offset, 16
    1991                    $C$DW$111       .dwtag  DW_TAG_variable
    1992                            .dwattr $C$DW$111, DW_AT_name("ui32Base")
    1993                            .dwattr $C$DW$111, DW_AT_TI_symbol_name("ui32Base")
    1994                            .dwattr $C$DW$111, DW_AT_type(*$C$DW$T$27)
    1995                            .dwattr $C$DW$111, DW_AT_location[DW_OP_breg13 0]
    1996                    
    1997                    $C$DW$112       .dwtag  DW_TAG_variable
    1998                            .dwattr $C$DW$112, DW_AT_name("ui32PWMOutBits")
    1999                            .dwattr $C$DW$112, DW_AT_TI_symbol_name("ui32PWMOutBits")
    2000                            .dwattr $C$DW$112, DW_AT_type(*$C$DW$T$27)
    2001                            .dwattr $C$DW$112, DW_AT_location[DW_OP_breg13 4]
    2002                    
    2003                    $C$DW$113       .dwtag  DW_TAG_variable
    2004                            .dwattr $C$DW$113, DW_AT_name("bDriveHigh")
    2005                            .dwattr $C$DW$113, DW_AT_TI_symbol_name("bDriveHigh")
    2006                            .dwattr $C$DW$113, DW_AT_type(*$C$DW$T$37)
    2007                            .dwattr $C$DW$113, DW_AT_location[DW_OP_breg13 8]
    2008                    
    2009                    ;----------------------------------------------------------------------
    2010                    ; 833 | //                                                                     
    2011                    ; 834 | // Check the arguments.                                                
    2012                    ; 835 | //                                                                     
    2013                    ; 836 | ASSERT((ui32Base == PWM0_BASE) || (ui32Base == PWM1_BASE));            
    2014                    ; 837 | ASSERT(!(ui32PWMOutBits & ~(PWM_OUT_0_BIT | PWM_OUT_1_BIT | PWM_OUT_2_B
    2015                    ;     | IT |                                                                   
    2016                    ; 838 |                             PWM_OUT_3_BIT | PWM_OUT_4_BIT | PWM_OUT_5_B
    2017                    ;     | IT |                                                                   
    2018                    ; 839 |                             PWM_OUT_6_BIT | PWM_OUT_7_BIT)));          
    2019                    ; 841 | //                                                                     
    2020                    ; 842 | // Read the module's FAULT output control register and set or clear the
    2021                    ; 843 | // requested bits.                                                     
    2022                    ; 844 | //                                                                     
    2023                    ;----------------------------------------------------------------------
    2024 0000024c 2008F88D          STRB      A3, [SP, #8]          ; [DPU_V7M3_PIPE] |832|  ; [KEEP 32-BIT INS]
    2025 00000250 9101              STR       A2, [SP, #4]          ; [DPU_V7M3_PIPE] |832|  ; [ORIG 16-BIT INS]
    2026 00000252 9000              STR       A1, [SP, #0]          ; [DPU_V7M3_PIPE] |832|  ; [ORIG 16-BIT INS]
    2027                            .dwpsn  file "../driverlib/pwm.c",line 845,column 5,is_stmt,isa 1
    2028                    ;----------------------------------------------------------------------
    2029                    ; 845 | if(bDriveHigh == true)                                                 
    2030                    ;----------------------------------------------------------------------
    2031 00000254 0008F89D          LDRB      A1, [SP, #8]          ; [DPU_V7M3_PIPE] |845|  ; [KEEP 32-BIT INS]
    2032 00000258 2801              CMP       A1, #1                ; [DPU_V7M3_PIPE] |845|  ; [ORIG 16-BIT INS]
    2033 0000025a D106              BNE       ||$C$L17||            ; [DPU_V7M3_PIPE] |845|  ; [ORIG 16-BIT INS]
    2034                            ; BRANCHCC OCCURS {||$C$L17||}   ; [] |845| 
    2035                    ;* --------------------------------------------------------------------------*
TI ARM Assembler Unix v18.1.1 Fri Jul  3 20:08:25 2020

Tools Copyright (c) 1996-2017 Texas Instruments Incorporated
pwm.asm                                                              PAGE   38

    2036                            .dwpsn  file "../driverlib/pwm.c",line 847,column 9,is_stmt,isa 1
    2037                    ;----------------------------------------------------------------------
    2038                    ; 847 | HWREG(ui32Base + PWM_O_FAULTVAL) |= ui32PWMOutBits;                    
    2039                    ;----------------------------------------------------------------------
    2040 0000025c 9800              LDR       A1, [SP, #0]          ; [DPU_V7M3_PIPE] |847|  ; [ORIG 16-BIT INS]
    2041 0000025e 9901              LDR       A2, [SP, #4]          ; [DPU_V7M3_PIPE] |847|  ; [ORIG 16-BIT INS]
    2042 00000260 3024              ADDS      A1, A1, #36           ; [DPU_V7M3_PIPE] |847|  ; [ORIG 16-BIT INS]
    2043 00000262 6802              LDR       A3, [A1, #0]          ; [DPU_V7M3_PIPE] |847|  ; [ORIG 16-BIT INS]
    2044 00000264 4311              ORRS      A2, A2, A3            ; [DPU_V7M3_PIPE] |847|  ; [ORIG 16-BIT INS]
    2045 00000266 6001              STR       A2, [A1, #0]          ; [DPU_V7M3_PIPE] |847|  ; [ORIG 16-BIT INS]
    2046                            .dwpsn  file "../driverlib/pwm.c",line 848,column 5,is_stmt,isa 1
    2047                    ;----------------------------------------------------------------------
    2048                    ; 849 | else                                                                   
    2049                    ;----------------------------------------------------------------------
    2050 00000268 E005              B         ||$C$L18||            ; [DPU_V7M3_PIPE] |848|  ; [ORIG 16-BIT INS]
    2051                            ; BRANCH OCCURS {||$C$L18||}     ; [] |848| 
    2052                    ;* --------------------------------------------------------------------------*
    2053 0000026a           ||$C$L17||:    
    2054                            .dwpsn  file "../driverlib/pwm.c",line 851,column 9,is_stmt,isa 1
    2055                    ;----------------------------------------------------------------------
    2056                    ; 851 | HWREG(ui32Base + PWM_O_FAULTVAL) &= ~(ui32PWMOutBits);                 
    2057                    ;----------------------------------------------------------------------
    2058 0000026a 9800              LDR       A1, [SP, #0]          ; [DPU_V7M3_PIPE] |851|  ; [ORIG 16-BIT INS]
    2059 0000026c 9A01              LDR       A3, [SP, #4]          ; [DPU_V7M3_PIPE] |851|  ; [ORIG 16-BIT INS]
    2060 0000026e 3024              ADDS      A1, A1, #36           ; [DPU_V7M3_PIPE] |851|  ; [ORIG 16-BIT INS]
    2061 00000270 6801              LDR       A2, [A1, #0]          ; [DPU_V7M3_PIPE] |851|  ; [ORIG 16-BIT INS]
    2062 00000272 4391              BICS      A2, A2, A3            ; [DPU_V7M3_PIPE] |851|  ; [ORIG 16-BIT INS]
    2063 00000274 6001              STR       A2, [A1, #0]          ; [DPU_V7M3_PIPE] |851|  ; [ORIG 16-BIT INS]
    2064                            .dwpsn  file "../driverlib/pwm.c",line 853,column 1,is_stmt,isa 1
    2065                    ;* --------------------------------------------------------------------------*
    2066 00000276           ||$C$L18||:    
    2067 00000276 B004              ADD       SP, SP, #16           ; [DPU_V7M3_PIPE]  ; [ORIG 16-BIT INS]
    2068                            .dwcfi  cfa_offset, 0
    2069                    $C$DW$114       .dwtag  DW_TAG_TI_branch
    2070                            .dwattr $C$DW$114, DW_AT_low_pc(0x00)
    2071                            .dwattr $C$DW$114, DW_AT_TI_return
    2072                    
    2073 00000278 4770              BX        LR                    ; [DPU_V7M3_PIPE]  ; [ORIG 16-BIT INS]
    2074                            ; BRANCH OCCURS                  ; [] 
    2075                            .dwattr $C$DW$107, DW_AT_TI_end_file("../driverlib/pwm.c")
    2076                            .dwattr $C$DW$107, DW_AT_TI_end_line(0x355)
    2077                            .dwattr $C$DW$107, DW_AT_TI_end_column(0x01)
    2078                            .dwendentry
    2079                            .dwendtag $C$DW$107
    2080                    
    2081 0000027a                   .sect   ".text"
    2082                            .clink
    2083                            .thumbfunc PWMOutputFault
    2084 0000027a                   .thumb
    2085                            .global PWMOutputFault
    2086                    
    2087                    $C$DW$115       .dwtag  DW_TAG_subprogram
    2088                            .dwattr $C$DW$115, DW_AT_name("PWMOutputFault")
    2089                            .dwattr $C$DW$115, DW_AT_low_pc(PWMOutputFault)
    2090                            .dwattr $C$DW$115, DW_AT_high_pc(0x00)
TI ARM Assembler Unix v18.1.1 Fri Jul  3 20:08:25 2020

Tools Copyright (c) 1996-2017 Texas Instruments Incorporated
pwm.asm                                                              PAGE   39

    2091                            .dwattr $C$DW$115, DW_AT_TI_symbol_name("PWMOutputFault")
    2092                            .dwattr $C$DW$115, DW_AT_external
    2093                            .dwattr $C$DW$115, DW_AT_TI_begin_file("../driverlib/pwm.c")
    2094                            .dwattr $C$DW$115, DW_AT_TI_begin_line(0x373)
    2095                            .dwattr $C$DW$115, DW_AT_TI_begin_column(0x01)
    2096                            .dwattr $C$DW$115, DW_AT_decl_file("../driverlib/pwm.c")
    2097                            .dwattr $C$DW$115, DW_AT_decl_line(0x373)
    2098                            .dwattr $C$DW$115, DW_AT_decl_column(0x01)
    2099                            .dwattr $C$DW$115, DW_AT_TI_max_frame_size(0x10)
    2100                            .dwpsn  file "../driverlib/pwm.c",line 885,column 1,is_stmt,address PWMOutputFault,isa 1
    2101                    
    2102                            .dwfde $C$DW$CIE, PWMOutputFault
    2103                    $C$DW$116       .dwtag  DW_TAG_formal_parameter
    2104                            .dwattr $C$DW$116, DW_AT_name("ui32Base")
    2105                            .dwattr $C$DW$116, DW_AT_TI_symbol_name("ui32Base")
    2106                            .dwattr $C$DW$116, DW_AT_type(*$C$DW$T$27)
    2107                            .dwattr $C$DW$116, DW_AT_location[DW_OP_reg0]
    2108                    
    2109                    $C$DW$117       .dwtag  DW_TAG_formal_parameter
    2110                            .dwattr $C$DW$117, DW_AT_name("ui32PWMOutBits")
    2111                            .dwattr $C$DW$117, DW_AT_TI_symbol_name("ui32PWMOutBits")
    2112                            .dwattr $C$DW$117, DW_AT_type(*$C$DW$T$27)
    2113                            .dwattr $C$DW$117, DW_AT_location[DW_OP_reg1]
    2114                    
    2115                    $C$DW$118       .dwtag  DW_TAG_formal_parameter
    2116                            .dwattr $C$DW$118, DW_AT_name("bFaultSuppress")
    2117                            .dwattr $C$DW$118, DW_AT_TI_symbol_name("bFaultSuppress")
    2118                            .dwattr $C$DW$118, DW_AT_type(*$C$DW$T$37)
    2119                            .dwattr $C$DW$118, DW_AT_location[DW_OP_reg2]
    2120                    
    2121                    ;----------------------------------------------------------------------
    2122                    ; 883 | PWMOutputFault(uint32_t ui32Base, uint32_t ui32PWMOutBits,             
    2123                    ; 884 | bool bFaultSuppress)                                                   
    2124                    ;----------------------------------------------------------------------
    2125                    
    2126                    ;*****************************************************************************
    2127                    ;* FUNCTION NAME: PWMOutputFault                                             *
    2128                    ;*                                                                           *
    2129                    ;*   Regs Modified     : A1,A2,A3,SP,SR                                      *
    2130                    ;*   Regs Used         : A1,A2,A3,SP,LR,SR                                   *
    2131                    ;*   Local Frame Size  : 0 Args + 12 Auto + 0 Save = 12 byte                 *
    2132                    ;*****************************************************************************
    2133 0000027a           PWMOutputFault:
    2134                    ;* --------------------------------------------------------------------------*
    2135                            .dwcfi  cfa_offset, 0
    2136 0000027a 0D10F1AD          SUB       SP, SP, #16           ; [DPU_V7M3_PIPE]  ; [KEEP 32-BIT INS]
    2137                            .dwcfi  cfa_offset, 16
    2138                    $C$DW$119       .dwtag  DW_TAG_variable
    2139                            .dwattr $C$DW$119, DW_AT_name("ui32Base")
    2140                            .dwattr $C$DW$119, DW_AT_TI_symbol_name("ui32Base")
    2141                            .dwattr $C$DW$119, DW_AT_type(*$C$DW$T$27)
    2142                            .dwattr $C$DW$119, DW_AT_location[DW_OP_breg13 0]
    2143                    
    2144                    $C$DW$120       .dwtag  DW_TAG_variable
    2145                            .dwattr $C$DW$120, DW_AT_name("ui32PWMOutBits")
TI ARM Assembler Unix v18.1.1 Fri Jul  3 20:08:25 2020

Tools Copyright (c) 1996-2017 Texas Instruments Incorporated
pwm.asm                                                              PAGE   40

    2146                            .dwattr $C$DW$120, DW_AT_TI_symbol_name("ui32PWMOutBits")
    2147                            .dwattr $C$DW$120, DW_AT_type(*$C$DW$T$27)
    2148                            .dwattr $C$DW$120, DW_AT_location[DW_OP_breg13 4]
    2149                    
    2150                    $C$DW$121       .dwtag  DW_TAG_variable
    2151                            .dwattr $C$DW$121, DW_AT_name("bFaultSuppress")
    2152                            .dwattr $C$DW$121, DW_AT_TI_symbol_name("bFaultSuppress")
    2153                            .dwattr $C$DW$121, DW_AT_type(*$C$DW$T$37)
    2154                            .dwattr $C$DW$121, DW_AT_location[DW_OP_breg13 8]
    2155                    
    2156                    ;----------------------------------------------------------------------
    2157                    ; 886 | //                                                                     
    2158                    ; 887 | // Check the arguments.                                                
    2159                    ; 888 | //                                                                     
    2160                    ; 889 | ASSERT((ui32Base == PWM0_BASE) || (ui32Base == PWM1_BASE));            
    2161                    ; 890 | ASSERT(!(ui32PWMOutBits & ~(PWM_OUT_0_BIT | PWM_OUT_1_BIT | PWM_OUT_2_B
    2162                    ;     | IT |                                                                   
    2163                    ; 891 |                             PWM_OUT_3_BIT | PWM_OUT_4_BIT | PWM_OUT_5_B
    2164                    ;     | IT |                                                                   
    2165                    ; 892 |                             PWM_OUT_6_BIT | PWM_OUT_7_BIT)));          
    2166                    ; 894 | //                                                                     
    2167                    ; 895 | // Read the module's FAULT output control register and set or clear the
    2168                    ; 896 | // requested bits.                                                     
    2169                    ; 897 | //                                                                     
    2170                    ;----------------------------------------------------------------------
    2171 0000027e 2008F88D          STRB      A3, [SP, #8]          ; [DPU_V7M3_PIPE] |885|  ; [KEEP 32-BIT INS]
    2172 00000282 9101              STR       A2, [SP, #4]          ; [DPU_V7M3_PIPE] |885|  ; [ORIG 16-BIT INS]
    2173 00000284 9000              STR       A1, [SP, #0]          ; [DPU_V7M3_PIPE] |885|  ; [ORIG 16-BIT INS]
    2174                            .dwpsn  file "../driverlib/pwm.c",line 898,column 5,is_stmt,isa 1
    2175                    ;----------------------------------------------------------------------
    2176                    ; 898 | if(bFaultSuppress == true)                                             
    2177                    ;----------------------------------------------------------------------
    2178 00000286 0008F89D          LDRB      A1, [SP, #8]          ; [DPU_V7M3_PIPE] |898|  ; [KEEP 32-BIT INS]
    2179 0000028a 2801              CMP       A1, #1                ; [DPU_V7M3_PIPE] |898|  ; [ORIG 16-BIT INS]
    2180 0000028c D106              BNE       ||$C$L19||            ; [DPU_V7M3_PIPE] |898|  ; [ORIG 16-BIT INS]
    2181                            ; BRANCHCC OCCURS {||$C$L19||}   ; [] |898| 
    2182                    ;* --------------------------------------------------------------------------*
    2183                            .dwpsn  file "../driverlib/pwm.c",line 900,column 9,is_stmt,isa 1
    2184                    ;----------------------------------------------------------------------
    2185                    ; 900 | HWREG(ui32Base + PWM_O_FAULT) |= ui32PWMOutBits;                       
    2186                    ;----------------------------------------------------------------------
    2187 0000028e 9800              LDR       A1, [SP, #0]          ; [DPU_V7M3_PIPE] |900|  ; [ORIG 16-BIT INS]
    2188 00000290 9901              LDR       A2, [SP, #4]          ; [DPU_V7M3_PIPE] |900|  ; [ORIG 16-BIT INS]
    2189 00000292 3010              ADDS      A1, A1, #16           ; [DPU_V7M3_PIPE] |900|  ; [ORIG 16-BIT INS]
    2190 00000294 6802              LDR       A3, [A1, #0]          ; [DPU_V7M3_PIPE] |900|  ; [ORIG 16-BIT INS]
    2191 00000296 4311              ORRS      A2, A2, A3            ; [DPU_V7M3_PIPE] |900|  ; [ORIG 16-BIT INS]
    2192 00000298 6001              STR       A2, [A1, #0]          ; [DPU_V7M3_PIPE] |900|  ; [ORIG 16-BIT INS]
    2193                            .dwpsn  file "../driverlib/pwm.c",line 901,column 5,is_stmt,isa 1
    2194                    ;----------------------------------------------------------------------
    2195                    ; 902 | else                                                                   
    2196                    ;----------------------------------------------------------------------
    2197 0000029a E005              B         ||$C$L20||            ; [DPU_V7M3_PIPE] |901|  ; [ORIG 16-BIT INS]
    2198                            ; BRANCH OCCURS {||$C$L20||}     ; [] |901| 
    2199                    ;* --------------------------------------------------------------------------*
    2200 0000029c           ||$C$L19||:    
TI ARM Assembler Unix v18.1.1 Fri Jul  3 20:08:25 2020

Tools Copyright (c) 1996-2017 Texas Instruments Incorporated
pwm.asm                                                              PAGE   41

    2201                            .dwpsn  file "../driverlib/pwm.c",line 904,column 9,is_stmt,isa 1
    2202                    ;----------------------------------------------------------------------
    2203                    ; 904 | HWREG(ui32Base + PWM_O_FAULT) &= ~(ui32PWMOutBits);                    
    2204                    ;----------------------------------------------------------------------
    2205 0000029c 9800              LDR       A1, [SP, #0]          ; [DPU_V7M3_PIPE] |904|  ; [ORIG 16-BIT INS]
    2206 0000029e 9A01              LDR       A3, [SP, #4]          ; [DPU_V7M3_PIPE] |904|  ; [ORIG 16-BIT INS]
    2207 000002a0 3010              ADDS      A1, A1, #16           ; [DPU_V7M3_PIPE] |904|  ; [ORIG 16-BIT INS]
    2208 000002a2 6801              LDR       A2, [A1, #0]          ; [DPU_V7M3_PIPE] |904|  ; [ORIG 16-BIT INS]
    2209 000002a4 4391              BICS      A2, A2, A3            ; [DPU_V7M3_PIPE] |904|  ; [ORIG 16-BIT INS]
    2210 000002a6 6001              STR       A2, [A1, #0]          ; [DPU_V7M3_PIPE] |904|  ; [ORIG 16-BIT INS]
    2211                            .dwpsn  file "../driverlib/pwm.c",line 906,column 1,is_stmt,isa 1
    2212                    ;* --------------------------------------------------------------------------*
    2213 000002a8           ||$C$L20||:    
    2214 000002a8 B004              ADD       SP, SP, #16           ; [DPU_V7M3_PIPE]  ; [ORIG 16-BIT INS]
    2215                            .dwcfi  cfa_offset, 0
    2216                    $C$DW$122       .dwtag  DW_TAG_TI_branch
    2217                            .dwattr $C$DW$122, DW_AT_low_pc(0x00)
    2218                            .dwattr $C$DW$122, DW_AT_TI_return
    2219                    
    2220 000002aa 4770              BX        LR                    ; [DPU_V7M3_PIPE]  ; [ORIG 16-BIT INS]
    2221                            ; BRANCH OCCURS                  ; [] 
    2222                            .dwattr $C$DW$115, DW_AT_TI_end_file("../driverlib/pwm.c")
    2223                            .dwattr $C$DW$115, DW_AT_TI_end_line(0x38a)
    2224                            .dwattr $C$DW$115, DW_AT_TI_end_column(0x01)
    2225                            .dwendentry
    2226                            .dwendtag $C$DW$115
    2227                    
    2228 000002ac                   .sect   ".text"
    2229                            .clink
    2230                            .thumbfunc _PWMGenIntNumberGet
    2231 000002ac                   .thumb
    2232                    
    2233                    $C$DW$123       .dwtag  DW_TAG_subprogram
    2234                            .dwattr $C$DW$123, DW_AT_name("_PWMGenIntNumberGet")
    2235                            .dwattr $C$DW$123, DW_AT_low_pc(_PWMGenIntNumberGet)
    2236                            .dwattr $C$DW$123, DW_AT_high_pc(0x00)
    2237                            .dwattr $C$DW$123, DW_AT_TI_symbol_name("_PWMGenIntNumberGet")
    2238                            .dwattr $C$DW$123, DW_AT_type(*$C$DW$T$27)
    2239                            .dwattr $C$DW$123, DW_AT_TI_begin_file("../driverlib/pwm.c")
    2240                            .dwattr $C$DW$123, DW_AT_TI_begin_line(0x39b)
    2241                            .dwattr $C$DW$123, DW_AT_TI_begin_column(0x01)
    2242                            .dwattr $C$DW$123, DW_AT_decl_file("../driverlib/pwm.c")
    2243                            .dwattr $C$DW$123, DW_AT_decl_line(0x39b)
    2244                            .dwattr $C$DW$123, DW_AT_decl_column(0x01)
    2245                            .dwattr $C$DW$123, DW_AT_TI_max_frame_size(0x08)
    2246                            .dwpsn  file "../driverlib/pwm.c",line 924,column 1,is_stmt,address _PWMGenIntNumberGet,isa 1
    2247                    
    2248                            .dwfde $C$DW$CIE, _PWMGenIntNumberGet
    2249                    $C$DW$124       .dwtag  DW_TAG_formal_parameter
    2250                            .dwattr $C$DW$124, DW_AT_name("ui32Base")
    2251                            .dwattr $C$DW$124, DW_AT_TI_symbol_name("ui32Base")
    2252                            .dwattr $C$DW$124, DW_AT_type(*$C$DW$T$27)
    2253                            .dwattr $C$DW$124, DW_AT_location[DW_OP_reg0]
    2254                    
    2255                    $C$DW$125       .dwtag  DW_TAG_formal_parameter
TI ARM Assembler Unix v18.1.1 Fri Jul  3 20:08:25 2020

Tools Copyright (c) 1996-2017 Texas Instruments Incorporated
pwm.asm                                                              PAGE   42

    2256                            .dwattr $C$DW$125, DW_AT_name("ui32Gen")
    2257                            .dwattr $C$DW$125, DW_AT_TI_symbol_name("ui32Gen")
    2258                            .dwattr $C$DW$125, DW_AT_type(*$C$DW$T$27)
    2259                            .dwattr $C$DW$125, DW_AT_location[DW_OP_reg1]
    2260                    
    2261                    ;----------------------------------------------------------------------
    2262                    ; 923 | _PWMGenIntNumberGet(uint32_t ui32Base, uint32_t ui32Gen)               
    2263                    ;----------------------------------------------------------------------
    2264                    
    2265                    ;*****************************************************************************
    2266                    ;* FUNCTION NAME: _PWMGenIntNumberGet                                        *
    2267                    ;*                                                                           *
    2268                    ;*   Regs Modified     : A1,A2,A3,SP,SR                                      *
    2269                    ;*   Regs Used         : A1,A2,A3,SP,LR,SR                                   *
    2270                    ;*   Local Frame Size  : 0 Args + 8 Auto + 0 Save = 8 byte                   *
    2271                    ;*****************************************************************************
    2272 000002ac           _PWMGenIntNumberGet:
    2273                    ;* --------------------------------------------------------------------------*
    2274                            .dwcfi  cfa_offset, 0
    2275 000002ac 0D08F1AD          SUB       SP, SP, #8            ; [DPU_V7M3_PIPE]  ; [KEEP 32-BIT INS]
    2276                            .dwcfi  cfa_offset, 8
    2277                    $C$DW$126       .dwtag  DW_TAG_variable
    2278                            .dwattr $C$DW$126, DW_AT_name("ui32Base")
    2279                            .dwattr $C$DW$126, DW_AT_TI_symbol_name("ui32Base")
    2280                            .dwattr $C$DW$126, DW_AT_type(*$C$DW$T$27)
    2281                            .dwattr $C$DW$126, DW_AT_location[DW_OP_breg13 0]
    2282                    
    2283                    $C$DW$127       .dwtag  DW_TAG_variable
    2284                            .dwattr $C$DW$127, DW_AT_name("ui32Gen")
    2285                            .dwattr $C$DW$127, DW_AT_TI_symbol_name("ui32Gen")
    2286                            .dwattr $C$DW$127, DW_AT_type(*$C$DW$T$27)
    2287                            .dwattr $C$DW$127, DW_AT_location[DW_OP_breg13 4]
    2288                    
    2289                    ;----------------------------------------------------------------------
    2290                    ; 925 | //                                                                     
    2291                    ; 926 | // Determine the generator and PWM module in question.                 
    2292                    ; 927 | //                                                                     
    2293                    ;----------------------------------------------------------------------
    2294 000002b0 9101              STR       A2, [SP, #4]          ; [DPU_V7M3_PIPE] |924|  ; [ORIG 16-BIT INS]
    2295 000002b2 9000              STR       A1, [SP, #0]          ; [DPU_V7M3_PIPE] |924|  ; [ORIG 16-BIT INS]
    2296                            .dwpsn  file "../driverlib/pwm.c",line 928,column 5,is_stmt,isa 1
    2297                    ;----------------------------------------------------------------------
    2298                    ; 928 | switch(ui32Base + ui32Gen)                                             
    2299                    ; 930 |     //                                                                 
    2300                    ; 931 |     // The first PWM generator in the first PWM module.                
    2301                    ; 932 |     //                                                                 
    2302                    ; 933 |     case PWM0_BASE + PWM_GEN_0:                                        
    2303                    ;----------------------------------------------------------------------
    2304 000002b4 E062              B         ||$C$L39||            ; [DPU_V7M3_PIPE] |928|  ; [ORIG 16-BIT INS]
    2305                            ; BRANCH OCCURS {||$C$L39||}     ; [] |928| 
    2306                    ;* --------------------------------------------------------------------------*
    2307 000002b6           ||$C$L21||:    
    2308                            .dwpsn  file "../driverlib/pwm.c",line 935,column 13,is_stmt,isa 1
    2309                    ;----------------------------------------------------------------------
    2310                    ; 935 | if(CLASS_IS_TM4C123)                                                   
TI ARM Assembler Unix v18.1.1 Fri Jul  3 20:08:25 2020

Tools Copyright (c) 1996-2017 Texas Instruments Incorporated
pwm.asm                                                              PAGE   43

    2311                    ;----------------------------------------------------------------------
    2312 000002b6 49AC              LDR       A2, $C$CON2           ; [DPU_V7M3_PIPE] |935|  ; [ORIG 16-BIT INS]
    2313 000002b8 48AA              LDR       A1, $C$CON1           ; [DPU_V7M3_PIPE] |935|  ; [ORIG 16-BIT INS]
    2314 000002ba 680A              LDR       A3, [A2, #0]          ; [DPU_V7M3_PIPE] |935|  ; [ORIG 16-BIT INS]
    2315 000002bc 49AB              LDR       A2, $C$CON3           ; [DPU_V7M3_PIPE] |935|  ; [ORIG 16-BIT INS]
    2316 000002be 4010              ANDS      A1, A1, A3            ; [DPU_V7M3_PIPE] |935|  ; [ORIG 16-BIT INS]
    2317 000002c0 4281              CMP       A2, A1                ; [DPU_V7M3_PIPE] |935|  ; [ORIG 16-BIT INS]
    2318 000002c2 D101              BNE       ||$C$L22||            ; [DPU_V7M3_PIPE] |935|  ; [ORIG 16-BIT INS]
    2319                            ; BRANCHCC OCCURS {||$C$L22||}   ; [] |935| 
    2320                    ;* --------------------------------------------------------------------------*
    2321                            .dwpsn  file "../driverlib/pwm.c",line 937,column 17,is_stmt,isa 1
    2322                    ;----------------------------------------------------------------------
    2323                    ; 937 | return(INT_PWM0_0_TM4C123);                                            
    2324                    ;----------------------------------------------------------------------
    2325 000002c4 201A              MOVS      A1, #26               ; [DPU_V7M3_PIPE] |937|  ; [ORIG 16-BIT INS]
    2326 000002c6 E06F              B         ||$C$L40||            ; [DPU_V7M3_PIPE] |937|  ; [ORIG 16-BIT INS]
    2327                            ; BRANCH OCCURS {||$C$L40||}     ; [] |937| 
    2328                    ;* --------------------------------------------------------------------------*
    2329                    ;* --------------------------------------------------------------------------*
    2330 000002c8           ||$C$L22||:    
    2331                            .dwpsn  file "../driverlib/pwm.c",line 939,column 18,is_stmt,isa 1
    2332                    ;----------------------------------------------------------------------
    2333                    ; 939 | else if(CLASS_IS_TM4C129)                                              
    2334                    ;----------------------------------------------------------------------
    2335 000002c8 49A7              LDR       A2, $C$CON2           ; [DPU_V7M3_PIPE] |939|  ; [ORIG 16-BIT INS]
    2336 000002ca 48A6              LDR       A1, $C$CON1           ; [DPU_V7M3_PIPE] |939|  ; [ORIG 16-BIT INS]
    2337 000002cc 680A              LDR       A3, [A2, #0]          ; [DPU_V7M3_PIPE] |939|  ; [ORIG 16-BIT INS]
    2338 000002ce 49B3              LDR       A2, $C$CON4           ; [DPU_V7M3_PIPE] |939|  ; [ORIG 16-BIT INS]
    2339 000002d0 4010              ANDS      A1, A1, A3            ; [DPU_V7M3_PIPE] |939|  ; [ORIG 16-BIT INS]
    2340 000002d2 4281              CMP       A2, A1                ; [DPU_V7M3_PIPE] |939|  ; [ORIG 16-BIT INS]
    2341 000002d4 D101              BNE       ||$C$L23||            ; [DPU_V7M3_PIPE] |939|  ; [ORIG 16-BIT INS]
    2342                            ; BRANCHCC OCCURS {||$C$L23||}   ; [] |939| 
    2343                    ;* --------------------------------------------------------------------------*
    2344                            .dwpsn  file "../driverlib/pwm.c",line 941,column 17,is_stmt,isa 1
    2345                    ;----------------------------------------------------------------------
    2346                    ; 941 | return(INT_PWM0_0_TM4C129);                                            
    2347                    ; 943 | else                                                                   
    2348                    ;----------------------------------------------------------------------
    2349 000002d6 201A              MOVS      A1, #26               ; [DPU_V7M3_PIPE] |941|  ; [ORIG 16-BIT INS]
    2350 000002d8 E066              B         ||$C$L40||            ; [DPU_V7M3_PIPE] |941|  ; [ORIG 16-BIT INS]
    2351                            ; BRANCH OCCURS {||$C$L40||}     ; [] |941| 
    2352                    ;* --------------------------------------------------------------------------*
    2353                    ;* --------------------------------------------------------------------------*
    2354 000002da           ||$C$L23||:    
    2355                            .dwpsn  file "../driverlib/pwm.c",line 945,column 17,is_stmt,isa 1
    2356                    ;----------------------------------------------------------------------
    2357                    ; 945 | return(0);                                                             
    2358                    ; 949 | //                                                                     
    2359                    ; 950 | // The second PWM generator in the first PWM module.                   
    2360                    ; 951 | //                                                                     
    2361                    ; 952 | case PWM0_BASE + PWM_GEN_1:                                            
    2362                    ;----------------------------------------------------------------------
    2363 000002da 2000              MOVS      A1, #0                ; [DPU_V7M3_PIPE] |945|  ; [ORIG 16-BIT INS]
    2364 000002dc E064              B         ||$C$L40||            ; [DPU_V7M3_PIPE] |945|  ; [ORIG 16-BIT INS]
    2365                            ; BRANCH OCCURS {||$C$L40||}     ; [] |945| 
TI ARM Assembler Unix v18.1.1 Fri Jul  3 20:08:25 2020

Tools Copyright (c) 1996-2017 Texas Instruments Incorporated
pwm.asm                                                              PAGE   44

    2366                    ;* --------------------------------------------------------------------------*
    2367 000002de           ||$C$L24||:    
    2368                            .dwpsn  file "../driverlib/pwm.c",line 954,column 13,is_stmt,isa 1
    2369                    ;----------------------------------------------------------------------
    2370                    ; 954 | if(CLASS_IS_TM4C129)                                                   
    2371                    ;----------------------------------------------------------------------
    2372 000002de 49A2              LDR       A2, $C$CON2           ; [DPU_V7M3_PIPE] |954|  ; [ORIG 16-BIT INS]
    2373 000002e0 48A0              LDR       A1, $C$CON1           ; [DPU_V7M3_PIPE] |954|  ; [ORIG 16-BIT INS]
    2374 000002e2 680A              LDR       A3, [A2, #0]          ; [DPU_V7M3_PIPE] |954|  ; [ORIG 16-BIT INS]
    2375 000002e4 49AD              LDR       A2, $C$CON4           ; [DPU_V7M3_PIPE] |954|  ; [ORIG 16-BIT INS]
    2376 000002e6 4010              ANDS      A1, A1, A3            ; [DPU_V7M3_PIPE] |954|  ; [ORIG 16-BIT INS]
    2377 000002e8 4281              CMP       A2, A1                ; [DPU_V7M3_PIPE] |954|  ; [ORIG 16-BIT INS]
    2378 000002ea D101              BNE       ||$C$L25||            ; [DPU_V7M3_PIPE] |954|  ; [ORIG 16-BIT INS]
    2379                            ; BRANCHCC OCCURS {||$C$L25||}   ; [] |954| 
    2380                    ;* --------------------------------------------------------------------------*
    2381                            .dwpsn  file "../driverlib/pwm.c",line 956,column 17,is_stmt,isa 1
    2382                    ;----------------------------------------------------------------------
    2383                    ; 956 | return(INT_PWM0_1_TM4C129);                                            
    2384                    ; 958 | else                                                                   
    2385                    ;----------------------------------------------------------------------
    2386 000002ec 201B              MOVS      A1, #27               ; [DPU_V7M3_PIPE] |956|  ; [ORIG 16-BIT INS]
    2387 000002ee E05B              B         ||$C$L40||            ; [DPU_V7M3_PIPE] |956|  ; [ORIG 16-BIT INS]
    2388                            ; BRANCH OCCURS {||$C$L40||}     ; [] |956| 
    2389                    ;* --------------------------------------------------------------------------*
    2390                    ;* --------------------------------------------------------------------------*
    2391 000002f0           ||$C$L25||:    
    2392                            .dwpsn  file "../driverlib/pwm.c",line 960,column 17,is_stmt,isa 1
    2393                    ;----------------------------------------------------------------------
    2394                    ; 960 | return(0);                                                             
    2395                    ; 964 | //                                                                     
    2396                    ; 965 | // The third PWM generator in the first PWM module.                    
    2397                    ; 966 | //                                                                     
    2398                    ; 967 | case PWM0_BASE + PWM_GEN_2:                                            
    2399                    ;----------------------------------------------------------------------
    2400 000002f0 2000              MOVS      A1, #0                ; [DPU_V7M3_PIPE] |960|  ; [ORIG 16-BIT INS]
    2401 000002f2 E059              B         ||$C$L40||            ; [DPU_V7M3_PIPE] |960|  ; [ORIG 16-BIT INS]
    2402                            ; BRANCH OCCURS {||$C$L40||}     ; [] |960| 
    2403                    ;* --------------------------------------------------------------------------*
    2404 000002f4           ||$C$L26||:    
    2405                            .dwpsn  file "../driverlib/pwm.c",line 969,column 13,is_stmt,isa 1
    2406                    ;----------------------------------------------------------------------
    2407                    ; 969 | if(CLASS_IS_TM4C129)                                                   
    2408                    ;----------------------------------------------------------------------
    2409 000002f4 499C              LDR       A2, $C$CON2           ; [DPU_V7M3_PIPE] |969|  ; [ORIG 16-BIT INS]
    2410 000002f6 489B              LDR       A1, $C$CON1           ; [DPU_V7M3_PIPE] |969|  ; [ORIG 16-BIT INS]
    2411 000002f8 680A              LDR       A3, [A2, #0]          ; [DPU_V7M3_PIPE] |969|  ; [ORIG 16-BIT INS]
    2412 000002fa 49A8              LDR       A2, $C$CON4           ; [DPU_V7M3_PIPE] |969|  ; [ORIG 16-BIT INS]
    2413 000002fc 4010              ANDS      A1, A1, A3            ; [DPU_V7M3_PIPE] |969|  ; [ORIG 16-BIT INS]
    2414 000002fe 4281              CMP       A2, A1                ; [DPU_V7M3_PIPE] |969|  ; [ORIG 16-BIT INS]
    2415 00000300 D101              BNE       ||$C$L27||            ; [DPU_V7M3_PIPE] |969|  ; [ORIG 16-BIT INS]
    2416                            ; BRANCHCC OCCURS {||$C$L27||}   ; [] |969| 
    2417                    ;* --------------------------------------------------------------------------*
    2418                            .dwpsn  file "../driverlib/pwm.c",line 971,column 17,is_stmt,isa 1
    2419                    ;----------------------------------------------------------------------
    2420                    ; 971 | return(INT_PWM0_2_TM4C129);                                            
TI ARM Assembler Unix v18.1.1 Fri Jul  3 20:08:25 2020

Tools Copyright (c) 1996-2017 Texas Instruments Incorporated
pwm.asm                                                              PAGE   45

    2421                    ; 973 | else                                                                   
    2422                    ;----------------------------------------------------------------------
    2423 00000302 201C              MOVS      A1, #28               ; [DPU_V7M3_PIPE] |971|  ; [ORIG 16-BIT INS]
    2424 00000304 E050              B         ||$C$L40||            ; [DPU_V7M3_PIPE] |971|  ; [ORIG 16-BIT INS]
    2425                            ; BRANCH OCCURS {||$C$L40||}     ; [] |971| 
    2426                    ;* --------------------------------------------------------------------------*
    2427                    ;* --------------------------------------------------------------------------*
    2428 00000306           ||$C$L27||:    
    2429                            .dwpsn  file "../driverlib/pwm.c",line 975,column 17,is_stmt,isa 1
    2430                    ;----------------------------------------------------------------------
    2431                    ; 975 | return(0);                                                             
    2432                    ; 979 | //                                                                     
    2433                    ; 980 | // The fourth PWM generator in the first PWM module.                   
    2434                    ; 981 | //                                                                     
    2435                    ; 982 | case PWM0_BASE + PWM_GEN_3:                                            
    2436                    ;----------------------------------------------------------------------
    2437 00000306 2000              MOVS      A1, #0                ; [DPU_V7M3_PIPE] |975|  ; [ORIG 16-BIT INS]
    2438 00000308 E04E              B         ||$C$L40||            ; [DPU_V7M3_PIPE] |975|  ; [ORIG 16-BIT INS]
    2439                            ; BRANCH OCCURS {||$C$L40||}     ; [] |975| 
    2440                    ;* --------------------------------------------------------------------------*
    2441 0000030a           ||$C$L28||:    
    2442                            .dwpsn  file "../driverlib/pwm.c",line 984,column 13,is_stmt,isa 1
    2443                    ;----------------------------------------------------------------------
    2444                    ; 984 | if(CLASS_IS_TM4C129)                                                   
    2445                    ;----------------------------------------------------------------------
    2446 0000030a 4997              LDR       A2, $C$CON2           ; [DPU_V7M3_PIPE] |984|  ; [ORIG 16-BIT INS]
    2447 0000030c 4895              LDR       A1, $C$CON1           ; [DPU_V7M3_PIPE] |984|  ; [ORIG 16-BIT INS]
    2448 0000030e 680A              LDR       A3, [A2, #0]          ; [DPU_V7M3_PIPE] |984|  ; [ORIG 16-BIT INS]
    2449 00000310 49A2              LDR       A2, $C$CON4           ; [DPU_V7M3_PIPE] |984|  ; [ORIG 16-BIT INS]
    2450 00000312 4010              ANDS      A1, A1, A3            ; [DPU_V7M3_PIPE] |984|  ; [ORIG 16-BIT INS]
    2451 00000314 4281              CMP       A2, A1                ; [DPU_V7M3_PIPE] |984|  ; [ORIG 16-BIT INS]
    2452 00000316 D101              BNE       ||$C$L29||            ; [DPU_V7M3_PIPE] |984|  ; [ORIG 16-BIT INS]
    2453                            ; BRANCHCC OCCURS {||$C$L29||}   ; [] |984| 
    2454                    ;* --------------------------------------------------------------------------*
    2455                            .dwpsn  file "../driverlib/pwm.c",line 986,column 17,is_stmt,isa 1
    2456                    ;----------------------------------------------------------------------
    2457                    ; 986 | return(INT_PWM0_3_TM4C129);                                            
    2458                    ; 988 | else                                                                   
    2459                    ;----------------------------------------------------------------------
    2460 00000318 203B              MOVS      A1, #59               ; [DPU_V7M3_PIPE] |986|  ; [ORIG 16-BIT INS]
    2461 0000031a E045              B         ||$C$L40||            ; [DPU_V7M3_PIPE] |986|  ; [ORIG 16-BIT INS]
    2462                            ; BRANCH OCCURS {||$C$L40||}     ; [] |986| 
    2463                    ;* --------------------------------------------------------------------------*
    2464                    ;* --------------------------------------------------------------------------*
    2465 0000031c           ||$C$L29||:    
    2466                            .dwpsn  file "../driverlib/pwm.c",line 990,column 17,is_stmt,isa 1
    2467                    ;----------------------------------------------------------------------
    2468                    ; 990 | return(0);                                                             
    2469                    ; 994 | //                                                                     
    2470                    ; 995 | // The first PWM generator in the second PWM module.                   
    2471                    ; 996 | //                                                                     
    2472                    ; 997 | case PWM1_BASE + PWM_GEN_0:                                            
    2473                    ;----------------------------------------------------------------------
    2474 0000031c 2000              MOVS      A1, #0                ; [DPU_V7M3_PIPE] |990|  ; [ORIG 16-BIT INS]
    2475 0000031e E043              B         ||$C$L40||            ; [DPU_V7M3_PIPE] |990|  ; [ORIG 16-BIT INS]
TI ARM Assembler Unix v18.1.1 Fri Jul  3 20:08:25 2020

Tools Copyright (c) 1996-2017 Texas Instruments Incorporated
pwm.asm                                                              PAGE   46

    2476                            ; BRANCH OCCURS {||$C$L40||}     ; [] |990| 
    2477                    ;* --------------------------------------------------------------------------*
    2478 00000320           ||$C$L30||:    
    2479                            .dwpsn  file "../driverlib/pwm.c",line 999,column 13,is_stmt,isa 1
    2480                    ;----------------------------------------------------------------------
    2481                    ; 999 | if(CLASS_IS_TM4C123)                                                   
    2482                    ;----------------------------------------------------------------------
    2483 00000320 4991              LDR       A2, $C$CON2           ; [DPU_V7M3_PIPE] |999|  ; [ORIG 16-BIT INS]
    2484 00000322 4890              LDR       A1, $C$CON1           ; [DPU_V7M3_PIPE] |999|  ; [ORIG 16-BIT INS]
    2485 00000324 680A              LDR       A3, [A2, #0]          ; [DPU_V7M3_PIPE] |999|  ; [ORIG 16-BIT INS]
    2486 00000326 4991              LDR       A2, $C$CON3           ; [DPU_V7M3_PIPE] |999|  ; [ORIG 16-BIT INS]
    2487 00000328 4010              ANDS      A1, A1, A3            ; [DPU_V7M3_PIPE] |999|  ; [ORIG 16-BIT INS]
    2488 0000032a 4281              CMP       A2, A1                ; [DPU_V7M3_PIPE] |999|  ; [ORIG 16-BIT INS]
    2489 0000032c D101              BNE       ||$C$L31||            ; [DPU_V7M3_PIPE] |999|  ; [ORIG 16-BIT INS]
    2490                            ; BRANCHCC OCCURS {||$C$L31||}   ; [] |999| 
    2491                    ;* --------------------------------------------------------------------------*
    2492                            .dwpsn  file "../driverlib/pwm.c",line 1001,column 17,is_stmt,isa 1
    2493                    ;----------------------------------------------------------------------
    2494                    ; 1001 | return(INT_PWM1_0_TM4C123);                                            
    2495                    ; 1003 | else                                                                   
    2496                    ;----------------------------------------------------------------------
    2497 0000032e 2096              MOVS      A1, #150              ; [DPU_V7M3_PIPE] |1001|  ; [ORIG 16-BIT INS]
    2498 00000330 E03A              B         ||$C$L40||            ; [DPU_V7M3_PIPE] |1001|  ; [ORIG 16-BIT INS]
    2499                            ; BRANCH OCCURS {||$C$L40||}     ; [] |1001| 
    2500                    ;* --------------------------------------------------------------------------*
    2501                    ;* --------------------------------------------------------------------------*
    2502 00000332           ||$C$L31||:    
    2503                            .dwpsn  file "../driverlib/pwm.c",line 1005,column 17,is_stmt,isa 1
    2504                    ;----------------------------------------------------------------------
    2505                    ; 1005 | return(0);                                                             
    2506                    ; 1009 | //                                                                     
    2507                    ; 1010 | // The first PWM generator in the second PWM module.                   
    2508                    ; 1011 | //                                                                     
    2509                    ; 1012 | case PWM1_BASE + PWM_GEN_1:                                            
    2510                    ;----------------------------------------------------------------------
    2511 00000332 2000              MOVS      A1, #0                ; [DPU_V7M3_PIPE] |1005|  ; [ORIG 16-BIT INS]
    2512 00000334 E038              B         ||$C$L40||            ; [DPU_V7M3_PIPE] |1005|  ; [ORIG 16-BIT INS]
    2513                            ; BRANCH OCCURS {||$C$L40||}     ; [] |1005| 
    2514                    ;* --------------------------------------------------------------------------*
    2515 00000336           ||$C$L32||:    
    2516                            .dwpsn  file "../driverlib/pwm.c",line 1014,column 13,is_stmt,isa 1
    2517                    ;----------------------------------------------------------------------
    2518                    ; 1014 | if(CLASS_IS_TM4C123)                                                   
    2519                    ;----------------------------------------------------------------------
    2520 00000336 498C              LDR       A2, $C$CON2           ; [DPU_V7M3_PIPE] |1014|  ; [ORIG 16-BIT INS]
    2521 00000338 488A              LDR       A1, $C$CON1           ; [DPU_V7M3_PIPE] |1014|  ; [ORIG 16-BIT INS]
    2522 0000033a 680A              LDR       A3, [A2, #0]          ; [DPU_V7M3_PIPE] |1014|  ; [ORIG 16-BIT INS]
    2523 0000033c 498B              LDR       A2, $C$CON3           ; [DPU_V7M3_PIPE] |1014|  ; [ORIG 16-BIT INS]
    2524 0000033e 4010              ANDS      A1, A1, A3            ; [DPU_V7M3_PIPE] |1014|  ; [ORIG 16-BIT INS]
    2525 00000340 4281              CMP       A2, A1                ; [DPU_V7M3_PIPE] |1014|  ; [ORIG 16-BIT INS]
    2526 00000342 D101              BNE       ||$C$L33||            ; [DPU_V7M3_PIPE] |1014|  ; [ORIG 16-BIT INS]
    2527                            ; BRANCHCC OCCURS {||$C$L33||}   ; [] |1014| 
    2528                    ;* --------------------------------------------------------------------------*
    2529                            .dwpsn  file "../driverlib/pwm.c",line 1016,column 17,is_stmt,isa 1
    2530                    ;----------------------------------------------------------------------
TI ARM Assembler Unix v18.1.1 Fri Jul  3 20:08:25 2020

Tools Copyright (c) 1996-2017 Texas Instruments Incorporated
pwm.asm                                                              PAGE   47

    2531                    ; 1016 | return(INT_PWM1_1_TM4C123);                                            
    2532                    ; 1018 | else                                                                   
    2533                    ;----------------------------------------------------------------------
    2534 00000344 2097              MOVS      A1, #151              ; [DPU_V7M3_PIPE] |1016|  ; [ORIG 16-BIT INS]
    2535 00000346 E02F              B         ||$C$L40||            ; [DPU_V7M3_PIPE] |1016|  ; [ORIG 16-BIT INS]
    2536                            ; BRANCH OCCURS {||$C$L40||}     ; [] |1016| 
    2537                    ;* --------------------------------------------------------------------------*
    2538                    ;* --------------------------------------------------------------------------*
    2539 00000348           ||$C$L33||:    
    2540                            .dwpsn  file "../driverlib/pwm.c",line 1020,column 17,is_stmt,isa 1
    2541                    ;----------------------------------------------------------------------
    2542                    ; 1020 | return(0);                                                             
    2543                    ; 1024 | //                                                                     
    2544                    ; 1025 | // The first PWM generator in the second PWM module.                   
    2545                    ; 1026 | //                                                                     
    2546                    ; 1027 | case PWM1_BASE + PWM_GEN_2:                                            
    2547                    ;----------------------------------------------------------------------
    2548 00000348 2000              MOVS      A1, #0                ; [DPU_V7M3_PIPE] |1020|  ; [ORIG 16-BIT INS]
    2549 0000034a E02D              B         ||$C$L40||            ; [DPU_V7M3_PIPE] |1020|  ; [ORIG 16-BIT INS]
    2550                            ; BRANCH OCCURS {||$C$L40||}     ; [] |1020| 
    2551                    ;* --------------------------------------------------------------------------*
    2552 0000034c           ||$C$L34||:    
    2553                            .dwpsn  file "../driverlib/pwm.c",line 1029,column 13,is_stmt,isa 1
    2554                    ;----------------------------------------------------------------------
    2555                    ; 1029 | if(CLASS_IS_TM4C123)                                                   
    2556                    ;----------------------------------------------------------------------
    2557 0000034c 4986              LDR       A2, $C$CON2           ; [DPU_V7M3_PIPE] |1029|  ; [ORIG 16-BIT INS]
    2558 0000034e 4885              LDR       A1, $C$CON1           ; [DPU_V7M3_PIPE] |1029|  ; [ORIG 16-BIT INS]
    2559 00000350 680A              LDR       A3, [A2, #0]          ; [DPU_V7M3_PIPE] |1029|  ; [ORIG 16-BIT INS]
    2560 00000352 4986              LDR       A2, $C$CON3           ; [DPU_V7M3_PIPE] |1029|  ; [ORIG 16-BIT INS]
    2561 00000354 4010              ANDS      A1, A1, A3            ; [DPU_V7M3_PIPE] |1029|  ; [ORIG 16-BIT INS]
    2562 00000356 4281              CMP       A2, A1                ; [DPU_V7M3_PIPE] |1029|  ; [ORIG 16-BIT INS]
    2563 00000358 D101              BNE       ||$C$L35||            ; [DPU_V7M3_PIPE] |1029|  ; [ORIG 16-BIT INS]
    2564                            ; BRANCHCC OCCURS {||$C$L35||}   ; [] |1029| 
    2565                    ;* --------------------------------------------------------------------------*
    2566                            .dwpsn  file "../driverlib/pwm.c",line 1031,column 17,is_stmt,isa 1
    2567                    ;----------------------------------------------------------------------
    2568                    ; 1031 | return(INT_PWM1_2_TM4C123);                                            
    2569                    ; 1033 | else                                                                   
    2570                    ;----------------------------------------------------------------------
    2571 0000035a 2098              MOVS      A1, #152              ; [DPU_V7M3_PIPE] |1031|  ; [ORIG 16-BIT INS]
    2572 0000035c E024              B         ||$C$L40||            ; [DPU_V7M3_PIPE] |1031|  ; [ORIG 16-BIT INS]
    2573                            ; BRANCH OCCURS {||$C$L40||}     ; [] |1031| 
    2574                    ;* --------------------------------------------------------------------------*
    2575                    ;* --------------------------------------------------------------------------*
    2576 0000035e           ||$C$L35||:    
    2577                            .dwpsn  file "../driverlib/pwm.c",line 1035,column 17,is_stmt,isa 1
    2578                    ;----------------------------------------------------------------------
    2579                    ; 1035 | return(0);                                                             
    2580                    ; 1039 | //                                                                     
    2581                    ; 1040 | // The first PWM generator in the second PWM module.                   
    2582                    ; 1041 | //                                                                     
    2583                    ; 1042 | case PWM1_BASE + PWM_GEN_3:                                            
    2584                    ;----------------------------------------------------------------------
    2585 0000035e 2000              MOVS      A1, #0                ; [DPU_V7M3_PIPE] |1035|  ; [ORIG 16-BIT INS]
TI ARM Assembler Unix v18.1.1 Fri Jul  3 20:08:25 2020

Tools Copyright (c) 1996-2017 Texas Instruments Incorporated
pwm.asm                                                              PAGE   48

    2586 00000360 E022              B         ||$C$L40||            ; [DPU_V7M3_PIPE] |1035|  ; [ORIG 16-BIT INS]
    2587                            ; BRANCH OCCURS {||$C$L40||}     ; [] |1035| 
    2588                    ;* --------------------------------------------------------------------------*
    2589 00000362           ||$C$L36||:    
    2590                            .dwpsn  file "../driverlib/pwm.c",line 1044,column 13,is_stmt,isa 1
    2591                    ;----------------------------------------------------------------------
    2592                    ; 1044 | if(CLASS_IS_TM4C123)                                                   
    2593                    ;----------------------------------------------------------------------
    2594 00000362 4981              LDR       A2, $C$CON2           ; [DPU_V7M3_PIPE] |1044|  ; [ORIG 16-BIT INS]
    2595 00000364 487F              LDR       A1, $C$CON1           ; [DPU_V7M3_PIPE] |1044|  ; [ORIG 16-BIT INS]
    2596 00000366 680A              LDR       A3, [A2, #0]          ; [DPU_V7M3_PIPE] |1044|  ; [ORIG 16-BIT INS]
    2597 00000368 4980              LDR       A2, $C$CON3           ; [DPU_V7M3_PIPE] |1044|  ; [ORIG 16-BIT INS]
    2598 0000036a 4010              ANDS      A1, A1, A3            ; [DPU_V7M3_PIPE] |1044|  ; [ORIG 16-BIT INS]
    2599 0000036c 4281              CMP       A2, A1                ; [DPU_V7M3_PIPE] |1044|  ; [ORIG 16-BIT INS]
    2600 0000036e D101              BNE       ||$C$L37||            ; [DPU_V7M3_PIPE] |1044|  ; [ORIG 16-BIT INS]
    2601                            ; BRANCHCC OCCURS {||$C$L37||}   ; [] |1044| 
    2602                    ;* --------------------------------------------------------------------------*
    2603                            .dwpsn  file "../driverlib/pwm.c",line 1046,column 17,is_stmt,isa 1
    2604                    ;----------------------------------------------------------------------
    2605                    ; 1046 | return(INT_PWM1_3_TM4C123);                                            
    2606                    ; 1048 | else                                                                   
    2607                    ;----------------------------------------------------------------------
    2608 00000370 2099              MOVS      A1, #153              ; [DPU_V7M3_PIPE] |1046|  ; [ORIG 16-BIT INS]
    2609 00000372 E019              B         ||$C$L40||            ; [DPU_V7M3_PIPE] |1046|  ; [ORIG 16-BIT INS]
    2610                            ; BRANCH OCCURS {||$C$L40||}     ; [] |1046| 
    2611                    ;* --------------------------------------------------------------------------*
    2612                    ;* --------------------------------------------------------------------------*
    2613 00000374           ||$C$L37||:    
    2614                            .dwpsn  file "../driverlib/pwm.c",line 1050,column 17,is_stmt,isa 1
    2615                    ;----------------------------------------------------------------------
    2616                    ; 1050 | return(0);                                                             
    2617                    ; 1054 | //                                                                     
    2618                    ; 1055 | // An unknown PWM module/generator was specified.                      
    2619                    ; 1056 | //                                                                     
    2620                    ; 1057 | default:                                                               
    2621                    ;----------------------------------------------------------------------
    2622 00000374 2000              MOVS      A1, #0                ; [DPU_V7M3_PIPE] |1050|  ; [ORIG 16-BIT INS]
    2623 00000376 E017              B         ||$C$L40||            ; [DPU_V7M3_PIPE] |1050|  ; [ORIG 16-BIT INS]
    2624                            ; BRANCH OCCURS {||$C$L40||}     ; [] |1050| 
    2625                    ;* --------------------------------------------------------------------------*
    2626 00000378           ||$C$L38||:    
    2627                            .dwpsn  file "../driverlib/pwm.c",line 1059,column 13,is_stmt,isa 1
    2628                    ;----------------------------------------------------------------------
    2629                    ; 1059 | return(0);                                                             
    2630                    ;----------------------------------------------------------------------
    2631 00000378 2000              MOVS      A1, #0                ; [DPU_V7M3_PIPE] |1059|  ; [ORIG 16-BIT INS]
    2632 0000037a E015              B         ||$C$L40||            ; [DPU_V7M3_PIPE] |1059|  ; [ORIG 16-BIT INS]
    2633                            ; BRANCH OCCURS {||$C$L40||}     ; [] |1059| 
    2634                    ;* --------------------------------------------------------------------------*
    2635                    ;* --------------------------------------------------------------------------*
    2636 0000037c           ||$C$L39||:    
    2637                            .dwpsn  file "../driverlib/pwm.c",line 928,column 5,is_stmt,isa 1
    2638 0000037c 9A01              LDR       A3, [SP, #4]          ; [DPU_V7M3_PIPE] |928|  ; [ORIG 16-BIT INS]
    2639 0000037e 9800              LDR       A1, [SP, #0]          ; [DPU_V7M3_PIPE] |928|  ; [ORIG 16-BIT INS]
    2640 00000380 49A7              LDR       A2, $C$CON5           ; [DPU_V7M3_PIPE] |928|  ; [ORIG 16-BIT INS]
TI ARM Assembler Unix v18.1.1 Fri Jul  3 20:08:25 2020

Tools Copyright (c) 1996-2017 Texas Instruments Incorporated
pwm.asm                                                              PAGE   49

    2641 00000382 1880              ADDS      A1, A1, A3            ; [DPU_V7M3_PIPE] |928|  ; [ORIG 16-BIT INS]
    2642 00000384 1A40              SUBS      A1, A1, A2            ; [DPU_V7M3_PIPE] |928|  ; [ORIG 16-BIT INS]
    2643 00000386 D096              BEQ       ||$C$L21||            ; [DPU_V7M3_PIPE] |928|  ; [ORIG 16-BIT INS]
    2644                            ; BRANCHCC OCCURS {||$C$L21||}   ; [] |928| 
    2645                    ;* --------------------------------------------------------------------------*
    2646 00000388 3840              SUBS      A1, A1, #64           ; [DPU_V7M3_PIPE] |928|  ; [ORIG 16-BIT INS]
    2647 0000038a D0A8              BEQ       ||$C$L24||            ; [DPU_V7M3_PIPE] |928|  ; [ORIG 16-BIT INS]
    2648                            ; BRANCHCC OCCURS {||$C$L24||}   ; [] |928| 
    2649                    ;* --------------------------------------------------------------------------*
    2650 0000038c 3840              SUBS      A1, A1, #64           ; [DPU_V7M3_PIPE] |928|  ; [ORIG 16-BIT INS]
    2651 0000038e D0B1              BEQ       ||$C$L26||            ; [DPU_V7M3_PIPE] |928|  ; [ORIG 16-BIT INS]
    2652                            ; BRANCHCC OCCURS {||$C$L26||}   ; [] |928| 
    2653                    ;* --------------------------------------------------------------------------*
    2654 00000390 3840              SUBS      A1, A1, #64           ; [DPU_V7M3_PIPE] |928|  ; [ORIG 16-BIT INS]
    2655 00000392 D0BA              BEQ       ||$C$L28||            ; [DPU_V7M3_PIPE] |928|  ; [ORIG 16-BIT INS]
    2656                            ; BRANCHCC OCCURS {||$C$L28||}   ; [] |928| 
    2657                    ;* --------------------------------------------------------------------------*
    2658 00000394 6074F5B0          SUBS      A1, A1, #3904         ; [DPU_V7M3_PIPE] |928|  ; [KEEP 32-BIT INS]
    2659 00000398 D0C2              BEQ       ||$C$L30||            ; [DPU_V7M3_PIPE] |928|  ; [ORIG 16-BIT INS]
    2660                            ; BRANCHCC OCCURS {||$C$L30||}   ; [] |928| 
    2661                    ;* --------------------------------------------------------------------------*
    2662 0000039a 3840              SUBS      A1, A1, #64           ; [DPU_V7M3_PIPE] |928|  ; [ORIG 16-BIT INS]
    2663 0000039c D0CB              BEQ       ||$C$L32||            ; [DPU_V7M3_PIPE] |928|  ; [ORIG 16-BIT INS]
    2664                            ; BRANCHCC OCCURS {||$C$L32||}   ; [] |928| 
    2665                    ;* --------------------------------------------------------------------------*
    2666 0000039e 3840              SUBS      A1, A1, #64           ; [DPU_V7M3_PIPE] |928|  ; [ORIG 16-BIT INS]
    2667 000003a0 D0D4              BEQ       ||$C$L34||            ; [DPU_V7M3_PIPE] |928|  ; [ORIG 16-BIT INS]
    2668                            ; BRANCHCC OCCURS {||$C$L34||}   ; [] |928| 
    2669                    ;* --------------------------------------------------------------------------*
    2670 000003a2 3840              SUBS      A1, A1, #64           ; [DPU_V7M3_PIPE] |928|  ; [ORIG 16-BIT INS]
    2671 000003a4 D0DD              BEQ       ||$C$L36||            ; [DPU_V7M3_PIPE] |928|  ; [ORIG 16-BIT INS]
    2672                            ; BRANCHCC OCCURS {||$C$L36||}   ; [] |928| 
    2673                    ;* --------------------------------------------------------------------------*
    2674 000003a6 E7E7              B         ||$C$L38||            ; [DPU_V7M3_PIPE] |928|  ; [ORIG 16-BIT INS]
    2675                            ; BRANCH OCCURS {||$C$L38||}     ; [] |928| 
    2676                    ;* --------------------------------------------------------------------------*
    2677 000003a8           ||$C$L40||:    
    2678                            .dwpsn  file "../driverlib/pwm.c",line 1062,column 1,is_stmt,isa 1
    2679 000003a8 B002              ADD       SP, SP, #8            ; [DPU_V7M3_PIPE]  ; [ORIG 16-BIT INS]
    2680                            .dwcfi  cfa_offset, 0
    2681                    $C$DW$128       .dwtag  DW_TAG_TI_branch
    2682                            .dwattr $C$DW$128, DW_AT_low_pc(0x00)
    2683                            .dwattr $C$DW$128, DW_AT_TI_return
    2684                    
    2685 000003aa 4770              BX        LR                    ; [DPU_V7M3_PIPE]  ; [ORIG 16-BIT INS]
    2686                            ; BRANCH OCCURS                  ; [] 
    2687                            .dwattr $C$DW$123, DW_AT_TI_end_file("../driverlib/pwm.c")
    2688                            .dwattr $C$DW$123, DW_AT_TI_end_line(0x426)
    2689                            .dwattr $C$DW$123, DW_AT_TI_end_column(0x01)
    2690                            .dwendentry
    2691                            .dwendtag $C$DW$123
    2692                    
    2693 000003ac                   .sect   ".text"
    2694                            .clink
    2695                            .thumbfunc PWMGenIntRegister
TI ARM Assembler Unix v18.1.1 Fri Jul  3 20:08:25 2020

Tools Copyright (c) 1996-2017 Texas Instruments Incorporated
pwm.asm                                                              PAGE   50

    2696 000003ac                   .thumb
    2697                            .global PWMGenIntRegister
    2698                    
    2699                    $C$DW$129       .dwtag  DW_TAG_subprogram
    2700                            .dwattr $C$DW$129, DW_AT_name("PWMGenIntRegister")
    2701                            .dwattr $C$DW$129, DW_AT_low_pc(PWMGenIntRegister)
    2702                            .dwattr $C$DW$129, DW_AT_high_pc(0x00)
    2703                            .dwattr $C$DW$129, DW_AT_TI_symbol_name("PWMGenIntRegister")
    2704                            .dwattr $C$DW$129, DW_AT_external
    2705                            .dwattr $C$DW$129, DW_AT_TI_begin_file("../driverlib/pwm.c")
    2706                            .dwattr $C$DW$129, DW_AT_TI_begin_line(0x440)
    2707                            .dwattr $C$DW$129, DW_AT_TI_begin_column(0x01)
