TI ARM Assembler Unix v18.1.1 Fri Jul  3 20:08:25 2020

Tools Copyright (c) 1996-2017 Texas Instruments Incorporated
pwm.asm                                                              PAGE    1

       1                    ;******************************************************************************
       2                    ;* TI ARM C/C++ Codegen                                      Unix v18.1.1.LTS *
       3                    ;* Date/Time created: Fri Jul  3 20:08:25 2020                                *
       4                    ;******************************************************************************
       5                            .compiler_opts --abi=eabi --arm_vmrs_si_workaround=off --code_state=16 --diag_wrap=off --embed
       6 00000000                   .thumb
       7                    
       8                    $C$DW$CU        .dwtag  DW_TAG_compile_unit
       9                            .dwattr $C$DW$CU, DW_AT_name("../driverlib/pwm.c")
      10                            .dwattr $C$DW$CU, DW_AT_producer("TI TI ARM C/C++ Codegen Unix v18.1.1.LTS Copyright (c) 1996-
      11                            .dwattr $C$DW$CU, DW_AT_TI_version(0x01)
      12                            .dwattr $C$DW$CU, DW_AT_comp_dir("/home/pola/workspace_v8/Microwave/Debug")
      13                    
      14                    $C$DW$1 .dwtag  DW_TAG_subprogram
      15                            .dwattr $C$DW$1, DW_AT_name("IntRegister")
      16                            .dwattr $C$DW$1, DW_AT_TI_symbol_name("IntRegister")
      17                            .dwattr $C$DW$1, DW_AT_declaration
      18                            .dwattr $C$DW$1, DW_AT_external
      19                            .dwattr $C$DW$1, DW_AT_decl_file("/home/pola/workspace_v8/Microwave/driverlib/interrupt.h")
      20                            .dwattr $C$DW$1, DW_AT_decl_line(0x45)
      21                            .dwattr $C$DW$1, DW_AT_decl_column(0x0d)
      22                    $C$DW$2 .dwtag  DW_TAG_formal_parameter
      23                            .dwattr $C$DW$2, DW_AT_type(*$C$DW$T$27)
      24                    
      25                    $C$DW$3 .dwtag  DW_TAG_formal_parameter
      26                            .dwattr $C$DW$3, DW_AT_type(*$C$DW$T$25)
      27                    
      28                            .dwendtag $C$DW$1
      29                    
      30                    
      31                    $C$DW$4 .dwtag  DW_TAG_subprogram
      32                            .dwattr $C$DW$4, DW_AT_name("IntEnable")
      33                            .dwattr $C$DW$4, DW_AT_TI_symbol_name("IntEnable")
      34                            .dwattr $C$DW$4, DW_AT_declaration
      35                            .dwattr $C$DW$4, DW_AT_external
      36                            .dwattr $C$DW$4, DW_AT_decl_file("/home/pola/workspace_v8/Microwave/driverlib/interrupt.h")
      37                            .dwattr $C$DW$4, DW_AT_decl_line(0x4c)
      38                            .dwattr $C$DW$4, DW_AT_decl_column(0x0d)
      39                    $C$DW$5 .dwtag  DW_TAG_formal_parameter
      40                            .dwattr $C$DW$5, DW_AT_type(*$C$DW$T$27)
      41                    
      42                            .dwendtag $C$DW$4
      43                    
      44                    
      45                    $C$DW$6 .dwtag  DW_TAG_subprogram
      46                            .dwattr $C$DW$6, DW_AT_name("IntDisable")
      47                            .dwattr $C$DW$6, DW_AT_TI_symbol_name("IntDisable")
      48                            .dwattr $C$DW$6, DW_AT_declaration
      49                            .dwattr $C$DW$6, DW_AT_external
      50                            .dwattr $C$DW$6, DW_AT_decl_file("/home/pola/workspace_v8/Microwave/driverlib/interrupt.h")
      51                            .dwattr $C$DW$6, DW_AT_decl_line(0x4d)
      52                            .dwattr $C$DW$6, DW_AT_decl_column(0x0d)
      53                    $C$DW$7 .dwtag  DW_TAG_formal_parameter
      54                            .dwattr $C$DW$7, DW_AT_type(*$C$DW$T$27)
      55                    
TI ARM Assembler Unix v18.1.1 Fri Jul  3 20:08:25 2020

Tools Copyright (c) 1996-2017 Texas Instruments Incorporated
pwm.asm                                                              PAGE    2

      56                            .dwendtag $C$DW$6
      57                    
      58                    
      59                    $C$DW$8 .dwtag  DW_TAG_subprogram
      60                            .dwattr $C$DW$8, DW_AT_name("IntUnregister")
      61                            .dwattr $C$DW$8, DW_AT_TI_symbol_name("IntUnregister")
      62                            .dwattr $C$DW$8, DW_AT_declaration
      63                            .dwattr $C$DW$8, DW_AT_external
      64                            .dwattr $C$DW$8, DW_AT_decl_file("/home/pola/workspace_v8/Microwave/driverlib/interrupt.h")
      65                            .dwattr $C$DW$8, DW_AT_decl_line(0x46)
      66                            .dwattr $C$DW$8, DW_AT_decl_column(0x0d)
      67                    $C$DW$9 .dwtag  DW_TAG_formal_parameter
      68                            .dwattr $C$DW$9, DW_AT_type(*$C$DW$T$27)
      69                    
      70                            .dwendtag $C$DW$8
      71                    
      72                    ;       /home/pola/ti/ccsv8/tools/compiler/ti-cgt-arm_18.1.1.LTS/bin/armacpia -@/tmp/TI3R65zd6Gp 
      73 00000000                   .sect   ".text"
      74                            .clink
      75                            .thumbfunc PWMGenConfigure
      76 00000000                   .thumb
      77                            .global PWMGenConfigure
      78                    
      79                    $C$DW$10        .dwtag  DW_TAG_subprogram
      80                            .dwattr $C$DW$10, DW_AT_name("PWMGenConfigure")
      81                            .dwattr $C$DW$10, DW_AT_low_pc(PWMGenConfigure)
      82                            .dwattr $C$DW$10, DW_AT_high_pc(0x00)
      83                            .dwattr $C$DW$10, DW_AT_TI_symbol_name("PWMGenConfigure")
      84                            .dwattr $C$DW$10, DW_AT_external
      85                            .dwattr $C$DW$10, DW_AT_TI_begin_file("../driverlib/pwm.c")
      86                            .dwattr $C$DW$10, DW_AT_TI_begin_line(0xc8)
      87                            .dwattr $C$DW$10, DW_AT_TI_begin_column(0x01)
      88                            .dwattr $C$DW$10, DW_AT_decl_file("../driverlib/pwm.c")
      89                            .dwattr $C$DW$10, DW_AT_decl_line(0xc8)
      90                            .dwattr $C$DW$10, DW_AT_decl_column(0x01)
      91                            .dwattr $C$DW$10, DW_AT_TI_max_frame_size(0x10)
      92                            .dwpsn  file "../driverlib/pwm.c",line 202,column 1,is_stmt,address PWMGenConfigure,isa 1
      93                    
      94                            .dwfde $C$DW$CIE, PWMGenConfigure
      95                    $C$DW$11        .dwtag  DW_TAG_formal_parameter
      96                            .dwattr $C$DW$11, DW_AT_name("ui32Base")
      97                            .dwattr $C$DW$11, DW_AT_TI_symbol_name("ui32Base")
      98                            .dwattr $C$DW$11, DW_AT_type(*$C$DW$T$27)
      99                            .dwattr $C$DW$11, DW_AT_location[DW_OP_reg0]
     100                    
     101                    $C$DW$12        .dwtag  DW_TAG_formal_parameter
     102                            .dwattr $C$DW$12, DW_AT_name("ui32Gen")
     103                            .dwattr $C$DW$12, DW_AT_TI_symbol_name("ui32Gen")
     104                            .dwattr $C$DW$12, DW_AT_type(*$C$DW$T$27)
     105                            .dwattr $C$DW$12, DW_AT_location[DW_OP_reg1]
     106                    
     107                    $C$DW$13        .dwtag  DW_TAG_formal_parameter
     108                            .dwattr $C$DW$13, DW_AT_name("ui32Config")
     109                            .dwattr $C$DW$13, DW_AT_TI_symbol_name("ui32Config")
     110                            .dwattr $C$DW$13, DW_AT_type(*$C$DW$T$27)
TI ARM Assembler Unix v18.1.1 Fri Jul  3 20:08:25 2020

Tools Copyright (c) 1996-2017 Texas Instruments Incorporated
pwm.asm                                                              PAGE    3

     111                            .dwattr $C$DW$13, DW_AT_location[DW_OP_reg2]
     112                    
     113                    ;----------------------------------------------------------------------
     114                    ; 200 | PWMGenConfigure(uint32_t ui32Base, uint32_t ui32Gen,                   
     115                    ; 201 | uint32_t ui32Config)                                                   
     116                    ;----------------------------------------------------------------------
     117                    
     118                    ;*****************************************************************************
     119                    ;* FUNCTION NAME: PWMGenConfigure                                            *
     120                    ;*                                                                           *
     121                    ;*   Regs Modified     : A1,A2,A3,SP,SR                                      *
     122                    ;*   Regs Used         : A1,A2,A3,SP,LR,SR                                   *
     123                    ;*   Local Frame Size  : 0 Args + 12 Auto + 0 Save = 12 byte                 *
     124                    ;*****************************************************************************
     125 00000000           PWMGenConfigure:
     126                    ;* --------------------------------------------------------------------------*
     127                            .dwcfi  cfa_offset, 0
     128 00000000 0D10F1AD          SUB       SP, SP, #16           ; [DPU_V7M3_PIPE]  ; [KEEP 32-BIT INS]
     129                            .dwcfi  cfa_offset, 16
     130                    $C$DW$14        .dwtag  DW_TAG_variable
     131                            .dwattr $C$DW$14, DW_AT_name("ui32Base")
     132                            .dwattr $C$DW$14, DW_AT_TI_symbol_name("ui32Base")
     133                            .dwattr $C$DW$14, DW_AT_type(*$C$DW$T$27)
     134                            .dwattr $C$DW$14, DW_AT_location[DW_OP_breg13 0]
     135                    
     136                    $C$DW$15        .dwtag  DW_TAG_variable
     137                            .dwattr $C$DW$15, DW_AT_name("ui32Gen")
     138                            .dwattr $C$DW$15, DW_AT_TI_symbol_name("ui32Gen")
     139                            .dwattr $C$DW$15, DW_AT_type(*$C$DW$T$27)
     140                            .dwattr $C$DW$15, DW_AT_location[DW_OP_breg13 4]
     141                    
     142                    $C$DW$16        .dwtag  DW_TAG_variable
     143                            .dwattr $C$DW$16, DW_AT_name("ui32Config")
     144                            .dwattr $C$DW$16, DW_AT_TI_symbol_name("ui32Config")
     145                            .dwattr $C$DW$16, DW_AT_type(*$C$DW$T$27)
     146                            .dwattr $C$DW$16, DW_AT_location[DW_OP_breg13 8]
     147                    
     148                    ;----------------------------------------------------------------------
     149                    ; 203 | //                                                                     
     150                    ; 204 | // Check the arguments.                                                
     151                    ; 205 | //                                                                     
     152                    ; 206 | ASSERT((ui32Base == PWM0_BASE) || (ui32Base == PWM1_BASE));            
     153                    ; 207 | ASSERT(_PWMGenValid(ui32Gen));                                         
     154                    ; 209 | //                                                                     
     155                    ; 210 | // Compute the generator's base address.                               
     156                    ; 211 | //                                                                     
     157                    ;----------------------------------------------------------------------
     158 00000004 9202              STR       A3, [SP, #8]          ; [DPU_V7M3_PIPE] |202|  ; [ORIG 16-BIT INS]
     159 00000006 9101              STR       A2, [SP, #4]          ; [DPU_V7M3_PIPE] |202|  ; [ORIG 16-BIT INS]
     160 00000008 9000              STR       A1, [SP, #0]          ; [DPU_V7M3_PIPE] |202|  ; [ORIG 16-BIT INS]
     161                            .dwpsn  file "../driverlib/pwm.c",line 212,column 5,is_stmt,isa 1
     162                    ;----------------------------------------------------------------------
     163                    ; 212 | ui32Gen = PWM_GEN_BADDR(ui32Base, ui32Gen);                            
     164                    ; 214 | //                                                                     
     165                    ; 215 | // Change the global configuration of the generator.                   
TI ARM Assembler Unix v18.1.1 Fri Jul  3 20:08:25 2020

Tools Copyright (c) 1996-2017 Texas Instruments Incorporated
pwm.asm                                                              PAGE    4

     166                    ; 216 | //                                                                     
     167                    ;----------------------------------------------------------------------
     168 0000000a 9901              LDR       A2, [SP, #4]          ; [DPU_V7M3_PIPE] |212|  ; [ORIG 16-BIT INS]
     169 0000000c 9800              LDR       A1, [SP, #0]          ; [DPU_V7M3_PIPE] |212|  ; [ORIG 16-BIT INS]
     170 0000000e 1840              ADDS      A1, A1, A2            ; [DPU_V7M3_PIPE] |212|  ; [ORIG 16-BIT INS]
     171 00000010 9001              STR       A1, [SP, #4]          ; [DPU_V7M3_PIPE] |212|  ; [ORIG 16-BIT INS]
     172                            .dwpsn  file "../driverlib/pwm.c",line 217,column 5,is_stmt,isa 1
     173                    ;----------------------------------------------------------------------
     174                    ; 217 | HWREG(ui32Gen + PWM_O_X_CTL) = ((HWREG(ui32Gen + PWM_O_X_CTL) &        
     175                    ; 218 |                                  ~(PWM_X_CTL_MODE | PWM_X_CTL_DEBUG |  
     176                    ; 219 |                                    PWM_X_CTL_LATCH | PWM_X_CTL_MINFLTPE
     177                    ;     | R |                                                                    
     178                    ; 220 |                                    PWM_X_CTL_FLTSRC |                  
     179                    ; 221 |                                    PWM_X_CTL_DBFALLUPD_M |             
     180                    ; 222 |                                    PWM_X_CTL_DBRISEUPD_M |             
     181                    ; 223 |                                    PWM_X_CTL_DBCTLUPD_M |              
     182                    ; 224 |                                    PWM_X_CTL_GENBUPD_M |               
     183                    ; 225 |                                    PWM_X_CTL_GENAUPD_M |               
     184                    ; 226 |                                    PWM_X_CTL_LOADUPD | PWM_X_CTL_CMPAUP
     185                    ;     | D |                                                                    
     186                    ; 227 |                                    PWM_X_CTL_CMPBUPD)) | ui32Config);  
     187                    ; 229 | //                                                                     
     188                    ; 230 | // Set the individual PWM generator controls.                          
     189                    ; 231 | //                                                                     
     190                    ;----------------------------------------------------------------------
     191 00000012 9801              LDR       A1, [SP, #4]          ; [DPU_V7M3_PIPE] |217|  ; [ORIG 16-BIT INS]
     192 00000014 9901              LDR       A2, [SP, #4]          ; [DPU_V7M3_PIPE] |217|  ; [ORIG 16-BIT INS]
     193 00000016 6802              LDR       A3, [A1, #0]          ; [DPU_V7M3_PIPE] |217|  ; [ORIG 16-BIT INS]
     194 00000018 9802              LDR       A1, [SP, #8]          ; [DPU_V7M3_PIPE] |217|  ; [ORIG 16-BIT INS]
     195 0000001a 0252F36F          BFC       A3, #1, #18           ; [DPU_V7M3_PIPE] |217|  ; [KEEP 32-BIT INS]
     196 0000001e 4310              ORRS      A1, A1, A3            ; [DPU_V7M3_PIPE] |217|  ; [ORIG 16-BIT INS]
     197 00000020 6008              STR       A1, [A2, #0]          ; [DPU_V7M3_PIPE] |217|  ; [ORIG 16-BIT INS]
     198                            .dwpsn  file "../driverlib/pwm.c",line 232,column 5,is_stmt,isa 1
     199                    ;----------------------------------------------------------------------
     200                    ; 232 | if(ui32Config & PWM_X_CTL_MODE)                                        
     201                    ; 234 |     //                                                                 
     202                    ; 235 |     // In up/down count mode, set the signal high on up count compariso
     203                    ;     | n                                                                      
     204                    ; 236 |     // and low on down count comparison (that is, center align the     
     205                    ; 237 |     // signals).                                                       
     206                    ; 238 |     //                                                                 
     207                    ;----------------------------------------------------------------------
     208 00000022 9802              LDR       A1, [SP, #8]          ; [DPU_V7M3_PIPE] |232|  ; [ORIG 16-BIT INS]
     209 00000024 0880              LSRS      A1, A1, #2            ; [DPU_V7M3_PIPE] |232|  ; [ORIG 16-BIT INS]
     210 00000026 D307              BCC       ||$C$L1||             ; [DPU_V7M3_PIPE] |232|  ; [ORIG 16-BIT INS]
     211                            ; BRANCHCC OCCURS {||$C$L1||}    ; [] |232| 
     212                    ;* --------------------------------------------------------------------------*
     213                            .dwpsn  file "../driverlib/pwm.c",line 239,column 9,is_stmt,isa 1
     214                    ;----------------------------------------------------------------------
     215                    ; 239 | HWREG(ui32Gen + PWM_O_X_GENA) = (PWM_X_GENA_ACTCMPAU_ONE |             
     216                    ; 240 |                                  PWM_X_GENA_ACTCMPAD_ZERO);            
     217                    ;----------------------------------------------------------------------
     218 00000028 9801              LDR       A1, [SP, #4]          ; [DPU_V7M3_PIPE] |239|  ; [ORIG 16-BIT INS]
     219 0000002a 21B0              MOVS      A2, #176              ; [DPU_V7M3_PIPE] |239|  ; [ORIG 16-BIT INS]
     220 0000002c 6201              STR       A2, [A1, #32]         ; [DPU_V7M3_PIPE] |239|  ; [ORIG 16-BIT INS]
TI ARM Assembler Unix v18.1.1 Fri Jul  3 20:08:25 2020

Tools Copyright (c) 1996-2017 Texas Instruments Incorporated
pwm.asm                                                              PAGE    5

     221                            .dwpsn  file "../driverlib/pwm.c",line 241,column 9,is_stmt,isa 1
     222                    ;----------------------------------------------------------------------
     223                    ; 241 | HWREG(ui32Gen + PWM_O_X_GENB) = (PWM_X_GENB_ACTCMPBU_ONE |             
     224                    ; 242 |                                  PWM_X_GENB_ACTCMPBD_ZERO);            
     225                    ;----------------------------------------------------------------------
     226 0000002e 9801              LDR       A1, [SP, #4]          ; [DPU_V7M3_PIPE] |241|  ; [ORIG 16-BIT INS]
     227 00000030 6130F44F          MOV       A2, #2816             ; [DPU_V7M3_PIPE] |241|  ; [KEEP 32-BIT INS]
     228 00000034 6241              STR       A2, [A1, #36]         ; [DPU_V7M3_PIPE] |241|  ; [ORIG 16-BIT INS]
     229                            .dwpsn  file "../driverlib/pwm.c",line 243,column 5,is_stmt,isa 1
     230                    ;----------------------------------------------------------------------
     231                    ; 244 | else                                                                   
     232                    ; 246 |     //                                                                 
     233                    ; 247 |     // In down count mode, set the signal high on load and low on count
     234                    ; 248 |     // comparison (that is, left align the signals).                   
     235                    ; 249 |     //                                                                 
     236                    ;----------------------------------------------------------------------
     237 00000036 E006              B         ||$C$L2||             ; [DPU_V7M3_PIPE] |243|  ; [ORIG 16-BIT INS]
     238                            ; BRANCH OCCURS {||$C$L2||}      ; [] |243| 
     239                    ;* --------------------------------------------------------------------------*
     240 00000038           ||$C$L1||:    
     241                            .dwpsn  file "../driverlib/pwm.c",line 250,column 9,is_stmt,isa 1
     242                    ;----------------------------------------------------------------------
     243                    ; 250 | HWREG(ui32Gen + PWM_O_X_GENA) = (PWM_X_GENA_ACTLOAD_ONE |              
     244                    ; 251 |                                  PWM_X_GENA_ACTCMPAD_ZERO);            
     245                    ;----------------------------------------------------------------------
     246 00000038 9801              LDR       A1, [SP, #4]          ; [DPU_V7M3_PIPE] |250|  ; [ORIG 16-BIT INS]
     247 0000003a 218C              MOVS      A2, #140              ; [DPU_V7M3_PIPE] |250|  ; [ORIG 16-BIT INS]
     248 0000003c 6201              STR       A2, [A1, #32]         ; [DPU_V7M3_PIPE] |250|  ; [ORIG 16-BIT INS]
     249                            .dwpsn  file "../driverlib/pwm.c",line 252,column 9,is_stmt,isa 1
     250                    ;----------------------------------------------------------------------
     251                    ; 252 | HWREG(ui32Gen + PWM_O_X_GENB) = (PWM_X_GENB_ACTLOAD_ONE |              
     252                    ; 253 |                                  PWM_X_GENB_ACTCMPBD_ZERO);            
     253                    ;----------------------------------------------------------------------
     254 0000003e 9801              LDR       A1, [SP, #4]          ; [DPU_V7M3_PIPE] |252|  ; [ORIG 16-BIT INS]
     255 00000040 010CF640          MOV       A2, #2060             ; [DPU_V7M3_PIPE] |252|  ; [KEEP 32-BIT INS]
     256 00000044 6241              STR       A2, [A1, #36]         ; [DPU_V7M3_PIPE] |252|  ; [ORIG 16-BIT INS]
     257                            .dwpsn  file "../driverlib/pwm.c",line 255,column 1,is_stmt,isa 1
     258                    ;* --------------------------------------------------------------------------*
     259 00000046           ||$C$L2||:    
     260 00000046 B004              ADD       SP, SP, #16           ; [DPU_V7M3_PIPE]  ; [ORIG 16-BIT INS]
     261                            .dwcfi  cfa_offset, 0
     262                    $C$DW$17        .dwtag  DW_TAG_TI_branch
     263                            .dwattr $C$DW$17, DW_AT_low_pc(0x00)
     264                            .dwattr $C$DW$17, DW_AT_TI_return
     265                    
     266 00000048 4770              BX        LR                    ; [DPU_V7M3_PIPE]  ; [ORIG 16-BIT INS]
     267                            ; BRANCH OCCURS                  ; [] 
     268                            .dwattr $C$DW$10, DW_AT_TI_end_file("../driverlib/pwm.c")
     269                            .dwattr $C$DW$10, DW_AT_TI_end_line(0xff)
     270                            .dwattr $C$DW$10, DW_AT_TI_end_column(0x01)
     271                            .dwendentry
     272                            .dwendtag $C$DW$10
     273                    
     274 0000004a                   .sect   ".text"
     275                            .clink
TI ARM Assembler Unix v18.1.1 Fri Jul  3 20:08:25 2020

Tools Copyright (c) 1996-2017 Texas Instruments Incorporated
pwm.asm                                                              PAGE    6

     276                            .thumbfunc PWMGenPeriodSet
     277 0000004a                   .thumb
     278                            .global PWMGenPeriodSet
     279                    
     280                    $C$DW$18        .dwtag  DW_TAG_subprogram
     281                            .dwattr $C$DW$18, DW_AT_name("PWMGenPeriodSet")
     282                            .dwattr $C$DW$18, DW_AT_low_pc(PWMGenPeriodSet)
     283                            .dwattr $C$DW$18, DW_AT_high_pc(0x00)
     284                            .dwattr $C$DW$18, DW_AT_TI_symbol_name("PWMGenPeriodSet")
     285                            .dwattr $C$DW$18, DW_AT_external
     286                            .dwattr $C$DW$18, DW_AT_TI_begin_file("../driverlib/pwm.c")
     287                            .dwattr $C$DW$18, DW_AT_TI_begin_line(0x116)
     288                            .dwattr $C$DW$18, DW_AT_TI_begin_column(0x01)
     289                            .dwattr $C$DW$18, DW_AT_decl_file("../driverlib/pwm.c")
     290                            .dwattr $C$DW$18, DW_AT_decl_line(0x116)
     291                            .dwattr $C$DW$18, DW_AT_decl_column(0x01)
     292                            .dwattr $C$DW$18, DW_AT_TI_max_frame_size(0x10)
     293                            .dwpsn  file "../driverlib/pwm.c",line 280,column 1,is_stmt,address PWMGenPeriodSet,isa 1
     294                    
     295                            .dwfde $C$DW$CIE, PWMGenPeriodSet
     296                    $C$DW$19        .dwtag  DW_TAG_formal_parameter
     297                            .dwattr $C$DW$19, DW_AT_name("ui32Base")
     298                            .dwattr $C$DW$19, DW_AT_TI_symbol_name("ui32Base")
     299                            .dwattr $C$DW$19, DW_AT_type(*$C$DW$T$27)
     300                            .dwattr $C$DW$19, DW_AT_location[DW_OP_reg0]
     301                    
     302                    $C$DW$20        .dwtag  DW_TAG_formal_parameter
     303                            .dwattr $C$DW$20, DW_AT_name("ui32Gen")
     304                            .dwattr $C$DW$20, DW_AT_TI_symbol_name("ui32Gen")
     305                            .dwattr $C$DW$20, DW_AT_type(*$C$DW$T$27)
     306                            .dwattr $C$DW$20, DW_AT_location[DW_OP_reg1]
     307                    
     308                    $C$DW$21        .dwtag  DW_TAG_formal_parameter
     309                            .dwattr $C$DW$21, DW_AT_name("ui32Period")
     310                            .dwattr $C$DW$21, DW_AT_TI_symbol_name("ui32Period")
     311                            .dwattr $C$DW$21, DW_AT_type(*$C$DW$T$27)
     312                            .dwattr $C$DW$21, DW_AT_location[DW_OP_reg2]
     313                    
     314                    ;----------------------------------------------------------------------
     315                    ; 278 | PWMGenPeriodSet(uint32_t ui32Base, uint32_t ui32Gen,                   
     316                    ; 279 | uint32_t ui32Period)                                                   
     317                    ;----------------------------------------------------------------------
     318                    
     319                    ;*****************************************************************************
     320                    ;* FUNCTION NAME: PWMGenPeriodSet                                            *
     321                    ;*                                                                           *
     322                    ;*   Regs Modified     : A1,A2,SP,SR                                         *
     323                    ;*   Regs Used         : A1,A2,A3,SP,LR,SR                                   *
     324                    ;*   Local Frame Size  : 0 Args + 12 Auto + 0 Save = 12 byte                 *
     325                    ;*****************************************************************************
     326 0000004a           PWMGenPeriodSet:
     327                    ;* --------------------------------------------------------------------------*
     328                            .dwcfi  cfa_offset, 0
     329 0000004a 0D10F1AD          SUB       SP, SP, #16           ; [DPU_V7M3_PIPE]  ; [KEEP 32-BIT INS]
     330                            .dwcfi  cfa_offset, 16
TI ARM Assembler Unix v18.1.1 Fri Jul  3 20:08:25 2020

Tools Copyright (c) 1996-2017 Texas Instruments Incorporated
pwm.asm                                                              PAGE    7

     331                    $C$DW$22        .dwtag  DW_TAG_variable
     332                            .dwattr $C$DW$22, DW_AT_name("ui32Base")
     333                            .dwattr $C$DW$22, DW_AT_TI_symbol_name("ui32Base")
     334                            .dwattr $C$DW$22, DW_AT_type(*$C$DW$T$27)
     335                            .dwattr $C$DW$22, DW_AT_location[DW_OP_breg13 0]
     336                    
     337                    $C$DW$23        .dwtag  DW_TAG_variable
     338                            .dwattr $C$DW$23, DW_AT_name("ui32Gen")
     339                            .dwattr $C$DW$23, DW_AT_TI_symbol_name("ui32Gen")
     340                            .dwattr $C$DW$23, DW_AT_type(*$C$DW$T$27)
     341                            .dwattr $C$DW$23, DW_AT_location[DW_OP_breg13 4]
     342                    
     343                    $C$DW$24        .dwtag  DW_TAG_variable
     344                            .dwattr $C$DW$24, DW_AT_name("ui32Period")
     345                            .dwattr $C$DW$24, DW_AT_TI_symbol_name("ui32Period")
     346                            .dwattr $C$DW$24, DW_AT_type(*$C$DW$T$27)
     347                            .dwattr $C$DW$24, DW_AT_location[DW_OP_breg13 8]
     348                    
     349                    ;----------------------------------------------------------------------
     350                    ; 281 | //                                                                     
     351                    ; 282 | // Check the arguments.                                                
     352                    ; 283 | //                                                                     
     353                    ; 284 | ASSERT((ui32Base == PWM0_BASE) || (ui32Base == PWM1_BASE));            
     354                    ; 285 | ASSERT(_PWMGenValid(ui32Gen));                                         
     355                    ; 287 | //                                                                     
     356                    ; 288 | // Compute the generator's base address.                               
     357                    ; 289 | //                                                                     
     358                    ;----------------------------------------------------------------------
     359 0000004e 9202              STR       A3, [SP, #8]          ; [DPU_V7M3_PIPE] |280|  ; [ORIG 16-BIT INS]
     360 00000050 9101              STR       A2, [SP, #4]          ; [DPU_V7M3_PIPE] |280|  ; [ORIG 16-BIT INS]
     361 00000052 9000              STR       A1, [SP, #0]          ; [DPU_V7M3_PIPE] |280|  ; [ORIG 16-BIT INS]
     362                            .dwpsn  file "../driverlib/pwm.c",line 290,column 5,is_stmt,isa 1
     363                    ;----------------------------------------------------------------------
     364                    ; 290 | ui32Gen = PWM_GEN_BADDR(ui32Base, ui32Gen);                            
     365                    ; 292 | //                                                                     
     366                    ; 293 | // Set the reload register based on the mode.                          
     367                    ; 294 | //                                                                     
     368                    ;----------------------------------------------------------------------
     369 00000054 9901              LDR       A2, [SP, #4]          ; [DPU_V7M3_PIPE] |290|  ; [ORIG 16-BIT INS]
     370 00000056 9800              LDR       A1, [SP, #0]          ; [DPU_V7M3_PIPE] |290|  ; [ORIG 16-BIT INS]
     371 00000058 1840              ADDS      A1, A1, A2            ; [DPU_V7M3_PIPE] |290|  ; [ORIG 16-BIT INS]
     372 0000005a 9001              STR       A1, [SP, #4]          ; [DPU_V7M3_PIPE] |290|  ; [ORIG 16-BIT INS]
     373                            .dwpsn  file "../driverlib/pwm.c",line 295,column 5,is_stmt,isa 1
     374                    ;----------------------------------------------------------------------
     375                    ; 295 | if(HWREG(ui32Gen + PWM_O_X_CTL) & PWM_X_CTL_MODE)                      
     376                    ; 297 |     //                                                                 
     377                    ; 298 |     // In up/down count mode, set the reload register to half the reque
     378                    ;     | sted                                                                   
     379                    ; 299 |     // period.                                                         
     380                    ; 300 |     //                                                                 
     381                    ; 301 |     ASSERT((ui32Period / 2) < 65536);                                  
     382                    ;----------------------------------------------------------------------
     383 0000005c 9801              LDR       A1, [SP, #4]          ; [DPU_V7M3_PIPE] |295|  ; [ORIG 16-BIT INS]
     384 0000005e 6800              LDR       A1, [A1, #0]          ; [DPU_V7M3_PIPE] |295|  ; [ORIG 16-BIT INS]
     385 00000060 0880              LSRS      A1, A1, #2            ; [DPU_V7M3_PIPE] |295|  ; [ORIG 16-BIT INS]
TI ARM Assembler Unix v18.1.1 Fri Jul  3 20:08:25 2020

Tools Copyright (c) 1996-2017 Texas Instruments Incorporated
pwm.asm                                                              PAGE    8

     386 00000062 D304              BCC       ||$C$L3||             ; [DPU_V7M3_PIPE] |295|  ; [ORIG 16-BIT INS]
     387                            ; BRANCHCC OCCURS {||$C$L3||}    ; [] |295| 
     388                    ;* --------------------------------------------------------------------------*
     389                            .dwpsn  file "../driverlib/pwm.c",line 302,column 9,is_stmt,isa 1
     390                    ;----------------------------------------------------------------------
     391                    ; 302 | HWREG(ui32Gen + PWM_O_X_LOAD) = ui32Period / 2;                        
     392                    ;----------------------------------------------------------------------
     393 00000064 9802              LDR       A1, [SP, #8]          ; [DPU_V7M3_PIPE] |302|  ; [ORIG 16-BIT INS]
     394 00000066 9901              LDR       A2, [SP, #4]          ; [DPU_V7M3_PIPE] |302|  ; [ORIG 16-BIT INS]
     395 00000068 0840              LSRS      A1, A1, #1            ; [DPU_V7M3_PIPE] |302|  ; [ORIG 16-BIT INS]
     396 0000006a 6108              STR       A1, [A2, #16]         ; [DPU_V7M3_PIPE] |302|  ; [ORIG 16-BIT INS]
     397                            .dwpsn  file "../driverlib/pwm.c",line 303,column 5,is_stmt,isa 1
     398                    ;----------------------------------------------------------------------
     399                    ; 304 | else                                                                   
     400                    ; 306 |     //                                                                 
     401                    ; 307 |     // In down count mode, set the reload register to the requested per
     402                    ;     | iod                                                                    
     403                    ; 308 |     // minus one.                                                      
     404                    ; 309 |     //                                                                 
     405                    ; 310 |     ASSERT((ui32Period <= 65536) && (ui32Period != 0));                
     406                    ;----------------------------------------------------------------------
     407 0000006c E003              B         ||$C$L4||             ; [DPU_V7M3_PIPE] |303|  ; [ORIG 16-BIT INS]
     408                            ; BRANCH OCCURS {||$C$L4||}      ; [] |303| 
     409                    ;* --------------------------------------------------------------------------*
     410 0000006e           ||$C$L3||:    
     411                            .dwpsn  file "../driverlib/pwm.c",line 311,column 9,is_stmt,isa 1
     412                    ;----------------------------------------------------------------------
     413                    ; 311 | HWREG(ui32Gen + PWM_O_X_LOAD) = ui32Period - 1;                        
     414                    ;----------------------------------------------------------------------
     415 0000006e 9802              LDR       A1, [SP, #8]          ; [DPU_V7M3_PIPE] |311|  ; [ORIG 16-BIT INS]
     416 00000070 9901              LDR       A2, [SP, #4]          ; [DPU_V7M3_PIPE] |311|  ; [ORIG 16-BIT INS]
     417 00000072 1E40              SUBS      A1, A1, #1            ; [DPU_V7M3_PIPE] |311|  ; [ORIG 16-BIT INS]
     418 00000074 6108              STR       A1, [A2, #16]         ; [DPU_V7M3_PIPE] |311|  ; [ORIG 16-BIT INS]
     419                            .dwpsn  file "../driverlib/pwm.c",line 313,column 1,is_stmt,isa 1
     420                    ;* --------------------------------------------------------------------------*
     421 00000076           ||$C$L4||:    
     422 00000076 B004              ADD       SP, SP, #16           ; [DPU_V7M3_PIPE]  ; [ORIG 16-BIT INS]
     423                            .dwcfi  cfa_offset, 0
     424                    $C$DW$25        .dwtag  DW_TAG_TI_branch
     425                            .dwattr $C$DW$25, DW_AT_low_pc(0x00)
     426                            .dwattr $C$DW$25, DW_AT_TI_return
     427                    
     428 00000078 4770              BX        LR                    ; [DPU_V7M3_PIPE]  ; [ORIG 16-BIT INS]
     429                            ; BRANCH OCCURS                  ; [] 
     430                            .dwattr $C$DW$18, DW_AT_TI_end_file("../driverlib/pwm.c")
     431                            .dwattr $C$DW$18, DW_AT_TI_end_line(0x139)
     432                            .dwattr $C$DW$18, DW_AT_TI_end_column(0x01)
     433                            .dwendentry
     434                            .dwendtag $C$DW$18
     435                    
     436 0000007a                   .sect   ".text"
     437                            .clink
     438                            .thumbfunc PWMGenPeriodGet
     439 0000007a                   .thumb
     440                            .global PWMGenPeriodGet
TI ARM Assembler Unix v18.1.1 Fri Jul  3 20:08:25 2020

Tools Copyright (c) 1996-2017 Texas Instruments Incorporated
pwm.asm                                                              PAGE    9

     441                    
     442                    $C$DW$26        .dwtag  DW_TAG_subprogram
     443                            .dwattr $C$DW$26, DW_AT_name("PWMGenPeriodGet")
     444                            .dwattr $C$DW$26, DW_AT_low_pc(PWMGenPeriodGet)
     445                            .dwattr $C$DW$26, DW_AT_high_pc(0x00)
     446                            .dwattr $C$DW$26, DW_AT_TI_symbol_name("PWMGenPeriodGet")
     447                            .dwattr $C$DW$26, DW_AT_external
     448                            .dwattr $C$DW$26, DW_AT_type(*$C$DW$T$27)
     449                            .dwattr $C$DW$26, DW_AT_TI_begin_file("../driverlib/pwm.c")
     450                            .dwattr $C$DW$26, DW_AT_TI_begin_line(0x150)
     451                            .dwattr $C$DW$26, DW_AT_TI_begin_column(0x01)
     452                            .dwattr $C$DW$26, DW_AT_decl_file("../driverlib/pwm.c")
     453                            .dwattr $C$DW$26, DW_AT_decl_line(0x150)
     454                            .dwattr $C$DW$26, DW_AT_decl_column(0x01)
     455                            .dwattr $C$DW$26, DW_AT_TI_max_frame_size(0x08)
     456                            .dwpsn  file "../driverlib/pwm.c",line 337,column 1,is_stmt,address PWMGenPeriodGet,isa 1
     457                    
     458                            .dwfde $C$DW$CIE, PWMGenPeriodGet
     459                    $C$DW$27        .dwtag  DW_TAG_formal_parameter
     460                            .dwattr $C$DW$27, DW_AT_name("ui32Base")
     461                            .dwattr $C$DW$27, DW_AT_TI_symbol_name("ui32Base")
     462                            .dwattr $C$DW$27, DW_AT_type(*$C$DW$T$27)
     463                            .dwattr $C$DW$27, DW_AT_location[DW_OP_reg0]
     464                    
     465                    $C$DW$28        .dwtag  DW_TAG_formal_parameter
     466                            .dwattr $C$DW$28, DW_AT_name("ui32Gen")
     467                            .dwattr $C$DW$28, DW_AT_TI_symbol_name("ui32Gen")
     468                            .dwattr $C$DW$28, DW_AT_type(*$C$DW$T$27)
     469                            .dwattr $C$DW$28, DW_AT_location[DW_OP_reg1]
     470                    
     471                    ;----------------------------------------------------------------------
     472                    ; 336 | PWMGenPeriodGet(uint32_t ui32Base, uint32_t ui32Gen)                   
     473                    ;----------------------------------------------------------------------
     474                    
     475                    ;*****************************************************************************
     476                    ;* FUNCTION NAME: PWMGenPeriodGet                                            *
     477                    ;*                                                                           *
     478                    ;*   Regs Modified     : A1,A2,SP,SR                                         *
     479                    ;*   Regs Used         : A1,A2,SP,LR,SR                                      *
     480                    ;*   Local Frame Size  : 0 Args + 8 Auto + 0 Save = 8 byte                   *
     481                    ;*****************************************************************************
     482 0000007a           PWMGenPeriodGet:
     483                    ;* --------------------------------------------------------------------------*
     484                            .dwcfi  cfa_offset, 0
     485 0000007a 0D08F1AD          SUB       SP, SP, #8            ; [DPU_V7M3_PIPE]  ; [KEEP 32-BIT INS]
     486                            .dwcfi  cfa_offset, 8
     487                    $C$DW$29        .dwtag  DW_TAG_variable
     488                            .dwattr $C$DW$29, DW_AT_name("ui32Base")
     489                            .dwattr $C$DW$29, DW_AT_TI_symbol_name("ui32Base")
     490                            .dwattr $C$DW$29, DW_AT_type(*$C$DW$T$27)
     491                            .dwattr $C$DW$29, DW_AT_location[DW_OP_breg13 0]
     492                    
     493                    $C$DW$30        .dwtag  DW_TAG_variable
     494                            .dwattr $C$DW$30, DW_AT_name("ui32Gen")
     495                            .dwattr $C$DW$30, DW_AT_TI_symbol_name("ui32Gen")
TI ARM Assembler Unix v18.1.1 Fri Jul  3 20:08:25 2020

Tools Copyright (c) 1996-2017 Texas Instruments Incorporated
pwm.asm                                                              PAGE   10

     496                            .dwattr $C$DW$30, DW_AT_type(*$C$DW$T$27)
     497                            .dwattr $C$DW$30, DW_AT_location[DW_OP_breg13 4]
     498                    
     499                    ;----------------------------------------------------------------------
     500                    ; 338 | //                                                                     
     501                    ; 339 | // Check the arguments.                                                
     502                    ; 340 | //                                                                     
     503                    ; 341 | ASSERT((ui32Base == PWM0_BASE) || (ui32Base == PWM1_BASE));            
     504                    ; 342 | ASSERT(_PWMGenValid(ui32Gen));                                         
     505                    ; 344 | //                                                                     
     506                    ; 345 | // Compute the generator's base address.                               
     507                    ; 346 | //                                                                     
     508                    ;----------------------------------------------------------------------
     509 0000007e 9101              STR       A2, [SP, #4]          ; [DPU_V7M3_PIPE] |337|  ; [ORIG 16-BIT INS]
     510 00000080 9000              STR       A1, [SP, #0]          ; [DPU_V7M3_PIPE] |337|  ; [ORIG 16-BIT INS]
     511                            .dwpsn  file "../driverlib/pwm.c",line 347,column 5,is_stmt,isa 1
     512                    ;----------------------------------------------------------------------
     513                    ; 347 | ui32Gen = PWM_GEN_BADDR(ui32Base, ui32Gen);                            
     514                    ; 349 | //                                                                     
     515                    ; 350 | // Figure out the counter mode.                                        
     516                    ; 351 | //                                                                     
     517                    ;----------------------------------------------------------------------
     518 00000082 9901              LDR       A2, [SP, #4]          ; [DPU_V7M3_PIPE] |347|  ; [ORIG 16-BIT INS]
     519 00000084 9800              LDR       A1, [SP, #0]          ; [DPU_V7M3_PIPE] |347|  ; [ORIG 16-BIT INS]
     520 00000086 1840              ADDS      A1, A1, A2            ; [DPU_V7M3_PIPE] |347|  ; [ORIG 16-BIT INS]
     521 00000088 9001              STR       A1, [SP, #4]          ; [DPU_V7M3_PIPE] |347|  ; [ORIG 16-BIT INS]
     522                            .dwpsn  file "../driverlib/pwm.c",line 352,column 5,is_stmt,isa 1
     523                    ;----------------------------------------------------------------------
     524                    ; 352 | if(HWREG(ui32Gen + PWM_O_X_CTL) & PWM_X_CTL_MODE)                      
     525                    ; 354 |     //                                                                 
     526                    ; 355 |     // The period is twice the reload register value.                  
     527                    ; 356 |     //                                                                 
     528                    ;----------------------------------------------------------------------
     529 0000008a 9801              LDR       A1, [SP, #4]          ; [DPU_V7M3_PIPE] |352|  ; [ORIG 16-BIT INS]
     530 0000008c 6800              LDR       A1, [A1, #0]          ; [DPU_V7M3_PIPE] |352|  ; [ORIG 16-BIT INS]
     531 0000008e 0880              LSRS      A1, A1, #2            ; [DPU_V7M3_PIPE] |352|  ; [ORIG 16-BIT INS]
     532 00000090 D303              BCC       ||$C$L5||             ; [DPU_V7M3_PIPE] |352|  ; [ORIG 16-BIT INS]
     533                            ; BRANCHCC OCCURS {||$C$L5||}    ; [] |352| 
     534                    ;* --------------------------------------------------------------------------*
     535                            .dwpsn  file "../driverlib/pwm.c",line 357,column 9,is_stmt,isa 1
     536                    ;----------------------------------------------------------------------
     537                    ; 357 | return(HWREG(ui32Gen + PWM_O_X_LOAD) * 2);                             
     538                    ; 359 | else                                                                   
     539                    ; 361 | //                                                                     
     540                    ; 362 | // The period is the reload register value plus one.                   
     541                    ; 363 | //                                                                     
     542                    ;----------------------------------------------------------------------
     543 00000092 9801              LDR       A1, [SP, #4]          ; [DPU_V7M3_PIPE] |357|  ; [ORIG 16-BIT INS]
     544 00000094 6900              LDR       A1, [A1, #16]         ; [DPU_V7M3_PIPE] |357|  ; [ORIG 16-BIT INS]
     545 00000096 0040              LSLS      A1, A1, #1            ; [DPU_V7M3_PIPE] |357|  ; [ORIG 16-BIT INS]
     546 00000098 E002              B         ||$C$L6||             ; [DPU_V7M3_PIPE] |357|  ; [ORIG 16-BIT INS]
     547                            ; BRANCH OCCURS {||$C$L6||}      ; [] |357| 
     548                    ;* --------------------------------------------------------------------------*
     549                    ;* --------------------------------------------------------------------------*
     550 0000009a           ||$C$L5||:    
TI ARM Assembler Unix v18.1.1 Fri Jul  3 20:08:25 2020

Tools Copyright (c) 1996-2017 Texas Instruments Incorporated
pwm.asm                                                              PAGE   11

     551                            .dwpsn  file "../driverlib/pwm.c",line 364,column 9,is_stmt,isa 1
     552                    ;----------------------------------------------------------------------
     553                    ; 364 | return(HWREG(ui32Gen + PWM_O_X_LOAD) + 1);                             
     554                    ;----------------------------------------------------------------------
     555 0000009a 9801              LDR       A1, [SP, #4]          ; [DPU_V7M3_PIPE] |364|  ; [ORIG 16-BIT INS]
     556 0000009c 6900              LDR       A1, [A1, #16]         ; [DPU_V7M3_PIPE] |364|  ; [ORIG 16-BIT INS]
     557 0000009e 1C40              ADDS      A1, A1, #1            ; [DPU_V7M3_PIPE] |364|  ; [ORIG 16-BIT INS]
     558                    ;* --------------------------------------------------------------------------*
     559 000000a0           ||$C$L6||:    
     560                            .dwpsn  file "../driverlib/pwm.c",line 366,column 1,is_stmt,isa 1
     561 000000a0 B002              ADD       SP, SP, #8            ; [DPU_V7M3_PIPE]  ; [ORIG 16-BIT INS]
     562                            .dwcfi  cfa_offset, 0
     563                    $C$DW$31        .dwtag  DW_TAG_TI_branch
     564                            .dwattr $C$DW$31, DW_AT_low_pc(0x00)
     565                            .dwattr $C$DW$31, DW_AT_TI_return
     566                    
     567 000000a2 4770              BX        LR                    ; [DPU_V7M3_PIPE]  ; [ORIG 16-BIT INS]
     568                            ; BRANCH OCCURS                  ; [] 
     569                            .dwattr $C$DW$26, DW_AT_TI_end_file("../driverlib/pwm.c")
     570                            .dwattr $C$DW$26, DW_AT_TI_end_line(0x16e)
     571                            .dwattr $C$DW$26, DW_AT_TI_end_column(0x01)
     572                            .dwendentry
     573                            .dwendtag $C$DW$26
     574                    
     575 000000a4                   .sect   ".text"
     576                            .clink
     577                            .thumbfunc PWMGenEnable
     578 000000a4                   .thumb
     579                            .global PWMGenEnable
     580                    
     581                    $C$DW$32        .dwtag  DW_TAG_subprogram
     582                            .dwattr $C$DW$32, DW_AT_name("PWMGenEnable")
     583                            .dwattr $C$DW$32, DW_AT_low_pc(PWMGenEnable)
     584                            .dwattr $C$DW$32, DW_AT_high_pc(0x00)
     585                            .dwattr $C$DW$32, DW_AT_TI_symbol_name("PWMGenEnable")
     586                            .dwattr $C$DW$32, DW_AT_external
     587                            .dwattr $C$DW$32, DW_AT_TI_begin_file("../driverlib/pwm.c")
     588                            .dwattr $C$DW$32, DW_AT_TI_begin_line(0x17f)
     589                            .dwattr $C$DW$32, DW_AT_TI_begin_column(0x01)
     590                            .dwattr $C$DW$32, DW_AT_decl_file("../driverlib/pwm.c")
     591                            .dwattr $C$DW$32, DW_AT_decl_line(0x17f)
     592                            .dwattr $C$DW$32, DW_AT_decl_column(0x01)
     593                            .dwattr $C$DW$32, DW_AT_TI_max_frame_size(0x08)
     594                            .dwpsn  file "../driverlib/pwm.c",line 384,column 1,is_stmt,address PWMGenEnable,isa 1
     595                    
     596                            .dwfde $C$DW$CIE, PWMGenEnable
     597                    $C$DW$33        .dwtag  DW_TAG_formal_parameter
     598                            .dwattr $C$DW$33, DW_AT_name("ui32Base")
     599                            .dwattr $C$DW$33, DW_AT_TI_symbol_name("ui32Base")
     600                            .dwattr $C$DW$33, DW_AT_type(*$C$DW$T$27)
     601                            .dwattr $C$DW$33, DW_AT_location[DW_OP_reg0]
     602                    
     603                    $C$DW$34        .dwtag  DW_TAG_formal_parameter
     604                            .dwattr $C$DW$34, DW_AT_name("ui32Gen")
     605                            .dwattr $C$DW$34, DW_AT_TI_symbol_name("ui32Gen")
TI ARM Assembler Unix v18.1.1 Fri Jul  3 20:08:25 2020

Tools Copyright (c) 1996-2017 Texas Instruments Incorporated
pwm.asm                                                              PAGE   12

     606                            .dwattr $C$DW$34, DW_AT_type(*$C$DW$T$27)
     607                            .dwattr $C$DW$34, DW_AT_location[DW_OP_reg1]
     608                    
     609                    ;----------------------------------------------------------------------
     610                    ; 383 | PWMGenEnable(uint32_t ui32Base, uint32_t ui32Gen)                      
     611                    ;----------------------------------------------------------------------
     612                    
     613                    ;*****************************************************************************
     614                    ;* FUNCTION NAME: PWMGenEnable                                               *
     615                    ;*                                                                           *
     616                    ;*   Regs Modified     : A1,A2,SP,SR                                         *
     617                    ;*   Regs Used         : A1,A2,SP,LR,SR                                      *
     618                    ;*   Local Frame Size  : 0 Args + 8 Auto + 0 Save = 8 byte                   *
     619                    ;*****************************************************************************
     620 000000a4           PWMGenEnable:
     621                    ;* --------------------------------------------------------------------------*
     622                            .dwcfi  cfa_offset, 0
     623 000000a4 0D08F1AD          SUB       SP, SP, #8            ; [DPU_V7M3_PIPE]  ; [KEEP 32-BIT INS]
     624                            .dwcfi  cfa_offset, 8
     625                    $C$DW$35        .dwtag  DW_TAG_variable
     626                            .dwattr $C$DW$35, DW_AT_name("ui32Base")
     627                            .dwattr $C$DW$35, DW_AT_TI_symbol_name("ui32Base")
     628                            .dwattr $C$DW$35, DW_AT_type(*$C$DW$T$27)
     629                            .dwattr $C$DW$35, DW_AT_location[DW_OP_breg13 0]
     630                    
     631                    $C$DW$36        .dwtag  DW_TAG_variable
     632                            .dwattr $C$DW$36, DW_AT_name("ui32Gen")
     633                            .dwattr $C$DW$36, DW_AT_TI_symbol_name("ui32Gen")
     634                            .dwattr $C$DW$36, DW_AT_type(*$C$DW$T$27)
     635                            .dwattr $C$DW$36, DW_AT_location[DW_OP_breg13 4]
     636                    
     637                    ;----------------------------------------------------------------------
     638                    ; 385 | //                                                                     
     639                    ; 386 | // Check the arguments.                                                
     640                    ; 387 | //                                                                     
     641                    ; 388 | ASSERT((ui32Base == PWM0_BASE) || (ui32Base == PWM1_BASE));            
     642                    ; 389 | ASSERT(_PWMGenValid(ui32Gen));                                         
     643                    ; 391 | //                                                                     
     644                    ; 392 | // Enable the PWM generator.                                           
     645                    ; 393 | //                                                                     
     646                    ;----------------------------------------------------------------------
     647 000000a8 9101              STR       A2, [SP, #4]          ; [DPU_V7M3_PIPE] |384|  ; [ORIG 16-BIT INS]
     648 000000aa 9000              STR       A1, [SP, #0]          ; [DPU_V7M3_PIPE] |384|  ; [ORIG 16-BIT INS]
     649                            .dwpsn  file "../driverlib/pwm.c",line 394,column 5,is_stmt,isa 1
     650                    ;----------------------------------------------------------------------
     651                    ; 394 | HWREG(PWM_GEN_BADDR(ui32Base, ui32Gen) + PWM_O_X_CTL) |= PWM_X_CTL_ENAB
     652                    ;     | LE;                                                                    
     653                    ;----------------------------------------------------------------------
     654 000000ac 9901              LDR       A2, [SP, #4]          ; [DPU_V7M3_PIPE] |394|  ; [ORIG 16-BIT INS]
     655 000000ae 9800              LDR       A1, [SP, #0]          ; [DPU_V7M3_PIPE] |394|  ; [ORIG 16-BIT INS]
     656 000000b0 1840              ADDS      A1, A1, A2            ; [DPU_V7M3_PIPE] |394|  ; [ORIG 16-BIT INS]
     657 000000b2 6801              LDR       A2, [A1, #0]          ; [DPU_V7M3_PIPE] |394|  ; [ORIG 16-BIT INS]
     658 000000b4 0101F041          ORR       A2, A2, #1            ; [DPU_V7M3_PIPE] |394|  ; [KEEP 32-BIT INS]
     659 000000b8 6001              STR       A2, [A1, #0]          ; [DPU_V7M3_PIPE] |394|  ; [ORIG 16-BIT INS]
     660                            .dwpsn  file "../driverlib/pwm.c",line 395,column 1,is_stmt,isa 1
TI ARM Assembler Unix v18.1.1 Fri Jul  3 20:08:25 2020

Tools Copyright (c) 1996-2017 Texas Instruments Incorporated
pwm.asm                                                              PAGE   13

     661 000000ba B002              ADD       SP, SP, #8            ; [DPU_V7M3_PIPE]  ; [ORIG 16-BIT INS]
     662                            .dwcfi  cfa_offset, 0
     663                    $C$DW$37        .dwtag  DW_TAG_TI_branch
     664                            .dwattr $C$DW$37, DW_AT_low_pc(0x00)
     665                            .dwattr $C$DW$37, DW_AT_TI_return
     666                    
     667 000000bc 4770              BX        LR                    ; [DPU_V7M3_PIPE]  ; [ORIG 16-BIT INS]
     668                            ; BRANCH OCCURS                  ; [] 
     669                            .dwattr $C$DW$32, DW_AT_TI_end_file("../driverlib/pwm.c")
     670                            .dwattr $C$DW$32, DW_AT_TI_end_line(0x18b)
     671                            .dwattr $C$DW$32, DW_AT_TI_end_column(0x01)
     672                            .dwendentry
     673                            .dwendtag $C$DW$32
     674                    
     675 000000be                   .sect   ".text"
     676                            .clink
     677                            .thumbfunc PWMGenDisable
     678 000000be                   .thumb
     679                            .global PWMGenDisable
     680                    
     681                    $C$DW$38        .dwtag  DW_TAG_subprogram
     682                            .dwattr $C$DW$38, DW_AT_name("PWMGenDisable")
     683                            .dwattr $C$DW$38, DW_AT_low_pc(PWMGenDisable)
     684                            .dwattr $C$DW$38, DW_AT_high_pc(0x00)
     685                            .dwattr $C$DW$38, DW_AT_TI_symbol_name("PWMGenDisable")
     686                            .dwattr $C$DW$38, DW_AT_external
     687                            .dwattr $C$DW$38, DW_AT_TI_begin_file("../driverlib/pwm.c")
     688                            .dwattr $C$DW$38, DW_AT_TI_begin_line(0x19c)
     689                            .dwattr $C$DW$38, DW_AT_TI_begin_column(0x01)
     690                            .dwattr $C$DW$38, DW_AT_decl_file("../driverlib/pwm.c")
     691                            .dwattr $C$DW$38, DW_AT_decl_line(0x19c)
     692                            .dwattr $C$DW$38, DW_AT_decl_column(0x01)
     693                            .dwattr $C$DW$38, DW_AT_TI_max_frame_size(0x08)
     694                            .dwpsn  file "../driverlib/pwm.c",line 413,column 1,is_stmt,address PWMGenDisable,isa 1
     695                    
     696                            .dwfde $C$DW$CIE, PWMGenDisable
     697                    $C$DW$39        .dwtag  DW_TAG_formal_parameter
     698                            .dwattr $C$DW$39, DW_AT_name("ui32Base")
     699                            .dwattr $C$DW$39, DW_AT_TI_symbol_name("ui32Base")
     700                            .dwattr $C$DW$39, DW_AT_type(*$C$DW$T$27)
     701                            .dwattr $C$DW$39, DW_AT_location[DW_OP_reg0]
     702                    
     703                    $C$DW$40        .dwtag  DW_TAG_formal_parameter
     704                            .dwattr $C$DW$40, DW_AT_name("ui32Gen")
     705                            .dwattr $C$DW$40, DW_AT_TI_symbol_name("ui32Gen")
     706                            .dwattr $C$DW$40, DW_AT_type(*$C$DW$T$27)
     707                            .dwattr $C$DW$40, DW_AT_location[DW_OP_reg1]
     708                    
     709                    ;----------------------------------------------------------------------
     710                    ; 412 | PWMGenDisable(uint32_t ui32Base, uint32_t ui32Gen)                     
     711                    ;----------------------------------------------------------------------
     712                    
     713                    ;*****************************************************************************
     714                    ;* FUNCTION NAME: PWMGenDisable                                              *
     715                    ;*                                                                           *
TI ARM Assembler Unix v18.1.1 Fri Jul  3 20:08:25 2020

Tools Copyright (c) 1996-2017 Texas Instruments Incorporated
pwm.asm                                                              PAGE   14

     716                    ;*   Regs Modified     : A1,A2,SP,SR                                         *
     717                    ;*   Regs Used         : A1,A2,SP,LR,SR                                      *
     718                    ;*   Local Frame Size  : 0 Args + 8 Auto + 0 Save = 8 byte                   *
     719                    ;*****************************************************************************
     720 000000be           PWMGenDisable:
     721                    ;* --------------------------------------------------------------------------*
     722                            .dwcfi  cfa_offset, 0
     723 000000be 0D08F1AD          SUB       SP, SP, #8            ; [DPU_V7M3_PIPE]  ; [KEEP 32-BIT INS]
     724                            .dwcfi  cfa_offset, 8
     725                    $C$DW$41        .dwtag  DW_TAG_variable
     726                            .dwattr $C$DW$41, DW_AT_name("ui32Base")
     727                            .dwattr $C$DW$41, DW_AT_TI_symbol_name("ui32Base")
     728                            .dwattr $C$DW$41, DW_AT_type(*$C$DW$T$27)
     729                            .dwattr $C$DW$41, DW_AT_location[DW_OP_breg13 0]
     730                    
     731                    $C$DW$42        .dwtag  DW_TAG_variable
     732                            .dwattr $C$DW$42, DW_AT_name("ui32Gen")
     733                            .dwattr $C$DW$42, DW_AT_TI_symbol_name("ui32Gen")
     734                            .dwattr $C$DW$42, DW_AT_type(*$C$DW$T$27)
     735                            .dwattr $C$DW$42, DW_AT_location[DW_OP_breg13 4]
     736                    
     737                    ;----------------------------------------------------------------------
     738                    ; 414 | //                                                                     
     739                    ; 415 | // Check the arguments.                                                
     740                    ; 416 | //                                                                     
     741                    ; 417 | ASSERT((ui32Base == PWM0_BASE) || (ui32Base == PWM1_BASE));            
     742                    ; 418 | ASSERT(_PWMGenValid(ui32Gen));                                         
     743                    ; 420 | //                                                                     
     744                    ; 421 | // Disable the PWM generator.                                          
     745                    ; 422 | //                                                                     
     746                    ;----------------------------------------------------------------------
     747 000000c2 9101              STR       A2, [SP, #4]          ; [DPU_V7M3_PIPE] |413|  ; [ORIG 16-BIT INS]
     748 000000c4 9000              STR       A1, [SP, #0]          ; [DPU_V7M3_PIPE] |413|  ; [ORIG 16-BIT INS]
     749                            .dwpsn  file "../driverlib/pwm.c",line 423,column 5,is_stmt,isa 1
     750                    ;----------------------------------------------------------------------
     751                    ; 423 | HWREG(PWM_GEN_BADDR(ui32Base, ui32Gen) + PWM_O_X_CTL) &=               
     752                    ; 424 |     ~(PWM_X_CTL_ENABLE);                                               
     753                    ;----------------------------------------------------------------------
     754 000000c6 9901              LDR       A2, [SP, #4]          ; [DPU_V7M3_PIPE] |423|  ; [ORIG 16-BIT INS]
     755 000000c8 9800              LDR       A1, [SP, #0]          ; [DPU_V7M3_PIPE] |423|  ; [ORIG 16-BIT INS]
     756 000000ca 1840              ADDS      A1, A1, A2            ; [DPU_V7M3_PIPE] |423|  ; [ORIG 16-BIT INS]
     757 000000cc 6801              LDR       A2, [A1, #0]          ; [DPU_V7M3_PIPE] |423|  ; [ORIG 16-BIT INS]
     758 000000ce 0101F021          BIC       A2, A2, #1            ; [DPU_V7M3_PIPE] |423|  ; [KEEP 32-BIT INS]
     759 000000d2 6001              STR       A2, [A1, #0]          ; [DPU_V7M3_PIPE] |423|  ; [ORIG 16-BIT INS]
     760                            .dwpsn  file "../driverlib/pwm.c",line 425,column 1,is_stmt,isa 1
     761 000000d4 B002              ADD       SP, SP, #8            ; [DPU_V7M3_PIPE]  ; [ORIG 16-BIT INS]
     762                            .dwcfi  cfa_offset, 0
     763                    $C$DW$43        .dwtag  DW_TAG_TI_branch
     764                            .dwattr $C$DW$43, DW_AT_low_pc(0x00)
     765                            .dwattr $C$DW$43, DW_AT_TI_return
     766                    
     767 000000d6 4770              BX        LR                    ; [DPU_V7M3_PIPE]  ; [ORIG 16-BIT INS]
     768                            ; BRANCH OCCURS                  ; [] 
     769                            .dwattr $C$DW$38, DW_AT_TI_end_file("../driverlib/pwm.c")
     770                            .dwattr $C$DW$38, DW_AT_TI_end_line(0x1a9)
TI ARM Assembler Unix v18.1.1 Fri Jul  3 20:08:25 2020

Tools Copyright (c) 1996-2017 Texas Instruments Incorporated
pwm.asm                                                              PAGE   15

     771                            .dwattr $C$DW$38, DW_AT_TI_end_column(0x01)
     772                            .dwendentry
     773                            .dwendtag $C$DW$38
     774                    
     775 000000d8                   .sect   ".text"
     776                            .clink
     777                            .thumbfunc PWMPulseWidthSet
     778 000000d8                   .thumb
     779                            .global PWMPulseWidthSet
     780                    
     781                    $C$DW$44        .dwtag  DW_TAG_subprogram
     782                            .dwattr $C$DW$44, DW_AT_name("PWMPulseWidthSet")
     783                            .dwattr $C$DW$44, DW_AT_low_pc(PWMPulseWidthSet)
     784                            .dwattr $C$DW$44, DW_AT_high_pc(0x00)
     785                            .dwattr $C$DW$44, DW_AT_TI_symbol_name("PWMPulseWidthSet")
     786                            .dwattr $C$DW$44, DW_AT_external
     787                            .dwattr $C$DW$44, DW_AT_TI_begin_file("../driverlib/pwm.c")
     788                            .dwattr $C$DW$44, DW_AT_TI_begin_line(0x1bf)
     789                            .dwattr $C$DW$44, DW_AT_TI_begin_column(0x01)
     790                            .dwattr $C$DW$44, DW_AT_decl_file("../driverlib/pwm.c")
     791                            .dwattr $C$DW$44, DW_AT_decl_line(0x1bf)
     792                            .dwattr $C$DW$44, DW_AT_decl_column(0x01)
     793                            .dwattr $C$DW$44, DW_AT_TI_max_frame_size(0x18)
     794                            .dwpsn  file "../driverlib/pwm.c",line 449,column 1,is_stmt,address PWMPulseWidthSet,isa 1
     795                    
     796                            .dwfde $C$DW$CIE, PWMPulseWidthSet
     797                    $C$DW$45        .dwtag  DW_TAG_formal_parameter
     798                            .dwattr $C$DW$45, DW_AT_name("ui32Base")
     799                            .dwattr $C$DW$45, DW_AT_TI_symbol_name("ui32Base")
     800                            .dwattr $C$DW$45, DW_AT_type(*$C$DW$T$27)
     801                            .dwattr $C$DW$45, DW_AT_location[DW_OP_reg0]
     802                    
     803                    $C$DW$46        .dwtag  DW_TAG_formal_parameter
     804                            .dwattr $C$DW$46, DW_AT_name("ui32PWMOut")
     805                            .dwattr $C$DW$46, DW_AT_TI_symbol_name("ui32PWMOut")
     806                            .dwattr $C$DW$46, DW_AT_type(*$C$DW$T$27)
     807                            .dwattr $C$DW$46, DW_AT_location[DW_OP_reg1]
     808                    
     809                    $C$DW$47        .dwtag  DW_TAG_formal_parameter
     810                            .dwattr $C$DW$47, DW_AT_name("ui32Width")
     811                            .dwattr $C$DW$47, DW_AT_TI_symbol_name("ui32Width")
     812                            .dwattr $C$DW$47, DW_AT_type(*$C$DW$T$27)
     813                            .dwattr $C$DW$47, DW_AT_location[DW_OP_reg2]
     814                    
     815                    ;----------------------------------------------------------------------
     816                    ; 447 | PWMPulseWidthSet(uint32_t ui32Base, uint32_t ui32PWMOut,               
     817                    ; 448 | uint32_t ui32Width)                                                    
     818                    ;----------------------------------------------------------------------
     819                    
     820                    ;*****************************************************************************
     821                    ;* FUNCTION NAME: PWMPulseWidthSet                                           *
     822                    ;*                                                                           *
     823                    ;*   Regs Modified     : A1,A2,SP,SR                                         *
     824                    ;*   Regs Used         : A1,A2,A3,SP,LR,SR                                   *
     825                    ;*   Local Frame Size  : 0 Args + 20 Auto + 0 Save = 20 byte                 *
TI ARM Assembler Unix v18.1.1 Fri Jul  3 20:08:25 2020

Tools Copyright (c) 1996-2017 Texas Instruments Incorporated
pwm.asm                                                              PAGE   16

     826                    ;*****************************************************************************
     827 000000d8           PWMPulseWidthSet:
     828                    ;* --------------------------------------------------------------------------*
     829                            .dwcfi  cfa_offset, 0
     830 000000d8 0D18F1AD          SUB       SP, SP, #24           ; [DPU_V7M3_PIPE]  ; [KEEP 32-BIT INS]
     831                            .dwcfi  cfa_offset, 24
     832                    $C$DW$48        .dwtag  DW_TAG_variable
     833                            .dwattr $C$DW$48, DW_AT_name("ui32Base")
     834                            .dwattr $C$DW$48, DW_AT_TI_symbol_name("ui32Base")
     835                            .dwattr $C$DW$48, DW_AT_type(*$C$DW$T$27)
     836                            .dwattr $C$DW$48, DW_AT_location[DW_OP_breg13 0]
     837                    
     838                    $C$DW$49        .dwtag  DW_TAG_variable
     839                            .dwattr $C$DW$49, DW_AT_name("ui32PWMOut")
     840                            .dwattr $C$DW$49, DW_AT_TI_symbol_name("ui32PWMOut")
     841                            .dwattr $C$DW$49, DW_AT_type(*$C$DW$T$27)
     842                            .dwattr $C$DW$49, DW_AT_location[DW_OP_breg13 4]
     843                    
     844                    $C$DW$50        .dwtag  DW_TAG_variable
     845                            .dwattr $C$DW$50, DW_AT_name("ui32Width")
     846                            .dwattr $C$DW$50, DW_AT_TI_symbol_name("ui32Width")
     847                            .dwattr $C$DW$50, DW_AT_type(*$C$DW$T$27)
     848                            .dwattr $C$DW$50, DW_AT_location[DW_OP_breg13 8]
     849                    
     850                    $C$DW$51        .dwtag  DW_TAG_variable
     851                            .dwattr $C$DW$51, DW_AT_name("ui32GenBase")
     852                            .dwattr $C$DW$51, DW_AT_TI_symbol_name("ui32GenBase")
     853                            .dwattr $C$DW$51, DW_AT_type(*$C$DW$T$27)
     854                            .dwattr $C$DW$51, DW_AT_location[DW_OP_breg13 12]
     855                    
     856                    $C$DW$52        .dwtag  DW_TAG_variable
     857                            .dwattr $C$DW$52, DW_AT_name("ui32Reg")
     858                            .dwattr $C$DW$52, DW_AT_TI_symbol_name("ui32Reg")
     859                            .dwattr $C$DW$52, DW_AT_type(*$C$DW$T$27)
     860                            .dwattr $C$DW$52, DW_AT_location[DW_OP_breg13 16]
     861                    
     862                    ;----------------------------------------------------------------------
     863                    ; 450 | uint32_t ui32GenBase, ui32Reg;                                         
     864                    ; 452 | //                                                                     
     865                    ; 453 | // Check the arguments.                                                
     866                    ; 454 | //                                                                     
     867                    ; 455 | ASSERT((ui32Base == PWM0_BASE) || (ui32Base == PWM1_BASE));            
     868                    ; 456 | ASSERT(_PWMOutValid(ui32PWMOut));                                      
     869                    ; 458 | //                                                                     
     870                    ; 459 | // Compute the generator's base address.                               
     871                    ; 460 | //                                                                     
     872                    ;----------------------------------------------------------------------
     873 000000dc 9202              STR       A3, [SP, #8]          ; [DPU_V7M3_PIPE] |449|  ; [ORIG 16-BIT INS]
     874 000000de 9101              STR       A2, [SP, #4]          ; [DPU_V7M3_PIPE] |449|  ; [ORIG 16-BIT INS]
     875 000000e0 9000              STR       A1, [SP, #0]          ; [DPU_V7M3_PIPE] |449|  ; [ORIG 16-BIT INS]
     876                            .dwpsn  file "../driverlib/pwm.c",line 461,column 5,is_stmt,isa 1
     877                    ;----------------------------------------------------------------------
     878                    ; 461 | ui32GenBase = PWM_OUT_BADDR(ui32Base, ui32PWMOut);                     
     879                    ; 463 | //                                                                     
     880                    ; 464 | // If the counter is in up/down count mode, divide the width by two.   
TI ARM Assembler Unix v18.1.1 Fri Jul  3 20:08:25 2020

Tools Copyright (c) 1996-2017 Texas Instruments Incorporated
pwm.asm                                                              PAGE   17

     881                    ; 465 | //                                                                     
     882                    ;----------------------------------------------------------------------
     883 000000e2 9801              LDR       A1, [SP, #4]          ; [DPU_V7M3_PIPE] |461|  ; [ORIG 16-BIT INS]
     884 000000e4 9900              LDR       A2, [SP, #0]          ; [DPU_V7M3_PIPE] |461|  ; [ORIG 16-BIT INS]
     885 000000e6 003FF020          BIC       A1, A1, #63           ; [DPU_V7M3_PIPE] |461|  ; [KEEP 32-BIT INS]
     886 000000ea 1809              ADDS      A2, A2, A1            ; [DPU_V7M3_PIPE] |461|  ; [ORIG 16-BIT INS]
     887 000000ec 9103              STR       A2, [SP, #12]         ; [DPU_V7M3_PIPE] |461|  ; [ORIG 16-BIT INS]
     888                            .dwpsn  file "../driverlib/pwm.c",line 466,column 5,is_stmt,isa 1
     889                    ;----------------------------------------------------------------------
     890                    ; 466 | if(HWREG(ui32GenBase + PWM_O_X_CTL) & PWM_X_CTL_MODE)                  
     891                    ;----------------------------------------------------------------------
     892 000000ee 9803              LDR       A1, [SP, #12]         ; [DPU_V7M3_PIPE] |466|  ; [ORIG 16-BIT INS]
     893 000000f0 6800              LDR       A1, [A1, #0]          ; [DPU_V7M3_PIPE] |466|  ; [ORIG 16-BIT INS]
     894 000000f2 0880              LSRS      A1, A1, #2            ; [DPU_V7M3_PIPE] |466|  ; [ORIG 16-BIT INS]
     895 000000f4 D302              BCC       ||$C$L7||             ; [DPU_V7M3_PIPE] |466|  ; [ORIG 16-BIT INS]
     896                            ; BRANCHCC OCCURS {||$C$L7||}    ; [] |466| 
     897                    ;* --------------------------------------------------------------------------*
     898                            .dwpsn  file "../driverlib/pwm.c",line 468,column 9,is_stmt,isa 1
     899                    ;----------------------------------------------------------------------
     900                    ; 468 | ui32Width /= 2;                                                        
     901                    ; 471 | //                                                                     
     902                    ; 472 | // Get the period.                                                     
     903                    ; 473 | //                                                                     
     904                    ;----------------------------------------------------------------------
     905 000000f6 9802              LDR       A1, [SP, #8]          ; [DPU_V7M3_PIPE] |468|  ; [ORIG 16-BIT INS]
     906 000000f8 0840              LSRS      A1, A1, #1            ; [DPU_V7M3_PIPE] |468|  ; [ORIG 16-BIT INS]
     907 000000fa 9002              STR       A1, [SP, #8]          ; [DPU_V7M3_PIPE] |468|  ; [ORIG 16-BIT INS]
     908                    ;* --------------------------------------------------------------------------*
     909 000000fc           ||$C$L7||:    
     910                            .dwpsn  file "../driverlib/pwm.c",line 474,column 5,is_stmt,isa 1
     911                    ;----------------------------------------------------------------------
     912                    ; 474 | ui32Reg = HWREG(ui32GenBase + PWM_O_X_LOAD);                           
     913                    ; 476 | //                                                                     
     914                    ; 477 | // Make sure the width is not too large.                               
     915                    ; 478 | //                                                                     
     916                    ; 479 | ASSERT(ui32Width < ui32Reg);                                           
     917                    ; 481 | //                                                                     
     918                    ; 482 | // Compute the compare value.                                          
     919                    ; 483 | //                                                                     
     920                    ;----------------------------------------------------------------------
     921 000000fc 9803              LDR       A1, [SP, #12]         ; [DPU_V7M3_PIPE] |474|  ; [ORIG 16-BIT INS]
     922 000000fe 6900              LDR       A1, [A1, #16]         ; [DPU_V7M3_PIPE] |474|  ; [ORIG 16-BIT INS]
     923 00000100 9004              STR       A1, [SP, #16]         ; [DPU_V7M3_PIPE] |474|  ; [ORIG 16-BIT INS]
     924                            .dwpsn  file "../driverlib/pwm.c",line 484,column 5,is_stmt,isa 1
     925                    ;----------------------------------------------------------------------
     926                    ; 484 | ui32Reg = ui32Reg - ui32Width;                                         
     927                    ; 486 | //                                                                     
     928                    ; 487 | // Write to the appropriate registers.                                 
     929                    ; 488 | //                                                                     
     930                    ;----------------------------------------------------------------------
     931 00000102 9902              LDR       A2, [SP, #8]          ; [DPU_V7M3_PIPE] |484|  ; [ORIG 16-BIT INS]
     932 00000104 9804              LDR       A1, [SP, #16]         ; [DPU_V7M3_PIPE] |484|  ; [ORIG 16-BIT INS]
     933 00000106 1A40              SUBS      A1, A1, A2            ; [DPU_V7M3_PIPE] |484|  ; [ORIG 16-BIT INS]
     934 00000108 9004              STR       A1, [SP, #16]         ; [DPU_V7M3_PIPE] |484|  ; [ORIG 16-BIT INS]
     935                            .dwpsn  file "../driverlib/pwm.c",line 489,column 5,is_stmt,isa 1
TI ARM Assembler Unix v18.1.1 Fri Jul  3 20:08:25 2020

Tools Copyright (c) 1996-2017 Texas Instruments Incorporated
pwm.asm                                                              PAGE   18

     936                    ;----------------------------------------------------------------------
     937                    ; 489 | if(PWM_IS_OUTPUT_ODD(ui32PWMOut))                                      
     938                    ;----------------------------------------------------------------------
     939 0000010a 9801              LDR       A1, [SP, #4]          ; [DPU_V7M3_PIPE] |489|  ; [ORIG 16-BIT INS]
     940 0000010c 0840              LSRS      A1, A1, #1            ; [DPU_V7M3_PIPE] |489|  ; [ORIG 16-BIT INS]
     941 0000010e D303              BCC       ||$C$L8||             ; [DPU_V7M3_PIPE] |489|  ; [ORIG 16-BIT INS]
     942                            ; BRANCHCC OCCURS {||$C$L8||}    ; [] |489| 
     943                    ;* --------------------------------------------------------------------------*
     944                            .dwpsn  file "../driverlib/pwm.c",line 491,column 9,is_stmt,isa 1
     945                    ;----------------------------------------------------------------------
     946                    ; 491 | HWREG(ui32GenBase + PWM_O_X_CMPB) = ui32Reg;                           
     947                    ;----------------------------------------------------------------------
     948 00000110 9804              LDR       A1, [SP, #16]         ; [DPU_V7M3_PIPE] |491|  ; [ORIG 16-BIT INS]
     949 00000112 9903              LDR       A2, [SP, #12]         ; [DPU_V7M3_PIPE] |491|  ; [ORIG 16-BIT INS]
     950 00000114 61C8              STR       A1, [A2, #28]         ; [DPU_V7M3_PIPE] |491|  ; [ORIG 16-BIT INS]
     951                            .dwpsn  file "../driverlib/pwm.c",line 492,column 5,is_stmt,isa 1
     952                    ;----------------------------------------------------------------------
     953                    ; 493 | else                                                                   
     954                    ;----------------------------------------------------------------------
     955 00000116 E002              B         ||$C$L9||             ; [DPU_V7M3_PIPE] |492|  ; [ORIG 16-BIT INS]
     956                            ; BRANCH OCCURS {||$C$L9||}      ; [] |492| 
     957                    ;* --------------------------------------------------------------------------*
     958 00000118           ||$C$L8||:    
     959                            .dwpsn  file "../driverlib/pwm.c",line 495,column 9,is_stmt,isa 1
     960                    ;----------------------------------------------------------------------
     961                    ; 495 | HWREG(ui32GenBase + PWM_O_X_CMPA) = ui32Reg;                           
     962                    ;----------------------------------------------------------------------
     963 00000118 9804              LDR       A1, [SP, #16]         ; [DPU_V7M3_PIPE] |495|  ; [ORIG 16-BIT INS]
     964 0000011a 9903              LDR       A2, [SP, #12]         ; [DPU_V7M3_PIPE] |495|  ; [ORIG 16-BIT INS]
     965 0000011c 6188              STR       A1, [A2, #24]         ; [DPU_V7M3_PIPE] |495|  ; [ORIG 16-BIT INS]
     966                            .dwpsn  file "../driverlib/pwm.c",line 497,column 1,is_stmt,isa 1
     967                    ;* --------------------------------------------------------------------------*
     968 0000011e           ||$C$L9||:    
     969 0000011e B006              ADD       SP, SP, #24           ; [DPU_V7M3_PIPE]  ; [ORIG 16-BIT INS]
     970                            .dwcfi  cfa_offset, 0
     971                    $C$DW$53        .dwtag  DW_TAG_TI_branch
     972                            .dwattr $C$DW$53, DW_AT_low_pc(0x00)
     973                            .dwattr $C$DW$53, DW_AT_TI_return
     974                    
     975 00000120 4770              BX        LR                    ; [DPU_V7M3_PIPE]  ; [ORIG 16-BIT INS]
     976                            ; BRANCH OCCURS                  ; [] 
     977                            .dwattr $C$DW$44, DW_AT_TI_end_file("../driverlib/pwm.c")
     978                            .dwattr $C$DW$44, DW_AT_TI_end_line(0x1f1)
     979                            .dwattr $C$DW$44, DW_AT_TI_end_column(0x01)
     980                            .dwendentry
     981                            .dwendtag $C$DW$44
     982                    
     983 00000122                   .sect   ".text"
     984                            .clink
     985                            .thumbfunc PWMPulseWidthGet
     986 00000122                   .thumb
     987                            .global PWMPulseWidthGet
     988                    
     989                    $C$DW$54        .dwtag  DW_TAG_subprogram
     990                            .dwattr $C$DW$54, DW_AT_name("PWMPulseWidthGet")
TI ARM Assembler Unix v18.1.1 Fri Jul  3 20:08:25 2020

Tools Copyright (c) 1996-2017 Texas Instruments Incorporated
pwm.asm                                                              PAGE   19

     991                            .dwattr $C$DW$54, DW_AT_low_pc(PWMPulseWidthGet)
     992                            .dwattr $C$DW$54, DW_AT_high_pc(0x00)
     993                            .dwattr $C$DW$54, DW_AT_TI_symbol_name("PWMPulseWidthGet")
     994                            .dwattr $C$DW$54, DW_AT_external
     995                            .dwattr $C$DW$54, DW_AT_type(*$C$DW$T$27)
     996                            .dwattr $C$DW$54, DW_AT_TI_begin_file("../driverlib/pwm.c")
     997                            .dwattr $C$DW$54, DW_AT_TI_begin_line(0x206)
     998                            .dwattr $C$DW$54, DW_AT_TI_begin_column(0x01)
     999                            .dwattr $C$DW$54, DW_AT_decl_file("../driverlib/pwm.c")
    1000                            .dwattr $C$DW$54, DW_AT_decl_line(0x206)
    1001                            .dwattr $C$DW$54, DW_AT_decl_column(0x01)
    1002                            .dwattr $C$DW$54, DW_AT_TI_max_frame_size(0x18)
    1003                            .dwpsn  file "../driverlib/pwm.c",line 519,column 1,is_stmt,address PWMPulseWidthGet,isa 1
    1004                    
    1005                            .dwfde $C$DW$CIE, PWMPulseWidthGet
    1006                    $C$DW$55        .dwtag  DW_TAG_formal_parameter
    1007                            .dwattr $C$DW$55, DW_AT_name("ui32Base")
    1008                            .dwattr $C$DW$55, DW_AT_TI_symbol_name("ui32Base")
    1009                            .dwattr $C$DW$55, DW_AT_type(*$C$DW$T$27)
    1010                            .dwattr $C$DW$55, DW_AT_location[DW_OP_reg0]
    1011                    
    1012                    $C$DW$56        .dwtag  DW_TAG_formal_parameter
    1013                            .dwattr $C$DW$56, DW_AT_name("ui32PWMOut")
    1014                            .dwattr $C$DW$56, DW_AT_TI_symbol_name("ui32PWMOut")
    1015                            .dwattr $C$DW$56, DW_AT_type(*$C$DW$T$27)
    1016                            .dwattr $C$DW$56, DW_AT_location[DW_OP_reg1]
    1017                    
    1018                    ;----------------------------------------------------------------------
    1019                    ; 518 | PWMPulseWidthGet(uint32_t ui32Base, uint32_t ui32PWMOut)               
    1020                    ;----------------------------------------------------------------------
    1021                    
    1022                    ;*****************************************************************************
    1023                    ;* FUNCTION NAME: PWMPulseWidthGet                                           *
    1024                    ;*                                                                           *
    1025                    ;*   Regs Modified     : A1,A2,SP,SR                                         *
    1026                    ;*   Regs Used         : A1,A2,SP,LR,SR                                      *
    1027                    ;*   Local Frame Size  : 0 Args + 20 Auto + 0 Save = 20 byte                 *
    1028                    ;*****************************************************************************
    1029 00000122           PWMPulseWidthGet:
    1030                    ;* --------------------------------------------------------------------------*
    1031                            .dwcfi  cfa_offset, 0
    1032 00000122 0D18F1AD          SUB       SP, SP, #24           ; [DPU_V7M3_PIPE]  ; [KEEP 32-BIT INS]
    1033                            .dwcfi  cfa_offset, 24
    1034                    $C$DW$57        .dwtag  DW_TAG_variable
    1035                            .dwattr $C$DW$57, DW_AT_name("ui32Base")
    1036                            .dwattr $C$DW$57, DW_AT_TI_symbol_name("ui32Base")
    1037                            .dwattr $C$DW$57, DW_AT_type(*$C$DW$T$27)
    1038                            .dwattr $C$DW$57, DW_AT_location[DW_OP_breg13 0]
    1039                    
    1040                    $C$DW$58        .dwtag  DW_TAG_variable
    1041                            .dwattr $C$DW$58, DW_AT_name("ui32PWMOut")
    1042                            .dwattr $C$DW$58, DW_AT_TI_symbol_name("ui32PWMOut")
    1043                            .dwattr $C$DW$58, DW_AT_type(*$C$DW$T$27)
    1044                            .dwattr $C$DW$58, DW_AT_location[DW_OP_breg13 4]
    1045                    
TI ARM Assembler Unix v18.1.1 Fri Jul  3 20:08:25 2020

Tools Copyright (c) 1996-2017 Texas Instruments Incorporated
pwm.asm                                                              PAGE   20

    1046                    $C$DW$59        .dwtag  DW_TAG_variable
    1047                            .dwattr $C$DW$59, DW_AT_name("ui32GenBase")
    1048                            .dwattr $C$DW$59, DW_AT_TI_symbol_name("ui32GenBase")
    1049                            .dwattr $C$DW$59, DW_AT_type(*$C$DW$T$27)
    1050                            .dwattr $C$DW$59, DW_AT_location[DW_OP_breg13 8]
    1051                    
    1052                    $C$DW$60        .dwtag  DW_TAG_variable
    1053                            .dwattr $C$DW$60, DW_AT_name("ui32Reg")
    1054                            .dwattr $C$DW$60, DW_AT_TI_symbol_name("ui32Reg")
    1055                            .dwattr $C$DW$60, DW_AT_type(*$C$DW$T$27)
    1056                            .dwattr $C$DW$60, DW_AT_location[DW_OP_breg13 12]
    1057                    
    1058                    $C$DW$61        .dwtag  DW_TAG_variable
    1059                            .dwattr $C$DW$61, DW_AT_name("ui32Load")
    1060                            .dwattr $C$DW$61, DW_AT_TI_symbol_name("ui32Load")
    1061                            .dwattr $C$DW$61, DW_AT_type(*$C$DW$T$27)
    1062                            .dwattr $C$DW$61, DW_AT_location[DW_OP_breg13 16]
    1063                    
    1064                    ;----------------------------------------------------------------------
    1065                    ; 520 | uint32_t ui32GenBase, ui32Reg, ui32Load;                               
    1066                    ; 522 | //                                                                     
    1067                    ; 523 | // Check the arguments.                                                
    1068                    ; 524 | //                                                                     
    1069                    ; 525 | ASSERT((ui32Base == PWM0_BASE) || (ui32Base == PWM1_BASE));            
    1070                    ; 526 | ASSERT(_PWMOutValid(ui32PWMOut));                                      
    1071                    ; 528 | //                                                                     
    1072                    ; 529 | // Compute the generator's base address.                               
    1073                    ; 530 | //                                                                     
    1074                    ;----------------------------------------------------------------------
    1075 00000126 9101              STR       A2, [SP, #4]          ; [DPU_V7M3_PIPE] |519|  ; [ORIG 16-BIT INS]
    1076 00000128 9000              STR       A1, [SP, #0]          ; [DPU_V7M3_PIPE] |519|  ; [ORIG 16-BIT INS]
    1077                            .dwpsn  file "../driverlib/pwm.c",line 531,column 5,is_stmt,isa 1
    1078                    ;----------------------------------------------------------------------
    1079                    ; 531 | ui32GenBase = PWM_OUT_BADDR(ui32Base, ui32PWMOut);                     
    1080                    ; 533 | //                                                                     
    1081                    ; 534 | // Then compute the pulse width.  If mode is UpDown, set               
    1082                    ; 535 | // width = (load - compare) * 2.  Otherwise, set width = load - compare
    1083                    ;     | .                                                                      
    1084                    ; 536 | //                                                                     
    1085                    ;----------------------------------------------------------------------
    1086 0000012a 9801              LDR       A1, [SP, #4]          ; [DPU_V7M3_PIPE] |531|  ; [ORIG 16-BIT INS]
    1087 0000012c 9900              LDR       A2, [SP, #0]          ; [DPU_V7M3_PIPE] |531|  ; [ORIG 16-BIT INS]
    1088 0000012e 003FF020          BIC       A1, A1, #63           ; [DPU_V7M3_PIPE] |531|  ; [KEEP 32-BIT INS]
    1089 00000132 1809              ADDS      A2, A2, A1            ; [DPU_V7M3_PIPE] |531|  ; [ORIG 16-BIT INS]
    1090 00000134 9102              STR       A2, [SP, #8]          ; [DPU_V7M3_PIPE] |531|  ; [ORIG 16-BIT INS]
    1091                            .dwpsn  file "../driverlib/pwm.c",line 537,column 5,is_stmt,isa 1
    1092                    ;----------------------------------------------------------------------
    1093                    ; 537 | ui32Load = HWREG(ui32GenBase + PWM_O_X_LOAD);                          
    1094                    ;----------------------------------------------------------------------
    1095 00000136 9802              LDR       A1, [SP, #8]          ; [DPU_V7M3_PIPE] |537|  ; [ORIG 16-BIT INS]
    1096 00000138 6900              LDR       A1, [A1, #16]         ; [DPU_V7M3_PIPE] |537|  ; [ORIG 16-BIT INS]
    1097 0000013a 9004              STR       A1, [SP, #16]         ; [DPU_V7M3_PIPE] |537|  ; [ORIG 16-BIT INS]
    1098                            .dwpsn  file "../driverlib/pwm.c",line 538,column 5,is_stmt,isa 1
    1099                    ;----------------------------------------------------------------------
    1100                    ; 538 | if(PWM_IS_OUTPUT_ODD(ui32PWMOut))                                      
TI ARM Assembler Unix v18.1.1 Fri Jul  3 20:08:25 2020

Tools Copyright (c) 1996-2017 Texas Instruments Incorporated
pwm.asm                                                              PAGE   21

    1101                    ;----------------------------------------------------------------------
    1102 0000013c 9801              LDR       A1, [SP, #4]          ; [DPU_V7M3_PIPE] |538|  ; [ORIG 16-BIT INS]
    1103 0000013e 0840              LSRS      A1, A1, #1            ; [DPU_V7M3_PIPE] |538|  ; [ORIG 16-BIT INS]
    1104 00000140 D303              BCC       ||$C$L10||            ; [DPU_V7M3_PIPE] |538|  ; [ORIG 16-BIT INS]
    1105                            ; BRANCHCC OCCURS {||$C$L10||}   ; [] |538| 
    1106                    ;* --------------------------------------------------------------------------*
    1107                            .dwpsn  file "../driverlib/pwm.c",line 540,column 9,is_stmt,isa 1
    1108                    ;----------------------------------------------------------------------
    1109                    ; 540 | ui32Reg = HWREG(ui32GenBase + PWM_O_X_CMPB);                           
    1110                    ;----------------------------------------------------------------------
    1111 00000142 9802              LDR       A1, [SP, #8]          ; [DPU_V7M3_PIPE] |540|  ; [ORIG 16-BIT INS]
    1112 00000144 69C0              LDR       A1, [A1, #28]         ; [DPU_V7M3_PIPE] |540|  ; [ORIG 16-BIT INS]
    1113 00000146 9003              STR       A1, [SP, #12]         ; [DPU_V7M3_PIPE] |540|  ; [ORIG 16-BIT INS]
    1114                            .dwpsn  file "../driverlib/pwm.c",line 541,column 5,is_stmt,isa 1
    1115                    ;----------------------------------------------------------------------
    1116                    ; 542 | else                                                                   
    1117                    ;----------------------------------------------------------------------
    1118 00000148 E002              B         ||$C$L11||            ; [DPU_V7M3_PIPE] |541|  ; [ORIG 16-BIT INS]
    1119                            ; BRANCH OCCURS {||$C$L11||}     ; [] |541| 
    1120                    ;* --------------------------------------------------------------------------*
    1121 0000014a           ||$C$L10||:    
    1122                            .dwpsn  file "../driverlib/pwm.c",line 544,column 9,is_stmt,isa 1
    1123                    ;----------------------------------------------------------------------
    1124                    ; 544 | ui32Reg = HWREG(ui32GenBase + PWM_O_X_CMPA);                           
    1125                    ;----------------------------------------------------------------------
    1126 0000014a 9802              LDR       A1, [SP, #8]          ; [DPU_V7M3_PIPE] |544|  ; [ORIG 16-BIT INS]
    1127 0000014c 6980              LDR       A1, [A1, #24]         ; [DPU_V7M3_PIPE] |544|  ; [ORIG 16-BIT INS]
    1128 0000014e 9003              STR       A1, [SP, #12]         ; [DPU_V7M3_PIPE] |544|  ; [ORIG 16-BIT INS]
    1129                    ;* --------------------------------------------------------------------------*
    1130 00000150           ||$C$L11||:    
    1131                            .dwpsn  file "../driverlib/pwm.c",line 546,column 5,is_stmt,isa 1
    1132                    ;----------------------------------------------------------------------
    1133                    ; 546 | ui32Reg = ui32Load - ui32Reg;                                          
    1134                    ; 548 | //                                                                     
    1135                    ; 549 | // If in up/down count mode, double the pulse width.                   
    1136                    ; 550 | //                                                                     
    1137                    ;----------------------------------------------------------------------
    1138 00000150 9903              LDR       A2, [SP, #12]         ; [DPU_V7M3_PIPE] |546|  ; [ORIG 16-BIT INS]
    1139 00000152 9804              LDR       A1, [SP, #16]         ; [DPU_V7M3_PIPE] |546|  ; [ORIG 16-BIT INS]
    1140 00000154 1A40              SUBS      A1, A1, A2            ; [DPU_V7M3_PIPE] |546|  ; [ORIG 16-BIT INS]
    1141 00000156 9003              STR       A1, [SP, #12]         ; [DPU_V7M3_PIPE] |546|  ; [ORIG 16-BIT INS]
    1142                            .dwpsn  file "../driverlib/pwm.c",line 551,column 5,is_stmt,isa 1
    1143                    ;----------------------------------------------------------------------
    1144                    ; 551 | if(HWREG(ui32GenBase + PWM_O_X_CTL) & PWM_X_CTL_MODE)                  
    1145                    ;----------------------------------------------------------------------
    1146 00000158 9802              LDR       A1, [SP, #8]          ; [DPU_V7M3_PIPE] |551|  ; [ORIG 16-BIT INS]
    1147 0000015a 6800              LDR       A1, [A1, #0]          ; [DPU_V7M3_PIPE] |551|  ; [ORIG 16-BIT INS]
    1148 0000015c 0880              LSRS      A1, A1, #2            ; [DPU_V7M3_PIPE] |551|  ; [ORIG 16-BIT INS]
    1149 0000015e D302              BCC       ||$C$L12||            ; [DPU_V7M3_PIPE] |551|  ; [ORIG 16-BIT INS]
    1150                            ; BRANCHCC OCCURS {||$C$L12||}   ; [] |551| 
    1151                    ;* --------------------------------------------------------------------------*
    1152                            .dwpsn  file "../driverlib/pwm.c",line 553,column 9,is_stmt,isa 1
    1153                    ;----------------------------------------------------------------------
    1154                    ; 553 | ui32Reg = ui32Reg * 2;                                                 
    1155                    ; 556 | //                                                                     
TI ARM Assembler Unix v18.1.1 Fri Jul  3 20:08:25 2020

Tools Copyright (c) 1996-2017 Texas Instruments Incorporated
pwm.asm                                                              PAGE   22

    1156                    ; 557 | // Return the pulse width.                                             
    1157                    ; 558 | //                                                                     
    1158                    ;----------------------------------------------------------------------
    1159 00000160 9803              LDR       A1, [SP, #12]         ; [DPU_V7M3_PIPE] |553|  ; [ORIG 16-BIT INS]
    1160 00000162 0040              LSLS      A1, A1, #1            ; [DPU_V7M3_PIPE] |553|  ; [ORIG 16-BIT INS]
    1161 00000164 9003              STR       A1, [SP, #12]         ; [DPU_V7M3_PIPE] |553|  ; [ORIG 16-BIT INS]
    1162                    ;* --------------------------------------------------------------------------*
    1163 00000166           ||$C$L12||:    
    1164                            .dwpsn  file "../driverlib/pwm.c",line 559,column 5,is_stmt,isa 1
    1165                    ;----------------------------------------------------------------------
    1166                    ; 559 | return(ui32Reg);                                                       
    1167                    ;----------------------------------------------------------------------
    1168 00000166 9803              LDR       A1, [SP, #12]         ; [DPU_V7M3_PIPE] |559|  ; [ORIG 16-BIT INS]
    1169                            .dwpsn  file "../driverlib/pwm.c",line 560,column 1,is_stmt,isa 1
    1170 00000168 B006              ADD       SP, SP, #24           ; [DPU_V7M3_PIPE]  ; [ORIG 16-BIT INS]
    1171                            .dwcfi  cfa_offset, 0
    1172                    $C$DW$62        .dwtag  DW_TAG_TI_branch
    1173                            .dwattr $C$DW$62, DW_AT_low_pc(0x00)
    1174                            .dwattr $C$DW$62, DW_AT_TI_return
    1175                    
    1176 0000016a 4770              BX        LR                    ; [DPU_V7M3_PIPE]  ; [ORIG 16-BIT INS]
    1177                            ; BRANCH OCCURS                  ; [] 
    1178                            .dwattr $C$DW$54, DW_AT_TI_end_file("../driverlib/pwm.c")
    1179                            .dwattr $C$DW$54, DW_AT_TI_end_line(0x230)
    1180                            .dwattr $C$DW$54, DW_AT_TI_end_column(0x01)
    1181                            .dwendentry
    1182                            .dwendtag $C$DW$54
    1183                    
    1184 0000016c                   .sect   ".text"
    1185                            .clink
    1186                            .thumbfunc PWMDeadBandEnable
    1187 0000016c                   .thumb
    1188                            .global PWMDeadBandEnable
    1189                    
    1190                    $C$DW$63        .dwtag  DW_TAG_subprogram
    1191                            .dwattr $C$DW$63, DW_AT_name("PWMDeadBandEnable")
    1192                            .dwattr $C$DW$63, DW_AT_low_pc(PWMDeadBandEnable)
    1193                            .dwattr $C$DW$63, DW_AT_high_pc(0x00)
    1194                            .dwattr $C$DW$63, DW_AT_TI_symbol_name("PWMDeadBandEnable")
    1195                            .dwattr $C$DW$63, DW_AT_external
    1196                            .dwattr $C$DW$63, DW_AT_TI_begin_file("../driverlib/pwm.c")
    1197                            .dwattr $C$DW$63, DW_AT_TI_begin_line(0x245)
    1198                            .dwattr $C$DW$63, DW_AT_TI_begin_column(0x01)
    1199                            .dwattr $C$DW$63, DW_AT_decl_file("../driverlib/pwm.c")
    1200                            .dwattr $C$DW$63, DW_AT_decl_line(0x245)
    1201                            .dwattr $C$DW$63, DW_AT_decl_column(0x01)
    1202                            .dwattr $C$DW$63, DW_AT_TI_max_frame_size(0x10)
    1203                            .dwpsn  file "../driverlib/pwm.c",line 583,column 1,is_stmt,address PWMDeadBandEnable,isa 1
    1204                    
    1205                            .dwfde $C$DW$CIE, PWMDeadBandEnable
    1206                    $C$DW$64        .dwtag  DW_TAG_formal_parameter
    1207                            .dwattr $C$DW$64, DW_AT_name("ui32Base")
    1208                            .dwattr $C$DW$64, DW_AT_TI_symbol_name("ui32Base")
    1209                            .dwattr $C$DW$64, DW_AT_type(*$C$DW$T$27)
    1210                            .dwattr $C$DW$64, DW_AT_location[DW_OP_reg0]
TI ARM Assembler Unix v18.1.1 Fri Jul  3 20:08:25 2020

Tools Copyright (c) 1996-2017 Texas Instruments Incorporated
pwm.asm                                                              PAGE   23

    1211                    
    1212                    $C$DW$65        .dwtag  DW_TAG_formal_parameter
    1213                            .dwattr $C$DW$65, DW_AT_name("ui32Gen")
    1214                            .dwattr $C$DW$65, DW_AT_TI_symbol_name("ui32Gen")
    1215                            .dwattr $C$DW$65, DW_AT_type(*$C$DW$T$27)
    1216                            .dwattr $C$DW$65, DW_AT_location[DW_OP_reg1]
    1217                    
    1218                    $C$DW$66        .dwtag  DW_TAG_formal_parameter
    1219                            .dwattr $C$DW$66, DW_AT_name("ui16Rise")
    1220                            .dwattr $C$DW$66, DW_AT_TI_symbol_name("ui16Rise")
    1221                            .dwattr $C$DW$66, DW_AT_type(*$C$DW$T$35)
    1222                            .dwattr $C$DW$66, DW_AT_location[DW_OP_reg2]
    1223                    
    1224                    $C$DW$67        .dwtag  DW_TAG_formal_parameter
    1225                            .dwattr $C$DW$67, DW_AT_name("ui16Fall")
    1226                            .dwattr $C$DW$67, DW_AT_TI_symbol_name("ui16Fall")
    1227                            .dwattr $C$DW$67, DW_AT_type(*$C$DW$T$35)
    1228                            .dwattr $C$DW$67, DW_AT_location[DW_OP_reg3]
    1229                    
    1230                    ;----------------------------------------------------------------------
    1231                    ; 581 | PWMDeadBandEnable(uint32_t ui32Base, uint32_t ui32Gen,                 
    1232                    ; 582 | uint16_t ui16Rise, uint16_t ui16Fall)                                  
    1233                    ;----------------------------------------------------------------------
    1234                    
    1235                    ;*****************************************************************************
    1236                    ;* FUNCTION NAME: PWMDeadBandEnable                                          *
    1237                    ;*                                                                           *
    1238                    ;*   Regs Modified     : A1,A2,SP,SR                                         *
    1239                    ;*   Regs Used         : A1,A2,A3,A4,SP,LR,SR                                *
    1240                    ;*   Local Frame Size  : 0 Args + 12 Auto + 0 Save = 12 byte                 *
    1241                    ;*****************************************************************************
    1242 0000016c           PWMDeadBandEnable:
    1243                    ;* --------------------------------------------------------------------------*
    1244                            .dwcfi  cfa_offset, 0
    1245 0000016c 0D10F1AD          SUB       SP, SP, #16           ; [DPU_V7M3_PIPE]  ; [KEEP 32-BIT INS]
    1246                            .dwcfi  cfa_offset, 16
    1247                    $C$DW$68        .dwtag  DW_TAG_variable
    1248                            .dwattr $C$DW$68, DW_AT_name("ui32Base")
    1249                            .dwattr $C$DW$68, DW_AT_TI_symbol_name("ui32Base")
    1250                            .dwattr $C$DW$68, DW_AT_type(*$C$DW$T$27)
    1251                            .dwattr $C$DW$68, DW_AT_location[DW_OP_breg13 0]
    1252                    
    1253                    $C$DW$69        .dwtag  DW_TAG_variable
    1254                            .dwattr $C$DW$69, DW_AT_name("ui32Gen")
    1255                            .dwattr $C$DW$69, DW_AT_TI_symbol_name("ui32Gen")
    1256                            .dwattr $C$DW$69, DW_AT_type(*$C$DW$T$27)
    1257                            .dwattr $C$DW$69, DW_AT_location[DW_OP_breg13 4]
    1258                    
    1259                    $C$DW$70        .dwtag  DW_TAG_variable
    1260                            .dwattr $C$DW$70, DW_AT_name("ui16Rise")
    1261                            .dwattr $C$DW$70, DW_AT_TI_symbol_name("ui16Rise")
    1262                            .dwattr $C$DW$70, DW_AT_type(*$C$DW$T$35)
    1263                            .dwattr $C$DW$70, DW_AT_location[DW_OP_breg13 8]
    1264                    
    1265                    $C$DW$71        .dwtag  DW_TAG_variable
TI ARM Assembler Unix v18.1.1 Fri Jul  3 20:08:25 2020

Tools Copyright (c) 1996-2017 Texas Instruments Incorporated
pwm.asm                                                              PAGE   24

    1266                            .dwattr $C$DW$71, DW_AT_name("ui16Fall")
    1267                            .dwattr $C$DW$71, DW_AT_TI_symbol_name("ui16Fall")
    1268                            .dwattr $C$DW$71, DW_AT_type(*$C$DW$T$35)
    1269                            .dwattr $C$DW$71, DW_AT_location[DW_OP_breg13 10]
    1270                    
    1271                    ;----------------------------------------------------------------------
    1272                    ; 584 | //                                                                     
    1273                    ; 585 | // Check the arguments.                                                
    1274                    ; 586 | //                                                                     
    1275                    ; 587 | ASSERT((ui32Base == PWM0_BASE) || (ui32Base == PWM1_BASE));            
    1276                    ; 588 | ASSERT(_PWMGenValid(ui32Gen));                                         
    1277                    ; 589 | ASSERT(ui16Rise < 4096);                                               
    1278                    ; 590 | ASSERT(ui16Fall < 4096);                                               
    1279                    ; 592 | //                                                                     
    1280                    ; 593 | // Compute the generator's base address.                               
    1281                    ; 594 | //                                                                     
    1282                    ;----------------------------------------------------------------------
    1283 00000170 300AF8AD          STRH      A4, [SP, #10]         ; [DPU_V7M3_PIPE] |583|  ; [KEEP 32-BIT INS]
    1284 00000174 2008F8AD          STRH      A3, [SP, #8]          ; [DPU_V7M3_PIPE] |583|  ; [KEEP 32-BIT INS]
    1285 00000178 9101              STR       A2, [SP, #4]          ; [DPU_V7M3_PIPE] |583|  ; [ORIG 16-BIT INS]
    1286 0000017a 9000              STR       A1, [SP, #0]          ; [DPU_V7M3_PIPE] |583|  ; [ORIG 16-BIT INS]
    1287                            .dwpsn  file "../driverlib/pwm.c",line 595,column 5,is_stmt,isa 1
    1288                    ;----------------------------------------------------------------------
    1289                    ; 595 | ui32Gen = PWM_GEN_BADDR(ui32Base, ui32Gen);                            
    1290                    ; 597 | //                                                                     
    1291                    ; 598 | // Write the dead band delay values.                                   
    1292                    ; 599 | //                                                                     
    1293                    ;----------------------------------------------------------------------
    1294 0000017c 9901              LDR       A2, [SP, #4]          ; [DPU_V7M3_PIPE] |595|  ; [ORIG 16-BIT INS]
    1295 0000017e 9800              LDR       A1, [SP, #0]          ; [DPU_V7M3_PIPE] |595|  ; [ORIG 16-BIT INS]
    1296 00000180 1840              ADDS      A1, A1, A2            ; [DPU_V7M3_PIPE] |595|  ; [ORIG 16-BIT INS]
    1297 00000182 9001              STR       A1, [SP, #4]          ; [DPU_V7M3_PIPE] |595|  ; [ORIG 16-BIT INS]
    1298                            .dwpsn  file "../driverlib/pwm.c",line 600,column 5,is_stmt,isa 1
    1299                    ;----------------------------------------------------------------------
    1300                    ; 600 | HWREG(ui32Gen + PWM_O_X_DBRISE) = ui16Rise;                            
    1301                    ;----------------------------------------------------------------------
    1302 00000184 0008F8BD          LDRH      A1, [SP, #8]          ; [DPU_V7M3_PIPE] |600|  ; [KEEP 32-BIT INS]
    1303 00000188 9901              LDR       A2, [SP, #4]          ; [DPU_V7M3_PIPE] |600|  ; [ORIG 16-BIT INS]
    1304 0000018a 62C8              STR       A1, [A2, #44]         ; [DPU_V7M3_PIPE] |600|  ; [ORIG 16-BIT INS]
    1305                            .dwpsn  file "../driverlib/pwm.c",line 601,column 5,is_stmt,isa 1
    1306                    ;----------------------------------------------------------------------
    1307                    ; 601 | HWREG(ui32Gen + PWM_O_X_DBFALL) = ui16Fall;                            
    1308                    ; 603 | //                                                                     
    1309                    ; 604 | // Enable the deadband functionality.                                  
    1310                    ; 605 | //                                                                     
    1311                    ;----------------------------------------------------------------------
    1312 0000018c 000AF8BD          LDRH      A1, [SP, #10]         ; [DPU_V7M3_PIPE] |601|  ; [KEEP 32-BIT INS]
    1313 00000190 9901              LDR       A2, [SP, #4]          ; [DPU_V7M3_PIPE] |601|  ; [ORIG 16-BIT INS]
    1314 00000192 6308              STR       A1, [A2, #48]         ; [DPU_V7M3_PIPE] |601|  ; [ORIG 16-BIT INS]
    1315                            .dwpsn  file "../driverlib/pwm.c",line 606,column 5,is_stmt,isa 1
    1316                    ;----------------------------------------------------------------------
    1317                    ; 606 | HWREG(ui32Gen + PWM_O_X_DBCTL) |= PWM_X_DBCTL_ENABLE;                  
    1318                    ;----------------------------------------------------------------------
    1319 00000194 9801              LDR       A1, [SP, #4]          ; [DPU_V7M3_PIPE] |606|  ; [ORIG 16-BIT INS]
    1320 00000196 3028              ADDS      A1, A1, #40           ; [DPU_V7M3_PIPE] |606|  ; [ORIG 16-BIT INS]
TI ARM Assembler Unix v18.1.1 Fri Jul  3 20:08:25 2020

Tools Copyright (c) 1996-2017 Texas Instruments Incorporated
pwm.asm                                                              PAGE   25

    1321 00000198 6801              LDR       A2, [A1, #0]          ; [DPU_V7M3_PIPE] |606|  ; [ORIG 16-BIT INS]
    1322 0000019a 0101F041          ORR       A2, A2, #1            ; [DPU_V7M3_PIPE] |606|  ; [KEEP 32-BIT INS]
    1323 0000019e 6001              STR       A2, [A1, #0]          ; [DPU_V7M3_PIPE] |606|  ; [ORIG 16-BIT INS]
    1324                            .dwpsn  file "../driverlib/pwm.c",line 607,column 1,is_stmt,isa 1
    1325 000001a0 B004              ADD       SP, SP, #16           ; [DPU_V7M3_PIPE]  ; [ORIG 16-BIT INS]
    1326                            .dwcfi  cfa_offset, 0
    1327                    $C$DW$72        .dwtag  DW_TAG_TI_branch
    1328                            .dwattr $C$DW$72, DW_AT_low_pc(0x00)
    1329                            .dwattr $C$DW$72, DW_AT_TI_return
    1330                    
    1331 000001a2 4770              BX        LR                    ; [DPU_V7M3_PIPE]  ; [ORIG 16-BIT INS]
    1332                            ; BRANCH OCCURS                  ; [] 
    1333                            .dwattr $C$DW$63, DW_AT_TI_end_file("../driverlib/pwm.c")
    1334                            .dwattr $C$DW$63, DW_AT_TI_end_line(0x25f)
    1335                            .dwattr $C$DW$63, DW_AT_TI_end_column(0x01)
    1336                            .dwendentry
    1337                            .dwendtag $C$DW$63
    1338                    
    1339 000001a4                   .sect   ".text"
    1340                            .clink
    1341                            .thumbfunc PWMDeadBandDisable
    1342 000001a4                   .thumb
    1343                            .global PWMDeadBandDisable
    1344                    
    1345                    $C$DW$73        .dwtag  DW_TAG_subprogram
    1346                            .dwattr $C$DW$73, DW_AT_name("PWMDeadBandDisable")
    1347                            .dwattr $C$DW$73, DW_AT_low_pc(PWMDeadBandDisable)
    1348                            .dwattr $C$DW$73, DW_AT_high_pc(0x00)
    1349                            .dwattr $C$DW$73, DW_AT_TI_symbol_name("PWMDeadBandDisable")
    1350                            .dwattr $C$DW$73, DW_AT_external
    1351                            .dwattr $C$DW$73, DW_AT_TI_begin_file("../driverlib/pwm.c")
    1352                            .dwattr $C$DW$73, DW_AT_TI_begin_line(0x270)
    1353                            .dwattr $C$DW$73, DW_AT_TI_begin_column(0x01)
    1354                            .dwattr $C$DW$73, DW_AT_decl_file("../driverlib/pwm.c")
    1355                            .dwattr $C$DW$73, DW_AT_decl_line(0x270)
    1356                            .dwattr $C$DW$73, DW_AT_decl_column(0x01)
    1357                            .dwattr $C$DW$73, DW_AT_TI_max_frame_size(0x08)
    1358                            .dwpsn  file "../driverlib/pwm.c",line 625,column 1,is_stmt,address PWMDeadBandDisable,isa 1
    1359                    
    1360                            .dwfde $C$DW$CIE, PWMDeadBandDisable
    1361                    $C$DW$74        .dwtag  DW_TAG_formal_parameter
    1362                            .dwattr $C$DW$74, DW_AT_name("ui32Base")
    1363                            .dwattr $C$DW$74, DW_AT_TI_symbol_name("ui32Base")
    1364                            .dwattr $C$DW$74, DW_AT_type(*$C$DW$T$27)
    1365                            .dwattr $C$DW$74, DW_AT_location[DW_OP_reg0]
    1366                    
    1367                    $C$DW$75        .dwtag  DW_TAG_formal_parameter
    1368                            .dwattr $C$DW$75, DW_AT_name("ui32Gen")
    1369                            .dwattr $C$DW$75, DW_AT_TI_symbol_name("ui32Gen")
    1370                            .dwattr $C$DW$75, DW_AT_type(*$C$DW$T$27)
    1371                            .dwattr $C$DW$75, DW_AT_location[DW_OP_reg1]
    1372                    
    1373                    ;----------------------------------------------------------------------
    1374                    ; 624 | PWMDeadBandDisable(uint32_t ui32Base, uint32_t ui32Gen)                
    1375                    ;----------------------------------------------------------------------
TI ARM Assembler Unix v18.1.1 Fri Jul  3 20:08:25 2020

Tools Copyright (c) 1996-2017 Texas Instruments Incorporated
pwm.asm                                                              PAGE   26

    1376                    
    1377                    ;*****************************************************************************
    1378                    ;* FUNCTION NAME: PWMDeadBandDisable                                         *
    1379                    ;*                                                                           *
    1380                    ;*   Regs Modified     : A1,A2,SP,SR                                         *
    1381                    ;*   Regs Used         : A1,A2,SP,LR,SR                                      *
    1382                    ;*   Local Frame Size  : 0 Args + 8 Auto + 0 Save = 8 byte                   *
    1383                    ;*****************************************************************************
    1384 000001a4           PWMDeadBandDisable:
    1385                    ;* --------------------------------------------------------------------------*
    1386                            .dwcfi  cfa_offset, 0
    1387 000001a4 0D08F1AD          SUB       SP, SP, #8            ; [DPU_V7M3_PIPE]  ; [KEEP 32-BIT INS]
    1388                            .dwcfi  cfa_offset, 8
    1389                    $C$DW$76        .dwtag  DW_TAG_variable
    1390                            .dwattr $C$DW$76, DW_AT_name("ui32Base")
    1391                            .dwattr $C$DW$76, DW_AT_TI_symbol_name("ui32Base")
    1392                            .dwattr $C$DW$76, DW_AT_type(*$C$DW$T$27)
    1393                            .dwattr $C$DW$76, DW_AT_location[DW_OP_breg13 0]
    1394                    
    1395                    $C$DW$77        .dwtag  DW_TAG_variable
    1396                            .dwattr $C$DW$77, DW_AT_name("ui32Gen")
    1397                            .dwattr $C$DW$77, DW_AT_TI_symbol_name("ui32Gen")
    1398                            .dwattr $C$DW$77, DW_AT_type(*$C$DW$T$27)
    1399                            .dwattr $C$DW$77, DW_AT_location[DW_OP_breg13 4]
    1400                    
    1401                    ;----------------------------------------------------------------------
    1402                    ; 626 | //                                                                     
    1403                    ; 627 | // Check the arguments.                                                
    1404                    ; 628 | //                                                                     
    1405                    ; 629 | ASSERT((ui32Base == PWM0_BASE) || (ui32Base == PWM1_BASE));            
    1406                    ; 630 | ASSERT(_PWMGenValid(ui32Gen));                                         
    1407                    ; 632 | //                                                                     
    1408                    ; 633 | // Disable the deadband functionality.                                 
    1409                    ; 634 | //                                                                     
    1410                    ;----------------------------------------------------------------------
    1411 000001a8 9101              STR       A2, [SP, #4]          ; [DPU_V7M3_PIPE] |625|  ; [ORIG 16-BIT INS]
    1412 000001aa 9000              STR       A1, [SP, #0]          ; [DPU_V7M3_PIPE] |625|  ; [ORIG 16-BIT INS]
    1413                            .dwpsn  file "../driverlib/pwm.c",line 635,column 5,is_stmt,isa 1
    1414                    ;----------------------------------------------------------------------
    1415                    ; 635 | HWREG(PWM_GEN_BADDR(ui32Base, ui32Gen) + PWM_O_X_DBCTL) &=             
    1416                    ; 636 |     ~(PWM_X_DBCTL_ENABLE);                                             
    1417                    ;----------------------------------------------------------------------
    1418 000001ac 9901              LDR       A2, [SP, #4]          ; [DPU_V7M3_PIPE] |635|  ; [ORIG 16-BIT INS]
    1419 000001ae 9800              LDR       A1, [SP, #0]          ; [DPU_V7M3_PIPE] |635|  ; [ORIG 16-BIT INS]
    1420 000001b0 1840              ADDS      A1, A1, A2            ; [DPU_V7M3_PIPE] |635|  ; [ORIG 16-BIT INS]
    1421 000001b2 3028              ADDS      A1, A1, #40           ; [DPU_V7M3_PIPE] |635|  ; [ORIG 16-BIT INS]
    1422 000001b4 6801              LDR       A2, [A1, #0]          ; [DPU_V7M3_PIPE] |635|  ; [ORIG 16-BIT INS]
    1423 000001b6 0101F021          BIC       A2, A2, #1            ; [DPU_V7M3_PIPE] |635|  ; [KEEP 32-BIT INS]
    1424 000001ba 6001              STR       A2, [A1, #0]          ; [DPU_V7M3_PIPE] |635|  ; [ORIG 16-BIT INS]
    1425                            .dwpsn  file "../driverlib/pwm.c",line 637,column 1,is_stmt,isa 1
    1426 000001bc B002              ADD       SP, SP, #8            ; [DPU_V7M3_PIPE]  ; [ORIG 16-BIT INS]
    1427                            .dwcfi  cfa_offset, 0
    1428                    $C$DW$78        .dwtag  DW_TAG_TI_branch
    1429                            .dwattr $C$DW$78, DW_AT_low_pc(0x00)
    1430                            .dwattr $C$DW$78, DW_AT_TI_return
TI ARM Assembler Unix v18.1.1 Fri Jul  3 20:08:25 2020

Tools Copyright (c) 1996-2017 Texas Instruments Incorporated
pwm.asm                                                              PAGE   27

    1431                    
    1432 000001be 4770              BX        LR                    ; [DPU_V7M3_PIPE]  ; [ORIG 16-BIT INS]
    1433                            ; BRANCH OCCURS                  ; [] 
    1434                            .dwattr $C$DW$73, DW_AT_TI_end_file("../driverlib/pwm.c")
    1435                            .dwattr $C$DW$73, DW_AT_TI_end_line(0x27d)
    1436                            .dwattr $C$DW$73, DW_AT_TI_end_column(0x01)
    1437                            .dwendentry
    1438                            .dwendtag $C$DW$73
    1439                    
    1440 000001c0                   .sect   ".text"
    1441                            .clink
    1442                            .thumbfunc PWMSyncUpdate
    1443 000001c0                   .thumb
    1444                            .global PWMSyncUpdate
    1445                    
    1446                    $C$DW$79        .dwtag  DW_TAG_subprogram
    1447                            .dwattr $C$DW$79, DW_AT_name("PWMSyncUpdate")
    1448                            .dwattr $C$DW$79, DW_AT_low_pc(PWMSyncUpdate)
    1449                            .dwattr $C$DW$79, DW_AT_high_pc(0x00)
    1450                            .dwattr $C$DW$79, DW_AT_TI_symbol_name("PWMSyncUpdate")
    1451                            .dwattr $C$DW$79, DW_AT_external
    1452                            .dwattr $C$DW$79, DW_AT_TI_begin_file("../driverlib/pwm.c")
    1453                            .dwattr $C$DW$79, DW_AT_TI_begin_line(0x290)
    1454                            .dwattr $C$DW$79, DW_AT_TI_begin_column(0x01)
    1455                            .dwattr $C$DW$79, DW_AT_decl_file("../driverlib/pwm.c")
    1456                            .dwattr $C$DW$79, DW_AT_decl_line(0x290)
    1457                            .dwattr $C$DW$79, DW_AT_decl_column(0x01)
    1458                            .dwattr $C$DW$79, DW_AT_TI_max_frame_size(0x08)
    1459                            .dwpsn  file "../driverlib/pwm.c",line 657,column 1,is_stmt,address PWMSyncUpdate,isa 1
    1460                    
    1461                            .dwfde $C$DW$CIE, PWMSyncUpdate
    1462                    $C$DW$80        .dwtag  DW_TAG_formal_parameter
    1463                            .dwattr $C$DW$80, DW_AT_name("ui32Base")
    1464                            .dwattr $C$DW$80, DW_AT_TI_symbol_name("ui32Base")
    1465                            .dwattr $C$DW$80, DW_AT_type(*$C$DW$T$27)
    1466                            .dwattr $C$DW$80, DW_AT_location[DW_OP_reg0]
    1467                    
    1468                    $C$DW$81        .dwtag  DW_TAG_formal_parameter
    1469                            .dwattr $C$DW$81, DW_AT_name("ui32GenBits")
    1470                            .dwattr $C$DW$81, DW_AT_TI_symbol_name("ui32GenBits")
    1471                            .dwattr $C$DW$81, DW_AT_type(*$C$DW$T$27)
    1472                            .dwattr $C$DW$81, DW_AT_location[DW_OP_reg1]
    1473                    
    1474                    ;----------------------------------------------------------------------
    1475                    ; 656 | PWMSyncUpdate(uint32_t ui32Base, uint32_t ui32GenBits)                 
    1476                    ;----------------------------------------------------------------------
    1477                    
    1478                    ;*****************************************************************************
    1479                    ;* FUNCTION NAME: PWMSyncUpdate                                              *
    1480                    ;*                                                                           *
    1481                    ;*   Regs Modified     : A1,A2,SP                                            *
    1482                    ;*   Regs Used         : A1,A2,SP,LR                                         *
    1483                    ;*   Local Frame Size  : 0 Args + 8 Auto + 0 Save = 8 byte                   *
    1484                    ;*****************************************************************************
    1485 000001c0           PWMSyncUpdate:
TI ARM Assembler Unix v18.1.1 Fri Jul  3 20:08:25 2020

Tools Copyright (c) 1996-2017 Texas Instruments Incorporated
pwm.asm                                                              PAGE   28

    1486                    ;* --------------------------------------------------------------------------*
    1487                            .dwcfi  cfa_offset, 0
    1488 000001c0 0D08F1AD          SUB       SP, SP, #8            ; [DPU_V7M3_PIPE]  ; [KEEP 32-BIT INS]
    1489                            .dwcfi  cfa_offset, 8
    1490                    $C$DW$82        .dwtag  DW_TAG_variable
    1491                            .dwattr $C$DW$82, DW_AT_name("ui32Base")
    1492                            .dwattr $C$DW$82, DW_AT_TI_symbol_name("ui32Base")
    1493                            .dwattr $C$DW$82, DW_AT_type(*$C$DW$T$27)
    1494                            .dwattr $C$DW$82, DW_AT_location[DW_OP_breg13 0]
    1495                    
    1496                    $C$DW$83        .dwtag  DW_TAG_variable
    1497                            .dwattr $C$DW$83, DW_AT_name("ui32GenBits")
    1498                            .dwattr $C$DW$83, DW_AT_TI_symbol_name("ui32GenBits")
    1499                            .dwattr $C$DW$83, DW_AT_type(*$C$DW$T$27)
    1500                            .dwattr $C$DW$83, DW_AT_location[DW_OP_breg13 4]
    1501                    
    1502                    ;----------------------------------------------------------------------
    1503                    ; 658 | //                                                                     
    1504                    ; 659 | // Check the arguments.                                                
    1505                    ; 660 | //                                                                     
    1506                    ; 661 | ASSERT((ui32Base == PWM0_BASE) || (ui32Base == PWM1_BASE));            
    1507                    ; 662 | ASSERT(!(ui32GenBits & ~(PWM_GEN_0_BIT | PWM_GEN_1_BIT | PWM_GEN_2_BIT
    1508                    ;     | |                                                                      
    1509                    ; 663 |                          PWM_GEN_3_BIT)));                             
    1510                    ; 665 | //                                                                     
    1511                    ; 666 | // Synchronize pending PWM register changes.                           
    1512                    ; 667 | //                                                                     
    1513                    ;----------------------------------------------------------------------
    1514 000001c4 9101              STR       A2, [SP, #4]          ; [DPU_V7M3_PIPE] |657|  ; [ORIG 16-BIT INS]
    1515 000001c6 9000              STR       A1, [SP, #0]          ; [DPU_V7M3_PIPE] |657|  ; [ORIG 16-BIT INS]
    1516                            .dwpsn  file "../driverlib/pwm.c",line 668,column 5,is_stmt,isa 1
    1517                    ;----------------------------------------------------------------------
    1518                    ; 668 | HWREG(ui32Base + PWM_O_CTL) = ui32GenBits;                             
    1519                    ;----------------------------------------------------------------------
    1520 000001c8 9801              LDR       A1, [SP, #4]          ; [DPU_V7M3_PIPE] |668|  ; [ORIG 16-BIT INS]
    1521 000001ca 9900              LDR       A2, [SP, #0]          ; [DPU_V7M3_PIPE] |668|  ; [ORIG 16-BIT INS]
    1522 000001cc 6008              STR       A1, [A2, #0]          ; [DPU_V7M3_PIPE] |668|  ; [ORIG 16-BIT INS]
    1523                            .dwpsn  file "../driverlib/pwm.c",line 669,column 1,is_stmt,isa 1
    1524 000001ce B002              ADD       SP, SP, #8            ; [DPU_V7M3_PIPE]  ; [ORIG 16-BIT INS]
    1525                            .dwcfi  cfa_offset, 0
    1526                    $C$DW$84        .dwtag  DW_TAG_TI_branch
    1527                            .dwattr $C$DW$84, DW_AT_low_pc(0x00)
    1528                            .dwattr $C$DW$84, DW_AT_TI_return
    1529                    
    1530 000001d0 4770              BX        LR                    ; [DPU_V7M3_PIPE]  ; [ORIG 16-BIT INS]
    1531                            ; BRANCH OCCURS                  ; [] 
    1532                            .dwattr $C$DW$79, DW_AT_TI_end_file("../driverlib/pwm.c")
    1533                            .dwattr $C$DW$79, DW_AT_TI_end_line(0x29d)
    1534                            .dwattr $C$DW$79, DW_AT_TI_end_column(0x01)
    1535                            .dwendentry
    1536                            .dwendtag $C$DW$79
    1537                    
    1538 000001d2                   .sect   ".text"
    1539                            .clink
    1540                            .thumbfunc PWMSyncTimeBase
TI ARM Assembler Unix v18.1.1 Fri Jul  3 20:08:25 2020

Tools Copyright (c) 1996-2017 Texas Instruments Incorporated
pwm.asm                                                              PAGE   29

    1541 000001d2                   .thumb
    1542                            .global PWMSyncTimeBase
    1543                    
    1544                    $C$DW$85        .dwtag  DW_TAG_subprogram
    1545                            .dwattr $C$DW$85, DW_AT_name("PWMSyncTimeBase")
    1546                            .dwattr $C$DW$85, DW_AT_low_pc(PWMSyncTimeBase)
    1547                            .dwattr $C$DW$85, DW_AT_high_pc(0x00)
    1548                            .dwattr $C$DW$85, DW_AT_TI_symbol_name("PWMSyncTimeBase")
    1549                            .dwattr $C$DW$85, DW_AT_external
    1550                            .dwattr $C$DW$85, DW_AT_TI_begin_file("../driverlib/pwm.c")
    1551                            .dwattr $C$DW$85, DW_AT_TI_begin_line(0x2b0)
    1552                            .dwattr $C$DW$85, DW_AT_TI_begin_column(0x01)
    1553                            .dwattr $C$DW$85, DW_AT_decl_file("../driverlib/pwm.c")
    1554                            .dwattr $C$DW$85, DW_AT_decl_line(0x2b0)
    1555                            .dwattr $C$DW$85, DW_AT_decl_column(0x01)
    1556                            .dwattr $C$DW$85, DW_AT_TI_max_frame_size(0x08)
    1557                            .dwpsn  file "../driverlib/pwm.c",line 689,column 1,is_stmt,address PWMSyncTimeBase,isa 1
    1558                    
    1559                            .dwfde $C$DW$CIE, PWMSyncTimeBase
    1560                    $C$DW$86        .dwtag  DW_TAG_formal_parameter
    1561                            .dwattr $C$DW$86, DW_AT_name("ui32Base")
    1562                            .dwattr $C$DW$86, DW_AT_TI_symbol_name("ui32Base")
    1563                            .dwattr $C$DW$86, DW_AT_type(*$C$DW$T$27)
    1564                            .dwattr $C$DW$86, DW_AT_location[DW_OP_reg0]
    1565                    
    1566                    $C$DW$87        .dwtag  DW_TAG_formal_parameter
    1567                            .dwattr $C$DW$87, DW_AT_name("ui32GenBits")
    1568                            .dwattr $C$DW$87, DW_AT_TI_symbol_name("ui32GenBits")
    1569                            .dwattr $C$DW$87, DW_AT_type(*$C$DW$T$27)
    1570                            .dwattr $C$DW$87, DW_AT_location[DW_OP_reg1]
    1571                    
    1572                    ;----------------------------------------------------------------------
    1573                    ; 688 | PWMSyncTimeBase(uint32_t ui32Base, uint32_t ui32GenBits)               
    1574                    ;----------------------------------------------------------------------
    1575                    
    1576                    ;*****************************************************************************
    1577                    ;* FUNCTION NAME: PWMSyncTimeBase                                            *
    1578                    ;*                                                                           *
    1579                    ;*   Regs Modified     : A1,A2,SP                                            *
    1580                    ;*   Regs Used         : A1,A2,SP,LR                                         *
    1581                    ;*   Local Frame Size  : 0 Args + 8 Auto + 0 Save = 8 byte                   *
    1582                    ;*****************************************************************************
    1583 000001d2           PWMSyncTimeBase:
    1584                    ;* --------------------------------------------------------------------------*
    1585                            .dwcfi  cfa_offset, 0
    1586 000001d2 0D08F1AD          SUB       SP, SP, #8            ; [DPU_V7M3_PIPE]  ; [KEEP 32-BIT INS]
    1587                            .dwcfi  cfa_offset, 8
    1588                    $C$DW$88        .dwtag  DW_TAG_variable
    1589                            .dwattr $C$DW$88, DW_AT_name("ui32Base")
    1590                            .dwattr $C$DW$88, DW_AT_TI_symbol_name("ui32Base")
    1591                            .dwattr $C$DW$88, DW_AT_type(*$C$DW$T$27)
    1592                            .dwattr $C$DW$88, DW_AT_location[DW_OP_breg13 0]
    1593                    
    1594                    $C$DW$89        .dwtag  DW_TAG_variable
    1595                            .dwattr $C$DW$89, DW_AT_name("ui32GenBits")
TI ARM Assembler Unix v18.1.1 Fri Jul  3 20:08:25 2020

Tools Copyright (c) 1996-2017 Texas Instruments Incorporated
pwm.asm                                                              PAGE   30

    1596                            .dwattr $C$DW$89, DW_AT_TI_symbol_name("ui32GenBits")
    1597                            .dwattr $C$DW$89, DW_AT_type(*$C$DW$T$27)
    1598                            .dwattr $C$DW$89, DW_AT_location[DW_OP_breg13 4]
    1599                    
    1600                    ;----------------------------------------------------------------------
    1601                    ; 690 | //                                                                     
    1602                    ; 691 | // Check the arguments.                                                
    1603                    ; 692 | //                                                                     
    1604                    ; 693 | ASSERT((ui32Base == PWM0_BASE) || (ui32Base == PWM1_BASE));            
    1605                    ; 694 | ASSERT(!(ui32GenBits & ~(PWM_GEN_0_BIT | PWM_GEN_1_BIT | PWM_GEN_2_BIT
    1606                    ;     | |                                                                      
    1607                    ; 695 |                          PWM_GEN_3_BIT)));                             
    1608                    ; 697 | //                                                                     
    1609                    ; 698 | // Synchronize the counters in the specified generators by writing to t
    1610                    ;     | he                                                                     
    1611                    ; 699 | // module's synchronization register.                                  
    1612                    ; 700 | //                                                                     
    1613                    ;----------------------------------------------------------------------
    1614 000001d6 9101              STR       A2, [SP, #4]          ; [DPU_V7M3_PIPE] |689|  ; [ORIG 16-BIT INS]
    1615 000001d8 9000              STR       A1, [SP, #0]          ; [DPU_V7M3_PIPE] |689|  ; [ORIG 16-BIT INS]
    1616                            .dwpsn  file "../driverlib/pwm.c",line 701,column 5,is_stmt,isa 1
    1617                    ;----------------------------------------------------------------------
    1618                    ; 701 | HWREG(ui32Base + PWM_O_SYNC) = ui32GenBits;                            
    1619                    ;----------------------------------------------------------------------
    1620 000001da 9801              LDR       A1, [SP, #4]          ; [DPU_V7M3_PIPE] |701|  ; [ORIG 16-BIT INS]
    1621 000001dc 9900              LDR       A2, [SP, #0]          ; [DPU_V7M3_PIPE] |701|  ; [ORIG 16-BIT INS]
    1622 000001de 6048              STR       A1, [A2, #4]          ; [DPU_V7M3_PIPE] |701|  ; [ORIG 16-BIT INS]
    1623                            .dwpsn  file "../driverlib/pwm.c",line 702,column 1,is_stmt,isa 1
    1624 000001e0 B002              ADD       SP, SP, #8            ; [DPU_V7M3_PIPE]  ; [ORIG 16-BIT INS]
    1625                            .dwcfi  cfa_offset, 0
    1626                    $C$DW$90        .dwtag  DW_TAG_TI_branch
    1627                            .dwattr $C$DW$90, DW_AT_low_pc(0x00)
    1628                            .dwattr $C$DW$90, DW_AT_TI_return
    1629                    
    1630 000001e2 4770              BX        LR                    ; [DPU_V7M3_PIPE]  ; [ORIG 16-BIT INS]
    1631                            ; BRANCH OCCURS                  ; [] 
    1632                            .dwattr $C$DW$85, DW_AT_TI_end_file("../driverlib/pwm.c")
    1633                            .dwattr $C$DW$85, DW_AT_TI_end_line(0x2be)
    1634                            .dwattr $C$DW$85, DW_AT_TI_end_column(0x01)
    1635                            .dwendentry
    1636                            .dwendtag $C$DW$85
    1637                    
    1638 000001e4                   .sect   ".text"
    1639                            .clink
    1640                            .thumbfunc PWMOutputState
    1641 000001e4                   .thumb
    1642                            .global PWMOutputState
    1643                    
    1644                    $C$DW$91        .dwtag  DW_TAG_subprogram
    1645                            .dwattr $C$DW$91, DW_AT_name("PWMOutputState")
    1646                            .dwattr $C$DW$91, DW_AT_low_pc(PWMOutputState)
    1647                            .dwattr $C$DW$91, DW_AT_high_pc(0x00)
    1648                            .dwattr $C$DW$91, DW_AT_TI_symbol_name("PWMOutputState")
    1649                            .dwattr $C$DW$91, DW_AT_external
    1650                            .dwattr $C$DW$91, DW_AT_TI_begin_file("../driverlib/pwm.c")
TI ARM Assembler Unix v18.1.1 Fri Jul  3 20:08:25 2020

Tools Copyright (c) 1996-2017 Texas Instruments Incorporated
pwm.asm                                                              PAGE   31

    1651                            .dwattr $C$DW$91, DW_AT_TI_begin_line(0x2d6)
    1652                            .dwattr $C$DW$91, DW_AT_TI_begin_column(0x01)
    1653                            .dwattr $C$DW$91, DW_AT_decl_file("../driverlib/pwm.c")
    1654                            .dwattr $C$DW$91, DW_AT_decl_line(0x2d6)
    1655                            .dwattr $C$DW$91, DW_AT_decl_column(0x01)
    1656                            .dwattr $C$DW$91, DW_AT_TI_max_frame_size(0x10)
    1657                            .dwpsn  file "../driverlib/pwm.c",line 728,column 1,is_stmt,address PWMOutputState,isa 1
    1658                    
    1659                            .dwfde $C$DW$CIE, PWMOutputState
    1660                    $C$DW$92        .dwtag  DW_TAG_formal_parameter
    1661                            .dwattr $C$DW$92, DW_AT_name("ui32Base")
    1662                            .dwattr $C$DW$92, DW_AT_TI_symbol_name("ui32Base")
    1663                            .dwattr $C$DW$92, DW_AT_type(*$C$DW$T$27)
    1664                            .dwattr $C$DW$92, DW_AT_location[DW_OP_reg0]
    1665                    
    1666                    $C$DW$93        .dwtag  DW_TAG_formal_parameter
    1667                            .dwattr $C$DW$93, DW_AT_name("ui32PWMOutBits")
    1668                            .dwattr $C$DW$93, DW_AT_TI_symbol_name("ui32PWMOutBits")
    1669                            .dwattr $C$DW$93, DW_AT_type(*$C$DW$T$27)
    1670                            .dwattr $C$DW$93, DW_AT_location[DW_OP_reg1]
    1671                    
    1672                    $C$DW$94        .dwtag  DW_TAG_formal_parameter
    1673                            .dwattr $C$DW$94, DW_AT_name("bEnable")
    1674                            .dwattr $C$DW$94, DW_AT_TI_symbol_name("bEnable")
    1675                            .dwattr $C$DW$94, DW_AT_type(*$C$DW$T$37)
    1676                            .dwattr $C$DW$94, DW_AT_location[DW_OP_reg2]
    1677                    
    1678                    ;----------------------------------------------------------------------
    1679                    ; 726 | PWMOutputState(uint32_t ui32Base, uint32_t ui32PWMOutBits,             
    1680                    ; 727 | bool bEnable)                                                          
    1681                    ;----------------------------------------------------------------------
    1682                    
    1683                    ;*****************************************************************************
    1684                    ;* FUNCTION NAME: PWMOutputState                                             *
    1685                    ;*                                                                           *
    1686                    ;*   Regs Modified     : A1,A2,A3,SP,SR                                      *
    1687                    ;*   Regs Used         : A1,A2,A3,SP,LR,SR                                   *
    1688                    ;*   Local Frame Size  : 0 Args + 12 Auto + 0 Save = 12 byte                 *
    1689                    ;*****************************************************************************
    1690 000001e4           PWMOutputState:
    1691                    ;* --------------------------------------------------------------------------*
    1692                            .dwcfi  cfa_offset, 0
    1693 000001e4 0D10F1AD          SUB       SP, SP, #16           ; [DPU_V7M3_PIPE]  ; [KEEP 32-BIT INS]
    1694                            .dwcfi  cfa_offset, 16
    1695                    $C$DW$95        .dwtag  DW_TAG_variable
    1696                            .dwattr $C$DW$95, DW_AT_name("ui32Base")
    1697                            .dwattr $C$DW$95, DW_AT_TI_symbol_name("ui32Base")
    1698                            .dwattr $C$DW$95, DW_AT_type(*$C$DW$T$27)
    1699                            .dwattr $C$DW$95, DW_AT_location[DW_OP_breg13 0]
    1700                    
    1701                    $C$DW$96        .dwtag  DW_TAG_variable
    1702                            .dwattr $C$DW$96, DW_AT_name("ui32PWMOutBits")
    1703                            .dwattr $C$DW$96, DW_AT_TI_symbol_name("ui32PWMOutBits")
    1704                            .dwattr $C$DW$96, DW_AT_type(*$C$DW$T$27)
    1705                            .dwattr $C$DW$96, DW_AT_location[DW_OP_breg13 4]
TI ARM Assembler Unix v18.1.1 Fri Jul  3 20:08:25 2020

Tools Copyright (c) 1996-2017 Texas Instruments Incorporated
pwm.asm                                                              PAGE   32

    1706                    
    1707                    $C$DW$97        .dwtag  DW_TAG_variable
    1708                            .dwattr $C$DW$97, DW_AT_name("bEnable")
    1709                            .dwattr $C$DW$97, DW_AT_TI_symbol_name("bEnable")
    1710                            .dwattr $C$DW$97, DW_AT_type(*$C$DW$T$37)
    1711                            .dwattr $C$DW$97, DW_AT_location[DW_OP_breg13 8]
    1712                    
    1713                    ;----------------------------------------------------------------------
    1714                    ; 729 | //                                                                     
    1715                    ; 730 | // Check the arguments.                                                
    1716                    ; 731 | //                                                                     
    1717                    ; 732 | ASSERT((ui32Base == PWM0_BASE) || (ui32Base == PWM1_BASE));            
    1718                    ; 733 | ASSERT(!(ui32PWMOutBits & ~(PWM_OUT_0_BIT | PWM_OUT_1_BIT | PWM_OUT_2_B
    1719                    ;     | IT |                                                                   
    1720                    ; 734 |                             PWM_OUT_3_BIT | PWM_OUT_4_BIT | PWM_OUT_5_B
    1721                    ;     | IT |                                                                   
    1722                    ; 735 |                             PWM_OUT_6_BIT | PWM_OUT_7_BIT)));          
    1723                    ; 737 | //                                                                     
    1724                    ; 738 | // Read the module's ENABLE output control register and set or clear th
    1725                    ;     | e                                                                      
    1726                    ; 739 | // requested bits.                                                     
    1727                    ; 740 | //                                                                     
    1728                    ;----------------------------------------------------------------------
    1729 000001e8 2008F88D          STRB      A3, [SP, #8]          ; [DPU_V7M3_PIPE] |728|  ; [KEEP 32-BIT INS]
    1730 000001ec 9101              STR       A2, [SP, #4]          ; [DPU_V7M3_PIPE] |728|  ; [ORIG 16-BIT INS]
    1731 000001ee 9000              STR       A1, [SP, #0]          ; [DPU_V7M3_PIPE] |728|  ; [ORIG 16-BIT INS]
    1732                            .dwpsn  file "../driverlib/pwm.c",line 741,column 5,is_stmt,isa 1
    1733                    ;----------------------------------------------------------------------
    1734                    ; 741 | if(bEnable == true)                                                    
    1735                    ;----------------------------------------------------------------------
    1736 000001f0 0008F89D          LDRB      A1, [SP, #8]          ; [DPU_V7M3_PIPE] |741|  ; [KEEP 32-BIT INS]
    1737 000001f4 2801              CMP       A1, #1                ; [DPU_V7M3_PIPE] |741|  ; [ORIG 16-BIT INS]
    1738 000001f6 D106              BNE       ||$C$L13||            ; [DPU_V7M3_PIPE] |741|  ; [ORIG 16-BIT INS]
    1739                            ; BRANCHCC OCCURS {||$C$L13||}   ; [] |741| 
    1740                    ;* --------------------------------------------------------------------------*
    1741                            .dwpsn  file "../driverlib/pwm.c",line 743,column 9,is_stmt,isa 1
    1742                    ;----------------------------------------------------------------------
    1743                    ; 743 | HWREG(ui32Base + PWM_O_ENABLE) |= ui32PWMOutBits;                      
    1744                    ;----------------------------------------------------------------------
    1745 000001f8 9800              LDR       A1, [SP, #0]          ; [DPU_V7M3_PIPE] |743|  ; [ORIG 16-BIT INS]
    1746 000001fa 9901              LDR       A2, [SP, #4]          ; [DPU_V7M3_PIPE] |743|  ; [ORIG 16-BIT INS]
    1747 000001fc 3008              ADDS      A1, A1, #8            ; [DPU_V7M3_PIPE] |743|  ; [ORIG 16-BIT INS]
    1748 000001fe 6802              LDR       A3, [A1, #0]          ; [DPU_V7M3_PIPE] |743|  ; [ORIG 16-BIT INS]
    1749 00000200 4311              ORRS      A2, A2, A3            ; [DPU_V7M3_PIPE] |743|  ; [ORIG 16-BIT INS]
    1750 00000202 6001              STR       A2, [A1, #0]          ; [DPU_V7M3_PIPE] |743|  ; [ORIG 16-BIT INS]
    1751                            .dwpsn  file "../driverlib/pwm.c",line 744,column 5,is_stmt,isa 1
    1752                    ;----------------------------------------------------------------------
    1753                    ; 745 | else                                                                   
    1754                    ;----------------------------------------------------------------------
    1755 00000204 E005              B         ||$C$L14||            ; [DPU_V7M3_PIPE] |744|  ; [ORIG 16-BIT INS]
    1756                            ; BRANCH OCCURS {||$C$L14||}     ; [] |744| 
    1757                    ;* --------------------------------------------------------------------------*
    1758 00000206           ||$C$L13||:    
    1759                            .dwpsn  file "../driverlib/pwm.c",line 747,column 9,is_stmt,isa 1
    1760                    ;----------------------------------------------------------------------
TI ARM Assembler Unix v18.1.1 Fri Jul  3 20:08:25 2020

Tools Copyright (c) 1996-2017 Texas Instruments Incorporated
pwm.asm                                                              PAGE   33

    1761                    ; 747 | HWREG(ui32Base + PWM_O_ENABLE) &= ~(ui32PWMOutBits);                   
    1762                    ;----------------------------------------------------------------------
    1763 00000206 9800              LDR       A1, [SP, #0]          ; [DPU_V7M3_PIPE] |747|  ; [ORIG 16-BIT INS]
    1764 00000208 9A01              LDR       A3, [SP, #4]          ; [DPU_V7M3_PIPE] |747|  ; [ORIG 16-BIT INS]
    1765 0000020a 3008              ADDS      A1, A1, #8            ; [DPU_V7M3_PIPE] |747|  ; [ORIG 16-BIT INS]
    1766 0000020c 6801              LDR       A2, [A1, #0]          ; [DPU_V7M3_PIPE] |747|  ; [ORIG 16-BIT INS]
    1767 0000020e 4391              BICS      A2, A2, A3            ; [DPU_V7M3_PIPE] |747|  ; [ORIG 16-BIT INS]
    1768 00000210 6001              STR       A2, [A1, #0]          ; [DPU_V7M3_PIPE] |747|  ; [ORIG 16-BIT INS]
    1769                            .dwpsn  file "../driverlib/pwm.c",line 749,column 1,is_stmt,isa 1
    1770                    ;* --------------------------------------------------------------------------*
    1771 00000212           ||$C$L14||:    
    1772 00000212 B004              ADD       SP, SP, #16           ; [DPU_V7M3_PIPE]  ; [ORIG 16-BIT INS]
    1773                            .dwcfi  cfa_offset, 0
    1774                    $C$DW$98        .dwtag  DW_TAG_TI_branch
    1775                            .dwattr $C$DW$98, DW_AT_low_pc(0x00)
    1776                            .dwattr $C$DW$98, DW_AT_TI_return
    1777                    
    1778 00000214 4770              BX        LR                    ; [DPU_V7M3_PIPE]  ; [ORIG 16-BIT INS]
    1779                            ; BRANCH OCCURS                  ; [] 
    1780                            .dwattr $C$DW$91, DW_AT_TI_end_file("../driverlib/pwm.c")
    1781                            .dwattr $C$DW$91, DW_AT_TI_end_line(0x2ed)
    1782                            .dwattr $C$DW$91, DW_AT_TI_end_column(0x01)
    1783                            .dwendentry
    1784                            .dwendtag $C$DW$91
    1785                    
    1786 00000216                   .sect   ".text"
    1787                            .clink
    1788                            .thumbfunc PWMOutputInvert
    1789 00000216                   .thumb
    1790                            .global PWMOutputInvert
    1791                    
    1792                    $C$DW$99        .dwtag  DW_TAG_subprogram
    1793                            .dwattr $C$DW$99, DW_AT_name("PWMOutputInvert")
    1794                            .dwattr $C$DW$99, DW_AT_low_pc(PWMOutputInvert)
    1795                            .dwattr $C$DW$99, DW_AT_high_pc(0x00)
    1796                            .dwattr $C$DW$99, DW_AT_TI_symbol_name("PWMOutputInvert")
    1797                            .dwattr $C$DW$99, DW_AT_external
    1798                            .dwattr $C$DW$99, DW_AT_TI_begin_file("../driverlib/pwm.c")
    1799                            .dwattr $C$DW$99, DW_AT_TI_begin_line(0x306)
    1800                            .dwattr $C$DW$99, DW_AT_TI_begin_column(0x01)
    1801                            .dwattr $C$DW$99, DW_AT_decl_file("../driverlib/pwm.c")
    1802                            .dwattr $C$DW$99, DW_AT_decl_line(0x306)
    1803                            .dwattr $C$DW$99, DW_AT_decl_column(0x01)
    1804                            .dwattr $C$DW$99, DW_AT_TI_max_frame_size(0x10)
    1805                            .dwpsn  file "../driverlib/pwm.c",line 776,column 1,is_stmt,address PWMOutputInvert,isa 1
    1806                    
    1807                            .dwfde $C$DW$CIE, PWMOutputInvert
    1808                    $C$DW$100       .dwtag  DW_TAG_formal_parameter
    1809                            .dwattr $C$DW$100, DW_AT_name("ui32Base")
    1810                            .dwattr $C$DW$100, DW_AT_TI_symbol_name("ui32Base")
    1811                            .dwattr $C$DW$100, DW_AT_type(*$C$DW$T$27)
    1812                            .dwattr $C$DW$100, DW_AT_location[DW_OP_reg0]
    1813                    
    1814                    $C$DW$101       .dwtag  DW_TAG_formal_parameter
    1815                            .dwattr $C$DW$101, DW_AT_name("ui32PWMOutBits")
TI ARM Assembler Unix v18.1.1 Fri Jul  3 20:08:25 2020

Tools Copyright (c) 1996-2017 Texas Instruments Incorporated
pwm.asm                                                              PAGE   34

    1816                            .dwattr $C$DW$101, DW_AT_TI_symbol_name("ui32PWMOutBits")
    1817                            .dwattr $C$DW$101, DW_AT_type(*$C$DW$T$27)
    1818                            .dwattr $C$DW$101, DW_AT_location[DW_OP_reg1]
    1819                    
    1820                    $C$DW$102       .dwtag  DW_TAG_formal_parameter
    1821                            .dwattr $C$DW$102, DW_AT_name("bInvert")
    1822                            .dwattr $C$DW$102, DW_AT_TI_symbol_name("bInvert")
    1823                            .dwattr $C$DW$102, DW_AT_type(*$C$DW$T$37)
    1824                            .dwattr $C$DW$102, DW_AT_location[DW_OP_reg2]
    1825                    
    1826                    ;----------------------------------------------------------------------
    1827                    ; 774 | PWMOutputInvert(uint32_t ui32Base, uint32_t ui32PWMOutBits,            
    1828                    ; 775 | bool bInvert)                                                          
    1829                    ;----------------------------------------------------------------------
    1830                    
    1831                    ;*****************************************************************************
    1832                    ;* FUNCTION NAME: PWMOutputInvert                                            *
    1833                    ;*                                                                           *
    1834                    ;*   Regs Modified     : A1,A2,A3,SP,SR                                      *
    1835                    ;*   Regs Used         : A1,A2,A3,SP,LR,SR                                   *
    1836                    ;*   Local Frame Size  : 0 Args + 12 Auto + 0 Save = 12 byte                 *
    1837                    ;*****************************************************************************
    1838 00000216           PWMOutputInvert:
    1839                    ;* --------------------------------------------------------------------------*
    1840                            .dwcfi  cfa_offset, 0
    1841 00000216 0D10F1AD          SUB       SP, SP, #16           ; [DPU_V7M3_PIPE]  ; [KEEP 32-BIT INS]
    1842                            .dwcfi  cfa_offset, 16
    1843                    $C$DW$103       .dwtag  DW_TAG_variable
    1844                            .dwattr $C$DW$103, DW_AT_name("ui32Base")
    1845                            .dwattr $C$DW$103, DW_AT_TI_symbol_name("ui32Base")
    1846                            .dwattr $C$DW$103, DW_AT_type(*$C$DW$T$27)
    1847                            .dwattr $C$DW$103, DW_AT_location[DW_OP_breg13 0]
    1848                    
    1849                    $C$DW$104       .dwtag  DW_TAG_variable
    1850                            .dwattr $C$DW$104, DW_AT_name("ui32PWMOutBits")
    1851                            .dwattr $C$DW$104, DW_AT_TI_symbol_name("ui32PWMOutBits")
    1852                            .dwattr $C$DW$104, DW_AT_type(*$C$DW$T$27)
    1853                            .dwattr $C$DW$104, DW_AT_location[DW_OP_breg13 4]
    1854                    
    1855                    $C$DW$105       .dwtag  DW_TAG_variable
    1856                            .dwattr $C$DW$105, DW_AT_name("bInvert")
    1857                            .dwattr $C$DW$105, DW_AT_TI_symbol_name("bInvert")
    1858                            .dwattr $C$DW$105, DW_AT_type(*$C$DW$T$37)
    1859                            .dwattr $C$DW$105, DW_AT_location[DW_OP_breg13 8]
    1860                    
    1861                    ;----------------------------------------------------------------------
    1862                    ; 777 | //                                                                     
    1863                    ; 778 | // Check the arguments.                                                
    1864                    ; 779 | //                                                                     
    1865                    ; 780 | ASSERT((ui32Base == PWM0_BASE) || (ui32Base == PWM1_BASE));            
    1866                    ; 781 | ASSERT(!(ui32PWMOutBits & ~(PWM_OUT_0_BIT | PWM_OUT_1_BIT | PWM_OUT_2_B
    1867                    ;     | IT |                                                                   
    1868                    ; 782 |                             PWM_OUT_3_BIT | PWM_OUT_4_BIT | PWM_OUT_5_B
    1869                    ;     | IT |                                                                   
    1870                    ; 783 |                             PWM_OUT_6_BIT | PWM_OUT_7_BIT)));          
TI ARM Assembler Unix v18.1.1 Fri Jul  3 20:08:25 2020

Tools Copyright (c) 1996-2017 Texas Instruments Incorporated
pwm.asm                                                              PAGE   35

    1871                    ; 785 | //                                                                     
    1872                    ; 786 | // Read the module's INVERT output control register and set or clear th
    1873                    ;     | e                                                                      
    1874                    ; 787 | // requested bits.                                                     
    1875                    ; 788 | //                                                                     
    1876                    ;----------------------------------------------------------------------
    1877 0000021a 2008F88D          STRB      A3, [SP, #8]          ; [DPU_V7M3_PIPE] |776|  ; [KEEP 32-BIT INS]
    1878 0000021e 9101              STR       A2, [SP, #4]          ; [DPU_V7M3_PIPE] |776|  ; [ORIG 16-BIT INS]
    1879 00000220 9000              STR       A1, [SP, #0]          ; [DPU_V7M3_PIPE] |776|  ; [ORIG 16-BIT INS]
    1880                            .dwpsn  file "../driverlib/pwm.c",line 789,column 5,is_stmt,isa 1
    1881                    ;----------------------------------------------------------------------
    1882                    ; 789 | if(bInvert == true)                                                    
    1883                    ;----------------------------------------------------------------------
    1884 00000222 0008F89D          LDRB      A1, [SP, #8]          ; [DPU_V7M3_PIPE] |789|  ; [KEEP 32-BIT INS]
    1885 00000226 2801              CMP       A1, #1                ; [DPU_V7M3_PIPE] |789|  ; [ORIG 16-BIT INS]
    1886 00000228 D106              BNE       ||$C$L15||            ; [DPU_V7M3_PIPE] |789|  ; [ORIG 16-BIT INS]
    1887                            ; BRANCHCC OCCURS {||$C$L15||}   ; [] |789| 
    1888                    ;* --------------------------------------------------------------------------*
    1889                            .dwpsn  file "../driverlib/pwm.c",line 791,column 9,is_stmt,isa 1
    1890                    ;----------------------------------------------------------------------
    1891                    ; 791 | HWREG(ui32Base + PWM_O_INVERT) |= ui32PWMOutBits;                      
    1892                    ;----------------------------------------------------------------------
    1893 0000022a 9800              LDR       A1, [SP, #0]          ; [DPU_V7M3_PIPE] |791|  ; [ORIG 16-BIT INS]
    1894 0000022c 9901              LDR       A2, [SP, #4]          ; [DPU_V7M3_PIPE] |791|  ; [ORIG 16-BIT INS]
    1895 0000022e 300C              ADDS      A1, A1, #12           ; [DPU_V7M3_PIPE] |791|  ; [ORIG 16-BIT INS]
    1896 00000230 6802              LDR       A3, [A1, #0]          ; [DPU_V7M3_PIPE] |791|  ; [ORIG 16-BIT INS]
    1897 00000232 4311              ORRS      A2, A2, A3            ; [DPU_V7M3_PIPE] |791|  ; [ORIG 16-BIT INS]
    1898 00000234 6001              STR       A2, [A1, #0]          ; [DPU_V7M3_PIPE] |791|  ; [ORIG 16-BIT INS]
    1899                            .dwpsn  file "../driverlib/pwm.c",line 792,column 5,is_stmt,isa 1
    1900                    ;----------------------------------------------------------------------
    1901                    ; 793 | else                                                                   
    1902                    ;----------------------------------------------------------------------
    1903 00000236 E005              B         ||$C$L16||            ; [DPU_V7M3_PIPE] |792|  ; [ORIG 16-BIT INS]
    1904                            ; BRANCH OCCURS {||$C$L16||}     ; [] |792| 
    1905                    ;* --------------------------------------------------------------------------*
    1906 00000238           ||$C$L15||:    
    1907                            .dwpsn  file "../driverlib/pwm.c",line 795,column 9,is_stmt,isa 1
    1908                    ;----------------------------------------------------------------------
    1909                    ; 795 | HWREG(ui32Base + PWM_O_INVERT) &= ~(ui32PWMOutBits);                   
    1910                    ;----------------------------------------------------------------------
    1911 00000238 9800              LDR       A1, [SP, #0]          ; [DPU_V7M3_PIPE] |795|  ; [ORIG 16-BIT INS]
    1912 0000023a 9A01              LDR       A3, [SP, #4]          ; [DPU_V7M3_PIPE] |795|  ; [ORIG 16-BIT INS]
    1913 0000023c 300C              ADDS      A1, A1, #12           ; [DPU_V7M3_PIPE] |795|  ; [ORIG 16-BIT INS]
    1914 0000023e 6801              LDR       A2, [A1, #0]          ; [DPU_V7M3_PIPE] |795|  ; [ORIG 16-BIT INS]
    1915 00000240 4391              BICS      A2, A2, A3            ; [DPU_V7M3_PIPE] |795|  ; [ORIG 16-BIT INS]
    1916 00000242 6001              STR       A2, [A1, #0]          ; [DPU_V7M3_PIPE] |795|  ; [ORIG 16-BIT INS]
    1917                            .dwpsn  file "../driverlib/pwm.c",line 797,column 1,is_stmt,isa 1
    1918                    ;* --------------------------------------------------------------------------*
    1919 00000244           ||$C$L16||:    
    1920 00000244 B004              ADD       SP, SP, #16           ; [DPU_V7M3_PIPE]  ; [ORIG 16-BIT INS]
    1921                            .dwcfi  cfa_offset, 0
    1922                    $C$DW$106       .dwtag  DW_TAG_TI_branch
    1923                            .dwattr $C$DW$106, DW_AT_low_pc(0x00)
    1924                            .dwattr $C$DW$106, DW_AT_TI_return
    1925                    
TI ARM Assembler Unix v18.1.1 Fri Jul  3 20:08:25 2020

Tools Copyright (c) 1996-2017 Texas Instruments Incorporated
pwm.asm                                                              PAGE   36

    1926 00000246 4770              BX        LR                    ; [DPU_V7M3_PIPE]  ; [ORIG 16-BIT INS]
    1927                            ; BRANCH OCCURS                  ; [] 
    1928                            .dwattr $C$DW$99, DW_AT_TI_end_file("../driverlib/pwm.c")
    1929                            .dwattr $C$DW$99, DW_AT_TI_end_line(0x31d)
    1930                            .dwattr $C$DW$99, DW_AT_TI_end_column(0x01)
    1931                            .dwendentry
    1932                            .dwendtag $C$DW$99
    1933                    
    1934 00000248                   .sect   ".text"
    1935                            .clink
    1936                            .thumbfunc PWMOutputFaultLevel
    1937 00000248                   .thumb
    1938                            .global PWMOutputFaultLevel
    1939                    
    1940                    $C$DW$107       .dwtag  DW_TAG_subprogram
    1941                            .dwattr $C$DW$107, DW_AT_name("PWMOutputFaultLevel")
    1942                            .dwattr $C$DW$107, DW_AT_low_pc(PWMOutputFaultLevel)
    1943                            .dwattr $C$DW$107, DW_AT_high_pc(0x00)
    1944                            .dwattr $C$DW$107, DW_AT_TI_symbol_name("PWMOutputFaultLevel")
    1945                            .dwattr $C$DW$107, DW_AT_external
    1946                            .dwattr $C$DW$107, DW_AT_TI_begin_file("../driverlib/pwm.c")
    1947                            .dwattr $C$DW$107, DW_AT_TI_begin_line(0x33e)
    1948                            .dwattr $C$DW$107, DW_AT_TI_begin_column(0x01)
    1949                            .dwattr $C$DW$107, DW_AT_decl_file("../driverlib/pwm.c")
    1950                            .dwattr $C$DW$107, DW_AT_decl_line(0x33e)
    1951                            .dwattr $C$DW$107, DW_AT_decl_column(0x01)
    1952                            .dwattr $C$DW$107, DW_AT_TI_max_frame_size(0x10)
    1953                            .dwpsn  file "../driverlib/pwm.c",line 832,column 1,is_stmt,address PWMOutputFaultLevel,isa 1
    1954                    
    1955                            .dwfde $C$DW$CIE, PWMOutputFaultLevel
    1956                    $C$DW$108       .dwtag  DW_TAG_formal_parameter
    1957                            .dwattr $C$DW$108, DW_AT_name("ui32Base")
    1958                            .dwattr $C$DW$108, DW_AT_TI_symbol_name("ui32Base")
    1959                            .dwattr $C$DW$108, DW_AT_type(*$C$DW$T$27)
    1960                            .dwattr $C$DW$108, DW_AT_location[DW_OP_reg0]
    1961                    
    1962                    $C$DW$109       .dwtag  DW_TAG_formal_parameter
    1963                            .dwattr $C$DW$109, DW_AT_name("ui32PWMOutBits")
    1964                            .dwattr $C$DW$109, DW_AT_TI_symbol_name("ui32PWMOutBits")
    1965                            .dwattr $C$DW$109, DW_AT_type(*$C$DW$T$27)
    1966                            .dwattr $C$DW$109, DW_AT_location[DW_OP_reg1]
    1967                    
    1968                    $C$DW$110       .dwtag  DW_TAG_formal_parameter
    1969                            .dwattr $C$DW$110, DW_AT_name("bDriveHigh")
    1970                            .dwattr $C$DW$110, DW_AT_TI_symbol_name("bDriveHigh")
    1971                            .dwattr $C$DW$110, DW_AT_type(*$C$DW$T$37)
    1972                            .dwattr $C$DW$110, DW_AT_location[DW_OP_reg2]
    1973                    
    1974                    ;----------------------------------------------------------------------
    1975                    ; 830 | PWMOutputFaultLevel(uint32_t ui32Base, uint32_t ui32PWMOutBits,        
    1976                    ; 831 | bool bDriveHigh)                                                       
    1977                    ;----------------------------------------------------------------------
    1978                    
    1979                    ;*****************************************************************************
    1980                    ;* FUNCTION NAME: PWMOutputFaultLevel                                        *
TI ARM Assembler Unix v18.1.1 Fri Jul  3 20:08:25 2020

Tools Copyright (c) 1996-2017 Texas Instruments Incorporated
pwm.asm                                                              PAGE   37

    1981                    ;*                                                                           *
    1982                    ;*   Regs Modified     : A1,A2,A3,SP,SR                                      *
    1983                    ;*   Regs Used         : A1,A2,A3,SP,LR,SR                                   *
    1984                    ;*   Local Frame Size  : 0 Args + 12 Auto + 0 Save = 12 byte                 *
    1985                    ;*****************************************************************************
    1986 00000248           PWMOutputFaultLevel:
    1987                    ;* --------------------------------------------------------------------------*
    1988                            .dwcfi  cfa_offset, 0
    1989 00000248 0D10F1AD          SUB       SP, SP, #16           ; [DPU_V7M3_PIPE]  ; [KEEP 32-BIT INS]
    1990                            .dwcfi  cfa_offset, 16
    1991                    $C$DW$111       .dwtag  DW_TAG_variable
    1992                            .dwattr $C$DW$111, DW_AT_name("ui32Base")
    1993                            .dwattr $C$DW$111, DW_AT_TI_symbol_name("ui32Base")
    1994                            .dwattr $C$DW$111, DW_AT_type(*$C$DW$T$27)
    1995                            .dwattr $C$DW$111, DW_AT_location[DW_OP_breg13 0]
    1996                    
    1997                    $C$DW$112       .dwtag  DW_TAG_variable
    1998                            .dwattr $C$DW$112, DW_AT_name("ui32PWMOutBits")
    1999                            .dwattr $C$DW$112, DW_AT_TI_symbol_name("ui32PWMOutBits")
    2000                            .dwattr $C$DW$112, DW_AT_type(*$C$DW$T$27)
    2001                            .dwattr $C$DW$112, DW_AT_location[DW_OP_breg13 4]
    2002                    
    2003                    $C$DW$113       .dwtag  DW_TAG_variable
    2004                            .dwattr $C$DW$113, DW_AT_name("bDriveHigh")
    2005                            .dwattr $C$DW$113, DW_AT_TI_symbol_name("bDriveHigh")
    2006                            .dwattr $C$DW$113, DW_AT_type(*$C$DW$T$37)
    2007                            .dwattr $C$DW$113, DW_AT_location[DW_OP_breg13 8]
    2008                    
    2009                    ;----------------------------------------------------------------------
    2010                    ; 833 | //                                                                     
    2011                    ; 834 | // Check the arguments.                                                
    2012                    ; 835 | //                                                                     
    2013                    ; 836 | ASSERT((ui32Base == PWM0_BASE) || (ui32Base == PWM1_BASE));            
    2014                    ; 837 | ASSERT(!(ui32PWMOutBits & ~(PWM_OUT_0_BIT | PWM_OUT_1_BIT | PWM_OUT_2_B
    2015                    ;     | IT |                                                                   
    2016                    ; 838 |                             PWM_OUT_3_BIT | PWM_OUT_4_BIT | PWM_OUT_5_B
    2017                    ;     | IT |                                                                   
    2018                    ; 839 |                             PWM_OUT_6_BIT | PWM_OUT_7_BIT)));          
    2019                    ; 841 | //                                                                     
    2020                    ; 842 | // Read the module's FAULT output control register and set or clear the
    2021                    ; 843 | // requested bits.                                                     
    2022                    ; 844 | //                                                                     
    2023                    ;----------------------------------------------------------------------
    2024 0000024c 2008F88D          STRB      A3, [SP, #8]          ; [DPU_V7M3_PIPE] |832|  ; [KEEP 32-BIT INS]
    2025 00000250 9101              STR       A2, [SP, #4]          ; [DPU_V7M3_PIPE] |832|  ; [ORIG 16-BIT INS]
    2026 00000252 9000              STR       A1, [SP, #0]          ; [DPU_V7M3_PIPE] |832|  ; [ORIG 16-BIT INS]
    2027                            .dwpsn  file "../driverlib/pwm.c",line 845,column 5,is_stmt,isa 1
    2028                    ;----------------------------------------------------------------------
    2029                    ; 845 | if(bDriveHigh == true)                                                 
    2030                    ;----------------------------------------------------------------------
    2031 00000254 0008F89D          LDRB      A1, [SP, #8]          ; [DPU_V7M3_PIPE] |845|  ; [KEEP 32-BIT INS]
    2032 00000258 2801              CMP       A1, #1                ; [DPU_V7M3_PIPE] |845|  ; [ORIG 16-BIT INS]
    2033 0000025a D106              BNE       ||$C$L17||            ; [DPU_V7M3_PIPE] |845|  ; [ORIG 16-BIT INS]
    2034                            ; BRANCHCC OCCURS {||$C$L17||}   ; [] |845| 
    2035                    ;* --------------------------------------------------------------------------*
TI ARM Assembler Unix v18.1.1 Fri Jul  3 20:08:25 2020

Tools Copyright (c) 1996-2017 Texas Instruments Incorporated
pwm.asm                                                              PAGE   38

    2036                            .dwpsn  file "../driverlib/pwm.c",line 847,column 9,is_stmt,isa 1
    2037                    ;----------------------------------------------------------------------
    2038                    ; 847 | HWREG(ui32Base + PWM_O_FAULTVAL) |= ui32PWMOutBits;                    
    2039                    ;----------------------------------------------------------------------
    2040 0000025c 9800              LDR       A1, [SP, #0]          ; [DPU_V7M3_PIPE] |847|  ; [ORIG 16-BIT INS]
    2041 0000025e 9901              LDR       A2, [SP, #4]          ; [DPU_V7M3_PIPE] |847|  ; [ORIG 16-BIT INS]
    2042 00000260 3024              ADDS      A1, A1, #36           ; [DPU_V7M3_PIPE] |847|  ; [ORIG 16-BIT INS]
    2043 00000262 6802              LDR       A3, [A1, #0]          ; [DPU_V7M3_PIPE] |847|  ; [ORIG 16-BIT INS]
    2044 00000264 4311              ORRS      A2, A2, A3            ; [DPU_V7M3_PIPE] |847|  ; [ORIG 16-BIT INS]
    2045 00000266 6001              STR       A2, [A1, #0]          ; [DPU_V7M3_PIPE] |847|  ; [ORIG 16-BIT INS]
    2046                            .dwpsn  file "../driverlib/pwm.c",line 848,column 5,is_stmt,isa 1
    2047                    ;----------------------------------------------------------------------
    2048                    ; 849 | else                                                                   
    2049                    ;----------------------------------------------------------------------
    2050 00000268 E005              B         ||$C$L18||            ; [DPU_V7M3_PIPE] |848|  ; [ORIG 16-BIT INS]
    2051                            ; BRANCH OCCURS {||$C$L18||}     ; [] |848| 
    2052                    ;* --------------------------------------------------------------------------*
    2053 0000026a           ||$C$L17||:    
    2054                            .dwpsn  file "../driverlib/pwm.c",line 851,column 9,is_stmt,isa 1
    2055                    ;----------------------------------------------------------------------
    2056                    ; 851 | HWREG(ui32Base + PWM_O_FAULTVAL) &= ~(ui32PWMOutBits);                 
    2057                    ;----------------------------------------------------------------------
    2058 0000026a 9800              LDR       A1, [SP, #0]          ; [DPU_V7M3_PIPE] |851|  ; [ORIG 16-BIT INS]
    2059 0000026c 9A01              LDR       A3, [SP, #4]          ; [DPU_V7M3_PIPE] |851|  ; [ORIG 16-BIT INS]
    2060 0000026e 3024              ADDS      A1, A1, #36           ; [DPU_V7M3_PIPE] |851|  ; [ORIG 16-BIT INS]
    2061 00000270 6801              LDR       A2, [A1, #0]          ; [DPU_V7M3_PIPE] |851|  ; [ORIG 16-BIT INS]
    2062 00000272 4391              BICS      A2, A2, A3            ; [DPU_V7M3_PIPE] |851|  ; [ORIG 16-BIT INS]
    2063 00000274 6001              STR       A2, [A1, #0]          ; [DPU_V7M3_PIPE] |851|  ; [ORIG 16-BIT INS]
    2064                            .dwpsn  file "../driverlib/pwm.c",line 853,column 1,is_stmt,isa 1
    2065                    ;* --------------------------------------------------------------------------*
    2066 00000276           ||$C$L18||:    
    2067 00000276 B004              ADD       SP, SP, #16           ; [DPU_V7M3_PIPE]  ; [ORIG 16-BIT INS]
    2068                            .dwcfi  cfa_offset, 0
    2069                    $C$DW$114       .dwtag  DW_TAG_TI_branch
    2070                            .dwattr $C$DW$114, DW_AT_low_pc(0x00)
    2071                            .dwattr $C$DW$114, DW_AT_TI_return
    2072                    
    2073 00000278 4770              BX        LR                    ; [DPU_V7M3_PIPE]  ; [ORIG 16-BIT INS]
    2074                            ; BRANCH OCCURS                  ; [] 
    2075                            .dwattr $C$DW$107, DW_AT_TI_end_file("../driverlib/pwm.c")
    2076                            .dwattr $C$DW$107, DW_AT_TI_end_line(0x355)
    2077                            .dwattr $C$DW$107, DW_AT_TI_end_column(0x01)
    2078                            .dwendentry
    2079                            .dwendtag $C$DW$107
    2080                    
    2081 0000027a                   .sect   ".text"
    2082                            .clink
    2083                            .thumbfunc PWMOutputFault
    2084 0000027a                   .thumb
    2085                            .global PWMOutputFault
    2086                    
    2087                    $C$DW$115       .dwtag  DW_TAG_subprogram
    2088                            .dwattr $C$DW$115, DW_AT_name("PWMOutputFault")
    2089                            .dwattr $C$DW$115, DW_AT_low_pc(PWMOutputFault)
    2090                            .dwattr $C$DW$115, DW_AT_high_pc(0x00)
TI ARM Assembler Unix v18.1.1 Fri Jul  3 20:08:25 2020

Tools Copyright (c) 1996-2017 Texas Instruments Incorporated
pwm.asm                                                              PAGE   39

    2091                            .dwattr $C$DW$115, DW_AT_TI_symbol_name("PWMOutputFault")
    2092                            .dwattr $C$DW$115, DW_AT_external
    2093                            .dwattr $C$DW$115, DW_AT_TI_begin_file("../driverlib/pwm.c")
    2094                            .dwattr $C$DW$115, DW_AT_TI_begin_line(0x373)
    2095                            .dwattr $C$DW$115, DW_AT_TI_begin_column(0x01)
    2096                            .dwattr $C$DW$115, DW_AT_decl_file("../driverlib/pwm.c")
    2097                            .dwattr $C$DW$115, DW_AT_decl_line(0x373)
    2098                            .dwattr $C$DW$115, DW_AT_decl_column(0x01)
    2099                            .dwattr $C$DW$115, DW_AT_TI_max_frame_size(0x10)
    2100                            .dwpsn  file "../driverlib/pwm.c",line 885,column 1,is_stmt,address PWMOutputFault,isa 1
    2101                    
    2102                            .dwfde $C$DW$CIE, PWMOutputFault
    2103                    $C$DW$116       .dwtag  DW_TAG_formal_parameter
    2104                            .dwattr $C$DW$116, DW_AT_name("ui32Base")
    2105                            .dwattr $C$DW$116, DW_AT_TI_symbol_name("ui32Base")
    2106                            .dwattr $C$DW$116, DW_AT_type(*$C$DW$T$27)
    2107                            .dwattr $C$DW$116, DW_AT_location[DW_OP_reg0]
    2108                    
    2109                    $C$DW$117       .dwtag  DW_TAG_formal_parameter
    2110                            .dwattr $C$DW$117, DW_AT_name("ui32PWMOutBits")
    2111                            .dwattr $C$DW$117, DW_AT_TI_symbol_name("ui32PWMOutBits")
    2112                            .dwattr $C$DW$117, DW_AT_type(*$C$DW$T$27)
    2113                            .dwattr $C$DW$117, DW_AT_location[DW_OP_reg1]
    2114                    
    2115                    $C$DW$118       .dwtag  DW_TAG_formal_parameter
    2116                            .dwattr $C$DW$118, DW_AT_name("bFaultSuppress")
    2117                            .dwattr $C$DW$118, DW_AT_TI_symbol_name("bFaultSuppress")
    2118                            .dwattr $C$DW$118, DW_AT_type(*$C$DW$T$37)
    2119                            .dwattr $C$DW$118, DW_AT_location[DW_OP_reg2]
    2120                    
    2121                    ;----------------------------------------------------------------------
    2122                    ; 883 | PWMOutputFault(uint32_t ui32Base, uint32_t ui32PWMOutBits,             
    2123                    ; 884 | bool bFaultSuppress)                                                   
    2124                    ;----------------------------------------------------------------------
    2125                    
    2126                    ;*****************************************************************************
    2127                    ;* FUNCTION NAME: PWMOutputFault                                             *
    2128                    ;*                                                                           *
    2129                    ;*   Regs Modified     : A1,A2,A3,SP,SR                                      *
    2130                    ;*   Regs Used         : A1,A2,A3,SP,LR,SR                                   *
    2131                    ;*   Local Frame Size  : 0 Args + 12 Auto + 0 Save = 12 byte                 *
    2132                    ;*****************************************************************************
    2133 0000027a           PWMOutputFault:
    2134                    ;* --------------------------------------------------------------------------*
    2135                            .dwcfi  cfa_offset, 0
    2136 0000027a 0D10F1AD          SUB       SP, SP, #16           ; [DPU_V7M3_PIPE]  ; [KEEP 32-BIT INS]
    2137                            .dwcfi  cfa_offset, 16
    2138                    $C$DW$119       .dwtag  DW_TAG_variable
    2139                            .dwattr $C$DW$119, DW_AT_name("ui32Base")
    2140                            .dwattr $C$DW$119, DW_AT_TI_symbol_name("ui32Base")
    2141                            .dwattr $C$DW$119, DW_AT_type(*$C$DW$T$27)
    2142                            .dwattr $C$DW$119, DW_AT_location[DW_OP_breg13 0]
    2143                    
    2144                    $C$DW$120       .dwtag  DW_TAG_variable
    2145                            .dwattr $C$DW$120, DW_AT_name("ui32PWMOutBits")
TI ARM Assembler Unix v18.1.1 Fri Jul  3 20:08:25 2020

Tools Copyright (c) 1996-2017 Texas Instruments Incorporated
pwm.asm                                                              PAGE   40

    2146                            .dwattr $C$DW$120, DW_AT_TI_symbol_name("ui32PWMOutBits")
    2147                            .dwattr $C$DW$120, DW_AT_type(*$C$DW$T$27)
    2148                            .dwattr $C$DW$120, DW_AT_location[DW_OP_breg13 4]
    2149                    
    2150                    $C$DW$121       .dwtag  DW_TAG_variable
    2151                            .dwattr $C$DW$121, DW_AT_name("bFaultSuppress")
    2152                            .dwattr $C$DW$121, DW_AT_TI_symbol_name("bFaultSuppress")
    2153                            .dwattr $C$DW$121, DW_AT_type(*$C$DW$T$37)
    2154                            .dwattr $C$DW$121, DW_AT_location[DW_OP_breg13 8]
    2155                    
    2156                    ;----------------------------------------------------------------------
    2157                    ; 886 | //                                                                     
    2158                    ; 887 | // Check the arguments.                                                
    2159                    ; 888 | //                                                                     
    2160                    ; 889 | ASSERT((ui32Base == PWM0_BASE) || (ui32Base == PWM1_BASE));            
    2161                    ; 890 | ASSERT(!(ui32PWMOutBits & ~(PWM_OUT_0_BIT | PWM_OUT_1_BIT | PWM_OUT_2_B
    2162                    ;     | IT |                                                                   
    2163                    ; 891 |                             PWM_OUT_3_BIT | PWM_OUT_4_BIT | PWM_OUT_5_B
    2164                    ;     | IT |                                                                   
    2165                    ; 892 |                             PWM_OUT_6_BIT | PWM_OUT_7_BIT)));          
    2166                    ; 894 | //                                                                     
    2167                    ; 895 | // Read the module's FAULT output control register and set or clear the
    2168                    ; 896 | // requested bits.                                                     
    2169                    ; 897 | //                                                                     
    2170                    ;----------------------------------------------------------------------
    2171 0000027e 2008F88D          STRB      A3, [SP, #8]          ; [DPU_V7M3_PIPE] |885|  ; [KEEP 32-BIT INS]
    2172 00000282 9101              STR       A2, [SP, #4]          ; [DPU_V7M3_PIPE] |885|  ; [ORIG 16-BIT INS]
    2173 00000284 9000              STR       A1, [SP, #0]          ; [DPU_V7M3_PIPE] |885|  ; [ORIG 16-BIT INS]
    2174                            .dwpsn  file "../driverlib/pwm.c",line 898,column 5,is_stmt,isa 1
    2175                    ;----------------------------------------------------------------------
    2176                    ; 898 | if(bFaultSuppress == true)                                             
    2177                    ;----------------------------------------------------------------------
    2178 00000286 0008F89D          LDRB      A1, [SP, #8]          ; [DPU_V7M3_PIPE] |898|  ; [KEEP 32-BIT INS]
    2179 0000028a 2801              CMP       A1, #1                ; [DPU_V7M3_PIPE] |898|  ; [ORIG 16-BIT INS]
    2180 0000028c D106              BNE       ||$C$L19||            ; [DPU_V7M3_PIPE] |898|  ; [ORIG 16-BIT INS]
    2181                            ; BRANCHCC OCCURS {||$C$L19||}   ; [] |898| 
    2182                    ;* --------------------------------------------------------------------------*
    2183                            .dwpsn  file "../driverlib/pwm.c",line 900,column 9,is_stmt,isa 1
    2184                    ;----------------------------------------------------------------------
    2185                    ; 900 | HWREG(ui32Base + PWM_O_FAULT) |= ui32PWMOutBits;                       
    2186                    ;----------------------------------------------------------------------
    2187 0000028e 9800              LDR       A1, [SP, #0]          ; [DPU_V7M3_PIPE] |900|  ; [ORIG 16-BIT INS]
    2188 00000290 9901              LDR       A2, [SP, #4]          ; [DPU_V7M3_PIPE] |900|  ; [ORIG 16-BIT INS]
    2189 00000292 3010              ADDS      A1, A1, #16           ; [DPU_V7M3_PIPE] |900|  ; [ORIG 16-BIT INS]
    2190 00000294 6802              LDR       A3, [A1, #0]          ; [DPU_V7M3_PIPE] |900|  ; [ORIG 16-BIT INS]
    2191 00000296 4311              ORRS      A2, A2, A3            ; [DPU_V7M3_PIPE] |900|  ; [ORIG 16-BIT INS]
    2192 00000298 6001              STR       A2, [A1, #0]          ; [DPU_V7M3_PIPE] |900|  ; [ORIG 16-BIT INS]
    2193                            .dwpsn  file "../driverlib/pwm.c",line 901,column 5,is_stmt,isa 1
    2194                    ;----------------------------------------------------------------------
    2195                    ; 902 | else                                                                   
    2196                    ;----------------------------------------------------------------------
    2197 0000029a E005              B         ||$C$L20||            ; [DPU_V7M3_PIPE] |901|  ; [ORIG 16-BIT INS]
    2198                            ; BRANCH OCCURS {||$C$L20||}     ; [] |901| 
    2199                    ;* --------------------------------------------------------------------------*
    2200 0000029c           ||$C$L19||:    
TI ARM Assembler Unix v18.1.1 Fri Jul  3 20:08:25 2020

Tools Copyright (c) 1996-2017 Texas Instruments Incorporated
pwm.asm                                                              PAGE   41

    2201                            .dwpsn  file "../driverlib/pwm.c",line 904,column 9,is_stmt,isa 1
    2202                    ;----------------------------------------------------------------------
    2203                    ; 904 | HWREG(ui32Base + PWM_O_FAULT) &= ~(ui32PWMOutBits);                    
    2204                    ;----------------------------------------------------------------------
    2205 0000029c 9800              LDR       A1, [SP, #0]          ; [DPU_V7M3_PIPE] |904|  ; [ORIG 16-BIT INS]
    2206 0000029e 9A01              LDR       A3, [SP, #4]          ; [DPU_V7M3_PIPE] |904|  ; [ORIG 16-BIT INS]
    2207 000002a0 3010              ADDS      A1, A1, #16           ; [DPU_V7M3_PIPE] |904|  ; [ORIG 16-BIT INS]
    2208 000002a2 6801              LDR       A2, [A1, #0]          ; [DPU_V7M3_PIPE] |904|  ; [ORIG 16-BIT INS]
    2209 000002a4 4391              BICS      A2, A2, A3            ; [DPU_V7M3_PIPE] |904|  ; [ORIG 16-BIT INS]
    2210 000002a6 6001              STR       A2, [A1, #0]          ; [DPU_V7M3_PIPE] |904|  ; [ORIG 16-BIT INS]
    2211                            .dwpsn  file "../driverlib/pwm.c",line 906,column 1,is_stmt,isa 1
    2212                    ;* --------------------------------------------------------------------------*
    2213 000002a8           ||$C$L20||:    
    2214 000002a8 B004              ADD       SP, SP, #16           ; [DPU_V7M3_PIPE]  ; [ORIG 16-BIT INS]
    2215                            .dwcfi  cfa_offset, 0
    2216                    $C$DW$122       .dwtag  DW_TAG_TI_branch
    2217                            .dwattr $C$DW$122, DW_AT_low_pc(0x00)
    2218                            .dwattr $C$DW$122, DW_AT_TI_return
    2219                    
    2220 000002aa 4770              BX        LR                    ; [DPU_V7M3_PIPE]  ; [ORIG 16-BIT INS]
    2221                            ; BRANCH OCCURS                  ; [] 
    2222                            .dwattr $C$DW$115, DW_AT_TI_end_file("../driverlib/pwm.c")
    2223                            .dwattr $C$DW$115, DW_AT_TI_end_line(0x38a)
    2224                            .dwattr $C$DW$115, DW_AT_TI_end_column(0x01)
    2225                            .dwendentry
    2226                            .dwendtag $C$DW$115
    2227                    
    2228 000002ac                   .sect   ".text"
    2229                            .clink
    2230                            .thumbfunc _PWMGenIntNumberGet
    2231 000002ac                   .thumb
    2232                    
    2233                    $C$DW$123       .dwtag  DW_TAG_subprogram
    2234                            .dwattr $C$DW$123, DW_AT_name("_PWMGenIntNumberGet")
    2235                            .dwattr $C$DW$123, DW_AT_low_pc(_PWMGenIntNumberGet)
    2236                            .dwattr $C$DW$123, DW_AT_high_pc(0x00)
    2237                            .dwattr $C$DW$123, DW_AT_TI_symbol_name("_PWMGenIntNumberGet")
    2238                            .dwattr $C$DW$123, DW_AT_type(*$C$DW$T$27)
    2239                            .dwattr $C$DW$123, DW_AT_TI_begin_file("../driverlib/pwm.c")
    2240                            .dwattr $C$DW$123, DW_AT_TI_begin_line(0x39b)
    2241                            .dwattr $C$DW$123, DW_AT_TI_begin_column(0x01)
    2242                            .dwattr $C$DW$123, DW_AT_decl_file("../driverlib/pwm.c")
    2243                            .dwattr $C$DW$123, DW_AT_decl_line(0x39b)
    2244                            .dwattr $C$DW$123, DW_AT_decl_column(0x01)
    2245                            .dwattr $C$DW$123, DW_AT_TI_max_frame_size(0x08)
    2246                            .dwpsn  file "../driverlib/pwm.c",line 924,column 1,is_stmt,address _PWMGenIntNumberGet,isa 1
    2247                    
    2248                            .dwfde $C$DW$CIE, _PWMGenIntNumberGet
    2249                    $C$DW$124       .dwtag  DW_TAG_formal_parameter
    2250                            .dwattr $C$DW$124, DW_AT_name("ui32Base")
    2251                            .dwattr $C$DW$124, DW_AT_TI_symbol_name("ui32Base")
    2252                            .dwattr $C$DW$124, DW_AT_type(*$C$DW$T$27)
    2253                            .dwattr $C$DW$124, DW_AT_location[DW_OP_reg0]
    2254                    
    2255                    $C$DW$125       .dwtag  DW_TAG_formal_parameter
TI ARM Assembler Unix v18.1.1 Fri Jul  3 20:08:25 2020

Tools Copyright (c) 1996-2017 Texas Instruments Incorporated
pwm.asm                                                              PAGE   42

    2256                            .dwattr $C$DW$125, DW_AT_name("ui32Gen")
    2257                            .dwattr $C$DW$125, DW_AT_TI_symbol_name("ui32Gen")
    2258                            .dwattr $C$DW$125, DW_AT_type(*$C$DW$T$27)
    2259                            .dwattr $C$DW$125, DW_AT_location[DW_OP_reg1]
    2260                    
    2261                    ;----------------------------------------------------------------------
    2262                    ; 923 | _PWMGenIntNumberGet(uint32_t ui32Base, uint32_t ui32Gen)               
    2263                    ;----------------------------------------------------------------------
    2264                    
    2265                    ;*****************************************************************************
    2266                    ;* FUNCTION NAME: _PWMGenIntNumberGet                                        *
    2267                    ;*                                                                           *
    2268                    ;*   Regs Modified     : A1,A2,A3,SP,SR                                      *
    2269                    ;*   Regs Used         : A1,A2,A3,SP,LR,SR                                   *
    2270                    ;*   Local Frame Size  : 0 Args + 8 Auto + 0 Save = 8 byte                   *
    2271                    ;*****************************************************************************
    2272 000002ac           _PWMGenIntNumberGet:
    2273                    ;* --------------------------------------------------------------------------*
    2274                            .dwcfi  cfa_offset, 0
    2275 000002ac 0D08F1AD          SUB       SP, SP, #8            ; [DPU_V7M3_PIPE]  ; [KEEP 32-BIT INS]
    2276                            .dwcfi  cfa_offset, 8
    2277                    $C$DW$126       .dwtag  DW_TAG_variable
    2278                            .dwattr $C$DW$126, DW_AT_name("ui32Base")
    2279                            .dwattr $C$DW$126, DW_AT_TI_symbol_name("ui32Base")
    2280                            .dwattr $C$DW$126, DW_AT_type(*$C$DW$T$27)
    2281                            .dwattr $C$DW$126, DW_AT_location[DW_OP_breg13 0]
    2282                    
    2283                    $C$DW$127       .dwtag  DW_TAG_variable
    2284                            .dwattr $C$DW$127, DW_AT_name("ui32Gen")
    2285                            .dwattr $C$DW$127, DW_AT_TI_symbol_name("ui32Gen")
    2286                            .dwattr $C$DW$127, DW_AT_type(*$C$DW$T$27)
    2287                            .dwattr $C$DW$127, DW_AT_location[DW_OP_breg13 4]
    2288                    
    2289                    ;----------------------------------------------------------------------
    2290                    ; 925 | //                                                                     
    2291                    ; 926 | // Determine the generator and PWM module in question.                 
    2292                    ; 927 | //                                                                     
    2293                    ;----------------------------------------------------------------------
    2294 000002b0 9101              STR       A2, [SP, #4]          ; [DPU_V7M3_PIPE] |924|  ; [ORIG 16-BIT INS]
    2295 000002b2 9000              STR       A1, [SP, #0]          ; [DPU_V7M3_PIPE] |924|  ; [ORIG 16-BIT INS]
    2296                            .dwpsn  file "../driverlib/pwm.c",line 928,column 5,is_stmt,isa 1
    2297                    ;----------------------------------------------------------------------
    2298                    ; 928 | switch(ui32Base + ui32Gen)                                             
    2299                    ; 930 |     //                                                                 
    2300                    ; 931 |     // The first PWM generator in the first PWM module.                
    2301                    ; 932 |     //                                                                 
    2302                    ; 933 |     case PWM0_BASE + PWM_GEN_0:                                        
    2303                    ;----------------------------------------------------------------------
    2304 000002b4 E062              B         ||$C$L39||            ; [DPU_V7M3_PIPE] |928|  ; [ORIG 16-BIT INS]
    2305                            ; BRANCH OCCURS {||$C$L39||}     ; [] |928| 
    2306                    ;* --------------------------------------------------------------------------*
    2307 000002b6           ||$C$L21||:    
    2308                            .dwpsn  file "../driverlib/pwm.c",line 935,column 13,is_stmt,isa 1
    2309                    ;----------------------------------------------------------------------
    2310                    ; 935 | if(CLASS_IS_TM4C123)                                                   
TI ARM Assembler Unix v18.1.1 Fri Jul  3 20:08:25 2020

Tools Copyright (c) 1996-2017 Texas Instruments Incorporated
pwm.asm                                                              PAGE   43

    2311                    ;----------------------------------------------------------------------
    2312 000002b6 49AC              LDR       A2, $C$CON2           ; [DPU_V7M3_PIPE] |935|  ; [ORIG 16-BIT INS]
    2313 000002b8 48AA              LDR       A1, $C$CON1           ; [DPU_V7M3_PIPE] |935|  ; [ORIG 16-BIT INS]
    2314 000002ba 680A              LDR       A3, [A2, #0]          ; [DPU_V7M3_PIPE] |935|  ; [ORIG 16-BIT INS]
    2315 000002bc 49AB              LDR       A2, $C$CON3           ; [DPU_V7M3_PIPE] |935|  ; [ORIG 16-BIT INS]
    2316 000002be 4010              ANDS      A1, A1, A3            ; [DPU_V7M3_PIPE] |935|  ; [ORIG 16-BIT INS]
    2317 000002c0 4281              CMP       A2, A1                ; [DPU_V7M3_PIPE] |935|  ; [ORIG 16-BIT INS]
    2318 000002c2 D101              BNE       ||$C$L22||            ; [DPU_V7M3_PIPE] |935|  ; [ORIG 16-BIT INS]
    2319                            ; BRANCHCC OCCURS {||$C$L22||}   ; [] |935| 
    2320                    ;* --------------------------------------------------------------------------*
    2321                            .dwpsn  file "../driverlib/pwm.c",line 937,column 17,is_stmt,isa 1
    2322                    ;----------------------------------------------------------------------
    2323                    ; 937 | return(INT_PWM0_0_TM4C123);                                            
    2324                    ;----------------------------------------------------------------------
    2325 000002c4 201A              MOVS      A1, #26               ; [DPU_V7M3_PIPE] |937|  ; [ORIG 16-BIT INS]
    2326 000002c6 E06F              B         ||$C$L40||            ; [DPU_V7M3_PIPE] |937|  ; [ORIG 16-BIT INS]
    2327                            ; BRANCH OCCURS {||$C$L40||}     ; [] |937| 
    2328                    ;* --------------------------------------------------------------------------*
    2329                    ;* --------------------------------------------------------------------------*
    2330 000002c8           ||$C$L22||:    
    2331                            .dwpsn  file "../driverlib/pwm.c",line 939,column 18,is_stmt,isa 1
    2332                    ;----------------------------------------------------------------------
    2333                    ; 939 | else if(CLASS_IS_TM4C129)                                              
    2334                    ;----------------------------------------------------------------------
    2335 000002c8 49A7              LDR       A2, $C$CON2           ; [DPU_V7M3_PIPE] |939|  ; [ORIG 16-BIT INS]
    2336 000002ca 48A6              LDR       A1, $C$CON1           ; [DPU_V7M3_PIPE] |939|  ; [ORIG 16-BIT INS]
    2337 000002cc 680A              LDR       A3, [A2, #0]          ; [DPU_V7M3_PIPE] |939|  ; [ORIG 16-BIT INS]
    2338 000002ce 49B3              LDR       A2, $C$CON4           ; [DPU_V7M3_PIPE] |939|  ; [ORIG 16-BIT INS]
    2339 000002d0 4010              ANDS      A1, A1, A3            ; [DPU_V7M3_PIPE] |939|  ; [ORIG 16-BIT INS]
    2340 000002d2 4281              CMP       A2, A1                ; [DPU_V7M3_PIPE] |939|  ; [ORIG 16-BIT INS]
    2341 000002d4 D101              BNE       ||$C$L23||            ; [DPU_V7M3_PIPE] |939|  ; [ORIG 16-BIT INS]
    2342                            ; BRANCHCC OCCURS {||$C$L23||}   ; [] |939| 
    2343                    ;* --------------------------------------------------------------------------*
    2344                            .dwpsn  file "../driverlib/pwm.c",line 941,column 17,is_stmt,isa 1
    2345                    ;----------------------------------------------------------------------
    2346                    ; 941 | return(INT_PWM0_0_TM4C129);                                            
    2347                    ; 943 | else                                                                   
    2348                    ;----------------------------------------------------------------------
    2349 000002d6 201A              MOVS      A1, #26               ; [DPU_V7M3_PIPE] |941|  ; [ORIG 16-BIT INS]
    2350 000002d8 E066              B         ||$C$L40||            ; [DPU_V7M3_PIPE] |941|  ; [ORIG 16-BIT INS]
    2351                            ; BRANCH OCCURS {||$C$L40||}     ; [] |941| 
    2352                    ;* --------------------------------------------------------------------------*
    2353                    ;* --------------------------------------------------------------------------*
    2354 000002da           ||$C$L23||:    
    2355                            .dwpsn  file "../driverlib/pwm.c",line 945,column 17,is_stmt,isa 1
    2356                    ;----------------------------------------------------------------------
    2357                    ; 945 | return(0);                                                             
    2358                    ; 949 | //                                                                     
    2359                    ; 950 | // The second PWM generator in the first PWM module.                   
    2360                    ; 951 | //                                                                     
    2361                    ; 952 | case PWM0_BASE + PWM_GEN_1:                                            
    2362                    ;----------------------------------------------------------------------
    2363 000002da 2000              MOVS      A1, #0                ; [DPU_V7M3_PIPE] |945|  ; [ORIG 16-BIT INS]
    2364 000002dc E064              B         ||$C$L40||            ; [DPU_V7M3_PIPE] |945|  ; [ORIG 16-BIT INS]
    2365                            ; BRANCH OCCURS {||$C$L40||}     ; [] |945| 
TI ARM Assembler Unix v18.1.1 Fri Jul  3 20:08:25 2020

Tools Copyright (c) 1996-2017 Texas Instruments Incorporated
pwm.asm                                                              PAGE   44

    2366                    ;* --------------------------------------------------------------------------*
    2367 000002de           ||$C$L24||:    
    2368                            .dwpsn  file "../driverlib/pwm.c",line 954,column 13,is_stmt,isa 1
    2369                    ;----------------------------------------------------------------------
    2370                    ; 954 | if(CLASS_IS_TM4C129)                                                   
    2371                    ;----------------------------------------------------------------------
    2372 000002de 49A2              LDR       A2, $C$CON2           ; [DPU_V7M3_PIPE] |954|  ; [ORIG 16-BIT INS]
    2373 000002e0 48A0              LDR       A1, $C$CON1           ; [DPU_V7M3_PIPE] |954|  ; [ORIG 16-BIT INS]
    2374 000002e2 680A              LDR       A3, [A2, #0]          ; [DPU_V7M3_PIPE] |954|  ; [ORIG 16-BIT INS]
    2375 000002e4 49AD              LDR       A2, $C$CON4           ; [DPU_V7M3_PIPE] |954|  ; [ORIG 16-BIT INS]
    2376 000002e6 4010              ANDS      A1, A1, A3            ; [DPU_V7M3_PIPE] |954|  ; [ORIG 16-BIT INS]
    2377 000002e8 4281              CMP       A2, A1                ; [DPU_V7M3_PIPE] |954|  ; [ORIG 16-BIT INS]
    2378 000002ea D101              BNE       ||$C$L25||            ; [DPU_V7M3_PIPE] |954|  ; [ORIG 16-BIT INS]
    2379                            ; BRANCHCC OCCURS {||$C$L25||}   ; [] |954| 
    2380                    ;* --------------------------------------------------------------------------*
    2381                            .dwpsn  file "../driverlib/pwm.c",line 956,column 17,is_stmt,isa 1
    2382                    ;----------------------------------------------------------------------
    2383                    ; 956 | return(INT_PWM0_1_TM4C129);                                            
    2384                    ; 958 | else                                                                   
    2385                    ;----------------------------------------------------------------------
    2386 000002ec 201B              MOVS      A1, #27               ; [DPU_V7M3_PIPE] |956|  ; [ORIG 16-BIT INS]
    2387 000002ee E05B              B         ||$C$L40||            ; [DPU_V7M3_PIPE] |956|  ; [ORIG 16-BIT INS]
    2388                            ; BRANCH OCCURS {||$C$L40||}     ; [] |956| 
    2389                    ;* --------------------------------------------------------------------------*
    2390                    ;* --------------------------------------------------------------------------*
    2391 000002f0           ||$C$L25||:    
    2392                            .dwpsn  file "../driverlib/pwm.c",line 960,column 17,is_stmt,isa 1
    2393                    ;----------------------------------------------------------------------
    2394                    ; 960 | return(0);                                                             
    2395                    ; 964 | //                                                                     
    2396                    ; 965 | // The third PWM generator in the first PWM module.                    
    2397                    ; 966 | //                                                                     
    2398                    ; 967 | case PWM0_BASE + PWM_GEN_2:                                            
    2399                    ;----------------------------------------------------------------------
    2400 000002f0 2000              MOVS      A1, #0                ; [DPU_V7M3_PIPE] |960|  ; [ORIG 16-BIT INS]
    2401 000002f2 E059              B         ||$C$L40||            ; [DPU_V7M3_PIPE] |960|  ; [ORIG 16-BIT INS]
    2402                            ; BRANCH OCCURS {||$C$L40||}     ; [] |960| 
    2403                    ;* --------------------------------------------------------------------------*
    2404 000002f4           ||$C$L26||:    
    2405                            .dwpsn  file "../driverlib/pwm.c",line 969,column 13,is_stmt,isa 1
    2406                    ;----------------------------------------------------------------------
    2407                    ; 969 | if(CLASS_IS_TM4C129)                                                   
    2408                    ;----------------------------------------------------------------------
    2409 000002f4 499C              LDR       A2, $C$CON2           ; [DPU_V7M3_PIPE] |969|  ; [ORIG 16-BIT INS]
    2410 000002f6 489B              LDR       A1, $C$CON1           ; [DPU_V7M3_PIPE] |969|  ; [ORIG 16-BIT INS]
    2411 000002f8 680A              LDR       A3, [A2, #0]          ; [DPU_V7M3_PIPE] |969|  ; [ORIG 16-BIT INS]
    2412 000002fa 49A8              LDR       A2, $C$CON4           ; [DPU_V7M3_PIPE] |969|  ; [ORIG 16-BIT INS]
    2413 000002fc 4010              ANDS      A1, A1, A3            ; [DPU_V7M3_PIPE] |969|  ; [ORIG 16-BIT INS]
    2414 000002fe 4281              CMP       A2, A1                ; [DPU_V7M3_PIPE] |969|  ; [ORIG 16-BIT INS]
    2415 00000300 D101              BNE       ||$C$L27||            ; [DPU_V7M3_PIPE] |969|  ; [ORIG 16-BIT INS]
    2416                            ; BRANCHCC OCCURS {||$C$L27||}   ; [] |969| 
    2417                    ;* --------------------------------------------------------------------------*
    2418                            .dwpsn  file "../driverlib/pwm.c",line 971,column 17,is_stmt,isa 1
    2419                    ;----------------------------------------------------------------------
    2420                    ; 971 | return(INT_PWM0_2_TM4C129);                                            
TI ARM Assembler Unix v18.1.1 Fri Jul  3 20:08:25 2020

Tools Copyright (c) 1996-2017 Texas Instruments Incorporated
pwm.asm                                                              PAGE   45

    2421                    ; 973 | else                                                                   
    2422                    ;----------------------------------------------------------------------
    2423 00000302 201C              MOVS      A1, #28               ; [DPU_V7M3_PIPE] |971|  ; [ORIG 16-BIT INS]
    2424 00000304 E050              B         ||$C$L40||            ; [DPU_V7M3_PIPE] |971|  ; [ORIG 16-BIT INS]
    2425                            ; BRANCH OCCURS {||$C$L40||}     ; [] |971| 
    2426                    ;* --------------------------------------------------------------------------*
    2427                    ;* --------------------------------------------------------------------------*
    2428 00000306           ||$C$L27||:    
    2429                            .dwpsn  file "../driverlib/pwm.c",line 975,column 17,is_stmt,isa 1
    2430                    ;----------------------------------------------------------------------
    2431                    ; 975 | return(0);                                                             
    2432                    ; 979 | //                                                                     
    2433                    ; 980 | // The fourth PWM generator in the first PWM module.                   
    2434                    ; 981 | //                                                                     
    2435                    ; 982 | case PWM0_BASE + PWM_GEN_3:                                            
    2436                    ;----------------------------------------------------------------------
    2437 00000306 2000              MOVS      A1, #0                ; [DPU_V7M3_PIPE] |975|  ; [ORIG 16-BIT INS]
    2438 00000308 E04E              B         ||$C$L40||            ; [DPU_V7M3_PIPE] |975|  ; [ORIG 16-BIT INS]
    2439                            ; BRANCH OCCURS {||$C$L40||}     ; [] |975| 
    2440                    ;* --------------------------------------------------------------------------*
    2441 0000030a           ||$C$L28||:    
    2442                            .dwpsn  file "../driverlib/pwm.c",line 984,column 13,is_stmt,isa 1
    2443                    ;----------------------------------------------------------------------
    2444                    ; 984 | if(CLASS_IS_TM4C129)                                                   
    2445                    ;----------------------------------------------------------------------
    2446 0000030a 4997              LDR       A2, $C$CON2           ; [DPU_V7M3_PIPE] |984|  ; [ORIG 16-BIT INS]
    2447 0000030c 4895              LDR       A1, $C$CON1           ; [DPU_V7M3_PIPE] |984|  ; [ORIG 16-BIT INS]
    2448 0000030e 680A              LDR       A3, [A2, #0]          ; [DPU_V7M3_PIPE] |984|  ; [ORIG 16-BIT INS]
    2449 00000310 49A2              LDR       A2, $C$CON4           ; [DPU_V7M3_PIPE] |984|  ; [ORIG 16-BIT INS]
    2450 00000312 4010              ANDS      A1, A1, A3            ; [DPU_V7M3_PIPE] |984|  ; [ORIG 16-BIT INS]
    2451 00000314 4281              CMP       A2, A1                ; [DPU_V7M3_PIPE] |984|  ; [ORIG 16-BIT INS]
    2452 00000316 D101              BNE       ||$C$L29||            ; [DPU_V7M3_PIPE] |984|  ; [ORIG 16-BIT INS]
    2453                            ; BRANCHCC OCCURS {||$C$L29||}   ; [] |984| 
    2454                    ;* --------------------------------------------------------------------------*
    2455                            .dwpsn  file "../driverlib/pwm.c",line 986,column 17,is_stmt,isa 1
    2456                    ;----------------------------------------------------------------------
    2457                    ; 986 | return(INT_PWM0_3_TM4C129);                                            
    2458                    ; 988 | else                                                                   
    2459                    ;----------------------------------------------------------------------
    2460 00000318 203B              MOVS      A1, #59               ; [DPU_V7M3_PIPE] |986|  ; [ORIG 16-BIT INS]
    2461 0000031a E045              B         ||$C$L40||            ; [DPU_V7M3_PIPE] |986|  ; [ORIG 16-BIT INS]
    2462                            ; BRANCH OCCURS {||$C$L40||}     ; [] |986| 
    2463                    ;* --------------------------------------------------------------------------*
    2464                    ;* --------------------------------------------------------------------------*
    2465 0000031c           ||$C$L29||:    
    2466                            .dwpsn  file "../driverlib/pwm.c",line 990,column 17,is_stmt,isa 1
    2467                    ;----------------------------------------------------------------------
    2468                    ; 990 | return(0);                                                             
    2469                    ; 994 | //                                                                     
    2470                    ; 995 | // The first PWM generator in the second PWM module.                   
    2471                    ; 996 | //                                                                     
    2472                    ; 997 | case PWM1_BASE + PWM_GEN_0:                                            
    2473                    ;----------------------------------------------------------------------
    2474 0000031c 2000              MOVS      A1, #0                ; [DPU_V7M3_PIPE] |990|  ; [ORIG 16-BIT INS]
    2475 0000031e E043              B         ||$C$L40||            ; [DPU_V7M3_PIPE] |990|  ; [ORIG 16-BIT INS]
TI ARM Assembler Unix v18.1.1 Fri Jul  3 20:08:25 2020

Tools Copyright (c) 1996-2017 Texas Instruments Incorporated
pwm.asm                                                              PAGE   46

    2476                            ; BRANCH OCCURS {||$C$L40||}     ; [] |990| 
    2477                    ;* --------------------------------------------------------------------------*
    2478 00000320           ||$C$L30||:    
    2479                            .dwpsn  file "../driverlib/pwm.c",line 999,column 13,is_stmt,isa 1
    2480                    ;----------------------------------------------------------------------
    2481                    ; 999 | if(CLASS_IS_TM4C123)                                                   
    2482                    ;----------------------------------------------------------------------
    2483 00000320 4991              LDR       A2, $C$CON2           ; [DPU_V7M3_PIPE] |999|  ; [ORIG 16-BIT INS]
    2484 00000322 4890              LDR       A1, $C$CON1           ; [DPU_V7M3_PIPE] |999|  ; [ORIG 16-BIT INS]
    2485 00000324 680A              LDR       A3, [A2, #0]          ; [DPU_V7M3_PIPE] |999|  ; [ORIG 16-BIT INS]
    2486 00000326 4991              LDR       A2, $C$CON3           ; [DPU_V7M3_PIPE] |999|  ; [ORIG 16-BIT INS]
    2487 00000328 4010              ANDS      A1, A1, A3            ; [DPU_V7M3_PIPE] |999|  ; [ORIG 16-BIT INS]
    2488 0000032a 4281              CMP       A2, A1                ; [DPU_V7M3_PIPE] |999|  ; [ORIG 16-BIT INS]
    2489 0000032c D101              BNE       ||$C$L31||            ; [DPU_V7M3_PIPE] |999|  ; [ORIG 16-BIT INS]
    2490                            ; BRANCHCC OCCURS {||$C$L31||}   ; [] |999| 
    2491                    ;* --------------------------------------------------------------------------*
    2492                            .dwpsn  file "../driverlib/pwm.c",line 1001,column 17,is_stmt,isa 1
    2493                    ;----------------------------------------------------------------------
    2494                    ; 1001 | return(INT_PWM1_0_TM4C123);                                            
    2495                    ; 1003 | else                                                                   
    2496                    ;----------------------------------------------------------------------
    2497 0000032e 2096              MOVS      A1, #150              ; [DPU_V7M3_PIPE] |1001|  ; [ORIG 16-BIT INS]
    2498 00000330 E03A              B         ||$C$L40||            ; [DPU_V7M3_PIPE] |1001|  ; [ORIG 16-BIT INS]
    2499                            ; BRANCH OCCURS {||$C$L40||}     ; [] |1001| 
    2500                    ;* --------------------------------------------------------------------------*
    2501                    ;* --------------------------------------------------------------------------*
    2502 00000332           ||$C$L31||:    
    2503                            .dwpsn  file "../driverlib/pwm.c",line 1005,column 17,is_stmt,isa 1
    2504                    ;----------------------------------------------------------------------
    2505                    ; 1005 | return(0);                                                             
    2506                    ; 1009 | //                                                                     
    2507                    ; 1010 | // The first PWM generator in the second PWM module.                   
    2508                    ; 1011 | //                                                                     
    2509                    ; 1012 | case PWM1_BASE + PWM_GEN_1:                                            
    2510                    ;----------------------------------------------------------------------
    2511 00000332 2000              MOVS      A1, #0                ; [DPU_V7M3_PIPE] |1005|  ; [ORIG 16-BIT INS]
    2512 00000334 E038              B         ||$C$L40||            ; [DPU_V7M3_PIPE] |1005|  ; [ORIG 16-BIT INS]
    2513                            ; BRANCH OCCURS {||$C$L40||}     ; [] |1005| 
    2514                    ;* --------------------------------------------------------------------------*
    2515 00000336           ||$C$L32||:    
    2516                            .dwpsn  file "../driverlib/pwm.c",line 1014,column 13,is_stmt,isa 1
    2517                    ;----------------------------------------------------------------------
    2518                    ; 1014 | if(CLASS_IS_TM4C123)                                                   
    2519                    ;----------------------------------------------------------------------
    2520 00000336 498C              LDR       A2, $C$CON2           ; [DPU_V7M3_PIPE] |1014|  ; [ORIG 16-BIT INS]
    2521 00000338 488A              LDR       A1, $C$CON1           ; [DPU_V7M3_PIPE] |1014|  ; [ORIG 16-BIT INS]
    2522 0000033a 680A              LDR       A3, [A2, #0]          ; [DPU_V7M3_PIPE] |1014|  ; [ORIG 16-BIT INS]
    2523 0000033c 498B              LDR       A2, $C$CON3           ; [DPU_V7M3_PIPE] |1014|  ; [ORIG 16-BIT INS]
    2524 0000033e 4010              ANDS      A1, A1, A3            ; [DPU_V7M3_PIPE] |1014|  ; [ORIG 16-BIT INS]
    2525 00000340 4281              CMP       A2, A1                ; [DPU_V7M3_PIPE] |1014|  ; [ORIG 16-BIT INS]
    2526 00000342 D101              BNE       ||$C$L33||            ; [DPU_V7M3_PIPE] |1014|  ; [ORIG 16-BIT INS]
    2527                            ; BRANCHCC OCCURS {||$C$L33||}   ; [] |1014| 
    2528                    ;* --------------------------------------------------------------------------*
    2529                            .dwpsn  file "../driverlib/pwm.c",line 1016,column 17,is_stmt,isa 1
    2530                    ;----------------------------------------------------------------------
TI ARM Assembler Unix v18.1.1 Fri Jul  3 20:08:25 2020

Tools Copyright (c) 1996-2017 Texas Instruments Incorporated
pwm.asm                                                              PAGE   47

    2531                    ; 1016 | return(INT_PWM1_1_TM4C123);                                            
    2532                    ; 1018 | else                                                                   
    2533                    ;----------------------------------------------------------------------
    2534 00000344 2097              MOVS      A1, #151              ; [DPU_V7M3_PIPE] |1016|  ; [ORIG 16-BIT INS]
    2535 00000346 E02F              B         ||$C$L40||            ; [DPU_V7M3_PIPE] |1016|  ; [ORIG 16-BIT INS]
    2536                            ; BRANCH OCCURS {||$C$L40||}     ; [] |1016| 
    2537                    ;* --------------------------------------------------------------------------*
    2538                    ;* --------------------------------------------------------------------------*
    2539 00000348           ||$C$L33||:    
    2540                            .dwpsn  file "../driverlib/pwm.c",line 1020,column 17,is_stmt,isa 1
    2541                    ;----------------------------------------------------------------------
    2542                    ; 1020 | return(0);                                                             
    2543                    ; 1024 | //                                                                     
    2544                    ; 1025 | // The first PWM generator in the second PWM module.                   
    2545                    ; 1026 | //                                                                     
    2546                    ; 1027 | case PWM1_BASE + PWM_GEN_2:                                            
    2547                    ;----------------------------------------------------------------------
    2548 00000348 2000              MOVS      A1, #0                ; [DPU_V7M3_PIPE] |1020|  ; [ORIG 16-BIT INS]
    2549 0000034a E02D              B         ||$C$L40||            ; [DPU_V7M3_PIPE] |1020|  ; [ORIG 16-BIT INS]
    2550                            ; BRANCH OCCURS {||$C$L40||}     ; [] |1020| 
    2551                    ;* --------------------------------------------------------------------------*
    2552 0000034c           ||$C$L34||:    
    2553                            .dwpsn  file "../driverlib/pwm.c",line 1029,column 13,is_stmt,isa 1
    2554                    ;----------------------------------------------------------------------
    2555                    ; 1029 | if(CLASS_IS_TM4C123)                                                   
    2556                    ;----------------------------------------------------------------------
    2557 0000034c 4986              LDR       A2, $C$CON2           ; [DPU_V7M3_PIPE] |1029|  ; [ORIG 16-BIT INS]
    2558 0000034e 4885              LDR       A1, $C$CON1           ; [DPU_V7M3_PIPE] |1029|  ; [ORIG 16-BIT INS]
    2559 00000350 680A              LDR       A3, [A2, #0]          ; [DPU_V7M3_PIPE] |1029|  ; [ORIG 16-BIT INS]
    2560 00000352 4986              LDR       A2, $C$CON3           ; [DPU_V7M3_PIPE] |1029|  ; [ORIG 16-BIT INS]
    2561 00000354 4010              ANDS      A1, A1, A3            ; [DPU_V7M3_PIPE] |1029|  ; [ORIG 16-BIT INS]
    2562 00000356 4281              CMP       A2, A1                ; [DPU_V7M3_PIPE] |1029|  ; [ORIG 16-BIT INS]
    2563 00000358 D101              BNE       ||$C$L35||            ; [DPU_V7M3_PIPE] |1029|  ; [ORIG 16-BIT INS]
    2564                            ; BRANCHCC OCCURS {||$C$L35||}   ; [] |1029| 
    2565                    ;* --------------------------------------------------------------------------*
    2566                            .dwpsn  file "../driverlib/pwm.c",line 1031,column 17,is_stmt,isa 1
    2567                    ;----------------------------------------------------------------------
    2568                    ; 1031 | return(INT_PWM1_2_TM4C123);                                            
    2569                    ; 1033 | else                                                                   
    2570                    ;----------------------------------------------------------------------
    2571 0000035a 2098              MOVS      A1, #152              ; [DPU_V7M3_PIPE] |1031|  ; [ORIG 16-BIT INS]
    2572 0000035c E024              B         ||$C$L40||            ; [DPU_V7M3_PIPE] |1031|  ; [ORIG 16-BIT INS]
    2573                            ; BRANCH OCCURS {||$C$L40||}     ; [] |1031| 
    2574                    ;* --------------------------------------------------------------------------*
    2575                    ;* --------------------------------------------------------------------------*
    2576 0000035e           ||$C$L35||:    
    2577                            .dwpsn  file "../driverlib/pwm.c",line 1035,column 17,is_stmt,isa 1
    2578                    ;----------------------------------------------------------------------
    2579                    ; 1035 | return(0);                                                             
    2580                    ; 1039 | //                                                                     
    2581                    ; 1040 | // The first PWM generator in the second PWM module.                   
    2582                    ; 1041 | //                                                                     
    2583                    ; 1042 | case PWM1_BASE + PWM_GEN_3:                                            
    2584                    ;----------------------------------------------------------------------
    2585 0000035e 2000              MOVS      A1, #0                ; [DPU_V7M3_PIPE] |1035|  ; [ORIG 16-BIT INS]
TI ARM Assembler Unix v18.1.1 Fri Jul  3 20:08:25 2020

Tools Copyright (c) 1996-2017 Texas Instruments Incorporated
pwm.asm                                                              PAGE   48

    2586 00000360 E022              B         ||$C$L40||            ; [DPU_V7M3_PIPE] |1035|  ; [ORIG 16-BIT INS]
    2587                            ; BRANCH OCCURS {||$C$L40||}     ; [] |1035| 
    2588                    ;* --------------------------------------------------------------------------*
    2589 00000362           ||$C$L36||:    
    2590                            .dwpsn  file "../driverlib/pwm.c",line 1044,column 13,is_stmt,isa 1
    2591                    ;----------------------------------------------------------------------
    2592                    ; 1044 | if(CLASS_IS_TM4C123)                                                   
    2593                    ;----------------------------------------------------------------------
    2594 00000362 4981              LDR       A2, $C$CON2           ; [DPU_V7M3_PIPE] |1044|  ; [ORIG 16-BIT INS]
    2595 00000364 487F              LDR       A1, $C$CON1           ; [DPU_V7M3_PIPE] |1044|  ; [ORIG 16-BIT INS]
    2596 00000366 680A              LDR       A3, [A2, #0]          ; [DPU_V7M3_PIPE] |1044|  ; [ORIG 16-BIT INS]
    2597 00000368 4980              LDR       A2, $C$CON3           ; [DPU_V7M3_PIPE] |1044|  ; [ORIG 16-BIT INS]
    2598 0000036a 4010              ANDS      A1, A1, A3            ; [DPU_V7M3_PIPE] |1044|  ; [ORIG 16-BIT INS]
    2599 0000036c 4281              CMP       A2, A1                ; [DPU_V7M3_PIPE] |1044|  ; [ORIG 16-BIT INS]
    2600 0000036e D101              BNE       ||$C$L37||            ; [DPU_V7M3_PIPE] |1044|  ; [ORIG 16-BIT INS]
    2601                            ; BRANCHCC OCCURS {||$C$L37||}   ; [] |1044| 
    2602                    ;* --------------------------------------------------------------------------*
    2603                            .dwpsn  file "../driverlib/pwm.c",line 1046,column 17,is_stmt,isa 1
    2604                    ;----------------------------------------------------------------------
    2605                    ; 1046 | return(INT_PWM1_3_TM4C123);                                            
    2606                    ; 1048 | else                                                                   
    2607                    ;----------------------------------------------------------------------
    2608 00000370 2099              MOVS      A1, #153              ; [DPU_V7M3_PIPE] |1046|  ; [ORIG 16-BIT INS]
    2609 00000372 E019              B         ||$C$L40||            ; [DPU_V7M3_PIPE] |1046|  ; [ORIG 16-BIT INS]
    2610                            ; BRANCH OCCURS {||$C$L40||}     ; [] |1046| 
    2611                    ;* --------------------------------------------------------------------------*
    2612                    ;* --------------------------------------------------------------------------*
    2613 00000374           ||$C$L37||:    
    2614                            .dwpsn  file "../driverlib/pwm.c",line 1050,column 17,is_stmt,isa 1
    2615                    ;----------------------------------------------------------------------
    2616                    ; 1050 | return(0);                                                             
    2617                    ; 1054 | //                                                                     
    2618                    ; 1055 | // An unknown PWM module/generator was specified.                      
    2619                    ; 1056 | //                                                                     
    2620                    ; 1057 | default:                                                               
    2621                    ;----------------------------------------------------------------------
    2622 00000374 2000              MOVS      A1, #0                ; [DPU_V7M3_PIPE] |1050|  ; [ORIG 16-BIT INS]
    2623 00000376 E017              B         ||$C$L40||            ; [DPU_V7M3_PIPE] |1050|  ; [ORIG 16-BIT INS]
    2624                            ; BRANCH OCCURS {||$C$L40||}     ; [] |1050| 
    2625                    ;* --------------------------------------------------------------------------*
    2626 00000378           ||$C$L38||:    
    2627                            .dwpsn  file "../driverlib/pwm.c",line 1059,column 13,is_stmt,isa 1
    2628                    ;----------------------------------------------------------------------
    2629                    ; 1059 | return(0);                                                             
    2630                    ;----------------------------------------------------------------------
    2631 00000378 2000              MOVS      A1, #0                ; [DPU_V7M3_PIPE] |1059|  ; [ORIG 16-BIT INS]
    2632 0000037a E015              B         ||$C$L40||            ; [DPU_V7M3_PIPE] |1059|  ; [ORIG 16-BIT INS]
    2633                            ; BRANCH OCCURS {||$C$L40||}     ; [] |1059| 
    2634                    ;* --------------------------------------------------------------------------*
    2635                    ;* --------------------------------------------------------------------------*
    2636 0000037c           ||$C$L39||:    
    2637                            .dwpsn  file "../driverlib/pwm.c",line 928,column 5,is_stmt,isa 1
    2638 0000037c 9A01              LDR       A3, [SP, #4]          ; [DPU_V7M3_PIPE] |928|  ; [ORIG 16-BIT INS]
    2639 0000037e 9800              LDR       A1, [SP, #0]          ; [DPU_V7M3_PIPE] |928|  ; [ORIG 16-BIT INS]
    2640 00000380 49A7              LDR       A2, $C$CON5           ; [DPU_V7M3_PIPE] |928|  ; [ORIG 16-BIT INS]
TI ARM Assembler Unix v18.1.1 Fri Jul  3 20:08:25 2020

Tools Copyright (c) 1996-2017 Texas Instruments Incorporated
pwm.asm                                                              PAGE   49

    2641 00000382 1880              ADDS      A1, A1, A3            ; [DPU_V7M3_PIPE] |928|  ; [ORIG 16-BIT INS]
    2642 00000384 1A40              SUBS      A1, A1, A2            ; [DPU_V7M3_PIPE] |928|  ; [ORIG 16-BIT INS]
    2643 00000386 D096              BEQ       ||$C$L21||            ; [DPU_V7M3_PIPE] |928|  ; [ORIG 16-BIT INS]
    2644                            ; BRANCHCC OCCURS {||$C$L21||}   ; [] |928| 
    2645                    ;* --------------------------------------------------------------------------*
    2646 00000388 3840              SUBS      A1, A1, #64           ; [DPU_V7M3_PIPE] |928|  ; [ORIG 16-BIT INS]
    2647 0000038a D0A8              BEQ       ||$C$L24||            ; [DPU_V7M3_PIPE] |928|  ; [ORIG 16-BIT INS]
    2648                            ; BRANCHCC OCCURS {||$C$L24||}   ; [] |928| 
    2649                    ;* --------------------------------------------------------------------------*
    2650 0000038c 3840              SUBS      A1, A1, #64           ; [DPU_V7M3_PIPE] |928|  ; [ORIG 16-BIT INS]
    2651 0000038e D0B1              BEQ       ||$C$L26||            ; [DPU_V7M3_PIPE] |928|  ; [ORIG 16-BIT INS]
    2652                            ; BRANCHCC OCCURS {||$C$L26||}   ; [] |928| 
    2653                    ;* --------------------------------------------------------------------------*
    2654 00000390 3840              SUBS      A1, A1, #64           ; [DPU_V7M3_PIPE] |928|  ; [ORIG 16-BIT INS]
    2655 00000392 D0BA              BEQ       ||$C$L28||            ; [DPU_V7M3_PIPE] |928|  ; [ORIG 16-BIT INS]
    2656                            ; BRANCHCC OCCURS {||$C$L28||}   ; [] |928| 
    2657                    ;* --------------------------------------------------------------------------*
    2658 00000394 6074F5B0          SUBS      A1, A1, #3904         ; [DPU_V7M3_PIPE] |928|  ; [KEEP 32-BIT INS]
    2659 00000398 D0C2              BEQ       ||$C$L30||            ; [DPU_V7M3_PIPE] |928|  ; [ORIG 16-BIT INS]
    2660                            ; BRANCHCC OCCURS {||$C$L30||}   ; [] |928| 
    2661                    ;* --------------------------------------------------------------------------*
    2662 0000039a 3840              SUBS      A1, A1, #64           ; [DPU_V7M3_PIPE] |928|  ; [ORIG 16-BIT INS]
    2663 0000039c D0CB              BEQ       ||$C$L32||            ; [DPU_V7M3_PIPE] |928|  ; [ORIG 16-BIT INS]
    2664                            ; BRANCHCC OCCURS {||$C$L32||}   ; [] |928| 
    2665                    ;* --------------------------------------------------------------------------*
    2666 0000039e 3840              SUBS      A1, A1, #64           ; [DPU_V7M3_PIPE] |928|  ; [ORIG 16-BIT INS]
    2667 000003a0 D0D4              BEQ       ||$C$L34||            ; [DPU_V7M3_PIPE] |928|  ; [ORIG 16-BIT INS]
    2668                            ; BRANCHCC OCCURS {||$C$L34||}   ; [] |928| 
    2669                    ;* --------------------------------------------------------------------------*
    2670 000003a2 3840              SUBS      A1, A1, #64           ; [DPU_V7M3_PIPE] |928|  ; [ORIG 16-BIT INS]
    2671 000003a4 D0DD              BEQ       ||$C$L36||            ; [DPU_V7M3_PIPE] |928|  ; [ORIG 16-BIT INS]
    2672                            ; BRANCHCC OCCURS {||$C$L36||}   ; [] |928| 
    2673                    ;* --------------------------------------------------------------------------*
    2674 000003a6 E7E7              B         ||$C$L38||            ; [DPU_V7M3_PIPE] |928|  ; [ORIG 16-BIT INS]
    2675                            ; BRANCH OCCURS {||$C$L38||}     ; [] |928| 
    2676                    ;* --------------------------------------------------------------------------*
    2677 000003a8           ||$C$L40||:    
    2678                            .dwpsn  file "../driverlib/pwm.c",line 1062,column 1,is_stmt,isa 1
    2679 000003a8 B002              ADD       SP, SP, #8            ; [DPU_V7M3_PIPE]  ; [ORIG 16-BIT INS]
    2680                            .dwcfi  cfa_offset, 0
    2681                    $C$DW$128       .dwtag  DW_TAG_TI_branch
    2682                            .dwattr $C$DW$128, DW_AT_low_pc(0x00)
    2683                            .dwattr $C$DW$128, DW_AT_TI_return
    2684                    
    2685 000003aa 4770              BX        LR                    ; [DPU_V7M3_PIPE]  ; [ORIG 16-BIT INS]
    2686                            ; BRANCH OCCURS                  ; [] 
    2687                            .dwattr $C$DW$123, DW_AT_TI_end_file("../driverlib/pwm.c")
    2688                            .dwattr $C$DW$123, DW_AT_TI_end_line(0x426)
    2689                            .dwattr $C$DW$123, DW_AT_TI_end_column(0x01)
    2690                            .dwendentry
    2691                            .dwendtag $C$DW$123
    2692                    
    2693 000003ac                   .sect   ".text"
    2694                            .clink
    2695                            .thumbfunc PWMGenIntRegister
TI ARM Assembler Unix v18.1.1 Fri Jul  3 20:08:25 2020

Tools Copyright (c) 1996-2017 Texas Instruments Incorporated
pwm.asm                                                              PAGE   50

    2696 000003ac                   .thumb
    2697                            .global PWMGenIntRegister
    2698                    
    2699                    $C$DW$129       .dwtag  DW_TAG_subprogram
    2700                            .dwattr $C$DW$129, DW_AT_name("PWMGenIntRegister")
    2701                            .dwattr $C$DW$129, DW_AT_low_pc(PWMGenIntRegister)
    2702                            .dwattr $C$DW$129, DW_AT_high_pc(0x00)
    2703                            .dwattr $C$DW$129, DW_AT_TI_symbol_name("PWMGenIntRegister")
    2704                            .dwattr $C$DW$129, DW_AT_external
    2705                            .dwattr $C$DW$129, DW_AT_TI_begin_file("../driverlib/pwm.c")
    2706                            .dwattr $C$DW$129, DW_AT_TI_begin_line(0x440)
    2707                            .dwattr $C$DW$129, DW_AT_TI_begin_column(0x01)
    2708                            .dwattr $C$DW$129, DW_AT_decl_file("../driverlib/pwm.c")
    2709                            .dwattr $C$DW$129, DW_AT_decl_line(0x440)
    2710                            .dwattr $C$DW$129, DW_AT_decl_column(0x01)
    2711                            .dwattr $C$DW$129, DW_AT_TI_max_frame_size(0x18)
    2712                            .dwpsn  file "../driverlib/pwm.c",line 1090,column 1,is_stmt,address PWMGenIntRegister,isa 1
    2713                    
    2714                            .dwfde $C$DW$CIE, PWMGenIntRegister
    2715                    $C$DW$130       .dwtag  DW_TAG_formal_parameter
    2716                            .dwattr $C$DW$130, DW_AT_name("ui32Base")
    2717                            .dwattr $C$DW$130, DW_AT_TI_symbol_name("ui32Base")
    2718                            .dwattr $C$DW$130, DW_AT_type(*$C$DW$T$27)
    2719                            .dwattr $C$DW$130, DW_AT_location[DW_OP_reg0]
    2720                    
    2721                    $C$DW$131       .dwtag  DW_TAG_formal_parameter
    2722                            .dwattr $C$DW$131, DW_AT_name("ui32Gen")
    2723                            .dwattr $C$DW$131, DW_AT_TI_symbol_name("ui32Gen")
    2724                            .dwattr $C$DW$131, DW_AT_type(*$C$DW$T$27)
    2725                            .dwattr $C$DW$131, DW_AT_location[DW_OP_reg1]
    2726                    
    2727                    $C$DW$132       .dwtag  DW_TAG_formal_parameter
    2728                            .dwattr $C$DW$132, DW_AT_name("pfnIntHandler")
    2729                            .dwattr $C$DW$132, DW_AT_TI_symbol_name("pfnIntHandler")
    2730                            .dwattr $C$DW$132, DW_AT_type(*$C$DW$T$25)
    2731                            .dwattr $C$DW$132, DW_AT_location[DW_OP_reg2]
    2732                    
    2733                    ;----------------------------------------------------------------------
    2734                    ; 1088 | PWMGenIntRegister(uint32_t ui32Base, uint32_t ui32Gen,                 
    2735                    ; 1089 | void (*pfnIntHandler)(void))                                           
    2736                    ;----------------------------------------------------------------------
    2737                    
    2738                    ;*****************************************************************************
    2739                    ;* FUNCTION NAME: PWMGenIntRegister                                          *
    2740                    ;*                                                                           *
    2741                    ;*   Regs Modified     : A1,A2,A3,A4,V9,SP,LR,SR,D0,D0_hi,D1,D1_hi,D2,D2_hi, *
    2742                    ;*                           D3,D3_hi,D4,D4_hi,D5,D5_hi,D6,D6_hi,D7,D7_hi,   *
    2743                    ;*                           FPEXC,FPSCR                                     *
    2744                    ;*   Regs Used         : A1,A2,A3,A4,V9,SP,LR,SR,D0,D0_hi,D1,D1_hi,D2,D2_hi, *
    2745                    ;*                           D3,D3_hi,D4,D4_hi,D5,D5_hi,D6,D6_hi,D7,D7_hi,   *
    2746                    ;*                           FPEXC,FPSCR                                     *
    2747                    ;*   Local Frame Size  : 0 Args + 16 Auto + 4 Save = 20 byte                 *
    2748                    ;*****************************************************************************
    2749 000003ac           PWMGenIntRegister:
    2750                    ;* --------------------------------------------------------------------------*
TI ARM Assembler Unix v18.1.1 Fri Jul  3 20:08:25 2020

Tools Copyright (c) 1996-2017 Texas Instruments Incorporated
pwm.asm                                                              PAGE   51

    2751                            .dwcfi  cfa_offset, 0
    2752 000003ac B500              PUSH      {LR}                  ; [DPU_V7M3_PIPE]  ; [ORIG 16-BIT INS]
    2753                            .dwcfi  cfa_offset, 4
    2754                            .dwcfi  save_reg_to_mem, 14, -4
    2755 000003ae 0D14F1AD          SUB       SP, SP, #20           ; [DPU_V7M3_PIPE]  ; [KEEP 32-BIT INS]
    2756                            .dwcfi  cfa_offset, 24
    2757                    $C$DW$133       .dwtag  DW_TAG_variable
    2758                            .dwattr $C$DW$133, DW_AT_name("ui32Base")
    2759                            .dwattr $C$DW$133, DW_AT_TI_symbol_name("ui32Base")
    2760                            .dwattr $C$DW$133, DW_AT_type(*$C$DW$T$27)
    2761                            .dwattr $C$DW$133, DW_AT_location[DW_OP_breg13 0]
    2762                    
    2763                    $C$DW$134       .dwtag  DW_TAG_variable
    2764                            .dwattr $C$DW$134, DW_AT_name("ui32Gen")
    2765                            .dwattr $C$DW$134, DW_AT_TI_symbol_name("ui32Gen")
    2766                            .dwattr $C$DW$134, DW_AT_type(*$C$DW$T$27)
    2767                            .dwattr $C$DW$134, DW_AT_location[DW_OP_breg13 4]
    2768                    
    2769                    $C$DW$135       .dwtag  DW_TAG_variable
    2770                            .dwattr $C$DW$135, DW_AT_name("pfnIntHandler")
    2771                            .dwattr $C$DW$135, DW_AT_TI_symbol_name("pfnIntHandler")
    2772                            .dwattr $C$DW$135, DW_AT_type(*$C$DW$T$25)
    2773                            .dwattr $C$DW$135, DW_AT_location[DW_OP_breg13 8]
    2774                    
    2775                    $C$DW$136       .dwtag  DW_TAG_variable
    2776                            .dwattr $C$DW$136, DW_AT_name("ui32Int")
    2777                            .dwattr $C$DW$136, DW_AT_TI_symbol_name("ui32Int")
    2778                            .dwattr $C$DW$136, DW_AT_type(*$C$DW$T$27)
    2779                            .dwattr $C$DW$136, DW_AT_location[DW_OP_breg13 12]
    2780                    
    2781                    ;----------------------------------------------------------------------
    2782                    ; 1091 | uint32_t ui32Int;                                                      
    2783                    ; 1093 | //                                                                     
    2784                    ; 1094 | // Check the arguments.                                                
    2785                    ; 1095 | //                                                                     
    2786                    ; 1096 | ASSERT((ui32Base == PWM0_BASE) || (ui32Base == PWM1_BASE));            
    2787                    ; 1097 | ASSERT(_PWMGenValid(ui32Gen));                                         
    2788                    ; 1099 | //                                                                     
    2789                    ; 1100 | // Get the interrupt number associated with the specified generator.   
    2790                    ; 1101 | //                                                                     
    2791                    ;----------------------------------------------------------------------
    2792 000003b2 9202              STR       A3, [SP, #8]          ; [DPU_V7M3_PIPE] |1090|  ; [ORIG 16-BIT INS]
    2793 000003b4 9101              STR       A2, [SP, #4]          ; [DPU_V7M3_PIPE] |1090|  ; [ORIG 16-BIT INS]
    2794 000003b6 9000              STR       A1, [SP, #0]          ; [DPU_V7M3_PIPE] |1090|  ; [ORIG 16-BIT INS]
    2795                            .dwpsn  file "../driverlib/pwm.c",line 1102,column 5,is_stmt,isa 1
    2796                    ;----------------------------------------------------------------------
    2797                    ; 1102 | ui32Int = _PWMGenIntNumberGet(ui32Base, ui32Gen);                      
    2798                    ; 1104 | ASSERT(ui32Int != 0);                                                  
    2799                    ; 1106 | //                                                                     
    2800                    ; 1107 | // Register the interrupt handler.                                     
    2801                    ; 1108 | //                                                                     
    2802                    ;----------------------------------------------------------------------
    2803 000003b8 9800              LDR       A1, [SP, #0]          ; [DPU_V7M3_PIPE] |1102|  ; [ORIG 16-BIT INS]
    2804 000003ba 9901              LDR       A2, [SP, #4]          ; [DPU_V7M3_PIPE] |1102|  ; [ORIG 16-BIT INS]
    2805                    $C$DW$137       .dwtag  DW_TAG_TI_branch
TI ARM Assembler Unix v18.1.1 Fri Jul  3 20:08:25 2020

Tools Copyright (c) 1996-2017 Texas Instruments Incorporated
pwm.asm                                                              PAGE   52

    2806                            .dwattr $C$DW$137, DW_AT_low_pc(0x00)
    2807                            .dwattr $C$DW$137, DW_AT_name("_PWMGenIntNumberGet")
    2808                            .dwattr $C$DW$137, DW_AT_TI_call
    2809                    
    2810 000003bc FFFEF7FF!         BL        _PWMGenIntNumberGet   ; [DPU_V7M3_PIPE] |1102|  ; [KEEP 32-BIT INS]
    2811                            ; CALL OCCURS {_PWMGenIntNumberGet }  ; [] |1102| 
    2812 000003c0 9003              STR       A1, [SP, #12]         ; [DPU_V7M3_PIPE] |1102|  ; [ORIG 16-BIT INS]
    2813                            .dwpsn  file "../driverlib/pwm.c",line 1109,column 5,is_stmt,isa 1
    2814                    ;----------------------------------------------------------------------
    2815                    ; 1109 | IntRegister(ui32Int, pfnIntHandler);                                   
    2816                    ; 1111 | //                                                                     
    2817                    ; 1112 | // Enable the PWMx interrupt.                                          
    2818                    ; 1113 | //                                                                     
    2819                    ;----------------------------------------------------------------------
    2820 000003c2 9902              LDR       A2, [SP, #8]          ; [DPU_V7M3_PIPE] |1109|  ; [ORIG 16-BIT INS]
    2821 000003c4 9803              LDR       A1, [SP, #12]         ; [DPU_V7M3_PIPE] |1109|  ; [ORIG 16-BIT INS]
    2822                    $C$DW$138       .dwtag  DW_TAG_TI_branch
    2823                            .dwattr $C$DW$138, DW_AT_low_pc(0x00)
    2824                            .dwattr $C$DW$138, DW_AT_name("IntRegister")
    2825                            .dwattr $C$DW$138, DW_AT_TI_call
    2826                    
    2827 000003c6 FFFEF7FF!         BL        IntRegister           ; [DPU_V7M3_PIPE] |1109|  ; [KEEP 32-BIT INS]
    2828                            ; CALL OCCURS {IntRegister }     ; [] |1109| 
    2829                            .dwpsn  file "../driverlib/pwm.c",line 1114,column 5,is_stmt,isa 1
    2830                    ;----------------------------------------------------------------------
    2831                    ; 1114 | IntEnable(ui32Int);                                                    
    2832                    ;----------------------------------------------------------------------
    2833 000003ca 9803              LDR       A1, [SP, #12]         ; [DPU_V7M3_PIPE] |1114|  ; [ORIG 16-BIT INS]
    2834                    $C$DW$139       .dwtag  DW_TAG_TI_branch
    2835                            .dwattr $C$DW$139, DW_AT_low_pc(0x00)
    2836                            .dwattr $C$DW$139, DW_AT_name("IntEnable")
    2837                            .dwattr $C$DW$139, DW_AT_TI_call
    2838                    
    2839 000003cc FFFEF7FF!         BL        IntEnable             ; [DPU_V7M3_PIPE] |1114|  ; [KEEP 32-BIT INS]
    2840                            ; CALL OCCURS {IntEnable }       ; [] |1114| 
    2841                            .dwpsn  file "../driverlib/pwm.c",line 1115,column 1,is_stmt,isa 1
    2842 000003d0 B005              ADD       SP, SP, #20           ; [DPU_V7M3_PIPE]  ; [ORIG 16-BIT INS]
    2843                            .dwcfi  cfa_offset, 4
    2844                    $C$DW$140       .dwtag  DW_TAG_TI_branch
    2845                            .dwattr $C$DW$140, DW_AT_low_pc(0x00)
    2846                            .dwattr $C$DW$140, DW_AT_TI_return
    2847                    
    2848 000003d2 BD00              POP       {PC}                  ; [DPU_V7M3_PIPE]  ; [ORIG 16-BIT INS]
    2849                            .dwcfi  cfa_offset, 0
    2850                            ; BRANCH OCCURS                  ; [] 
    2851                            .dwattr $C$DW$129, DW_AT_TI_end_file("../driverlib/pwm.c")
    2852                            .dwattr $C$DW$129, DW_AT_TI_end_line(0x45b)
    2853                            .dwattr $C$DW$129, DW_AT_TI_end_column(0x01)
    2854                            .dwendentry
    2855                            .dwendtag $C$DW$129
    2856                    
    2857 000003d4                   .sect   ".text"
    2858                            .clink
    2859                            .thumbfunc PWMGenIntUnregister
    2860 000003d4                   .thumb
TI ARM Assembler Unix v18.1.1 Fri Jul  3 20:08:25 2020

Tools Copyright (c) 1996-2017 Texas Instruments Incorporated
pwm.asm                                                              PAGE   53

    2861                            .global PWMGenIntUnregister
    2862                    
    2863                    $C$DW$141       .dwtag  DW_TAG_subprogram
    2864                            .dwattr $C$DW$141, DW_AT_name("PWMGenIntUnregister")
    2865                            .dwattr $C$DW$141, DW_AT_low_pc(PWMGenIntUnregister)
    2866                            .dwattr $C$DW$141, DW_AT_high_pc(0x00)
    2867                            .dwattr $C$DW$141, DW_AT_TI_symbol_name("PWMGenIntUnregister")
    2868                            .dwattr $C$DW$141, DW_AT_external
    2869                            .dwattr $C$DW$141, DW_AT_TI_begin_file("../driverlib/pwm.c")
    2870                            .dwattr $C$DW$141, DW_AT_TI_begin_line(0x472)
    2871                            .dwattr $C$DW$141, DW_AT_TI_begin_column(0x01)
    2872                            .dwattr $C$DW$141, DW_AT_decl_file("../driverlib/pwm.c")
    2873                            .dwattr $C$DW$141, DW_AT_decl_line(0x472)
    2874                            .dwattr $C$DW$141, DW_AT_decl_column(0x01)
    2875                            .dwattr $C$DW$141, DW_AT_TI_max_frame_size(0x10)
    2876                            .dwpsn  file "../driverlib/pwm.c",line 1139,column 1,is_stmt,address PWMGenIntUnregister,isa 1
    2877                    
    2878                            .dwfde $C$DW$CIE, PWMGenIntUnregister
    2879                    $C$DW$142       .dwtag  DW_TAG_formal_parameter
    2880                            .dwattr $C$DW$142, DW_AT_name("ui32Base")
    2881                            .dwattr $C$DW$142, DW_AT_TI_symbol_name("ui32Base")
    2882                            .dwattr $C$DW$142, DW_AT_type(*$C$DW$T$27)
    2883                            .dwattr $C$DW$142, DW_AT_location[DW_OP_reg0]
    2884                    
    2885                    $C$DW$143       .dwtag  DW_TAG_formal_parameter
    2886                            .dwattr $C$DW$143, DW_AT_name("ui32Gen")
    2887                            .dwattr $C$DW$143, DW_AT_TI_symbol_name("ui32Gen")
    2888                            .dwattr $C$DW$143, DW_AT_type(*$C$DW$T$27)
    2889                            .dwattr $C$DW$143, DW_AT_location[DW_OP_reg1]
    2890                    
    2891                    ;----------------------------------------------------------------------
    2892                    ; 1138 | PWMGenIntUnregister(uint32_t ui32Base, uint32_t ui32Gen)               
    2893                    ;----------------------------------------------------------------------
    2894                    
    2895                    ;*****************************************************************************
    2896                    ;* FUNCTION NAME: PWMGenIntUnregister                                        *
    2897                    ;*                                                                           *
    2898                    ;*   Regs Modified     : A1,A2,A3,A4,V9,SP,LR,SR,D0,D0_hi,D1,D1_hi,D2,D2_hi, *
    2899                    ;*                           D3,D3_hi,D4,D4_hi,D5,D5_hi,D6,D6_hi,D7,D7_hi,   *
    2900                    ;*                           FPEXC,FPSCR                                     *
    2901                    ;*   Regs Used         : A1,A2,A3,A4,V9,SP,LR,SR,D0,D0_hi,D1,D1_hi,D2,D2_hi, *
    2902                    ;*                           D3,D3_hi,D4,D4_hi,D5,D5_hi,D6,D6_hi,D7,D7_hi,   *
    2903                    ;*                           FPEXC,FPSCR                                     *
    2904                    ;*   Local Frame Size  : 0 Args + 12 Auto + 4 Save = 16 byte                 *
    2905                    ;*****************************************************************************
    2906 000003d4           PWMGenIntUnregister:
    2907                    ;* --------------------------------------------------------------------------*
    2908                            .dwcfi  cfa_offset, 0
    2909 000003d4 B50E              PUSH      {A2, A3, A4, LR}      ; [DPU_V7M3_PIPE]  ; [ORIG 16-BIT INS]
    2910                            .dwcfi  cfa_offset, 16
    2911                            .dwcfi  save_reg_to_mem, 14, -4
    2912                            .dwcfi  save_reg_to_mem, 3, -8
    2913                            .dwcfi  save_reg_to_mem, 2, -12
    2914                            .dwcfi  save_reg_to_mem, 1, -16
    2915                    $C$DW$144       .dwtag  DW_TAG_variable
TI ARM Assembler Unix v18.1.1 Fri Jul  3 20:08:25 2020

Tools Copyright (c) 1996-2017 Texas Instruments Incorporated
pwm.asm                                                              PAGE   54

    2916                            .dwattr $C$DW$144, DW_AT_name("ui32Base")
    2917                            .dwattr $C$DW$144, DW_AT_TI_symbol_name("ui32Base")
    2918                            .dwattr $C$DW$144, DW_AT_type(*$C$DW$T$27)
    2919                            .dwattr $C$DW$144, DW_AT_location[DW_OP_breg13 0]
    2920                    
    2921                    $C$DW$145       .dwtag  DW_TAG_variable
    2922                            .dwattr $C$DW$145, DW_AT_name("ui32Gen")
    2923                            .dwattr $C$DW$145, DW_AT_TI_symbol_name("ui32Gen")
    2924                            .dwattr $C$DW$145, DW_AT_type(*$C$DW$T$27)
    2925                            .dwattr $C$DW$145, DW_AT_location[DW_OP_breg13 4]
    2926                    
    2927                    $C$DW$146       .dwtag  DW_TAG_variable
    2928                            .dwattr $C$DW$146, DW_AT_name("ui32Int")
    2929                            .dwattr $C$DW$146, DW_AT_TI_symbol_name("ui32Int")
    2930                            .dwattr $C$DW$146, DW_AT_type(*$C$DW$T$27)
    2931                            .dwattr $C$DW$146, DW_AT_location[DW_OP_breg13 8]
    2932                    
    2933                    ;----------------------------------------------------------------------
    2934                    ; 1140 | uint32_t ui32Int;                                                      
    2935                    ; 1142 | //                                                                     
    2936                    ; 1143 | // Check the arguments.                                                
    2937                    ; 1144 | //                                                                     
    2938                    ; 1145 | ASSERT((ui32Base == PWM0_BASE) || (ui32Base == PWM1_BASE));            
    2939                    ; 1146 | ASSERT(_PWMGenValid(ui32Gen));                                         
    2940                    ; 1148 | //                                                                     
    2941                    ; 1149 | // Get the interrupt number associated with the specified generator.   
    2942                    ; 1150 | //                                                                     
    2943                    ;----------------------------------------------------------------------
    2944 000003d6 9101              STR       A2, [SP, #4]          ; [DPU_V7M3_PIPE] |1139|  ; [ORIG 16-BIT INS]
    2945 000003d8 9000              STR       A1, [SP, #0]          ; [DPU_V7M3_PIPE] |1139|  ; [ORIG 16-BIT INS]
    2946                            .dwpsn  file "../driverlib/pwm.c",line 1151,column 5,is_stmt,isa 1
    2947                    ;----------------------------------------------------------------------
    2948                    ; 1151 | ui32Int = _PWMGenIntNumberGet(ui32Base, ui32Gen);                      
    2949                    ; 1153 | ASSERT(ui32Int != 0);                                                  
    2950                    ; 1155 | //                                                                     
    2951                    ; 1156 | // Disable the PWMx interrupt.                                         
    2952                    ; 1157 | //                                                                     
    2953                    ;----------------------------------------------------------------------
    2954 000003da 9800              LDR       A1, [SP, #0]          ; [DPU_V7M3_PIPE] |1151|  ; [ORIG 16-BIT INS]
    2955 000003dc 9901              LDR       A2, [SP, #4]          ; [DPU_V7M3_PIPE] |1151|  ; [ORIG 16-BIT INS]
    2956                    $C$DW$147       .dwtag  DW_TAG_TI_branch
    2957                            .dwattr $C$DW$147, DW_AT_low_pc(0x00)
    2958                            .dwattr $C$DW$147, DW_AT_name("_PWMGenIntNumberGet")
    2959                            .dwattr $C$DW$147, DW_AT_TI_call
    2960                    
    2961 000003de FFFEF7FF!         BL        _PWMGenIntNumberGet   ; [DPU_V7M3_PIPE] |1151|  ; [KEEP 32-BIT INS]
    2962                            ; CALL OCCURS {_PWMGenIntNumberGet }  ; [] |1151| 
    2963 000003e2 9002              STR       A1, [SP, #8]          ; [DPU_V7M3_PIPE] |1151|  ; [ORIG 16-BIT INS]
    2964                            .dwpsn  file "../driverlib/pwm.c",line 1158,column 5,is_stmt,isa 1
    2965                    ;----------------------------------------------------------------------
    2966                    ; 1158 | IntDisable(ui32Int);                                                   
    2967                    ; 1160 | //                                                                     
    2968                    ; 1161 | // Unregister the interrupt handler.                                   
    2969                    ; 1162 | //                                                                     
    2970                    ;----------------------------------------------------------------------
TI ARM Assembler Unix v18.1.1 Fri Jul  3 20:08:25 2020

Tools Copyright (c) 1996-2017 Texas Instruments Incorporated
pwm.asm                                                              PAGE   55

    2971 000003e4 9802              LDR       A1, [SP, #8]          ; [DPU_V7M3_PIPE] |1158|  ; [ORIG 16-BIT INS]
    2972                    $C$DW$148       .dwtag  DW_TAG_TI_branch
    2973                            .dwattr $C$DW$148, DW_AT_low_pc(0x00)
    2974                            .dwattr $C$DW$148, DW_AT_name("IntDisable")
    2975                            .dwattr $C$DW$148, DW_AT_TI_call
    2976                    
    2977 000003e6 FFFEF7FF!         BL        IntDisable            ; [DPU_V7M3_PIPE] |1158|  ; [KEEP 32-BIT INS]
    2978                            ; CALL OCCURS {IntDisable }      ; [] |1158| 
    2979                            .dwpsn  file "../driverlib/pwm.c",line 1163,column 5,is_stmt,isa 1
    2980                    ;----------------------------------------------------------------------
    2981                    ; 1163 | IntUnregister(ui32Int);                                                
    2982                    ;----------------------------------------------------------------------
    2983 000003ea 9802              LDR       A1, [SP, #8]          ; [DPU_V7M3_PIPE] |1163|  ; [ORIG 16-BIT INS]
    2984                    $C$DW$149       .dwtag  DW_TAG_TI_branch
    2985                            .dwattr $C$DW$149, DW_AT_low_pc(0x00)
    2986                            .dwattr $C$DW$149, DW_AT_name("IntUnregister")
    2987                            .dwattr $C$DW$149, DW_AT_TI_call
    2988                    
    2989 000003ec FFFEF7FF!         BL        IntUnregister         ; [DPU_V7M3_PIPE] |1163|  ; [KEEP 32-BIT INS]
    2990                            ; CALL OCCURS {IntUnregister }   ; [] |1163| 
    2991                            .dwpsn  file "../driverlib/pwm.c",line 1164,column 1,is_stmt,isa 1
    2992                    $C$DW$150       .dwtag  DW_TAG_TI_branch
    2993                            .dwattr $C$DW$150, DW_AT_low_pc(0x00)
    2994                            .dwattr $C$DW$150, DW_AT_TI_return
    2995                    
    2996 000003f0 BD0E              POP       {A2, A3, A4, PC}      ; [DPU_V7M3_PIPE]  ; [ORIG 16-BIT INS]
    2997                            .dwcfi  cfa_offset, 0
    2998                            .dwcfi  restore_reg, 3
    2999                            .dwcfi  restore_reg, 2
    3000                            .dwcfi  restore_reg, 1
    3001                            ; BRANCH OCCURS                  ; [] 
    3002                            .dwattr $C$DW$141, DW_AT_TI_end_file("../driverlib/pwm.c")
    3003                            .dwattr $C$DW$141, DW_AT_TI_end_line(0x48c)
    3004                            .dwattr $C$DW$141, DW_AT_TI_end_column(0x01)
    3005                            .dwendentry
    3006                            .dwendtag $C$DW$141
    3007                    
    3008 000003f2                   .sect   ".text"
    3009                            .clink
    3010                            .thumbfunc _PWMFaultIntNumberGet
    3011 000003f2                   .thumb
    3012                    
    3013                    $C$DW$151       .dwtag  DW_TAG_subprogram
    3014                            .dwattr $C$DW$151, DW_AT_name("_PWMFaultIntNumberGet")
    3015                            .dwattr $C$DW$151, DW_AT_low_pc(_PWMFaultIntNumberGet)
    3016                            .dwattr $C$DW$151, DW_AT_high_pc(0x00)
    3017                            .dwattr $C$DW$151, DW_AT_TI_symbol_name("_PWMFaultIntNumberGet")
    3018                            .dwattr $C$DW$151, DW_AT_type(*$C$DW$T$27)
    3019                            .dwattr $C$DW$151, DW_AT_TI_begin_file("../driverlib/pwm.c")
    3020                            .dwattr $C$DW$151, DW_AT_TI_begin_line(0x49b)
    3021                            .dwattr $C$DW$151, DW_AT_TI_begin_column(0x01)
    3022                            .dwattr $C$DW$151, DW_AT_decl_file("../driverlib/pwm.c")
    3023                            .dwattr $C$DW$151, DW_AT_decl_line(0x49b)
    3024                            .dwattr $C$DW$151, DW_AT_decl_column(0x01)
    3025                            .dwattr $C$DW$151, DW_AT_TI_max_frame_size(0x08)
TI ARM Assembler Unix v18.1.1 Fri Jul  3 20:08:25 2020

Tools Copyright (c) 1996-2017 Texas Instruments Incorporated
pwm.asm                                                              PAGE   56

    3026                            .dwpsn  file "../driverlib/pwm.c",line 1180,column 1,is_stmt,address _PWMFaultIntNumberGet,isa
    3027                    
    3028                            .dwfde $C$DW$CIE, _PWMFaultIntNumberGet
    3029                    $C$DW$152       .dwtag  DW_TAG_formal_parameter
    3030                            .dwattr $C$DW$152, DW_AT_name("ui32Base")
    3031                            .dwattr $C$DW$152, DW_AT_TI_symbol_name("ui32Base")
    3032                            .dwattr $C$DW$152, DW_AT_type(*$C$DW$T$27)
    3033                            .dwattr $C$DW$152, DW_AT_location[DW_OP_reg0]
    3034                    
    3035                    ;----------------------------------------------------------------------
    3036                    ; 1179 | _PWMFaultIntNumberGet(uint32_t ui32Base)                               
    3037                    ;----------------------------------------------------------------------
    3038                    
    3039                    ;*****************************************************************************
    3040                    ;* FUNCTION NAME: _PWMFaultIntNumberGet                                      *
    3041                    ;*                                                                           *
    3042                    ;*   Regs Modified     : A1,A2,A3,SP,SR                                      *
    3043                    ;*   Regs Used         : A1,A2,A3,SP,LR,SR                                   *
    3044                    ;*   Local Frame Size  : 0 Args + 4 Auto + 0 Save = 4 byte                   *
    3045                    ;*****************************************************************************
    3046 000003f2           _PWMFaultIntNumberGet:
    3047                    ;* --------------------------------------------------------------------------*
    3048                            .dwcfi  cfa_offset, 0
    3049 000003f2 0D08F1AD          SUB       SP, SP, #8            ; [DPU_V7M3_PIPE]  ; [KEEP 32-BIT INS]
    3050                            .dwcfi  cfa_offset, 8
    3051                    $C$DW$153       .dwtag  DW_TAG_variable
    3052                            .dwattr $C$DW$153, DW_AT_name("ui32Base")
    3053                            .dwattr $C$DW$153, DW_AT_TI_symbol_name("ui32Base")
    3054                            .dwattr $C$DW$153, DW_AT_type(*$C$DW$T$27)
    3055                            .dwattr $C$DW$153, DW_AT_location[DW_OP_breg13 0]
    3056                    
    3057                    ;----------------------------------------------------------------------
    3058                    ; 1181 | //                                                                     
    3059                    ; 1182 | // Return the fault interrupt number.                                  
    3060                    ; 1183 | //                                                                     
    3061                    ;----------------------------------------------------------------------
    3062 000003f6 9000              STR       A1, [SP, #0]          ; [DPU_V7M3_PIPE] |1180|  ; [ORIG 16-BIT INS]
    3063                            .dwpsn  file "../driverlib/pwm.c",line 1184,column 5,is_stmt,isa 1
    3064                    ;----------------------------------------------------------------------
    3065                    ; 1184 | if(CLASS_IS_TM4C123)                                                   
    3066                    ;----------------------------------------------------------------------
    3067 000003f8 495B              LDR       A2, $C$CON2           ; [DPU_V7M3_PIPE] |1184|  ; [ORIG 16-BIT INS]
    3068 000003fa 485A              LDR       A1, $C$CON1           ; [DPU_V7M3_PIPE] |1184|  ; [ORIG 16-BIT INS]
    3069 000003fc 680A              LDR       A3, [A2, #0]          ; [DPU_V7M3_PIPE] |1184|  ; [ORIG 16-BIT INS]
    3070 000003fe 495B              LDR       A2, $C$CON3           ; [DPU_V7M3_PIPE] |1184|  ; [ORIG 16-BIT INS]
    3071 00000400 4010              ANDS      A1, A1, A3            ; [DPU_V7M3_PIPE] |1184|  ; [ORIG 16-BIT INS]
    3072 00000402 4281              CMP       A2, A1                ; [DPU_V7M3_PIPE] |1184|  ; [ORIG 16-BIT INS]
    3073 00000404 D107              BNE       ||$C$L42||            ; [DPU_V7M3_PIPE] |1184|  ; [ORIG 16-BIT INS]
    3074                            ; BRANCHCC OCCURS {||$C$L42||}   ; [] |1184| 
    3075                    ;* --------------------------------------------------------------------------*
    3076                            .dwpsn  file "../driverlib/pwm.c",line 1186,column 9,is_stmt,isa 1
    3077                    ;----------------------------------------------------------------------
    3078                    ; 1186 | return((ui32Base == PWM0_BASE) ? INT_PWM0_FAULT_TM4C123 :              
    3079                    ; 1187 |        INT_PWM1_FAULT_TM4C123);                                        
    3080                    ;----------------------------------------------------------------------
TI ARM Assembler Unix v18.1.1 Fri Jul  3 20:08:25 2020

Tools Copyright (c) 1996-2017 Texas Instruments Incorporated
pwm.asm                                                              PAGE   57

    3081 00000406 49A6              LDR       A2, $C$CON6           ; [DPU_V7M3_PIPE] |1186|  ; [ORIG 16-BIT INS]
    3082 00000408 9800              LDR       A1, [SP, #0]          ; [DPU_V7M3_PIPE] |1186|  ; [ORIG 16-BIT INS]
    3083 0000040a 4281              CMP       A2, A1                ; [DPU_V7M3_PIPE] |1186|  ; [ORIG 16-BIT INS]
    3084 0000040c D101              BNE       ||$C$L41||            ; [DPU_V7M3_PIPE] |1186|  ; [ORIG 16-BIT INS]
    3085                            ; BRANCHCC OCCURS {||$C$L41||}   ; [] |1186| 
    3086                    ;* --------------------------------------------------------------------------*
    3087 0000040e 2019              MOVS      A1, #25               ; [DPU_V7M3_PIPE] |1186|  ; [ORIG 16-BIT INS]
    3088 00000410 E011              B         ||$C$L45||            ; [DPU_V7M3_PIPE] |1186|  ; [ORIG 16-BIT INS]
    3089                            ; BRANCH OCCURS {||$C$L45||}     ; [] |1186| 
    3090                    ;* --------------------------------------------------------------------------*
    3091 00000412           ||$C$L41||:    
    3092 00000412 209A              MOVS      A1, #154              ; [DPU_V7M3_PIPE] |1186|  ; [ORIG 16-BIT INS]
    3093 00000414 E00F              B         ||$C$L45||            ; [DPU_V7M3_PIPE] |1186|  ; [ORIG 16-BIT INS]
    3094                            ; BRANCH OCCURS {||$C$L45||}     ; [] |1186| 
    3095                    ;* --------------------------------------------------------------------------*
    3096                    ;* --------------------------------------------------------------------------*
    3097 00000416           ||$C$L42||:    
    3098                            .dwpsn  file "../driverlib/pwm.c",line 1189,column 10,is_stmt,isa 1
    3099                    ;----------------------------------------------------------------------
    3100                    ; 1189 | else if(CLASS_IS_TM4C129)                                              
    3101                    ;----------------------------------------------------------------------
    3102 00000416 4954              LDR       A2, $C$CON2           ; [DPU_V7M3_PIPE] |1189|  ; [ORIG 16-BIT INS]
    3103 00000418 4852              LDR       A1, $C$CON1           ; [DPU_V7M3_PIPE] |1189|  ; [ORIG 16-BIT INS]
    3104 0000041a 680A              LDR       A3, [A2, #0]          ; [DPU_V7M3_PIPE] |1189|  ; [ORIG 16-BIT INS]
    3105 0000041c 495F              LDR       A2, $C$CON4           ; [DPU_V7M3_PIPE] |1189|  ; [ORIG 16-BIT INS]
    3106 0000041e 4010              ANDS      A1, A1, A3            ; [DPU_V7M3_PIPE] |1189|  ; [ORIG 16-BIT INS]
    3107 00000420 4281              CMP       A2, A1                ; [DPU_V7M3_PIPE] |1189|  ; [ORIG 16-BIT INS]
    3108 00000422 D107              BNE       ||$C$L44||            ; [DPU_V7M3_PIPE] |1189|  ; [ORIG 16-BIT INS]
    3109                            ; BRANCHCC OCCURS {||$C$L44||}   ; [] |1189| 
    3110                    ;* --------------------------------------------------------------------------*
    3111                            .dwpsn  file "../driverlib/pwm.c",line 1191,column 9,is_stmt,isa 1
    3112                    ;----------------------------------------------------------------------
    3113                    ; 1191 | return((ui32Base == PWM0_BASE) ? INT_PWM0_FAULT_TM4C129 : 0);          
    3114                    ; 1193 | else                                                                   
    3115                    ;----------------------------------------------------------------------
    3116 00000424 499E              LDR       A2, $C$CON6           ; [DPU_V7M3_PIPE] |1191|  ; [ORIG 16-BIT INS]
    3117 00000426 9800              LDR       A1, [SP, #0]          ; [DPU_V7M3_PIPE] |1191|  ; [ORIG 16-BIT INS]
    3118 00000428 4281              CMP       A2, A1                ; [DPU_V7M3_PIPE] |1191|  ; [ORIG 16-BIT INS]
    3119 0000042a D101              BNE       ||$C$L43||            ; [DPU_V7M3_PIPE] |1191|  ; [ORIG 16-BIT INS]
    3120                            ; BRANCHCC OCCURS {||$C$L43||}   ; [] |1191| 
    3121                    ;* --------------------------------------------------------------------------*
    3122 0000042c 2019              MOVS      A1, #25               ; [DPU_V7M3_PIPE] |1191|  ; [ORIG 16-BIT INS]
    3123 0000042e E002              B         ||$C$L45||            ; [DPU_V7M3_PIPE] |1191|  ; [ORIG 16-BIT INS]
    3124                            ; BRANCH OCCURS {||$C$L45||}     ; [] |1191| 
    3125                    ;* --------------------------------------------------------------------------*
    3126 00000430           ||$C$L43||:    
    3127 00000430 2000              MOVS      A1, #0                ; [DPU_V7M3_PIPE] |1191|  ; [ORIG 16-BIT INS]
    3128 00000432 E000              B         ||$C$L45||            ; [DPU_V7M3_PIPE] |1191|  ; [ORIG 16-BIT INS]
    3129                            ; BRANCH OCCURS {||$C$L45||}     ; [] |1191| 
    3130                    ;* --------------------------------------------------------------------------*
    3131                    ;* --------------------------------------------------------------------------*
    3132 00000434           ||$C$L44||:    
    3133                            .dwpsn  file "../driverlib/pwm.c",line 1195,column 9,is_stmt,isa 1
    3134                    ;----------------------------------------------------------------------
    3135                    ; 1195 | return(0);                                                             
TI ARM Assembler Unix v18.1.1 Fri Jul  3 20:08:25 2020

Tools Copyright (c) 1996-2017 Texas Instruments Incorporated
pwm.asm                                                              PAGE   58

    3136                    ;----------------------------------------------------------------------
    3137 00000434 2000              MOVS      A1, #0                ; [DPU_V7M3_PIPE] |1195|  ; [ORIG 16-BIT INS]
    3138                    ;* --------------------------------------------------------------------------*
    3139 00000436           ||$C$L45||:    
    3140                            .dwpsn  file "../driverlib/pwm.c",line 1197,column 1,is_stmt,isa 1
    3141 00000436 B002              ADD       SP, SP, #8            ; [DPU_V7M3_PIPE]  ; [ORIG 16-BIT INS]
    3142                            .dwcfi  cfa_offset, 0
    3143                    $C$DW$154       .dwtag  DW_TAG_TI_branch
    3144                            .dwattr $C$DW$154, DW_AT_low_pc(0x00)
    3145                            .dwattr $C$DW$154, DW_AT_TI_return
    3146                    
    3147 00000438 4770              BX        LR                    ; [DPU_V7M3_PIPE]  ; [ORIG 16-BIT INS]
    3148                            ; BRANCH OCCURS                  ; [] 
    3149                            .dwattr $C$DW$151, DW_AT_TI_end_file("../driverlib/pwm.c")
    3150                            .dwattr $C$DW$151, DW_AT_TI_end_line(0x4ad)
    3151                            .dwattr $C$DW$151, DW_AT_TI_end_column(0x01)
    3152                            .dwendentry
    3153                            .dwendtag $C$DW$151
    3154                    
    3155 0000043a                   .sect   ".text"
    3156                            .clink
    3157                            .thumbfunc PWMFaultIntRegister
    3158 0000043a                   .thumb
    3159                            .global PWMFaultIntRegister
    3160                    
    3161                    $C$DW$155       .dwtag  DW_TAG_subprogram
    3162                            .dwattr $C$DW$155, DW_AT_name("PWMFaultIntRegister")
    3163                            .dwattr $C$DW$155, DW_AT_low_pc(PWMFaultIntRegister)
    3164                            .dwattr $C$DW$155, DW_AT_high_pc(0x00)
    3165                            .dwattr $C$DW$155, DW_AT_TI_symbol_name("PWMFaultIntRegister")
    3166                            .dwattr $C$DW$155, DW_AT_external
    3167                            .dwattr $C$DW$155, DW_AT_TI_begin_file("../driverlib/pwm.c")
    3168                            .dwattr $C$DW$155, DW_AT_TI_begin_line(0x4c5)
    3169                            .dwattr $C$DW$155, DW_AT_TI_begin_column(0x01)
    3170                            .dwattr $C$DW$155, DW_AT_decl_file("../driverlib/pwm.c")
    3171                            .dwattr $C$DW$155, DW_AT_decl_line(0x4c5)
    3172                            .dwattr $C$DW$155, DW_AT_decl_column(0x01)
    3173                            .dwattr $C$DW$155, DW_AT_TI_max_frame_size(0x10)
    3174                            .dwpsn  file "../driverlib/pwm.c",line 1222,column 1,is_stmt,address PWMFaultIntRegister,isa 1
    3175                    
    3176                            .dwfde $C$DW$CIE, PWMFaultIntRegister
    3177                    $C$DW$156       .dwtag  DW_TAG_formal_parameter
    3178                            .dwattr $C$DW$156, DW_AT_name("ui32Base")
    3179                            .dwattr $C$DW$156, DW_AT_TI_symbol_name("ui32Base")
    3180                            .dwattr $C$DW$156, DW_AT_type(*$C$DW$T$27)
    3181                            .dwattr $C$DW$156, DW_AT_location[DW_OP_reg0]
    3182                    
    3183                    $C$DW$157       .dwtag  DW_TAG_formal_parameter
    3184                            .dwattr $C$DW$157, DW_AT_name("pfnIntHandler")
    3185                            .dwattr $C$DW$157, DW_AT_TI_symbol_name("pfnIntHandler")
    3186                            .dwattr $C$DW$157, DW_AT_type(*$C$DW$T$25)
    3187                            .dwattr $C$DW$157, DW_AT_location[DW_OP_reg1]
    3188                    
    3189                    ;----------------------------------------------------------------------
    3190                    ; 1221 | PWMFaultIntRegister(uint32_t ui32Base, void (*pfnIntHandler)(void))    
TI ARM Assembler Unix v18.1.1 Fri Jul  3 20:08:25 2020

Tools Copyright (c) 1996-2017 Texas Instruments Incorporated
pwm.asm                                                              PAGE   59

    3191                    ;----------------------------------------------------------------------
    3192                    
    3193                    ;*****************************************************************************
    3194                    ;* FUNCTION NAME: PWMFaultIntRegister                                        *
    3195                    ;*                                                                           *
    3196                    ;*   Regs Modified     : A1,A2,A3,A4,V9,SP,LR,SR,D0,D0_hi,D1,D1_hi,D2,D2_hi, *
    3197                    ;*                           D3,D3_hi,D4,D4_hi,D5,D5_hi,D6,D6_hi,D7,D7_hi,   *
    3198                    ;*                           FPEXC,FPSCR                                     *
    3199                    ;*   Regs Used         : A1,A2,A3,A4,V9,SP,LR,SR,D0,D0_hi,D1,D1_hi,D2,D2_hi, *
    3200                    ;*                           D3,D3_hi,D4,D4_hi,D5,D5_hi,D6,D6_hi,D7,D7_hi,   *
    3201                    ;*                           FPEXC,FPSCR                                     *
    3202                    ;*   Local Frame Size  : 0 Args + 12 Auto + 4 Save = 16 byte                 *
    3203                    ;*****************************************************************************
    3204 0000043a           PWMFaultIntRegister:
    3205                    ;* --------------------------------------------------------------------------*
    3206                            .dwcfi  cfa_offset, 0
    3207 0000043a B50E              PUSH      {A2, A3, A4, LR}      ; [DPU_V7M3_PIPE]  ; [ORIG 16-BIT INS]
    3208                            .dwcfi  cfa_offset, 16
    3209                            .dwcfi  save_reg_to_mem, 14, -4
    3210                            .dwcfi  save_reg_to_mem, 3, -8
    3211                            .dwcfi  save_reg_to_mem, 2, -12
    3212                            .dwcfi  save_reg_to_mem, 1, -16
    3213                    $C$DW$158       .dwtag  DW_TAG_variable
    3214                            .dwattr $C$DW$158, DW_AT_name("ui32Base")
    3215                            .dwattr $C$DW$158, DW_AT_TI_symbol_name("ui32Base")
    3216                            .dwattr $C$DW$158, DW_AT_type(*$C$DW$T$27)
    3217                            .dwattr $C$DW$158, DW_AT_location[DW_OP_breg13 0]
    3218                    
    3219                    $C$DW$159       .dwtag  DW_TAG_variable
    3220                            .dwattr $C$DW$159, DW_AT_name("pfnIntHandler")
    3221                            .dwattr $C$DW$159, DW_AT_TI_symbol_name("pfnIntHandler")
    3222                            .dwattr $C$DW$159, DW_AT_type(*$C$DW$T$25)
    3223                            .dwattr $C$DW$159, DW_AT_location[DW_OP_breg13 4]
    3224                    
    3225                    $C$DW$160       .dwtag  DW_TAG_variable
    3226                            .dwattr $C$DW$160, DW_AT_name("ui32Int")
    3227                            .dwattr $C$DW$160, DW_AT_TI_symbol_name("ui32Int")
    3228                            .dwattr $C$DW$160, DW_AT_type(*$C$DW$T$27)
    3229                            .dwattr $C$DW$160, DW_AT_location[DW_OP_breg13 8]
    3230                    
    3231                    ;----------------------------------------------------------------------
    3232                    ; 1223 | uint32_t ui32Int;                                                      
    3233                    ; 1225 | //                                                                     
    3234                    ; 1226 | // Check the arguments.                                                
    3235                    ; 1227 | //                                                                     
    3236                    ; 1228 | ASSERT((ui32Base == PWM0_BASE) || (ui32Base == PWM1_BASE));            
    3237                    ; 1230 | //                                                                     
    3238                    ; 1231 | // Get the interrupt number associated with the specified module.      
    3239                    ; 1232 | //                                                                     
    3240                    ;----------------------------------------------------------------------
    3241 0000043c 9101              STR       A2, [SP, #4]          ; [DPU_V7M3_PIPE] |1222|  ; [ORIG 16-BIT INS]
    3242 0000043e 9000              STR       A1, [SP, #0]          ; [DPU_V7M3_PIPE] |1222|  ; [ORIG 16-BIT INS]
    3243                            .dwpsn  file "../driverlib/pwm.c",line 1233,column 5,is_stmt,isa 1
    3244                    ;----------------------------------------------------------------------
    3245                    ; 1233 | ui32Int = _PWMFaultIntNumberGet(ui32Base);                             
TI ARM Assembler Unix v18.1.1 Fri Jul  3 20:08:25 2020

Tools Copyright (c) 1996-2017 Texas Instruments Incorporated
pwm.asm                                                              PAGE   60

    3246                    ; 1235 | ASSERT(ui32Int != 0);                                                  
    3247                    ; 1237 | //                                                                     
    3248                    ; 1238 | // Register the interrupt handler, returning an error if one occurs.   
    3249                    ; 1239 | //                                                                     
    3250                    ;----------------------------------------------------------------------
    3251 00000440 9800              LDR       A1, [SP, #0]          ; [DPU_V7M3_PIPE] |1233|  ; [ORIG 16-BIT INS]
    3252                    $C$DW$161       .dwtag  DW_TAG_TI_branch
    3253                            .dwattr $C$DW$161, DW_AT_low_pc(0x00)
    3254                            .dwattr $C$DW$161, DW_AT_name("_PWMFaultIntNumberGet")
    3255                            .dwattr $C$DW$161, DW_AT_TI_call
    3256                    
    3257 00000442 FFFEF7FF!         BL        _PWMFaultIntNumberGet ; [DPU_V7M3_PIPE] |1233|  ; [KEEP 32-BIT INS]
    3258                            ; CALL OCCURS {_PWMFaultIntNumberGet }  ; [] |1233| 
    3259 00000446 9002              STR       A1, [SP, #8]          ; [DPU_V7M3_PIPE] |1233|  ; [ORIG 16-BIT INS]
    3260                            .dwpsn  file "../driverlib/pwm.c",line 1240,column 5,is_stmt,isa 1
    3261                    ;----------------------------------------------------------------------
    3262                    ; 1240 | IntRegister(ui32Int, pfnIntHandler);                                   
    3263                    ; 1242 | //                                                                     
    3264                    ; 1243 | // Enable the PWM fault interrupt.                                     
    3265                    ; 1244 | //                                                                     
    3266                    ;----------------------------------------------------------------------
    3267 00000448 9901              LDR       A2, [SP, #4]          ; [DPU_V7M3_PIPE] |1240|  ; [ORIG 16-BIT INS]
    3268 0000044a 9802              LDR       A1, [SP, #8]          ; [DPU_V7M3_PIPE] |1240|  ; [ORIG 16-BIT INS]
    3269                    $C$DW$162       .dwtag  DW_TAG_TI_branch
    3270                            .dwattr $C$DW$162, DW_AT_low_pc(0x00)
    3271                            .dwattr $C$DW$162, DW_AT_name("IntRegister")
    3272                            .dwattr $C$DW$162, DW_AT_TI_call
    3273                    
    3274 0000044c FFFEF7FF!         BL        IntRegister           ; [DPU_V7M3_PIPE] |1240|  ; [KEEP 32-BIT INS]
    3275                            ; CALL OCCURS {IntRegister }     ; [] |1240| 
    3276                            .dwpsn  file "../driverlib/pwm.c",line 1245,column 5,is_stmt,isa 1
    3277                    ;----------------------------------------------------------------------
    3278                    ; 1245 | IntEnable(ui32Int);                                                    
    3279                    ;----------------------------------------------------------------------
    3280 00000450 9802              LDR       A1, [SP, #8]          ; [DPU_V7M3_PIPE] |1245|  ; [ORIG 16-BIT INS]
    3281                    $C$DW$163       .dwtag  DW_TAG_TI_branch
    3282                            .dwattr $C$DW$163, DW_AT_low_pc(0x00)
    3283                            .dwattr $C$DW$163, DW_AT_name("IntEnable")
    3284                            .dwattr $C$DW$163, DW_AT_TI_call
    3285                    
    3286 00000452 FFFEF7FF!         BL        IntEnable             ; [DPU_V7M3_PIPE] |1245|  ; [KEEP 32-BIT INS]
    3287                            ; CALL OCCURS {IntEnable }       ; [] |1245| 
    3288                            .dwpsn  file "../driverlib/pwm.c",line 1246,column 1,is_stmt,isa 1
    3289                    $C$DW$164       .dwtag  DW_TAG_TI_branch
    3290                            .dwattr $C$DW$164, DW_AT_low_pc(0x00)
    3291                            .dwattr $C$DW$164, DW_AT_TI_return
    3292                    
    3293 00000456 BD0E              POP       {A2, A3, A4, PC}      ; [DPU_V7M3_PIPE]  ; [ORIG 16-BIT INS]
    3294                            .dwcfi  cfa_offset, 0
    3295                            .dwcfi  restore_reg, 3
    3296                            .dwcfi  restore_reg, 2
    3297                            .dwcfi  restore_reg, 1
    3298                            ; BRANCH OCCURS                  ; [] 
    3299                            .dwattr $C$DW$155, DW_AT_TI_end_file("../driverlib/pwm.c")
    3300                            .dwattr $C$DW$155, DW_AT_TI_end_line(0x4de)
TI ARM Assembler Unix v18.1.1 Fri Jul  3 20:08:25 2020

Tools Copyright (c) 1996-2017 Texas Instruments Incorporated
pwm.asm                                                              PAGE   61

    3301                            .dwattr $C$DW$155, DW_AT_TI_end_column(0x01)
    3302                            .dwendentry
    3303                            .dwendtag $C$DW$155
    3304                    
    3305 00000458                   .sect   ".text"
    3306                            .clink
    3307                            .thumbfunc PWMFaultIntUnregister
    3308 00000458                   .thumb
    3309                            .global PWMFaultIntUnregister
    3310                    
    3311                    $C$DW$165       .dwtag  DW_TAG_subprogram
    3312                            .dwattr $C$DW$165, DW_AT_name("PWMFaultIntUnregister")
    3313                            .dwattr $C$DW$165, DW_AT_low_pc(PWMFaultIntUnregister)
    3314                            .dwattr $C$DW$165, DW_AT_high_pc(0x00)
    3315                            .dwattr $C$DW$165, DW_AT_TI_symbol_name("PWMFaultIntUnregister")
    3316                            .dwattr $C$DW$165, DW_AT_external
    3317                            .dwattr $C$DW$165, DW_AT_TI_begin_file("../driverlib/pwm.c")
    3318                            .dwattr $C$DW$165, DW_AT_TI_begin_line(0x4f2)
    3319                            .dwattr $C$DW$165, DW_AT_TI_begin_column(0x01)
    3320                            .dwattr $C$DW$165, DW_AT_decl_file("../driverlib/pwm.c")
    3321                            .dwattr $C$DW$165, DW_AT_decl_line(0x4f2)
    3322                            .dwattr $C$DW$165, DW_AT_decl_column(0x01)
    3323                            .dwattr $C$DW$165, DW_AT_TI_max_frame_size(0x10)
    3324                            .dwpsn  file "../driverlib/pwm.c",line 1267,column 1,is_stmt,address PWMFaultIntUnregister,isa
    3325                    
    3326                            .dwfde $C$DW$CIE, PWMFaultIntUnregister
    3327                    $C$DW$166       .dwtag  DW_TAG_formal_parameter
    3328                            .dwattr $C$DW$166, DW_AT_name("ui32Base")
    3329                            .dwattr $C$DW$166, DW_AT_TI_symbol_name("ui32Base")
    3330                            .dwattr $C$DW$166, DW_AT_type(*$C$DW$T$27)
    3331                            .dwattr $C$DW$166, DW_AT_location[DW_OP_reg0]
    3332                    
    3333                    ;----------------------------------------------------------------------
    3334                    ; 1266 | PWMFaultIntUnregister(uint32_t ui32Base)                               
    3335                    ;----------------------------------------------------------------------
    3336                    
    3337                    ;*****************************************************************************
    3338                    ;* FUNCTION NAME: PWMFaultIntUnregister                                      *
    3339                    ;*                                                                           *
    3340                    ;*   Regs Modified     : A1,A2,A3,A4,V9,SP,LR,SR,D0,D0_hi,D1,D1_hi,D2,D2_hi, *
    3341                    ;*                           D3,D3_hi,D4,D4_hi,D5,D5_hi,D6,D6_hi,D7,D7_hi,   *
    3342                    ;*                           FPEXC,FPSCR                                     *
    3343                    ;*   Regs Used         : A1,A2,A3,A4,V9,SP,LR,SR,D0,D0_hi,D1,D1_hi,D2,D2_hi, *
    3344                    ;*                           D3,D3_hi,D4,D4_hi,D5,D5_hi,D6,D6_hi,D7,D7_hi,   *
    3345                    ;*                           FPEXC,FPSCR                                     *
    3346                    ;*   Local Frame Size  : 0 Args + 8 Auto + 4 Save = 12 byte                  *
    3347                    ;*****************************************************************************
    3348 00000458           PWMFaultIntUnregister:
    3349                    ;* --------------------------------------------------------------------------*
    3350                            .dwcfi  cfa_offset, 0
    3351 00000458 B50E              PUSH      {A2, A3, A4, LR}      ; [DPU_V7M3_PIPE]  ; [ORIG 16-BIT INS]
    3352                            .dwcfi  cfa_offset, 16
    3353                            .dwcfi  save_reg_to_mem, 14, -4
    3354                            .dwcfi  save_reg_to_mem, 3, -8
    3355                            .dwcfi  save_reg_to_mem, 2, -12
TI ARM Assembler Unix v18.1.1 Fri Jul  3 20:08:25 2020

Tools Copyright (c) 1996-2017 Texas Instruments Incorporated
pwm.asm                                                              PAGE   62

    3356                            .dwcfi  save_reg_to_mem, 1, -16
    3357                    $C$DW$167       .dwtag  DW_TAG_variable
    3358                            .dwattr $C$DW$167, DW_AT_name("ui32Base")
    3359                            .dwattr $C$DW$167, DW_AT_TI_symbol_name("ui32Base")
    3360                            .dwattr $C$DW$167, DW_AT_type(*$C$DW$T$27)
    3361                            .dwattr $C$DW$167, DW_AT_location[DW_OP_breg13 0]
    3362                    
    3363                    $C$DW$168       .dwtag  DW_TAG_variable
    3364                            .dwattr $C$DW$168, DW_AT_name("ui32Int")
    3365                            .dwattr $C$DW$168, DW_AT_TI_symbol_name("ui32Int")
    3366                            .dwattr $C$DW$168, DW_AT_type(*$C$DW$T$27)
    3367                            .dwattr $C$DW$168, DW_AT_location[DW_OP_breg13 4]
    3368                    
    3369                    ;----------------------------------------------------------------------
    3370                    ; 1268 | uint32_t ui32Int;                                                      
    3371                    ; 1270 | //                                                                     
    3372                    ; 1271 | // Check the arguments.                                                
    3373                    ; 1272 | //                                                                     
    3374                    ; 1273 | ASSERT((ui32Base == PWM0_BASE) || (ui32Base == PWM1_BASE));            
    3375                    ; 1275 | //                                                                     
    3376                    ; 1276 | // Get the interrupt number associated with the specified module.      
    3377                    ; 1277 | //                                                                     
    3378                    ;----------------------------------------------------------------------
    3379 0000045a 9000              STR       A1, [SP, #0]          ; [DPU_V7M3_PIPE] |1267|  ; [ORIG 16-BIT INS]
    3380                            .dwpsn  file "../driverlib/pwm.c",line 1278,column 5,is_stmt,isa 1
    3381                    ;----------------------------------------------------------------------
    3382                    ; 1278 | ui32Int = _PWMFaultIntNumberGet(ui32Base);                             
    3383                    ; 1280 | ASSERT(ui32Int != 0);                                                  
    3384                    ; 1282 | //                                                                     
    3385                    ; 1283 | // Disable the PWM fault interrupt.                                    
    3386                    ; 1284 | //                                                                     
    3387                    ;----------------------------------------------------------------------
    3388 0000045c 9800              LDR       A1, [SP, #0]          ; [DPU_V7M3_PIPE] |1278|  ; [ORIG 16-BIT INS]
    3389                    $C$DW$169       .dwtag  DW_TAG_TI_branch
    3390                            .dwattr $C$DW$169, DW_AT_low_pc(0x00)
    3391                            .dwattr $C$DW$169, DW_AT_name("_PWMFaultIntNumberGet")
    3392                            .dwattr $C$DW$169, DW_AT_TI_call
    3393                    
    3394 0000045e FFFEF7FF!         BL        _PWMFaultIntNumberGet ; [DPU_V7M3_PIPE] |1278|  ; [KEEP 32-BIT INS]
    3395                            ; CALL OCCURS {_PWMFaultIntNumberGet }  ; [] |1278| 
    3396 00000462 9001              STR       A1, [SP, #4]          ; [DPU_V7M3_PIPE] |1278|  ; [ORIG 16-BIT INS]
    3397                            .dwpsn  file "../driverlib/pwm.c",line 1285,column 5,is_stmt,isa 1
    3398                    ;----------------------------------------------------------------------
    3399                    ; 1285 | IntDisable(ui32Int);                                                   
    3400                    ; 1287 | //                                                                     
    3401                    ; 1288 | // Unregister the interrupt handler, returning an error if one occurs. 
    3402                    ; 1289 | //                                                                     
    3403                    ;----------------------------------------------------------------------
    3404 00000464 9801              LDR       A1, [SP, #4]          ; [DPU_V7M3_PIPE] |1285|  ; [ORIG 16-BIT INS]
    3405                    $C$DW$170       .dwtag  DW_TAG_TI_branch
    3406                            .dwattr $C$DW$170, DW_AT_low_pc(0x00)
    3407                            .dwattr $C$DW$170, DW_AT_name("IntDisable")
    3408                            .dwattr $C$DW$170, DW_AT_TI_call
    3409                    
    3410 00000466 FFFEF7FF!         BL        IntDisable            ; [DPU_V7M3_PIPE] |1285|  ; [KEEP 32-BIT INS]
TI ARM Assembler Unix v18.1.1 Fri Jul  3 20:08:25 2020

Tools Copyright (c) 1996-2017 Texas Instruments Incorporated
pwm.asm                                                              PAGE   63

    3411                            ; CALL OCCURS {IntDisable }      ; [] |1285| 
    3412                            .dwpsn  file "../driverlib/pwm.c",line 1290,column 5,is_stmt,isa 1
    3413                    ;----------------------------------------------------------------------
    3414                    ; 1290 | IntUnregister(ui32Int);                                                
    3415                    ;----------------------------------------------------------------------
    3416 0000046a 9801              LDR       A1, [SP, #4]          ; [DPU_V7M3_PIPE] |1290|  ; [ORIG 16-BIT INS]
    3417                    $C$DW$171       .dwtag  DW_TAG_TI_branch
    3418                            .dwattr $C$DW$171, DW_AT_low_pc(0x00)
    3419                            .dwattr $C$DW$171, DW_AT_name("IntUnregister")
    3420                            .dwattr $C$DW$171, DW_AT_TI_call
    3421                    
    3422 0000046c FFFEF7FF!         BL        IntUnregister         ; [DPU_V7M3_PIPE] |1290|  ; [KEEP 32-BIT INS]
    3423                            ; CALL OCCURS {IntUnregister }   ; [] |1290| 
    3424                            .dwpsn  file "../driverlib/pwm.c",line 1291,column 1,is_stmt,isa 1
    3425                    $C$DW$172       .dwtag  DW_TAG_TI_branch
    3426                            .dwattr $C$DW$172, DW_AT_low_pc(0x00)
    3427                            .dwattr $C$DW$172, DW_AT_TI_return
    3428                    
    3429 00000470 BD0E              POP       {A2, A3, A4, PC}      ; [DPU_V7M3_PIPE]  ; [ORIG 16-BIT INS]
    3430                            .dwcfi  cfa_offset, 0
    3431                            .dwcfi  restore_reg, 3
    3432                            .dwcfi  restore_reg, 2
    3433                            .dwcfi  restore_reg, 1
    3434                            ; BRANCH OCCURS                  ; [] 
    3435                            .dwattr $C$DW$165, DW_AT_TI_end_file("../driverlib/pwm.c")
    3436                            .dwattr $C$DW$165, DW_AT_TI_end_line(0x50b)
    3437                            .dwattr $C$DW$165, DW_AT_TI_end_column(0x01)
    3438                            .dwendentry
    3439                            .dwendtag $C$DW$165
    3440                    
    3441 00000472                   .sect   ".text"
    3442                            .clink
    3443                            .thumbfunc PWMGenIntTrigEnable
    3444 00000472                   .thumb
    3445                            .global PWMGenIntTrigEnable
    3446                    
    3447                    $C$DW$173       .dwtag  DW_TAG_subprogram
    3448                            .dwattr $C$DW$173, DW_AT_name("PWMGenIntTrigEnable")
    3449                            .dwattr $C$DW$173, DW_AT_low_pc(PWMGenIntTrigEnable)
    3450                            .dwattr $C$DW$173, DW_AT_high_pc(0x00)
    3451                            .dwattr $C$DW$173, DW_AT_TI_symbol_name("PWMGenIntTrigEnable")
    3452                            .dwattr $C$DW$173, DW_AT_external
    3453                            .dwattr $C$DW$173, DW_AT_TI_begin_file("../driverlib/pwm.c")
    3454                            .dwattr $C$DW$173, DW_AT_TI_begin_line(0x523)
    3455                            .dwattr $C$DW$173, DW_AT_TI_begin_column(0x01)
    3456                            .dwattr $C$DW$173, DW_AT_decl_file("../driverlib/pwm.c")
    3457                            .dwattr $C$DW$173, DW_AT_decl_line(0x523)
    3458                            .dwattr $C$DW$173, DW_AT_decl_column(0x01)
    3459                            .dwattr $C$DW$173, DW_AT_TI_max_frame_size(0x10)
    3460                            .dwpsn  file "../driverlib/pwm.c",line 1317,column 1,is_stmt,address PWMGenIntTrigEnable,isa 1
    3461                    
    3462                            .dwfde $C$DW$CIE, PWMGenIntTrigEnable
    3463                    $C$DW$174       .dwtag  DW_TAG_formal_parameter
    3464                            .dwattr $C$DW$174, DW_AT_name("ui32Base")
    3465                            .dwattr $C$DW$174, DW_AT_TI_symbol_name("ui32Base")
TI ARM Assembler Unix v18.1.1 Fri Jul  3 20:08:25 2020

Tools Copyright (c) 1996-2017 Texas Instruments Incorporated
pwm.asm                                                              PAGE   64

    3466                            .dwattr $C$DW$174, DW_AT_type(*$C$DW$T$27)
    3467                            .dwattr $C$DW$174, DW_AT_location[DW_OP_reg0]
    3468                    
    3469                    $C$DW$175       .dwtag  DW_TAG_formal_parameter
    3470                            .dwattr $C$DW$175, DW_AT_name("ui32Gen")
    3471                            .dwattr $C$DW$175, DW_AT_TI_symbol_name("ui32Gen")
    3472                            .dwattr $C$DW$175, DW_AT_type(*$C$DW$T$27)
    3473                            .dwattr $C$DW$175, DW_AT_location[DW_OP_reg1]
    3474                    
    3475                    $C$DW$176       .dwtag  DW_TAG_formal_parameter
    3476                            .dwattr $C$DW$176, DW_AT_name("ui32IntTrig")
    3477                            .dwattr $C$DW$176, DW_AT_TI_symbol_name("ui32IntTrig")
    3478                            .dwattr $C$DW$176, DW_AT_type(*$C$DW$T$27)
    3479                            .dwattr $C$DW$176, DW_AT_location[DW_OP_reg2]
    3480                    
    3481                    ;----------------------------------------------------------------------
    3482                    ; 1315 | PWMGenIntTrigEnable(uint32_t ui32Base, uint32_t ui32Gen,               
    3483                    ; 1316 | uint32_t ui32IntTrig)                                                  
    3484                    ;----------------------------------------------------------------------
    3485                    
    3486                    ;*****************************************************************************
    3487                    ;* FUNCTION NAME: PWMGenIntTrigEnable                                        *
    3488                    ;*                                                                           *
    3489                    ;*   Regs Modified     : A1,A2,A3,SP,SR                                      *
    3490                    ;*   Regs Used         : A1,A2,A3,SP,LR,SR                                   *
    3491                    ;*   Local Frame Size  : 0 Args + 12 Auto + 0 Save = 12 byte                 *
    3492                    ;*****************************************************************************
    3493 00000472           PWMGenIntTrigEnable:
    3494                    ;* --------------------------------------------------------------------------*
    3495                            .dwcfi  cfa_offset, 0
    3496 00000472 0D10F1AD          SUB       SP, SP, #16           ; [DPU_V7M3_PIPE]  ; [KEEP 32-BIT INS]
    3497                            .dwcfi  cfa_offset, 16
    3498                    $C$DW$177       .dwtag  DW_TAG_variable
    3499                            .dwattr $C$DW$177, DW_AT_name("ui32Base")
    3500                            .dwattr $C$DW$177, DW_AT_TI_symbol_name("ui32Base")
    3501                            .dwattr $C$DW$177, DW_AT_type(*$C$DW$T$27)
    3502                            .dwattr $C$DW$177, DW_AT_location[DW_OP_breg13 0]
    3503                    
    3504                    $C$DW$178       .dwtag  DW_TAG_variable
    3505                            .dwattr $C$DW$178, DW_AT_name("ui32Gen")
    3506                            .dwattr $C$DW$178, DW_AT_TI_symbol_name("ui32Gen")
    3507                            .dwattr $C$DW$178, DW_AT_type(*$C$DW$T$27)
    3508                            .dwattr $C$DW$178, DW_AT_location[DW_OP_breg13 4]
    3509                    
    3510                    $C$DW$179       .dwtag  DW_TAG_variable
    3511                            .dwattr $C$DW$179, DW_AT_name("ui32IntTrig")
    3512                            .dwattr $C$DW$179, DW_AT_TI_symbol_name("ui32IntTrig")
    3513                            .dwattr $C$DW$179, DW_AT_type(*$C$DW$T$27)
    3514                            .dwattr $C$DW$179, DW_AT_location[DW_OP_breg13 8]
    3515                    
    3516                    ;----------------------------------------------------------------------
    3517                    ; 1318 | //                                                                     
    3518                    ; 1319 | // Check the arguments.                                                
    3519                    ; 1320 | //                                                                     
    3520                    ; 1321 | ASSERT((ui32Base == PWM0_BASE) || (ui32Base == PWM1_BASE));            
TI ARM Assembler Unix v18.1.1 Fri Jul  3 20:08:25 2020

Tools Copyright (c) 1996-2017 Texas Instruments Incorporated
pwm.asm                                                              PAGE   65

    3521                    ; 1322 | ASSERT(_PWMGenValid(ui32Gen));                                         
    3522                    ; 1323 | ASSERT((ui32IntTrig & ~(PWM_INT_CNT_ZERO | PWM_INT_CNT_LOAD |          
    3523                    ; 1324 |                         PWM_INT_CNT_AU | PWM_INT_CNT_AD | PWM_INT_CNT_B
    3524                    ;     | U |                                                                    
    3525                    ; 1325 |                         PWM_INT_CNT_BD | PWM_TR_CNT_ZERO |             
    3526                    ; 1326 |                         PWM_TR_CNT_LOAD | PWM_TR_CNT_AU | PWM_TR_CNT_AD
    3527                    ;     |  |                                                                     
    3528                    ; 1327 |                         PWM_TR_CNT_BU | PWM_TR_CNT_BD)) == 0);         
    3529                    ; 1329 | //                                                                     
    3530                    ; 1330 | // Enable the specified interrupts/triggers.                           
    3531                    ; 1331 | //                                                                     
    3532                    ;----------------------------------------------------------------------
    3533 00000476 9202              STR       A3, [SP, #8]          ; [DPU_V7M3_PIPE] |1317|  ; [ORIG 16-BIT INS]
    3534 00000478 9101              STR       A2, [SP, #4]          ; [DPU_V7M3_PIPE] |1317|  ; [ORIG 16-BIT INS]
    3535 0000047a 9000              STR       A1, [SP, #0]          ; [DPU_V7M3_PIPE] |1317|  ; [ORIG 16-BIT INS]
    3536                            .dwpsn  file "../driverlib/pwm.c",line 1332,column 5,is_stmt,isa 1
    3537                    ;----------------------------------------------------------------------
    3538                    ; 1332 | HWREG(PWM_GEN_BADDR(ui32Base, ui32Gen) + PWM_O_X_INTEN) |= ui32IntTrig;
    3539                    ;----------------------------------------------------------------------
    3540 0000047c 9901              LDR       A2, [SP, #4]          ; [DPU_V7M3_PIPE] |1332|  ; [ORIG 16-BIT INS]
    3541 0000047e 9800              LDR       A1, [SP, #0]          ; [DPU_V7M3_PIPE] |1332|  ; [ORIG 16-BIT INS]
    3542 00000480 1840              ADDS      A1, A1, A2            ; [DPU_V7M3_PIPE] |1332|  ; [ORIG 16-BIT INS]
    3543 00000482 1D00              ADDS      A1, A1, #4            ; [DPU_V7M3_PIPE] |1332|  ; [ORIG 16-BIT INS]
    3544 00000484 9902              LDR       A2, [SP, #8]          ; [DPU_V7M3_PIPE] |1332|  ; [ORIG 16-BIT INS]
    3545 00000486 6802              LDR       A3, [A1, #0]          ; [DPU_V7M3_PIPE] |1332|  ; [ORIG 16-BIT INS]
    3546 00000488 4311              ORRS      A2, A2, A3            ; [DPU_V7M3_PIPE] |1332|  ; [ORIG 16-BIT INS]
    3547 0000048a 6001              STR       A2, [A1, #0]          ; [DPU_V7M3_PIPE] |1332|  ; [ORIG 16-BIT INS]
    3548                            .dwpsn  file "../driverlib/pwm.c",line 1333,column 1,is_stmt,isa 1
    3549 0000048c B004              ADD       SP, SP, #16           ; [DPU_V7M3_PIPE]  ; [ORIG 16-BIT INS]
    3550                            .dwcfi  cfa_offset, 0
    3551                    $C$DW$180       .dwtag  DW_TAG_TI_branch
    3552                            .dwattr $C$DW$180, DW_AT_low_pc(0x00)
    3553                            .dwattr $C$DW$180, DW_AT_TI_return
    3554                    
    3555 0000048e 4770              BX        LR                    ; [DPU_V7M3_PIPE]  ; [ORIG 16-BIT INS]
    3556                            ; BRANCH OCCURS                  ; [] 
    3557                            .dwattr $C$DW$173, DW_AT_TI_end_file("../driverlib/pwm.c")
    3558                            .dwattr $C$DW$173, DW_AT_TI_end_line(0x535)
    3559                            .dwattr $C$DW$173, DW_AT_TI_end_column(0x01)
    3560                            .dwendentry
    3561                            .dwendtag $C$DW$173
    3562                    
    3563 00000490                   .sect   ".text"
    3564                            .clink
    3565                            .thumbfunc PWMGenIntTrigDisable
    3566 00000490                   .thumb
    3567                            .global PWMGenIntTrigDisable
    3568                    
    3569                    $C$DW$181       .dwtag  DW_TAG_subprogram
    3570                            .dwattr $C$DW$181, DW_AT_name("PWMGenIntTrigDisable")
    3571                            .dwattr $C$DW$181, DW_AT_low_pc(PWMGenIntTrigDisable)
    3572                            .dwattr $C$DW$181, DW_AT_high_pc(0x00)
    3573                            .dwattr $C$DW$181, DW_AT_TI_symbol_name("PWMGenIntTrigDisable")
    3574                            .dwattr $C$DW$181, DW_AT_external
    3575                            .dwattr $C$DW$181, DW_AT_TI_begin_file("../driverlib/pwm.c")
TI ARM Assembler Unix v18.1.1 Fri Jul  3 20:08:25 2020

Tools Copyright (c) 1996-2017 Texas Instruments Incorporated
pwm.asm                                                              PAGE   66

    3576                            .dwattr $C$DW$181, DW_AT_TI_begin_line(0x54d)
    3577                            .dwattr $C$DW$181, DW_AT_TI_begin_column(0x01)
    3578                            .dwattr $C$DW$181, DW_AT_decl_file("../driverlib/pwm.c")
    3579                            .dwattr $C$DW$181, DW_AT_decl_line(0x54d)
    3580                            .dwattr $C$DW$181, DW_AT_decl_column(0x01)
    3581                            .dwattr $C$DW$181, DW_AT_TI_max_frame_size(0x10)
    3582                            .dwpsn  file "../driverlib/pwm.c",line 1359,column 1,is_stmt,address PWMGenIntTrigDisable,isa 
    3583                    
    3584                            .dwfde $C$DW$CIE, PWMGenIntTrigDisable
    3585                    $C$DW$182       .dwtag  DW_TAG_formal_parameter
    3586                            .dwattr $C$DW$182, DW_AT_name("ui32Base")
    3587                            .dwattr $C$DW$182, DW_AT_TI_symbol_name("ui32Base")
    3588                            .dwattr $C$DW$182, DW_AT_type(*$C$DW$T$27)
    3589                            .dwattr $C$DW$182, DW_AT_location[DW_OP_reg0]
    3590                    
    3591                    $C$DW$183       .dwtag  DW_TAG_formal_parameter
    3592                            .dwattr $C$DW$183, DW_AT_name("ui32Gen")
    3593                            .dwattr $C$DW$183, DW_AT_TI_symbol_name("ui32Gen")
    3594                            .dwattr $C$DW$183, DW_AT_type(*$C$DW$T$27)
    3595                            .dwattr $C$DW$183, DW_AT_location[DW_OP_reg1]
    3596                    
    3597                    $C$DW$184       .dwtag  DW_TAG_formal_parameter
    3598                            .dwattr $C$DW$184, DW_AT_name("ui32IntTrig")
    3599                            .dwattr $C$DW$184, DW_AT_TI_symbol_name("ui32IntTrig")
    3600                            .dwattr $C$DW$184, DW_AT_type(*$C$DW$T$27)
    3601                            .dwattr $C$DW$184, DW_AT_location[DW_OP_reg2]
    3602                    
    3603                    ;----------------------------------------------------------------------
    3604                    ; 1357 | PWMGenIntTrigDisable(uint32_t ui32Base, uint32_t ui32Gen,              
    3605                    ; 1358 | uint32_t ui32IntTrig)                                                  
    3606                    ;----------------------------------------------------------------------
    3607                    
    3608                    ;*****************************************************************************
    3609                    ;* FUNCTION NAME: PWMGenIntTrigDisable                                       *
    3610                    ;*                                                                           *
    3611                    ;*   Regs Modified     : A1,A2,A3,SP,SR                                      *
    3612                    ;*   Regs Used         : A1,A2,A3,SP,LR,SR                                   *
    3613                    ;*   Local Frame Size  : 0 Args + 12 Auto + 0 Save = 12 byte                 *
    3614                    ;*****************************************************************************
    3615 00000490           PWMGenIntTrigDisable:
    3616                    ;* --------------------------------------------------------------------------*
    3617                            .dwcfi  cfa_offset, 0
    3618 00000490 0D10F1AD          SUB       SP, SP, #16           ; [DPU_V7M3_PIPE]  ; [KEEP 32-BIT INS]
    3619                            .dwcfi  cfa_offset, 16
    3620                    $C$DW$185       .dwtag  DW_TAG_variable
    3621                            .dwattr $C$DW$185, DW_AT_name("ui32Base")
    3622                            .dwattr $C$DW$185, DW_AT_TI_symbol_name("ui32Base")
    3623                            .dwattr $C$DW$185, DW_AT_type(*$C$DW$T$27)
    3624                            .dwattr $C$DW$185, DW_AT_location[DW_OP_breg13 0]
    3625                    
    3626                    $C$DW$186       .dwtag  DW_TAG_variable
    3627                            .dwattr $C$DW$186, DW_AT_name("ui32Gen")
    3628                            .dwattr $C$DW$186, DW_AT_TI_symbol_name("ui32Gen")
    3629                            .dwattr $C$DW$186, DW_AT_type(*$C$DW$T$27)
    3630                            .dwattr $C$DW$186, DW_AT_location[DW_OP_breg13 4]
TI ARM Assembler Unix v18.1.1 Fri Jul  3 20:08:25 2020

Tools Copyright (c) 1996-2017 Texas Instruments Incorporated
pwm.asm                                                              PAGE   67

    3631                    
    3632                    $C$DW$187       .dwtag  DW_TAG_variable
    3633                            .dwattr $C$DW$187, DW_AT_name("ui32IntTrig")
    3634                            .dwattr $C$DW$187, DW_AT_TI_symbol_name("ui32IntTrig")
    3635                            .dwattr $C$DW$187, DW_AT_type(*$C$DW$T$27)
    3636                            .dwattr $C$DW$187, DW_AT_location[DW_OP_breg13 8]
    3637                    
    3638                    ;----------------------------------------------------------------------
    3639                    ; 1360 | //                                                                     
    3640                    ; 1361 | // Check the arguments.                                                
    3641                    ; 1362 | //                                                                     
    3642                    ; 1363 | ASSERT((ui32Base == PWM0_BASE) || (ui32Base == PWM1_BASE));            
    3643                    ; 1364 | ASSERT(_PWMGenValid(ui32Gen));                                         
    3644                    ; 1365 | ASSERT((ui32IntTrig & ~(PWM_INT_CNT_ZERO | PWM_INT_CNT_LOAD |          
    3645                    ; 1366 |                         PWM_INT_CNT_AU | PWM_INT_CNT_AD | PWM_INT_CNT_B
    3646                    ;     | U |                                                                    
    3647                    ; 1367 |                         PWM_INT_CNT_BD | PWM_TR_CNT_ZERO |             
    3648                    ; 1368 |                         PWM_TR_CNT_LOAD | PWM_TR_CNT_AU | PWM_TR_CNT_AD
    3649                    ;     |  |                                                                     
    3650                    ; 1369 |                         PWM_TR_CNT_BU | PWM_TR_CNT_BD)) == 0);         
    3651                    ; 1371 | //                                                                     
    3652                    ; 1372 | // Disable the specified interrupts/triggers.                          
    3653                    ; 1373 | //                                                                     
    3654                    ;----------------------------------------------------------------------
    3655 00000494 9202              STR       A3, [SP, #8]          ; [DPU_V7M3_PIPE] |1359|  ; [ORIG 16-BIT INS]
    3656 00000496 9101              STR       A2, [SP, #4]          ; [DPU_V7M3_PIPE] |1359|  ; [ORIG 16-BIT INS]
    3657 00000498 9000              STR       A1, [SP, #0]          ; [DPU_V7M3_PIPE] |1359|  ; [ORIG 16-BIT INS]
    3658                            .dwpsn  file "../driverlib/pwm.c",line 1374,column 5,is_stmt,isa 1
    3659                    ;----------------------------------------------------------------------
    3660                    ; 1374 | HWREG(PWM_GEN_BADDR(ui32Base, ui32Gen) + PWM_O_X_INTEN) &= ~(ui32IntTri
    3661                    ;     | g);                                                                    
    3662                    ;----------------------------------------------------------------------
    3663 0000049a 9901              LDR       A2, [SP, #4]          ; [DPU_V7M3_PIPE] |1374|  ; [ORIG 16-BIT INS]
    3664 0000049c 9800              LDR       A1, [SP, #0]          ; [DPU_V7M3_PIPE] |1374|  ; [ORIG 16-BIT INS]
    3665 0000049e 9A02              LDR       A3, [SP, #8]          ; [DPU_V7M3_PIPE] |1374|  ; [ORIG 16-BIT INS]
    3666 000004a0 1840              ADDS      A1, A1, A2            ; [DPU_V7M3_PIPE] |1374|  ; [ORIG 16-BIT INS]
    3667 000004a2 1D00              ADDS      A1, A1, #4            ; [DPU_V7M3_PIPE] |1374|  ; [ORIG 16-BIT INS]
    3668 000004a4 6801              LDR       A2, [A1, #0]          ; [DPU_V7M3_PIPE] |1374|  ; [ORIG 16-BIT INS]
    3669 000004a6 4391              BICS      A2, A2, A3            ; [DPU_V7M3_PIPE] |1374|  ; [ORIG 16-BIT INS]
    3670 000004a8 6001              STR       A2, [A1, #0]          ; [DPU_V7M3_PIPE] |1374|  ; [ORIG 16-BIT INS]
    3671                            .dwpsn  file "../driverlib/pwm.c",line 1375,column 1,is_stmt,isa 1
    3672 000004aa B004              ADD       SP, SP, #16           ; [DPU_V7M3_PIPE]  ; [ORIG 16-BIT INS]
    3673                            .dwcfi  cfa_offset, 0
    3674                    $C$DW$188       .dwtag  DW_TAG_TI_branch
    3675                            .dwattr $C$DW$188, DW_AT_low_pc(0x00)
    3676                            .dwattr $C$DW$188, DW_AT_TI_return
    3677                    
    3678 000004ac 4770              BX        LR                    ; [DPU_V7M3_PIPE]  ; [ORIG 16-BIT INS]
    3679                            ; BRANCH OCCURS                  ; [] 
    3680                            .dwattr $C$DW$181, DW_AT_TI_end_file("../driverlib/pwm.c")
    3681                            .dwattr $C$DW$181, DW_AT_TI_end_line(0x55f)
    3682                            .dwattr $C$DW$181, DW_AT_TI_end_column(0x01)
    3683                            .dwendentry
    3684                            .dwendtag $C$DW$181
    3685                    
TI ARM Assembler Unix v18.1.1 Fri Jul  3 20:08:25 2020

Tools Copyright (c) 1996-2017 Texas Instruments Incorporated
pwm.asm                                                              PAGE   68

    3686 000004ae                   .sect   ".text"
    3687                            .clink
    3688                            .thumbfunc PWMGenIntStatus
    3689 000004ae                   .thumb
    3690                            .global PWMGenIntStatus
    3691                    
    3692                    $C$DW$189       .dwtag  DW_TAG_subprogram
    3693                            .dwattr $C$DW$189, DW_AT_name("PWMGenIntStatus")
    3694                            .dwattr $C$DW$189, DW_AT_low_pc(PWMGenIntStatus)
    3695                            .dwattr $C$DW$189, DW_AT_high_pc(0x00)
    3696                            .dwattr $C$DW$189, DW_AT_TI_symbol_name("PWMGenIntStatus")
    3697                            .dwattr $C$DW$189, DW_AT_external
    3698                            .dwattr $C$DW$189, DW_AT_type(*$C$DW$T$27)
    3699                            .dwattr $C$DW$189, DW_AT_TI_begin_file("../driverlib/pwm.c")
    3700                            .dwattr $C$DW$189, DW_AT_TI_begin_line(0x574)
    3701                            .dwattr $C$DW$189, DW_AT_TI_begin_column(0x01)
    3702                            .dwattr $C$DW$189, DW_AT_decl_file("../driverlib/pwm.c")
    3703                            .dwattr $C$DW$189, DW_AT_decl_line(0x574)
    3704                            .dwattr $C$DW$189, DW_AT_decl_column(0x01)
    3705                            .dwattr $C$DW$189, DW_AT_TI_max_frame_size(0x10)
    3706                            .dwpsn  file "../driverlib/pwm.c",line 1397,column 1,is_stmt,address PWMGenIntStatus,isa 1
    3707                    
    3708                            .dwfde $C$DW$CIE, PWMGenIntStatus
    3709                    $C$DW$190       .dwtag  DW_TAG_formal_parameter
    3710                            .dwattr $C$DW$190, DW_AT_name("ui32Base")
    3711                            .dwattr $C$DW$190, DW_AT_TI_symbol_name("ui32Base")
    3712                            .dwattr $C$DW$190, DW_AT_type(*$C$DW$T$27)
    3713                            .dwattr $C$DW$190, DW_AT_location[DW_OP_reg0]
    3714                    
    3715                    $C$DW$191       .dwtag  DW_TAG_formal_parameter
    3716                            .dwattr $C$DW$191, DW_AT_name("ui32Gen")
    3717                            .dwattr $C$DW$191, DW_AT_TI_symbol_name("ui32Gen")
    3718                            .dwattr $C$DW$191, DW_AT_type(*$C$DW$T$27)
    3719                            .dwattr $C$DW$191, DW_AT_location[DW_OP_reg1]
    3720                    
    3721                    $C$DW$192       .dwtag  DW_TAG_formal_parameter
    3722                            .dwattr $C$DW$192, DW_AT_name("bMasked")
    3723                            .dwattr $C$DW$192, DW_AT_TI_symbol_name("bMasked")
    3724                            .dwattr $C$DW$192, DW_AT_type(*$C$DW$T$37)
    3725                            .dwattr $C$DW$192, DW_AT_location[DW_OP_reg2]
    3726                    
    3727                    ;----------------------------------------------------------------------
    3728                    ; 1396 | PWMGenIntStatus(uint32_t ui32Base, uint32_t ui32Gen, bool bMasked)     
    3729                    ;----------------------------------------------------------------------
    3730                    
    3731                    ;*****************************************************************************
    3732                    ;* FUNCTION NAME: PWMGenIntStatus                                            *
    3733                    ;*                                                                           *
    3734                    ;*   Regs Modified     : A1,A2,SP,SR                                         *
    3735                    ;*   Regs Used         : A1,A2,A3,SP,LR,SR                                   *
    3736                    ;*   Local Frame Size  : 0 Args + 12 Auto + 0 Save = 12 byte                 *
    3737                    ;*****************************************************************************
    3738 000004ae           PWMGenIntStatus:
    3739                    ;* --------------------------------------------------------------------------*
    3740                            .dwcfi  cfa_offset, 0
TI ARM Assembler Unix v18.1.1 Fri Jul  3 20:08:25 2020

Tools Copyright (c) 1996-2017 Texas Instruments Incorporated
pwm.asm                                                              PAGE   69

    3741 000004ae 0D10F1AD          SUB       SP, SP, #16           ; [DPU_V7M3_PIPE]  ; [KEEP 32-BIT INS]
    3742                            .dwcfi  cfa_offset, 16
    3743                    $C$DW$193       .dwtag  DW_TAG_variable
    3744                            .dwattr $C$DW$193, DW_AT_name("ui32Base")
    3745                            .dwattr $C$DW$193, DW_AT_TI_symbol_name("ui32Base")
    3746                            .dwattr $C$DW$193, DW_AT_type(*$C$DW$T$27)
    3747                            .dwattr $C$DW$193, DW_AT_location[DW_OP_breg13 0]
    3748                    
    3749                    $C$DW$194       .dwtag  DW_TAG_variable
    3750                            .dwattr $C$DW$194, DW_AT_name("ui32Gen")
    3751                            .dwattr $C$DW$194, DW_AT_TI_symbol_name("ui32Gen")
    3752                            .dwattr $C$DW$194, DW_AT_type(*$C$DW$T$27)
    3753                            .dwattr $C$DW$194, DW_AT_location[DW_OP_breg13 4]
    3754                    
    3755                    $C$DW$195       .dwtag  DW_TAG_variable
    3756                            .dwattr $C$DW$195, DW_AT_name("bMasked")
    3757                            .dwattr $C$DW$195, DW_AT_TI_symbol_name("bMasked")
    3758                            .dwattr $C$DW$195, DW_AT_type(*$C$DW$T$37)
    3759                            .dwattr $C$DW$195, DW_AT_location[DW_OP_breg13 8]
    3760                    
    3761                    ;----------------------------------------------------------------------
    3762                    ; 1398 | //                                                                     
    3763                    ; 1399 | // Check the arguments.                                                
    3764                    ; 1400 | //                                                                     
    3765                    ; 1401 | ASSERT((ui32Base == PWM0_BASE) || (ui32Base == PWM1_BASE));            
    3766                    ; 1402 | ASSERT(_PWMGenValid(ui32Gen));                                         
    3767                    ; 1404 | //                                                                     
    3768                    ; 1405 | // Compute the generator's base address.                               
    3769                    ; 1406 | //                                                                     
    3770                    ;----------------------------------------------------------------------
    3771 000004b2 2008F88D          STRB      A3, [SP, #8]          ; [DPU_V7M3_PIPE] |1397|  ; [KEEP 32-BIT INS]
    3772 000004b6 9101              STR       A2, [SP, #4]          ; [DPU_V7M3_PIPE] |1397|  ; [ORIG 16-BIT INS]
    3773 000004b8 9000              STR       A1, [SP, #0]          ; [DPU_V7M3_PIPE] |1397|  ; [ORIG 16-BIT INS]
    3774                            .dwpsn  file "../driverlib/pwm.c",line 1407,column 5,is_stmt,isa 1
    3775                    ;----------------------------------------------------------------------
    3776                    ; 1407 | ui32Gen = PWM_GEN_BADDR(ui32Base, ui32Gen);                            
    3777                    ; 1409 | //                                                                     
    3778                    ; 1410 | // Read and return the specified generator's raw or enabled interrupt  
    3779                    ; 1411 | // status.                                                             
    3780                    ; 1412 | //                                                                     
    3781                    ;----------------------------------------------------------------------
    3782 000004ba 9901              LDR       A2, [SP, #4]          ; [DPU_V7M3_PIPE] |1407|  ; [ORIG 16-BIT INS]
    3783 000004bc 9800              LDR       A1, [SP, #0]          ; [DPU_V7M3_PIPE] |1407|  ; [ORIG 16-BIT INS]
    3784 000004be 1840              ADDS      A1, A1, A2            ; [DPU_V7M3_PIPE] |1407|  ; [ORIG 16-BIT INS]
    3785 000004c0 9001              STR       A1, [SP, #4]          ; [DPU_V7M3_PIPE] |1407|  ; [ORIG 16-BIT INS]
    3786                            .dwpsn  file "../driverlib/pwm.c",line 1413,column 5,is_stmt,isa 1
    3787                    ;----------------------------------------------------------------------
    3788                    ; 1413 | if(bMasked == true)                                                    
    3789                    ;----------------------------------------------------------------------
    3790 000004c2 0008F89D          LDRB      A1, [SP, #8]          ; [DPU_V7M3_PIPE] |1413|  ; [KEEP 32-BIT INS]
    3791 000004c6 2801              CMP       A1, #1                ; [DPU_V7M3_PIPE] |1413|  ; [ORIG 16-BIT INS]
    3792 000004c8 D102              BNE       ||$C$L46||            ; [DPU_V7M3_PIPE] |1413|  ; [ORIG 16-BIT INS]
    3793                            ; BRANCHCC OCCURS {||$C$L46||}   ; [] |1413| 
    3794                    ;* --------------------------------------------------------------------------*
    3795                            .dwpsn  file "../driverlib/pwm.c",line 1415,column 9,is_stmt,isa 1
TI ARM Assembler Unix v18.1.1 Fri Jul  3 20:08:25 2020

Tools Copyright (c) 1996-2017 Texas Instruments Incorporated
pwm.asm                                                              PAGE   70

    3796                    ;----------------------------------------------------------------------
    3797                    ; 1415 | return(HWREG(ui32Gen + PWM_O_X_ISC));                                  
    3798                    ; 1417 | else                                                                   
    3799                    ;----------------------------------------------------------------------
    3800 000004ca 9801              LDR       A1, [SP, #4]          ; [DPU_V7M3_PIPE] |1415|  ; [ORIG 16-BIT INS]
    3801 000004cc 68C0              LDR       A1, [A1, #12]         ; [DPU_V7M3_PIPE] |1415|  ; [ORIG 16-BIT INS]
    3802 000004ce E001              B         ||$C$L47||            ; [DPU_V7M3_PIPE] |1415|  ; [ORIG 16-BIT INS]
    3803                            ; BRANCH OCCURS {||$C$L47||}     ; [] |1415| 
    3804                    ;* --------------------------------------------------------------------------*
    3805                    ;* --------------------------------------------------------------------------*
    3806 000004d0           ||$C$L46||:    
    3807                            .dwpsn  file "../driverlib/pwm.c",line 1419,column 9,is_stmt,isa 1
    3808                    ;----------------------------------------------------------------------
    3809                    ; 1419 | return(HWREG(ui32Gen + PWM_O_X_RIS));                                  
    3810                    ;----------------------------------------------------------------------
    3811 000004d0 9801              LDR       A1, [SP, #4]          ; [DPU_V7M3_PIPE] |1419|  ; [ORIG 16-BIT INS]
    3812 000004d2 6880              LDR       A1, [A1, #8]          ; [DPU_V7M3_PIPE] |1419|  ; [ORIG 16-BIT INS]
    3813                    ;* --------------------------------------------------------------------------*
    3814 000004d4           ||$C$L47||:    
    3815                            .dwpsn  file "../driverlib/pwm.c",line 1421,column 1,is_stmt,isa 1
    3816 000004d4 B004              ADD       SP, SP, #16           ; [DPU_V7M3_PIPE]  ; [ORIG 16-BIT INS]
    3817                            .dwcfi  cfa_offset, 0
    3818                    $C$DW$196       .dwtag  DW_TAG_TI_branch
    3819                            .dwattr $C$DW$196, DW_AT_low_pc(0x00)
    3820                            .dwattr $C$DW$196, DW_AT_TI_return
    3821                    
    3822 000004d6 4770              BX        LR                    ; [DPU_V7M3_PIPE]  ; [ORIG 16-BIT INS]
    3823                            ; BRANCH OCCURS                  ; [] 
    3824                            .dwattr $C$DW$189, DW_AT_TI_end_file("../driverlib/pwm.c")
    3825                            .dwattr $C$DW$189, DW_AT_TI_end_line(0x58d)
    3826                            .dwattr $C$DW$189, DW_AT_TI_end_column(0x01)
    3827                            .dwendentry
    3828                            .dwendtag $C$DW$189
    3829                    
    3830 000004d8                   .sect   ".text"
    3831                            .clink
    3832                            .thumbfunc PWMGenIntClear
    3833 000004d8                   .thumb
    3834                            .global PWMGenIntClear
    3835                    
    3836                    $C$DW$197       .dwtag  DW_TAG_subprogram
    3837                            .dwattr $C$DW$197, DW_AT_name("PWMGenIntClear")
    3838                            .dwattr $C$DW$197, DW_AT_low_pc(PWMGenIntClear)
    3839                            .dwattr $C$DW$197, DW_AT_high_pc(0x00)
    3840                            .dwattr $C$DW$197, DW_AT_TI_symbol_name("PWMGenIntClear")
    3841                            .dwattr $C$DW$197, DW_AT_external
    3842                            .dwattr $C$DW$197, DW_AT_TI_begin_file("../driverlib/pwm.c")
    3843                            .dwattr $C$DW$197, DW_AT_TI_begin_line(0x5ab)
    3844                            .dwattr $C$DW$197, DW_AT_TI_begin_column(0x01)
    3845                            .dwattr $C$DW$197, DW_AT_decl_file("../driverlib/pwm.c")
    3846                            .dwattr $C$DW$197, DW_AT_decl_line(0x5ab)
    3847                            .dwattr $C$DW$197, DW_AT_decl_column(0x01)
    3848                            .dwattr $C$DW$197, DW_AT_TI_max_frame_size(0x10)
    3849                            .dwpsn  file "../driverlib/pwm.c",line 1452,column 1,is_stmt,address PWMGenIntClear,isa 1
    3850                    
TI ARM Assembler Unix v18.1.1 Fri Jul  3 20:08:25 2020

Tools Copyright (c) 1996-2017 Texas Instruments Incorporated
pwm.asm                                                              PAGE   71

    3851                            .dwfde $C$DW$CIE, PWMGenIntClear
    3852                    $C$DW$198       .dwtag  DW_TAG_formal_parameter
    3853                            .dwattr $C$DW$198, DW_AT_name("ui32Base")
    3854                            .dwattr $C$DW$198, DW_AT_TI_symbol_name("ui32Base")
    3855                            .dwattr $C$DW$198, DW_AT_type(*$C$DW$T$27)
    3856                            .dwattr $C$DW$198, DW_AT_location[DW_OP_reg0]
    3857                    
    3858                    $C$DW$199       .dwtag  DW_TAG_formal_parameter
    3859                            .dwattr $C$DW$199, DW_AT_name("ui32Gen")
    3860                            .dwattr $C$DW$199, DW_AT_TI_symbol_name("ui32Gen")
    3861                            .dwattr $C$DW$199, DW_AT_type(*$C$DW$T$27)
    3862                            .dwattr $C$DW$199, DW_AT_location[DW_OP_reg1]
    3863                    
    3864                    $C$DW$200       .dwtag  DW_TAG_formal_parameter
    3865                            .dwattr $C$DW$200, DW_AT_name("ui32Ints")
    3866                            .dwattr $C$DW$200, DW_AT_TI_symbol_name("ui32Ints")
    3867                            .dwattr $C$DW$200, DW_AT_type(*$C$DW$T$27)
    3868                            .dwattr $C$DW$200, DW_AT_location[DW_OP_reg2]
    3869                    
    3870                    ;----------------------------------------------------------------------
    3871                    ; 1451 | PWMGenIntClear(uint32_t ui32Base, uint32_t ui32Gen, uint32_t ui32Ints) 
    3872                    ;----------------------------------------------------------------------
    3873                    
    3874                    ;*****************************************************************************
    3875                    ;* FUNCTION NAME: PWMGenIntClear                                             *
    3876                    ;*                                                                           *
    3877                    ;*   Regs Modified     : A1,A2,A3,SP,SR                                      *
    3878                    ;*   Regs Used         : A1,A2,A3,SP,LR,SR                                   *
    3879                    ;*   Local Frame Size  : 0 Args + 12 Auto + 0 Save = 12 byte                 *
    3880                    ;*****************************************************************************
    3881 000004d8           PWMGenIntClear:
    3882                    ;* --------------------------------------------------------------------------*
    3883                            .dwcfi  cfa_offset, 0
    3884 000004d8 0D10F1AD          SUB       SP, SP, #16           ; [DPU_V7M3_PIPE]  ; [KEEP 32-BIT INS]
    3885                            .dwcfi  cfa_offset, 16
    3886                    $C$DW$201       .dwtag  DW_TAG_variable
    3887                            .dwattr $C$DW$201, DW_AT_name("ui32Base")
    3888                            .dwattr $C$DW$201, DW_AT_TI_symbol_name("ui32Base")
    3889                            .dwattr $C$DW$201, DW_AT_type(*$C$DW$T$27)
    3890                            .dwattr $C$DW$201, DW_AT_location[DW_OP_breg13 0]
    3891                    
    3892                    $C$DW$202       .dwtag  DW_TAG_variable
    3893                            .dwattr $C$DW$202, DW_AT_name("ui32Gen")
    3894                            .dwattr $C$DW$202, DW_AT_TI_symbol_name("ui32Gen")
    3895                            .dwattr $C$DW$202, DW_AT_type(*$C$DW$T$27)
    3896                            .dwattr $C$DW$202, DW_AT_location[DW_OP_breg13 4]
    3897                    
    3898                    $C$DW$203       .dwtag  DW_TAG_variable
    3899                            .dwattr $C$DW$203, DW_AT_name("ui32Ints")
    3900                            .dwattr $C$DW$203, DW_AT_TI_symbol_name("ui32Ints")
    3901                            .dwattr $C$DW$203, DW_AT_type(*$C$DW$T$27)
    3902                            .dwattr $C$DW$203, DW_AT_location[DW_OP_breg13 8]
    3903                    
    3904                    ;----------------------------------------------------------------------
    3905                    ; 1453 | //                                                                     
TI ARM Assembler Unix v18.1.1 Fri Jul  3 20:08:25 2020

Tools Copyright (c) 1996-2017 Texas Instruments Incorporated
pwm.asm                                                              PAGE   72

    3906                    ; 1454 | // Check the arguments.                                                
    3907                    ; 1455 | //                                                                     
    3908                    ; 1456 | ASSERT((ui32Base == PWM0_BASE) || (ui32Base == PWM1_BASE));            
    3909                    ; 1457 | ASSERT(_PWMGenValid(ui32Gen));                                         
    3910                    ; 1458 | ASSERT((ui32Ints &                                                     
    3911                    ; 1459 |         ~(PWM_INT_CNT_ZERO | PWM_INT_CNT_LOAD | PWM_INT_CNT_AU |       
    3912                    ; 1460 |           PWM_INT_CNT_AD | PWM_INT_CNT_BU | PWM_INT_CNT_BD)) == 0);    
    3913                    ; 1462 | //                                                                     
    3914                    ; 1463 | // Clear the requested interrupts by writing ones to the specified bit 
    3915                    ; 1464 | // of the module's interrupt enable register.                          
    3916                    ; 1465 | //                                                                     
    3917                    ;----------------------------------------------------------------------
    3918 000004dc 9202              STR       A3, [SP, #8]          ; [DPU_V7M3_PIPE] |1452|  ; [ORIG 16-BIT INS]
    3919 000004de 9101              STR       A2, [SP, #4]          ; [DPU_V7M3_PIPE] |1452|  ; [ORIG 16-BIT INS]
    3920 000004e0 9000              STR       A1, [SP, #0]          ; [DPU_V7M3_PIPE] |1452|  ; [ORIG 16-BIT INS]
    3921                            .dwpsn  file "../driverlib/pwm.c",line 1466,column 5,is_stmt,isa 1
    3922                    ;----------------------------------------------------------------------
    3923                    ; 1466 | HWREG(PWM_GEN_BADDR(ui32Base, ui32Gen) + PWM_O_X_ISC) = ui32Ints;      
    3924                    ;----------------------------------------------------------------------
    3925 000004e2 9A01              LDR       A3, [SP, #4]          ; [DPU_V7M3_PIPE] |1466|  ; [ORIG 16-BIT INS]
    3926 000004e4 9800              LDR       A1, [SP, #0]          ; [DPU_V7M3_PIPE] |1466|  ; [ORIG 16-BIT INS]
    3927 000004e6 9902              LDR       A2, [SP, #8]          ; [DPU_V7M3_PIPE] |1466|  ; [ORIG 16-BIT INS]
    3928 000004e8 1880              ADDS      A1, A1, A3            ; [DPU_V7M3_PIPE] |1466|  ; [ORIG 16-BIT INS]
    3929 000004ea 60C1              STR       A2, [A1, #12]         ; [DPU_V7M3_PIPE] |1466|  ; [ORIG 16-BIT INS]
    3930                            .dwpsn  file "../driverlib/pwm.c",line 1467,column 1,is_stmt,isa 1
    3931 000004ec B004              ADD       SP, SP, #16           ; [DPU_V7M3_PIPE]  ; [ORIG 16-BIT INS]
    3932                            .dwcfi  cfa_offset, 0
    3933                    $C$DW$204       .dwtag  DW_TAG_TI_branch
    3934                            .dwattr $C$DW$204, DW_AT_low_pc(0x00)
    3935                            .dwattr $C$DW$204, DW_AT_TI_return
    3936                    
    3937 000004ee 4770              BX        LR                    ; [DPU_V7M3_PIPE]  ; [ORIG 16-BIT INS]
    3938                            ; BRANCH OCCURS                  ; [] 
    3939                            .dwattr $C$DW$197, DW_AT_TI_end_file("../driverlib/pwm.c")
    3940                            .dwattr $C$DW$197, DW_AT_TI_end_line(0x5bb)
    3941                            .dwattr $C$DW$197, DW_AT_TI_end_column(0x01)
    3942                            .dwendentry
    3943                            .dwendtag $C$DW$197
    3944                    
    3945 000004f0                   .sect   ".text"
    3946                            .clink
    3947                            .thumbfunc PWMIntEnable
    3948 000004f0                   .thumb
    3949                            .global PWMIntEnable
    3950                    
    3951                    $C$DW$205       .dwtag  DW_TAG_subprogram
    3952                            .dwattr $C$DW$205, DW_AT_name("PWMIntEnable")
    3953                            .dwattr $C$DW$205, DW_AT_low_pc(PWMIntEnable)
    3954                            .dwattr $C$DW$205, DW_AT_high_pc(0x00)
    3955                            .dwattr $C$DW$205, DW_AT_TI_symbol_name("PWMIntEnable")
    3956                            .dwattr $C$DW$205, DW_AT_external
    3957                            .dwattr $C$DW$205, DW_AT_TI_begin_file("../driverlib/pwm.c")
    3958                            .dwattr $C$DW$205, DW_AT_TI_begin_line(0x5ce)
    3959                            .dwattr $C$DW$205, DW_AT_TI_begin_column(0x01)
    3960                            .dwattr $C$DW$205, DW_AT_decl_file("../driverlib/pwm.c")
TI ARM Assembler Unix v18.1.1 Fri Jul  3 20:08:25 2020

Tools Copyright (c) 1996-2017 Texas Instruments Incorporated
pwm.asm                                                              PAGE   73

    3961                            .dwattr $C$DW$205, DW_AT_decl_line(0x5ce)
    3962                            .dwattr $C$DW$205, DW_AT_decl_column(0x01)
    3963                            .dwattr $C$DW$205, DW_AT_TI_max_frame_size(0x08)
    3964                            .dwpsn  file "../driverlib/pwm.c",line 1487,column 1,is_stmt,address PWMIntEnable,isa 1
    3965                    
    3966                            .dwfde $C$DW$CIE, PWMIntEnable
    3967                    $C$DW$206       .dwtag  DW_TAG_formal_parameter
    3968                            .dwattr $C$DW$206, DW_AT_name("ui32Base")
    3969                            .dwattr $C$DW$206, DW_AT_TI_symbol_name("ui32Base")
    3970                            .dwattr $C$DW$206, DW_AT_type(*$C$DW$T$27)
    3971                            .dwattr $C$DW$206, DW_AT_location[DW_OP_reg0]
    3972                    
    3973                    $C$DW$207       .dwtag  DW_TAG_formal_parameter
    3974                            .dwattr $C$DW$207, DW_AT_name("ui32GenFault")
    3975                            .dwattr $C$DW$207, DW_AT_TI_symbol_name("ui32GenFault")
    3976                            .dwattr $C$DW$207, DW_AT_type(*$C$DW$T$27)
    3977                            .dwattr $C$DW$207, DW_AT_location[DW_OP_reg1]
    3978                    
    3979                    ;----------------------------------------------------------------------
    3980                    ; 1486 | PWMIntEnable(uint32_t ui32Base, uint32_t ui32GenFault)                 
    3981                    ;----------------------------------------------------------------------
    3982                    
    3983                    ;*****************************************************************************
    3984                    ;* FUNCTION NAME: PWMIntEnable                                               *
    3985                    ;*                                                                           *
    3986                    ;*   Regs Modified     : A1,A2,A3,SP,SR                                      *
    3987                    ;*   Regs Used         : A1,A2,A3,SP,LR,SR                                   *
    3988                    ;*   Local Frame Size  : 0 Args + 8 Auto + 0 Save = 8 byte                   *
    3989                    ;*****************************************************************************
    3990 000004f0           PWMIntEnable:
    3991                    ;* --------------------------------------------------------------------------*
    3992                            .dwcfi  cfa_offset, 0
    3993 000004f0 0D08F1AD          SUB       SP, SP, #8            ; [DPU_V7M3_PIPE]  ; [KEEP 32-BIT INS]
    3994                            .dwcfi  cfa_offset, 8
    3995                    $C$DW$208       .dwtag  DW_TAG_variable
    3996                            .dwattr $C$DW$208, DW_AT_name("ui32Base")
    3997                            .dwattr $C$DW$208, DW_AT_TI_symbol_name("ui32Base")
    3998                            .dwattr $C$DW$208, DW_AT_type(*$C$DW$T$27)
    3999                            .dwattr $C$DW$208, DW_AT_location[DW_OP_breg13 0]
    4000                    
    4001                    $C$DW$209       .dwtag  DW_TAG_variable
    4002                            .dwattr $C$DW$209, DW_AT_name("ui32GenFault")
    4003                            .dwattr $C$DW$209, DW_AT_TI_symbol_name("ui32GenFault")
    4004                            .dwattr $C$DW$209, DW_AT_type(*$C$DW$T$27)
    4005                            .dwattr $C$DW$209, DW_AT_location[DW_OP_breg13 4]
    4006                    
    4007                    ;----------------------------------------------------------------------
    4008                    ; 1488 | //                                                                     
    4009                    ; 1489 | // Check the arguments.                                                
    4010                    ; 1490 | //                                                                     
    4011                    ; 1491 | ASSERT((ui32Base == PWM0_BASE) || (ui32Base == PWM1_BASE));            
    4012                    ; 1492 | ASSERT((ui32GenFault & ~(PWM_INT_GEN_0 | PWM_INT_GEN_1 | PWM_INT_GEN_2
    4013                    ;     | |                                                                      
    4014                    ; 1493 |                          PWM_INT_GEN_3 | PWM_INT_FAULT0 | PWM_INT_FAULT
    4015                    ;     | 1 |                                                                    
TI ARM Assembler Unix v18.1.1 Fri Jul  3 20:08:25 2020

Tools Copyright (c) 1996-2017 Texas Instruments Incorporated
pwm.asm                                                              PAGE   74

    4016                    ; 1494 |                          PWM_INT_FAULT2 | PWM_INT_FAULT3)) == 0);      
    4017                    ; 1496 | //                                                                     
    4018                    ; 1497 | // Read the module's interrupt enable register and enable interrupts   
    4019                    ; 1498 | // for the specified PWM generators.                                   
    4020                    ; 1499 | //                                                                     
    4021                    ;----------------------------------------------------------------------
    4022 000004f4 9101              STR       A2, [SP, #4]          ; [DPU_V7M3_PIPE] |1487|  ; [ORIG 16-BIT INS]
    4023 000004f6 9000              STR       A1, [SP, #0]          ; [DPU_V7M3_PIPE] |1487|  ; [ORIG 16-BIT INS]
    4024                            .dwpsn  file "../driverlib/pwm.c",line 1500,column 5,is_stmt,isa 1
    4025                    ;----------------------------------------------------------------------
    4026                    ; 1500 | HWREG(ui32Base + PWM_O_INTEN) |= ui32GenFault;                         
    4027                    ;----------------------------------------------------------------------
    4028 000004f8 9800              LDR       A1, [SP, #0]          ; [DPU_V7M3_PIPE] |1500|  ; [ORIG 16-BIT INS]
    4029 000004fa 9901              LDR       A2, [SP, #4]          ; [DPU_V7M3_PIPE] |1500|  ; [ORIG 16-BIT INS]
    4030 000004fc 3014              ADDS      A1, A1, #20           ; [DPU_V7M3_PIPE] |1500|  ; [ORIG 16-BIT INS]
    4031 000004fe 6802              LDR       A3, [A1, #0]          ; [DPU_V7M3_PIPE] |1500|  ; [ORIG 16-BIT INS]
    4032 00000500 4311              ORRS      A2, A2, A3            ; [DPU_V7M3_PIPE] |1500|  ; [ORIG 16-BIT INS]
    4033 00000502 6001              STR       A2, [A1, #0]          ; [DPU_V7M3_PIPE] |1500|  ; [ORIG 16-BIT INS]
    4034                            .dwpsn  file "../driverlib/pwm.c",line 1501,column 1,is_stmt,isa 1
    4035 00000504 B002              ADD       SP, SP, #8            ; [DPU_V7M3_PIPE]  ; [ORIG 16-BIT INS]
    4036                            .dwcfi  cfa_offset, 0
    4037                    $C$DW$210       .dwtag  DW_TAG_TI_branch
    4038                            .dwattr $C$DW$210, DW_AT_low_pc(0x00)
    4039                            .dwattr $C$DW$210, DW_AT_TI_return
    4040                    
    4041 00000506 4770              BX        LR                    ; [DPU_V7M3_PIPE]  ; [ORIG 16-BIT INS]
    4042                            ; BRANCH OCCURS                  ; [] 
    4043                            .dwattr $C$DW$205, DW_AT_TI_end_file("../driverlib/pwm.c")
    4044                            .dwattr $C$DW$205, DW_AT_TI_end_line(0x5dd)
    4045                            .dwattr $C$DW$205, DW_AT_TI_end_column(0x01)
    4046                            .dwendentry
    4047                            .dwendtag $C$DW$205
    4048                    
    4049 00000508                   .sect   ".text"
    4050                            .clink
    4051                            .thumbfunc PWMIntDisable
    4052 00000508                   .thumb
    4053                            .global PWMIntDisable
    4054                    
    4055                    $C$DW$211       .dwtag  DW_TAG_subprogram
    4056                            .dwattr $C$DW$211, DW_AT_name("PWMIntDisable")
    4057                            .dwattr $C$DW$211, DW_AT_low_pc(PWMIntDisable)
    4058                            .dwattr $C$DW$211, DW_AT_high_pc(0x00)
    4059                            .dwattr $C$DW$211, DW_AT_TI_symbol_name("PWMIntDisable")
    4060                            .dwattr $C$DW$211, DW_AT_external
    4061                            .dwattr $C$DW$211, DW_AT_TI_begin_file("../driverlib/pwm.c")
    4062                            .dwattr $C$DW$211, DW_AT_TI_begin_line(0x5f0)
    4063                            .dwattr $C$DW$211, DW_AT_TI_begin_column(0x01)
    4064                            .dwattr $C$DW$211, DW_AT_decl_file("../driverlib/pwm.c")
    4065                            .dwattr $C$DW$211, DW_AT_decl_line(0x5f0)
    4066                            .dwattr $C$DW$211, DW_AT_decl_column(0x01)
    4067                            .dwattr $C$DW$211, DW_AT_TI_max_frame_size(0x08)
    4068                            .dwpsn  file "../driverlib/pwm.c",line 1521,column 1,is_stmt,address PWMIntDisable,isa 1
    4069                    
    4070                            .dwfde $C$DW$CIE, PWMIntDisable
TI ARM Assembler Unix v18.1.1 Fri Jul  3 20:08:25 2020

Tools Copyright (c) 1996-2017 Texas Instruments Incorporated
pwm.asm                                                              PAGE   75

    4071                    $C$DW$212       .dwtag  DW_TAG_formal_parameter
    4072                            .dwattr $C$DW$212, DW_AT_name("ui32Base")
    4073                            .dwattr $C$DW$212, DW_AT_TI_symbol_name("ui32Base")
    4074                            .dwattr $C$DW$212, DW_AT_type(*$C$DW$T$27)
    4075                            .dwattr $C$DW$212, DW_AT_location[DW_OP_reg0]
    4076                    
    4077                    $C$DW$213       .dwtag  DW_TAG_formal_parameter
    4078                            .dwattr $C$DW$213, DW_AT_name("ui32GenFault")
    4079                            .dwattr $C$DW$213, DW_AT_TI_symbol_name("ui32GenFault")
    4080                            .dwattr $C$DW$213, DW_AT_type(*$C$DW$T$27)
    4081                            .dwattr $C$DW$213, DW_AT_location[DW_OP_reg1]
    4082                    
    4083                    ;----------------------------------------------------------------------
    4084                    ; 1520 | PWMIntDisable(uint32_t ui32Base, uint32_t ui32GenFault)                
    4085                    ;----------------------------------------------------------------------
    4086                    
    4087                    ;*****************************************************************************
    4088                    ;* FUNCTION NAME: PWMIntDisable                                              *
    4089                    ;*                                                                           *
    4090                    ;*   Regs Modified     : A1,A2,A3,SP,SR                                      *
    4091                    ;*   Regs Used         : A1,A2,A3,SP,LR,SR                                   *
    4092                    ;*   Local Frame Size  : 0 Args + 8 Auto + 0 Save = 8 byte                   *
    4093                    ;*****************************************************************************
    4094 00000508           PWMIntDisable:
    4095                    ;* --------------------------------------------------------------------------*
    4096                            .dwcfi  cfa_offset, 0
    4097 00000508 0D08F1AD          SUB       SP, SP, #8            ; [DPU_V7M3_PIPE]  ; [KEEP 32-BIT INS]
    4098                            .dwcfi  cfa_offset, 8
    4099                    $C$DW$214       .dwtag  DW_TAG_variable
    4100                            .dwattr $C$DW$214, DW_AT_name("ui32Base")
    4101                            .dwattr $C$DW$214, DW_AT_TI_symbol_name("ui32Base")
    4102                            .dwattr $C$DW$214, DW_AT_type(*$C$DW$T$27)
    4103                            .dwattr $C$DW$214, DW_AT_location[DW_OP_breg13 0]
    4104                    
    4105                    $C$DW$215       .dwtag  DW_TAG_variable
    4106                            .dwattr $C$DW$215, DW_AT_name("ui32GenFault")
    4107                            .dwattr $C$DW$215, DW_AT_TI_symbol_name("ui32GenFault")
    4108                            .dwattr $C$DW$215, DW_AT_type(*$C$DW$T$27)
    4109                            .dwattr $C$DW$215, DW_AT_location[DW_OP_breg13 4]
    4110                    
    4111                    ;----------------------------------------------------------------------
    4112                    ; 1522 | //                                                                     
    4113                    ; 1523 | // Check the arguments.                                                
    4114                    ; 1524 | //                                                                     
    4115                    ; 1525 | ASSERT((ui32Base == PWM0_BASE) || (ui32Base == PWM1_BASE));            
    4116                    ; 1526 | ASSERT((ui32GenFault & ~(PWM_INT_GEN_0 | PWM_INT_GEN_1 | PWM_INT_GEN_2
    4117                    ;     | |                                                                      
    4118                    ; 1527 |                          PWM_INT_GEN_3 | PWM_INT_FAULT0 | PWM_INT_FAULT
    4119                    ;     | 1 |                                                                    
    4120                    ; 1528 |                          PWM_INT_FAULT2 | PWM_INT_FAULT3)) == 0);      
    4121                    ; 1530 | //                                                                     
    4122                    ; 1531 | // Read the module's interrupt enable register and disable interrupts  
    4123                    ; 1532 | // for the specified PWM generators.                                   
    4124                    ; 1533 | //                                                                     
    4125                    ;----------------------------------------------------------------------
TI ARM Assembler Unix v18.1.1 Fri Jul  3 20:08:25 2020

Tools Copyright (c) 1996-2017 Texas Instruments Incorporated
pwm.asm                                                              PAGE   76

    4126 0000050c 9101              STR       A2, [SP, #4]          ; [DPU_V7M3_PIPE] |1521|  ; [ORIG 16-BIT INS]
    4127 0000050e 9000              STR       A1, [SP, #0]          ; [DPU_V7M3_PIPE] |1521|  ; [ORIG 16-BIT INS]
    4128                            .dwpsn  file "../driverlib/pwm.c",line 1534,column 5,is_stmt,isa 1
    4129                    ;----------------------------------------------------------------------
    4130                    ; 1534 | HWREG(ui32Base + PWM_O_INTEN) &= ~(ui32GenFault);                      
    4131                    ;----------------------------------------------------------------------
    4132 00000510 9800              LDR       A1, [SP, #0]          ; [DPU_V7M3_PIPE] |1534|  ; [ORIG 16-BIT INS]
    4133 00000512 9A01              LDR       A3, [SP, #4]          ; [DPU_V7M3_PIPE] |1534|  ; [ORIG 16-BIT INS]
    4134 00000514 3014              ADDS      A1, A1, #20           ; [DPU_V7M3_PIPE] |1534|  ; [ORIG 16-BIT INS]
    4135 00000516 6801              LDR       A2, [A1, #0]          ; [DPU_V7M3_PIPE] |1534|  ; [ORIG 16-BIT INS]
    4136 00000518 4391              BICS      A2, A2, A3            ; [DPU_V7M3_PIPE] |1534|  ; [ORIG 16-BIT INS]
    4137 0000051a 6001              STR       A2, [A1, #0]          ; [DPU_V7M3_PIPE] |1534|  ; [ORIG 16-BIT INS]
    4138                            .dwpsn  file "../driverlib/pwm.c",line 1535,column 1,is_stmt,isa 1
    4139 0000051c B002              ADD       SP, SP, #8            ; [DPU_V7M3_PIPE]  ; [ORIG 16-BIT INS]
    4140                            .dwcfi  cfa_offset, 0
    4141                    $C$DW$216       .dwtag  DW_TAG_TI_branch
    4142                            .dwattr $C$DW$216, DW_AT_low_pc(0x00)
    4143                            .dwattr $C$DW$216, DW_AT_TI_return
    4144                    
    4145 0000051e 4770              BX        LR                    ; [DPU_V7M3_PIPE]  ; [ORIG 16-BIT INS]
    4146                            ; BRANCH OCCURS                  ; [] 
    4147                            .dwattr $C$DW$211, DW_AT_TI_end_file("../driverlib/pwm.c")
    4148                            .dwattr $C$DW$211, DW_AT_TI_end_line(0x5ff)
    4149                            .dwattr $C$DW$211, DW_AT_TI_end_column(0x01)
    4150                            .dwendentry
    4151                            .dwendtag $C$DW$211
    4152                    
    4153 00000520                   .sect   ".text"
    4154                            .clink
    4155                            .thumbfunc PWMFaultIntClear
    4156 00000520                   .thumb
    4157                            .global PWMFaultIntClear
    4158                    
    4159                    $C$DW$217       .dwtag  DW_TAG_subprogram
    4160                            .dwattr $C$DW$217, DW_AT_name("PWMFaultIntClear")
    4161                            .dwattr $C$DW$217, DW_AT_low_pc(PWMFaultIntClear)
    4162                            .dwattr $C$DW$217, DW_AT_high_pc(0x00)
    4163                            .dwattr $C$DW$217, DW_AT_TI_symbol_name("PWMFaultIntClear")
    4164                            .dwattr $C$DW$217, DW_AT_external
    4165                            .dwattr $C$DW$217, DW_AT_TI_begin_file("../driverlib/pwm.c")
    4166                            .dwattr $C$DW$217, DW_AT_TI_begin_line(0x61c)
    4167                            .dwattr $C$DW$217, DW_AT_TI_begin_column(0x01)
    4168                            .dwattr $C$DW$217, DW_AT_decl_file("../driverlib/pwm.c")
    4169                            .dwattr $C$DW$217, DW_AT_decl_line(0x61c)
    4170                            .dwattr $C$DW$217, DW_AT_decl_column(0x01)
    4171                            .dwattr $C$DW$217, DW_AT_TI_max_frame_size(0x08)
    4172                            .dwpsn  file "../driverlib/pwm.c",line 1565,column 1,is_stmt,address PWMFaultIntClear,isa 1
    4173                    
    4174                            .dwfde $C$DW$CIE, PWMFaultIntClear
    4175                    $C$DW$218       .dwtag  DW_TAG_formal_parameter
    4176                            .dwattr $C$DW$218, DW_AT_name("ui32Base")
    4177                            .dwattr $C$DW$218, DW_AT_TI_symbol_name("ui32Base")
    4178                            .dwattr $C$DW$218, DW_AT_type(*$C$DW$T$27)
    4179                            .dwattr $C$DW$218, DW_AT_location[DW_OP_reg0]
    4180                    
TI ARM Assembler Unix v18.1.1 Fri Jul  3 20:08:25 2020

Tools Copyright (c) 1996-2017 Texas Instruments Incorporated
pwm.asm                                                              PAGE   77

    4181                    ;----------------------------------------------------------------------
    4182                    ; 1564 | PWMFaultIntClear(uint32_t ui32Base)                                    
    4183                    ;----------------------------------------------------------------------
    4184                    
    4185                    ;*****************************************************************************
    4186                    ;* FUNCTION NAME: PWMFaultIntClear                                           *
    4187                    ;*                                                                           *
    4188                    ;*   Regs Modified     : A1,A2,SP                                            *
    4189                    ;*   Regs Used         : A1,A2,SP,LR                                         *
    4190                    ;*   Local Frame Size  : 0 Args + 4 Auto + 0 Save = 4 byte                   *
    4191                    ;*****************************************************************************
    4192 00000520           PWMFaultIntClear:
    4193                    ;* --------------------------------------------------------------------------*
    4194                            .dwcfi  cfa_offset, 0
    4195 00000520 0D08F1AD          SUB       SP, SP, #8            ; [DPU_V7M3_PIPE]  ; [KEEP 32-BIT INS]
    4196                            .dwcfi  cfa_offset, 8
    4197                    $C$DW$219       .dwtag  DW_TAG_variable
    4198                            .dwattr $C$DW$219, DW_AT_name("ui32Base")
    4199                            .dwattr $C$DW$219, DW_AT_TI_symbol_name("ui32Base")
    4200                            .dwattr $C$DW$219, DW_AT_type(*$C$DW$T$27)
    4201                            .dwattr $C$DW$219, DW_AT_location[DW_OP_breg13 0]
    4202                    
    4203                    ;----------------------------------------------------------------------
    4204                    ; 1566 | //                                                                     
    4205                    ; 1567 | // Check the arguments.                                                
    4206                    ; 1568 | //                                                                     
    4207                    ; 1569 | ASSERT((ui32Base == PWM0_BASE) || (ui32Base == PWM1_BASE));            
    4208                    ; 1571 | //                                                                     
    4209                    ; 1572 | // Write the only writeable bit in the module's interrupt register.    
    4210                    ; 1573 | //                                                                     
    4211                    ;----------------------------------------------------------------------
    4212 00000524 9000              STR       A1, [SP, #0]          ; [DPU_V7M3_PIPE] |1565|  ; [ORIG 16-BIT INS]
    4213                            .dwpsn  file "../driverlib/pwm.c",line 1574,column 5,is_stmt,isa 1
    4214                    ;----------------------------------------------------------------------
    4215                    ; 1574 | HWREG(ui32Base + PWM_O_ISC) = PWM_ISC_INTFAULT0;                       
    4216                    ;----------------------------------------------------------------------
    4217 00000526 9800              LDR       A1, [SP, #0]          ; [DPU_V7M3_PIPE] |1574|  ; [ORIG 16-BIT INS]
    4218 00000528 3180F44F          MOV       A2, #65536            ; [DPU_V7M3_PIPE] |1574|  ; [KEEP 32-BIT INS]
    4219 0000052c 61C1              STR       A2, [A1, #28]         ; [DPU_V7M3_PIPE] |1574|  ; [ORIG 16-BIT INS]
    4220                            .dwpsn  file "../driverlib/pwm.c",line 1575,column 1,is_stmt,isa 1
    4221 0000052e B002              ADD       SP, SP, #8            ; [DPU_V7M3_PIPE]  ; [ORIG 16-BIT INS]
    4222                            .dwcfi  cfa_offset, 0
    4223                    $C$DW$220       .dwtag  DW_TAG_TI_branch
    4224                            .dwattr $C$DW$220, DW_AT_low_pc(0x00)
    4225                            .dwattr $C$DW$220, DW_AT_TI_return
    4226                    
    4227 00000530 4770              BX        LR                    ; [DPU_V7M3_PIPE]  ; [ORIG 16-BIT INS]
    4228                            ; BRANCH OCCURS                  ; [] 
    4229                            .dwattr $C$DW$217, DW_AT_TI_end_file("../driverlib/pwm.c")
    4230                            .dwattr $C$DW$217, DW_AT_TI_end_line(0x627)
    4231                            .dwattr $C$DW$217, DW_AT_TI_end_column(0x01)
    4232                            .dwendentry
    4233                            .dwendtag $C$DW$217
    4234                    
    4235 00000532                   .sect   ".text"
TI ARM Assembler Unix v18.1.1 Fri Jul  3 20:08:25 2020

Tools Copyright (c) 1996-2017 Texas Instruments Incorporated
pwm.asm                                                              PAGE   78

    4236                            .clink
    4237                            .thumbfunc PWMIntStatus
    4238 00000532                   .thumb
    4239                            .global PWMIntStatus
    4240                    
    4241                    $C$DW$221       .dwtag  DW_TAG_subprogram
    4242                            .dwattr $C$DW$221, DW_AT_name("PWMIntStatus")
    4243                            .dwattr $C$DW$221, DW_AT_low_pc(PWMIntStatus)
    4244                            .dwattr $C$DW$221, DW_AT_high_pc(0x00)
    4245                            .dwattr $C$DW$221, DW_AT_TI_symbol_name("PWMIntStatus")
    4246                            .dwattr $C$DW$221, DW_AT_external
    4247                            .dwattr $C$DW$221, DW_AT_type(*$C$DW$T$27)
    4248                            .dwattr $C$DW$221, DW_AT_TI_begin_file("../driverlib/pwm.c")
    4249                            .dwattr $C$DW$221, DW_AT_TI_begin_line(0x63b)
    4250                            .dwattr $C$DW$221, DW_AT_TI_begin_column(0x01)
    4251                            .dwattr $C$DW$221, DW_AT_decl_file("../driverlib/pwm.c")
    4252                            .dwattr $C$DW$221, DW_AT_decl_line(0x63b)
    4253                            .dwattr $C$DW$221, DW_AT_decl_column(0x01)
    4254                            .dwattr $C$DW$221, DW_AT_TI_max_frame_size(0x08)
    4255                            .dwpsn  file "../driverlib/pwm.c",line 1596,column 1,is_stmt,address PWMIntStatus,isa 1
    4256                    
    4257                            .dwfde $C$DW$CIE, PWMIntStatus
    4258                    $C$DW$222       .dwtag  DW_TAG_formal_parameter
    4259                            .dwattr $C$DW$222, DW_AT_name("ui32Base")
    4260                            .dwattr $C$DW$222, DW_AT_TI_symbol_name("ui32Base")
    4261                            .dwattr $C$DW$222, DW_AT_type(*$C$DW$T$27)
    4262                            .dwattr $C$DW$222, DW_AT_location[DW_OP_reg0]
    4263                    
    4264                    $C$DW$223       .dwtag  DW_TAG_formal_parameter
    4265                            .dwattr $C$DW$223, DW_AT_name("bMasked")
    4266                            .dwattr $C$DW$223, DW_AT_TI_symbol_name("bMasked")
    4267                            .dwattr $C$DW$223, DW_AT_type(*$C$DW$T$37)
    4268                            .dwattr $C$DW$223, DW_AT_location[DW_OP_reg1]
    4269                    
    4270                    ;----------------------------------------------------------------------
    4271                    ; 1595 | PWMIntStatus(uint32_t ui32Base, bool bMasked)                          
    4272                    ;----------------------------------------------------------------------
    4273                    
    4274                    ;*****************************************************************************
    4275                    ;* FUNCTION NAME: PWMIntStatus                                               *
    4276                    ;*                                                                           *
    4277                    ;*   Regs Modified     : A1,SP,SR                                            *
    4278                    ;*   Regs Used         : A1,A2,SP,LR,SR                                      *
    4279                    ;*   Local Frame Size  : 0 Args + 8 Auto + 0 Save = 8 byte                   *
    4280                    ;*****************************************************************************
    4281 00000532           PWMIntStatus:
    4282                    ;* --------------------------------------------------------------------------*
    4283                            .dwcfi  cfa_offset, 0
    4284 00000532 0D08F1AD          SUB       SP, SP, #8            ; [DPU_V7M3_PIPE]  ; [KEEP 32-BIT INS]
    4285                            .dwcfi  cfa_offset, 8
    4286                    $C$DW$224       .dwtag  DW_TAG_variable
    4287                            .dwattr $C$DW$224, DW_AT_name("ui32Base")
    4288                            .dwattr $C$DW$224, DW_AT_TI_symbol_name("ui32Base")
    4289                            .dwattr $C$DW$224, DW_AT_type(*$C$DW$T$27)
    4290                            .dwattr $C$DW$224, DW_AT_location[DW_OP_breg13 0]
TI ARM Assembler Unix v18.1.1 Fri Jul  3 20:08:25 2020

Tools Copyright (c) 1996-2017 Texas Instruments Incorporated
pwm.asm                                                              PAGE   79

    4291                    
    4292                    $C$DW$225       .dwtag  DW_TAG_variable
    4293                            .dwattr $C$DW$225, DW_AT_name("bMasked")
    4294                            .dwattr $C$DW$225, DW_AT_TI_symbol_name("bMasked")
    4295                            .dwattr $C$DW$225, DW_AT_type(*$C$DW$T$37)
    4296                            .dwattr $C$DW$225, DW_AT_location[DW_OP_breg13 4]
    4297                    
    4298                    ;----------------------------------------------------------------------
    4299                    ; 1597 | //                                                                     
    4300                    ; 1598 | // Check the arguments.                                                
    4301                    ; 1599 | //                                                                     
    4302                    ; 1600 | ASSERT((ui32Base == PWM0_BASE) || (ui32Base == PWM1_BASE));            
    4303                    ; 1602 | //                                                                     
    4304                    ; 1603 | // Read and return either the module's raw or enabled interrupt status.
    4305                    ; 1604 | //                                                                     
    4306                    ;----------------------------------------------------------------------
    4307 00000536 1004F88D          STRB      A2, [SP, #4]          ; [DPU_V7M3_PIPE] |1596|  ; [KEEP 32-BIT INS]
    4308 0000053a 9000              STR       A1, [SP, #0]          ; [DPU_V7M3_PIPE] |1596|  ; [ORIG 16-BIT INS]
    4309                            .dwpsn  file "../driverlib/pwm.c",line 1605,column 5,is_stmt,isa 1
    4310                    ;----------------------------------------------------------------------
    4311                    ; 1605 | if(bMasked == true)                                                    
    4312                    ;----------------------------------------------------------------------
    4313 0000053c 0004F89D          LDRB      A1, [SP, #4]          ; [DPU_V7M3_PIPE] |1605|  ; [KEEP 32-BIT INS]
    4314 00000540 2801              CMP       A1, #1                ; [DPU_V7M3_PIPE] |1605|  ; [ORIG 16-BIT INS]
    4315 00000542 D102              BNE       ||$C$L48||            ; [DPU_V7M3_PIPE] |1605|  ; [ORIG 16-BIT INS]
    4316                            ; BRANCHCC OCCURS {||$C$L48||}   ; [] |1605| 
    4317                    ;* --------------------------------------------------------------------------*
    4318                            .dwpsn  file "../driverlib/pwm.c",line 1607,column 9,is_stmt,isa 1
    4319                    ;----------------------------------------------------------------------
    4320                    ; 1607 | return(HWREG(ui32Base + PWM_O_ISC));                                   
    4321                    ; 1609 | else                                                                   
    4322                    ;----------------------------------------------------------------------
    4323 00000544 9800              LDR       A1, [SP, #0]          ; [DPU_V7M3_PIPE] |1607|  ; [ORIG 16-BIT INS]
    4324 00000546 69C0              LDR       A1, [A1, #28]         ; [DPU_V7M3_PIPE] |1607|  ; [ORIG 16-BIT INS]
    4325 00000548 E001              B         ||$C$L49||            ; [DPU_V7M3_PIPE] |1607|  ; [ORIG 16-BIT INS]
    4326                            ; BRANCH OCCURS {||$C$L49||}     ; [] |1607| 
    4327                    ;* --------------------------------------------------------------------------*
    4328                    ;* --------------------------------------------------------------------------*
    4329 0000054a           ||$C$L48||:    
    4330                            .dwpsn  file "../driverlib/pwm.c",line 1611,column 9,is_stmt,isa 1
    4331                    ;----------------------------------------------------------------------
    4332                    ; 1611 | return(HWREG(ui32Base + PWM_O_RIS));                                   
    4333                    ;----------------------------------------------------------------------
    4334 0000054a 9800              LDR       A1, [SP, #0]          ; [DPU_V7M3_PIPE] |1611|  ; [ORIG 16-BIT INS]
    4335 0000054c 6980              LDR       A1, [A1, #24]         ; [DPU_V7M3_PIPE] |1611|  ; [ORIG 16-BIT INS]
    4336                    ;* --------------------------------------------------------------------------*
    4337 0000054e           ||$C$L49||:    
    4338                            .dwpsn  file "../driverlib/pwm.c",line 1613,column 1,is_stmt,isa 1
    4339 0000054e B002              ADD       SP, SP, #8            ; [DPU_V7M3_PIPE]  ; [ORIG 16-BIT INS]
    4340                            .dwcfi  cfa_offset, 0
    4341                    $C$DW$226       .dwtag  DW_TAG_TI_branch
    4342                            .dwattr $C$DW$226, DW_AT_low_pc(0x00)
    4343                            .dwattr $C$DW$226, DW_AT_TI_return
    4344                    
    4345 00000550 4770              BX        LR                    ; [DPU_V7M3_PIPE]  ; [ORIG 16-BIT INS]
TI ARM Assembler Unix v18.1.1 Fri Jul  3 20:08:25 2020

Tools Copyright (c) 1996-2017 Texas Instruments Incorporated
pwm.asm                                                              PAGE   80

    4346                            ; BRANCH OCCURS                  ; [] 
    4347                            .dwattr $C$DW$221, DW_AT_TI_end_file("../driverlib/pwm.c")
    4348                            .dwattr $C$DW$221, DW_AT_TI_end_line(0x64d)
    4349                            .dwattr $C$DW$221, DW_AT_TI_end_column(0x01)
    4350                            .dwendentry
    4351                            .dwendtag $C$DW$221
    4352                    
    4353 00000552                   .sect   ".text"
    4354                            .clink
    4355                            .thumbfunc PWMFaultIntClearExt
    4356 00000552                   .thumb
    4357                            .global PWMFaultIntClearExt
    4358                    
    4359                    $C$DW$227       .dwtag  DW_TAG_subprogram
    4360                            .dwattr $C$DW$227, DW_AT_name("PWMFaultIntClearExt")
    4361                            .dwattr $C$DW$227, DW_AT_low_pc(PWMFaultIntClearExt)
    4362                            .dwattr $C$DW$227, DW_AT_high_pc(0x00)
    4363                            .dwattr $C$DW$227, DW_AT_TI_symbol_name("PWMFaultIntClearExt")
    4364                            .dwattr $C$DW$227, DW_AT_external
    4365                            .dwattr $C$DW$227, DW_AT_TI_begin_file("../driverlib/pwm.c")
    4366                            .dwattr $C$DW$227, DW_AT_TI_begin_line(0x66e)
    4367                            .dwattr $C$DW$227, DW_AT_TI_begin_column(0x01)
    4368                            .dwattr $C$DW$227, DW_AT_decl_file("../driverlib/pwm.c")
    4369                            .dwattr $C$DW$227, DW_AT_decl_line(0x66e)
    4370                            .dwattr $C$DW$227, DW_AT_decl_column(0x01)
    4371                            .dwattr $C$DW$227, DW_AT_TI_max_frame_size(0x08)
    4372                            .dwpsn  file "../driverlib/pwm.c",line 1647,column 1,is_stmt,address PWMFaultIntClearExt,isa 1
    4373                    
    4374                            .dwfde $C$DW$CIE, PWMFaultIntClearExt
    4375                    $C$DW$228       .dwtag  DW_TAG_formal_parameter
    4376                            .dwattr $C$DW$228, DW_AT_name("ui32Base")
    4377                            .dwattr $C$DW$228, DW_AT_TI_symbol_name("ui32Base")
    4378                            .dwattr $C$DW$228, DW_AT_type(*$C$DW$T$27)
    4379                            .dwattr $C$DW$228, DW_AT_location[DW_OP_reg0]
    4380                    
    4381                    $C$DW$229       .dwtag  DW_TAG_formal_parameter
    4382                            .dwattr $C$DW$229, DW_AT_name("ui32FaultInts")
    4383                            .dwattr $C$DW$229, DW_AT_TI_symbol_name("ui32FaultInts")
    4384                            .dwattr $C$DW$229, DW_AT_type(*$C$DW$T$27)
    4385                            .dwattr $C$DW$229, DW_AT_location[DW_OP_reg1]
    4386                    
    4387                    ;----------------------------------------------------------------------
    4388                    ; 1646 | PWMFaultIntClearExt(uint32_t ui32Base, uint32_t ui32FaultInts)         
    4389                    ;----------------------------------------------------------------------
    4390                    
    4391                    ;*****************************************************************************
    4392                    ;* FUNCTION NAME: PWMFaultIntClearExt                                        *
    4393                    ;*                                                                           *
    4394                    ;*   Regs Modified     : A1,A2,SP                                            *
    4395                    ;*   Regs Used         : A1,A2,SP,LR                                         *
    4396                    ;*   Local Frame Size  : 0 Args + 8 Auto + 0 Save = 8 byte                   *
    4397                    ;*****************************************************************************
    4398 00000552           PWMFaultIntClearExt:
    4399                    ;* --------------------------------------------------------------------------*
    4400                            .dwcfi  cfa_offset, 0
TI ARM Assembler Unix v18.1.1 Fri Jul  3 20:08:25 2020

Tools Copyright (c) 1996-2017 Texas Instruments Incorporated
pwm.asm                                                              PAGE   81

    4401 00000552 0D08F1AD          SUB       SP, SP, #8            ; [DPU_V7M3_PIPE]  ; [KEEP 32-BIT INS]
    4402                            .dwcfi  cfa_offset, 8
    4403                    $C$DW$230       .dwtag  DW_TAG_variable
    4404                            .dwattr $C$DW$230, DW_AT_name("ui32Base")
    4405                            .dwattr $C$DW$230, DW_AT_TI_symbol_name("ui32Base")
    4406                            .dwattr $C$DW$230, DW_AT_type(*$C$DW$T$27)
    4407                            .dwattr $C$DW$230, DW_AT_location[DW_OP_breg13 0]
    4408                    
    4409                    $C$DW$231       .dwtag  DW_TAG_variable
    4410                            .dwattr $C$DW$231, DW_AT_name("ui32FaultInts")
    4411                            .dwattr $C$DW$231, DW_AT_TI_symbol_name("ui32FaultInts")
    4412                            .dwattr $C$DW$231, DW_AT_type(*$C$DW$T$27)
    4413                            .dwattr $C$DW$231, DW_AT_location[DW_OP_breg13 4]
    4414                    
    4415                    ;----------------------------------------------------------------------
    4416                    ; 1648 | //                                                                     
    4417                    ; 1649 | // Check the arguments.                                                
    4418                    ; 1650 | //                                                                     
    4419                    ; 1651 | ASSERT((ui32Base == PWM0_BASE) || (ui32Base == PWM1_BASE));            
    4420                    ; 1652 | ASSERT((ui32FaultInts & ~(PWM_INT_FAULT0 | PWM_INT_FAULT1 |            
    4421                    ; 1653 |                           PWM_INT_FAULT2 | PWM_INT_FAULT3)) == 0);     
    4422                    ; 1655 | //                                                                     
    4423                    ; 1656 | // Clear the supplied fault bits.                                      
    4424                    ; 1657 | //                                                                     
    4425                    ;----------------------------------------------------------------------
    4426 00000556 9101              STR       A2, [SP, #4]          ; [DPU_V7M3_PIPE] |1647|  ; [ORIG 16-BIT INS]
    4427 00000558 9000              STR       A1, [SP, #0]          ; [DPU_V7M3_PIPE] |1647|  ; [ORIG 16-BIT INS]
    4428                            .dwpsn  file "../driverlib/pwm.c",line 1658,column 5,is_stmt,isa 1
    4429                    ;----------------------------------------------------------------------
    4430                    ; 1658 | HWREG(ui32Base + PWM_O_ISC) = ui32FaultInts;                           
    4431                    ;----------------------------------------------------------------------
    4432 0000055a 9801              LDR       A1, [SP, #4]          ; [DPU_V7M3_PIPE] |1658|  ; [ORIG 16-BIT INS]
    4433 0000055c 9900              LDR       A2, [SP, #0]          ; [DPU_V7M3_PIPE] |1658|  ; [ORIG 16-BIT INS]
    4434 0000055e 61C8              STR       A1, [A2, #28]         ; [DPU_V7M3_PIPE] |1658|  ; [ORIG 16-BIT INS]
    4435                            .dwpsn  file "../driverlib/pwm.c",line 1659,column 1,is_stmt,isa 1
    4436 00000560 B002              ADD       SP, SP, #8            ; [DPU_V7M3_PIPE]  ; [ORIG 16-BIT INS]
    4437                            .dwcfi  cfa_offset, 0
    4438                    $C$DW$232       .dwtag  DW_TAG_TI_branch
    4439                            .dwattr $C$DW$232, DW_AT_low_pc(0x00)
    4440                            .dwattr $C$DW$232, DW_AT_TI_return
    4441                    
    4442 00000562 4770              BX        LR                    ; [DPU_V7M3_PIPE]  ; [ORIG 16-BIT INS]
    4443                            ; BRANCH OCCURS                  ; [] 
    4444                            .dwattr $C$DW$227, DW_AT_TI_end_file("../driverlib/pwm.c")
    4445                            .dwattr $C$DW$227, DW_AT_TI_end_line(0x67b)
    4446                            .dwattr $C$DW$227, DW_AT_TI_end_column(0x01)
    4447                            .dwendentry
    4448                            .dwendtag $C$DW$227
    4449                    
    4450                    ;******************************************************************************
    4451                    ;* CONSTANT TABLE                                                             *
    4452                    ;******************************************************************************
    4453 00000564                   .sect   ".text"
    4454                            .align  4
    4455 00000564 70FF0000  ||$C$CON1||:    .bits   1895759872,32
TI ARM Assembler Unix v18.1.1 Fri Jul  3 20:08:25 2020

Tools Copyright (c) 1996-2017 Texas Instruments Incorporated
pwm.asm                                                              PAGE   82

    4456                            .align  4
    4457 00000568 400FE000  ||$C$CON2||:    .bits   1074782208,32
    4458                            .align  4
    4459 0000056c 10050000  ||$C$CON3||:    .bits   268763136,32
    4460 00000570                   .sect   ".text"
    4461                            .clink
    4462                            .thumbfunc PWMGenFaultConfigure
    4463 00000570                   .thumb
    4464                            .global PWMGenFaultConfigure
    4465                    
    4466                    $C$DW$233       .dwtag  DW_TAG_subprogram
    4467                            .dwattr $C$DW$233, DW_AT_name("PWMGenFaultConfigure")
    4468                            .dwattr $C$DW$233, DW_AT_low_pc(PWMGenFaultConfigure)
    4469                            .dwattr $C$DW$233, DW_AT_high_pc(0x00)
    4470                            .dwattr $C$DW$233, DW_AT_TI_symbol_name("PWMGenFaultConfigure")
    4471                            .dwattr $C$DW$233, DW_AT_external
    4472                            .dwattr $C$DW$233, DW_AT_TI_begin_file("../driverlib/pwm.c")
    4473                            .dwattr $C$DW$233, DW_AT_TI_begin_line(0x69b)
    4474                            .dwattr $C$DW$233, DW_AT_TI_begin_column(0x01)
    4475                            .dwattr $C$DW$233, DW_AT_decl_file("../driverlib/pwm.c")
    4476                            .dwattr $C$DW$233, DW_AT_decl_line(0x69b)
    4477                            .dwattr $C$DW$233, DW_AT_decl_column(0x01)
    4478                            .dwattr $C$DW$233, DW_AT_TI_max_frame_size(0x10)
    4479                            .dwpsn  file "../driverlib/pwm.c",line 1694,column 1,is_stmt,address PWMGenFaultConfigure,isa 
    4480                    
    4481                            .dwfde $C$DW$CIE, PWMGenFaultConfigure
    4482                    $C$DW$234       .dwtag  DW_TAG_formal_parameter
    4483                            .dwattr $C$DW$234, DW_AT_name("ui32Base")
    4484                            .dwattr $C$DW$234, DW_AT_TI_symbol_name("ui32Base")
    4485                            .dwattr $C$DW$234, DW_AT_type(*$C$DW$T$27)
    4486                            .dwattr $C$DW$234, DW_AT_location[DW_OP_reg0]
    4487                    
    4488                    $C$DW$235       .dwtag  DW_TAG_formal_parameter
    4489                            .dwattr $C$DW$235, DW_AT_name("ui32Gen")
    4490                            .dwattr $C$DW$235, DW_AT_TI_symbol_name("ui32Gen")
    4491                            .dwattr $C$DW$235, DW_AT_type(*$C$DW$T$27)
    4492                            .dwattr $C$DW$235, DW_AT_location[DW_OP_reg1]
    4493                    
    4494                    $C$DW$236       .dwtag  DW_TAG_formal_parameter
    4495                            .dwattr $C$DW$236, DW_AT_name("ui32MinFaultPeriod")
    4496                            .dwattr $C$DW$236, DW_AT_TI_symbol_name("ui32MinFaultPeriod")
    4497                            .dwattr $C$DW$236, DW_AT_type(*$C$DW$T$27)
    4498                            .dwattr $C$DW$236, DW_AT_location[DW_OP_reg2]
    4499                    
    4500                    $C$DW$237       .dwtag  DW_TAG_formal_parameter
    4501                            .dwattr $C$DW$237, DW_AT_name("ui32FaultSenses")
    4502                            .dwattr $C$DW$237, DW_AT_TI_symbol_name("ui32FaultSenses")
    4503                            .dwattr $C$DW$237, DW_AT_type(*$C$DW$T$27)
    4504                            .dwattr $C$DW$237, DW_AT_location[DW_OP_reg3]
    4505                    
    4506                    ;----------------------------------------------------------------------
    4507                    ; 1691 | PWMGenFaultConfigure(uint32_t ui32Base, uint32_t ui32Gen,              
    4508                    ; 1692 | uint32_t ui32MinFaultPeriod,                                           
    4509                    ; 1693 | uint32_t ui32FaultSenses)                                              
    4510                    ;----------------------------------------------------------------------
TI ARM Assembler Unix v18.1.1 Fri Jul  3 20:08:25 2020

Tools Copyright (c) 1996-2017 Texas Instruments Incorporated
pwm.asm                                                              PAGE   83

    4511                    
    4512                    ;*****************************************************************************
    4513                    ;* FUNCTION NAME: PWMGenFaultConfigure                                       *
    4514                    ;*                                                                           *
    4515                    ;*   Regs Modified     : A1,A2,A3,SP,SR                                      *
    4516                    ;*   Regs Used         : A1,A2,A3,A4,SP,LR,SR                                *
    4517                    ;*   Local Frame Size  : 0 Args + 16 Auto + 0 Save = 16 byte                 *
    4518                    ;*****************************************************************************
    4519 00000570           PWMGenFaultConfigure:
    4520                    ;* --------------------------------------------------------------------------*
    4521                            .dwcfi  cfa_offset, 0
    4522 00000570 0D10F1AD          SUB       SP, SP, #16           ; [DPU_V7M3_PIPE]  ; [KEEP 32-BIT INS]
    4523                            .dwcfi  cfa_offset, 16
    4524                    $C$DW$238       .dwtag  DW_TAG_variable
    4525                            .dwattr $C$DW$238, DW_AT_name("ui32Base")
    4526                            .dwattr $C$DW$238, DW_AT_TI_symbol_name("ui32Base")
    4527                            .dwattr $C$DW$238, DW_AT_type(*$C$DW$T$27)
    4528                            .dwattr $C$DW$238, DW_AT_location[DW_OP_breg13 0]
    4529                    
    4530                    $C$DW$239       .dwtag  DW_TAG_variable
    4531                            .dwattr $C$DW$239, DW_AT_name("ui32Gen")
    4532                            .dwattr $C$DW$239, DW_AT_TI_symbol_name("ui32Gen")
    4533                            .dwattr $C$DW$239, DW_AT_type(*$C$DW$T$27)
    4534                            .dwattr $C$DW$239, DW_AT_location[DW_OP_breg13 4]
    4535                    
    4536                    $C$DW$240       .dwtag  DW_TAG_variable
    4537                            .dwattr $C$DW$240, DW_AT_name("ui32MinFaultPeriod")
    4538                            .dwattr $C$DW$240, DW_AT_TI_symbol_name("ui32MinFaultPeriod")
    4539                            .dwattr $C$DW$240, DW_AT_type(*$C$DW$T$27)
    4540                            .dwattr $C$DW$240, DW_AT_location[DW_OP_breg13 8]
    4541                    
    4542                    $C$DW$241       .dwtag  DW_TAG_variable
    4543                            .dwattr $C$DW$241, DW_AT_name("ui32FaultSenses")
    4544                            .dwattr $C$DW$241, DW_AT_TI_symbol_name("ui32FaultSenses")
    4545                            .dwattr $C$DW$241, DW_AT_type(*$C$DW$T$27)
    4546                            .dwattr $C$DW$241, DW_AT_location[DW_OP_breg13 12]
    4547                    
    4548                    ;----------------------------------------------------------------------
    4549                    ; 1695 | //                                                                     
    4550                    ; 1696 | // Check the arguments.                                                
    4551                    ; 1697 | //                                                                     
    4552                    ; 1698 | ASSERT((ui32Base == PWM0_BASE) || (ui32Base == PWM1_BASE));            
    4553                    ; 1699 | ASSERT(_PWMGenValid(ui32Gen));                                         
    4554                    ; 1700 | ASSERT(ui32MinFaultPeriod < PWM_X_MINFLTPER_M);                        
    4555                    ; 1701 | ASSERT((ui32FaultSenses & ~(PWM_FAULT0_SENSE_HIGH | PWM_FAULT0_SENSE_LO
    4556                    ;     | W |                                                                    
    4557                    ; 1702 |                             PWM_FAULT1_SENSE_HIGH | PWM_FAULT1_SENSE_LO
    4558                    ;     | W |                                                                    
    4559                    ; 1703 |                             PWM_FAULT2_SENSE_HIGH | PWM_FAULT2_SENSE_LO
    4560                    ;     | W |                                                                    
    4561                    ; 1704 |                             PWM_FAULT3_SENSE_HIGH |                    
    4562                    ; 1705 |                             PWM_FAULT3_SENSE_LOW)) == 0);              
    4563                    ; 1707 | //                                                                     
    4564                    ; 1708 | // Write the minimum fault period.                                     
    4565                    ; 1709 | //                                                                     
TI ARM Assembler Unix v18.1.1 Fri Jul  3 20:08:25 2020

Tools Copyright (c) 1996-2017 Texas Instruments Incorporated
pwm.asm                                                              PAGE   84

    4566                    ;----------------------------------------------------------------------
    4567 00000574 9303              STR       A4, [SP, #12]         ; [DPU_V7M3_PIPE] |1694|  ; [ORIG 16-BIT INS]
    4568 00000576 9202              STR       A3, [SP, #8]          ; [DPU_V7M3_PIPE] |1694|  ; [ORIG 16-BIT INS]
    4569 00000578 9101              STR       A2, [SP, #4]          ; [DPU_V7M3_PIPE] |1694|  ; [ORIG 16-BIT INS]
    4570 0000057a 9000              STR       A1, [SP, #0]          ; [DPU_V7M3_PIPE] |1694|  ; [ORIG 16-BIT INS]
    4571                            .dwpsn  file "../driverlib/pwm.c",line 1710,column 5,is_stmt,isa 1
    4572                    ;----------------------------------------------------------------------
    4573                    ; 1710 | HWREG(PWM_GEN_BADDR(ui32Base, ui32Gen) + PWM_O_X_MINFLTPER) =          
    4574                    ; 1711 |     ui32MinFaultPeriod;                                                
    4575                    ; 1713 | //                                                                     
    4576                    ; 1714 | // Write the fault senses.                                             
    4577                    ; 1715 | //                                                                     
    4578                    ;----------------------------------------------------------------------
    4579 0000057c 9A01              LDR       A3, [SP, #4]          ; [DPU_V7M3_PIPE] |1710|  ; [ORIG 16-BIT INS]
    4580 0000057e 9800              LDR       A1, [SP, #0]          ; [DPU_V7M3_PIPE] |1710|  ; [ORIG 16-BIT INS]
    4581 00000580 9902              LDR       A2, [SP, #8]          ; [DPU_V7M3_PIPE] |1710|  ; [ORIG 16-BIT INS]
    4582 00000582 1880              ADDS      A1, A1, A3            ; [DPU_V7M3_PIPE] |1710|  ; [ORIG 16-BIT INS]
    4583 00000584 63C1              STR       A2, [A1, #60]         ; [DPU_V7M3_PIPE] |1710|  ; [ORIG 16-BIT INS]
    4584                            .dwpsn  file "../driverlib/pwm.c",line 1716,column 5,is_stmt,isa 1
    4585                    ;----------------------------------------------------------------------
    4586                    ; 1716 | HWREG(PWM_GEN_EXT_BADDR(ui32Base, ui32Gen) + PWM_O_X_FLTSEN) =         
    4587                    ; 1717 |     ui32FaultSenses;                                                   
    4588                    ;----------------------------------------------------------------------
    4589 00000586 9801              LDR       A1, [SP, #4]          ; [DPU_V7M3_PIPE] |1716|  ; [ORIG 16-BIT INS]
    4590 00000588 9900              LDR       A2, [SP, #0]          ; [DPU_V7M3_PIPE] |1716|  ; [ORIG 16-BIT INS]
    4591 0000058a 9A03              LDR       A3, [SP, #12]         ; [DPU_V7M3_PIPE] |1716|  ; [ORIG 16-BIT INS]
    4592 0000058c 3840              SUBS      A1, A1, #64           ; [DPU_V7M3_PIPE] |1716|  ; [ORIG 16-BIT INS]
    4593 0000058e 0140EB01          ADD       A2, A2, A1, LSL #1    ; [DPU_V7M3_PIPE] |1716|  ; [KEEP 32-BIT INS]
    4594 00000592 2800F8C1          STR       A3, [A2, #2048]       ; [DPU_V7M3_PIPE] |1716|  ; [KEEP 32-BIT INS]
    4595                            .dwpsn  file "../driverlib/pwm.c",line 1718,column 1,is_stmt,isa 1
    4596 00000596 B004              ADD       SP, SP, #16           ; [DPU_V7M3_PIPE]  ; [ORIG 16-BIT INS]
    4597                            .dwcfi  cfa_offset, 0
    4598                    $C$DW$242       .dwtag  DW_TAG_TI_branch
    4599                            .dwattr $C$DW$242, DW_AT_low_pc(0x00)
    4600                            .dwattr $C$DW$242, DW_AT_TI_return
    4601                    
    4602 00000598 4770              BX        LR                    ; [DPU_V7M3_PIPE]  ; [ORIG 16-BIT INS]
    4603                            ; BRANCH OCCURS                  ; [] 
    4604                            .dwattr $C$DW$233, DW_AT_TI_end_file("../driverlib/pwm.c")
    4605                            .dwattr $C$DW$233, DW_AT_TI_end_line(0x6b6)
    4606                            .dwattr $C$DW$233, DW_AT_TI_end_column(0x01)
    4607                            .dwendentry
    4608                            .dwendtag $C$DW$233
    4609                    
    4610                    ;******************************************************************************
    4611                    ;* CONSTANT TABLE                                                             *
    4612                    ;******************************************************************************
    4613 0000059a                   .sect   ".text"
    4614                            .align  4
    4615 0000059a 000046C0  ||$C$CON4||:    .bits   269090816,32
         0000059e 0000100A 
    4616 000005a0                   .sect   ".text"
    4617                            .clink
    4618                            .thumbfunc PWMGenFaultTriggerSet
    4619 000005a0                   .thumb
TI ARM Assembler Unix v18.1.1 Fri Jul  3 20:08:25 2020

Tools Copyright (c) 1996-2017 Texas Instruments Incorporated
pwm.asm                                                              PAGE   85

    4620                            .global PWMGenFaultTriggerSet
    4621                    
    4622                    $C$DW$243       .dwtag  DW_TAG_subprogram
    4623                            .dwattr $C$DW$243, DW_AT_name("PWMGenFaultTriggerSet")
    4624                            .dwattr $C$DW$243, DW_AT_low_pc(PWMGenFaultTriggerSet)
    4625                            .dwattr $C$DW$243, DW_AT_high_pc(0x00)
    4626                            .dwattr $C$DW$243, DW_AT_TI_symbol_name("PWMGenFaultTriggerSet")
    4627                            .dwattr $C$DW$243, DW_AT_external
    4628                            .dwattr $C$DW$243, DW_AT_TI_begin_file("../driverlib/pwm.c")
    4629                            .dwattr $C$DW$243, DW_AT_TI_begin_line(0x6df)
    4630                            .dwattr $C$DW$243, DW_AT_TI_begin_column(0x01)
    4631                            .dwattr $C$DW$243, DW_AT_decl_file("../driverlib/pwm.c")
    4632                            .dwattr $C$DW$243, DW_AT_decl_line(0x6df)
    4633                            .dwattr $C$DW$243, DW_AT_decl_column(0x01)
    4634                            .dwattr $C$DW$243, DW_AT_TI_max_frame_size(0x10)
    4635                            .dwpsn  file "../driverlib/pwm.c",line 1761,column 1,is_stmt,address PWMGenFaultTriggerSet,isa
    4636                    
    4637                            .dwfde $C$DW$CIE, PWMGenFaultTriggerSet
    4638                    $C$DW$244       .dwtag  DW_TAG_formal_parameter
    4639                            .dwattr $C$DW$244, DW_AT_name("ui32Base")
    4640                            .dwattr $C$DW$244, DW_AT_TI_symbol_name("ui32Base")
    4641                            .dwattr $C$DW$244, DW_AT_type(*$C$DW$T$27)
    4642                            .dwattr $C$DW$244, DW_AT_location[DW_OP_reg0]
    4643                    
    4644                    $C$DW$245       .dwtag  DW_TAG_formal_parameter
    4645                            .dwattr $C$DW$245, DW_AT_name("ui32Gen")
    4646                            .dwattr $C$DW$245, DW_AT_TI_symbol_name("ui32Gen")
    4647                            .dwattr $C$DW$245, DW_AT_type(*$C$DW$T$27)
    4648                            .dwattr $C$DW$245, DW_AT_location[DW_OP_reg1]
    4649                    
    4650                    $C$DW$246       .dwtag  DW_TAG_formal_parameter
    4651                            .dwattr $C$DW$246, DW_AT_name("ui32Group")
    4652                            .dwattr $C$DW$246, DW_AT_TI_symbol_name("ui32Group")
    4653                            .dwattr $C$DW$246, DW_AT_type(*$C$DW$T$27)
    4654                            .dwattr $C$DW$246, DW_AT_location[DW_OP_reg2]
    4655                    
    4656                    $C$DW$247       .dwtag  DW_TAG_formal_parameter
    4657                            .dwattr $C$DW$247, DW_AT_name("ui32FaultTriggers")
    4658                            .dwattr $C$DW$247, DW_AT_TI_symbol_name("ui32FaultTriggers")
    4659                            .dwattr $C$DW$247, DW_AT_type(*$C$DW$T$27)
    4660                            .dwattr $C$DW$247, DW_AT_location[DW_OP_reg3]
    4661                    
    4662                    ;----------------------------------------------------------------------
    4663                    ; 1759 | PWMGenFaultTriggerSet(uint32_t ui32Base, uint32_t ui32Gen,             
    4664                    ; 1760 | uint32_t ui32Group, uint32_t ui32FaultTriggers)                        
    4665                    ;----------------------------------------------------------------------
    4666                    
    4667                    ;*****************************************************************************
    4668                    ;* FUNCTION NAME: PWMGenFaultTriggerSet                                      *
    4669                    ;*                                                                           *
    4670                    ;*   Regs Modified     : A1,A2,A3,SP,SR                                      *
    4671                    ;*   Regs Used         : A1,A2,A3,A4,SP,LR,SR                                *
    4672                    ;*   Local Frame Size  : 0 Args + 16 Auto + 0 Save = 16 byte                 *
    4673                    ;*****************************************************************************
    4674 000005a0           PWMGenFaultTriggerSet:
TI ARM Assembler Unix v18.1.1 Fri Jul  3 20:08:25 2020

Tools Copyright (c) 1996-2017 Texas Instruments Incorporated
pwm.asm                                                              PAGE   86

    4675                    ;* --------------------------------------------------------------------------*
    4676                            .dwcfi  cfa_offset, 0
    4677 000005a0 0D10F1AD          SUB       SP, SP, #16           ; [DPU_V7M3_PIPE]  ; [KEEP 32-BIT INS]
    4678                            .dwcfi  cfa_offset, 16
    4679                    $C$DW$248       .dwtag  DW_TAG_variable
    4680                            .dwattr $C$DW$248, DW_AT_name("ui32Base")
    4681                            .dwattr $C$DW$248, DW_AT_TI_symbol_name("ui32Base")
    4682                            .dwattr $C$DW$248, DW_AT_type(*$C$DW$T$27)
    4683                            .dwattr $C$DW$248, DW_AT_location[DW_OP_breg13 0]
    4684                    
    4685                    $C$DW$249       .dwtag  DW_TAG_variable
    4686                            .dwattr $C$DW$249, DW_AT_name("ui32Gen")
    4687                            .dwattr $C$DW$249, DW_AT_TI_symbol_name("ui32Gen")
    4688                            .dwattr $C$DW$249, DW_AT_type(*$C$DW$T$27)
    4689                            .dwattr $C$DW$249, DW_AT_location[DW_OP_breg13 4]
    4690                    
    4691                    $C$DW$250       .dwtag  DW_TAG_variable
    4692                            .dwattr $C$DW$250, DW_AT_name("ui32Group")
    4693                            .dwattr $C$DW$250, DW_AT_TI_symbol_name("ui32Group")
    4694                            .dwattr $C$DW$250, DW_AT_type(*$C$DW$T$27)
    4695                            .dwattr $C$DW$250, DW_AT_location[DW_OP_breg13 8]
    4696                    
    4697                    $C$DW$251       .dwtag  DW_TAG_variable
    4698                            .dwattr $C$DW$251, DW_AT_name("ui32FaultTriggers")
    4699                            .dwattr $C$DW$251, DW_AT_TI_symbol_name("ui32FaultTriggers")
    4700                            .dwattr $C$DW$251, DW_AT_type(*$C$DW$T$27)
    4701                            .dwattr $C$DW$251, DW_AT_location[DW_OP_breg13 12]
    4702                    
    4703                    ;----------------------------------------------------------------------
    4704                    ; 1762 | //                                                                     
    4705                    ; 1763 | // Check for valid parameters.                                         
    4706                    ; 1764 | //                                                                     
    4707                    ; 1765 | ASSERT((ui32Base == PWM0_BASE) || (ui32Base == PWM1_BASE));            
    4708                    ; 1766 | ASSERT(_PWMGenValid(ui32Gen));                                         
    4709                    ; 1767 | ASSERT((ui32Group == PWM_FAULT_GROUP_0) ||                             
    4710                    ; 1768 |        (ui32Group == PWM_FAULT_GROUP_1));                              
    4711                    ; 1769 | ASSERT((ui32Group == PWM_FAULT_GROUP_0) &&                             
    4712                    ; 1770 |        ((ui32FaultTriggers & ~(PWM_FAULT_FAULT0 | PWM_FAULT_FAULT1 |   
    4713                    ; 1771 |                                PWM_FAULT_FAULT2 | PWM_FAULT_FAULT3)) ==
    4714                    ; 1772 |         0));                                                           
    4715                    ; 1773 | ASSERT((ui32Group == PWM_FAULT_GROUP_1) &&                             
    4716                    ; 1774 |        ((ui32FaultTriggers & ~(PWM_FAULT_DCMP0 | PWM_FAULT_DCMP1 |     
    4717                    ; 1775 |                                PWM_FAULT_DCMP2 | PWM_FAULT_DCMP3 |     
    4718                    ; 1776 |                                PWM_FAULT_DCMP4 | PWM_FAULT_DCMP5 |     
    4719                    ; 1777 |                                PWM_FAULT_DCMP6 | PWM_FAULT_DCMP7)) == 0
    4720                    ;     | ));                                                                    
    4721                    ; 1779 | //                                                                     
    4722                    ; 1780 | // Write the fault triggers to the appropriate register.               
    4723                    ; 1781 | //                                                                     
    4724                    ;----------------------------------------------------------------------
    4725 000005a4 9303              STR       A4, [SP, #12]         ; [DPU_V7M3_PIPE] |1761|  ; [ORIG 16-BIT INS]
    4726 000005a6 9202              STR       A3, [SP, #8]          ; [DPU_V7M3_PIPE] |1761|  ; [ORIG 16-BIT INS]
    4727 000005a8 9101              STR       A2, [SP, #4]          ; [DPU_V7M3_PIPE] |1761|  ; [ORIG 16-BIT INS]
    4728 000005aa 9000              STR       A1, [SP, #0]          ; [DPU_V7M3_PIPE] |1761|  ; [ORIG 16-BIT INS]
    4729                            .dwpsn  file "../driverlib/pwm.c",line 1782,column 5,is_stmt,isa 1
TI ARM Assembler Unix v18.1.1 Fri Jul  3 20:08:25 2020

Tools Copyright (c) 1996-2017 Texas Instruments Incorporated
pwm.asm                                                              PAGE   87

    4730                    ;----------------------------------------------------------------------
    4731                    ; 1782 | if(ui32Group == PWM_FAULT_GROUP_0)                                     
    4732                    ;----------------------------------------------------------------------
    4733 000005ac 9802              LDR       A1, [SP, #8]          ; [DPU_V7M3_PIPE] |1782|  ; [ORIG 16-BIT INS]
    4734 000005ae B928              CBNZ      A1, ||$C$L50||        ; []  ; [ORIG 16-BIT INS]
    4735                            ; BRANCHCC OCCURS {||$C$L50||}   ; [] |1782| 
    4736                    ;* --------------------------------------------------------------------------*
    4737                            .dwpsn  file "../driverlib/pwm.c",line 1784,column 9,is_stmt,isa 1
    4738                    ;----------------------------------------------------------------------
    4739                    ; 1784 | HWREG(PWM_GEN_BADDR(ui32Base, ui32Gen) + PWM_O_X_FLTSRC0) =            
    4740                    ; 1785 |     ui32FaultTriggers;                                                 
    4741                    ;----------------------------------------------------------------------
    4742 000005b0 9A01              LDR       A3, [SP, #4]          ; [DPU_V7M3_PIPE] |1784|  ; [ORIG 16-BIT INS]
    4743 000005b2 9800              LDR       A1, [SP, #0]          ; [DPU_V7M3_PIPE] |1784|  ; [ORIG 16-BIT INS]
    4744 000005b4 9903              LDR       A2, [SP, #12]         ; [DPU_V7M3_PIPE] |1784|  ; [ORIG 16-BIT INS]
    4745 000005b6 1880              ADDS      A1, A1, A3            ; [DPU_V7M3_PIPE] |1784|  ; [ORIG 16-BIT INS]
    4746 000005b8 6341              STR       A2, [A1, #52]         ; [DPU_V7M3_PIPE] |1784|  ; [ORIG 16-BIT INS]
    4747                            .dwpsn  file "../driverlib/pwm.c",line 1786,column 5,is_stmt,isa 1
    4748                    ;----------------------------------------------------------------------
    4749                    ; 1787 | else                                                                   
    4750                    ;----------------------------------------------------------------------
    4751 000005ba E004              B         ||$C$L51||            ; [DPU_V7M3_PIPE] |1786|  ; [ORIG 16-BIT INS]
    4752                            ; BRANCH OCCURS {||$C$L51||}     ; [] |1786| 
    4753                    ;* --------------------------------------------------------------------------*
    4754 000005bc           ||$C$L50||:    
    4755                            .dwpsn  file "../driverlib/pwm.c",line 1789,column 9,is_stmt,isa 1
    4756                    ;----------------------------------------------------------------------
    4757                    ; 1789 | HWREG(PWM_GEN_BADDR(ui32Base, ui32Gen) + PWM_O_X_FLTSRC1) =            
    4758                    ; 1790 |     ui32FaultTriggers;                                                 
    4759                    ;----------------------------------------------------------------------
    4760 000005bc 9A01              LDR       A3, [SP, #4]          ; [DPU_V7M3_PIPE] |1789|  ; [ORIG 16-BIT INS]
    4761 000005be 9800              LDR       A1, [SP, #0]          ; [DPU_V7M3_PIPE] |1789|  ; [ORIG 16-BIT INS]
    4762 000005c0 9903              LDR       A2, [SP, #12]         ; [DPU_V7M3_PIPE] |1789|  ; [ORIG 16-BIT INS]
    4763 000005c2 1880              ADDS      A1, A1, A3            ; [DPU_V7M3_PIPE] |1789|  ; [ORIG 16-BIT INS]
    4764 000005c4 6381              STR       A2, [A1, #56]         ; [DPU_V7M3_PIPE] |1789|  ; [ORIG 16-BIT INS]
    4765                            .dwpsn  file "../driverlib/pwm.c",line 1792,column 1,is_stmt,isa 1
    4766                    ;* --------------------------------------------------------------------------*
    4767 000005c6           ||$C$L51||:    
    4768 000005c6 B004              ADD       SP, SP, #16           ; [DPU_V7M3_PIPE]  ; [ORIG 16-BIT INS]
    4769                            .dwcfi  cfa_offset, 0
    4770                    $C$DW$252       .dwtag  DW_TAG_TI_branch
    4771                            .dwattr $C$DW$252, DW_AT_low_pc(0x00)
    4772                            .dwattr $C$DW$252, DW_AT_TI_return
    4773                    
    4774 000005c8 4770              BX        LR                    ; [DPU_V7M3_PIPE]  ; [ORIG 16-BIT INS]
    4775                            ; BRANCH OCCURS                  ; [] 
    4776                            .dwattr $C$DW$243, DW_AT_TI_end_file("../driverlib/pwm.c")
    4777                            .dwattr $C$DW$243, DW_AT_TI_end_line(0x700)
    4778                            .dwattr $C$DW$243, DW_AT_TI_end_column(0x01)
    4779                            .dwendentry
    4780                            .dwendtag $C$DW$243
    4781                    
    4782 000005ca                   .sect   ".text"
    4783                            .clink
    4784                            .thumbfunc PWMGenFaultTriggerGet
TI ARM Assembler Unix v18.1.1 Fri Jul  3 20:08:25 2020

Tools Copyright (c) 1996-2017 Texas Instruments Incorporated
pwm.asm                                                              PAGE   88

    4785 000005ca                   .thumb
    4786                            .global PWMGenFaultTriggerGet
    4787                    
    4788                    $C$DW$253       .dwtag  DW_TAG_subprogram
    4789                            .dwattr $C$DW$253, DW_AT_name("PWMGenFaultTriggerGet")
    4790                            .dwattr $C$DW$253, DW_AT_low_pc(PWMGenFaultTriggerGet)
    4791                            .dwattr $C$DW$253, DW_AT_high_pc(0x00)
    4792                            .dwattr $C$DW$253, DW_AT_TI_symbol_name("PWMGenFaultTriggerGet")
    4793                            .dwattr $C$DW$253, DW_AT_external
    4794                            .dwattr $C$DW$253, DW_AT_type(*$C$DW$T$27)
    4795                            .dwattr $C$DW$253, DW_AT_TI_begin_file("../driverlib/pwm.c")
    4796                            .dwattr $C$DW$253, DW_AT_TI_begin_line(0x71e)
    4797                            .dwattr $C$DW$253, DW_AT_TI_begin_column(0x01)
    4798                            .dwattr $C$DW$253, DW_AT_decl_file("../driverlib/pwm.c")
    4799                            .dwattr $C$DW$253, DW_AT_decl_line(0x71e)
    4800                            .dwattr $C$DW$253, DW_AT_decl_column(0x01)
    4801                            .dwattr $C$DW$253, DW_AT_TI_max_frame_size(0x10)
    4802                            .dwpsn  file "../driverlib/pwm.c",line 1824,column 1,is_stmt,address PWMGenFaultTriggerGet,isa
    4803                    
    4804                            .dwfde $C$DW$CIE, PWMGenFaultTriggerGet
    4805                    $C$DW$254       .dwtag  DW_TAG_formal_parameter
    4806                            .dwattr $C$DW$254, DW_AT_name("ui32Base")
    4807                            .dwattr $C$DW$254, DW_AT_TI_symbol_name("ui32Base")
    4808                            .dwattr $C$DW$254, DW_AT_type(*$C$DW$T$27)
    4809                            .dwattr $C$DW$254, DW_AT_location[DW_OP_reg0]
    4810                    
    4811                    $C$DW$255       .dwtag  DW_TAG_formal_parameter
    4812                            .dwattr $C$DW$255, DW_AT_name("ui32Gen")
    4813                            .dwattr $C$DW$255, DW_AT_TI_symbol_name("ui32Gen")
    4814                            .dwattr $C$DW$255, DW_AT_type(*$C$DW$T$27)
    4815                            .dwattr $C$DW$255, DW_AT_location[DW_OP_reg1]
    4816                    
    4817                    $C$DW$256       .dwtag  DW_TAG_formal_parameter
    4818                            .dwattr $C$DW$256, DW_AT_name("ui32Group")
    4819                            .dwattr $C$DW$256, DW_AT_TI_symbol_name("ui32Group")
    4820                            .dwattr $C$DW$256, DW_AT_type(*$C$DW$T$27)
    4821                            .dwattr $C$DW$256, DW_AT_location[DW_OP_reg2]
    4822                    
    4823                    ;----------------------------------------------------------------------
    4824                    ; 1822 | PWMGenFaultTriggerGet(uint32_t ui32Base, uint32_t ui32Gen,             
    4825                    ; 1823 | uint32_t ui32Group)                                                    
    4826                    ;----------------------------------------------------------------------
    4827                    
    4828                    ;*****************************************************************************
    4829                    ;* FUNCTION NAME: PWMGenFaultTriggerGet                                      *
    4830                    ;*                                                                           *
    4831                    ;*   Regs Modified     : A1,A2,SP,SR                                         *
    4832                    ;*   Regs Used         : A1,A2,A3,SP,LR,SR                                   *
    4833                    ;*   Local Frame Size  : 0 Args + 12 Auto + 0 Save = 12 byte                 *
    4834                    ;*****************************************************************************
    4835 000005ca           PWMGenFaultTriggerGet:
    4836                    ;* --------------------------------------------------------------------------*
    4837                            .dwcfi  cfa_offset, 0
    4838 000005ca 0D10F1AD          SUB       SP, SP, #16           ; [DPU_V7M3_PIPE]  ; [KEEP 32-BIT INS]
    4839                            .dwcfi  cfa_offset, 16
TI ARM Assembler Unix v18.1.1 Fri Jul  3 20:08:25 2020

Tools Copyright (c) 1996-2017 Texas Instruments Incorporated
pwm.asm                                                              PAGE   89

    4840                    $C$DW$257       .dwtag  DW_TAG_variable
    4841                            .dwattr $C$DW$257, DW_AT_name("ui32Base")
    4842                            .dwattr $C$DW$257, DW_AT_TI_symbol_name("ui32Base")
    4843                            .dwattr $C$DW$257, DW_AT_type(*$C$DW$T$27)
    4844                            .dwattr $C$DW$257, DW_AT_location[DW_OP_breg13 0]
    4845                    
    4846                    $C$DW$258       .dwtag  DW_TAG_variable
    4847                            .dwattr $C$DW$258, DW_AT_name("ui32Gen")
    4848                            .dwattr $C$DW$258, DW_AT_TI_symbol_name("ui32Gen")
    4849                            .dwattr $C$DW$258, DW_AT_type(*$C$DW$T$27)
    4850                            .dwattr $C$DW$258, DW_AT_location[DW_OP_breg13 4]
    4851                    
    4852                    $C$DW$259       .dwtag  DW_TAG_variable
    4853                            .dwattr $C$DW$259, DW_AT_name("ui32Group")
    4854                            .dwattr $C$DW$259, DW_AT_TI_symbol_name("ui32Group")
    4855                            .dwattr $C$DW$259, DW_AT_type(*$C$DW$T$27)
    4856                            .dwattr $C$DW$259, DW_AT_location[DW_OP_breg13 8]
    4857                    
    4858                    ;----------------------------------------------------------------------
    4859                    ; 1825 | //                                                                     
    4860                    ; 1826 | // Check for valid parameters.                                         
    4861                    ; 1827 | //                                                                     
    4862                    ; 1828 | ASSERT((ui32Base == PWM0_BASE) || (ui32Base == PWM1_BASE));            
    4863                    ; 1829 | ASSERT(_PWMGenValid(ui32Gen));                                         
    4864                    ; 1830 | ASSERT((ui32Group == PWM_FAULT_GROUP_0) ||                             
    4865                    ; 1831 |        (ui32Group == PWM_FAULT_GROUP_1));                              
    4866                    ; 1833 | //                                                                     
    4867                    ; 1834 | // Return the current fault triggers.                                  
    4868                    ; 1835 | //                                                                     
    4869                    ;----------------------------------------------------------------------
    4870 000005ce 9202              STR       A3, [SP, #8]          ; [DPU_V7M3_PIPE] |1824|  ; [ORIG 16-BIT INS]
    4871 000005d0 9101              STR       A2, [SP, #4]          ; [DPU_V7M3_PIPE] |1824|  ; [ORIG 16-BIT INS]
    4872 000005d2 9000              STR       A1, [SP, #0]          ; [DPU_V7M3_PIPE] |1824|  ; [ORIG 16-BIT INS]
    4873                            .dwpsn  file "../driverlib/pwm.c",line 1836,column 5,is_stmt,isa 1
    4874                    ;----------------------------------------------------------------------
    4875                    ; 1836 | if(ui32Group == PWM_FAULT_GROUP_0)                                     
    4876                    ;----------------------------------------------------------------------
    4877 000005d4 9802              LDR       A1, [SP, #8]          ; [DPU_V7M3_PIPE] |1836|  ; [ORIG 16-BIT INS]
    4878 000005d6 B920              CBNZ      A1, ||$C$L52||        ; []  ; [ORIG 16-BIT INS]
    4879                            ; BRANCHCC OCCURS {||$C$L52||}   ; [] |1836| 
    4880                    ;* --------------------------------------------------------------------------*
    4881                            .dwpsn  file "../driverlib/pwm.c",line 1838,column 9,is_stmt,isa 1
    4882                    ;----------------------------------------------------------------------
    4883                    ; 1838 | return(HWREG(PWM_GEN_BADDR(ui32Base, ui32Gen) + PWM_O_X_FLTSRC0));     
    4884                    ; 1840 | else                                                                   
    4885                    ;----------------------------------------------------------------------
    4886 000005d8 9901              LDR       A2, [SP, #4]          ; [DPU_V7M3_PIPE] |1838|  ; [ORIG 16-BIT INS]
    4887 000005da 9800              LDR       A1, [SP, #0]          ; [DPU_V7M3_PIPE] |1838|  ; [ORIG 16-BIT INS]
    4888 000005dc 1840              ADDS      A1, A1, A2            ; [DPU_V7M3_PIPE] |1838|  ; [ORIG 16-BIT INS]
    4889 000005de 6B40              LDR       A1, [A1, #52]         ; [DPU_V7M3_PIPE] |1838|  ; [ORIG 16-BIT INS]
    4890 000005e0 E003              B         ||$C$L53||            ; [DPU_V7M3_PIPE] |1838|  ; [ORIG 16-BIT INS]
    4891                            ; BRANCH OCCURS {||$C$L53||}     ; [] |1838| 
    4892                    ;* --------------------------------------------------------------------------*
    4893                    ;* --------------------------------------------------------------------------*
    4894 000005e2           ||$C$L52||:    
TI ARM Assembler Unix v18.1.1 Fri Jul  3 20:08:25 2020

Tools Copyright (c) 1996-2017 Texas Instruments Incorporated
pwm.asm                                                              PAGE   90

    4895                            .dwpsn  file "../driverlib/pwm.c",line 1842,column 9,is_stmt,isa 1
    4896                    ;----------------------------------------------------------------------
    4897                    ; 1842 | return(HWREG(PWM_GEN_BADDR(ui32Base, ui32Gen) + PWM_O_X_FLTSRC1));     
    4898                    ;----------------------------------------------------------------------
    4899 000005e2 9901              LDR       A2, [SP, #4]          ; [DPU_V7M3_PIPE] |1842|  ; [ORIG 16-BIT INS]
    4900 000005e4 9800              LDR       A1, [SP, #0]          ; [DPU_V7M3_PIPE] |1842|  ; [ORIG 16-BIT INS]
    4901 000005e6 1840              ADDS      A1, A1, A2            ; [DPU_V7M3_PIPE] |1842|  ; [ORIG 16-BIT INS]
    4902 000005e8 6B80              LDR       A1, [A1, #56]         ; [DPU_V7M3_PIPE] |1842|  ; [ORIG 16-BIT INS]
    4903                    ;* --------------------------------------------------------------------------*
    4904 000005ea           ||$C$L53||:    
    4905                            .dwpsn  file "../driverlib/pwm.c",line 1844,column 1,is_stmt,isa 1
    4906 000005ea B004              ADD       SP, SP, #16           ; [DPU_V7M3_PIPE]  ; [ORIG 16-BIT INS]
    4907                            .dwcfi  cfa_offset, 0
    4908                    $C$DW$260       .dwtag  DW_TAG_TI_branch
    4909                            .dwattr $C$DW$260, DW_AT_low_pc(0x00)
    4910                            .dwattr $C$DW$260, DW_AT_TI_return
    4911                    
    4912 000005ec 4770              BX        LR                    ; [DPU_V7M3_PIPE]  ; [ORIG 16-BIT INS]
    4913                            ; BRANCH OCCURS                  ; [] 
    4914                            .dwattr $C$DW$253, DW_AT_TI_end_file("../driverlib/pwm.c")
    4915                            .dwattr $C$DW$253, DW_AT_TI_end_line(0x734)
    4916                            .dwattr $C$DW$253, DW_AT_TI_end_column(0x01)
    4917                            .dwendentry
    4918                            .dwendtag $C$DW$253
    4919                    
    4920 000005ee                   .sect   ".text"
    4921                            .clink
    4922                            .thumbfunc PWMGenFaultStatus
    4923 000005ee                   .thumb
    4924                            .global PWMGenFaultStatus
    4925                    
    4926                    $C$DW$261       .dwtag  DW_TAG_subprogram
    4927                            .dwattr $C$DW$261, DW_AT_name("PWMGenFaultStatus")
    4928                            .dwattr $C$DW$261, DW_AT_low_pc(PWMGenFaultStatus)
    4929                            .dwattr $C$DW$261, DW_AT_high_pc(0x00)
    4930                            .dwattr $C$DW$261, DW_AT_TI_symbol_name("PWMGenFaultStatus")
    4931                            .dwattr $C$DW$261, DW_AT_external
    4932                            .dwattr $C$DW$261, DW_AT_type(*$C$DW$T$27)
    4933                            .dwattr $C$DW$261, DW_AT_TI_begin_file("../driverlib/pwm.c")
    4934                            .dwattr $C$DW$261, DW_AT_TI_begin_line(0x759)
    4935                            .dwattr $C$DW$261, DW_AT_TI_begin_column(0x01)
    4936                            .dwattr $C$DW$261, DW_AT_decl_file("../driverlib/pwm.c")
    4937                            .dwattr $C$DW$261, DW_AT_decl_line(0x759)
    4938                            .dwattr $C$DW$261, DW_AT_decl_column(0x01)
    4939                            .dwattr $C$DW$261, DW_AT_TI_max_frame_size(0x10)
    4940                            .dwpsn  file "../driverlib/pwm.c",line 1883,column 1,is_stmt,address PWMGenFaultStatus,isa 1
    4941                    
    4942                            .dwfde $C$DW$CIE, PWMGenFaultStatus
    4943                    $C$DW$262       .dwtag  DW_TAG_formal_parameter
    4944                            .dwattr $C$DW$262, DW_AT_name("ui32Base")
    4945                            .dwattr $C$DW$262, DW_AT_TI_symbol_name("ui32Base")
    4946                            .dwattr $C$DW$262, DW_AT_type(*$C$DW$T$27)
    4947                            .dwattr $C$DW$262, DW_AT_location[DW_OP_reg0]
    4948                    
    4949                    $C$DW$263       .dwtag  DW_TAG_formal_parameter
TI ARM Assembler Unix v18.1.1 Fri Jul  3 20:08:25 2020

Tools Copyright (c) 1996-2017 Texas Instruments Incorporated
pwm.asm                                                              PAGE   91

    4950                            .dwattr $C$DW$263, DW_AT_name("ui32Gen")
    4951                            .dwattr $C$DW$263, DW_AT_TI_symbol_name("ui32Gen")
    4952                            .dwattr $C$DW$263, DW_AT_type(*$C$DW$T$27)
    4953                            .dwattr $C$DW$263, DW_AT_location[DW_OP_reg1]
    4954                    
    4955                    $C$DW$264       .dwtag  DW_TAG_formal_parameter
    4956                            .dwattr $C$DW$264, DW_AT_name("ui32Group")
    4957                            .dwattr $C$DW$264, DW_AT_TI_symbol_name("ui32Group")
    4958                            .dwattr $C$DW$264, DW_AT_type(*$C$DW$T$27)
    4959                            .dwattr $C$DW$264, DW_AT_location[DW_OP_reg2]
    4960                    
    4961                    ;----------------------------------------------------------------------
    4962                    ; 1881 | PWMGenFaultStatus(uint32_t ui32Base, uint32_t ui32Gen,                 
    4963                    ; 1882 | uint32_t ui32Group)                                                    
    4964                    ;----------------------------------------------------------------------
    4965                    
    4966                    ;*****************************************************************************
    4967                    ;* FUNCTION NAME: PWMGenFaultStatus                                          *
    4968                    ;*                                                                           *
    4969                    ;*   Regs Modified     : A1,A2,SP,SR                                         *
    4970                    ;*   Regs Used         : A1,A2,A3,SP,LR,SR                                   *
    4971                    ;*   Local Frame Size  : 0 Args + 12 Auto + 0 Save = 12 byte                 *
    4972                    ;*****************************************************************************
    4973 000005ee           PWMGenFaultStatus:
    4974                    ;* --------------------------------------------------------------------------*
    4975                            .dwcfi  cfa_offset, 0
    4976 000005ee 0D10F1AD          SUB       SP, SP, #16           ; [DPU_V7M3_PIPE]  ; [KEEP 32-BIT INS]
    4977                            .dwcfi  cfa_offset, 16
    4978                    $C$DW$265       .dwtag  DW_TAG_variable
    4979                            .dwattr $C$DW$265, DW_AT_name("ui32Base")
    4980                            .dwattr $C$DW$265, DW_AT_TI_symbol_name("ui32Base")
    4981                            .dwattr $C$DW$265, DW_AT_type(*$C$DW$T$27)
    4982                            .dwattr $C$DW$265, DW_AT_location[DW_OP_breg13 0]
    4983                    
    4984                    $C$DW$266       .dwtag  DW_TAG_variable
    4985                            .dwattr $C$DW$266, DW_AT_name("ui32Gen")
    4986                            .dwattr $C$DW$266, DW_AT_TI_symbol_name("ui32Gen")
    4987                            .dwattr $C$DW$266, DW_AT_type(*$C$DW$T$27)
    4988                            .dwattr $C$DW$266, DW_AT_location[DW_OP_breg13 4]
    4989                    
    4990                    $C$DW$267       .dwtag  DW_TAG_variable
    4991                            .dwattr $C$DW$267, DW_AT_name("ui32Group")
    4992                            .dwattr $C$DW$267, DW_AT_TI_symbol_name("ui32Group")
    4993                            .dwattr $C$DW$267, DW_AT_type(*$C$DW$T$27)
    4994                            .dwattr $C$DW$267, DW_AT_location[DW_OP_breg13 8]
    4995                    
    4996                    ;----------------------------------------------------------------------
    4997                    ; 1884 | //                                                                     
    4998                    ; 1885 | // Check for valid parameters.                                         
    4999                    ; 1886 | //                                                                     
    5000                    ; 1887 | ASSERT((ui32Base == PWM0_BASE) || (ui32Base == PWM1_BASE));            
    5001                    ; 1888 | ASSERT(_PWMGenValid(ui32Gen));                                         
    5002                    ; 1889 | ASSERT((ui32Group == PWM_FAULT_GROUP_0) ||                             
    5003                    ; 1890 |        (ui32Group == PWM_FAULT_GROUP_1));                              
    5004                    ; 1892 | //                                                                     
TI ARM Assembler Unix v18.1.1 Fri Jul  3 20:08:25 2020

Tools Copyright (c) 1996-2017 Texas Instruments Incorporated
pwm.asm                                                              PAGE   92

    5005                    ; 1893 | // Return the current fault status.                                    
    5006                    ; 1894 | //                                                                     
    5007                    ;----------------------------------------------------------------------
    5008 000005f2 9202              STR       A3, [SP, #8]          ; [DPU_V7M3_PIPE] |1883|  ; [ORIG 16-BIT INS]
    5009 000005f4 9101              STR       A2, [SP, #4]          ; [DPU_V7M3_PIPE] |1883|  ; [ORIG 16-BIT INS]
    5010 000005f6 9000              STR       A1, [SP, #0]          ; [DPU_V7M3_PIPE] |1883|  ; [ORIG 16-BIT INS]
    5011                            .dwpsn  file "../driverlib/pwm.c",line 1895,column 5,is_stmt,isa 1
    5012                    ;----------------------------------------------------------------------
    5013                    ; 1895 | if(ui32Group == PWM_FAULT_GROUP_0)                                     
    5014                    ;----------------------------------------------------------------------
    5015 000005f8 9802              LDR       A1, [SP, #8]          ; [DPU_V7M3_PIPE] |1895|  ; [ORIG 16-BIT INS]
    5016 000005fa B938              CBNZ      A1, ||$C$L54||        ; []  ; [ORIG 16-BIT INS]
    5017                            ; BRANCHCC OCCURS {||$C$L54||}   ; [] |1895| 
    5018                    ;* --------------------------------------------------------------------------*
    5019                            .dwpsn  file "../driverlib/pwm.c",line 1897,column 9,is_stmt,isa 1
    5020                    ;----------------------------------------------------------------------
    5021                    ; 1897 | return(HWREG(PWM_GEN_EXT_BADDR(ui32Base, ui32Gen) + PWM_O_X_FLTSTAT0));
    5022                    ; 1899 | else                                                                   
    5023                    ;----------------------------------------------------------------------
    5024 000005fc 9801              LDR       A1, [SP, #4]          ; [DPU_V7M3_PIPE] |1897|  ; [ORIG 16-BIT INS]
    5025 000005fe 9900              LDR       A2, [SP, #0]          ; [DPU_V7M3_PIPE] |1897|  ; [ORIG 16-BIT INS]
    5026 00000600 3840              SUBS      A1, A1, #64           ; [DPU_V7M3_PIPE] |1897|  ; [ORIG 16-BIT INS]
    5027 00000602 0140EB01          ADD       A2, A2, A1, LSL #1    ; [DPU_V7M3_PIPE] |1897|  ; [KEEP 32-BIT INS]
    5028 00000606 0804F8D1          LDR       A1, [A2, #2052]       ; [DPU_V7M3_PIPE] |1897|  ; [KEEP 32-BIT INS]
    5029 0000060a E006              B         ||$C$L55||            ; [DPU_V7M3_PIPE] |1897|  ; [ORIG 16-BIT INS]
    5030                            ; BRANCH OCCURS {||$C$L55||}     ; [] |1897| 
    5031                    ;* --------------------------------------------------------------------------*
    5032                    ;* --------------------------------------------------------------------------*
    5033 0000060c           ||$C$L54||:    
    5034                            .dwpsn  file "../driverlib/pwm.c",line 1901,column 9,is_stmt,isa 1
    5035                    ;----------------------------------------------------------------------
    5036                    ; 1901 | return(HWREG(PWM_GEN_EXT_BADDR(ui32Base, ui32Gen) + PWM_O_X_FLTSTAT1));
    5037                    ;----------------------------------------------------------------------
    5038 0000060c 9801              LDR       A1, [SP, #4]          ; [DPU_V7M3_PIPE] |1901|  ; [ORIG 16-BIT INS]
    5039 0000060e 9900              LDR       A2, [SP, #0]          ; [DPU_V7M3_PIPE] |1901|  ; [ORIG 16-BIT INS]
    5040 00000610 3840              SUBS      A1, A1, #64           ; [DPU_V7M3_PIPE] |1901|  ; [ORIG 16-BIT INS]
    5041 00000612 0140EB01          ADD       A2, A2, A1, LSL #1    ; [DPU_V7M3_PIPE] |1901|  ; [KEEP 32-BIT INS]
    5042 00000616 0808F8D1          LDR       A1, [A2, #2056]       ; [DPU_V7M3_PIPE] |1901|  ; [KEEP 32-BIT INS]
    5043                    ;* --------------------------------------------------------------------------*
    5044 0000061a           ||$C$L55||:    
    5045                            .dwpsn  file "../driverlib/pwm.c",line 1903,column 1,is_stmt,isa 1
    5046 0000061a B004              ADD       SP, SP, #16           ; [DPU_V7M3_PIPE]  ; [ORIG 16-BIT INS]
    5047                            .dwcfi  cfa_offset, 0
    5048                    $C$DW$268       .dwtag  DW_TAG_TI_branch
    5049                            .dwattr $C$DW$268, DW_AT_low_pc(0x00)
    5050                            .dwattr $C$DW$268, DW_AT_TI_return
    5051                    
    5052 0000061c 4770              BX        LR                    ; [DPU_V7M3_PIPE]  ; [ORIG 16-BIT INS]
    5053                            ; BRANCH OCCURS                  ; [] 
    5054                            .dwattr $C$DW$261, DW_AT_TI_end_file("../driverlib/pwm.c")
    5055                            .dwattr $C$DW$261, DW_AT_TI_end_line(0x76f)
    5056                            .dwattr $C$DW$261, DW_AT_TI_end_column(0x01)
    5057                            .dwendentry
    5058                            .dwendtag $C$DW$261
    5059                    
TI ARM Assembler Unix v18.1.1 Fri Jul  3 20:08:25 2020

Tools Copyright (c) 1996-2017 Texas Instruments Incorporated
pwm.asm                                                              PAGE   93

    5060                    ;******************************************************************************
    5061                    ;* CONSTANT TABLE                                                             *
    5062                    ;******************************************************************************
    5063 0000061e                   .sect   ".text"
    5064                            .align  4
    5065 0000061e 804046C0  ||$C$CON5||:    .bits   1073905728,32
         00000622 00004002 
    5066 00000624                   .sect   ".text"
    5067                            .clink
    5068                            .thumbfunc PWMGenFaultClear
    5069 00000624                   .thumb
    5070                            .global PWMGenFaultClear
    5071                    
    5072                    $C$DW$269       .dwtag  DW_TAG_subprogram
    5073                            .dwattr $C$DW$269, DW_AT_name("PWMGenFaultClear")
    5074                            .dwattr $C$DW$269, DW_AT_low_pc(PWMGenFaultClear)
    5075                            .dwattr $C$DW$269, DW_AT_high_pc(0x00)
    5076                            .dwattr $C$DW$269, DW_AT_TI_symbol_name("PWMGenFaultClear")
    5077                            .dwattr $C$DW$269, DW_AT_external
    5078                            .dwattr $C$DW$269, DW_AT_TI_begin_file("../driverlib/pwm.c")
    5079                            .dwattr $C$DW$269, DW_AT_TI_begin_line(0x78a)
    5080                            .dwattr $C$DW$269, DW_AT_TI_begin_column(0x01)
    5081                            .dwattr $C$DW$269, DW_AT_decl_file("../driverlib/pwm.c")
    5082                            .dwattr $C$DW$269, DW_AT_decl_line(0x78a)
    5083                            .dwattr $C$DW$269, DW_AT_decl_column(0x01)
    5084                            .dwattr $C$DW$269, DW_AT_TI_max_frame_size(0x10)
    5085                            .dwpsn  file "../driverlib/pwm.c",line 1932,column 1,is_stmt,address PWMGenFaultClear,isa 1
    5086                    
    5087                            .dwfde $C$DW$CIE, PWMGenFaultClear
    5088                    $C$DW$270       .dwtag  DW_TAG_formal_parameter
    5089                            .dwattr $C$DW$270, DW_AT_name("ui32Base")
    5090                            .dwattr $C$DW$270, DW_AT_TI_symbol_name("ui32Base")
    5091                            .dwattr $C$DW$270, DW_AT_type(*$C$DW$T$27)
    5092                            .dwattr $C$DW$270, DW_AT_location[DW_OP_reg0]
    5093                    
    5094                    $C$DW$271       .dwtag  DW_TAG_formal_parameter
    5095                            .dwattr $C$DW$271, DW_AT_name("ui32Gen")
    5096                            .dwattr $C$DW$271, DW_AT_TI_symbol_name("ui32Gen")
    5097                            .dwattr $C$DW$271, DW_AT_type(*$C$DW$T$27)
    5098                            .dwattr $C$DW$271, DW_AT_location[DW_OP_reg1]
    5099                    
    5100                    $C$DW$272       .dwtag  DW_TAG_formal_parameter
    5101                            .dwattr $C$DW$272, DW_AT_name("ui32Group")
    5102                            .dwattr $C$DW$272, DW_AT_TI_symbol_name("ui32Group")
    5103                            .dwattr $C$DW$272, DW_AT_type(*$C$DW$T$27)
    5104                            .dwattr $C$DW$272, DW_AT_location[DW_OP_reg2]
    5105                    
    5106                    $C$DW$273       .dwtag  DW_TAG_formal_parameter
    5107                            .dwattr $C$DW$273, DW_AT_name("ui32FaultTriggers")
    5108                            .dwattr $C$DW$273, DW_AT_TI_symbol_name("ui32FaultTriggers")
    5109                            .dwattr $C$DW$273, DW_AT_type(*$C$DW$T$27)
    5110                            .dwattr $C$DW$273, DW_AT_location[DW_OP_reg3]
    5111                    
    5112                    ;----------------------------------------------------------------------
    5113                    ; 1930 | PWMGenFaultClear(uint32_t ui32Base, uint32_t ui32Gen,                  
TI ARM Assembler Unix v18.1.1 Fri Jul  3 20:08:25 2020

Tools Copyright (c) 1996-2017 Texas Instruments Incorporated
pwm.asm                                                              PAGE   94

    5114                    ; 1931 | uint32_t ui32Group, uint32_t ui32FaultTriggers)                        
    5115                    ;----------------------------------------------------------------------
    5116                    
    5117                    ;*****************************************************************************
    5118                    ;* FUNCTION NAME: PWMGenFaultClear                                           *
    5119                    ;*                                                                           *
    5120                    ;*   Regs Modified     : A1,A2,A3,SP,SR                                      *
    5121                    ;*   Regs Used         : A1,A2,A3,A4,SP,LR,SR                                *
    5122                    ;*   Local Frame Size  : 0 Args + 16 Auto + 0 Save = 16 byte                 *
    5123                    ;*****************************************************************************
    5124 00000624           PWMGenFaultClear:
    5125                    ;* --------------------------------------------------------------------------*
    5126                            .dwcfi  cfa_offset, 0
    5127 00000624 0D10F1AD          SUB       SP, SP, #16           ; [DPU_V7M3_PIPE]  ; [KEEP 32-BIT INS]
    5128                            .dwcfi  cfa_offset, 16
    5129                    $C$DW$274       .dwtag  DW_TAG_variable
    5130                            .dwattr $C$DW$274, DW_AT_name("ui32Base")
    5131                            .dwattr $C$DW$274, DW_AT_TI_symbol_name("ui32Base")
    5132                            .dwattr $C$DW$274, DW_AT_type(*$C$DW$T$27)
    5133                            .dwattr $C$DW$274, DW_AT_location[DW_OP_breg13 0]
    5134                    
    5135                    $C$DW$275       .dwtag  DW_TAG_variable
    5136                            .dwattr $C$DW$275, DW_AT_name("ui32Gen")
    5137                            .dwattr $C$DW$275, DW_AT_TI_symbol_name("ui32Gen")
    5138                            .dwattr $C$DW$275, DW_AT_type(*$C$DW$T$27)
    5139                            .dwattr $C$DW$275, DW_AT_location[DW_OP_breg13 4]
    5140                    
    5141                    $C$DW$276       .dwtag  DW_TAG_variable
    5142                            .dwattr $C$DW$276, DW_AT_name("ui32Group")
    5143                            .dwattr $C$DW$276, DW_AT_TI_symbol_name("ui32Group")
    5144                            .dwattr $C$DW$276, DW_AT_type(*$C$DW$T$27)
    5145                            .dwattr $C$DW$276, DW_AT_location[DW_OP_breg13 8]
    5146                    
    5147                    $C$DW$277       .dwtag  DW_TAG_variable
    5148                            .dwattr $C$DW$277, DW_AT_name("ui32FaultTriggers")
    5149                            .dwattr $C$DW$277, DW_AT_TI_symbol_name("ui32FaultTriggers")
    5150                            .dwattr $C$DW$277, DW_AT_type(*$C$DW$T$27)
    5151                            .dwattr $C$DW$277, DW_AT_location[DW_OP_breg13 12]
    5152                    
    5153                    ;----------------------------------------------------------------------
    5154                    ; 1933 | //                                                                     
    5155                    ; 1934 | // Check for valid parameters.                                         
    5156                    ; 1935 | //                                                                     
    5157                    ; 1936 | ASSERT((ui32Base == PWM0_BASE) || (ui32Base == PWM1_BASE));            
    5158                    ; 1937 | ASSERT(_PWMGenValid(ui32Gen));                                         
    5159                    ; 1938 | ASSERT((ui32Group == PWM_FAULT_GROUP_0) ||                             
    5160                    ; 1939 |        (ui32Group == PWM_FAULT_GROUP_1));                              
    5161                    ; 1940 | ASSERT((ui32Group == PWM_FAULT_GROUP_0) &&                             
    5162                    ; 1941 |        ((ui32FaultTriggers & ~(PWM_FAULT_FAULT0 | PWM_FAULT_FAULT1 |   
    5163                    ; 1942 |                                PWM_FAULT_FAULT2 | PWM_FAULT_FAULT3)) ==
    5164                    ; 1943 |         0));                                                           
    5165                    ; 1944 | ASSERT((ui32Group == PWM_FAULT_GROUP_1) &&                             
    5166                    ; 1945 |        ((ui32FaultTriggers & ~(PWM_FAULT_DCMP0 | PWM_FAULT_DCMP1 |     
    5167                    ; 1946 |                                PWM_FAULT_DCMP2 | PWM_FAULT_DCMP3 |     
    5168                    ; 1947 |                                PWM_FAULT_DCMP4 | PWM_FAULT_DCMP5 |     
TI ARM Assembler Unix v18.1.1 Fri Jul  3 20:08:25 2020

Tools Copyright (c) 1996-2017 Texas Instruments Incorporated
pwm.asm                                                              PAGE   95

    5169                    ; 1948 |                                PWM_FAULT_DCMP6 | PWM_FAULT_DCMP7)) == 0
    5170                    ;     | ));                                                                    
    5171                    ; 1950 | //                                                                     
    5172                    ; 1951 | // Clear the given faults.                                             
    5173                    ; 1952 | //                                                                     
    5174                    ;----------------------------------------------------------------------
    5175 00000628 9303              STR       A4, [SP, #12]         ; [DPU_V7M3_PIPE] |1932|  ; [ORIG 16-BIT INS]
    5176 0000062a 9202              STR       A3, [SP, #8]          ; [DPU_V7M3_PIPE] |1932|  ; [ORIG 16-BIT INS]
    5177 0000062c 9101              STR       A2, [SP, #4]          ; [DPU_V7M3_PIPE] |1932|  ; [ORIG 16-BIT INS]
    5178 0000062e 9000              STR       A1, [SP, #0]          ; [DPU_V7M3_PIPE] |1932|  ; [ORIG 16-BIT INS]
    5179                            .dwpsn  file "../driverlib/pwm.c",line 1953,column 5,is_stmt,isa 1
    5180                    ;----------------------------------------------------------------------
    5181                    ; 1953 | if(ui32Group == PWM_FAULT_GROUP_0)                                     
    5182                    ;----------------------------------------------------------------------
    5183 00000630 9802              LDR       A1, [SP, #8]          ; [DPU_V7M3_PIPE] |1953|  ; [ORIG 16-BIT INS]
    5184 00000632 B940              CBNZ      A1, ||$C$L56||        ; []  ; [ORIG 16-BIT INS]
    5185                            ; BRANCHCC OCCURS {||$C$L56||}   ; [] |1953| 
    5186                    ;* --------------------------------------------------------------------------*
    5187                            .dwpsn  file "../driverlib/pwm.c",line 1955,column 9,is_stmt,isa 1
    5188                    ;----------------------------------------------------------------------
    5189                    ; 1955 | HWREG(PWM_GEN_EXT_BADDR(ui32Base, ui32Gen) + PWM_O_X_FLTSTAT0) =       
    5190                    ; 1956 |     ui32FaultTriggers;                                                 
    5191                    ;----------------------------------------------------------------------
    5192 00000634 9801              LDR       A1, [SP, #4]          ; [DPU_V7M3_PIPE] |1955|  ; [ORIG 16-BIT INS]
    5193 00000636 9900              LDR       A2, [SP, #0]          ; [DPU_V7M3_PIPE] |1955|  ; [ORIG 16-BIT INS]
    5194 00000638 9A03              LDR       A3, [SP, #12]         ; [DPU_V7M3_PIPE] |1955|  ; [ORIG 16-BIT INS]
    5195 0000063a 3840              SUBS      A1, A1, #64           ; [DPU_V7M3_PIPE] |1955|  ; [ORIG 16-BIT INS]
    5196 0000063c 0140EB01          ADD       A2, A2, A1, LSL #1    ; [DPU_V7M3_PIPE] |1955|  ; [KEEP 32-BIT INS]
    5197 00000640 2804F8C1          STR       A3, [A2, #2052]       ; [DPU_V7M3_PIPE] |1955|  ; [KEEP 32-BIT INS]
    5198                            .dwpsn  file "../driverlib/pwm.c",line 1957,column 5,is_stmt,isa 1
    5199                    ;----------------------------------------------------------------------
    5200                    ; 1958 | else                                                                   
    5201                    ;----------------------------------------------------------------------
    5202 00000644 E007              B         ||$C$L57||            ; [DPU_V7M3_PIPE] |1957|  ; [ORIG 16-BIT INS]
    5203                            ; BRANCH OCCURS {||$C$L57||}     ; [] |1957| 
    5204                    ;* --------------------------------------------------------------------------*
    5205 00000646           ||$C$L56||:    
    5206                            .dwpsn  file "../driverlib/pwm.c",line 1960,column 9,is_stmt,isa 1
    5207                    ;----------------------------------------------------------------------
    5208                    ; 1960 | HWREG(PWM_GEN_EXT_BADDR(ui32Base, ui32Gen) + PWM_O_X_FLTSTAT1) =       
    5209                    ; 1961 |     ui32FaultTriggers;                                                 
    5210                    ;----------------------------------------------------------------------
    5211 00000646 9801              LDR       A1, [SP, #4]          ; [DPU_V7M3_PIPE] |1960|  ; [ORIG 16-BIT INS]
    5212 00000648 9900              LDR       A2, [SP, #0]          ; [DPU_V7M3_PIPE] |1960|  ; [ORIG 16-BIT INS]
    5213 0000064a 9A03              LDR       A3, [SP, #12]         ; [DPU_V7M3_PIPE] |1960|  ; [ORIG 16-BIT INS]
    5214 0000064c 3840              SUBS      A1, A1, #64           ; [DPU_V7M3_PIPE] |1960|  ; [ORIG 16-BIT INS]
    5215 0000064e 0140EB01          ADD       A2, A2, A1, LSL #1    ; [DPU_V7M3_PIPE] |1960|  ; [KEEP 32-BIT INS]
    5216 00000652 2808F8C1          STR       A3, [A2, #2056]       ; [DPU_V7M3_PIPE] |1960|  ; [KEEP 32-BIT INS]
    5217                            .dwpsn  file "../driverlib/pwm.c",line 1963,column 1,is_stmt,isa 1
    5218                    ;* --------------------------------------------------------------------------*
    5219 00000656           ||$C$L57||:    
    5220 00000656 B004              ADD       SP, SP, #16           ; [DPU_V7M3_PIPE]  ; [ORIG 16-BIT INS]
    5221                            .dwcfi  cfa_offset, 0
    5222                    $C$DW$278       .dwtag  DW_TAG_TI_branch
    5223                            .dwattr $C$DW$278, DW_AT_low_pc(0x00)
TI ARM Assembler Unix v18.1.1 Fri Jul  3 20:08:25 2020

Tools Copyright (c) 1996-2017 Texas Instruments Incorporated
pwm.asm                                                              PAGE   96

    5224                            .dwattr $C$DW$278, DW_AT_TI_return
    5225                    
    5226 00000658 4770              BX        LR                    ; [DPU_V7M3_PIPE]  ; [ORIG 16-BIT INS]
    5227                            ; BRANCH OCCURS                  ; [] 
    5228                            .dwattr $C$DW$269, DW_AT_TI_end_file("../driverlib/pwm.c")
    5229                            .dwattr $C$DW$269, DW_AT_TI_end_line(0x7ab)
    5230                            .dwattr $C$DW$269, DW_AT_TI_end_column(0x01)
    5231                            .dwendentry
    5232                            .dwendtag $C$DW$269
    5233                    
    5234 0000065a                   .sect   ".text"
    5235                            .clink
    5236                            .thumbfunc PWMClockSet
    5237 0000065a                   .thumb
    5238                            .global PWMClockSet
    5239                    
    5240                    $C$DW$279       .dwtag  DW_TAG_subprogram
    5241                            .dwattr $C$DW$279, DW_AT_name("PWMClockSet")
    5242                            .dwattr $C$DW$279, DW_AT_low_pc(PWMClockSet)
    5243                            .dwattr $C$DW$279, DW_AT_high_pc(0x00)
    5244                            .dwattr $C$DW$279, DW_AT_TI_symbol_name("PWMClockSet")
    5245                            .dwattr $C$DW$279, DW_AT_external
    5246                            .dwattr $C$DW$279, DW_AT_TI_begin_file("../driverlib/pwm.c")
    5247                            .dwattr $C$DW$279, DW_AT_TI_begin_line(0x7c6)
    5248                            .dwattr $C$DW$279, DW_AT_TI_begin_column(0x01)
    5249                            .dwattr $C$DW$279, DW_AT_decl_file("../driverlib/pwm.c")
    5250                            .dwattr $C$DW$279, DW_AT_decl_line(0x7c6)
    5251                            .dwattr $C$DW$279, DW_AT_decl_column(0x01)
    5252                            .dwattr $C$DW$279, DW_AT_TI_max_frame_size(0x08)
    5253                            .dwpsn  file "../driverlib/pwm.c",line 1991,column 1,is_stmt,address PWMClockSet,isa 1
    5254                    
    5255                            .dwfde $C$DW$CIE, PWMClockSet
    5256                    $C$DW$280       .dwtag  DW_TAG_formal_parameter
    5257                            .dwattr $C$DW$280, DW_AT_name("ui32Base")
    5258                            .dwattr $C$DW$280, DW_AT_TI_symbol_name("ui32Base")
    5259                            .dwattr $C$DW$280, DW_AT_type(*$C$DW$T$27)
    5260                            .dwattr $C$DW$280, DW_AT_location[DW_OP_reg0]
    5261                    
    5262                    $C$DW$281       .dwtag  DW_TAG_formal_parameter
    5263                            .dwattr $C$DW$281, DW_AT_name("ui32Config")
    5264                            .dwattr $C$DW$281, DW_AT_TI_symbol_name("ui32Config")
    5265                            .dwattr $C$DW$281, DW_AT_type(*$C$DW$T$27)
    5266                            .dwattr $C$DW$281, DW_AT_location[DW_OP_reg1]
    5267                    
    5268                    ;----------------------------------------------------------------------
    5269                    ; 1990 | PWMClockSet(uint32_t ui32Base, uint32_t ui32Config)                    
    5270                    ;----------------------------------------------------------------------
    5271                    
    5272                    ;*****************************************************************************
    5273                    ;* FUNCTION NAME: PWMClockSet                                                *
    5274                    ;*                                                                           *
    5275                    ;*   Regs Modified     : A1,A2,A3,A4,SP,SR                                   *
    5276                    ;*   Regs Used         : A1,A2,A3,A4,SP,LR,SR                                *
    5277                    ;*   Local Frame Size  : 0 Args + 8 Auto + 0 Save = 8 byte                   *
    5278                    ;*****************************************************************************
TI ARM Assembler Unix v18.1.1 Fri Jul  3 20:08:25 2020

Tools Copyright (c) 1996-2017 Texas Instruments Incorporated
pwm.asm                                                              PAGE   97

    5279 0000065a           PWMClockSet:
    5280                    ;* --------------------------------------------------------------------------*
    5281                            .dwcfi  cfa_offset, 0
    5282 0000065a 0D08F1AD          SUB       SP, SP, #8            ; [DPU_V7M3_PIPE]  ; [KEEP 32-BIT INS]
    5283                            .dwcfi  cfa_offset, 8
    5284                    $C$DW$282       .dwtag  DW_TAG_variable
    5285                            .dwattr $C$DW$282, DW_AT_name("ui32Base")
    5286                            .dwattr $C$DW$282, DW_AT_TI_symbol_name("ui32Base")
    5287                            .dwattr $C$DW$282, DW_AT_type(*$C$DW$T$27)
    5288                            .dwattr $C$DW$282, DW_AT_location[DW_OP_breg13 0]
    5289                    
    5290                    $C$DW$283       .dwtag  DW_TAG_variable
    5291                            .dwattr $C$DW$283, DW_AT_name("ui32Config")
    5292                            .dwattr $C$DW$283, DW_AT_TI_symbol_name("ui32Config")
    5293                            .dwattr $C$DW$283, DW_AT_type(*$C$DW$T$27)
    5294                            .dwattr $C$DW$283, DW_AT_location[DW_OP_breg13 4]
    5295                    
    5296                    ;----------------------------------------------------------------------
    5297                    ; 1992 | //                                                                     
    5298                    ; 1993 | // Check the arguments.                                                
    5299                    ; 1994 | //                                                                     
    5300                    ; 1995 | ASSERT((ui32Base == PWM0_BASE) || (ui32Base == PWM1_BASE));            
    5301                    ; 1996 | ASSERT((ui32Config == PWM_SYSCLK_DIV_1) ||                             
    5302                    ; 1997 |        (ui32Config == PWM_SYSCLK_DIV_2) ||                             
    5303                    ; 1998 |        (ui32Config == PWM_SYSCLK_DIV_4) ||                             
    5304                    ; 1999 |        (ui32Config == PWM_SYSCLK_DIV_8) ||                             
    5305                    ; 2000 |        (ui32Config == PWM_SYSCLK_DIV_16) ||                            
    5306                    ; 2001 |        (ui32Config == PWM_SYSCLK_DIV_32) ||                            
    5307                    ; 2002 |        (ui32Config == PWM_SYSCLK_DIV_64));                             
    5308                    ; 2004 | //                                                                     
    5309                    ; 2005 | // Set the PWM clock configuration into the PWM clock configuration    
    5310                    ; 2006 | // register.                                                           
    5311                    ; 2007 | //                                                                     
    5312                    ;----------------------------------------------------------------------
    5313 0000065e 9101              STR       A2, [SP, #4]          ; [DPU_V7M3_PIPE] |1991|  ; [ORIG 16-BIT INS]
    5314 00000660 9000              STR       A1, [SP, #0]          ; [DPU_V7M3_PIPE] |1991|  ; [ORIG 16-BIT INS]
    5315                            .dwpsn  file "../driverlib/pwm.c",line 2008,column 5,is_stmt,isa 1
    5316                    ;----------------------------------------------------------------------
    5317                    ; 2008 | HWREG(ui32Base + PWM_O_CC) = ((HWREG(ui32Base + PWM_O_CC) &            
    5318                    ; 2009 |                                ~(PWM_CC_USEPWM | PWM_CC_PWMDIV_M)) |   
    5319                    ; 2010 |                               ui32Config);                             
    5320                    ;----------------------------------------------------------------------
    5321 00000662 482C              LDR       A1, $C$CON7           ; [DPU_V7M3_PIPE] |2008|  ; [ORIG 16-BIT INS]
    5322 00000664 9900              LDR       A2, [SP, #0]          ; [DPU_V7M3_PIPE] |2008|  ; [ORIG 16-BIT INS]
    5323 00000666 9B00              LDR       A4, [SP, #0]          ; [DPU_V7M3_PIPE] |2008|  ; [ORIG 16-BIT INS]
    5324 00000668 2FC8F8D1          LDR       A3, [A2, #4040]       ; [DPU_V7M3_PIPE] |2008|  ; [KEEP 32-BIT INS]
    5325 0000066c 9901              LDR       A2, [SP, #4]          ; [DPU_V7M3_PIPE] |2008|  ; [ORIG 16-BIT INS]
    5326 0000066e 4010              ANDS      A1, A1, A3            ; [DPU_V7M3_PIPE] |2008|  ; [ORIG 16-BIT INS]
    5327 00000670 4301              ORRS      A2, A2, A1            ; [DPU_V7M3_PIPE] |2008|  ; [ORIG 16-BIT INS]
    5328 00000672 1FC8F8C3          STR       A2, [A4, #4040]       ; [DPU_V7M3_PIPE] |2008|  ; [KEEP 32-BIT INS]
    5329                            .dwpsn  file "../driverlib/pwm.c",line 2011,column 1,is_stmt,isa 1
    5330 00000676 B002              ADD       SP, SP, #8            ; [DPU_V7M3_PIPE]  ; [ORIG 16-BIT INS]
    5331                            .dwcfi  cfa_offset, 0
    5332                    $C$DW$284       .dwtag  DW_TAG_TI_branch
    5333                            .dwattr $C$DW$284, DW_AT_low_pc(0x00)
TI ARM Assembler Unix v18.1.1 Fri Jul  3 20:08:25 2020

Tools Copyright (c) 1996-2017 Texas Instruments Incorporated
pwm.asm                                                              PAGE   98

    5334                            .dwattr $C$DW$284, DW_AT_TI_return
    5335                    
    5336 00000678 4770              BX        LR                    ; [DPU_V7M3_PIPE]  ; [ORIG 16-BIT INS]
    5337                            ; BRANCH OCCURS                  ; [] 
    5338                            .dwattr $C$DW$279, DW_AT_TI_end_file("../driverlib/pwm.c")
    5339                            .dwattr $C$DW$279, DW_AT_TI_end_line(0x7db)
    5340                            .dwattr $C$DW$279, DW_AT_TI_end_column(0x01)
    5341                            .dwendentry
    5342                            .dwendtag $C$DW$279
    5343                    
    5344 0000067a                   .sect   ".text"
    5345                            .clink
    5346                            .thumbfunc PWMClockGet
    5347 0000067a                   .thumb
    5348                            .global PWMClockGet
    5349                    
    5350                    $C$DW$285       .dwtag  DW_TAG_subprogram
    5351                            .dwattr $C$DW$285, DW_AT_name("PWMClockGet")
    5352                            .dwattr $C$DW$285, DW_AT_low_pc(PWMClockGet)
    5353                            .dwattr $C$DW$285, DW_AT_high_pc(0x00)
    5354                            .dwattr $C$DW$285, DW_AT_TI_symbol_name("PWMClockGet")
    5355                            .dwattr $C$DW$285, DW_AT_external
    5356                            .dwattr $C$DW$285, DW_AT_type(*$C$DW$T$27)
    5357                            .dwattr $C$DW$285, DW_AT_TI_begin_file("../driverlib/pwm.c")
    5358                            .dwattr $C$DW$285, DW_AT_TI_begin_line(0x7ef)
    5359                            .dwattr $C$DW$285, DW_AT_TI_begin_column(0x01)
    5360                            .dwattr $C$DW$285, DW_AT_decl_file("../driverlib/pwm.c")
    5361                            .dwattr $C$DW$285, DW_AT_decl_line(0x7ef)
    5362                            .dwattr $C$DW$285, DW_AT_decl_column(0x01)
    5363                            .dwattr $C$DW$285, DW_AT_TI_max_frame_size(0x08)
    5364                            .dwpsn  file "../driverlib/pwm.c",line 2032,column 1,is_stmt,address PWMClockGet,isa 1
    5365                    
    5366                            .dwfde $C$DW$CIE, PWMClockGet
    5367                    $C$DW$286       .dwtag  DW_TAG_formal_parameter
    5368                            .dwattr $C$DW$286, DW_AT_name("ui32Base")
    5369                            .dwattr $C$DW$286, DW_AT_TI_symbol_name("ui32Base")
    5370                            .dwattr $C$DW$286, DW_AT_type(*$C$DW$T$27)
    5371                            .dwattr $C$DW$286, DW_AT_location[DW_OP_reg0]
    5372                    
    5373                    ;----------------------------------------------------------------------
    5374                    ; 2031 | PWMClockGet(uint32_t ui32Base)                                         
    5375                    ;----------------------------------------------------------------------
    5376                    
    5377                    ;*****************************************************************************
    5378                    ;* FUNCTION NAME: PWMClockGet                                                *
    5379                    ;*                                                                           *
    5380                    ;*   Regs Modified     : A1,A2,SP,SR                                         *
    5381                    ;*   Regs Used         : A1,A2,SP,LR,SR                                      *
    5382                    ;*   Local Frame Size  : 0 Args + 4 Auto + 0 Save = 4 byte                   *
    5383                    ;*****************************************************************************
    5384 0000067a           PWMClockGet:
    5385                    ;* --------------------------------------------------------------------------*
    5386                            .dwcfi  cfa_offset, 0
    5387 0000067a 0D08F1AD          SUB       SP, SP, #8            ; [DPU_V7M3_PIPE]  ; [KEEP 32-BIT INS]
    5388                            .dwcfi  cfa_offset, 8
TI ARM Assembler Unix v18.1.1 Fri Jul  3 20:08:25 2020

Tools Copyright (c) 1996-2017 Texas Instruments Incorporated
pwm.asm                                                              PAGE   99

    5389                    $C$DW$287       .dwtag  DW_TAG_variable
    5390                            .dwattr $C$DW$287, DW_AT_name("ui32Base")
    5391                            .dwattr $C$DW$287, DW_AT_TI_symbol_name("ui32Base")
    5392                            .dwattr $C$DW$287, DW_AT_type(*$C$DW$T$27)
    5393                            .dwattr $C$DW$287, DW_AT_location[DW_OP_breg13 0]
    5394                    
    5395                    ;----------------------------------------------------------------------
    5396                    ; 2033 | //                                                                     
    5397                    ; 2034 | // Check the arguments.                                                
    5398                    ; 2035 | //                                                                     
    5399                    ; 2036 | ASSERT((ui32Base == PWM0_BASE) || (ui32Base == PWM1_BASE));            
    5400                    ; 2038 | //                                                                     
    5401                    ; 2039 | // Return the current PWM clock configuration.  Make sure that         
    5402                    ; 2040 | // PWM_SYSCLK_DIV_1 is returned in all cases where the divider is disab
    5403                    ;     | led.                                                                   
    5404                    ; 2041 | //                                                                     
    5405                    ;----------------------------------------------------------------------
    5406 0000067e 9000              STR       A1, [SP, #0]          ; [DPU_V7M3_PIPE] |2032|  ; [ORIG 16-BIT INS]
    5407                            .dwpsn  file "../driverlib/pwm.c",line 2042,column 5,is_stmt,isa 1
    5408                    ;----------------------------------------------------------------------
    5409                    ; 2042 | if(!(HWREG(ui32Base + PWM_O_CC) & PWM_CC_USEPWM))                      
    5410                    ; 2044 |     //                                                                 
    5411                    ; 2045 |     // The divider is not active so reflect this in the value we return
    5412                    ;     | .                                                                      
    5413                    ; 2046 |     //                                                                 
    5414                    ;----------------------------------------------------------------------
    5415 00000680 9800              LDR       A1, [SP, #0]          ; [DPU_V7M3_PIPE] |2042|  ; [ORIG 16-BIT INS]
    5416 00000682 0FC8F8D0          LDR       A1, [A1, #4040]       ; [DPU_V7M3_PIPE] |2042|  ; [KEEP 32-BIT INS]
    5417 00000686 0A40              LSRS      A1, A1, #9            ; [DPU_V7M3_PIPE] |2042|  ; [ORIG 16-BIT INS]
    5418 00000688 D201              BCS       ||$C$L58||            ; [DPU_V7M3_PIPE] |2042|  ; [ORIG 16-BIT INS]
    5419                            ; BRANCHCC OCCURS {||$C$L58||}   ; [] |2042| 
    5420                    ;* --------------------------------------------------------------------------*
    5421                            .dwpsn  file "../driverlib/pwm.c",line 2047,column 9,is_stmt,isa 1
    5422                    ;----------------------------------------------------------------------
    5423                    ; 2047 | return(PWM_SYSCLK_DIV_1);                                              
    5424                    ; 2049 | else                                                                   
    5425                    ; 2051 | //                                                                     
    5426                    ; 2052 | // The divider is active so directly return the masked register value. 
    5427                    ; 2053 | //                                                                     
    5428                    ;----------------------------------------------------------------------
    5429 0000068a 2000              MOVS      A1, #0                ; [DPU_V7M3_PIPE] |2047|  ; [ORIG 16-BIT INS]
    5430 0000068c E005              B         ||$C$L59||            ; [DPU_V7M3_PIPE] |2047|  ; [ORIG 16-BIT INS]
    5431                            ; BRANCH OCCURS {||$C$L59||}     ; [] |2047| 
    5432                    ;* --------------------------------------------------------------------------*
    5433                    ;* --------------------------------------------------------------------------*
    5434 0000068e           ||$C$L58||:    
    5435                            .dwpsn  file "../driverlib/pwm.c",line 2054,column 9,is_stmt,isa 1
    5436                    ;----------------------------------------------------------------------
    5437                    ; 2054 | return(HWREG(ui32Base + PWM_O_CC) & (PWM_CC_USEPWM | PWM_CC_PWMDIV_M));
    5438                    ;----------------------------------------------------------------------
    5439 0000068e 9800              LDR       A1, [SP, #0]          ; [DPU_V7M3_PIPE] |2054|  ; [ORIG 16-BIT INS]
    5440 00000690 1FC8F8D0          LDR       A2, [A1, #4040]       ; [DPU_V7M3_PIPE] |2054|  ; [KEEP 32-BIT INS]
    5441 00000694 1007F240          MOV       A1, #263              ; [DPU_V7M3_PIPE] |2054|  ; [KEEP 32-BIT INS]
    5442 00000698 4008              ANDS      A1, A1, A2            ; [DPU_V7M3_PIPE] |2054|  ; [ORIG 16-BIT INS]
    5443                    ;* --------------------------------------------------------------------------*
TI ARM Assembler Unix v18.1.1 Fri Jul  3 20:08:25 2020

Tools Copyright (c) 1996-2017 Texas Instruments Incorporated
pwm.asm                                                              PAGE  100

    5444 0000069a           ||$C$L59||:    
    5445                            .dwpsn  file "../driverlib/pwm.c",line 2056,column 1,is_stmt,isa 1
    5446 0000069a B002              ADD       SP, SP, #8            ; [DPU_V7M3_PIPE]  ; [ORIG 16-BIT INS]
    5447                            .dwcfi  cfa_offset, 0
    5448                    $C$DW$288       .dwtag  DW_TAG_TI_branch
    5449                            .dwattr $C$DW$288, DW_AT_low_pc(0x00)
    5450                            .dwattr $C$DW$288, DW_AT_TI_return
    5451                    
    5452 0000069c 4770              BX        LR                    ; [DPU_V7M3_PIPE]  ; [ORIG 16-BIT INS]
    5453                            ; BRANCH OCCURS                  ; [] 
    5454                            .dwattr $C$DW$285, DW_AT_TI_end_file("../driverlib/pwm.c")
    5455                            .dwattr $C$DW$285, DW_AT_TI_end_line(0x808)
    5456                            .dwattr $C$DW$285, DW_AT_TI_end_column(0x01)
    5457                            .dwendentry
    5458                            .dwendtag $C$DW$285
    5459                    
    5460                    ;******************************************************************************
    5461                    ;* CONSTANT TABLE                                                             *
    5462                    ;******************************************************************************
    5463 0000069e                   .sect   ".text"
    5464                            .align  4
    5465 0000069e 800046C0  ||$C$CON6||:    .bits   1073905664,32
         000006a2 00004002 
    5466 000006a4                   .sect   ".text"
    5467                            .clink
    5468                            .thumbfunc PWMOutputUpdateMode
    5469 000006a4                   .thumb
    5470                            .global PWMOutputUpdateMode
    5471                    
    5472                    $C$DW$289       .dwtag  DW_TAG_subprogram
    5473                            .dwattr $C$DW$289, DW_AT_name("PWMOutputUpdateMode")
    5474                            .dwattr $C$DW$289, DW_AT_low_pc(PWMOutputUpdateMode)
    5475                            .dwattr $C$DW$289, DW_AT_high_pc(0x00)
    5476                            .dwattr $C$DW$289, DW_AT_TI_symbol_name("PWMOutputUpdateMode")
    5477                            .dwattr $C$DW$289, DW_AT_external
    5478                            .dwattr $C$DW$289, DW_AT_TI_begin_file("../driverlib/pwm.c")
    5479                            .dwattr $C$DW$289, DW_AT_TI_begin_line(0x829)
    5480                            .dwattr $C$DW$289, DW_AT_TI_begin_column(0x01)
    5481                            .dwattr $C$DW$289, DW_AT_decl_file("../driverlib/pwm.c")
    5482                            .dwattr $C$DW$289, DW_AT_decl_line(0x829)
    5483                            .dwattr $C$DW$289, DW_AT_decl_column(0x01)
    5484                            .dwattr $C$DW$289, DW_AT_TI_max_frame_size(0x20)
    5485                            .dwpsn  file "../driverlib/pwm.c",line 2091,column 1,is_stmt,address PWMOutputUpdateMode,isa 1
    5486                    
    5487                            .dwfde $C$DW$CIE, PWMOutputUpdateMode
    5488                    $C$DW$290       .dwtag  DW_TAG_formal_parameter
    5489                            .dwattr $C$DW$290, DW_AT_name("ui32Base")
    5490                            .dwattr $C$DW$290, DW_AT_TI_symbol_name("ui32Base")
    5491                            .dwattr $C$DW$290, DW_AT_type(*$C$DW$T$27)
    5492                            .dwattr $C$DW$290, DW_AT_location[DW_OP_reg0]
    5493                    
    5494                    $C$DW$291       .dwtag  DW_TAG_formal_parameter
    5495                            .dwattr $C$DW$291, DW_AT_name("ui32PWMOutBits")
    5496                            .dwattr $C$DW$291, DW_AT_TI_symbol_name("ui32PWMOutBits")
    5497                            .dwattr $C$DW$291, DW_AT_type(*$C$DW$T$27)
TI ARM Assembler Unix v18.1.1 Fri Jul  3 20:08:25 2020

Tools Copyright (c) 1996-2017 Texas Instruments Incorporated
pwm.asm                                                              PAGE  101

    5498                            .dwattr $C$DW$291, DW_AT_location[DW_OP_reg1]
    5499                    
    5500                    $C$DW$292       .dwtag  DW_TAG_formal_parameter
    5501                            .dwattr $C$DW$292, DW_AT_name("ui32Mode")
    5502                            .dwattr $C$DW$292, DW_AT_TI_symbol_name("ui32Mode")
    5503                            .dwattr $C$DW$292, DW_AT_type(*$C$DW$T$27)
    5504                            .dwattr $C$DW$292, DW_AT_location[DW_OP_reg2]
    5505                    
    5506                    ;----------------------------------------------------------------------
    5507                    ; 2089 | PWMOutputUpdateMode(uint32_t ui32Base, uint32_t ui32PWMOutBits,        
    5508                    ; 2090 | uint32_t ui32Mode)                                                     
    5509                    ;----------------------------------------------------------------------
    5510                    
    5511                    ;*****************************************************************************
    5512                    ;* FUNCTION NAME: PWMOutputUpdateMode                                        *
    5513                    ;*                                                                           *
    5514                    ;*   Regs Modified     : A1,A2,A3,SP,SR                                      *
    5515                    ;*   Regs Used         : A1,A2,A3,SP,LR,SR                                   *
    5516                    ;*   Local Frame Size  : 0 Args + 32 Auto + 0 Save = 32 byte                 *
    5517                    ;*****************************************************************************
    5518 000006a4           PWMOutputUpdateMode:
    5519                    ;* --------------------------------------------------------------------------*
    5520                            .dwcfi  cfa_offset, 0
    5521 000006a4 0D20F1AD          SUB       SP, SP, #32           ; [DPU_V7M3_PIPE]  ; [KEEP 32-BIT INS]
    5522                            .dwcfi  cfa_offset, 32
    5523                    $C$DW$293       .dwtag  DW_TAG_variable
    5524                            .dwattr $C$DW$293, DW_AT_name("ui32Base")
    5525                            .dwattr $C$DW$293, DW_AT_TI_symbol_name("ui32Base")
    5526                            .dwattr $C$DW$293, DW_AT_type(*$C$DW$T$27)
    5527                            .dwattr $C$DW$293, DW_AT_location[DW_OP_breg13 0]
    5528                    
    5529                    $C$DW$294       .dwtag  DW_TAG_variable
    5530                            .dwattr $C$DW$294, DW_AT_name("ui32PWMOutBits")
    5531                            .dwattr $C$DW$294, DW_AT_TI_symbol_name("ui32PWMOutBits")
    5532                            .dwattr $C$DW$294, DW_AT_type(*$C$DW$T$27)
    5533                            .dwattr $C$DW$294, DW_AT_location[DW_OP_breg13 4]
    5534                    
    5535                    $C$DW$295       .dwtag  DW_TAG_variable
    5536                            .dwattr $C$DW$295, DW_AT_name("ui32Mode")
    5537                            .dwattr $C$DW$295, DW_AT_TI_symbol_name("ui32Mode")
    5538                            .dwattr $C$DW$295, DW_AT_type(*$C$DW$T$27)
    5539                            .dwattr $C$DW$295, DW_AT_location[DW_OP_breg13 8]
    5540                    
    5541                    $C$DW$296       .dwtag  DW_TAG_variable
    5542                            .dwattr $C$DW$296, DW_AT_name("ui8Index")
    5543                            .dwattr $C$DW$296, DW_AT_TI_symbol_name("ui8Index")
    5544                            .dwattr $C$DW$296, DW_AT_type(*$C$DW$T$105)
    5545                            .dwattr $C$DW$296, DW_AT_location[DW_OP_breg13 12]
    5546                    
    5547                    $C$DW$297       .dwtag  DW_TAG_variable
    5548                            .dwattr $C$DW$297, DW_AT_name("ui32PWMOutputMask")
    5549                            .dwattr $C$DW$297, DW_AT_TI_symbol_name("ui32PWMOutputMask")
    5550                            .dwattr $C$DW$297, DW_AT_type(*$C$DW$T$27)
    5551                            .dwattr $C$DW$297, DW_AT_location[DW_OP_breg13 16]
    5552                    
TI ARM Assembler Unix v18.1.1 Fri Jul  3 20:08:25 2020

Tools Copyright (c) 1996-2017 Texas Instruments Incorporated
pwm.asm                                                              PAGE  102

    5553                    $C$DW$298       .dwtag  DW_TAG_variable
    5554                            .dwattr $C$DW$298, DW_AT_name("ui32UpdateValueMask")
    5555                            .dwattr $C$DW$298, DW_AT_TI_symbol_name("ui32UpdateValueMask")
    5556                            .dwattr $C$DW$298, DW_AT_type(*$C$DW$T$27)
    5557                            .dwattr $C$DW$298, DW_AT_location[DW_OP_breg13 20]
    5558                    
    5559                    $C$DW$299       .dwtag  DW_TAG_variable
    5560                            .dwattr $C$DW$299, DW_AT_name("ui32UpdateValue")
    5561                            .dwattr $C$DW$299, DW_AT_TI_symbol_name("ui32UpdateValue")
    5562                            .dwattr $C$DW$299, DW_AT_type(*$C$DW$T$27)
    5563                            .dwattr $C$DW$299, DW_AT_location[DW_OP_breg13 24]
    5564                    
    5565                    $C$DW$300       .dwtag  DW_TAG_variable
    5566                            .dwattr $C$DW$300, DW_AT_name("ui32Temp")
    5567                            .dwattr $C$DW$300, DW_AT_TI_symbol_name("ui32Temp")
    5568                            .dwattr $C$DW$300, DW_AT_type(*$C$DW$T$27)
    5569                            .dwattr $C$DW$300, DW_AT_location[DW_OP_breg13 28]
    5570                    
    5571                    ;----------------------------------------------------------------------
    5572                    ; 2092 | uint_fast8_t ui8Index;                                                 
    5573                    ; 2093 | uint32_t ui32PWMOutputMask;                                            
    5574                    ; 2094 | uint32_t ui32UpdateValueMask;                                          
    5575                    ; 2095 | uint32_t ui32UpdateValue;                                              
    5576                    ; 2096 | uint32_t ui32Temp;                                                     
    5577                    ; 2098 | //                                                                     
    5578                    ; 2099 | // Check the arguments.                                                
    5579                    ; 2100 | //                                                                     
    5580                    ; 2101 | ASSERT((ui32Base == PWM0_BASE) || (ui32Base == PWM1_BASE));            
    5581                    ; 2102 | ASSERT(!(ui32PWMOutBits & ~(PWM_OUT_0_BIT | PWM_OUT_1_BIT | PWM_OUT_2_B
    5582                    ;     | IT |                                                                   
    5583                    ; 2103 |                             PWM_OUT_3_BIT | PWM_OUT_4_BIT | PWM_OUT_5_B
    5584                    ;     | IT |                                                                   
    5585                    ; 2104 |                             PWM_OUT_6_BIT | PWM_OUT_7_BIT)));          
    5586                    ; 2105 | ASSERT((ui32Mode == PWM_OUTPUT_MODE_NO_SYNC) ||                        
    5587                    ; 2106 |        (ui32Mode == PWM_OUTPUT_MODE_SYNC_LOCAL) ||                     
    5588                    ; 2107 |        (ui32Mode == PWM_OUTPUT_MODE_SYNC_GLOBAL));                     
    5589                    ; 2109 | //                                                                     
    5590                    ; 2110 | // Initialize the local variables                                      
    5591                    ; 2111 | //                                                                     
    5592                    ;----------------------------------------------------------------------
    5593 000006a8 9202              STR       A3, [SP, #8]          ; [DPU_V7M3_PIPE] |2091|  ; [ORIG 16-BIT INS]
    5594 000006aa 9101              STR       A2, [SP, #4]          ; [DPU_V7M3_PIPE] |2091|  ; [ORIG 16-BIT INS]
    5595 000006ac 9000              STR       A1, [SP, #0]          ; [DPU_V7M3_PIPE] |2091|  ; [ORIG 16-BIT INS]
    5596                            .dwpsn  file "../driverlib/pwm.c",line 2112,column 5,is_stmt,isa 1
    5597                    ;----------------------------------------------------------------------
    5598                    ; 2112 | ui8Index = 0;                                                          
    5599                    ;----------------------------------------------------------------------
    5600 000006ae 2000              MOVS      A1, #0                ; [DPU_V7M3_PIPE] |2112|  ; [ORIG 16-BIT INS]
    5601 000006b0 9003              STR       A1, [SP, #12]         ; [DPU_V7M3_PIPE] |2112|  ; [ORIG 16-BIT INS]
    5602                            .dwpsn  file "../driverlib/pwm.c",line 2113,column 5,is_stmt,isa 1
    5603                    ;----------------------------------------------------------------------
    5604                    ; 2113 | ui32PWMOutputMask = 1;                                                 
    5605                    ;----------------------------------------------------------------------
    5606 000006b2 2001              MOVS      A1, #1                ; [DPU_V7M3_PIPE] |2113|  ; [ORIG 16-BIT INS]
    5607 000006b4 9004              STR       A1, [SP, #16]         ; [DPU_V7M3_PIPE] |2113|  ; [ORIG 16-BIT INS]
TI ARM Assembler Unix v18.1.1 Fri Jul  3 20:08:25 2020

Tools Copyright (c) 1996-2017 Texas Instruments Incorporated
pwm.asm                                                              PAGE  103

    5608                            .dwpsn  file "../driverlib/pwm.c",line 2114,column 5,is_stmt,isa 1
    5609                    ;----------------------------------------------------------------------
    5610                    ; 2114 | ui32UpdateValue = 0;                                                   
    5611                    ;----------------------------------------------------------------------
    5612 000006b6 2000              MOVS      A1, #0                ; [DPU_V7M3_PIPE] |2114|  ; [ORIG 16-BIT INS]
    5613 000006b8 9006              STR       A1, [SP, #24]         ; [DPU_V7M3_PIPE] |2114|  ; [ORIG 16-BIT INS]
    5614                            .dwpsn  file "../driverlib/pwm.c",line 2115,column 5,is_stmt,isa 1
    5615                    ;----------------------------------------------------------------------
    5616                    ; 2115 | ui32UpdateValueMask = 0;                                               
    5617                    ; 2117 | //                                                                     
    5618                    ; 2118 | // Loop to find out which PWM outputs are to be modified.              
    5619                    ; 2119 | //                                                                     
    5620                    ;----------------------------------------------------------------------
    5621 000006ba 2000              MOVS      A1, #0                ; [DPU_V7M3_PIPE] |2115|  ; [ORIG 16-BIT INS]
    5622 000006bc 9005              STR       A1, [SP, #20]         ; [DPU_V7M3_PIPE] |2115|  ; [ORIG 16-BIT INS]
    5623                            .dwpsn  file "../driverlib/pwm.c",line 2120,column 11,is_stmt,isa 1
    5624                    ;----------------------------------------------------------------------
    5625                    ; 2120 | while(ui8Index < 8)                                                    
    5626                    ; 2122 |     //                                                                 
    5627                    ; 2123 |     // Check if this PWM output is to be modified.                     
    5628                    ; 2124 |     //                                                                 
    5629                    ;----------------------------------------------------------------------
    5630 000006be 9803              LDR       A1, [SP, #12]         ; [DPU_V7M3_PIPE] |2120|  ; [ORIG 16-BIT INS]
    5631 000006c0 2808              CMP       A1, #8                ; [DPU_V7M3_PIPE] |2120|  ; [ORIG 16-BIT INS]
    5632 000006c2 D21A              BCS       ||$C$L62||            ; [DPU_V7M3_PIPE] |2120|  ; [ORIG 16-BIT INS]
    5633                            ; BRANCHCC OCCURS {||$C$L62||}   ; [] |2120| 
    5634                    ;* --------------------------------------------------------------------------*
    5635                    ;*   BEGIN LOOP ||$C$L60||
    5636                    ;*
    5637                    ;*   Loop source line                : 2120
    5638                    ;*   Loop closing brace source line  : 2144
    5639                    ;*   Known Minimum Trip Count        : 1
    5640                    ;*   Known Maximum Trip Count        : 4294967295
    5641                    ;*   Known Max Trip Count Factor     : 1
    5642                    ;* --------------------------------------------------------------------------*
    5643 000006c4           ||$C$L60||:    
    5644                            .dwpsn  file "../driverlib/pwm.c",line 2125,column 9,is_stmt,isa 1
    5645                    ;----------------------------------------------------------------------
    5646                    ; 2125 | if(ui32PWMOutputMask & ui32PWMOutBits)                                 
    5647                    ; 2127 |     //                                                                 
    5648                    ; 2128 |     // Set the update mode value for the requested PWM output by       
    5649                    ; 2129 |     // writing to the appropriate field.                               
    5650                    ; 2130 |     //                                                                 
    5651                    ;----------------------------------------------------------------------
    5652 000006c4 9804              LDR       A1, [SP, #16]         ; [DPU_V7M3_PIPE] |2125|  ; [ORIG 16-BIT INS]
    5653 000006c6 9901              LDR       A2, [SP, #4]          ; [DPU_V7M3_PIPE] |2125|  ; [ORIG 16-BIT INS]
    5654 000006c8 4201              TST       A2, A1                ; [DPU_V7M3_PIPE] |2125|  ; [ORIG 16-BIT INS]
    5655 000006ca D00D              BEQ       ||$C$L61||            ; [DPU_V7M3_PIPE] |2125|  ; [ORIG 16-BIT INS]
    5656                            ; BRANCHCC OCCURS {||$C$L61||}   ; [] |2125| 
    5657                    ;* --------------------------------------------------------------------------*
    5658                            .dwpsn  file "../driverlib/pwm.c",line 2131,column 13,is_stmt,isa 1
    5659                    ;----------------------------------------------------------------------
    5660                    ; 2131 | ui32UpdateValue |= ui32Mode << (ui8Index * 2);                         
    5661                    ; 2133 | //                                                                     
    5662                    ; 2134 | // Compute the mask for the bits to be updated.                        
TI ARM Assembler Unix v18.1.1 Fri Jul  3 20:08:25 2020

Tools Copyright (c) 1996-2017 Texas Instruments Incorporated
pwm.asm                                                              PAGE  104

    5663                    ; 2135 | //                                                                     
    5664                    ;----------------------------------------------------------------------
    5665 000006cc 9A03              LDR       A3, [SP, #12]         ; [DPU_V7M3_PIPE] |2131|  ; [ORIG 16-BIT INS]
    5666 000006ce 9802              LDR       A1, [SP, #8]          ; [DPU_V7M3_PIPE] |2131|  ; [ORIG 16-BIT INS]
    5667 000006d0 9906              LDR       A2, [SP, #24]         ; [DPU_V7M3_PIPE] |2131|  ; [ORIG 16-BIT INS]
    5668 000006d2 0052              LSLS      A3, A3, #1            ; [DPU_V7M3_PIPE] |2131|  ; [ORIG 16-BIT INS]
    5669 000006d4 4090              LSLS      A1, A1, A3            ; [DPU_V7M3_PIPE] |2131|  ; [ORIG 16-BIT INS]
    5670 000006d6 4308              ORRS      A1, A1, A2            ; [DPU_V7M3_PIPE] |2131|  ; [ORIG 16-BIT INS]
    5671 000006d8 9006              STR       A1, [SP, #24]         ; [DPU_V7M3_PIPE] |2131|  ; [ORIG 16-BIT INS]
    5672                            .dwpsn  file "../driverlib/pwm.c",line 2136,column 13,is_stmt,isa 1
    5673                    ;----------------------------------------------------------------------
    5674                    ; 2136 | ui32UpdateValueMask |= 3 << (ui8Index * 2);                            
    5675                    ; 2139 | //                                                                     
    5676                    ; 2140 | // Update the PWM output to be checked and the index.                  
    5677                    ; 2141 | //                                                                     
    5678                    ;----------------------------------------------------------------------
    5679 000006da 9A03              LDR       A3, [SP, #12]         ; [DPU_V7M3_PIPE] |2136|  ; [ORIG 16-BIT INS]
    5680 000006dc 9905              LDR       A2, [SP, #20]         ; [DPU_V7M3_PIPE] |2136|  ; [ORIG 16-BIT INS]
    5681 000006de 2003              MOVS      A1, #3                ; [DPU_V7M3_PIPE] |2136|  ; [ORIG 16-BIT INS]
    5682 000006e0 0052              LSLS      A3, A3, #1            ; [DPU_V7M3_PIPE] |2136|  ; [ORIG 16-BIT INS]
    5683 000006e2 4090              LSLS      A1, A1, A3            ; [DPU_V7M3_PIPE] |2136|  ; [ORIG 16-BIT INS]
    5684 000006e4 4308              ORRS      A1, A1, A2            ; [DPU_V7M3_PIPE] |2136|  ; [ORIG 16-BIT INS]
    5685 000006e6 9005              STR       A1, [SP, #20]         ; [DPU_V7M3_PIPE] |2136|  ; [ORIG 16-BIT INS]
    5686                    ;* --------------------------------------------------------------------------*
    5687 000006e8           ||$C$L61||:    
    5688                            .dwpsn  file "../driverlib/pwm.c",line 2142,column 9,is_stmt,isa 1
    5689                    ;----------------------------------------------------------------------
    5690                    ; 2142 | ui32PWMOutputMask = ui32PWMOutputMask << 1;                            
    5691                    ;----------------------------------------------------------------------
    5692 000006e8 9804              LDR       A1, [SP, #16]         ; [DPU_V7M3_PIPE] |2142|  ; [ORIG 16-BIT INS]
    5693 000006ea 0040              LSLS      A1, A1, #1            ; [DPU_V7M3_PIPE] |2142|  ; [ORIG 16-BIT INS]
    5694 000006ec 9004              STR       A1, [SP, #16]         ; [DPU_V7M3_PIPE] |2142|  ; [ORIG 16-BIT INS]
    5695                            .dwpsn  file "../driverlib/pwm.c",line 2143,column 9,is_stmt,isa 1
    5696                    ;----------------------------------------------------------------------
    5697                    ; 2143 | ui8Index++;                                                            
    5698                    ; 2146 | //                                                                     
    5699                    ; 2147 | // Read the Enable Update register and mask the bits that are to be    
    5700                    ; 2148 | // updated.                                                            
    5701                    ; 2149 | //                                                                     
    5702                    ;----------------------------------------------------------------------
    5703 000006ee 9803              LDR       A1, [SP, #12]         ; [DPU_V7M3_PIPE] |2143|  ; [ORIG 16-BIT INS]
    5704 000006f0 1C40              ADDS      A1, A1, #1            ; [DPU_V7M3_PIPE] |2143|  ; [ORIG 16-BIT INS]
    5705 000006f2 9003              STR       A1, [SP, #12]         ; [DPU_V7M3_PIPE] |2143|  ; [ORIG 16-BIT INS]
    5706                            .dwpsn  file "../driverlib/pwm.c",line 2120,column 11,is_stmt,isa 1
    5707 000006f4 9803              LDR       A1, [SP, #12]         ; [DPU_V7M3_PIPE] |2120|  ; [ORIG 16-BIT INS]
    5708 000006f6 2808              CMP       A1, #8                ; [DPU_V7M3_PIPE] |2120|  ; [ORIG 16-BIT INS]
    5709 000006f8 D3E4              BCC       ||$C$L60||            ; [DPU_V7M3_PIPE] |2120|  ; [ORIG 16-BIT INS]
    5710                            ; BRANCHCC OCCURS {||$C$L60||}   ; [] |2120| 
    5711                    ;* --------------------------------------------------------------------------*
    5712 000006fa           ||$C$L62||:    
    5713                            .dwpsn  file "../driverlib/pwm.c",line 2150,column 5,is_stmt,isa 1
    5714                    ;----------------------------------------------------------------------
    5715                    ; 2150 | ui32Temp = ~ui32UpdateValueMask & HWREG(ui32Base + PWM_O_ENUPD);       
    5716                    ; 2152 | //                                                                     
    5717                    ; 2153 | // Write the updated values to Enable Update register.                 
TI ARM Assembler Unix v18.1.1 Fri Jul  3 20:08:25 2020

Tools Copyright (c) 1996-2017 Texas Instruments Incorporated
pwm.asm                                                              PAGE  105

    5718                    ; 2154 | //                                                                     
    5719                    ;----------------------------------------------------------------------
    5720 000006fa 9800              LDR       A1, [SP, #0]          ; [DPU_V7M3_PIPE] |2150|  ; [ORIG 16-BIT INS]
    5721 000006fc 9905              LDR       A2, [SP, #20]         ; [DPU_V7M3_PIPE] |2150|  ; [ORIG 16-BIT INS]
    5722 000006fe 6A80              LDR       A1, [A1, #40]         ; [DPU_V7M3_PIPE] |2150|  ; [ORIG 16-BIT INS]
    5723 00000700 4388              BICS      A1, A1, A2            ; [DPU_V7M3_PIPE] |2150|  ; [ORIG 16-BIT INS]
    5724 00000702 9007              STR       A1, [SP, #28]         ; [DPU_V7M3_PIPE] |2150|  ; [ORIG 16-BIT INS]
    5725                            .dwpsn  file "../driverlib/pwm.c",line 2155,column 5,is_stmt,isa 1
    5726                    ;----------------------------------------------------------------------
    5727                    ; 2155 | HWREG(ui32Base + PWM_O_ENUPD) = ui32Temp | ui32UpdateValue;            
    5728                    ;----------------------------------------------------------------------
    5729 00000704 9806              LDR       A1, [SP, #24]         ; [DPU_V7M3_PIPE] |2155|  ; [ORIG 16-BIT INS]
    5730 00000706 9A07              LDR       A3, [SP, #28]         ; [DPU_V7M3_PIPE] |2155|  ; [ORIG 16-BIT INS]
    5731 00000708 9900              LDR       A2, [SP, #0]          ; [DPU_V7M3_PIPE] |2155|  ; [ORIG 16-BIT INS]
    5732 0000070a 4310              ORRS      A1, A1, A3            ; [DPU_V7M3_PIPE] |2155|  ; [ORIG 16-BIT INS]
    5733 0000070c 6288              STR       A1, [A2, #40]         ; [DPU_V7M3_PIPE] |2155|  ; [ORIG 16-BIT INS]
    5734                            .dwpsn  file "../driverlib/pwm.c",line 2156,column 1,is_stmt,isa 1
    5735 0000070e B008              ADD       SP, SP, #32           ; [DPU_V7M3_PIPE]  ; [ORIG 16-BIT INS]
    5736                            .dwcfi  cfa_offset, 0
    5737                    $C$DW$301       .dwtag  DW_TAG_TI_branch
    5738                            .dwattr $C$DW$301, DW_AT_low_pc(0x00)
    5739                            .dwattr $C$DW$301, DW_AT_TI_return
    5740                    
    5741 00000710 4770              BX        LR                    ; [DPU_V7M3_PIPE]  ; [ORIG 16-BIT INS]
    5742                            ; BRANCH OCCURS                  ; [] 
    5743                            .dwattr $C$DW$289, DW_AT_TI_end_file("../driverlib/pwm.c")
    5744                            .dwattr $C$DW$289, DW_AT_TI_end_line(0x86c)
    5745                            .dwattr $C$DW$289, DW_AT_TI_end_column(0x01)
    5746                            .dwendentry
    5747                            .dwendtag $C$DW$289
    5748                    
    5749                    ;******************************************************************************
    5750                    ;* CONSTANT TABLE                                                             *
    5751                    ;******************************************************************************
    5752 00000712                   .sect   ".text"
    5753                            .align  4
    5754 00000712 FEF846C0  ||$C$CON7||:    .bits   -264,32
         00000716 0000FFFF 
    5755                    ;*****************************************************************************
    5756                    ;* UNDEFINED EXTERNAL REFERENCES                                             *
    5757                    ;*****************************************************************************
    5758                            .global IntRegister
    5759                            .global IntEnable
    5760                            .global IntDisable
    5761                            .global IntUnregister
    5762                    
    5763                    ;******************************************************************************
    5764                    ;* BUILD ATTRIBUTES                                                           *
    5765                    ;******************************************************************************
    5766                            .battr "aeabi", Tag_File, 1, Tag_ABI_PCS_wchar_t(2)
    5767                            .battr "aeabi", Tag_File, 1, Tag_ABI_FP_rounding(0)
    5768                            .battr "aeabi", Tag_File, 1, Tag_ABI_FP_denormal(0)
    5769                            .battr "aeabi", Tag_File, 1, Tag_ABI_FP_exceptions(0)
    5770                            .battr "aeabi", Tag_File, 1, Tag_ABI_FP_number_model(1)
    5771                            .battr "aeabi", Tag_File, 1, Tag_ABI_enum_size(0)
TI ARM Assembler Unix v18.1.1 Fri Jul  3 20:08:25 2020

Tools Copyright (c) 1996-2017 Texas Instruments Incorporated
pwm.asm                                                              PAGE  106

    5772                            .battr "aeabi", Tag_File, 1, Tag_ABI_optimization_goals(5)
    5773                            .battr "aeabi", Tag_File, 1, Tag_ABI_FP_optimization_goals(0)
    5774                            .battr "TI", Tag_File, 1, Tag_Bitfield_layout(2)
    5775                            .battr "aeabi", Tag_File, 1, Tag_ABI_VFP_args(3)
    5776                            .battr "TI", Tag_File, 1, Tag_FP_interface(1)
    5777                    
    5778                    ;******************************************************************************
    5779                    ;* TYPE INFORMATION                                                           *
    5780                    ;******************************************************************************
    5781                    
    5782                    $C$DW$T$21      .dwtag  DW_TAG_structure_type
    5783                            .dwattr $C$DW$T$21, DW_AT_byte_size(0x10)
    5784                    $C$DW$302       .dwtag  DW_TAG_member
    5785                            .dwattr $C$DW$302, DW_AT_type(*$C$DW$T$14)
    5786                            .dwattr $C$DW$302, DW_AT_name("__max_align1")
    5787                            .dwattr $C$DW$302, DW_AT_TI_symbol_name("__max_align1")
    5788                            .dwattr $C$DW$302, DW_AT_data_member_location[DW_OP_plus_uconst 0x0]
    5789                            .dwattr $C$DW$302, DW_AT_accessibility(DW_ACCESS_public)
    5790                            .dwattr $C$DW$302, DW_AT_decl_file("/home/pola/ti/ccsv8/tools/compiler/ti-cgt-arm_18.1.1.LTS/i
    5791                            .dwattr $C$DW$302, DW_AT_decl_line(0x70)
    5792                            .dwattr $C$DW$302, DW_AT_decl_column(0x0c)
    5793                    
    5794                    $C$DW$303       .dwtag  DW_TAG_member
    5795                            .dwattr $C$DW$303, DW_AT_type(*$C$DW$T$18)
    5796                            .dwattr $C$DW$303, DW_AT_name("__max_align2")
    5797                            .dwattr $C$DW$303, DW_AT_TI_symbol_name("__max_align2")
    5798                            .dwattr $C$DW$303, DW_AT_data_member_location[DW_OP_plus_uconst 0x8]
    5799                            .dwattr $C$DW$303, DW_AT_accessibility(DW_ACCESS_public)
    5800                            .dwattr $C$DW$303, DW_AT_decl_file("/home/pola/ti/ccsv8/tools/compiler/ti-cgt-arm_18.1.1.LTS/i
    5801                            .dwattr $C$DW$303, DW_AT_decl_line(0x71)
    5802                            .dwattr $C$DW$303, DW_AT_decl_column(0x0e)
    5803                    
    5804                            .dwattr $C$DW$T$21, DW_AT_decl_file("/home/pola/ti/ccsv8/tools/compiler/ti-cgt-arm_18.1.1.LTS/
    5805                            .dwattr $C$DW$T$21, DW_AT_decl_line(0x6f)
    5806                            .dwattr $C$DW$T$21, DW_AT_decl_column(0x10)
    5807                            .dwendtag $C$DW$T$21
    5808                    
    5809                    $C$DW$T$23      .dwtag  DW_TAG_typedef
    5810                            .dwattr $C$DW$T$23, DW_AT_name("__max_align_t")
    5811                            .dwattr $C$DW$T$23, DW_AT_type(*$C$DW$T$21)
    5812                            .dwattr $C$DW$T$23, DW_AT_language(DW_LANG_C)
    5813                            .dwattr $C$DW$T$23, DW_AT_decl_file("/home/pola/ti/ccsv8/tools/compiler/ti-cgt-arm_18.1.1.LTS/
    5814                            .dwattr $C$DW$T$23, DW_AT_decl_line(0x72)
    5815                            .dwattr $C$DW$T$23, DW_AT_decl_column(0x03)
    5816                    
    5817                    $C$DW$T$2       .dwtag  DW_TAG_unspecified_type
    5818                            .dwattr $C$DW$T$2, DW_AT_name("void")
    5819                    
    5820                    $C$DW$T$3       .dwtag  DW_TAG_pointer_type
    5821                            .dwattr $C$DW$T$3, DW_AT_type(*$C$DW$T$2)
    5822                            .dwattr $C$DW$T$3, DW_AT_address_class(0x20)
    5823                    
    5824                    
    5825                    $C$DW$T$24      .dwtag  DW_TAG_subroutine_type
    5826                            .dwattr $C$DW$T$24, DW_AT_language(DW_LANG_C)
TI ARM Assembler Unix v18.1.1 Fri Jul  3 20:08:25 2020

Tools Copyright (c) 1996-2017 Texas Instruments Incorporated
pwm.asm                                                              PAGE  107

    5827                            .dwendtag $C$DW$T$24
    5828                    
    5829                    $C$DW$T$25      .dwtag  DW_TAG_pointer_type
    5830                            .dwattr $C$DW$T$25, DW_AT_type(*$C$DW$T$24)
    5831                            .dwattr $C$DW$T$25, DW_AT_address_class(0x20)
    5832                    
    5833                    $C$DW$T$4       .dwtag  DW_TAG_base_type
    5834                            .dwattr $C$DW$T$4, DW_AT_encoding(DW_ATE_boolean)
    5835                            .dwattr $C$DW$T$4, DW_AT_name("bool")
    5836                            .dwattr $C$DW$T$4, DW_AT_byte_size(0x01)
    5837                    
    5838                    $C$DW$T$5       .dwtag  DW_TAG_base_type
    5839                            .dwattr $C$DW$T$5, DW_AT_encoding(DW_ATE_signed_char)
    5840                            .dwattr $C$DW$T$5, DW_AT_name("signed char")
    5841                            .dwattr $C$DW$T$5, DW_AT_byte_size(0x01)
    5842                    
    5843                    $C$DW$T$41      .dwtag  DW_TAG_typedef
    5844                            .dwattr $C$DW$T$41, DW_AT_name("__int8_t")
    5845                            .dwattr $C$DW$T$41, DW_AT_type(*$C$DW$T$5)
    5846                            .dwattr $C$DW$T$41, DW_AT_language(DW_LANG_C)
    5847                            .dwattr $C$DW$T$41, DW_AT_decl_file("/home/pola/ti/ccsv8/tools/compiler/ti-cgt-arm_18.1.1.LTS/
    5848                            .dwattr $C$DW$T$41, DW_AT_decl_line(0x39)
    5849                            .dwattr $C$DW$T$41, DW_AT_decl_column(0x16)
    5850                    
    5851                    $C$DW$T$42      .dwtag  DW_TAG_typedef
    5852                            .dwattr $C$DW$T$42, DW_AT_name("__int_least8_t")
    5853                            .dwattr $C$DW$T$42, DW_AT_type(*$C$DW$T$41)
    5854                            .dwattr $C$DW$T$42, DW_AT_language(DW_LANG_C)
    5855                            .dwattr $C$DW$T$42, DW_AT_decl_file("/home/pola/ti/ccsv8/tools/compiler/ti-cgt-arm_18.1.1.LTS/
    5856                            .dwattr $C$DW$T$42, DW_AT_decl_line(0x58)
    5857                            .dwattr $C$DW$T$42, DW_AT_decl_column(0x12)
    5858                    
    5859                    $C$DW$T$43      .dwtag  DW_TAG_typedef
    5860                            .dwattr $C$DW$T$43, DW_AT_name("int_least8_t")
    5861                            .dwattr $C$DW$T$43, DW_AT_type(*$C$DW$T$42)
    5862                            .dwattr $C$DW$T$43, DW_AT_language(DW_LANG_C)
    5863                            .dwattr $C$DW$T$43, DW_AT_decl_file("/home/pola/ti/ccsv8/tools/compiler/ti-cgt-arm_18.1.1.LTS/
    5864                            .dwattr $C$DW$T$43, DW_AT_decl_line(0x28)
    5865                            .dwattr $C$DW$T$43, DW_AT_decl_column(0x19)
    5866                    
    5867                    $C$DW$T$44      .dwtag  DW_TAG_typedef
    5868                            .dwattr $C$DW$T$44, DW_AT_name("int8_t")
    5869                            .dwattr $C$DW$T$44, DW_AT_type(*$C$DW$T$41)
    5870                            .dwattr $C$DW$T$44, DW_AT_language(DW_LANG_C)
    5871                            .dwattr $C$DW$T$44, DW_AT_decl_file("/home/pola/ti/ccsv8/tools/compiler/ti-cgt-arm_18.1.1.LTS/
    5872                            .dwattr $C$DW$T$44, DW_AT_decl_line(0x24)
    5873                            .dwattr $C$DW$T$44, DW_AT_decl_column(0x13)
    5874                    
    5875                    $C$DW$T$6       .dwtag  DW_TAG_base_type
    5876                            .dwattr $C$DW$T$6, DW_AT_encoding(DW_ATE_unsigned_char)
    5877                            .dwattr $C$DW$T$6, DW_AT_name("unsigned char")
    5878                            .dwattr $C$DW$T$6, DW_AT_byte_size(0x01)
    5879                    
    5880                    $C$DW$T$45      .dwtag  DW_TAG_typedef
    5881                            .dwattr $C$DW$T$45, DW_AT_name("__uint8_t")
TI ARM Assembler Unix v18.1.1 Fri Jul  3 20:08:25 2020

Tools Copyright (c) 1996-2017 Texas Instruments Incorporated
pwm.asm                                                              PAGE  108

    5882                            .dwattr $C$DW$T$45, DW_AT_type(*$C$DW$T$6)
    5883                            .dwattr $C$DW$T$45, DW_AT_language(DW_LANG_C)
    5884                            .dwattr $C$DW$T$45, DW_AT_decl_file("/home/pola/ti/ccsv8/tools/compiler/ti-cgt-arm_18.1.1.LTS/
    5885                            .dwattr $C$DW$T$45, DW_AT_decl_line(0x3a)
    5886                            .dwattr $C$DW$T$45, DW_AT_decl_column(0x18)
    5887                    
    5888                    $C$DW$T$46      .dwtag  DW_TAG_typedef
    5889                            .dwattr $C$DW$T$46, DW_AT_name("__sa_family_t")
    5890                            .dwattr $C$DW$T$46, DW_AT_type(*$C$DW$T$45)
    5891                            .dwattr $C$DW$T$46, DW_AT_language(DW_LANG_C)
    5892                            .dwattr $C$DW$T$46, DW_AT_decl_file("/home/pola/ti/ccsv8/tools/compiler/ti-cgt-arm_18.1.1.LTS/
    5893                            .dwattr $C$DW$T$46, DW_AT_decl_line(0x43)
    5894                            .dwattr $C$DW$T$46, DW_AT_decl_column(0x13)
    5895                    
    5896                    $C$DW$T$47      .dwtag  DW_TAG_typedef
    5897                            .dwattr $C$DW$T$47, DW_AT_name("__uint_least8_t")
    5898                            .dwattr $C$DW$T$47, DW_AT_type(*$C$DW$T$45)
    5899                            .dwattr $C$DW$T$47, DW_AT_language(DW_LANG_C)
    5900                            .dwattr $C$DW$T$47, DW_AT_decl_file("/home/pola/ti/ccsv8/tools/compiler/ti-cgt-arm_18.1.1.LTS/
    5901                            .dwattr $C$DW$T$47, DW_AT_decl_line(0x6d)
    5902                            .dwattr $C$DW$T$47, DW_AT_decl_column(0x13)
    5903                    
    5904                    $C$DW$T$48      .dwtag  DW_TAG_typedef
    5905                            .dwattr $C$DW$T$48, DW_AT_name("uint_least8_t")
    5906                            .dwattr $C$DW$T$48, DW_AT_type(*$C$DW$T$47)
    5907                            .dwattr $C$DW$T$48, DW_AT_language(DW_LANG_C)
    5908                            .dwattr $C$DW$T$48, DW_AT_decl_file("/home/pola/ti/ccsv8/tools/compiler/ti-cgt-arm_18.1.1.LTS/
    5909                            .dwattr $C$DW$T$48, DW_AT_decl_line(0x2d)
    5910                            .dwattr $C$DW$T$48, DW_AT_decl_column(0x1a)
    5911                    
    5912                    $C$DW$T$49      .dwtag  DW_TAG_typedef
    5913                            .dwattr $C$DW$T$49, DW_AT_name("uint8_t")
    5914                            .dwattr $C$DW$T$49, DW_AT_type(*$C$DW$T$45)
    5915                            .dwattr $C$DW$T$49, DW_AT_language(DW_LANG_C)
    5916                            .dwattr $C$DW$T$49, DW_AT_decl_file("/home/pola/ti/ccsv8/tools/compiler/ti-cgt-arm_18.1.1.LTS/
    5917                            .dwattr $C$DW$T$49, DW_AT_decl_line(0x38)
    5918                            .dwattr $C$DW$T$49, DW_AT_decl_column(0x14)
    5919                    
    5920                    $C$DW$T$7       .dwtag  DW_TAG_base_type
    5921                            .dwattr $C$DW$T$7, DW_AT_encoding(DW_ATE_signed_char)
    5922                            .dwattr $C$DW$T$7, DW_AT_name("wchar_t")
    5923                            .dwattr $C$DW$T$7, DW_AT_byte_size(0x02)
    5924                    
    5925                    $C$DW$T$8       .dwtag  DW_TAG_base_type
    5926                            .dwattr $C$DW$T$8, DW_AT_encoding(DW_ATE_signed)
    5927                            .dwattr $C$DW$T$8, DW_AT_name("short")
    5928                            .dwattr $C$DW$T$8, DW_AT_byte_size(0x02)
    5929                    
    5930                    $C$DW$T$50      .dwtag  DW_TAG_typedef
    5931                            .dwattr $C$DW$T$50, DW_AT_name("__int16_t")
    5932                            .dwattr $C$DW$T$50, DW_AT_type(*$C$DW$T$8)
    5933                            .dwattr $C$DW$T$50, DW_AT_language(DW_LANG_C)
    5934                            .dwattr $C$DW$T$50, DW_AT_decl_file("/home/pola/ti/ccsv8/tools/compiler/ti-cgt-arm_18.1.1.LTS/
    5935                            .dwattr $C$DW$T$50, DW_AT_decl_line(0x3b)
    5936                            .dwattr $C$DW$T$50, DW_AT_decl_column(0x11)
TI ARM Assembler Unix v18.1.1 Fri Jul  3 20:08:25 2020

Tools Copyright (c) 1996-2017 Texas Instruments Incorporated
pwm.asm                                                              PAGE  109

    5937                    
    5938                    $C$DW$T$51      .dwtag  DW_TAG_typedef
    5939                            .dwattr $C$DW$T$51, DW_AT_name("__int_least16_t")
    5940                            .dwattr $C$DW$T$51, DW_AT_type(*$C$DW$T$50)
    5941                            .dwattr $C$DW$T$51, DW_AT_language(DW_LANG_C)
    5942                            .dwattr $C$DW$T$51, DW_AT_decl_file("/home/pola/ti/ccsv8/tools/compiler/ti-cgt-arm_18.1.1.LTS/
    5943                            .dwattr $C$DW$T$51, DW_AT_decl_line(0x59)
    5944                            .dwattr $C$DW$T$51, DW_AT_decl_column(0x13)
    5945                    
    5946                    $C$DW$T$52      .dwtag  DW_TAG_typedef
    5947                            .dwattr $C$DW$T$52, DW_AT_name("int_least16_t")
    5948                            .dwattr $C$DW$T$52, DW_AT_type(*$C$DW$T$51)
    5949                            .dwattr $C$DW$T$52, DW_AT_language(DW_LANG_C)
    5950                            .dwattr $C$DW$T$52, DW_AT_decl_file("/home/pola/ti/ccsv8/tools/compiler/ti-cgt-arm_18.1.1.LTS/
    5951                            .dwattr $C$DW$T$52, DW_AT_decl_line(0x29)
    5952                            .dwattr $C$DW$T$52, DW_AT_decl_column(0x1a)
    5953                    
    5954                    $C$DW$T$53      .dwtag  DW_TAG_typedef
    5955                            .dwattr $C$DW$T$53, DW_AT_name("int16_t")
    5956                            .dwattr $C$DW$T$53, DW_AT_type(*$C$DW$T$50)
    5957                            .dwattr $C$DW$T$53, DW_AT_language(DW_LANG_C)
    5958                            .dwattr $C$DW$T$53, DW_AT_decl_file("/home/pola/ti/ccsv8/tools/compiler/ti-cgt-arm_18.1.1.LTS/
    5959                            .dwattr $C$DW$T$53, DW_AT_decl_line(0x29)
    5960                            .dwattr $C$DW$T$53, DW_AT_decl_column(0x14)
    5961                    
    5962                    $C$DW$T$9       .dwtag  DW_TAG_base_type
    5963                            .dwattr $C$DW$T$9, DW_AT_encoding(DW_ATE_unsigned)
    5964                            .dwattr $C$DW$T$9, DW_AT_name("unsigned short")
    5965                            .dwattr $C$DW$T$9, DW_AT_byte_size(0x02)
    5966                    
    5967                    $C$DW$T$54      .dwtag  DW_TAG_typedef
    5968                            .dwattr $C$DW$T$54, DW_AT_name("___wchar_t")
    5969                            .dwattr $C$DW$T$54, DW_AT_type(*$C$DW$T$9)
    5970                            .dwattr $C$DW$T$54, DW_AT_language(DW_LANG_C)
    5971                            .dwattr $C$DW$T$54, DW_AT_decl_file("/home/pola/ti/ccsv8/tools/compiler/ti-cgt-arm_18.1.1.LTS/
    5972                            .dwattr $C$DW$T$54, DW_AT_decl_line(0x76)
    5973                            .dwattr $C$DW$T$54, DW_AT_decl_column(0x1a)
    5974                    
    5975                    $C$DW$T$34      .dwtag  DW_TAG_typedef
    5976                            .dwattr $C$DW$T$34, DW_AT_name("__uint16_t")
    5977                            .dwattr $C$DW$T$34, DW_AT_type(*$C$DW$T$9)
    5978                            .dwattr $C$DW$T$34, DW_AT_language(DW_LANG_C)
    5979                            .dwattr $C$DW$T$34, DW_AT_decl_file("/home/pola/ti/ccsv8/tools/compiler/ti-cgt-arm_18.1.1.LTS/
    5980                            .dwattr $C$DW$T$34, DW_AT_decl_line(0x3c)
    5981                            .dwattr $C$DW$T$34, DW_AT_decl_column(0x19)
    5982                    
    5983                    $C$DW$T$55      .dwtag  DW_TAG_typedef
    5984                            .dwattr $C$DW$T$55, DW_AT_name("__mode_t")
    5985                            .dwattr $C$DW$T$55, DW_AT_type(*$C$DW$T$34)
    5986                            .dwattr $C$DW$T$55, DW_AT_language(DW_LANG_C)
    5987                            .dwattr $C$DW$T$55, DW_AT_decl_file("/home/pola/ti/ccsv8/tools/compiler/ti-cgt-arm_18.1.1.LTS/
    5988                            .dwattr $C$DW$T$55, DW_AT_decl_line(0x39)
    5989                            .dwattr $C$DW$T$55, DW_AT_decl_column(0x14)
    5990                    
    5991                    $C$DW$T$56      .dwtag  DW_TAG_typedef
TI ARM Assembler Unix v18.1.1 Fri Jul  3 20:08:25 2020

Tools Copyright (c) 1996-2017 Texas Instruments Incorporated
pwm.asm                                                              PAGE  110

    5992                            .dwattr $C$DW$T$56, DW_AT_name("__uint_least16_t")
    5993                            .dwattr $C$DW$T$56, DW_AT_type(*$C$DW$T$34)
    5994                            .dwattr $C$DW$T$56, DW_AT_language(DW_LANG_C)
    5995                            .dwattr $C$DW$T$56, DW_AT_decl_file("/home/pola/ti/ccsv8/tools/compiler/ti-cgt-arm_18.1.1.LTS/
    5996                            .dwattr $C$DW$T$56, DW_AT_decl_line(0x6e)
    5997                            .dwattr $C$DW$T$56, DW_AT_decl_column(0x14)
    5998                    
    5999                    $C$DW$T$57      .dwtag  DW_TAG_typedef
    6000                            .dwattr $C$DW$T$57, DW_AT_name("__char16_t")
    6001                            .dwattr $C$DW$T$57, DW_AT_type(*$C$DW$T$56)
    6002                            .dwattr $C$DW$T$57, DW_AT_language(DW_LANG_C)
    6003                            .dwattr $C$DW$T$57, DW_AT_decl_file("/home/pola/ti/ccsv8/tools/compiler/ti-cgt-arm_18.1.1.LTS/
    6004                            .dwattr $C$DW$T$57, DW_AT_decl_line(0x66)
    6005                            .dwattr $C$DW$T$57, DW_AT_decl_column(0x1a)
    6006                    
    6007                    $C$DW$T$58      .dwtag  DW_TAG_typedef
    6008                            .dwattr $C$DW$T$58, DW_AT_name("uint_least16_t")
    6009                            .dwattr $C$DW$T$58, DW_AT_type(*$C$DW$T$56)
    6010                            .dwattr $C$DW$T$58, DW_AT_language(DW_LANG_C)
    6011                            .dwattr $C$DW$T$58, DW_AT_decl_file("/home/pola/ti/ccsv8/tools/compiler/ti-cgt-arm_18.1.1.LTS/
    6012                            .dwattr $C$DW$T$58, DW_AT_decl_line(0x2e)
    6013                            .dwattr $C$DW$T$58, DW_AT_decl_column(0x1a)
    6014                    
    6015                    $C$DW$T$35      .dwtag  DW_TAG_typedef
    6016                            .dwattr $C$DW$T$35, DW_AT_name("uint16_t")
    6017                            .dwattr $C$DW$T$35, DW_AT_type(*$C$DW$T$34)
    6018                            .dwattr $C$DW$T$35, DW_AT_language(DW_LANG_C)
    6019                            .dwattr $C$DW$T$35, DW_AT_decl_file("/home/pola/ti/ccsv8/tools/compiler/ti-cgt-arm_18.1.1.LTS/
    6020                            .dwattr $C$DW$T$35, DW_AT_decl_line(0x3d)
    6021                            .dwattr $C$DW$T$35, DW_AT_decl_column(0x15)
    6022                    
    6023                    $C$DW$T$10      .dwtag  DW_TAG_base_type
    6024                            .dwattr $C$DW$T$10, DW_AT_encoding(DW_ATE_signed)
    6025                            .dwattr $C$DW$T$10, DW_AT_name("int")
    6026                            .dwattr $C$DW$T$10, DW_AT_byte_size(0x04)
    6027                    
    6028                    $C$DW$T$59      .dwtag  DW_TAG_typedef
    6029                            .dwattr $C$DW$T$59, DW_AT_name("_Mbstatet")
    6030                            .dwattr $C$DW$T$59, DW_AT_type(*$C$DW$T$10)
    6031                            .dwattr $C$DW$T$59, DW_AT_language(DW_LANG_C)
    6032                            .dwattr $C$DW$T$59, DW_AT_decl_file("/home/pola/ti/ccsv8/tools/compiler/ti-cgt-arm_18.1.1.LTS/
    6033                            .dwattr $C$DW$T$59, DW_AT_decl_line(0x84)
    6034                            .dwattr $C$DW$T$59, DW_AT_decl_column(0x0d)
    6035                    
    6036                    $C$DW$T$60      .dwtag  DW_TAG_typedef
    6037                            .dwattr $C$DW$T$60, DW_AT_name("__mbstate_t")
    6038                            .dwattr $C$DW$T$60, DW_AT_type(*$C$DW$T$59)
    6039                            .dwattr $C$DW$T$60, DW_AT_language(DW_LANG_C)
    6040                            .dwattr $C$DW$T$60, DW_AT_decl_file("/home/pola/ti/ccsv8/tools/compiler/ti-cgt-arm_18.1.1.LTS/
    6041                            .dwattr $C$DW$T$60, DW_AT_decl_line(0x87)
    6042                            .dwattr $C$DW$T$60, DW_AT_decl_column(0x13)
    6043                    
    6044                    $C$DW$T$61      .dwtag  DW_TAG_typedef
    6045                            .dwattr $C$DW$T$61, DW_AT_name("__accmode_t")
    6046                            .dwattr $C$DW$T$61, DW_AT_type(*$C$DW$T$10)
TI ARM Assembler Unix v18.1.1 Fri Jul  3 20:08:25 2020

Tools Copyright (c) 1996-2017 Texas Instruments Incorporated
pwm.asm                                                              PAGE  111

    6047                            .dwattr $C$DW$T$61, DW_AT_language(DW_LANG_C)
    6048                            .dwattr $C$DW$T$61, DW_AT_decl_file("/home/pola/ti/ccsv8/tools/compiler/ti-cgt-arm_18.1.1.LTS/
    6049                            .dwattr $C$DW$T$61, DW_AT_decl_line(0x3a)
    6050                            .dwattr $C$DW$T$61, DW_AT_decl_column(0x0e)
    6051                    
    6052                    $C$DW$T$62      .dwtag  DW_TAG_typedef
    6053                            .dwattr $C$DW$T$62, DW_AT_name("__cpulevel_t")
    6054                            .dwattr $C$DW$T$62, DW_AT_type(*$C$DW$T$10)
    6055                            .dwattr $C$DW$T$62, DW_AT_language(DW_LANG_C)
    6056                            .dwattr $C$DW$T$62, DW_AT_decl_file("/home/pola/ti/ccsv8/tools/compiler/ti-cgt-arm_18.1.1.LTS/
    6057                            .dwattr $C$DW$T$62, DW_AT_decl_line(0x4b)
    6058                            .dwattr $C$DW$T$62, DW_AT_decl_column(0x0e)
    6059                    
    6060                    $C$DW$T$63      .dwtag  DW_TAG_typedef
    6061                            .dwattr $C$DW$T$63, DW_AT_name("__cpusetid_t")
    6062                            .dwattr $C$DW$T$63, DW_AT_type(*$C$DW$T$10)
    6063                            .dwattr $C$DW$T$63, DW_AT_language(DW_LANG_C)
    6064                            .dwattr $C$DW$T$63, DW_AT_decl_file("/home/pola/ti/ccsv8/tools/compiler/ti-cgt-arm_18.1.1.LTS/
    6065                            .dwattr $C$DW$T$63, DW_AT_decl_line(0x4c)
    6066                            .dwattr $C$DW$T$63, DW_AT_decl_column(0x0e)
    6067                    
    6068                    $C$DW$T$64      .dwtag  DW_TAG_typedef
    6069                            .dwattr $C$DW$T$64, DW_AT_name("__cpuwhich_t")
    6070                            .dwattr $C$DW$T$64, DW_AT_type(*$C$DW$T$10)
    6071                            .dwattr $C$DW$T$64, DW_AT_language(DW_LANG_C)
    6072                            .dwattr $C$DW$T$64, DW_AT_decl_file("/home/pola/ti/ccsv8/tools/compiler/ti-cgt-arm_18.1.1.LTS/
    6073                            .dwattr $C$DW$T$64, DW_AT_decl_line(0x4a)
    6074                            .dwattr $C$DW$T$64, DW_AT_decl_column(0x0e)
    6075                    
    6076                    $C$DW$T$65      .dwtag  DW_TAG_typedef
    6077                            .dwattr $C$DW$T$65, DW_AT_name("__ct_rune_t")
    6078                            .dwattr $C$DW$T$65, DW_AT_type(*$C$DW$T$10)
    6079                            .dwattr $C$DW$T$65, DW_AT_language(DW_LANG_C)
    6080                            .dwattr $C$DW$T$65, DW_AT_decl_file("/home/pola/ti/ccsv8/tools/compiler/ti-cgt-arm_18.1.1.LTS/
    6081                            .dwattr $C$DW$T$65, DW_AT_decl_line(0x60)
    6082                            .dwattr $C$DW$T$65, DW_AT_decl_column(0x0e)
    6083                    
    6084                    $C$DW$T$66      .dwtag  DW_TAG_typedef
    6085                            .dwattr $C$DW$T$66, DW_AT_name("__rune_t")
    6086                            .dwattr $C$DW$T$66, DW_AT_type(*$C$DW$T$65)
    6087                            .dwattr $C$DW$T$66, DW_AT_language(DW_LANG_C)
    6088                            .dwattr $C$DW$T$66, DW_AT_decl_file("/home/pola/ti/ccsv8/tools/compiler/ti-cgt-arm_18.1.1.LTS/
    6089                            .dwattr $C$DW$T$66, DW_AT_decl_line(0x61)
    6090                            .dwattr $C$DW$T$66, DW_AT_decl_column(0x15)
    6091                    
    6092                    $C$DW$T$67      .dwtag  DW_TAG_typedef
    6093                            .dwattr $C$DW$T$67, DW_AT_name("__wint_t")
    6094                            .dwattr $C$DW$T$67, DW_AT_type(*$C$DW$T$65)
    6095                            .dwattr $C$DW$T$67, DW_AT_language(DW_LANG_C)
    6096                            .dwattr $C$DW$T$67, DW_AT_decl_file("/home/pola/ti/ccsv8/tools/compiler/ti-cgt-arm_18.1.1.LTS/
    6097                            .dwattr $C$DW$T$67, DW_AT_decl_line(0x62)
    6098                            .dwattr $C$DW$T$67, DW_AT_decl_column(0x15)
    6099                    
    6100                    $C$DW$T$68      .dwtag  DW_TAG_typedef
    6101                            .dwattr $C$DW$T$68, DW_AT_name("__int32_t")
TI ARM Assembler Unix v18.1.1 Fri Jul  3 20:08:25 2020

Tools Copyright (c) 1996-2017 Texas Instruments Incorporated
pwm.asm                                                              PAGE  112

    6102                            .dwattr $C$DW$T$68, DW_AT_type(*$C$DW$T$10)
    6103                            .dwattr $C$DW$T$68, DW_AT_language(DW_LANG_C)
    6104                            .dwattr $C$DW$T$68, DW_AT_decl_file("/home/pola/ti/ccsv8/tools/compiler/ti-cgt-arm_18.1.1.LTS/
    6105                            .dwattr $C$DW$T$68, DW_AT_decl_line(0x3d)
    6106                            .dwattr $C$DW$T$68, DW_AT_decl_column(0x0f)
    6107                    
    6108                    $C$DW$T$69      .dwtag  DW_TAG_typedef
    6109                            .dwattr $C$DW$T$69, DW_AT_name("__blksize_t")
    6110                            .dwattr $C$DW$T$69, DW_AT_type(*$C$DW$T$68)
    6111                            .dwattr $C$DW$T$69, DW_AT_language(DW_LANG_C)
    6112                            .dwattr $C$DW$T$69, DW_AT_decl_file("/home/pola/ti/ccsv8/tools/compiler/ti-cgt-arm_18.1.1.LTS/
    6113                            .dwattr $C$DW$T$69, DW_AT_decl_line(0x2e)
    6114                            .dwattr $C$DW$T$69, DW_AT_decl_column(0x13)
    6115                    
    6116                    $C$DW$T$70      .dwtag  DW_TAG_typedef
    6117                            .dwattr $C$DW$T$70, DW_AT_name("__clockid_t")
    6118                            .dwattr $C$DW$T$70, DW_AT_type(*$C$DW$T$68)
    6119                            .dwattr $C$DW$T$70, DW_AT_language(DW_LANG_C)
    6120                            .dwattr $C$DW$T$70, DW_AT_decl_file("/home/pola/ti/ccsv8/tools/compiler/ti-cgt-arm_18.1.1.LTS/
    6121                            .dwattr $C$DW$T$70, DW_AT_decl_line(0x30)
    6122                            .dwattr $C$DW$T$70, DW_AT_decl_column(0x13)
    6123                    
    6124                    $C$DW$T$71      .dwtag  DW_TAG_typedef
    6125                            .dwattr $C$DW$T$71, DW_AT_name("__critical_t")
    6126                            .dwattr $C$DW$T$71, DW_AT_type(*$C$DW$T$68)
    6127                            .dwattr $C$DW$T$71, DW_AT_language(DW_LANG_C)
    6128                            .dwattr $C$DW$T$71, DW_AT_decl_file("/home/pola/ti/ccsv8/tools/compiler/ti-cgt-arm_18.1.1.LTS/
    6129                            .dwattr $C$DW$T$71, DW_AT_decl_line(0x4e)
    6130                            .dwattr $C$DW$T$71, DW_AT_decl_column(0x13)
    6131                    
    6132                    $C$DW$T$72      .dwtag  DW_TAG_typedef
    6133                            .dwattr $C$DW$T$72, DW_AT_name("__int_fast16_t")
    6134                            .dwattr $C$DW$T$72, DW_AT_type(*$C$DW$T$68)
    6135                            .dwattr $C$DW$T$72, DW_AT_language(DW_LANG_C)
    6136                            .dwattr $C$DW$T$72, DW_AT_decl_file("/home/pola/ti/ccsv8/tools/compiler/ti-cgt-arm_18.1.1.LTS/
    6137                            .dwattr $C$DW$T$72, DW_AT_decl_line(0x55)
    6138                            .dwattr $C$DW$T$72, DW_AT_decl_column(0x13)
    6139                    
    6140                    $C$DW$T$73      .dwtag  DW_TAG_typedef
    6141                            .dwattr $C$DW$T$73, DW_AT_name("int_fast16_t")
    6142                            .dwattr $C$DW$T$73, DW_AT_type(*$C$DW$T$72)
    6143                            .dwattr $C$DW$T$73, DW_AT_language(DW_LANG_C)
    6144                            .dwattr $C$DW$T$73, DW_AT_decl_file("/home/pola/ti/ccsv8/tools/compiler/ti-cgt-arm_18.1.1.LTS/
    6145                            .dwattr $C$DW$T$73, DW_AT_decl_line(0x33)
    6146                            .dwattr $C$DW$T$73, DW_AT_decl_column(0x19)
    6147                    
    6148                    $C$DW$T$74      .dwtag  DW_TAG_typedef
    6149                            .dwattr $C$DW$T$74, DW_AT_name("__int_fast32_t")
    6150                            .dwattr $C$DW$T$74, DW_AT_type(*$C$DW$T$68)
    6151                            .dwattr $C$DW$T$74, DW_AT_language(DW_LANG_C)
    6152                            .dwattr $C$DW$T$74, DW_AT_decl_file("/home/pola/ti/ccsv8/tools/compiler/ti-cgt-arm_18.1.1.LTS/
    6153                            .dwattr $C$DW$T$74, DW_AT_decl_line(0x56)
    6154                            .dwattr $C$DW$T$74, DW_AT_decl_column(0x13)
    6155                    
    6156                    $C$DW$T$75      .dwtag  DW_TAG_typedef
TI ARM Assembler Unix v18.1.1 Fri Jul  3 20:08:25 2020

Tools Copyright (c) 1996-2017 Texas Instruments Incorporated
pwm.asm                                                              PAGE  113

    6157                            .dwattr $C$DW$T$75, DW_AT_name("int_fast32_t")
    6158                            .dwattr $C$DW$T$75, DW_AT_type(*$C$DW$T$74)
    6159                            .dwattr $C$DW$T$75, DW_AT_language(DW_LANG_C)
    6160                            .dwattr $C$DW$T$75, DW_AT_decl_file("/home/pola/ti/ccsv8/tools/compiler/ti-cgt-arm_18.1.1.LTS/
    6161                            .dwattr $C$DW$T$75, DW_AT_decl_line(0x34)
    6162                            .dwattr $C$DW$T$75, DW_AT_decl_column(0x19)
    6163                    
    6164                    $C$DW$T$76      .dwtag  DW_TAG_typedef
    6165                            .dwattr $C$DW$T$76, DW_AT_name("__int_fast8_t")
    6166                            .dwattr $C$DW$T$76, DW_AT_type(*$C$DW$T$68)
    6167                            .dwattr $C$DW$T$76, DW_AT_language(DW_LANG_C)
    6168                            .dwattr $C$DW$T$76, DW_AT_decl_file("/home/pola/ti/ccsv8/tools/compiler/ti-cgt-arm_18.1.1.LTS/
    6169                            .dwattr $C$DW$T$76, DW_AT_decl_line(0x54)
    6170                            .dwattr $C$DW$T$76, DW_AT_decl_column(0x13)
    6171                    
    6172                    $C$DW$T$77      .dwtag  DW_TAG_typedef
    6173                            .dwattr $C$DW$T$77, DW_AT_name("int_fast8_t")
    6174                            .dwattr $C$DW$T$77, DW_AT_type(*$C$DW$T$76)
    6175                            .dwattr $C$DW$T$77, DW_AT_language(DW_LANG_C)
    6176                            .dwattr $C$DW$T$77, DW_AT_decl_file("/home/pola/ti/ccsv8/tools/compiler/ti-cgt-arm_18.1.1.LTS/
    6177                            .dwattr $C$DW$T$77, DW_AT_decl_line(0x32)
    6178                            .dwattr $C$DW$T$77, DW_AT_decl_column(0x18)
    6179                    
    6180                    $C$DW$T$78      .dwtag  DW_TAG_typedef
    6181                            .dwattr $C$DW$T$78, DW_AT_name("__int_least32_t")
    6182                            .dwattr $C$DW$T$78, DW_AT_type(*$C$DW$T$68)
    6183                            .dwattr $C$DW$T$78, DW_AT_language(DW_LANG_C)
    6184                            .dwattr $C$DW$T$78, DW_AT_decl_file("/home/pola/ti/ccsv8/tools/compiler/ti-cgt-arm_18.1.1.LTS/
    6185                            .dwattr $C$DW$T$78, DW_AT_decl_line(0x5a)
    6186                            .dwattr $C$DW$T$78, DW_AT_decl_column(0x13)
    6187                    
    6188                    $C$DW$T$79      .dwtag  DW_TAG_typedef
    6189                            .dwattr $C$DW$T$79, DW_AT_name("int_least32_t")
    6190                            .dwattr $C$DW$T$79, DW_AT_type(*$C$DW$T$78)
    6191                            .dwattr $C$DW$T$79, DW_AT_language(DW_LANG_C)
    6192                            .dwattr $C$DW$T$79, DW_AT_decl_file("/home/pola/ti/ccsv8/tools/compiler/ti-cgt-arm_18.1.1.LTS/
    6193                            .dwattr $C$DW$T$79, DW_AT_decl_line(0x2a)
    6194                            .dwattr $C$DW$T$79, DW_AT_decl_column(0x1a)
    6195                    
    6196                    $C$DW$T$80      .dwtag  DW_TAG_typedef
    6197                            .dwattr $C$DW$T$80, DW_AT_name("__intfptr_t")
    6198                            .dwattr $C$DW$T$80, DW_AT_type(*$C$DW$T$68)
    6199                            .dwattr $C$DW$T$80, DW_AT_language(DW_LANG_C)
    6200                            .dwattr $C$DW$T$80, DW_AT_decl_file("/home/pola/ti/ccsv8/tools/compiler/ti-cgt-arm_18.1.1.LTS/
    6201                            .dwattr $C$DW$T$80, DW_AT_decl_line(0x51)
    6202                            .dwattr $C$DW$T$80, DW_AT_decl_column(0x13)
    6203                    
    6204                    $C$DW$T$81      .dwtag  DW_TAG_typedef
    6205                            .dwattr $C$DW$T$81, DW_AT_name("__intptr_t")
    6206                            .dwattr $C$DW$T$81, DW_AT_type(*$C$DW$T$68)
    6207                            .dwattr $C$DW$T$81, DW_AT_language(DW_LANG_C)
    6208                            .dwattr $C$DW$T$81, DW_AT_decl_file("/home/pola/ti/ccsv8/tools/compiler/ti-cgt-arm_18.1.1.LTS/
    6209                            .dwattr $C$DW$T$81, DW_AT_decl_line(0x53)
    6210                            .dwattr $C$DW$T$81, DW_AT_decl_column(0x13)
    6211                    
TI ARM Assembler Unix v18.1.1 Fri Jul  3 20:08:25 2020

Tools Copyright (c) 1996-2017 Texas Instruments Incorporated
pwm.asm                                                              PAGE  114

    6212                    $C$DW$T$82      .dwtag  DW_TAG_typedef
    6213                            .dwattr $C$DW$T$82, DW_AT_name("intptr_t")
    6214                            .dwattr $C$DW$T$82, DW_AT_type(*$C$DW$T$81)
    6215                            .dwattr $C$DW$T$82, DW_AT_language(DW_LANG_C)
    6216                            .dwattr $C$DW$T$82, DW_AT_decl_file("/home/pola/ti/ccsv8/tools/compiler/ti-cgt-arm_18.1.1.LTS/
    6217                            .dwattr $C$DW$T$82, DW_AT_decl_line(0x4c)
    6218                            .dwattr $C$DW$T$82, DW_AT_decl_column(0x15)
    6219                    
    6220                    $C$DW$T$83      .dwtag  DW_TAG_typedef
    6221                            .dwattr $C$DW$T$83, DW_AT_name("__lwpid_t")
    6222                            .dwattr $C$DW$T$83, DW_AT_type(*$C$DW$T$68)
    6223                            .dwattr $C$DW$T$83, DW_AT_language(DW_LANG_C)
    6224                            .dwattr $C$DW$T$83, DW_AT_decl_file("/home/pola/ti/ccsv8/tools/compiler/ti-cgt-arm_18.1.1.LTS/
    6225                            .dwattr $C$DW$T$83, DW_AT_decl_line(0x38)
    6226                            .dwattr $C$DW$T$83, DW_AT_decl_column(0x13)
    6227                    
    6228                    $C$DW$T$84      .dwtag  DW_TAG_typedef
    6229                            .dwattr $C$DW$T$84, DW_AT_name("__pid_t")
    6230                            .dwattr $C$DW$T$84, DW_AT_type(*$C$DW$T$68)
    6231                            .dwattr $C$DW$T$84, DW_AT_language(DW_LANG_C)
    6232                            .dwattr $C$DW$T$84, DW_AT_decl_file("/home/pola/ti/ccsv8/tools/compiler/ti-cgt-arm_18.1.1.LTS/
    6233                            .dwattr $C$DW$T$84, DW_AT_decl_line(0x3f)
    6234                            .dwattr $C$DW$T$84, DW_AT_decl_column(0x13)
    6235                    
    6236                    $C$DW$T$85      .dwtag  DW_TAG_typedef
    6237                            .dwattr $C$DW$T$85, DW_AT_name("__ptrdiff_t")
    6238                            .dwattr $C$DW$T$85, DW_AT_type(*$C$DW$T$68)
    6239                            .dwattr $C$DW$T$85, DW_AT_language(DW_LANG_C)
    6240                            .dwattr $C$DW$T$85, DW_AT_decl_file("/home/pola/ti/ccsv8/tools/compiler/ti-cgt-arm_18.1.1.LTS/
    6241                            .dwattr $C$DW$T$85, DW_AT_decl_line(0x5c)
    6242                            .dwattr $C$DW$T$85, DW_AT_decl_column(0x13)
    6243                    
    6244                    $C$DW$T$86      .dwtag  DW_TAG_typedef
    6245                            .dwattr $C$DW$T$86, DW_AT_name("__register_t")
    6246                            .dwattr $C$DW$T$86, DW_AT_type(*$C$DW$T$68)
    6247                            .dwattr $C$DW$T$86, DW_AT_language(DW_LANG_C)
    6248                            .dwattr $C$DW$T$86, DW_AT_decl_file("/home/pola/ti/ccsv8/tools/compiler/ti-cgt-arm_18.1.1.LTS/
    6249                            .dwattr $C$DW$T$86, DW_AT_decl_line(0x5d)
    6250                            .dwattr $C$DW$T$86, DW_AT_decl_column(0x13)
    6251                    
    6252                    $C$DW$T$87      .dwtag  DW_TAG_typedef
    6253                            .dwattr $C$DW$T$87, DW_AT_name("__segsz_t")
    6254                            .dwattr $C$DW$T$87, DW_AT_type(*$C$DW$T$68)
    6255                            .dwattr $C$DW$T$87, DW_AT_language(DW_LANG_C)
    6256                            .dwattr $C$DW$T$87, DW_AT_decl_file("/home/pola/ti/ccsv8/tools/compiler/ti-cgt-arm_18.1.1.LTS/
    6257                            .dwattr $C$DW$T$87, DW_AT_decl_line(0x5e)
    6258                            .dwattr $C$DW$T$87, DW_AT_decl_column(0x13)
    6259                    
    6260                    $C$DW$T$88      .dwtag  DW_TAG_typedef
    6261                            .dwattr $C$DW$T$88, DW_AT_name("__ssize_t")
    6262                            .dwattr $C$DW$T$88, DW_AT_type(*$C$DW$T$68)
    6263                            .dwattr $C$DW$T$88, DW_AT_language(DW_LANG_C)
    6264                            .dwattr $C$DW$T$88, DW_AT_decl_file("/home/pola/ti/ccsv8/tools/compiler/ti-cgt-arm_18.1.1.LTS/
    6265                            .dwattr $C$DW$T$88, DW_AT_decl_line(0x60)
    6266                            .dwattr $C$DW$T$88, DW_AT_decl_column(0x13)
TI ARM Assembler Unix v18.1.1 Fri Jul  3 20:08:25 2020

Tools Copyright (c) 1996-2017 Texas Instruments Incorporated
pwm.asm                                                              PAGE  115

    6267                    
    6268                    $C$DW$T$89      .dwtag  DW_TAG_typedef
    6269                            .dwattr $C$DW$T$89, DW_AT_name("int32_t")
    6270                            .dwattr $C$DW$T$89, DW_AT_type(*$C$DW$T$68)
    6271                            .dwattr $C$DW$T$89, DW_AT_language(DW_LANG_C)
    6272                            .dwattr $C$DW$T$89, DW_AT_decl_file("/home/pola/ti/ccsv8/tools/compiler/ti-cgt-arm_18.1.1.LTS/
    6273                            .dwattr $C$DW$T$89, DW_AT_decl_line(0x2e)
    6274                            .dwattr $C$DW$T$89, DW_AT_decl_column(0x14)
    6275                    
    6276                    $C$DW$T$90      .dwtag  DW_TAG_typedef
    6277                            .dwattr $C$DW$T$90, DW_AT_name("__nl_item")
    6278                            .dwattr $C$DW$T$90, DW_AT_type(*$C$DW$T$10)
    6279                            .dwattr $C$DW$T$90, DW_AT_language(DW_LANG_C)
    6280                            .dwattr $C$DW$T$90, DW_AT_decl_file("/home/pola/ti/ccsv8/tools/compiler/ti-cgt-arm_18.1.1.LTS/
    6281                            .dwattr $C$DW$T$90, DW_AT_decl_line(0x3b)
    6282                            .dwattr $C$DW$T$90, DW_AT_decl_column(0x0e)
    6283                    
    6284                    $C$DW$T$11      .dwtag  DW_TAG_base_type
    6285                            .dwattr $C$DW$T$11, DW_AT_encoding(DW_ATE_unsigned)
    6286                            .dwattr $C$DW$T$11, DW_AT_name("unsigned int")
    6287                            .dwattr $C$DW$T$11, DW_AT_byte_size(0x04)
    6288                    
    6289                    $C$DW$T$26      .dwtag  DW_TAG_typedef
    6290                            .dwattr $C$DW$T$26, DW_AT_name("__uint32_t")
    6291                            .dwattr $C$DW$T$26, DW_AT_type(*$C$DW$T$11)
    6292                            .dwattr $C$DW$T$26, DW_AT_language(DW_LANG_C)
    6293                            .dwattr $C$DW$T$26, DW_AT_decl_file("/home/pola/ti/ccsv8/tools/compiler/ti-cgt-arm_18.1.1.LTS/
    6294                            .dwattr $C$DW$T$26, DW_AT_decl_line(0x3e)
    6295                            .dwattr $C$DW$T$26, DW_AT_decl_column(0x17)
    6296                    
    6297                    $C$DW$T$91      .dwtag  DW_TAG_typedef
    6298                            .dwattr $C$DW$T$91, DW_AT_name("__clock_t")
    6299                            .dwattr $C$DW$T$91, DW_AT_type(*$C$DW$T$26)
    6300                            .dwattr $C$DW$T$91, DW_AT_language(DW_LANG_C)
    6301                            .dwattr $C$DW$T$91, DW_AT_decl_file("/home/pola/ti/ccsv8/tools/compiler/ti-cgt-arm_18.1.1.LTS/
    6302                            .dwattr $C$DW$T$91, DW_AT_decl_line(0x4d)
    6303                            .dwattr $C$DW$T$91, DW_AT_decl_column(0x14)
    6304                    
    6305                    $C$DW$T$92      .dwtag  DW_TAG_typedef
    6306                            .dwattr $C$DW$T$92, DW_AT_name("__fflags_t")
    6307                            .dwattr $C$DW$T$92, DW_AT_type(*$C$DW$T$26)
    6308                            .dwattr $C$DW$T$92, DW_AT_language(DW_LANG_C)
    6309                            .dwattr $C$DW$T$92, DW_AT_decl_file("/home/pola/ti/ccsv8/tools/compiler/ti-cgt-arm_18.1.1.LTS/
    6310                            .dwattr $C$DW$T$92, DW_AT_decl_line(0x31)
    6311                            .dwattr $C$DW$T$92, DW_AT_decl_column(0x14)
    6312                    
    6313                    $C$DW$T$93      .dwtag  DW_TAG_typedef
    6314                            .dwattr $C$DW$T$93, DW_AT_name("__fixpt_t")
    6315                            .dwattr $C$DW$T$93, DW_AT_type(*$C$DW$T$26)
    6316                            .dwattr $C$DW$T$93, DW_AT_language(DW_LANG_C)
    6317                            .dwattr $C$DW$T$93, DW_AT_decl_file("/home/pola/ti/ccsv8/tools/compiler/ti-cgt-arm_18.1.1.LTS/
    6318                            .dwattr $C$DW$T$93, DW_AT_decl_line(0x76)
    6319                            .dwattr $C$DW$T$93, DW_AT_decl_column(0x14)
    6320                    
    6321                    $C$DW$T$94      .dwtag  DW_TAG_typedef
TI ARM Assembler Unix v18.1.1 Fri Jul  3 20:08:25 2020

Tools Copyright (c) 1996-2017 Texas Instruments Incorporated
pwm.asm                                                              PAGE  116

    6322                            .dwattr $C$DW$T$94, DW_AT_name("__gid_t")
    6323                            .dwattr $C$DW$T$94, DW_AT_type(*$C$DW$T$26)
    6324                            .dwattr $C$DW$T$94, DW_AT_language(DW_LANG_C)
    6325                            .dwattr $C$DW$T$94, DW_AT_decl_file("/home/pola/ti/ccsv8/tools/compiler/ti-cgt-arm_18.1.1.LTS/
    6326                            .dwattr $C$DW$T$94, DW_AT_decl_line(0x34)
    6327                            .dwattr $C$DW$T$94, DW_AT_decl_column(0x14)
    6328                    
    6329                    $C$DW$T$95      .dwtag  DW_TAG_typedef
    6330                            .dwattr $C$DW$T$95, DW_AT_name("__size_t")
    6331                            .dwattr $C$DW$T$95, DW_AT_type(*$C$DW$T$26)
    6332                            .dwattr $C$DW$T$95, DW_AT_language(DW_LANG_C)
    6333                            .dwattr $C$DW$T$95, DW_AT_decl_file("/home/pola/ti/ccsv8/tools/compiler/ti-cgt-arm_18.1.1.LTS/
    6334                            .dwattr $C$DW$T$95, DW_AT_decl_line(0x5f)
    6335                            .dwattr $C$DW$T$95, DW_AT_decl_column(0x14)
    6336                    
    6337                    $C$DW$T$96      .dwtag  DW_TAG_typedef
    6338                            .dwattr $C$DW$T$96, DW_AT_name("__socklen_t")
    6339                            .dwattr $C$DW$T$96, DW_AT_type(*$C$DW$T$26)
    6340                            .dwattr $C$DW$T$96, DW_AT_language(DW_LANG_C)
    6341                            .dwattr $C$DW$T$96, DW_AT_decl_file("/home/pola/ti/ccsv8/tools/compiler/ti-cgt-arm_18.1.1.LTS/
    6342                            .dwattr $C$DW$T$96, DW_AT_decl_line(0x44)
    6343                            .dwattr $C$DW$T$96, DW_AT_decl_column(0x14)
    6344                    
    6345                    $C$DW$T$97      .dwtag  DW_TAG_typedef
    6346                            .dwattr $C$DW$T$97, DW_AT_name("__time_t")
    6347                            .dwattr $C$DW$T$97, DW_AT_type(*$C$DW$T$26)
    6348                            .dwattr $C$DW$T$97, DW_AT_language(DW_LANG_C)
    6349                            .dwattr $C$DW$T$97, DW_AT_decl_file("/home/pola/ti/ccsv8/tools/compiler/ti-cgt-arm_18.1.1.LTS/
    6350                            .dwattr $C$DW$T$97, DW_AT_decl_line(0x64)
    6351                            .dwattr $C$DW$T$97, DW_AT_decl_column(0x19)
    6352                    
    6353                    $C$DW$T$98      .dwtag  DW_TAG_typedef
    6354                            .dwattr $C$DW$T$98, DW_AT_name("__u_register_t")
    6355                            .dwattr $C$DW$T$98, DW_AT_type(*$C$DW$T$26)
    6356                            .dwattr $C$DW$T$98, DW_AT_language(DW_LANG_C)
    6357                            .dwattr $C$DW$T$98, DW_AT_decl_file("/home/pola/ti/ccsv8/tools/compiler/ti-cgt-arm_18.1.1.LTS/
    6358                            .dwattr $C$DW$T$98, DW_AT_decl_line(0x71)
    6359                            .dwattr $C$DW$T$98, DW_AT_decl_column(0x14)
    6360                    
    6361                    $C$DW$T$99      .dwtag  DW_TAG_typedef
    6362                            .dwattr $C$DW$T$99, DW_AT_name("__uid_t")
    6363                            .dwattr $C$DW$T$99, DW_AT_type(*$C$DW$T$26)
    6364                            .dwattr $C$DW$T$99, DW_AT_language(DW_LANG_C)
    6365                            .dwattr $C$DW$T$99, DW_AT_decl_file("/home/pola/ti/ccsv8/tools/compiler/ti-cgt-arm_18.1.1.LTS/
    6366                            .dwattr $C$DW$T$99, DW_AT_decl_line(0x48)
    6367                            .dwattr $C$DW$T$99, DW_AT_decl_column(0x14)
    6368                    
    6369                    $C$DW$T$100     .dwtag  DW_TAG_typedef
    6370                            .dwattr $C$DW$T$100, DW_AT_name("__uint_fast16_t")
    6371                            .dwattr $C$DW$T$100, DW_AT_type(*$C$DW$T$26)
    6372                            .dwattr $C$DW$T$100, DW_AT_language(DW_LANG_C)
    6373                            .dwattr $C$DW$T$100, DW_AT_decl_file("/home/pola/ti/ccsv8/tools/compiler/ti-cgt-arm_18.1.1.LTS
    6374                            .dwattr $C$DW$T$100, DW_AT_decl_line(0x6a)
    6375                            .dwattr $C$DW$T$100, DW_AT_decl_column(0x14)
    6376                    
TI ARM Assembler Unix v18.1.1 Fri Jul  3 20:08:25 2020

Tools Copyright (c) 1996-2017 Texas Instruments Incorporated
pwm.asm                                                              PAGE  117

    6377                    $C$DW$T$101     .dwtag  DW_TAG_typedef
    6378                            .dwattr $C$DW$T$101, DW_AT_name("uint_fast16_t")
    6379                            .dwattr $C$DW$T$101, DW_AT_type(*$C$DW$T$100)
    6380                            .dwattr $C$DW$T$101, DW_AT_language(DW_LANG_C)
    6381                            .dwattr $C$DW$T$101, DW_AT_decl_file("/home/pola/ti/ccsv8/tools/compiler/ti-cgt-arm_18.1.1.LTS
    6382                            .dwattr $C$DW$T$101, DW_AT_decl_line(0x38)
    6383                            .dwattr $C$DW$T$101, DW_AT_decl_column(0x1a)
    6384                    
    6385                    $C$DW$T$102     .dwtag  DW_TAG_typedef
    6386                            .dwattr $C$DW$T$102, DW_AT_name("__uint_fast32_t")
    6387                            .dwattr $C$DW$T$102, DW_AT_type(*$C$DW$T$26)
    6388                            .dwattr $C$DW$T$102, DW_AT_language(DW_LANG_C)
    6389                            .dwattr $C$DW$T$102, DW_AT_decl_file("/home/pola/ti/ccsv8/tools/compiler/ti-cgt-arm_18.1.1.LTS
    6390                            .dwattr $C$DW$T$102, DW_AT_decl_line(0x6b)
    6391                            .dwattr $C$DW$T$102, DW_AT_decl_column(0x14)
    6392                    
    6393                    $C$DW$T$103     .dwtag  DW_TAG_typedef
    6394                            .dwattr $C$DW$T$103, DW_AT_name("uint_fast32_t")
    6395                            .dwattr $C$DW$T$103, DW_AT_type(*$C$DW$T$102)
    6396                            .dwattr $C$DW$T$103, DW_AT_language(DW_LANG_C)
    6397                            .dwattr $C$DW$T$103, DW_AT_decl_file("/home/pola/ti/ccsv8/tools/compiler/ti-cgt-arm_18.1.1.LTS
    6398                            .dwattr $C$DW$T$103, DW_AT_decl_line(0x39)
    6399                            .dwattr $C$DW$T$103, DW_AT_decl_column(0x1a)
    6400                    
    6401                    $C$DW$T$104     .dwtag  DW_TAG_typedef
    6402                            .dwattr $C$DW$T$104, DW_AT_name("__uint_fast8_t")
    6403                            .dwattr $C$DW$T$104, DW_AT_type(*$C$DW$T$26)
    6404                            .dwattr $C$DW$T$104, DW_AT_language(DW_LANG_C)
    6405                            .dwattr $C$DW$T$104, DW_AT_decl_file("/home/pola/ti/ccsv8/tools/compiler/ti-cgt-arm_18.1.1.LTS
    6406                            .dwattr $C$DW$T$104, DW_AT_decl_line(0x69)
    6407                            .dwattr $C$DW$T$104, DW_AT_decl_column(0x14)
    6408                    
    6409                    $C$DW$T$105     .dwtag  DW_TAG_typedef
    6410                            .dwattr $C$DW$T$105, DW_AT_name("uint_fast8_t")
    6411                            .dwattr $C$DW$T$105, DW_AT_type(*$C$DW$T$104)
    6412                            .dwattr $C$DW$T$105, DW_AT_language(DW_LANG_C)
    6413                            .dwattr $C$DW$T$105, DW_AT_decl_file("/home/pola/ti/ccsv8/tools/compiler/ti-cgt-arm_18.1.1.LTS
    6414                            .dwattr $C$DW$T$105, DW_AT_decl_line(0x37)
    6415                            .dwattr $C$DW$T$105, DW_AT_decl_column(0x19)
    6416                    
    6417                    $C$DW$T$106     .dwtag  DW_TAG_typedef
    6418                            .dwattr $C$DW$T$106, DW_AT_name("__uint_least32_t")
    6419                            .dwattr $C$DW$T$106, DW_AT_type(*$C$DW$T$26)
    6420                            .dwattr $C$DW$T$106, DW_AT_language(DW_LANG_C)
    6421                            .dwattr $C$DW$T$106, DW_AT_decl_file("/home/pola/ti/ccsv8/tools/compiler/ti-cgt-arm_18.1.1.LTS
    6422                            .dwattr $C$DW$T$106, DW_AT_decl_line(0x6f)
    6423                            .dwattr $C$DW$T$106, DW_AT_decl_column(0x14)
    6424                    
    6425                    $C$DW$T$107     .dwtag  DW_TAG_typedef
    6426                            .dwattr $C$DW$T$107, DW_AT_name("__char32_t")
    6427                            .dwattr $C$DW$T$107, DW_AT_type(*$C$DW$T$106)
    6428                            .dwattr $C$DW$T$107, DW_AT_language(DW_LANG_C)
    6429                            .dwattr $C$DW$T$107, DW_AT_decl_file("/home/pola/ti/ccsv8/tools/compiler/ti-cgt-arm_18.1.1.LTS
    6430                            .dwattr $C$DW$T$107, DW_AT_decl_line(0x67)
    6431                            .dwattr $C$DW$T$107, DW_AT_decl_column(0x1a)
TI ARM Assembler Unix v18.1.1 Fri Jul  3 20:08:25 2020

Tools Copyright (c) 1996-2017 Texas Instruments Incorporated
pwm.asm                                                              PAGE  118

    6432                    
    6433                    $C$DW$T$108     .dwtag  DW_TAG_typedef
    6434                            .dwattr $C$DW$T$108, DW_AT_name("uint_least32_t")
    6435                            .dwattr $C$DW$T$108, DW_AT_type(*$C$DW$T$106)
    6436                            .dwattr $C$DW$T$108, DW_AT_language(DW_LANG_C)
    6437                            .dwattr $C$DW$T$108, DW_AT_decl_file("/home/pola/ti/ccsv8/tools/compiler/ti-cgt-arm_18.1.1.LTS
    6438                            .dwattr $C$DW$T$108, DW_AT_decl_line(0x2f)
    6439                            .dwattr $C$DW$T$108, DW_AT_decl_column(0x1a)
    6440                    
    6441                    $C$DW$T$109     .dwtag  DW_TAG_typedef
    6442                            .dwattr $C$DW$T$109, DW_AT_name("__uintfptr_t")
    6443                            .dwattr $C$DW$T$109, DW_AT_type(*$C$DW$T$26)
    6444                            .dwattr $C$DW$T$109, DW_AT_language(DW_LANG_C)
    6445                            .dwattr $C$DW$T$109, DW_AT_decl_file("/home/pola/ti/ccsv8/tools/compiler/ti-cgt-arm_18.1.1.LTS
    6446                            .dwattr $C$DW$T$109, DW_AT_decl_line(0x66)
    6447                            .dwattr $C$DW$T$109, DW_AT_decl_column(0x14)
    6448                    
    6449                    $C$DW$T$110     .dwtag  DW_TAG_typedef
    6450                            .dwattr $C$DW$T$110, DW_AT_name("__uintptr_t")
    6451                            .dwattr $C$DW$T$110, DW_AT_type(*$C$DW$T$26)
    6452                            .dwattr $C$DW$T$110, DW_AT_language(DW_LANG_C)
    6453                            .dwattr $C$DW$T$110, DW_AT_decl_file("/home/pola/ti/ccsv8/tools/compiler/ti-cgt-arm_18.1.1.LTS
    6454                            .dwattr $C$DW$T$110, DW_AT_decl_line(0x68)
    6455                            .dwattr $C$DW$T$110, DW_AT_decl_column(0x14)
    6456                    
    6457                    $C$DW$T$111     .dwtag  DW_TAG_typedef
    6458                            .dwattr $C$DW$T$111, DW_AT_name("uintptr_t")
    6459                            .dwattr $C$DW$T$111, DW_AT_type(*$C$DW$T$110)
    6460                            .dwattr $C$DW$T$111, DW_AT_language(DW_LANG_C)
    6461                            .dwattr $C$DW$T$111, DW_AT_decl_file("/home/pola/ti/ccsv8/tools/compiler/ti-cgt-arm_18.1.1.LTS
    6462                            .dwattr $C$DW$T$111, DW_AT_decl_line(0x50)
    6463                            .dwattr $C$DW$T$111, DW_AT_decl_column(0x16)
    6464                    
    6465                    $C$DW$T$112     .dwtag  DW_TAG_typedef
    6466                            .dwattr $C$DW$T$112, DW_AT_name("__vm_offset_t")
    6467                            .dwattr $C$DW$T$112, DW_AT_type(*$C$DW$T$26)
    6468                            .dwattr $C$DW$T$112, DW_AT_language(DW_LANG_C)
    6469                            .dwattr $C$DW$T$112, DW_AT_decl_file("/home/pola/ti/ccsv8/tools/compiler/ti-cgt-arm_18.1.1.LTS
    6470                            .dwattr $C$DW$T$112, DW_AT_decl_line(0x72)
    6471                            .dwattr $C$DW$T$112, DW_AT_decl_column(0x14)
    6472                    
    6473                    $C$DW$T$113     .dwtag  DW_TAG_typedef
    6474                            .dwattr $C$DW$T$113, DW_AT_name("__vm_paddr_t")
    6475                            .dwattr $C$DW$T$113, DW_AT_type(*$C$DW$T$26)
    6476                            .dwattr $C$DW$T$113, DW_AT_language(DW_LANG_C)
    6477                            .dwattr $C$DW$T$113, DW_AT_decl_file("/home/pola/ti/ccsv8/tools/compiler/ti-cgt-arm_18.1.1.LTS
    6478                            .dwattr $C$DW$T$113, DW_AT_decl_line(0x73)
    6479                            .dwattr $C$DW$T$113, DW_AT_decl_column(0x14)
    6480                    
    6481                    $C$DW$T$114     .dwtag  DW_TAG_typedef
    6482                            .dwattr $C$DW$T$114, DW_AT_name("__vm_size_t")
    6483                            .dwattr $C$DW$T$114, DW_AT_type(*$C$DW$T$26)
    6484                            .dwattr $C$DW$T$114, DW_AT_language(DW_LANG_C)
    6485                            .dwattr $C$DW$T$114, DW_AT_decl_file("/home/pola/ti/ccsv8/tools/compiler/ti-cgt-arm_18.1.1.LTS
    6486                            .dwattr $C$DW$T$114, DW_AT_decl_line(0x74)
TI ARM Assembler Unix v18.1.1 Fri Jul  3 20:08:25 2020

Tools Copyright (c) 1996-2017 Texas Instruments Incorporated
pwm.asm                                                              PAGE  119

    6487                            .dwattr $C$DW$T$114, DW_AT_decl_column(0x14)
    6488                    
    6489                    $C$DW$T$27      .dwtag  DW_TAG_typedef
    6490                            .dwattr $C$DW$T$27, DW_AT_name("uint32_t")
    6491                            .dwattr $C$DW$T$27, DW_AT_type(*$C$DW$T$26)
    6492                            .dwattr $C$DW$T$27, DW_AT_language(DW_LANG_C)
    6493                            .dwattr $C$DW$T$27, DW_AT_decl_file("/home/pola/ti/ccsv8/tools/compiler/ti-cgt-arm_18.1.1.LTS/
    6494                            .dwattr $C$DW$T$27, DW_AT_decl_line(0x42)
    6495                            .dwattr $C$DW$T$27, DW_AT_decl_column(0x15)
    6496                    
    6497                    $C$DW$T$124     .dwtag  DW_TAG_typedef
    6498                            .dwattr $C$DW$T$124, DW_AT_name("__useconds_t")
    6499                            .dwattr $C$DW$T$124, DW_AT_type(*$C$DW$T$11)
    6500                            .dwattr $C$DW$T$124, DW_AT_language(DW_LANG_C)
    6501                            .dwattr $C$DW$T$124, DW_AT_decl_file("/home/pola/ti/ccsv8/tools/compiler/ti-cgt-arm_18.1.1.LTS
    6502                            .dwattr $C$DW$T$124, DW_AT_decl_line(0x49)
    6503                            .dwattr $C$DW$T$124, DW_AT_decl_column(0x16)
    6504                    
    6505                    $C$DW$T$12      .dwtag  DW_TAG_base_type
    6506                            .dwattr $C$DW$T$12, DW_AT_encoding(DW_ATE_signed)
    6507                            .dwattr $C$DW$T$12, DW_AT_name("long")
    6508                            .dwattr $C$DW$T$12, DW_AT_byte_size(0x04)
    6509                    
    6510                    $C$DW$T$125     .dwtag  DW_TAG_typedef
    6511                            .dwattr $C$DW$T$125, DW_AT_name("__key_t")
    6512                            .dwattr $C$DW$T$125, DW_AT_type(*$C$DW$T$12)
    6513                            .dwattr $C$DW$T$125, DW_AT_language(DW_LANG_C)
    6514                            .dwattr $C$DW$T$125, DW_AT_decl_file("/home/pola/ti/ccsv8/tools/compiler/ti-cgt-arm_18.1.1.LTS
    6515                            .dwattr $C$DW$T$125, DW_AT_decl_line(0x37)
    6516                            .dwattr $C$DW$T$125, DW_AT_decl_column(0x0f)
    6517                    
    6518                    $C$DW$T$126     .dwtag  DW_TAG_typedef
    6519                            .dwattr $C$DW$T$126, DW_AT_name("__suseconds_t")
    6520                            .dwattr $C$DW$T$126, DW_AT_type(*$C$DW$T$12)
    6521                            .dwattr $C$DW$T$126, DW_AT_language(DW_LANG_C)
    6522                            .dwattr $C$DW$T$126, DW_AT_decl_file("/home/pola/ti/ccsv8/tools/compiler/ti-cgt-arm_18.1.1.LTS
    6523                            .dwattr $C$DW$T$126, DW_AT_decl_line(0x45)
    6524                            .dwattr $C$DW$T$126, DW_AT_decl_column(0x0f)
    6525                    
    6526                    $C$DW$T$13      .dwtag  DW_TAG_base_type
    6527                            .dwattr $C$DW$T$13, DW_AT_encoding(DW_ATE_unsigned)
    6528                            .dwattr $C$DW$T$13, DW_AT_name("unsigned long")
    6529                            .dwattr $C$DW$T$13, DW_AT_byte_size(0x04)
    6530                    
    6531                    $C$DW$T$14      .dwtag  DW_TAG_base_type
    6532                            .dwattr $C$DW$T$14, DW_AT_encoding(DW_ATE_signed)
    6533                            .dwattr $C$DW$T$14, DW_AT_name("long long")
    6534                            .dwattr $C$DW$T$14, DW_AT_byte_size(0x08)
    6535                    
    6536                    $C$DW$T$127     .dwtag  DW_TAG_typedef
    6537                            .dwattr $C$DW$T$127, DW_AT_name("__int64_t")
    6538                            .dwattr $C$DW$T$127, DW_AT_type(*$C$DW$T$14)
    6539                            .dwattr $C$DW$T$127, DW_AT_language(DW_LANG_C)
    6540                            .dwattr $C$DW$T$127, DW_AT_decl_file("/home/pola/ti/ccsv8/tools/compiler/ti-cgt-arm_18.1.1.LTS
    6541                            .dwattr $C$DW$T$127, DW_AT_decl_line(0x43)
TI ARM Assembler Unix v18.1.1 Fri Jul  3 20:08:25 2020

Tools Copyright (c) 1996-2017 Texas Instruments Incorporated
pwm.asm                                                              PAGE  120

    6542                            .dwattr $C$DW$T$127, DW_AT_decl_column(0x14)
    6543                    
    6544                    $C$DW$T$128     .dwtag  DW_TAG_typedef
    6545                            .dwattr $C$DW$T$128, DW_AT_name("__blkcnt_t")
    6546                            .dwattr $C$DW$T$128, DW_AT_type(*$C$DW$T$127)
    6547                            .dwattr $C$DW$T$128, DW_AT_language(DW_LANG_C)
    6548                            .dwattr $C$DW$T$128, DW_AT_decl_file("/home/pola/ti/ccsv8/tools/compiler/ti-cgt-arm_18.1.1.LTS
    6549                            .dwattr $C$DW$T$128, DW_AT_decl_line(0x2f)
    6550                            .dwattr $C$DW$T$128, DW_AT_decl_column(0x13)
    6551                    
    6552                    $C$DW$T$129     .dwtag  DW_TAG_typedef
    6553                            .dwattr $C$DW$T$129, DW_AT_name("__id_t")
    6554                            .dwattr $C$DW$T$129, DW_AT_type(*$C$DW$T$127)
    6555                            .dwattr $C$DW$T$129, DW_AT_language(DW_LANG_C)
    6556                            .dwattr $C$DW$T$129, DW_AT_decl_file("/home/pola/ti/ccsv8/tools/compiler/ti-cgt-arm_18.1.1.LTS
    6557                            .dwattr $C$DW$T$129, DW_AT_decl_line(0x35)
    6558                            .dwattr $C$DW$T$129, DW_AT_decl_column(0x13)
    6559                    
    6560                    $C$DW$T$130     .dwtag  DW_TAG_typedef
    6561                            .dwattr $C$DW$T$130, DW_AT_name("__int_fast64_t")
    6562                            .dwattr $C$DW$T$130, DW_AT_type(*$C$DW$T$127)
    6563                            .dwattr $C$DW$T$130, DW_AT_language(DW_LANG_C)
    6564                            .dwattr $C$DW$T$130, DW_AT_decl_file("/home/pola/ti/ccsv8/tools/compiler/ti-cgt-arm_18.1.1.LTS
    6565                            .dwattr $C$DW$T$130, DW_AT_decl_line(0x57)
    6566                            .dwattr $C$DW$T$130, DW_AT_decl_column(0x13)
    6567                    
    6568                    $C$DW$T$131     .dwtag  DW_TAG_typedef
    6569                            .dwattr $C$DW$T$131, DW_AT_name("int_fast64_t")
    6570                            .dwattr $C$DW$T$131, DW_AT_type(*$C$DW$T$130)
    6571                            .dwattr $C$DW$T$131, DW_AT_language(DW_LANG_C)
    6572                            .dwattr $C$DW$T$131, DW_AT_decl_file("/home/pola/ti/ccsv8/tools/compiler/ti-cgt-arm_18.1.1.LTS
    6573                            .dwattr $C$DW$T$131, DW_AT_decl_line(0x35)
    6574                            .dwattr $C$DW$T$131, DW_AT_decl_column(0x19)
    6575                    
    6576                    $C$DW$T$132     .dwtag  DW_TAG_typedef
    6577                            .dwattr $C$DW$T$132, DW_AT_name("__int_least64_t")
    6578                            .dwattr $C$DW$T$132, DW_AT_type(*$C$DW$T$127)
    6579                            .dwattr $C$DW$T$132, DW_AT_language(DW_LANG_C)
    6580                            .dwattr $C$DW$T$132, DW_AT_decl_file("/home/pola/ti/ccsv8/tools/compiler/ti-cgt-arm_18.1.1.LTS
    6581                            .dwattr $C$DW$T$132, DW_AT_decl_line(0x5b)
    6582                            .dwattr $C$DW$T$132, DW_AT_decl_column(0x13)
    6583                    
    6584                    $C$DW$T$133     .dwtag  DW_TAG_typedef
    6585                            .dwattr $C$DW$T$133, DW_AT_name("int_least64_t")
    6586                            .dwattr $C$DW$T$133, DW_AT_type(*$C$DW$T$132)
    6587                            .dwattr $C$DW$T$133, DW_AT_language(DW_LANG_C)
    6588                            .dwattr $C$DW$T$133, DW_AT_decl_file("/home/pola/ti/ccsv8/tools/compiler/ti-cgt-arm_18.1.1.LTS
    6589                            .dwattr $C$DW$T$133, DW_AT_decl_line(0x2b)
    6590                            .dwattr $C$DW$T$133, DW_AT_decl_column(0x1a)
    6591                    
    6592                    $C$DW$T$134     .dwtag  DW_TAG_typedef
    6593                            .dwattr $C$DW$T$134, DW_AT_name("__intmax_t")
    6594                            .dwattr $C$DW$T$134, DW_AT_type(*$C$DW$T$127)
    6595                            .dwattr $C$DW$T$134, DW_AT_language(DW_LANG_C)
    6596                            .dwattr $C$DW$T$134, DW_AT_decl_file("/home/pola/ti/ccsv8/tools/compiler/ti-cgt-arm_18.1.1.LTS
TI ARM Assembler Unix v18.1.1 Fri Jul  3 20:08:25 2020

Tools Copyright (c) 1996-2017 Texas Instruments Incorporated
pwm.asm                                                              PAGE  121

    6597                            .dwattr $C$DW$T$134, DW_AT_decl_line(0x52)
    6598                            .dwattr $C$DW$T$134, DW_AT_decl_column(0x13)
    6599                    
    6600                    $C$DW$T$135     .dwtag  DW_TAG_typedef
    6601                            .dwattr $C$DW$T$135, DW_AT_name("intmax_t")
    6602                            .dwattr $C$DW$T$135, DW_AT_type(*$C$DW$T$134)
    6603                            .dwattr $C$DW$T$135, DW_AT_language(DW_LANG_C)
    6604                            .dwattr $C$DW$T$135, DW_AT_decl_file("/home/pola/ti/ccsv8/tools/compiler/ti-cgt-arm_18.1.1.LTS
    6605                            .dwattr $C$DW$T$135, DW_AT_decl_line(0x54)
    6606                            .dwattr $C$DW$T$135, DW_AT_decl_column(0x15)
    6607                    
    6608                    $C$DW$T$136     .dwtag  DW_TAG_typedef
    6609                            .dwattr $C$DW$T$136, DW_AT_name("__off64_t")
    6610                            .dwattr $C$DW$T$136, DW_AT_type(*$C$DW$T$127)
    6611                            .dwattr $C$DW$T$136, DW_AT_language(DW_LANG_C)
    6612                            .dwattr $C$DW$T$136, DW_AT_decl_file("/home/pola/ti/ccsv8/tools/compiler/ti-cgt-arm_18.1.1.LTS
    6613                            .dwattr $C$DW$T$136, DW_AT_decl_line(0x3e)
    6614                            .dwattr $C$DW$T$136, DW_AT_decl_column(0x13)
    6615                    
    6616                    $C$DW$T$137     .dwtag  DW_TAG_typedef
    6617                            .dwattr $C$DW$T$137, DW_AT_name("__off_t")
    6618                            .dwattr $C$DW$T$137, DW_AT_type(*$C$DW$T$127)
    6619                            .dwattr $C$DW$T$137, DW_AT_language(DW_LANG_C)
    6620                            .dwattr $C$DW$T$137, DW_AT_decl_file("/home/pola/ti/ccsv8/tools/compiler/ti-cgt-arm_18.1.1.LTS
    6621                            .dwattr $C$DW$T$137, DW_AT_decl_line(0x3d)
    6622                            .dwattr $C$DW$T$137, DW_AT_decl_column(0x13)
    6623                    
    6624                    $C$DW$T$138     .dwtag  DW_TAG_typedef
    6625                            .dwattr $C$DW$T$138, DW_AT_name("__rlim_t")
    6626                            .dwattr $C$DW$T$138, DW_AT_type(*$C$DW$T$127)
    6627                            .dwattr $C$DW$T$138, DW_AT_language(DW_LANG_C)
    6628                            .dwattr $C$DW$T$138, DW_AT_decl_file("/home/pola/ti/ccsv8/tools/compiler/ti-cgt-arm_18.1.1.LTS
    6629                            .dwattr $C$DW$T$138, DW_AT_decl_line(0x40)
    6630                            .dwattr $C$DW$T$138, DW_AT_decl_column(0x13)
    6631                    
    6632                    $C$DW$T$139     .dwtag  DW_TAG_typedef
    6633                            .dwattr $C$DW$T$139, DW_AT_name("int64_t")
    6634                            .dwattr $C$DW$T$139, DW_AT_type(*$C$DW$T$127)
    6635                            .dwattr $C$DW$T$139, DW_AT_language(DW_LANG_C)
    6636                            .dwattr $C$DW$T$139, DW_AT_decl_file("/home/pola/ti/ccsv8/tools/compiler/ti-cgt-arm_18.1.1.LTS
    6637                            .dwattr $C$DW$T$139, DW_AT_decl_line(0x33)
    6638                            .dwattr $C$DW$T$139, DW_AT_decl_column(0x14)
    6639                    
    6640                    $C$DW$T$15      .dwtag  DW_TAG_base_type
    6641                            .dwattr $C$DW$T$15, DW_AT_encoding(DW_ATE_unsigned)
    6642                            .dwattr $C$DW$T$15, DW_AT_name("unsigned long long")
    6643                            .dwattr $C$DW$T$15, DW_AT_byte_size(0x08)
    6644                    
    6645                    $C$DW$T$140     .dwtag  DW_TAG_typedef
    6646                            .dwattr $C$DW$T$140, DW_AT_name("__uint64_t")
    6647                            .dwattr $C$DW$T$140, DW_AT_type(*$C$DW$T$15)
    6648                            .dwattr $C$DW$T$140, DW_AT_language(DW_LANG_C)
    6649                            .dwattr $C$DW$T$140, DW_AT_decl_file("/home/pola/ti/ccsv8/tools/compiler/ti-cgt-arm_18.1.1.LTS
    6650                            .dwattr $C$DW$T$140, DW_AT_decl_line(0x48)
    6651                            .dwattr $C$DW$T$140, DW_AT_decl_column(0x1c)
TI ARM Assembler Unix v18.1.1 Fri Jul  3 20:08:25 2020

Tools Copyright (c) 1996-2017 Texas Instruments Incorporated
pwm.asm                                                              PAGE  122

    6652                    
    6653                    $C$DW$T$141     .dwtag  DW_TAG_typedef
    6654                            .dwattr $C$DW$T$141, DW_AT_name("__dev_t")
    6655                            .dwattr $C$DW$T$141, DW_AT_type(*$C$DW$T$140)
    6656                            .dwattr $C$DW$T$141, DW_AT_language(DW_LANG_C)
    6657                            .dwattr $C$DW$T$141, DW_AT_decl_file("/home/pola/ti/ccsv8/tools/compiler/ti-cgt-arm_18.1.1.LTS
    6658                            .dwattr $C$DW$T$141, DW_AT_decl_line(0x74)
    6659                            .dwattr $C$DW$T$141, DW_AT_decl_column(0x14)
    6660                    
    6661                    $C$DW$T$142     .dwtag  DW_TAG_typedef
    6662                            .dwattr $C$DW$T$142, DW_AT_name("__fsblkcnt_t")
    6663                            .dwattr $C$DW$T$142, DW_AT_type(*$C$DW$T$140)
    6664                            .dwattr $C$DW$T$142, DW_AT_language(DW_LANG_C)
    6665                            .dwattr $C$DW$T$142, DW_AT_decl_file("/home/pola/ti/ccsv8/tools/compiler/ti-cgt-arm_18.1.1.LTS
    6666                            .dwattr $C$DW$T$142, DW_AT_decl_line(0x32)
    6667                            .dwattr $C$DW$T$142, DW_AT_decl_column(0x14)
    6668                    
    6669                    $C$DW$T$143     .dwtag  DW_TAG_typedef
    6670                            .dwattr $C$DW$T$143, DW_AT_name("__fsfilcnt_t")
    6671                            .dwattr $C$DW$T$143, DW_AT_type(*$C$DW$T$140)
    6672                            .dwattr $C$DW$T$143, DW_AT_language(DW_LANG_C)
    6673                            .dwattr $C$DW$T$143, DW_AT_decl_file("/home/pola/ti/ccsv8/tools/compiler/ti-cgt-arm_18.1.1.LTS
    6674                            .dwattr $C$DW$T$143, DW_AT_decl_line(0x33)
    6675                            .dwattr $C$DW$T$143, DW_AT_decl_column(0x14)
    6676                    
    6677                    $C$DW$T$144     .dwtag  DW_TAG_typedef
    6678                            .dwattr $C$DW$T$144, DW_AT_name("__ino_t")
    6679                            .dwattr $C$DW$T$144, DW_AT_type(*$C$DW$T$140)
    6680                            .dwattr $C$DW$T$144, DW_AT_language(DW_LANG_C)
    6681                            .dwattr $C$DW$T$144, DW_AT_decl_file("/home/pola/ti/ccsv8/tools/compiler/ti-cgt-arm_18.1.1.LTS
    6682                            .dwattr $C$DW$T$144, DW_AT_decl_line(0x36)
    6683                            .dwattr $C$DW$T$144, DW_AT_decl_column(0x14)
    6684                    
    6685                    $C$DW$T$145     .dwtag  DW_TAG_typedef
    6686                            .dwattr $C$DW$T$145, DW_AT_name("__nlink_t")
    6687                            .dwattr $C$DW$T$145, DW_AT_type(*$C$DW$T$140)
    6688                            .dwattr $C$DW$T$145, DW_AT_language(DW_LANG_C)
    6689                            .dwattr $C$DW$T$145, DW_AT_decl_file("/home/pola/ti/ccsv8/tools/compiler/ti-cgt-arm_18.1.1.LTS
    6690                            .dwattr $C$DW$T$145, DW_AT_decl_line(0x3c)
    6691                            .dwattr $C$DW$T$145, DW_AT_decl_column(0x14)
    6692                    
    6693                    $C$DW$T$146     .dwtag  DW_TAG_typedef
    6694                            .dwattr $C$DW$T$146, DW_AT_name("__uint_fast64_t")
    6695                            .dwattr $C$DW$T$146, DW_AT_type(*$C$DW$T$140)
    6696                            .dwattr $C$DW$T$146, DW_AT_language(DW_LANG_C)
    6697                            .dwattr $C$DW$T$146, DW_AT_decl_file("/home/pola/ti/ccsv8/tools/compiler/ti-cgt-arm_18.1.1.LTS
    6698                            .dwattr $C$DW$T$146, DW_AT_decl_line(0x6c)
    6699                            .dwattr $C$DW$T$146, DW_AT_decl_column(0x14)
    6700                    
    6701                    $C$DW$T$147     .dwtag  DW_TAG_typedef
    6702                            .dwattr $C$DW$T$147, DW_AT_name("uint_fast64_t")
    6703                            .dwattr $C$DW$T$147, DW_AT_type(*$C$DW$T$146)
    6704                            .dwattr $C$DW$T$147, DW_AT_language(DW_LANG_C)
    6705                            .dwattr $C$DW$T$147, DW_AT_decl_file("/home/pola/ti/ccsv8/tools/compiler/ti-cgt-arm_18.1.1.LTS
    6706                            .dwattr $C$DW$T$147, DW_AT_decl_line(0x3a)
TI ARM Assembler Unix v18.1.1 Fri Jul  3 20:08:25 2020

Tools Copyright (c) 1996-2017 Texas Instruments Incorporated
pwm.asm                                                              PAGE  123

    6707                            .dwattr $C$DW$T$147, DW_AT_decl_column(0x1a)
    6708                    
    6709                    $C$DW$T$148     .dwtag  DW_TAG_typedef
    6710                            .dwattr $C$DW$T$148, DW_AT_name("__uint_least64_t")
    6711                            .dwattr $C$DW$T$148, DW_AT_type(*$C$DW$T$140)
    6712                            .dwattr $C$DW$T$148, DW_AT_language(DW_LANG_C)
    6713                            .dwattr $C$DW$T$148, DW_AT_decl_file("/home/pola/ti/ccsv8/tools/compiler/ti-cgt-arm_18.1.1.LTS
    6714                            .dwattr $C$DW$T$148, DW_AT_decl_line(0x70)
    6715                            .dwattr $C$DW$T$148, DW_AT_decl_column(0x14)
    6716                    
    6717                    $C$DW$T$149     .dwtag  DW_TAG_typedef
    6718                            .dwattr $C$DW$T$149, DW_AT_name("uint_least64_t")
    6719                            .dwattr $C$DW$T$149, DW_AT_type(*$C$DW$T$148)
    6720                            .dwattr $C$DW$T$149, DW_AT_language(DW_LANG_C)
    6721                            .dwattr $C$DW$T$149, DW_AT_decl_file("/home/pola/ti/ccsv8/tools/compiler/ti-cgt-arm_18.1.1.LTS
    6722                            .dwattr $C$DW$T$149, DW_AT_decl_line(0x30)
    6723                            .dwattr $C$DW$T$149, DW_AT_decl_column(0x1a)
    6724                    
    6725                    $C$DW$T$150     .dwtag  DW_TAG_typedef
    6726                            .dwattr $C$DW$T$150, DW_AT_name("__uintmax_t")
    6727                            .dwattr $C$DW$T$150, DW_AT_type(*$C$DW$T$140)
    6728                            .dwattr $C$DW$T$150, DW_AT_language(DW_LANG_C)
    6729                            .dwattr $C$DW$T$150, DW_AT_decl_file("/home/pola/ti/ccsv8/tools/compiler/ti-cgt-arm_18.1.1.LTS
    6730                            .dwattr $C$DW$T$150, DW_AT_decl_line(0x67)
    6731                            .dwattr $C$DW$T$150, DW_AT_decl_column(0x14)
    6732                    
    6733                    $C$DW$T$151     .dwtag  DW_TAG_typedef
    6734                            .dwattr $C$DW$T$151, DW_AT_name("__rman_res_t")
    6735                            .dwattr $C$DW$T$151, DW_AT_type(*$C$DW$T$150)
    6736                            .dwattr $C$DW$T$151, DW_AT_language(DW_LANG_C)
    6737                            .dwattr $C$DW$T$151, DW_AT_decl_file("/home/pola/ti/ccsv8/tools/compiler/ti-cgt-arm_18.1.1.LTS
    6738                            .dwattr $C$DW$T$151, DW_AT_decl_line(0x8f)
    6739                            .dwattr $C$DW$T$151, DW_AT_decl_column(0x19)
    6740                    
    6741                    $C$DW$T$152     .dwtag  DW_TAG_typedef
    6742                            .dwattr $C$DW$T$152, DW_AT_name("uintmax_t")
    6743                            .dwattr $C$DW$T$152, DW_AT_type(*$C$DW$T$150)
    6744                            .dwattr $C$DW$T$152, DW_AT_language(DW_LANG_C)
    6745                            .dwattr $C$DW$T$152, DW_AT_decl_file("/home/pola/ti/ccsv8/tools/compiler/ti-cgt-arm_18.1.1.LTS
    6746                            .dwattr $C$DW$T$152, DW_AT_decl_line(0x58)
    6747                            .dwattr $C$DW$T$152, DW_AT_decl_column(0x16)
    6748                    
    6749                    $C$DW$T$153     .dwtag  DW_TAG_typedef
    6750                            .dwattr $C$DW$T$153, DW_AT_name("uint64_t")
    6751                            .dwattr $C$DW$T$153, DW_AT_type(*$C$DW$T$140)
    6752                            .dwattr $C$DW$T$153, DW_AT_language(DW_LANG_C)
    6753                            .dwattr $C$DW$T$153, DW_AT_decl_file("/home/pola/ti/ccsv8/tools/compiler/ti-cgt-arm_18.1.1.LTS
    6754                            .dwattr $C$DW$T$153, DW_AT_decl_line(0x47)
    6755                            .dwattr $C$DW$T$153, DW_AT_decl_column(0x15)
    6756                    
    6757                    $C$DW$T$16      .dwtag  DW_TAG_base_type
    6758                            .dwattr $C$DW$T$16, DW_AT_encoding(DW_ATE_float)
    6759                            .dwattr $C$DW$T$16, DW_AT_name("float")
    6760                            .dwattr $C$DW$T$16, DW_AT_byte_size(0x04)
    6761                    
TI ARM Assembler Unix v18.1.1 Fri Jul  3 20:08:25 2020

Tools Copyright (c) 1996-2017 Texas Instruments Incorporated
pwm.asm                                                              PAGE  124

    6762                    $C$DW$T$154     .dwtag  DW_TAG_typedef
    6763                            .dwattr $C$DW$T$154, DW_AT_name("__float_t")
    6764                            .dwattr $C$DW$T$154, DW_AT_type(*$C$DW$T$16)
    6765                            .dwattr $C$DW$T$154, DW_AT_language(DW_LANG_C)
    6766                            .dwattr $C$DW$T$154, DW_AT_decl_file("/home/pola/ti/ccsv8/tools/compiler/ti-cgt-arm_18.1.1.LTS
    6767                            .dwattr $C$DW$T$154, DW_AT_decl_line(0x50)
    6768                            .dwattr $C$DW$T$154, DW_AT_decl_column(0x10)
    6769                    
    6770                    $C$DW$T$17      .dwtag  DW_TAG_base_type
    6771                            .dwattr $C$DW$T$17, DW_AT_encoding(DW_ATE_float)
    6772                            .dwattr $C$DW$T$17, DW_AT_name("double")
    6773                            .dwattr $C$DW$T$17, DW_AT_byte_size(0x08)
    6774                    
    6775                    $C$DW$T$155     .dwtag  DW_TAG_typedef
    6776                            .dwattr $C$DW$T$155, DW_AT_name("__double_t")
    6777                            .dwattr $C$DW$T$155, DW_AT_type(*$C$DW$T$17)
    6778                            .dwattr $C$DW$T$155, DW_AT_language(DW_LANG_C)
    6779                            .dwattr $C$DW$T$155, DW_AT_decl_file("/home/pola/ti/ccsv8/tools/compiler/ti-cgt-arm_18.1.1.LTS
    6780                            .dwattr $C$DW$T$155, DW_AT_decl_line(0x4f)
    6781                            .dwattr $C$DW$T$155, DW_AT_decl_column(0x11)
    6782                    
    6783                    $C$DW$T$18      .dwtag  DW_TAG_base_type
    6784                            .dwattr $C$DW$T$18, DW_AT_encoding(DW_ATE_float)
    6785                            .dwattr $C$DW$T$18, DW_AT_name("long double")
    6786                            .dwattr $C$DW$T$18, DW_AT_byte_size(0x08)
    6787                    
    6788                    $C$DW$T$37      .dwtag  DW_TAG_base_type
    6789                            .dwattr $C$DW$T$37, DW_AT_encoding(DW_ATE_unsigned_char)
    6790                            .dwattr $C$DW$T$37, DW_AT_name("unsigned char")
    6791                            .dwattr $C$DW$T$37, DW_AT_byte_size(0x01)
    6792                    
    6793                    
    6794                    $C$DW$T$19      .dwtag  DW_TAG_structure_type
    6795                            .dwattr $C$DW$T$19, DW_AT_name("__mq")
    6796                            .dwattr $C$DW$T$19, DW_AT_declaration
    6797                            .dwattr $C$DW$T$19, DW_AT_decl_file("/home/pola/ti/ccsv8/tools/compiler/ti-cgt-arm_18.1.1.LTS/
    6798                            .dwattr $C$DW$T$19, DW_AT_decl_line(0x47)
    6799                            .dwattr $C$DW$T$19, DW_AT_decl_column(0x10)
    6800                            .dwendtag $C$DW$T$19
    6801                    
    6802                    $C$DW$T$156     .dwtag  DW_TAG_pointer_type
    6803                            .dwattr $C$DW$T$156, DW_AT_type(*$C$DW$T$19)
    6804                            .dwattr $C$DW$T$156, DW_AT_address_class(0x20)
    6805                    
    6806                    $C$DW$T$157     .dwtag  DW_TAG_typedef
    6807                            .dwattr $C$DW$T$157, DW_AT_name("__mqd_t")
    6808                            .dwattr $C$DW$T$157, DW_AT_type(*$C$DW$T$156)
    6809                            .dwattr $C$DW$T$157, DW_AT_language(DW_LANG_C)
    6810                            .dwattr $C$DW$T$157, DW_AT_decl_file("/home/pola/ti/ccsv8/tools/compiler/ti-cgt-arm_18.1.1.LTS
    6811                            .dwattr $C$DW$T$157, DW_AT_decl_line(0x47)
    6812                            .dwattr $C$DW$T$157, DW_AT_decl_column(0x16)
    6813                    
    6814                    
    6815                    $C$DW$T$20      .dwtag  DW_TAG_structure_type
    6816                            .dwattr $C$DW$T$20, DW_AT_name("__timer")
TI ARM Assembler Unix v18.1.1 Fri Jul  3 20:08:25 2020

Tools Copyright (c) 1996-2017 Texas Instruments Incorporated
pwm.asm                                                              PAGE  125

    6817                            .dwattr $C$DW$T$20, DW_AT_declaration
    6818                            .dwattr $C$DW$T$20, DW_AT_decl_file("/home/pola/ti/ccsv8/tools/compiler/ti-cgt-arm_18.1.1.LTS/
    6819                            .dwattr $C$DW$T$20, DW_AT_decl_line(0x46)
    6820                            .dwattr $C$DW$T$20, DW_AT_decl_column(0x10)
    6821                            .dwendtag $C$DW$T$20
    6822                    
    6823                    $C$DW$T$158     .dwtag  DW_TAG_pointer_type
    6824                            .dwattr $C$DW$T$158, DW_AT_type(*$C$DW$T$20)
    6825                            .dwattr $C$DW$T$158, DW_AT_address_class(0x20)
    6826                    
    6827                    $C$DW$T$159     .dwtag  DW_TAG_typedef
    6828                            .dwattr $C$DW$T$159, DW_AT_name("__timer_t")
    6829                            .dwattr $C$DW$T$159, DW_AT_type(*$C$DW$T$158)
    6830                            .dwattr $C$DW$T$159, DW_AT_language(DW_LANG_C)
    6831                            .dwattr $C$DW$T$159, DW_AT_decl_file("/home/pola/ti/ccsv8/tools/compiler/ti-cgt-arm_18.1.1.LTS
    6832                            .dwattr $C$DW$T$159, DW_AT_decl_line(0x46)
    6833                            .dwattr $C$DW$T$159, DW_AT_decl_column(0x19)
    6834                    
    6835                    
    6836                    $C$DW$T$22      .dwtag  DW_TAG_structure_type
    6837                            .dwattr $C$DW$T$22, DW_AT_name("__va_list_t")
    6838                            .dwattr $C$DW$T$22, DW_AT_byte_size(0x04)
    6839                    $C$DW$304       .dwtag  DW_TAG_member
    6840                            .dwattr $C$DW$304, DW_AT_type(*$C$DW$T$3)
    6841                            .dwattr $C$DW$304, DW_AT_name("__ap")
    6842                            .dwattr $C$DW$304, DW_AT_TI_symbol_name("__ap")
    6843                            .dwattr $C$DW$304, DW_AT_data_member_location[DW_OP_plus_uconst 0x0]
    6844                            .dwattr $C$DW$304, DW_AT_accessibility(DW_ACCESS_public)
    6845                            .dwattr $C$DW$304, DW_AT_decl_file("/home/pola/ti/ccsv8/tools/compiler/ti-cgt-arm_18.1.1.LTS/i
    6846                            .dwattr $C$DW$304, DW_AT_decl_line(0x88)
    6847                            .dwattr $C$DW$304, DW_AT_decl_column(0x0c)
    6848                    
    6849                            .dwattr $C$DW$T$22, DW_AT_decl_file("/home/pola/ti/ccsv8/tools/compiler/ti-cgt-arm_18.1.1.LTS/
    6850                            .dwattr $C$DW$T$22, DW_AT_decl_line(0x87)
    6851                            .dwattr $C$DW$T$22, DW_AT_decl_column(0x10)
    6852                            .dwendtag $C$DW$T$22
    6853                    
    6854                    $C$DW$T$160     .dwtag  DW_TAG_typedef
    6855                            .dwattr $C$DW$T$160, DW_AT_name("__va_list")
    6856                            .dwattr $C$DW$T$160, DW_AT_type(*$C$DW$T$22)
    6857                            .dwattr $C$DW$T$160, DW_AT_language(DW_LANG_C)
    6858                            .dwattr $C$DW$T$160, DW_AT_decl_file("/home/pola/ti/ccsv8/tools/compiler/ti-cgt-arm_18.1.1.LTS
    6859                            .dwattr $C$DW$T$160, DW_AT_decl_line(0x89)
    6860                            .dwattr $C$DW$T$160, DW_AT_decl_column(0x03)
    6861                    
    6862                            .dwattr $C$DW$CU, DW_AT_language(DW_LANG_C)
    6863                    
    6864                    ;***************************************************************
    6865                    ;* DWARF CIE ENTRIES                                           *
    6866                    ;***************************************************************
    6867                    
    6868                    $C$DW$CIE       .dwcie 14
    6869                            .dwcfi  cfa_register, 13
    6870                            .dwcfi  cfa_offset, 0
    6871                            .dwcfi  same_value, 4
TI ARM Assembler Unix v18.1.1 Fri Jul  3 20:08:25 2020

Tools Copyright (c) 1996-2017 Texas Instruments Incorporated
pwm.asm                                                              PAGE  126

    6872                            .dwcfi  same_value, 5
    6873                            .dwcfi  same_value, 6
    6874                            .dwcfi  same_value, 7
    6875                            .dwcfi  same_value, 8
    6876                            .dwcfi  same_value, 9
    6877                            .dwcfi  same_value, 10
    6878                            .dwcfi  same_value, 11
    6879                            .dwcfi  same_value, 80
    6880                            .dwcfi  same_value, 81
    6881                            .dwcfi  same_value, 82
    6882                            .dwcfi  same_value, 83
    6883                            .dwcfi  same_value, 84
    6884                            .dwcfi  same_value, 85
    6885                            .dwcfi  same_value, 86
    6886                            .dwcfi  same_value, 87
    6887                            .dwcfi  same_value, 88
    6888                            .dwcfi  same_value, 89
    6889                            .dwcfi  same_value, 90
    6890                            .dwcfi  same_value, 91
    6891                            .dwcfi  same_value, 92
    6892                            .dwcfi  same_value, 93
    6893                            .dwcfi  same_value, 94
    6894                            .dwcfi  same_value, 95
    6895                            .dwendentry
    6896                    
    6897                    ;***************************************************************
    6898                    ;* DWARF REGISTER MAP                                          *
    6899                    ;***************************************************************
    6900                    
    6901                    $C$DW$305       .dwtag  DW_TAG_TI_assign_register
    6902                            .dwattr $C$DW$305, DW_AT_name("A1")
    6903                            .dwattr $C$DW$305, DW_AT_location[DW_OP_reg0]
    6904                    
    6905                    $C$DW$306       .dwtag  DW_TAG_TI_assign_register
    6906                            .dwattr $C$DW$306, DW_AT_name("A2")
    6907                            .dwattr $C$DW$306, DW_AT_location[DW_OP_reg1]
    6908                    
    6909                    $C$DW$307       .dwtag  DW_TAG_TI_assign_register
    6910                            .dwattr $C$DW$307, DW_AT_name("A3")
    6911                            .dwattr $C$DW$307, DW_AT_location[DW_OP_reg2]
    6912                    
    6913                    $C$DW$308       .dwtag  DW_TAG_TI_assign_register
    6914                            .dwattr $C$DW$308, DW_AT_name("A4")
    6915                            .dwattr $C$DW$308, DW_AT_location[DW_OP_reg3]
    6916                    
    6917                    $C$DW$309       .dwtag  DW_TAG_TI_assign_register
    6918                            .dwattr $C$DW$309, DW_AT_name("V1")
    6919                            .dwattr $C$DW$309, DW_AT_location[DW_OP_reg4]
    6920                    
    6921                    $C$DW$310       .dwtag  DW_TAG_TI_assign_register
    6922                            .dwattr $C$DW$310, DW_AT_name("V2")
    6923                            .dwattr $C$DW$310, DW_AT_location[DW_OP_reg5]
    6924                    
    6925                    $C$DW$311       .dwtag  DW_TAG_TI_assign_register
    6926                            .dwattr $C$DW$311, DW_AT_name("V3")
TI ARM Assembler Unix v18.1.1 Fri Jul  3 20:08:25 2020

Tools Copyright (c) 1996-2017 Texas Instruments Incorporated
pwm.asm                                                              PAGE  127

    6927                            .dwattr $C$DW$311, DW_AT_location[DW_OP_reg6]
    6928                    
    6929                    $C$DW$312       .dwtag  DW_TAG_TI_assign_register
    6930                            .dwattr $C$DW$312, DW_AT_name("V4")
    6931                            .dwattr $C$DW$312, DW_AT_location[DW_OP_reg7]
    6932                    
    6933                    $C$DW$313       .dwtag  DW_TAG_TI_assign_register
    6934                            .dwattr $C$DW$313, DW_AT_name("V5")
    6935                            .dwattr $C$DW$313, DW_AT_location[DW_OP_reg8]
    6936                    
    6937                    $C$DW$314       .dwtag  DW_TAG_TI_assign_register
    6938                            .dwattr $C$DW$314, DW_AT_name("V6")
    6939                            .dwattr $C$DW$314, DW_AT_location[DW_OP_reg9]
    6940                    
    6941                    $C$DW$315       .dwtag  DW_TAG_TI_assign_register
    6942                            .dwattr $C$DW$315, DW_AT_name("V7")
    6943                            .dwattr $C$DW$315, DW_AT_location[DW_OP_reg10]
    6944                    
    6945                    $C$DW$316       .dwtag  DW_TAG_TI_assign_register
    6946                            .dwattr $C$DW$316, DW_AT_name("V8")
    6947                            .dwattr $C$DW$316, DW_AT_location[DW_OP_reg11]
    6948                    
    6949                    $C$DW$317       .dwtag  DW_TAG_TI_assign_register
    6950                            .dwattr $C$DW$317, DW_AT_name("V9")
    6951                            .dwattr $C$DW$317, DW_AT_location[DW_OP_reg12]
    6952                    
    6953                    $C$DW$318       .dwtag  DW_TAG_TI_assign_register
    6954                            .dwattr $C$DW$318, DW_AT_name("SP")
    6955                            .dwattr $C$DW$318, DW_AT_location[DW_OP_reg13]
    6956                    
    6957                    $C$DW$319       .dwtag  DW_TAG_TI_assign_register
    6958                            .dwattr $C$DW$319, DW_AT_name("LR")
    6959                            .dwattr $C$DW$319, DW_AT_location[DW_OP_reg14]
    6960                    
    6961                    $C$DW$320       .dwtag  DW_TAG_TI_assign_register
    6962                            .dwattr $C$DW$320, DW_AT_name("PC")
    6963                            .dwattr $C$DW$320, DW_AT_location[DW_OP_reg15]
    6964                    
    6965                    $C$DW$321       .dwtag  DW_TAG_TI_assign_register
    6966                            .dwattr $C$DW$321, DW_AT_name("SR")
    6967                            .dwattr $C$DW$321, DW_AT_location[DW_OP_reg17]
    6968                    
    6969                    $C$DW$322       .dwtag  DW_TAG_TI_assign_register
    6970                            .dwattr $C$DW$322, DW_AT_name("AP")
    6971                            .dwattr $C$DW$322, DW_AT_location[DW_OP_reg7]
    6972                    
    6973                    $C$DW$323       .dwtag  DW_TAG_TI_assign_register
    6974                            .dwattr $C$DW$323, DW_AT_name("D0")
    6975                            .dwattr $C$DW$323, DW_AT_location[DW_OP_regx 0x40]
    6976                    
    6977                    $C$DW$324       .dwtag  DW_TAG_TI_assign_register
    6978                            .dwattr $C$DW$324, DW_AT_name("D0_hi")
    6979                            .dwattr $C$DW$324, DW_AT_location[DW_OP_regx 0x41]
    6980                    
    6981                    $C$DW$325       .dwtag  DW_TAG_TI_assign_register
TI ARM Assembler Unix v18.1.1 Fri Jul  3 20:08:25 2020

Tools Copyright (c) 1996-2017 Texas Instruments Incorporated
pwm.asm                                                              PAGE  128

    6982                            .dwattr $C$DW$325, DW_AT_name("D1")
    6983                            .dwattr $C$DW$325, DW_AT_location[DW_OP_regx 0x42]
    6984                    
    6985                    $C$DW$326       .dwtag  DW_TAG_TI_assign_register
    6986                            .dwattr $C$DW$326, DW_AT_name("D1_hi")
    6987                            .dwattr $C$DW$326, DW_AT_location[DW_OP_regx 0x43]
    6988                    
    6989                    $C$DW$327       .dwtag  DW_TAG_TI_assign_register
    6990                            .dwattr $C$DW$327, DW_AT_name("D2")
    6991                            .dwattr $C$DW$327, DW_AT_location[DW_OP_regx 0x44]
    6992                    
    6993                    $C$DW$328       .dwtag  DW_TAG_TI_assign_register
    6994                            .dwattr $C$DW$328, DW_AT_name("D2_hi")
    6995                            .dwattr $C$DW$328, DW_AT_location[DW_OP_regx 0x45]
    6996                    
    6997                    $C$DW$329       .dwtag  DW_TAG_TI_assign_register
    6998                            .dwattr $C$DW$329, DW_AT_name("D3")
    6999                            .dwattr $C$DW$329, DW_AT_location[DW_OP_regx 0x46]
    7000                    
    7001                    $C$DW$330       .dwtag  DW_TAG_TI_assign_register
    7002                            .dwattr $C$DW$330, DW_AT_name("D3_hi")
    7003                            .dwattr $C$DW$330, DW_AT_location[DW_OP_regx 0x47]
    7004                    
    7005                    $C$DW$331       .dwtag  DW_TAG_TI_assign_register
    7006                            .dwattr $C$DW$331, DW_AT_name("D4")
    7007                            .dwattr $C$DW$331, DW_AT_location[DW_OP_regx 0x48]
    7008                    
    7009                    $C$DW$332       .dwtag  DW_TAG_TI_assign_register
    7010                            .dwattr $C$DW$332, DW_AT_name("D4_hi")
    7011                            .dwattr $C$DW$332, DW_AT_location[DW_OP_regx 0x49]
    7012                    
    7013                    $C$DW$333       .dwtag  DW_TAG_TI_assign_register
    7014                            .dwattr $C$DW$333, DW_AT_name("D5")
    7015                            .dwattr $C$DW$333, DW_AT_location[DW_OP_regx 0x4a]
    7016                    
    7017                    $C$DW$334       .dwtag  DW_TAG_TI_assign_register
    7018                            .dwattr $C$DW$334, DW_AT_name("D5_hi")
    7019                            .dwattr $C$DW$334, DW_AT_location[DW_OP_regx 0x4b]
    7020                    
    7021                    $C$DW$335       .dwtag  DW_TAG_TI_assign_register
    7022                            .dwattr $C$DW$335, DW_AT_name("D6")
    7023                            .dwattr $C$DW$335, DW_AT_location[DW_OP_regx 0x4c]
    7024                    
    7025                    $C$DW$336       .dwtag  DW_TAG_TI_assign_register
    7026                            .dwattr $C$DW$336, DW_AT_name("D6_hi")
    7027                            .dwattr $C$DW$336, DW_AT_location[DW_OP_regx 0x4d]
    7028                    
    7029                    $C$DW$337       .dwtag  DW_TAG_TI_assign_register
    7030                            .dwattr $C$DW$337, DW_AT_name("D7")
    7031                            .dwattr $C$DW$337, DW_AT_location[DW_OP_regx 0x4e]
    7032                    
    7033                    $C$DW$338       .dwtag  DW_TAG_TI_assign_register
    7034                            .dwattr $C$DW$338, DW_AT_name("D7_hi")
    7035                            .dwattr $C$DW$338, DW_AT_location[DW_OP_regx 0x4f]
    7036                    
TI ARM Assembler Unix v18.1.1 Fri Jul  3 20:08:25 2020

Tools Copyright (c) 1996-2017 Texas Instruments Incorporated
pwm.asm                                                              PAGE  129

    7037                    $C$DW$339       .dwtag  DW_TAG_TI_assign_register
    7038                            .dwattr $C$DW$339, DW_AT_name("D8")
    7039                            .dwattr $C$DW$339, DW_AT_location[DW_OP_regx 0x50]
    7040                    
    7041                    $C$DW$340       .dwtag  DW_TAG_TI_assign_register
    7042                            .dwattr $C$DW$340, DW_AT_name("D8_hi")
    7043                            .dwattr $C$DW$340, DW_AT_location[DW_OP_regx 0x51]
    7044                    
    7045                    $C$DW$341       .dwtag  DW_TAG_TI_assign_register
    7046                            .dwattr $C$DW$341, DW_AT_name("D9")
    7047                            .dwattr $C$DW$341, DW_AT_location[DW_OP_regx 0x52]
    7048                    
    7049                    $C$DW$342       .dwtag  DW_TAG_TI_assign_register
    7050                            .dwattr $C$DW$342, DW_AT_name("D9_hi")
    7051                            .dwattr $C$DW$342, DW_AT_location[DW_OP_regx 0x53]
    7052                    
    7053                    $C$DW$343       .dwtag  DW_TAG_TI_assign_register
    7054                            .dwattr $C$DW$343, DW_AT_name("D10")
    7055                            .dwattr $C$DW$343, DW_AT_location[DW_OP_regx 0x54]
    7056                    
    7057                    $C$DW$344       .dwtag  DW_TAG_TI_assign_register
    7058                            .dwattr $C$DW$344, DW_AT_name("D10_hi")
    7059                            .dwattr $C$DW$344, DW_AT_location[DW_OP_regx 0x55]
    7060                    
    7061                    $C$DW$345       .dwtag  DW_TAG_TI_assign_register
    7062                            .dwattr $C$DW$345, DW_AT_name("D11")
    7063                            .dwattr $C$DW$345, DW_AT_location[DW_OP_regx 0x56]
    7064                    
    7065                    $C$DW$346       .dwtag  DW_TAG_TI_assign_register
    7066                            .dwattr $C$DW$346, DW_AT_name("D11_hi")
    7067                            .dwattr $C$DW$346, DW_AT_location[DW_OP_regx 0x57]
    7068                    
    7069                    $C$DW$347       .dwtag  DW_TAG_TI_assign_register
    7070                            .dwattr $C$DW$347, DW_AT_name("D12")
    7071                            .dwattr $C$DW$347, DW_AT_location[DW_OP_regx 0x58]
    7072                    
    7073                    $C$DW$348       .dwtag  DW_TAG_TI_assign_register
    7074                            .dwattr $C$DW$348, DW_AT_name("D12_hi")
    7075                            .dwattr $C$DW$348, DW_AT_location[DW_OP_regx 0x59]
    7076                    
    7077                    $C$DW$349       .dwtag  DW_TAG_TI_assign_register
    7078                            .dwattr $C$DW$349, DW_AT_name("D13")
    7079                            .dwattr $C$DW$349, DW_AT_location[DW_OP_regx 0x5a]
    7080                    
    7081                    $C$DW$350       .dwtag  DW_TAG_TI_assign_register
    7082                            .dwattr $C$DW$350, DW_AT_name("D13_hi")
    7083                            .dwattr $C$DW$350, DW_AT_location[DW_OP_regx 0x5b]
    7084                    
    7085                    $C$DW$351       .dwtag  DW_TAG_TI_assign_register
    7086                            .dwattr $C$DW$351, DW_AT_name("D14")
    7087                            .dwattr $C$DW$351, DW_AT_location[DW_OP_regx 0x5c]
    7088                    
    7089                    $C$DW$352       .dwtag  DW_TAG_TI_assign_register
    7090                            .dwattr $C$DW$352, DW_AT_name("D14_hi")
    7091                            .dwattr $C$DW$352, DW_AT_location[DW_OP_regx 0x5d]
TI ARM Assembler Unix v18.1.1 Fri Jul  3 20:08:25 2020

Tools Copyright (c) 1996-2017 Texas Instruments Incorporated
pwm.asm                                                              PAGE  130

    7092                    
    7093                    $C$DW$353       .dwtag  DW_TAG_TI_assign_register
    7094                            .dwattr $C$DW$353, DW_AT_name("D15")
    7095                            .dwattr $C$DW$353, DW_AT_location[DW_OP_regx 0x5e]
    7096                    
    7097                    $C$DW$354       .dwtag  DW_TAG_TI_assign_register
    7098                            .dwattr $C$DW$354, DW_AT_name("D15_hi")
    7099                            .dwattr $C$DW$354, DW_AT_location[DW_OP_regx 0x5f]
    7100                    
    7101                    $C$DW$355       .dwtag  DW_TAG_TI_assign_register
    7102                            .dwattr $C$DW$355, DW_AT_name("FPEXC")
    7103                            .dwattr $C$DW$355, DW_AT_location[DW_OP_reg18]
    7104                    
    7105                    $C$DW$356       .dwtag  DW_TAG_TI_assign_register
    7106                            .dwattr $C$DW$356, DW_AT_name("FPSCR")
    7107                            .dwattr $C$DW$356, DW_AT_location[DW_OP_reg19]
    7108                    
    7109                            .dwendtag $C$DW$CU
    7110                    

--------------------------
Thumb2 Statistics
--------------------------
Number of Thumb2 ins converted to Thumb = 0 (0%)
Number of Thumb ins in input = 885 (90%)
Number of Thumb2 ins encoded as Thumb2 = 89 (100%)
Number of Thumb2 ins converted to 2 OPND Thumb = 91


No Assembly Errors, No Assembly Warnings
