TI ARM Assembler Unix v18.1.1 Fri Jul  3 20:08:26 2020

Tools Copyright (c) 1996-2017 Texas Instruments Incorporated
timer.asm                                                            PAGE    1

       1                    ;******************************************************************************
       2                    ;* TI ARM C/C++ Codegen                                      Unix v18.1.1.LTS *
       3                    ;* Date/Time created: Fri Jul  3 20:08:25 2020                                *
       4                    ;******************************************************************************
       5                            .compiler_opts --abi=eabi --arm_vmrs_si_workaround=off --code_state=16 --diag_wrap=off --embed
       6 00000000                   .thumb
       7                    
       8                    $C$DW$CU        .dwtag  DW_TAG_compile_unit
       9                            .dwattr $C$DW$CU, DW_AT_name("../driverlib/timer.c")
      10                            .dwattr $C$DW$CU, DW_AT_producer("TI TI ARM C/C++ Codegen Unix v18.1.1.LTS Copyright (c) 1996-
      11                            .dwattr $C$DW$CU, DW_AT_TI_version(0x01)
      12                            .dwattr $C$DW$CU, DW_AT_comp_dir("/home/pola/workspace_v8/Microwave/Debug")
      13 00000000                   .sect   ".const:g_ppui32TimerIntMap"
      14                            .clink
      15                            .align  4
      16                            .elfsym g_ppui32TimerIntMap,SYM_SIZE(96)
      17 00000000           g_ppui32TimerIntMap:
      18 00000000 40030000          .bits   1073938432,32                   ; g_ppui32TimerIntMap[0][0] @ 0
      19 00000004 00000023          .bits   35,32                   ; g_ppui32TimerIntMap[0][1] @ 32
      20 00000008 40031000          .bits   1073942528,32                   ; g_ppui32TimerIntMap[1][0] @ 64
      21 0000000c 00000025          .bits   37,32                   ; g_ppui32TimerIntMap[1][1] @ 96
      22 00000010 40032000          .bits   1073946624,32                   ; g_ppui32TimerIntMap[2][0] @ 128
      23 00000014 00000027          .bits   39,32                   ; g_ppui32TimerIntMap[2][1] @ 160
      24 00000018 40033000          .bits   1073950720,32                   ; g_ppui32TimerIntMap[3][0] @ 192
      25 0000001c 00000033          .bits   51,32                   ; g_ppui32TimerIntMap[3][1] @ 224
      26 00000020 40034000          .bits   1073954816,32                   ; g_ppui32TimerIntMap[4][0] @ 256
      27 00000024 00000056          .bits   86,32                   ; g_ppui32TimerIntMap[4][1] @ 288
      28 00000028 40035000          .bits   1073958912,32                   ; g_ppui32TimerIntMap[5][0] @ 320
      29 0000002c 0000006C          .bits   108,32                  ; g_ppui32TimerIntMap[5][1] @ 352
      30 00000030 40036000          .bits   1073963008,32                   ; g_ppui32TimerIntMap[6][0] @ 384
      31 00000034 0000006E          .bits   110,32                  ; g_ppui32TimerIntMap[6][1] @ 416
      32 00000038 40037000          .bits   1073967104,32                   ; g_ppui32TimerIntMap[7][0] @ 448
      33 0000003c 00000070          .bits   112,32                  ; g_ppui32TimerIntMap[7][1] @ 480
      34 00000040 4004C000          .bits   1074053120,32                   ; g_ppui32TimerIntMap[8][0] @ 512
      35 00000044 00000072          .bits   114,32                  ; g_ppui32TimerIntMap[8][1] @ 544
      36 00000048 4004D000          .bits   1074057216,32                   ; g_ppui32TimerIntMap[9][0] @ 576
      37 0000004c 00000074          .bits   116,32                  ; g_ppui32TimerIntMap[9][1] @ 608
      38 00000050 4004E000          .bits   1074061312,32                   ; g_ppui32TimerIntMap[10][0] @ 640
      39 00000054 00000076          .bits   118,32                  ; g_ppui32TimerIntMap[10][1] @ 672
      40 00000058 4004F000          .bits   1074065408,32                   ; g_ppui32TimerIntMap[11][0] @ 704
      41 0000005c 00000078          .bits   120,32                  ; g_ppui32TimerIntMap[11][1] @ 736
      42                    
      43                    $C$DW$1 .dwtag  DW_TAG_variable
      44                            .dwattr $C$DW$1, DW_AT_name("g_ppui32TimerIntMap")
      45                            .dwattr $C$DW$1, DW_AT_TI_symbol_name("g_ppui32TimerIntMap")
      46                            .dwattr $C$DW$1, DW_AT_type(*$C$DW$T$122)
      47                            .dwattr $C$DW$1, DW_AT_location[DW_OP_addr g_ppui32TimerIntMap]
      48                            .dwattr $C$DW$1, DW_AT_decl_file("../driverlib/timer.c")
      49                            .dwattr $C$DW$1, DW_AT_decl_line(0x47)
      50                            .dwattr $C$DW$1, DW_AT_decl_column(0x17)
      51                    
      52 00000000                   .sect   ".const:g_ppui32TimerIntMapSnowflake"
      53                            .clink
      54                            .align  4
      55                            .elfsym g_ppui32TimerIntMapSnowflake,SYM_SIZE(64)
TI ARM Assembler Unix v18.1.1 Fri Jul  3 20:08:26 2020

Tools Copyright (c) 1996-2017 Texas Instruments Incorporated
timer.asm                                                            PAGE    2

      56 00000000           g_ppui32TimerIntMapSnowflake:
      57 00000000 40030000          .bits   1073938432,32                   ; g_ppui32TimerIntMapSnowflake[0][0] @ 0
      58 00000004 00000023          .bits   35,32                   ; g_ppui32TimerIntMapSnowflake[0][1] @ 32
      59 00000008 40031000          .bits   1073942528,32                   ; g_ppui32TimerIntMapSnowflake[1][0] @ 64
      60 0000000c 00000025          .bits   37,32                   ; g_ppui32TimerIntMapSnowflake[1][1] @ 96
      61 00000010 40032000          .bits   1073946624,32                   ; g_ppui32TimerIntMapSnowflake[2][0] @ 128
      62 00000014 00000027          .bits   39,32                   ; g_ppui32TimerIntMapSnowflake[2][1] @ 160
      63 00000018 40033000          .bits   1073950720,32                   ; g_ppui32TimerIntMapSnowflake[3][0] @ 192
      64 0000001c 00000033          .bits   51,32                   ; g_ppui32TimerIntMapSnowflake[3][1] @ 224
      65 00000020 40034000          .bits   1073954816,32                   ; g_ppui32TimerIntMapSnowflake[4][0] @ 256
      66 00000024 0000004F          .bits   79,32                   ; g_ppui32TimerIntMapSnowflake[4][1] @ 288
      67 00000028 40035000          .bits   1073958912,32                   ; g_ppui32TimerIntMapSnowflake[5][0] @ 320
      68 0000002c 00000051          .bits   81,32                   ; g_ppui32TimerIntMapSnowflake[5][1] @ 352
      69 00000030 400E0000          .bits   1074659328,32                   ; g_ppui32TimerIntMapSnowflake[6][0] @ 384
      70 00000034 00000072          .bits   114,32                  ; g_ppui32TimerIntMapSnowflake[6][1] @ 416
      71 00000038 400E1000          .bits   1074663424,32                   ; g_ppui32TimerIntMapSnowflake[7][0] @ 448
      72 0000003c 00000074          .bits   116,32                  ; g_ppui32TimerIntMapSnowflake[7][1] @ 480
      73                    
      74                    $C$DW$2 .dwtag  DW_TAG_variable
      75                            .dwattr $C$DW$2, DW_AT_name("g_ppui32TimerIntMapSnowflake")
      76                            .dwattr $C$DW$2, DW_AT_TI_symbol_name("g_ppui32TimerIntMapSnowflake")
      77                            .dwattr $C$DW$2, DW_AT_type(*$C$DW$T$123)
      78                            .dwattr $C$DW$2, DW_AT_location[DW_OP_addr g_ppui32TimerIntMapSnowflake]
      79                            .dwattr $C$DW$2, DW_AT_decl_file("../driverlib/timer.c")
      80                            .dwattr $C$DW$2, DW_AT_decl_line(0x59)
      81                            .dwattr $C$DW$2, DW_AT_decl_column(0x17)
      82                    
      83                    
      84                    $C$DW$3 .dwtag  DW_TAG_subprogram
      85                            .dwattr $C$DW$3, DW_AT_name("IntRegister")
      86                            .dwattr $C$DW$3, DW_AT_TI_symbol_name("IntRegister")
      87                            .dwattr $C$DW$3, DW_AT_declaration
      88                            .dwattr $C$DW$3, DW_AT_external
      89                            .dwattr $C$DW$3, DW_AT_decl_file("/home/pola/workspace_v8/Microwave/driverlib/interrupt.h")
      90                            .dwattr $C$DW$3, DW_AT_decl_line(0x45)
      91                            .dwattr $C$DW$3, DW_AT_decl_column(0x0d)
      92                    $C$DW$4 .dwtag  DW_TAG_formal_parameter
      93                            .dwattr $C$DW$4, DW_AT_type(*$C$DW$T$27)
      94                    
      95                    $C$DW$5 .dwtag  DW_TAG_formal_parameter
      96                            .dwattr $C$DW$5, DW_AT_type(*$C$DW$T$25)
      97                    
      98                            .dwendtag $C$DW$3
      99                    
     100                    
     101                    $C$DW$6 .dwtag  DW_TAG_subprogram
     102                            .dwattr $C$DW$6, DW_AT_name("IntEnable")
     103                            .dwattr $C$DW$6, DW_AT_TI_symbol_name("IntEnable")
     104                            .dwattr $C$DW$6, DW_AT_declaration
     105                            .dwattr $C$DW$6, DW_AT_external
     106                            .dwattr $C$DW$6, DW_AT_decl_file("/home/pola/workspace_v8/Microwave/driverlib/interrupt.h")
     107                            .dwattr $C$DW$6, DW_AT_decl_line(0x4c)
     108                            .dwattr $C$DW$6, DW_AT_decl_column(0x0d)
     109                    $C$DW$7 .dwtag  DW_TAG_formal_parameter
     110                            .dwattr $C$DW$7, DW_AT_type(*$C$DW$T$27)
TI ARM Assembler Unix v18.1.1 Fri Jul  3 20:08:26 2020

Tools Copyright (c) 1996-2017 Texas Instruments Incorporated
timer.asm                                                            PAGE    3

     111                    
     112                            .dwendtag $C$DW$6
     113                    
     114                    
     115                    $C$DW$8 .dwtag  DW_TAG_subprogram
     116                            .dwattr $C$DW$8, DW_AT_name("IntDisable")
     117                            .dwattr $C$DW$8, DW_AT_TI_symbol_name("IntDisable")
     118                            .dwattr $C$DW$8, DW_AT_declaration
     119                            .dwattr $C$DW$8, DW_AT_external
     120                            .dwattr $C$DW$8, DW_AT_decl_file("/home/pola/workspace_v8/Microwave/driverlib/interrupt.h")
     121                            .dwattr $C$DW$8, DW_AT_decl_line(0x4d)
     122                            .dwattr $C$DW$8, DW_AT_decl_column(0x0d)
     123                    $C$DW$9 .dwtag  DW_TAG_formal_parameter
     124                            .dwattr $C$DW$9, DW_AT_type(*$C$DW$T$27)
     125                    
     126                            .dwendtag $C$DW$8
     127                    
     128                    
     129                    $C$DW$10        .dwtag  DW_TAG_subprogram
     130                            .dwattr $C$DW$10, DW_AT_name("IntUnregister")
     131                            .dwattr $C$DW$10, DW_AT_TI_symbol_name("IntUnregister")
     132                            .dwattr $C$DW$10, DW_AT_declaration
     133                            .dwattr $C$DW$10, DW_AT_external
     134                            .dwattr $C$DW$10, DW_AT_decl_file("/home/pola/workspace_v8/Microwave/driverlib/interrupt.h")
     135                            .dwattr $C$DW$10, DW_AT_decl_line(0x46)
     136                            .dwattr $C$DW$10, DW_AT_decl_column(0x0d)
     137                    $C$DW$11        .dwtag  DW_TAG_formal_parameter
     138                            .dwattr $C$DW$11, DW_AT_type(*$C$DW$T$27)
     139                    
     140                            .dwendtag $C$DW$10
     141                    
     142                    ;       /home/pola/ti/ccsv8/tools/compiler/ti-cgt-arm_18.1.1.LTS/bin/armacpia -@/tmp/TI3Sv4mMyQW 
     143 00000000                   .sect   ".text"
     144                            .clink
     145                            .thumbfunc _TimerIntNumberGet
     146 00000000                   .thumb
     147                    
     148                    $C$DW$12        .dwtag  DW_TAG_subprogram
     149                            .dwattr $C$DW$12, DW_AT_name("_TimerIntNumberGet")
     150                            .dwattr $C$DW$12, DW_AT_low_pc(_TimerIntNumberGet)
     151                            .dwattr $C$DW$12, DW_AT_high_pc(0x00)
     152                            .dwattr $C$DW$12, DW_AT_TI_symbol_name("_TimerIntNumberGet")
     153                            .dwattr $C$DW$12, DW_AT_type(*$C$DW$T$27)
     154                            .dwattr $C$DW$12, DW_AT_TI_begin_file("../driverlib/timer.c")
     155                            .dwattr $C$DW$12, DW_AT_TI_begin_line(0x93)
     156                            .dwattr $C$DW$12, DW_AT_TI_begin_column(0x01)
     157                            .dwattr $C$DW$12, DW_AT_decl_file("../driverlib/timer.c")
     158                            .dwattr $C$DW$12, DW_AT_decl_line(0x93)
     159                            .dwattr $C$DW$12, DW_AT_decl_column(0x01)
     160                            .dwattr $C$DW$12, DW_AT_TI_max_frame_size(0x18)
     161                            .dwpsn  file "../driverlib/timer.c",line 148,column 1,is_stmt,address _TimerIntNumberGet,isa 1
     162                    
     163                            .dwfde $C$DW$CIE, _TimerIntNumberGet
     164                    $C$DW$13        .dwtag  DW_TAG_formal_parameter
     165                            .dwattr $C$DW$13, DW_AT_name("ui32Base")
TI ARM Assembler Unix v18.1.1 Fri Jul  3 20:08:26 2020

Tools Copyright (c) 1996-2017 Texas Instruments Incorporated
timer.asm                                                            PAGE    4

     166                            .dwattr $C$DW$13, DW_AT_TI_symbol_name("ui32Base")
     167                            .dwattr $C$DW$13, DW_AT_type(*$C$DW$T$27)
     168                            .dwattr $C$DW$13, DW_AT_location[DW_OP_reg0]
     169                    
     170                    $C$DW$14        .dwtag  DW_TAG_formal_parameter
     171                            .dwattr $C$DW$14, DW_AT_name("ui32Timer")
     172                            .dwattr $C$DW$14, DW_AT_TI_symbol_name("ui32Timer")
     173                            .dwattr $C$DW$14, DW_AT_type(*$C$DW$T$27)
     174                            .dwattr $C$DW$14, DW_AT_location[DW_OP_reg1]
     175                    
     176                    ;----------------------------------------------------------------------
     177                    ; 147 | _TimerIntNumberGet(uint32_t ui32Base, uint32_t ui32Timer)              
     178                    ;----------------------------------------------------------------------
     179                    
     180                    ;*****************************************************************************
     181                    ;* FUNCTION NAME: _TimerIntNumberGet                                         *
     182                    ;*                                                                           *
     183                    ;*   Regs Modified     : A1,A2,A3,SP,SR                                      *
     184                    ;*   Regs Used         : A1,A2,A3,SP,LR,SR                                   *
     185                    ;*   Local Frame Size  : 0 Args + 24 Auto + 0 Save = 24 byte                 *
     186                    ;*****************************************************************************
     187 00000000           _TimerIntNumberGet:
     188                    ;* --------------------------------------------------------------------------*
     189                            .dwcfi  cfa_offset, 0
     190 00000000 0D18F1AD          SUB       SP, SP, #24           ; [DPU_V7M3_PIPE]  ; [KEEP 32-BIT INS]
     191                            .dwcfi  cfa_offset, 24
     192                    $C$DW$15        .dwtag  DW_TAG_variable
     193                            .dwattr $C$DW$15, DW_AT_name("ui32Base")
     194                            .dwattr $C$DW$15, DW_AT_TI_symbol_name("ui32Base")
     195                            .dwattr $C$DW$15, DW_AT_type(*$C$DW$T$27)
     196                            .dwattr $C$DW$15, DW_AT_location[DW_OP_breg13 0]
     197                    
     198                    $C$DW$16        .dwtag  DW_TAG_variable
     199                            .dwattr $C$DW$16, DW_AT_name("ui32Timer")
     200                            .dwattr $C$DW$16, DW_AT_TI_symbol_name("ui32Timer")
     201                            .dwattr $C$DW$16, DW_AT_type(*$C$DW$T$27)
     202                            .dwattr $C$DW$16, DW_AT_location[DW_OP_breg13 4]
     203                    
     204                    $C$DW$17        .dwtag  DW_TAG_variable
     205                            .dwattr $C$DW$17, DW_AT_name("ui32Int")
     206                            .dwattr $C$DW$17, DW_AT_TI_symbol_name("ui32Int")
     207                            .dwattr $C$DW$17, DW_AT_type(*$C$DW$T$27)
     208                            .dwattr $C$DW$17, DW_AT_location[DW_OP_breg13 8]
     209                    
     210                    $C$DW$18        .dwtag  DW_TAG_variable
     211                            .dwattr $C$DW$18, DW_AT_name("ui8Idx")
     212                            .dwattr $C$DW$18, DW_AT_TI_symbol_name("ui8Idx")
     213                            .dwattr $C$DW$18, DW_AT_type(*$C$DW$T$106)
     214                            .dwattr $C$DW$18, DW_AT_location[DW_OP_breg13 12]
     215                    
     216                    $C$DW$19        .dwtag  DW_TAG_variable
     217                            .dwattr $C$DW$19, DW_AT_name("ui8Rows")
     218                            .dwattr $C$DW$19, DW_AT_TI_symbol_name("ui8Rows")
     219                            .dwattr $C$DW$19, DW_AT_type(*$C$DW$T$106)
     220                            .dwattr $C$DW$19, DW_AT_location[DW_OP_breg13 16]
TI ARM Assembler Unix v18.1.1 Fri Jul  3 20:08:26 2020

Tools Copyright (c) 1996-2017 Texas Instruments Incorporated
timer.asm                                                            PAGE    5

     221                    
     222                    $C$DW$20        .dwtag  DW_TAG_variable
     223                            .dwattr $C$DW$20, DW_AT_name("ppui32SSIIntMap")
     224                            .dwattr $C$DW$20, DW_AT_TI_symbol_name("ppui32SSIIntMap")
     225                            .dwattr $C$DW$20, DW_AT_type(*$C$DW$T$124)
     226                            .dwattr $C$DW$20, DW_AT_location[DW_OP_breg13 20]
     227                    
     228                    ;----------------------------------------------------------------------
     229                    ; 149 | uint32_t ui32Int;                                                      
     230                    ; 150 | uint_fast8_t ui8Idx, ui8Rows;                                          
     231                    ; 151 | const uint32_t (*ppui32SSIIntMap)[2];                                  
     232                    ; 153 | //                                                                     
     233                    ; 154 | // Default interrupt map.                                              
     234                    ; 155 | //                                                                     
     235                    ;----------------------------------------------------------------------
     236 00000004 9101              STR       A2, [SP, #4]          ; [DPU_V7M3_PIPE] |148|  ; [ORIG 16-BIT INS]
     237 00000006 9000              STR       A1, [SP, #0]          ; [DPU_V7M3_PIPE] |148|  ; [ORIG 16-BIT INS]
     238                            .dwpsn  file "../driverlib/timer.c",line 156,column 5,is_stmt,isa 1
     239                    ;----------------------------------------------------------------------
     240                    ; 156 | ppui32SSIIntMap = g_ppui32TimerIntMap;                                 
     241                    ;----------------------------------------------------------------------
     242 00000008 48B1              LDR       A1, $C$CON1           ; [DPU_V7M3_PIPE] |156|  ; [ORIG 16-BIT INS]
     243 0000000a 9005              STR       A1, [SP, #20]         ; [DPU_V7M3_PIPE] |156|  ; [ORIG 16-BIT INS]
     244                            .dwpsn  file "../driverlib/timer.c",line 157,column 5,is_stmt,isa 1
     245                    ;----------------------------------------------------------------------
     246                    ; 157 | ui8Rows = g_ui8TimerIntMapRows;                                        
     247                    ;----------------------------------------------------------------------
     248 0000000c 200C              MOVS      A1, #12               ; [DPU_V7M3_PIPE] |157|  ; [ORIG 16-BIT INS]
     249 0000000e 9004              STR       A1, [SP, #16]         ; [DPU_V7M3_PIPE] |157|  ; [ORIG 16-BIT INS]
     250                            .dwpsn  file "../driverlib/timer.c",line 159,column 5,is_stmt,isa 1
     251                    ;----------------------------------------------------------------------
     252                    ; 159 | if(CLASS_IS_TM4C129)                                                   
     253                    ;----------------------------------------------------------------------
     254 00000010 49B1              LDR       A2, $C$CON3           ; [DPU_V7M3_PIPE] |159|  ; [ORIG 16-BIT INS]
     255 00000012 48B0              LDR       A1, $C$CON2           ; [DPU_V7M3_PIPE] |159|  ; [ORIG 16-BIT INS]
     256 00000014 680A              LDR       A3, [A2, #0]          ; [DPU_V7M3_PIPE] |159|  ; [ORIG 16-BIT INS]
     257 00000016 49B1              LDR       A2, $C$CON4           ; [DPU_V7M3_PIPE] |159|  ; [ORIG 16-BIT INS]
     258 00000018 4010              ANDS      A1, A1, A3            ; [DPU_V7M3_PIPE] |159|  ; [ORIG 16-BIT INS]
     259 0000001a 4281              CMP       A2, A1                ; [DPU_V7M3_PIPE] |159|  ; [ORIG 16-BIT INS]
     260 0000001c D103              BNE       ||$C$L1||             ; [DPU_V7M3_PIPE] |159|  ; [ORIG 16-BIT INS]
     261                            ; BRANCHCC OCCURS {||$C$L1||}    ; [] |159| 
     262                    ;* --------------------------------------------------------------------------*
     263                            .dwpsn  file "../driverlib/timer.c",line 161,column 9,is_stmt,isa 1
     264                    ;----------------------------------------------------------------------
     265                    ; 161 | ppui32SSIIntMap = g_ppui32TimerIntMapSnowflake;                        
     266                    ;----------------------------------------------------------------------
     267 0000001e 48B0              LDR       A1, $C$CON5           ; [DPU_V7M3_PIPE] |161|  ; [ORIG 16-BIT INS]
     268 00000020 9005              STR       A1, [SP, #20]         ; [DPU_V7M3_PIPE] |161|  ; [ORIG 16-BIT INS]
     269                            .dwpsn  file "../driverlib/timer.c",line 162,column 9,is_stmt,isa 1
     270                    ;----------------------------------------------------------------------
     271                    ; 162 | ui8Rows = g_ui8TimerIntMapRowsSnowflake;                               
     272                    ; 165 | //                                                                     
     273                    ; 166 | // Loop through the table that maps timer base addresses to interrupt  
     274                    ; 167 | // numbers.                                                            
     275                    ; 168 | //                                                                     
TI ARM Assembler Unix v18.1.1 Fri Jul  3 20:08:26 2020

Tools Copyright (c) 1996-2017 Texas Instruments Incorporated
timer.asm                                                            PAGE    6

     276                    ;----------------------------------------------------------------------
     277 00000022 2008              MOVS      A1, #8                ; [DPU_V7M3_PIPE] |162|  ; [ORIG 16-BIT INS]
     278 00000024 9004              STR       A1, [SP, #16]         ; [DPU_V7M3_PIPE] |162|  ; [ORIG 16-BIT INS]
     279                    ;* --------------------------------------------------------------------------*
     280 00000026           ||$C$L1||:    
     281                            .dwpsn  file "../driverlib/timer.c",line 169,column 9,is_stmt,isa 1
     282                    ;----------------------------------------------------------------------
     283                    ; 169 | for(ui8Idx = 0; ui8Idx < ui8Rows; ui8Idx++)                            
     284                    ;----------------------------------------------------------------------
     285 00000026 2000              MOVS      A1, #0                ; [DPU_V7M3_PIPE] |169|  ; [ORIG 16-BIT INS]
     286 00000028 9003              STR       A1, [SP, #12]         ; [DPU_V7M3_PIPE] |169|  ; [ORIG 16-BIT INS]
     287                            .dwpsn  file "../driverlib/timer.c",line 169,column 21,is_stmt,isa 1
     288                    ;----------------------------------------------------------------------
     289                    ; 171 | //                                                                     
     290                    ; 172 | // See if this base address matches.                                   
     291                    ; 173 | //                                                                     
     292                    ;----------------------------------------------------------------------
     293 0000002a 9804              LDR       A1, [SP, #16]         ; [DPU_V7M3_PIPE] |169|  ; [ORIG 16-BIT INS]
     294 0000002c 9903              LDR       A2, [SP, #12]         ; [DPU_V7M3_PIPE] |169|  ; [ORIG 16-BIT INS]
     295 0000002e 4288              CMP       A1, A2                ; [DPU_V7M3_PIPE] |169|  ; [ORIG 16-BIT INS]
     296 00000030 D91C              BLS       ||$C$L5||             ; [DPU_V7M3_PIPE] |169|  ; [ORIG 16-BIT INS]
     297                            ; BRANCHCC OCCURS {||$C$L5||}    ; [] |169| 
     298                    ;* --------------------------------------------------------------------------*
     299                    ;*   BEGIN LOOP ||$C$L2||
     300                    ;*
     301                    ;*   Loop source line                : 169
     302                    ;*   Loop closing brace source line  : 188
     303                    ;*   Known Minimum Trip Count        : 1
     304                    ;*   Known Maximum Trip Count        : 4294967295
     305                    ;*   Known Max Trip Count Factor     : 1
     306                    ;* --------------------------------------------------------------------------*
     307 00000032           ||$C$L2||:    
     308                            .dwpsn  file "../driverlib/timer.c",line 174,column 9,is_stmt,isa 1
     309                    ;----------------------------------------------------------------------
     310                    ; 174 | if(ppui32SSIIntMap[ui8Idx][0] == ui32Base)                             
     311                    ;----------------------------------------------------------------------
     312 00000032 9903              LDR       A2, [SP, #12]         ; [DPU_V7M3_PIPE] |174|  ; [ORIG 16-BIT INS]
     313 00000034 9A05              LDR       A3, [SP, #20]         ; [DPU_V7M3_PIPE] |174|  ; [ORIG 16-BIT INS]
     314 00000036 9800              LDR       A1, [SP, #0]          ; [DPU_V7M3_PIPE] |174|  ; [ORIG 16-BIT INS]
     315 00000038 1031F852          LDR       A2, [A3, +A2, LSL #3] ; [DPU_V7M3_PIPE] |174|  ; [KEEP 32-BIT INS]
     316 0000003c 4288              CMP       A1, A2                ; [DPU_V7M3_PIPE] |174|  ; [ORIG 16-BIT INS]
     317 0000003e D10E              BNE       ||$C$L4||             ; [DPU_V7M3_PIPE] |174|  ; [ORIG 16-BIT INS]
     318                            ; BRANCHCC OCCURS {||$C$L4||}    ; [] |174| 
     319                    ;* --------------------------------------------------------------------------*
     320                            .dwpsn  file "../driverlib/timer.c",line 176,column 13,is_stmt,isa 1
     321                    ;----------------------------------------------------------------------
     322                    ; 176 | ui32Int = ppui32SSIIntMap[ui8Idx][1];                                  
     323                    ;----------------------------------------------------------------------
     324 00000040 9903              LDR       A2, [SP, #12]         ; [DPU_V7M3_PIPE] |176|  ; [ORIG 16-BIT INS]
     325 00000042 9805              LDR       A1, [SP, #20]         ; [DPU_V7M3_PIPE] |176|  ; [ORIG 16-BIT INS]
     326 00000044 00C1EB00          ADD       A1, A1, A2, LSL #3    ; [DPU_V7M3_PIPE] |176|  ; [KEEP 32-BIT INS]
     327 00000048 6840              LDR       A1, [A1, #4]          ; [DPU_V7M3_PIPE] |176|  ; [ORIG 16-BIT INS]
     328 0000004a 9002              STR       A1, [SP, #8]          ; [DPU_V7M3_PIPE] |176|  ; [ORIG 16-BIT INS]
     329                            .dwpsn  file "../driverlib/timer.c",line 178,column 13,is_stmt,isa 1
     330                    ;----------------------------------------------------------------------
TI ARM Assembler Unix v18.1.1 Fri Jul  3 20:08:26 2020

Tools Copyright (c) 1996-2017 Texas Instruments Incorporated
timer.asm                                                            PAGE    7

     331                    ; 178 | if(ui32Timer == TIMER_B)                                               
     332                    ;----------------------------------------------------------------------
     333 0000004c 9801              LDR       A1, [SP, #4]          ; [DPU_V7M3_PIPE] |178|  ; [ORIG 16-BIT INS]
     334 0000004e 4F7FF5B0          CMP       A1, #65280            ; [DPU_V7M3_PIPE] |178|  ; [KEEP 32-BIT INS]
     335 00000052 D102              BNE       ||$C$L3||             ; [DPU_V7M3_PIPE] |178|  ; [ORIG 16-BIT INS]
     336                            ; BRANCHCC OCCURS {||$C$L3||}    ; [] |178| 
     337                    ;* --------------------------------------------------------------------------*
     338                            .dwpsn  file "../driverlib/timer.c",line 180,column 17,is_stmt,isa 1
     339                    ;----------------------------------------------------------------------
     340                    ; 180 | ui32Int += 1;                                                          
     341                    ; 183 | //                                                                     
     342                    ; 184 | // Return the corresponding interrupt number.                          
     343                    ; 185 | //                                                                     
     344                    ;----------------------------------------------------------------------
     345 00000054 9802              LDR       A1, [SP, #8]          ; [DPU_V7M3_PIPE] |180|  ; [ORIG 16-BIT INS]
     346 00000056 1C40              ADDS      A1, A1, #1            ; [DPU_V7M3_PIPE] |180|  ; [ORIG 16-BIT INS]
     347 00000058 9002              STR       A1, [SP, #8]          ; [DPU_V7M3_PIPE] |180|  ; [ORIG 16-BIT INS]
     348                    ;* --------------------------------------------------------------------------*
     349 0000005a           ||$C$L3||:    
     350                            .dwpsn  file "../driverlib/timer.c",line 186,column 13,is_stmt,isa 1
     351                    ;----------------------------------------------------------------------
     352                    ; 186 | return(ui32Int);                                                       
     353                    ; 190 | //                                                                     
     354                    ; 191 | // The base address could not be found, so return an error.            
     355                    ; 192 | //                                                                     
     356                    ;----------------------------------------------------------------------
     357 0000005a 9802              LDR       A1, [SP, #8]          ; [DPU_V7M3_PIPE] |186|  ; [ORIG 16-BIT INS]
     358 0000005c E007              B         ||$C$L6||             ; [DPU_V7M3_PIPE] |186|  ; [ORIG 16-BIT INS]
     359                            ; BRANCH OCCURS {||$C$L6||}      ; [] |186| 
     360                    ;* --------------------------------------------------------------------------*
     361 0000005e           ||$C$L4||:    
     362                            .dwpsn  file "../driverlib/timer.c",line 169,column 39,is_stmt,isa 1
     363 0000005e 9803              LDR       A1, [SP, #12]         ; [DPU_V7M3_PIPE] |169|  ; [ORIG 16-BIT INS]
     364 00000060 1C40              ADDS      A1, A1, #1            ; [DPU_V7M3_PIPE] |169|  ; [ORIG 16-BIT INS]
     365 00000062 9003              STR       A1, [SP, #12]         ; [DPU_V7M3_PIPE] |169|  ; [ORIG 16-BIT INS]
     366                            .dwpsn  file "../driverlib/timer.c",line 169,column 21,is_stmt,isa 1
     367 00000064 9804              LDR       A1, [SP, #16]         ; [DPU_V7M3_PIPE] |169|  ; [ORIG 16-BIT INS]
     368 00000066 9903              LDR       A2, [SP, #12]         ; [DPU_V7M3_PIPE] |169|  ; [ORIG 16-BIT INS]
     369 00000068 4288              CMP       A1, A2                ; [DPU_V7M3_PIPE] |169|  ; [ORIG 16-BIT INS]
     370 0000006a D8E2              BHI       ||$C$L2||             ; [DPU_V7M3_PIPE] |169|  ; [ORIG 16-BIT INS]
     371                            ; BRANCHCC OCCURS {||$C$L2||}    ; [] |169| 
     372                    ;* --------------------------------------------------------------------------*
     373 0000006c           ||$C$L5||:    
     374                            .dwpsn  file "../driverlib/timer.c",line 193,column 5,is_stmt,isa 1
     375                    ;----------------------------------------------------------------------
     376                    ; 193 | return(0);                                                             
     377                    ;----------------------------------------------------------------------
     378 0000006c 2000              MOVS      A1, #0                ; [DPU_V7M3_PIPE] |193|  ; [ORIG 16-BIT INS]
     379                    ;* --------------------------------------------------------------------------*
     380 0000006e           ||$C$L6||:    
     381                            .dwpsn  file "../driverlib/timer.c",line 194,column 1,is_stmt,isa 1
     382 0000006e B006              ADD       SP, SP, #24           ; [DPU_V7M3_PIPE]  ; [ORIG 16-BIT INS]
     383                            .dwcfi  cfa_offset, 0
     384                    $C$DW$21        .dwtag  DW_TAG_TI_branch
     385                            .dwattr $C$DW$21, DW_AT_low_pc(0x00)
TI ARM Assembler Unix v18.1.1 Fri Jul  3 20:08:26 2020

Tools Copyright (c) 1996-2017 Texas Instruments Incorporated
timer.asm                                                            PAGE    8

     386                            .dwattr $C$DW$21, DW_AT_TI_return
     387                    
     388 00000070 4770              BX        LR                    ; [DPU_V7M3_PIPE]  ; [ORIG 16-BIT INS]
     389                            ; BRANCH OCCURS                  ; [] 
     390                            .dwattr $C$DW$12, DW_AT_TI_end_file("../driverlib/timer.c")
     391                            .dwattr $C$DW$12, DW_AT_TI_end_line(0xc2)
     392                            .dwattr $C$DW$12, DW_AT_TI_end_column(0x01)
     393                            .dwendentry
     394                            .dwendtag $C$DW$12
     395                    
     396 00000072                   .sect   ".text"
     397                            .clink
     398                            .thumbfunc TimerEnable
     399 00000072                   .thumb
     400                            .global TimerEnable
     401                    
     402                    $C$DW$22        .dwtag  DW_TAG_subprogram
     403                            .dwattr $C$DW$22, DW_AT_name("TimerEnable")
     404                            .dwattr $C$DW$22, DW_AT_low_pc(TimerEnable)
     405                            .dwattr $C$DW$22, DW_AT_high_pc(0x00)
     406                            .dwattr $C$DW$22, DW_AT_TI_symbol_name("TimerEnable")
     407                            .dwattr $C$DW$22, DW_AT_external
     408                            .dwattr $C$DW$22, DW_AT_TI_begin_file("../driverlib/timer.c")
     409                            .dwattr $C$DW$22, DW_AT_TI_begin_line(0xd3)
     410                            .dwattr $C$DW$22, DW_AT_TI_begin_column(0x01)
     411                            .dwattr $C$DW$22, DW_AT_decl_file("../driverlib/timer.c")
     412                            .dwattr $C$DW$22, DW_AT_decl_line(0xd3)
     413                            .dwattr $C$DW$22, DW_AT_decl_column(0x01)
     414                            .dwattr $C$DW$22, DW_AT_TI_max_frame_size(0x08)
     415                            .dwpsn  file "../driverlib/timer.c",line 212,column 1,is_stmt,address TimerEnable,isa 1
     416                    
     417                            .dwfde $C$DW$CIE, TimerEnable
     418                    $C$DW$23        .dwtag  DW_TAG_formal_parameter
     419                            .dwattr $C$DW$23, DW_AT_name("ui32Base")
     420                            .dwattr $C$DW$23, DW_AT_TI_symbol_name("ui32Base")
     421                            .dwattr $C$DW$23, DW_AT_type(*$C$DW$T$27)
     422                            .dwattr $C$DW$23, DW_AT_location[DW_OP_reg0]
     423                    
     424                    $C$DW$24        .dwtag  DW_TAG_formal_parameter
     425                            .dwattr $C$DW$24, DW_AT_name("ui32Timer")
     426                            .dwattr $C$DW$24, DW_AT_TI_symbol_name("ui32Timer")
     427                            .dwattr $C$DW$24, DW_AT_type(*$C$DW$T$27)
     428                            .dwattr $C$DW$24, DW_AT_location[DW_OP_reg1]
     429                    
     430                    ;----------------------------------------------------------------------
     431                    ; 211 | TimerEnable(uint32_t ui32Base, uint32_t ui32Timer)                     
     432                    ;----------------------------------------------------------------------
     433                    
     434                    ;*****************************************************************************
     435                    ;* FUNCTION NAME: TimerEnable                                                *
     436                    ;*                                                                           *
     437                    ;*   Regs Modified     : A1,A2,A3,A4,SP,SR                                   *
     438                    ;*   Regs Used         : A1,A2,A3,A4,SP,LR,SR                                *
     439                    ;*   Local Frame Size  : 0 Args + 8 Auto + 0 Save = 8 byte                   *
     440                    ;*****************************************************************************
TI ARM Assembler Unix v18.1.1 Fri Jul  3 20:08:26 2020

Tools Copyright (c) 1996-2017 Texas Instruments Incorporated
timer.asm                                                            PAGE    9

     441 00000072           TimerEnable:
     442                    ;* --------------------------------------------------------------------------*
     443                            .dwcfi  cfa_offset, 0
     444 00000072 0D08F1AD          SUB       SP, SP, #8            ; [DPU_V7M3_PIPE]  ; [KEEP 32-BIT INS]
     445                            .dwcfi  cfa_offset, 8
     446                    $C$DW$25        .dwtag  DW_TAG_variable
     447                            .dwattr $C$DW$25, DW_AT_name("ui32Base")
     448                            .dwattr $C$DW$25, DW_AT_TI_symbol_name("ui32Base")
     449                            .dwattr $C$DW$25, DW_AT_type(*$C$DW$T$27)
     450                            .dwattr $C$DW$25, DW_AT_location[DW_OP_breg13 0]
     451                    
     452                    $C$DW$26        .dwtag  DW_TAG_variable
     453                            .dwattr $C$DW$26, DW_AT_name("ui32Timer")
     454                            .dwattr $C$DW$26, DW_AT_TI_symbol_name("ui32Timer")
     455                            .dwattr $C$DW$26, DW_AT_type(*$C$DW$T$27)
     456                            .dwattr $C$DW$26, DW_AT_location[DW_OP_breg13 4]
     457                    
     458                    ;----------------------------------------------------------------------
     459                    ; 213 | //                                                                     
     460                    ; 214 | // Check the arguments.                                                
     461                    ; 215 | //                                                                     
     462                    ; 216 | ASSERT(_TimerBaseValid(ui32Base));                                     
     463                    ; 217 | ASSERT((ui32Timer == TIMER_A) || (ui32Timer == TIMER_B) ||             
     464                    ; 218 |        (ui32Timer == TIMER_BOTH));                                     
     465                    ; 220 | //                                                                     
     466                    ; 221 | // Enable the timer(s) module.                                         
     467                    ; 222 | //                                                                     
     468                    ;----------------------------------------------------------------------
     469 00000076 9101              STR       A2, [SP, #4]          ; [DPU_V7M3_PIPE] |212|  ; [ORIG 16-BIT INS]
     470 00000078 9000              STR       A1, [SP, #0]          ; [DPU_V7M3_PIPE] |212|  ; [ORIG 16-BIT INS]
     471                            .dwpsn  file "../driverlib/timer.c",line 223,column 5,is_stmt,isa 1
     472                    ;----------------------------------------------------------------------
     473                    ; 223 | HWREG(ui32Base + TIMER_O_CTL) |= ui32Timer & (TIMER_CTL_TAEN |         
     474                    ; 224 |                                               TIMER_CTL_TBEN);         
     475                    ;----------------------------------------------------------------------
     476 0000007a 9800              LDR       A1, [SP, #0]          ; [DPU_V7M3_PIPE] |223|  ; [ORIG 16-BIT INS]
     477 0000007c 9B01              LDR       A4, [SP, #4]          ; [DPU_V7M3_PIPE] |223|  ; [ORIG 16-BIT INS]
     478 0000007e 300C              ADDS      A1, A1, #12           ; [DPU_V7M3_PIPE] |223|  ; [ORIG 16-BIT INS]
     479 00000080 6802              LDR       A3, [A1, #0]          ; [DPU_V7M3_PIPE] |223|  ; [ORIG 16-BIT INS]
     480 00000082 1101F240          MOV       A2, #257              ; [DPU_V7M3_PIPE] |223|  ; [KEEP 32-BIT INS]
     481 00000086 4019              ANDS      A2, A2, A4            ; [DPU_V7M3_PIPE] |223|  ; [ORIG 16-BIT INS]
     482 00000088 4311              ORRS      A2, A2, A3            ; [DPU_V7M3_PIPE] |223|  ; [ORIG 16-BIT INS]
     483 0000008a 6001              STR       A2, [A1, #0]          ; [DPU_V7M3_PIPE] |223|  ; [ORIG 16-BIT INS]
     484                            .dwpsn  file "../driverlib/timer.c",line 225,column 1,is_stmt,isa 1
     485 0000008c B002              ADD       SP, SP, #8            ; [DPU_V7M3_PIPE]  ; [ORIG 16-BIT INS]
     486                            .dwcfi  cfa_offset, 0
     487                    $C$DW$27        .dwtag  DW_TAG_TI_branch
     488                            .dwattr $C$DW$27, DW_AT_low_pc(0x00)
     489                            .dwattr $C$DW$27, DW_AT_TI_return
     490                    
     491 0000008e 4770              BX        LR                    ; [DPU_V7M3_PIPE]  ; [ORIG 16-BIT INS]
     492                            ; BRANCH OCCURS                  ; [] 
     493                            .dwattr $C$DW$22, DW_AT_TI_end_file("../driverlib/timer.c")
     494                            .dwattr $C$DW$22, DW_AT_TI_end_line(0xe1)
     495                            .dwattr $C$DW$22, DW_AT_TI_end_column(0x01)
TI ARM Assembler Unix v18.1.1 Fri Jul  3 20:08:26 2020

Tools Copyright (c) 1996-2017 Texas Instruments Incorporated
timer.asm                                                            PAGE   10

     496                            .dwendentry
     497                            .dwendtag $C$DW$22
     498                    
     499 00000090                   .sect   ".text"
     500                            .clink
     501                            .thumbfunc TimerDisable
     502 00000090                   .thumb
     503                            .global TimerDisable
     504                    
     505                    $C$DW$28        .dwtag  DW_TAG_subprogram
     506                            .dwattr $C$DW$28, DW_AT_name("TimerDisable")
     507                            .dwattr $C$DW$28, DW_AT_low_pc(TimerDisable)
     508                            .dwattr $C$DW$28, DW_AT_high_pc(0x00)
     509                            .dwattr $C$DW$28, DW_AT_TI_symbol_name("TimerDisable")
     510                            .dwattr $C$DW$28, DW_AT_external
     511                            .dwattr $C$DW$28, DW_AT_TI_begin_file("../driverlib/timer.c")
     512                            .dwattr $C$DW$28, DW_AT_TI_begin_line(0xf1)
     513                            .dwattr $C$DW$28, DW_AT_TI_begin_column(0x01)
     514                            .dwattr $C$DW$28, DW_AT_decl_file("../driverlib/timer.c")
     515                            .dwattr $C$DW$28, DW_AT_decl_line(0xf1)
     516                            .dwattr $C$DW$28, DW_AT_decl_column(0x01)
     517                            .dwattr $C$DW$28, DW_AT_TI_max_frame_size(0x08)
     518                            .dwpsn  file "../driverlib/timer.c",line 242,column 1,is_stmt,address TimerDisable,isa 1
     519                    
     520                            .dwfde $C$DW$CIE, TimerDisable
     521                    $C$DW$29        .dwtag  DW_TAG_formal_parameter
     522                            .dwattr $C$DW$29, DW_AT_name("ui32Base")
     523                            .dwattr $C$DW$29, DW_AT_TI_symbol_name("ui32Base")
     524                            .dwattr $C$DW$29, DW_AT_type(*$C$DW$T$27)
     525                            .dwattr $C$DW$29, DW_AT_location[DW_OP_reg0]
     526                    
     527                    $C$DW$30        .dwtag  DW_TAG_formal_parameter
     528                            .dwattr $C$DW$30, DW_AT_name("ui32Timer")
     529                            .dwattr $C$DW$30, DW_AT_TI_symbol_name("ui32Timer")
     530                            .dwattr $C$DW$30, DW_AT_type(*$C$DW$T$27)
     531                            .dwattr $C$DW$30, DW_AT_location[DW_OP_reg1]
     532                    
     533                    ;----------------------------------------------------------------------
     534                    ; 241 | TimerDisable(uint32_t ui32Base, uint32_t ui32Timer)                    
     535                    ;----------------------------------------------------------------------
     536                    
     537                    ;*****************************************************************************
     538                    ;* FUNCTION NAME: TimerDisable                                               *
     539                    ;*                                                                           *
     540                    ;*   Regs Modified     : A1,A2,A3,A4,SP,SR                                   *
     541                    ;*   Regs Used         : A1,A2,A3,A4,SP,LR,SR                                *
     542                    ;*   Local Frame Size  : 0 Args + 8 Auto + 0 Save = 8 byte                   *
     543                    ;*****************************************************************************
     544 00000090           TimerDisable:
     545                    ;* --------------------------------------------------------------------------*
     546                            .dwcfi  cfa_offset, 0
     547 00000090 0D08F1AD          SUB       SP, SP, #8            ; [DPU_V7M3_PIPE]  ; [KEEP 32-BIT INS]
     548                            .dwcfi  cfa_offset, 8
     549                    $C$DW$31        .dwtag  DW_TAG_variable
     550                            .dwattr $C$DW$31, DW_AT_name("ui32Base")
TI ARM Assembler Unix v18.1.1 Fri Jul  3 20:08:26 2020

Tools Copyright (c) 1996-2017 Texas Instruments Incorporated
timer.asm                                                            PAGE   11

     551                            .dwattr $C$DW$31, DW_AT_TI_symbol_name("ui32Base")
     552                            .dwattr $C$DW$31, DW_AT_type(*$C$DW$T$27)
     553                            .dwattr $C$DW$31, DW_AT_location[DW_OP_breg13 0]
     554                    
     555                    $C$DW$32        .dwtag  DW_TAG_variable
     556                            .dwattr $C$DW$32, DW_AT_name("ui32Timer")
     557                            .dwattr $C$DW$32, DW_AT_TI_symbol_name("ui32Timer")
     558                            .dwattr $C$DW$32, DW_AT_type(*$C$DW$T$27)
     559                            .dwattr $C$DW$32, DW_AT_location[DW_OP_breg13 4]
     560                    
     561                    ;----------------------------------------------------------------------
     562                    ; 243 | //                                                                     
     563                    ; 244 | // Check the arguments.                                                
     564                    ; 245 | //                                                                     
     565                    ; 246 | ASSERT(_TimerBaseValid(ui32Base));                                     
     566                    ; 247 | ASSERT((ui32Timer == TIMER_A) || (ui32Timer == TIMER_B) ||             
     567                    ; 248 |        (ui32Timer == TIMER_BOTH));                                     
     568                    ; 250 | //                                                                     
     569                    ; 251 | // Disable the timer module.                                           
     570                    ; 252 | //                                                                     
     571                    ;----------------------------------------------------------------------
     572 00000094 9101              STR       A2, [SP, #4]          ; [DPU_V7M3_PIPE] |242|  ; [ORIG 16-BIT INS]
     573 00000096 9000              STR       A1, [SP, #0]          ; [DPU_V7M3_PIPE] |242|  ; [ORIG 16-BIT INS]
     574                            .dwpsn  file "../driverlib/timer.c",line 253,column 5,is_stmt,isa 1
     575                    ;----------------------------------------------------------------------
     576                    ; 253 | HWREG(ui32Base + TIMER_O_CTL) &= ~(ui32Timer &                         
     577                    ; 254 |                                    (TIMER_CTL_TAEN | TIMER_CTL_TBEN)); 
     578                    ;----------------------------------------------------------------------
     579 00000098 9800              LDR       A1, [SP, #0]          ; [DPU_V7M3_PIPE] |253|  ; [ORIG 16-BIT INS]
     580 0000009a 9B01              LDR       A4, [SP, #4]          ; [DPU_V7M3_PIPE] |253|  ; [ORIG 16-BIT INS]
     581 0000009c 300C              ADDS      A1, A1, #12           ; [DPU_V7M3_PIPE] |253|  ; [ORIG 16-BIT INS]
     582 0000009e 6802              LDR       A3, [A1, #0]          ; [DPU_V7M3_PIPE] |253|  ; [ORIG 16-BIT INS]
     583 000000a0 1101F240          MOV       A2, #257              ; [DPU_V7M3_PIPE] |253|  ; [KEEP 32-BIT INS]
     584 000000a4 4019              ANDS      A2, A2, A4            ; [DPU_V7M3_PIPE] |253|  ; [ORIG 16-BIT INS]
     585 000000a6 438A              BICS      A3, A3, A2            ; [DPU_V7M3_PIPE] |253|  ; [ORIG 16-BIT INS]
     586 000000a8 6002              STR       A3, [A1, #0]          ; [DPU_V7M3_PIPE] |253|  ; [ORIG 16-BIT INS]
     587                            .dwpsn  file "../driverlib/timer.c",line 255,column 1,is_stmt,isa 1
     588 000000aa B002              ADD       SP, SP, #8            ; [DPU_V7M3_PIPE]  ; [ORIG 16-BIT INS]
     589                            .dwcfi  cfa_offset, 0
     590                    $C$DW$33        .dwtag  DW_TAG_TI_branch
     591                            .dwattr $C$DW$33, DW_AT_low_pc(0x00)
     592                            .dwattr $C$DW$33, DW_AT_TI_return
     593                    
     594 000000ac 4770              BX        LR                    ; [DPU_V7M3_PIPE]  ; [ORIG 16-BIT INS]
     595                            ; BRANCH OCCURS                  ; [] 
     596                            .dwattr $C$DW$28, DW_AT_TI_end_file("../driverlib/timer.c")
     597                            .dwattr $C$DW$28, DW_AT_TI_end_line(0xff)
     598                            .dwattr $C$DW$28, DW_AT_TI_end_column(0x01)
     599                            .dwendentry
     600                            .dwendtag $C$DW$28
     601                    
     602 000000ae                   .sect   ".text"
     603                            .clink
     604                            .thumbfunc TimerConfigure
     605 000000ae                   .thumb
TI ARM Assembler Unix v18.1.1 Fri Jul  3 20:08:26 2020

Tools Copyright (c) 1996-2017 Texas Instruments Incorporated
timer.asm                                                            PAGE   12

     606                            .global TimerConfigure
     607                    
     608                    $C$DW$34        .dwtag  DW_TAG_subprogram
     609                            .dwattr $C$DW$34, DW_AT_name("TimerConfigure")
     610                            .dwattr $C$DW$34, DW_AT_low_pc(TimerConfigure)
     611                            .dwattr $C$DW$34, DW_AT_high_pc(0x00)
     612                            .dwattr $C$DW$34, DW_AT_TI_symbol_name("TimerConfigure")
     613                            .dwattr $C$DW$34, DW_AT_external
     614                            .dwattr $C$DW$34, DW_AT_TI_begin_file("../driverlib/timer.c")
     615                            .dwattr $C$DW$34, DW_AT_TI_begin_line(0x15d)
     616                            .dwattr $C$DW$34, DW_AT_TI_begin_column(0x01)
     617                            .dwattr $C$DW$34, DW_AT_decl_file("../driverlib/timer.c")
     618                            .dwattr $C$DW$34, DW_AT_decl_line(0x15d)
     619                            .dwattr $C$DW$34, DW_AT_decl_column(0x01)
     620                            .dwattr $C$DW$34, DW_AT_TI_max_frame_size(0x08)
     621                            .dwpsn  file "../driverlib/timer.c",line 350,column 1,is_stmt,address TimerConfigure,isa 1
     622                    
     623                            .dwfde $C$DW$CIE, TimerConfigure
     624                    $C$DW$35        .dwtag  DW_TAG_formal_parameter
     625                            .dwattr $C$DW$35, DW_AT_name("ui32Base")
     626                            .dwattr $C$DW$35, DW_AT_TI_symbol_name("ui32Base")
     627                            .dwattr $C$DW$35, DW_AT_type(*$C$DW$T$27)
     628                            .dwattr $C$DW$35, DW_AT_location[DW_OP_reg0]
     629                    
     630                    $C$DW$36        .dwtag  DW_TAG_formal_parameter
     631                            .dwattr $C$DW$36, DW_AT_name("ui32Config")
     632                            .dwattr $C$DW$36, DW_AT_TI_symbol_name("ui32Config")
     633                            .dwattr $C$DW$36, DW_AT_type(*$C$DW$T$27)
     634                            .dwattr $C$DW$36, DW_AT_location[DW_OP_reg1]
     635                    
     636                    ;----------------------------------------------------------------------
     637                    ; 349 | TimerConfigure(uint32_t ui32Base, uint32_t ui32Config)                 
     638                    ;----------------------------------------------------------------------
     639                    
     640                    ;*****************************************************************************
     641                    ;* FUNCTION NAME: TimerConfigure                                             *
     642                    ;*                                                                           *
     643                    ;*   Regs Modified     : A1,A2,A3,SP,SR                                      *
     644                    ;*   Regs Used         : A1,A2,A3,SP,LR,SR                                   *
     645                    ;*   Local Frame Size  : 0 Args + 8 Auto + 0 Save = 8 byte                   *
     646                    ;*****************************************************************************
     647 000000ae           TimerConfigure:
     648                    ;* --------------------------------------------------------------------------*
     649                            .dwcfi  cfa_offset, 0
     650 000000ae 0D08F1AD          SUB       SP, SP, #8            ; [DPU_V7M3_PIPE]  ; [KEEP 32-BIT INS]
     651                            .dwcfi  cfa_offset, 8
     652                    $C$DW$37        .dwtag  DW_TAG_variable
     653                            .dwattr $C$DW$37, DW_AT_name("ui32Base")
     654                            .dwattr $C$DW$37, DW_AT_TI_symbol_name("ui32Base")
     655                            .dwattr $C$DW$37, DW_AT_type(*$C$DW$T$27)
     656                            .dwattr $C$DW$37, DW_AT_location[DW_OP_breg13 0]
     657                    
     658                    $C$DW$38        .dwtag  DW_TAG_variable
     659                            .dwattr $C$DW$38, DW_AT_name("ui32Config")
     660                            .dwattr $C$DW$38, DW_AT_TI_symbol_name("ui32Config")
TI ARM Assembler Unix v18.1.1 Fri Jul  3 20:08:26 2020

Tools Copyright (c) 1996-2017 Texas Instruments Incorporated
timer.asm                                                            PAGE   13

     661                            .dwattr $C$DW$38, DW_AT_type(*$C$DW$T$27)
     662                            .dwattr $C$DW$38, DW_AT_location[DW_OP_breg13 4]
     663                    
     664                    ;----------------------------------------------------------------------
     665                    ; 351 | //                                                                     
     666                    ; 352 | // Check the arguments.                                                
     667                    ; 353 | //                                                                     
     668                    ; 354 | ASSERT(_TimerBaseValid(ui32Base));                                     
     669                    ; 355 | ASSERT(((ui32Config & 0xfff0ffff) == TIMER_CFG_ONE_SHOT) ||            
     670                    ; 356 |        ((ui32Config & 0xfff0ffff) == TIMER_CFG_ONE_SHOT_UP) ||         
     671                    ; 357 |        ((ui32Config & 0xfff0ffff) == TIMER_CFG_PERIODIC) ||            
     672                    ; 358 |        ((ui32Config & 0xfff0ffff) == TIMER_CFG_PERIODIC_UP) ||         
     673                    ; 359 |        ((ui32Config & 0xfff0ffff) == TIMER_CFG_RTC) ||                 
     674                    ; 360 |        ((ui32Config & 0xff000000) == TIMER_CFG_SPLIT_PAIR));           
     675                    ; 361 | ASSERT(((ui32Config & 0xff000000) != TIMER_CFG_SPLIT_PAIR) ||          
     676                    ; 362 |        ((((ui32Config & 0x000000ff) == TIMER_CFG_A_ONE_SHOT) ||        
     677                    ; 363 |          ((ui32Config & 0x000000ff) == TIMER_CFG_A_ONE_SHOT_UP) ||     
     678                    ; 364 |          ((ui32Config & 0x000000ff) == TIMER_CFG_A_PERIODIC) ||        
     679                    ; 365 |          ((ui32Config & 0x000000ff) == TIMER_CFG_A_PERIODIC_UP) ||     
     680                    ; 366 |          ((ui32Config & 0x000000ff) == TIMER_CFG_A_CAP_COUNT) ||       
     681                    ; 367 |          ((ui32Config & 0x000000ff) == TIMER_CFG_A_CAP_COUNT_UP) ||    
     682                    ; 368 |          ((ui32Config & 0x000000ff) == TIMER_CFG_A_CAP_TIME) ||        
     683                    ; 369 |          ((ui32Config & 0x000000ff) == TIMER_CFG_A_CAP_TIME_UP) ||     
     684                    ; 370 |          ((ui32Config & 0x000000ff) == TIMER_CFG_A_ONE_SHOT_PWM) ||    
     685                    ; 371 |          ((ui32Config & 0x000000ff) == TIMER_CFG_A_PWM)) &&            
     686                    ; 372 |         (((ui32Config & 0x0000ff00) == TIMER_CFG_B_ONE_SHOT) ||        
     687                    ; 373 |          ((ui32Config & 0x0000ff00) == TIMER_CFG_B_ONE_SHOT_UP) ||     
     688                    ; 374 |          ((ui32Config & 0x0000ff00) == TIMER_CFG_B_PERIODIC) ||        
     689                    ; 375 |          ((ui32Config & 0x0000ff00) == TIMER_CFG_B_PERIODIC_UP) ||     
     690                    ; 376 |          ((ui32Config & 0x0000ff00) == TIMER_CFG_B_CAP_COUNT) ||       
     691                    ; 377 |          ((ui32Config & 0x0000ff00) == TIMER_CFG_B_CAP_COUNT_UP) ||    
     692                    ; 378 |          ((ui32Config & 0x0000ff00) == TIMER_CFG_B_CAP_TIME) ||        
     693                    ; 379 |          ((ui32Config & 0x0000ff00) == TIMER_CFG_B_CAP_TIME_UP) ||     
     694                    ; 380 |          ((ui32Config & 0x0000ff00) == TIMER_CFG_B_ONE_SHOT_PWM) ||    
     695                    ; 381 |          ((ui32Config & 0x0000ff00) == TIMER_CFG_B_PWM))));            
     696                    ; 383 | //                                                                     
     697                    ; 384 | // Disable the timers.                                                 
     698                    ; 385 | //                                                                     
     699                    ;----------------------------------------------------------------------
     700 000000b2 9101              STR       A2, [SP, #4]          ; [DPU_V7M3_PIPE] |350|  ; [ORIG 16-BIT INS]
     701 000000b4 9000              STR       A1, [SP, #0]          ; [DPU_V7M3_PIPE] |350|  ; [ORIG 16-BIT INS]
     702                            .dwpsn  file "../driverlib/timer.c",line 386,column 5,is_stmt,isa 1
     703                    ;----------------------------------------------------------------------
     704                    ; 386 | HWREG(ui32Base + TIMER_O_CTL) &= ~(TIMER_CTL_TAEN | TIMER_CTL_TBEN);   
     705                    ; 388 | //                                                                     
     706                    ; 389 | // Set the global timer configuration.                                 
     707                    ; 390 | //                                                                     
     708                    ;----------------------------------------------------------------------
     709 000000b6 49AB              LDR       A2, $C$CON6           ; [DPU_V7M3_PIPE] |386|  ; [ORIG 16-BIT INS]
     710 000000b8 9800              LDR       A1, [SP, #0]          ; [DPU_V7M3_PIPE] |386|  ; [ORIG 16-BIT INS]
     711 000000ba 300C              ADDS      A1, A1, #12           ; [DPU_V7M3_PIPE] |386|  ; [ORIG 16-BIT INS]
     712 000000bc 6802              LDR       A3, [A1, #0]          ; [DPU_V7M3_PIPE] |386|  ; [ORIG 16-BIT INS]
     713 000000be 4011              ANDS      A2, A2, A3            ; [DPU_V7M3_PIPE] |386|  ; [ORIG 16-BIT INS]
     714 000000c0 6001              STR       A2, [A1, #0]          ; [DPU_V7M3_PIPE] |386|  ; [ORIG 16-BIT INS]
     715                            .dwpsn  file "../driverlib/timer.c",line 391,column 5,is_stmt,isa 1
TI ARM Assembler Unix v18.1.1 Fri Jul  3 20:08:26 2020

Tools Copyright (c) 1996-2017 Texas Instruments Incorporated
timer.asm                                                            PAGE   14

     716                    ;----------------------------------------------------------------------
     717                    ; 391 | HWREG(ui32Base + TIMER_O_CFG) = ui32Config >> 24;                      
     718                    ; 393 | //                                                                     
     719                    ; 394 | // Set the configuration of the A and B timers and set the TxPWMIE bit.
     720                    ; 395 | // Note that the B timer configuration is ignored by the hardware in 32
     721                    ;     | -bit                                                                   
     722                    ; 396 | // modes.                                                              
     723                    ; 397 | //                                                                     
     724                    ;----------------------------------------------------------------------
     725 000000c2 9801              LDR       A1, [SP, #4]          ; [DPU_V7M3_PIPE] |391|  ; [ORIG 16-BIT INS]
     726 000000c4 9900              LDR       A2, [SP, #0]          ; [DPU_V7M3_PIPE] |391|  ; [ORIG 16-BIT INS]
     727 000000c6 0E00              LSRS      A1, A1, #24           ; [DPU_V7M3_PIPE] |391|  ; [ORIG 16-BIT INS]
     728 000000c8 6008              STR       A1, [A2, #0]          ; [DPU_V7M3_PIPE] |391|  ; [ORIG 16-BIT INS]
     729                            .dwpsn  file "../driverlib/timer.c",line 398,column 5,is_stmt,isa 1
     730                    ;----------------------------------------------------------------------
     731                    ; 398 | if(NEW_TIMER_CONFIGURATION)                                            
     732                    ;----------------------------------------------------------------------
     733 000000ca 4983              LDR       A2, $C$CON3           ; [DPU_V7M3_PIPE] |398|  ; [ORIG 16-BIT INS]
     734 000000cc 4881              LDR       A1, $C$CON2           ; [DPU_V7M3_PIPE] |398|  ; [ORIG 16-BIT INS]
     735 000000ce 680A              LDR       A3, [A2, #0]          ; [DPU_V7M3_PIPE] |398|  ; [ORIG 16-BIT INS]
     736 000000d0 4982              LDR       A2, $C$CON4           ; [DPU_V7M3_PIPE] |398|  ; [ORIG 16-BIT INS]
     737 000000d2 4010              ANDS      A1, A1, A3            ; [DPU_V7M3_PIPE] |398|  ; [ORIG 16-BIT INS]
     738 000000d4 4281              CMP       A2, A1                ; [DPU_V7M3_PIPE] |398|  ; [ORIG 16-BIT INS]
     739 000000d6 D118              BNE       ||$C$L7||             ; [DPU_V7M3_PIPE] |398|  ; [ORIG 16-BIT INS]
     740                            ; BRANCHCC OCCURS {||$C$L7||}    ; [] |398| 
     741                    ;* --------------------------------------------------------------------------*
     742                            .dwpsn  file "../driverlib/timer.c",line 400,column 9,is_stmt,isa 1
     743                    ;----------------------------------------------------------------------
     744                    ; 400 | HWREG(ui32Base + TIMER_O_TAMR) = (((ui32Config & 0x000f0000) >> 4) |   
     745                    ; 401 |                                   (ui32Config & 0xff) |                
     746                    ; 402 |                                   TIMER_TAMR_TAPWMIE);                 
     747                    ;----------------------------------------------------------------------
     748 000000d8 9901              LDR       A2, [SP, #4]          ; [DPU_V7M3_PIPE] |400|  ; [ORIG 16-BIT INS]
     749 000000da 9801              LDR       A1, [SP, #4]          ; [DPU_V7M3_PIPE] |400|  ; [ORIG 16-BIT INS]
     750 000000dc 9A00              LDR       A3, [SP, #0]          ; [DPU_V7M3_PIPE] |400|  ; [ORIG 16-BIT INS]
     751 000000de 2170F401          AND       A2, A2, #983040       ; [DPU_V7M3_PIPE] |400|  ; [KEEP 32-BIT INS]
     752 000000e2 00FFF000          AND       A1, A1, #255          ; [DPU_V7M3_PIPE] |400|  ; [KEEP 32-BIT INS]
     753 000000e6 1011EA40          ORR       A1, A1, A2, LSR #4    ; [DPU_V7M3_PIPE] |400|  ; [KEEP 32-BIT INS]
     754 000000ea 7000F440          ORR       A1, A1, #512          ; [DPU_V7M3_PIPE] |400|  ; [KEEP 32-BIT INS]
     755 000000ee 6050              STR       A1, [A3, #4]          ; [DPU_V7M3_PIPE] |400|  ; [ORIG 16-BIT INS]
     756                            .dwpsn  file "../driverlib/timer.c",line 403,column 9,is_stmt,isa 1
     757                    ;----------------------------------------------------------------------
     758                    ; 403 | HWREG(ui32Base + TIMER_O_TBMR) = (((ui32Config & 0x00f00000) >> 8) |   
     759                    ; 404 |                                   ((ui32Config >> 8) & 0xff) |         
     760                    ; 405 |                                   TIMER_TBMR_TBPWMIE);                 
     761                    ;----------------------------------------------------------------------
     762 000000f0 9901              LDR       A2, [SP, #4]          ; [DPU_V7M3_PIPE] |403|  ; [ORIG 16-BIT INS]
     763 000000f2 9801              LDR       A1, [SP, #4]          ; [DPU_V7M3_PIPE] |403|  ; [ORIG 16-BIT INS]
     764 000000f4 9A00              LDR       A3, [SP, #0]          ; [DPU_V7M3_PIPE] |403|  ; [ORIG 16-BIT INS]
     765 000000f6 0170F401          AND       A2, A2, #15728640     ; [DPU_V7M3_PIPE] |403|  ; [KEEP 32-BIT INS]
     766 000000fa 2007F3C0          UBFX      A1, A1, #8, #8        ; [DPU_V7M3_PIPE] |403|  ; [KEEP 32-BIT INS]
     767 000000fe 2011EA40          ORR       A1, A1, A2, LSR #8    ; [DPU_V7M3_PIPE] |403|  ; [KEEP 32-BIT INS]
     768 00000102 7000F440          ORR       A1, A1, #512          ; [DPU_V7M3_PIPE] |403|  ; [KEEP 32-BIT INS]
     769 00000106 6090              STR       A1, [A3, #8]          ; [DPU_V7M3_PIPE] |403|  ; [ORIG 16-BIT INS]
     770                            .dwpsn  file "../driverlib/timer.c",line 406,column 5,is_stmt,isa 1
TI ARM Assembler Unix v18.1.1 Fri Jul  3 20:08:26 2020

Tools Copyright (c) 1996-2017 Texas Instruments Incorporated
timer.asm                                                            PAGE   15

     771                    ;----------------------------------------------------------------------
     772                    ; 407 | else                                                                   
     773                    ;----------------------------------------------------------------------
     774 00000108 E00D              B         ||$C$L8||             ; [DPU_V7M3_PIPE] |406|  ; [ORIG 16-BIT INS]
     775                            ; BRANCH OCCURS {||$C$L8||}      ; [] |406| 
     776                    ;* --------------------------------------------------------------------------*
     777 0000010a           ||$C$L7||:    
     778                            .dwpsn  file "../driverlib/timer.c",line 409,column 9,is_stmt,isa 1
     779                    ;----------------------------------------------------------------------
     780                    ; 409 | HWREG(ui32Base + TIMER_O_TAMR) = ((ui32Config & 0xff) |                
     781                    ; 410 |                                   TIMER_TAMR_TAPWMIE);                 
     782                    ;----------------------------------------------------------------------
     783 0000010a 9801              LDR       A1, [SP, #4]          ; [DPU_V7M3_PIPE] |409|  ; [ORIG 16-BIT INS]
     784 0000010c 9900              LDR       A2, [SP, #0]          ; [DPU_V7M3_PIPE] |409|  ; [ORIG 16-BIT INS]
     785 0000010e 00FFF000          AND       A1, A1, #255          ; [DPU_V7M3_PIPE] |409|  ; [KEEP 32-BIT INS]
     786 00000112 7000F440          ORR       A1, A1, #512          ; [DPU_V7M3_PIPE] |409|  ; [KEEP 32-BIT INS]
     787 00000116 6048              STR       A1, [A2, #4]          ; [DPU_V7M3_PIPE] |409|  ; [ORIG 16-BIT INS]
     788                            .dwpsn  file "../driverlib/timer.c",line 411,column 9,is_stmt,isa 1
     789                    ;----------------------------------------------------------------------
     790                    ; 411 | HWREG(ui32Base + TIMER_O_TBMR) = (((ui32Config >> 8) & 0xff) |         
     791                    ; 412 |                                   TIMER_TBMR_TBPWMIE);                 
     792                    ;----------------------------------------------------------------------
     793 00000118 9801              LDR       A1, [SP, #4]          ; [DPU_V7M3_PIPE] |411|  ; [ORIG 16-BIT INS]
     794 0000011a 9900              LDR       A2, [SP, #0]          ; [DPU_V7M3_PIPE] |411|  ; [ORIG 16-BIT INS]
     795 0000011c 2007F3C0          UBFX      A1, A1, #8, #8        ; [DPU_V7M3_PIPE] |411|  ; [KEEP 32-BIT INS]
     796 00000120 7000F440          ORR       A1, A1, #512          ; [DPU_V7M3_PIPE] |411|  ; [KEEP 32-BIT INS]
     797 00000124 6088              STR       A1, [A2, #8]          ; [DPU_V7M3_PIPE] |411|  ; [ORIG 16-BIT INS]
     798                            .dwpsn  file "../driverlib/timer.c",line 414,column 1,is_stmt,isa 1
     799                    ;* --------------------------------------------------------------------------*
     800 00000126           ||$C$L8||:    
     801 00000126 B002              ADD       SP, SP, #8            ; [DPU_V7M3_PIPE]  ; [ORIG 16-BIT INS]
     802                            .dwcfi  cfa_offset, 0
     803                    $C$DW$39        .dwtag  DW_TAG_TI_branch
     804                            .dwattr $C$DW$39, DW_AT_low_pc(0x00)
     805                            .dwattr $C$DW$39, DW_AT_TI_return
     806                    
     807 00000128 4770              BX        LR                    ; [DPU_V7M3_PIPE]  ; [ORIG 16-BIT INS]
     808                            ; BRANCH OCCURS                  ; [] 
     809                            .dwattr $C$DW$34, DW_AT_TI_end_file("../driverlib/timer.c")
     810                            .dwattr $C$DW$34, DW_AT_TI_end_line(0x19e)
     811                            .dwattr $C$DW$34, DW_AT_TI_end_column(0x01)
     812                            .dwendentry
     813                            .dwendtag $C$DW$34
     814                    
     815 0000012a                   .sect   ".text"
     816                            .clink
     817                            .thumbfunc TimerControlLevel
     818 0000012a                   .thumb
     819                            .global TimerControlLevel
     820                    
     821                    $C$DW$40        .dwtag  DW_TAG_subprogram
     822                            .dwattr $C$DW$40, DW_AT_name("TimerControlLevel")
     823                            .dwattr $C$DW$40, DW_AT_low_pc(TimerControlLevel)
     824                            .dwattr $C$DW$40, DW_AT_high_pc(0x00)
     825                            .dwattr $C$DW$40, DW_AT_TI_symbol_name("TimerControlLevel")
TI ARM Assembler Unix v18.1.1 Fri Jul  3 20:08:26 2020

Tools Copyright (c) 1996-2017 Texas Instruments Incorporated
timer.asm                                                            PAGE   16

     826                            .dwattr $C$DW$40, DW_AT_external
     827                            .dwattr $C$DW$40, DW_AT_TI_begin_file("../driverlib/timer.c")
     828                            .dwattr $C$DW$40, DW_AT_TI_begin_line(0x1b1)
     829                            .dwattr $C$DW$40, DW_AT_TI_begin_column(0x01)
     830                            .dwattr $C$DW$40, DW_AT_decl_file("../driverlib/timer.c")
     831                            .dwattr $C$DW$40, DW_AT_decl_line(0x1b1)
     832                            .dwattr $C$DW$40, DW_AT_decl_column(0x01)
     833                            .dwattr $C$DW$40, DW_AT_TI_max_frame_size(0x10)
     834                            .dwpsn  file "../driverlib/timer.c",line 434,column 1,is_stmt,address TimerControlLevel,isa 1
     835                    
     836                            .dwfde $C$DW$CIE, TimerControlLevel
     837                    $C$DW$41        .dwtag  DW_TAG_formal_parameter
     838                            .dwattr $C$DW$41, DW_AT_name("ui32Base")
     839                            .dwattr $C$DW$41, DW_AT_TI_symbol_name("ui32Base")
     840                            .dwattr $C$DW$41, DW_AT_type(*$C$DW$T$27)
     841                            .dwattr $C$DW$41, DW_AT_location[DW_OP_reg0]
     842                    
     843                    $C$DW$42        .dwtag  DW_TAG_formal_parameter
     844                            .dwattr $C$DW$42, DW_AT_name("ui32Timer")
     845                            .dwattr $C$DW$42, DW_AT_TI_symbol_name("ui32Timer")
     846                            .dwattr $C$DW$42, DW_AT_type(*$C$DW$T$27)
     847                            .dwattr $C$DW$42, DW_AT_location[DW_OP_reg1]
     848                    
     849                    $C$DW$43        .dwtag  DW_TAG_formal_parameter
     850                            .dwattr $C$DW$43, DW_AT_name("bInvert")
     851                            .dwattr $C$DW$43, DW_AT_TI_symbol_name("bInvert")
     852                            .dwattr $C$DW$43, DW_AT_type(*$C$DW$T$33)
     853                            .dwattr $C$DW$43, DW_AT_location[DW_OP_reg2]
     854                    
     855                    ;----------------------------------------------------------------------
     856                    ; 433 | TimerControlLevel(uint32_t ui32Base, uint32_t ui32Timer, bool bInvert) 
     857                    ;----------------------------------------------------------------------
     858                    
     859                    ;*****************************************************************************
     860                    ;* FUNCTION NAME: TimerControlLevel                                          *
     861                    ;*                                                                           *
     862                    ;*   Regs Modified     : A1,A2,SP,SR                                         *
     863                    ;*   Regs Used         : A1,A2,A3,SP,LR,SR                                   *
     864                    ;*   Local Frame Size  : 0 Args + 12 Auto + 0 Save = 12 byte                 *
     865                    ;*****************************************************************************
     866 0000012a           TimerControlLevel:
     867                    ;* --------------------------------------------------------------------------*
     868                            .dwcfi  cfa_offset, 0
     869 0000012a 0D10F1AD          SUB       SP, SP, #16           ; [DPU_V7M3_PIPE]  ; [KEEP 32-BIT INS]
     870                            .dwcfi  cfa_offset, 16
     871                    $C$DW$44        .dwtag  DW_TAG_variable
     872                            .dwattr $C$DW$44, DW_AT_name("ui32Base")
     873                            .dwattr $C$DW$44, DW_AT_TI_symbol_name("ui32Base")
     874                            .dwattr $C$DW$44, DW_AT_type(*$C$DW$T$27)
     875                            .dwattr $C$DW$44, DW_AT_location[DW_OP_breg13 0]
     876                    
     877                    $C$DW$45        .dwtag  DW_TAG_variable
     878                            .dwattr $C$DW$45, DW_AT_name("ui32Timer")
     879                            .dwattr $C$DW$45, DW_AT_TI_symbol_name("ui32Timer")
     880                            .dwattr $C$DW$45, DW_AT_type(*$C$DW$T$27)
TI ARM Assembler Unix v18.1.1 Fri Jul  3 20:08:26 2020

Tools Copyright (c) 1996-2017 Texas Instruments Incorporated
timer.asm                                                            PAGE   17

     881                            .dwattr $C$DW$45, DW_AT_location[DW_OP_breg13 4]
     882                    
     883                    $C$DW$46        .dwtag  DW_TAG_variable
     884                            .dwattr $C$DW$46, DW_AT_name("bInvert")
     885                            .dwattr $C$DW$46, DW_AT_TI_symbol_name("bInvert")
     886                            .dwattr $C$DW$46, DW_AT_type(*$C$DW$T$33)
     887                            .dwattr $C$DW$46, DW_AT_location[DW_OP_breg13 8]
     888                    
     889                    ;----------------------------------------------------------------------
     890                    ; 435 | //                                                                     
     891                    ; 436 | // Check the arguments.                                                
     892                    ; 437 | //                                                                     
     893                    ; 438 | ASSERT(_TimerBaseValid(ui32Base));                                     
     894                    ; 439 | ASSERT((ui32Timer == TIMER_A) || (ui32Timer == TIMER_B) ||             
     895                    ; 440 |        (ui32Timer == TIMER_BOTH));                                     
     896                    ; 442 | //                                                                     
     897                    ; 443 | // Set the output levels as requested.                                 
     898                    ; 444 | //                                                                     
     899                    ;----------------------------------------------------------------------
     900 0000012e 2008F88D          STRB      A3, [SP, #8]          ; [DPU_V7M3_PIPE] |434|  ; [KEEP 32-BIT INS]
     901 00000132 9101              STR       A2, [SP, #4]          ; [DPU_V7M3_PIPE] |434|  ; [ORIG 16-BIT INS]
     902 00000134 9000              STR       A1, [SP, #0]          ; [DPU_V7M3_PIPE] |434|  ; [ORIG 16-BIT INS]
     903                            .dwpsn  file "../driverlib/timer.c",line 445,column 5,is_stmt,isa 1
     904                    ;----------------------------------------------------------------------
     905                    ; 445 | ui32Timer &= TIMER_CTL_TAPWML | TIMER_CTL_TBPWML;                      
     906                    ;----------------------------------------------------------------------
     907 00000136 9901              LDR       A2, [SP, #4]          ; [DPU_V7M3_PIPE] |445|  ; [ORIG 16-BIT INS]
     908 00000138 0040F244          MOV       A1, #16448            ; [DPU_V7M3_PIPE] |445|  ; [KEEP 32-BIT INS]
     909 0000013c 4008              ANDS      A1, A1, A2            ; [DPU_V7M3_PIPE] |445|  ; [ORIG 16-BIT INS]
     910 0000013e 9001              STR       A1, [SP, #4]          ; [DPU_V7M3_PIPE] |445|  ; [ORIG 16-BIT INS]
     911                            .dwpsn  file "../driverlib/timer.c",line 446,column 5,is_stmt,isa 1
     912                    ;----------------------------------------------------------------------
     913                    ; 446 | HWREG(ui32Base + TIMER_O_CTL) = (bInvert ?                             
     914                    ; 447 |                                  (HWREG(ui32Base + TIMER_O_CTL) |      
     915                    ; 448 |                                   ui32Timer) :                         
     916                    ; 449 |                                  (HWREG(ui32Base + TIMER_O_CTL) &      
     917                    ; 450 |                                   ~(ui32Timer)));                      
     918                    ;----------------------------------------------------------------------
     919 00000140 0008F89D          LDRB      A1, [SP, #8]          ; [DPU_V7M3_PIPE] |446|  ; [KEEP 32-BIT INS]
     920 00000144 B120              CBZ       A1, ||$C$L9||         ; []  ; [ORIG 16-BIT INS]
     921                            ; BRANCHCC OCCURS {||$C$L9||}    ; [] |446| 
     922                    ;* --------------------------------------------------------------------------*
     923 00000146 9900              LDR       A2, [SP, #0]          ; [DPU_V7M3_PIPE] |446|  ; [ORIG 16-BIT INS]
     924 00000148 9801              LDR       A1, [SP, #4]          ; [DPU_V7M3_PIPE] |446|  ; [ORIG 16-BIT INS]
     925 0000014a 68C9              LDR       A2, [A2, #12]         ; [DPU_V7M3_PIPE] |446|  ; [ORIG 16-BIT INS]
     926 0000014c 4308              ORRS      A1, A1, A2            ; [DPU_V7M3_PIPE] |446|  ; [ORIG 16-BIT INS]
     927 0000014e E003              B         ||$C$L10||            ; [DPU_V7M3_PIPE] |446|  ; [ORIG 16-BIT INS]
     928                            ; BRANCH OCCURS {||$C$L10||}     ; [] |446| 
     929                    ;* --------------------------------------------------------------------------*
     930 00000150           ||$C$L9||:    
     931 00000150 9800              LDR       A1, [SP, #0]          ; [DPU_V7M3_PIPE] |446|  ; [ORIG 16-BIT INS]
     932 00000152 9901              LDR       A2, [SP, #4]          ; [DPU_V7M3_PIPE] |446|  ; [ORIG 16-BIT INS]
     933 00000154 68C0              LDR       A1, [A1, #12]         ; [DPU_V7M3_PIPE] |446|  ; [ORIG 16-BIT INS]
     934 00000156 4388              BICS      A1, A1, A2            ; [DPU_V7M3_PIPE] |446|  ; [ORIG 16-BIT INS]
     935                    ;* --------------------------------------------------------------------------*
TI ARM Assembler Unix v18.1.1 Fri Jul  3 20:08:26 2020

Tools Copyright (c) 1996-2017 Texas Instruments Incorporated
timer.asm                                                            PAGE   18

     936 00000158           ||$C$L10||:    
     937 00000158 9900              LDR       A2, [SP, #0]          ; [DPU_V7M3_PIPE] |446|  ; [ORIG 16-BIT INS]
     938 0000015a 60C8              STR       A1, [A2, #12]         ; [DPU_V7M3_PIPE] |446|  ; [ORIG 16-BIT INS]
     939                            .dwpsn  file "../driverlib/timer.c",line 451,column 1,is_stmt,isa 1
     940 0000015c B004              ADD       SP, SP, #16           ; [DPU_V7M3_PIPE]  ; [ORIG 16-BIT INS]
     941                            .dwcfi  cfa_offset, 0
     942                    $C$DW$47        .dwtag  DW_TAG_TI_branch
     943                            .dwattr $C$DW$47, DW_AT_low_pc(0x00)
     944                            .dwattr $C$DW$47, DW_AT_TI_return
     945                    
     946 0000015e 4770              BX        LR                    ; [DPU_V7M3_PIPE]  ; [ORIG 16-BIT INS]
     947                            ; BRANCH OCCURS                  ; [] 
     948                            .dwattr $C$DW$40, DW_AT_TI_end_file("../driverlib/timer.c")
     949                            .dwattr $C$DW$40, DW_AT_TI_end_line(0x1c3)
     950                            .dwattr $C$DW$40, DW_AT_TI_end_column(0x01)
     951                            .dwendentry
     952                            .dwendtag $C$DW$40
     953                    
     954 00000160                   .sect   ".text"
     955                            .clink
     956                            .thumbfunc TimerControlTrigger
     957 00000160                   .thumb
     958                            .global TimerControlTrigger
     959                    
     960                    $C$DW$48        .dwtag  DW_TAG_subprogram
     961                            .dwattr $C$DW$48, DW_AT_name("TimerControlTrigger")
     962                            .dwattr $C$DW$48, DW_AT_low_pc(TimerControlTrigger)
     963                            .dwattr $C$DW$48, DW_AT_high_pc(0x00)
     964                            .dwattr $C$DW$48, DW_AT_TI_symbol_name("TimerControlTrigger")
     965                            .dwattr $C$DW$48, DW_AT_external
     966                            .dwattr $C$DW$48, DW_AT_TI_begin_file("../driverlib/timer.c")
     967                            .dwattr $C$DW$48, DW_AT_TI_begin_line(0x1d6)
     968                            .dwattr $C$DW$48, DW_AT_TI_begin_column(0x01)
     969                            .dwattr $C$DW$48, DW_AT_decl_file("../driverlib/timer.c")
     970                            .dwattr $C$DW$48, DW_AT_decl_line(0x1d6)
     971                            .dwattr $C$DW$48, DW_AT_decl_column(0x01)
     972                            .dwattr $C$DW$48, DW_AT_TI_max_frame_size(0x10)
     973                            .dwpsn  file "../driverlib/timer.c",line 472,column 1,is_stmt,address TimerControlTrigger,isa 
     974                    
     975                            .dwfde $C$DW$CIE, TimerControlTrigger
     976                    $C$DW$49        .dwtag  DW_TAG_formal_parameter
     977                            .dwattr $C$DW$49, DW_AT_name("ui32Base")
     978                            .dwattr $C$DW$49, DW_AT_TI_symbol_name("ui32Base")
     979                            .dwattr $C$DW$49, DW_AT_type(*$C$DW$T$27)
     980                            .dwattr $C$DW$49, DW_AT_location[DW_OP_reg0]
     981                    
     982                    $C$DW$50        .dwtag  DW_TAG_formal_parameter
     983                            .dwattr $C$DW$50, DW_AT_name("ui32Timer")
     984                            .dwattr $C$DW$50, DW_AT_TI_symbol_name("ui32Timer")
     985                            .dwattr $C$DW$50, DW_AT_type(*$C$DW$T$27)
     986                            .dwattr $C$DW$50, DW_AT_location[DW_OP_reg1]
     987                    
     988                    $C$DW$51        .dwtag  DW_TAG_formal_parameter
     989                            .dwattr $C$DW$51, DW_AT_name("bEnable")
     990                            .dwattr $C$DW$51, DW_AT_TI_symbol_name("bEnable")
TI ARM Assembler Unix v18.1.1 Fri Jul  3 20:08:26 2020

Tools Copyright (c) 1996-2017 Texas Instruments Incorporated
timer.asm                                                            PAGE   19

     991                            .dwattr $C$DW$51, DW_AT_type(*$C$DW$T$33)
     992                            .dwattr $C$DW$51, DW_AT_location[DW_OP_reg2]
     993                    
     994                    ;----------------------------------------------------------------------
     995                    ; 470 | TimerControlTrigger(uint32_t ui32Base, uint32_t ui32Timer,             
     996                    ; 471 | bool bEnable)                                                          
     997                    ;----------------------------------------------------------------------
     998                    
     999                    ;*****************************************************************************
    1000                    ;* FUNCTION NAME: TimerControlTrigger                                        *
    1001                    ;*                                                                           *
    1002                    ;*   Regs Modified     : A1,A2,A3,SP,SR                                      *
    1003                    ;*   Regs Used         : A1,A2,A3,SP,LR,SR                                   *
    1004                    ;*   Local Frame Size  : 0 Args + 16 Auto + 0 Save = 16 byte                 *
    1005                    ;*****************************************************************************
    1006 00000160           TimerControlTrigger:
    1007                    ;* --------------------------------------------------------------------------*
    1008                            .dwcfi  cfa_offset, 0
    1009 00000160 0D10F1AD          SUB       SP, SP, #16           ; [DPU_V7M3_PIPE]  ; [KEEP 32-BIT INS]
    1010                            .dwcfi  cfa_offset, 16
    1011                    $C$DW$52        .dwtag  DW_TAG_variable
    1012                            .dwattr $C$DW$52, DW_AT_name("ui32Base")
    1013                            .dwattr $C$DW$52, DW_AT_TI_symbol_name("ui32Base")
    1014                            .dwattr $C$DW$52, DW_AT_type(*$C$DW$T$27)
    1015                            .dwattr $C$DW$52, DW_AT_location[DW_OP_breg13 0]
    1016                    
    1017                    $C$DW$53        .dwtag  DW_TAG_variable
    1018                            .dwattr $C$DW$53, DW_AT_name("ui32Timer")
    1019                            .dwattr $C$DW$53, DW_AT_TI_symbol_name("ui32Timer")
    1020                            .dwattr $C$DW$53, DW_AT_type(*$C$DW$T$27)
    1021                            .dwattr $C$DW$53, DW_AT_location[DW_OP_breg13 4]
    1022                    
    1023                    $C$DW$54        .dwtag  DW_TAG_variable
    1024                            .dwattr $C$DW$54, DW_AT_name("bEnable")
    1025                            .dwattr $C$DW$54, DW_AT_TI_symbol_name("bEnable")
    1026                            .dwattr $C$DW$54, DW_AT_type(*$C$DW$T$33)
    1027                            .dwattr $C$DW$54, DW_AT_location[DW_OP_breg13 8]
    1028                    
    1029                    ;----------------------------------------------------------------------
    1030                    ; 473 | //                                                                     
    1031                    ; 474 | // Check the arguments.                                                
    1032                    ; 475 | //                                                                     
    1033                    ; 476 | ASSERT(_TimerBaseValid(ui32Base));                                     
    1034                    ; 477 | ASSERT((ui32Timer == TIMER_A) || (ui32Timer == TIMER_B) ||             
    1035                    ; 478 |        (ui32Timer == TIMER_BOTH));                                     
    1036                    ; 480 | //                                                                     
    1037                    ; 481 | // On newer devices the Timer time out ADC trigger enable must also    
    1038                    ; 482 | // be set.                                                             
    1039                    ; 483 | //                                                                     
    1040                    ;----------------------------------------------------------------------
    1041 00000164 2008F88D          STRB      A3, [SP, #8]          ; [DPU_V7M3_PIPE] |472|  ; [KEEP 32-BIT INS]
    1042 00000168 9101              STR       A2, [SP, #4]          ; [DPU_V7M3_PIPE] |472|  ; [ORIG 16-BIT INS]
    1043 0000016a 9000              STR       A1, [SP, #0]          ; [DPU_V7M3_PIPE] |472|  ; [ORIG 16-BIT INS]
    1044                            .dwpsn  file "../driverlib/timer.c",line 484,column 5,is_stmt,isa 1
    1045                    ;----------------------------------------------------------------------
TI ARM Assembler Unix v18.1.1 Fri Jul  3 20:08:26 2020

Tools Copyright (c) 1996-2017 Texas Instruments Incorporated
timer.asm                                                            PAGE   20

    1046                    ; 484 | if(NEW_TIMER_CONFIGURATION)                                            
    1047                    ; 486 |     uint32_t ui32Val;                                                  
    1048                    ; 488 |     //                                                                 
    1049                    ; 489 |     // Determine which bits to set or clear in GPTMADCEV.              
    1050                    ; 490 |     //                                                                 
    1051                    ;----------------------------------------------------------------------
    1052 0000016c 495A              LDR       A2, $C$CON3           ; [DPU_V7M3_PIPE] |484|  ; [ORIG 16-BIT INS]
    1053 0000016e 4859              LDR       A1, $C$CON2           ; [DPU_V7M3_PIPE] |484|  ; [ORIG 16-BIT INS]
    1054 00000170 680A              LDR       A3, [A2, #0]          ; [DPU_V7M3_PIPE] |484|  ; [ORIG 16-BIT INS]
    1055 00000172 495A              LDR       A2, $C$CON4           ; [DPU_V7M3_PIPE] |484|  ; [ORIG 16-BIT INS]
    1056 00000174 4010              ANDS      A1, A1, A3            ; [DPU_V7M3_PIPE] |484|  ; [ORIG 16-BIT INS]
    1057 00000176 4281              CMP       A2, A1                ; [DPU_V7M3_PIPE] |484|  ; [ORIG 16-BIT INS]
    1058 00000178 D114              BNE       ||$C$L13||            ; [DPU_V7M3_PIPE] |484|  ; [ORIG 16-BIT INS]
    1059                            ; BRANCHCC OCCURS {||$C$L13||}   ; [] |484| 
    1060                    ;* --------------------------------------------------------------------------*
    1061                    
    1062                    $C$DW$55        .dwtag  DW_TAG_lexical_block
    1063                            .dwattr $C$DW$55, DW_AT_low_pc(0x00)
    1064                            .dwattr $C$DW$55, DW_AT_high_pc(0x00)
    1065                    $C$DW$56        .dwtag  DW_TAG_variable
    1066                            .dwattr $C$DW$56, DW_AT_name("ui32Val")
    1067                            .dwattr $C$DW$56, DW_AT_TI_symbol_name("ui32Val")
    1068                            .dwattr $C$DW$56, DW_AT_type(*$C$DW$T$27)
    1069                            .dwattr $C$DW$56, DW_AT_location[DW_OP_breg13 12]
    1070                    
    1071                            .dwpsn  file "../driverlib/timer.c",line 491,column 9,is_stmt,isa 1
    1072                    ;----------------------------------------------------------------------
    1073                    ; 491 | ui32Val = (TIMER_ADCEV_TATOADCEN | TIMER_ADCEV_TBTOADCEN);             
    1074                    ;----------------------------------------------------------------------
    1075 0000017a 1001F240          MOV       A1, #257              ; [DPU_V7M3_PIPE] |491|  ; [KEEP 32-BIT INS]
    1076 0000017e 9003              STR       A1, [SP, #12]         ; [DPU_V7M3_PIPE] |491|  ; [ORIG 16-BIT INS]
    1077                            .dwpsn  file "../driverlib/timer.c",line 492,column 9,is_stmt,isa 1
    1078                    ;----------------------------------------------------------------------
    1079                    ; 492 | ui32Val &= ui32Timer;                                                  
    1080                    ; 494 | //                                                                     
    1081                    ; 495 | // Write the GPTM ADC Event register to enable or disable the trigger  
    1082                    ; 496 | // to the ADC.                                                         
    1083                    ; 497 | //                                                                     
    1084                    ;----------------------------------------------------------------------
    1085 00000180 9801              LDR       A1, [SP, #4]          ; [DPU_V7M3_PIPE] |492|  ; [ORIG 16-BIT INS]
    1086 00000182 9903              LDR       A2, [SP, #12]         ; [DPU_V7M3_PIPE] |492|  ; [ORIG 16-BIT INS]
    1087 00000184 4008              ANDS      A1, A1, A2            ; [DPU_V7M3_PIPE] |492|  ; [ORIG 16-BIT INS]
    1088 00000186 9003              STR       A1, [SP, #12]         ; [DPU_V7M3_PIPE] |492|  ; [ORIG 16-BIT INS]
    1089                            .dwpsn  file "../driverlib/timer.c",line 498,column 9,is_stmt,isa 1
    1090                    ;----------------------------------------------------------------------
    1091                    ; 498 | HWREG(ui32Base + TIMER_O_ADCEV) = (bEnable ?                           
    1092                    ; 499 |                                    (HWREG(ui32Base + TIMER_O_ADCEV) |  
    1093                    ; 500 |                                     ui32Val) :                         
    1094                    ; 501 |                                    (HWREG(ui32Base + TIMER_O_ADCEV) &  
    1095                    ; 502 |                                     ~(ui32Val)));                      
    1096                    ; 505 | //                                                                     
    1097                    ; 506 | // Set the trigger output as requested.                                
    1098                    ; 507 | // Set the ADC trigger output as requested.                            
    1099                    ; 508 | //                                                                     
    1100                    ;----------------------------------------------------------------------
TI ARM Assembler Unix v18.1.1 Fri Jul  3 20:08:26 2020

Tools Copyright (c) 1996-2017 Texas Instruments Incorporated
timer.asm                                                            PAGE   21

    1101 00000188 0008F89D          LDRB      A1, [SP, #8]          ; [DPU_V7M3_PIPE] |498|  ; [KEEP 32-BIT INS]
    1102 0000018c B120              CBZ       A1, ||$C$L11||        ; []  ; [ORIG 16-BIT INS]
    1103                            ; BRANCHCC OCCURS {||$C$L11||}   ; [] |498| 
    1104                    ;* --------------------------------------------------------------------------*
    1105 0000018e 9900              LDR       A2, [SP, #0]          ; [DPU_V7M3_PIPE] |498|  ; [ORIG 16-BIT INS]
    1106 00000190 9803              LDR       A1, [SP, #12]         ; [DPU_V7M3_PIPE] |498|  ; [ORIG 16-BIT INS]
    1107 00000192 6F09              LDR       A2, [A2, #112]        ; [DPU_V7M3_PIPE] |498|  ; [ORIG 16-BIT INS]
    1108 00000194 4308              ORRS      A1, A1, A2            ; [DPU_V7M3_PIPE] |498|  ; [ORIG 16-BIT INS]
    1109 00000196 E003              B         ||$C$L12||            ; [DPU_V7M3_PIPE] |498|  ; [ORIG 16-BIT INS]
    1110                            ; BRANCH OCCURS {||$C$L12||}     ; [] |498| 
    1111                    ;* --------------------------------------------------------------------------*
    1112 00000198           ||$C$L11||:    
    1113 00000198 9800              LDR       A1, [SP, #0]          ; [DPU_V7M3_PIPE] |498|  ; [ORIG 16-BIT INS]
    1114 0000019a 9903              LDR       A2, [SP, #12]         ; [DPU_V7M3_PIPE] |498|  ; [ORIG 16-BIT INS]
    1115 0000019c 6F00              LDR       A1, [A1, #112]        ; [DPU_V7M3_PIPE] |498|  ; [ORIG 16-BIT INS]
    1116 0000019e 4388              BICS      A1, A1, A2            ; [DPU_V7M3_PIPE] |498|  ; [ORIG 16-BIT INS]
    1117                    ;* --------------------------------------------------------------------------*
    1118 000001a0           ||$C$L12||:    
    1119 000001a0 9900              LDR       A2, [SP, #0]          ; [DPU_V7M3_PIPE] |498|  ; [ORIG 16-BIT INS]
    1120 000001a2 6708              STR       A1, [A2, #112]        ; [DPU_V7M3_PIPE] |498|  ; [ORIG 16-BIT INS]
    1121                            .dwendtag $C$DW$55
    1122                    
    1123                    ;* --------------------------------------------------------------------------*
    1124 000001a4           ||$C$L13||:    
    1125                            .dwpsn  file "../driverlib/timer.c",line 509,column 5,is_stmt,isa 1
    1126                    ;----------------------------------------------------------------------
    1127                    ; 509 | ui32Timer &= TIMER_CTL_TAOTE | TIMER_CTL_TBOTE;                        
    1128                    ;----------------------------------------------------------------------
    1129 000001a4 9901              LDR       A2, [SP, #4]          ; [DPU_V7M3_PIPE] |509|  ; [ORIG 16-BIT INS]
    1130 000001a6 0020F242          MOV       A1, #8224             ; [DPU_V7M3_PIPE] |509|  ; [KEEP 32-BIT INS]
    1131 000001aa 4008              ANDS      A1, A1, A2            ; [DPU_V7M3_PIPE] |509|  ; [ORIG 16-BIT INS]
    1132 000001ac 9001              STR       A1, [SP, #4]          ; [DPU_V7M3_PIPE] |509|  ; [ORIG 16-BIT INS]
    1133                            .dwpsn  file "../driverlib/timer.c",line 510,column 5,is_stmt,isa 1
    1134                    ;----------------------------------------------------------------------
    1135                    ; 510 | HWREG(ui32Base + TIMER_O_CTL) = (bEnable ?                             
    1136                    ; 511 |                                  (HWREG(ui32Base + TIMER_O_CTL) |      
    1137                    ; 512 |                                   ui32Timer) :                         
    1138                    ; 513 |                                  (HWREG(ui32Base + TIMER_O_CTL) &      
    1139                    ; 514 |                                   ~(ui32Timer)));                      
    1140                    ;----------------------------------------------------------------------
    1141 000001ae 0008F89D          LDRB      A1, [SP, #8]          ; [DPU_V7M3_PIPE] |510|  ; [KEEP 32-BIT INS]
    1142 000001b2 B120              CBZ       A1, ||$C$L14||        ; []  ; [ORIG 16-BIT INS]
    1143                            ; BRANCHCC OCCURS {||$C$L14||}   ; [] |510| 
    1144                    ;* --------------------------------------------------------------------------*
    1145 000001b4 9900              LDR       A2, [SP, #0]          ; [DPU_V7M3_PIPE] |510|  ; [ORIG 16-BIT INS]
    1146 000001b6 9801              LDR       A1, [SP, #4]          ; [DPU_V7M3_PIPE] |510|  ; [ORIG 16-BIT INS]
    1147 000001b8 68C9              LDR       A2, [A2, #12]         ; [DPU_V7M3_PIPE] |510|  ; [ORIG 16-BIT INS]
    1148 000001ba 4308              ORRS      A1, A1, A2            ; [DPU_V7M3_PIPE] |510|  ; [ORIG 16-BIT INS]
    1149 000001bc E003              B         ||$C$L15||            ; [DPU_V7M3_PIPE] |510|  ; [ORIG 16-BIT INS]
    1150                            ; BRANCH OCCURS {||$C$L15||}     ; [] |510| 
    1151                    ;* --------------------------------------------------------------------------*
    1152 000001be           ||$C$L14||:    
    1153 000001be 9800              LDR       A1, [SP, #0]          ; [DPU_V7M3_PIPE] |510|  ; [ORIG 16-BIT INS]
    1154 000001c0 9901              LDR       A2, [SP, #4]          ; [DPU_V7M3_PIPE] |510|  ; [ORIG 16-BIT INS]
    1155 000001c2 68C0              LDR       A1, [A1, #12]         ; [DPU_V7M3_PIPE] |510|  ; [ORIG 16-BIT INS]
TI ARM Assembler Unix v18.1.1 Fri Jul  3 20:08:26 2020

Tools Copyright (c) 1996-2017 Texas Instruments Incorporated
timer.asm                                                            PAGE   22

    1156 000001c4 4388              BICS      A1, A1, A2            ; [DPU_V7M3_PIPE] |510|  ; [ORIG 16-BIT INS]
    1157                    ;* --------------------------------------------------------------------------*
    1158 000001c6           ||$C$L15||:    
    1159 000001c6 9900              LDR       A2, [SP, #0]          ; [DPU_V7M3_PIPE] |510|  ; [ORIG 16-BIT INS]
    1160 000001c8 60C8              STR       A1, [A2, #12]         ; [DPU_V7M3_PIPE] |510|  ; [ORIG 16-BIT INS]
    1161                            .dwpsn  file "../driverlib/timer.c",line 515,column 1,is_stmt,isa 1
    1162 000001ca B004              ADD       SP, SP, #16           ; [DPU_V7M3_PIPE]  ; [ORIG 16-BIT INS]
    1163                            .dwcfi  cfa_offset, 0
    1164                    $C$DW$57        .dwtag  DW_TAG_TI_branch
    1165                            .dwattr $C$DW$57, DW_AT_low_pc(0x00)
    1166                            .dwattr $C$DW$57, DW_AT_TI_return
    1167                    
    1168 000001cc 4770              BX        LR                    ; [DPU_V7M3_PIPE]  ; [ORIG 16-BIT INS]
    1169                            ; BRANCH OCCURS                  ; [] 
    1170                            .dwattr $C$DW$48, DW_AT_TI_end_file("../driverlib/timer.c")
    1171                            .dwattr $C$DW$48, DW_AT_TI_end_line(0x203)
    1172                            .dwattr $C$DW$48, DW_AT_TI_end_column(0x01)
    1173                            .dwendentry
    1174                            .dwendtag $C$DW$48
    1175                    
    1176 000001ce                   .sect   ".text"
    1177                            .clink
    1178                            .thumbfunc TimerControlEvent
    1179 000001ce                   .thumb
    1180                            .global TimerControlEvent
    1181                    
    1182                    $C$DW$58        .dwtag  DW_TAG_subprogram
    1183                            .dwattr $C$DW$58, DW_AT_name("TimerControlEvent")
    1184                            .dwattr $C$DW$58, DW_AT_low_pc(TimerControlEvent)
    1185                            .dwattr $C$DW$58, DW_AT_high_pc(0x00)
    1186                            .dwattr $C$DW$58, DW_AT_TI_symbol_name("TimerControlEvent")
    1187                            .dwattr $C$DW$58, DW_AT_external
    1188                            .dwattr $C$DW$58, DW_AT_TI_begin_file("../driverlib/timer.c")
    1189                            .dwattr $C$DW$58, DW_AT_TI_begin_line(0x217)
    1190                            .dwattr $C$DW$58, DW_AT_TI_begin_column(0x01)
    1191                            .dwattr $C$DW$58, DW_AT_decl_file("../driverlib/timer.c")
    1192                            .dwattr $C$DW$58, DW_AT_decl_line(0x217)
    1193                            .dwattr $C$DW$58, DW_AT_decl_column(0x01)
    1194                            .dwattr $C$DW$58, DW_AT_TI_max_frame_size(0x18)
    1195                            .dwpsn  file "../driverlib/timer.c",line 537,column 1,is_stmt,address TimerControlEvent,isa 1
    1196                    
    1197                            .dwfde $C$DW$CIE, TimerControlEvent
    1198                    $C$DW$59        .dwtag  DW_TAG_formal_parameter
    1199                            .dwattr $C$DW$59, DW_AT_name("ui32Base")
    1200                            .dwattr $C$DW$59, DW_AT_TI_symbol_name("ui32Base")
    1201                            .dwattr $C$DW$59, DW_AT_type(*$C$DW$T$27)
    1202                            .dwattr $C$DW$59, DW_AT_location[DW_OP_reg0]
    1203                    
    1204                    $C$DW$60        .dwtag  DW_TAG_formal_parameter
    1205                            .dwattr $C$DW$60, DW_AT_name("ui32Timer")
    1206                            .dwattr $C$DW$60, DW_AT_TI_symbol_name("ui32Timer")
    1207                            .dwattr $C$DW$60, DW_AT_type(*$C$DW$T$27)
    1208                            .dwattr $C$DW$60, DW_AT_location[DW_OP_reg1]
    1209                    
    1210                    $C$DW$61        .dwtag  DW_TAG_formal_parameter
TI ARM Assembler Unix v18.1.1 Fri Jul  3 20:08:26 2020

Tools Copyright (c) 1996-2017 Texas Instruments Incorporated
timer.asm                                                            PAGE   23

    1211                            .dwattr $C$DW$61, DW_AT_name("ui32Event")
    1212                            .dwattr $C$DW$61, DW_AT_TI_symbol_name("ui32Event")
    1213                            .dwattr $C$DW$61, DW_AT_type(*$C$DW$T$27)
    1214                            .dwattr $C$DW$61, DW_AT_location[DW_OP_reg2]
    1215                    
    1216                    ;----------------------------------------------------------------------
    1217                    ; 535 | TimerControlEvent(uint32_t ui32Base, uint32_t ui32Timer,               
    1218                    ; 536 | uint32_t ui32Event)                                                    
    1219                    ;----------------------------------------------------------------------
    1220                    
    1221                    ;*****************************************************************************
    1222                    ;* FUNCTION NAME: TimerControlEvent                                          *
    1223                    ;*                                                                           *
    1224                    ;*   Regs Modified     : A1,A2,A3,A4,V1,SP,SR                                *
    1225                    ;*   Regs Used         : A1,A2,A3,A4,V1,SP,LR,SR                             *
    1226                    ;*   Local Frame Size  : 0 Args + 12 Auto + 8 Save = 20 byte                 *
    1227                    ;*****************************************************************************
    1228 000001ce           TimerControlEvent:
    1229                    ;* --------------------------------------------------------------------------*
    1230                            .dwcfi  cfa_offset, 0
    1231 000001ce B51F              PUSH      {A1, A2, A3, A4, V1, LR} ; [DPU_V7M3_PIPE]  ; [ORIG 16-BIT INS]
    1232                            .dwcfi  cfa_offset, 24
    1233                            .dwcfi  save_reg_to_mem, 14, -4
    1234                            .dwcfi  save_reg_to_mem, 4, -8
    1235                            .dwcfi  save_reg_to_mem, 3, -12
    1236                            .dwcfi  save_reg_to_mem, 2, -16
    1237                            .dwcfi  save_reg_to_mem, 1, -20
    1238                            .dwcfi  save_reg_to_mem, 0, -24
    1239                    $C$DW$62        .dwtag  DW_TAG_variable
    1240                            .dwattr $C$DW$62, DW_AT_name("ui32Base")
    1241                            .dwattr $C$DW$62, DW_AT_TI_symbol_name("ui32Base")
    1242                            .dwattr $C$DW$62, DW_AT_type(*$C$DW$T$27)
    1243                            .dwattr $C$DW$62, DW_AT_location[DW_OP_breg13 0]
    1244                    
    1245                    $C$DW$63        .dwtag  DW_TAG_variable
    1246                            .dwattr $C$DW$63, DW_AT_name("ui32Timer")
    1247                            .dwattr $C$DW$63, DW_AT_TI_symbol_name("ui32Timer")
    1248                            .dwattr $C$DW$63, DW_AT_type(*$C$DW$T$27)
    1249                            .dwattr $C$DW$63, DW_AT_location[DW_OP_breg13 4]
    1250                    
    1251                    $C$DW$64        .dwtag  DW_TAG_variable
    1252                            .dwattr $C$DW$64, DW_AT_name("ui32Event")
    1253                            .dwattr $C$DW$64, DW_AT_TI_symbol_name("ui32Event")
    1254                            .dwattr $C$DW$64, DW_AT_type(*$C$DW$T$27)
    1255                            .dwattr $C$DW$64, DW_AT_location[DW_OP_breg13 8]
    1256                    
    1257                    ;----------------------------------------------------------------------
    1258                    ; 538 | //                                                                     
    1259                    ; 539 | // Check the arguments.                                                
    1260                    ; 540 | //                                                                     
    1261                    ; 541 | ASSERT(_TimerBaseValid(ui32Base));                                     
    1262                    ; 542 | ASSERT((ui32Timer == TIMER_A) || (ui32Timer == TIMER_B) ||             
    1263                    ; 543 |        (ui32Timer == TIMER_BOTH));                                     
    1264                    ; 545 | //                                                                     
    1265                    ; 546 | // Set the event type.                                                 
TI ARM Assembler Unix v18.1.1 Fri Jul  3 20:08:26 2020

Tools Copyright (c) 1996-2017 Texas Instruments Incorporated
timer.asm                                                            PAGE   24

    1266                    ; 547 | //                                                                     
    1267                    ;----------------------------------------------------------------------
    1268 000001d0 9202              STR       A3, [SP, #8]          ; [DPU_V7M3_PIPE] |537|  ; [ORIG 16-BIT INS]
    1269 000001d2 9101              STR       A2, [SP, #4]          ; [DPU_V7M3_PIPE] |537|  ; [ORIG 16-BIT INS]
    1270 000001d4 9000              STR       A1, [SP, #0]          ; [DPU_V7M3_PIPE] |537|  ; [ORIG 16-BIT INS]
    1271                            .dwpsn  file "../driverlib/timer.c",line 548,column 5,is_stmt,isa 1
    1272                    ;----------------------------------------------------------------------
    1273                    ; 548 | ui32Timer &= TIMER_CTL_TAEVENT_M | TIMER_CTL_TBEVENT_M;                
    1274                    ;----------------------------------------------------------------------
    1275 000001d6 9901              LDR       A2, [SP, #4]          ; [DPU_V7M3_PIPE] |548|  ; [ORIG 16-BIT INS]
    1276 000001d8 400CF640          MOV       A1, #3084             ; [DPU_V7M3_PIPE] |548|  ; [KEEP 32-BIT INS]
    1277 000001dc 4008              ANDS      A1, A1, A2            ; [DPU_V7M3_PIPE] |548|  ; [ORIG 16-BIT INS]
    1278 000001de 9001              STR       A1, [SP, #4]          ; [DPU_V7M3_PIPE] |548|  ; [ORIG 16-BIT INS]
    1279                            .dwpsn  file "../driverlib/timer.c",line 549,column 5,is_stmt,isa 1
    1280                    ;----------------------------------------------------------------------
    1281                    ; 549 | HWREG(ui32Base + TIMER_O_CTL) = ((HWREG(ui32Base + TIMER_O_CTL) &      
    1282                    ; 550 |                                   ~ui32Timer) | (ui32Event & ui32Timer)
    1283                    ;     | );                                                                     
    1284                    ;----------------------------------------------------------------------
    1285 000001e0 9800              LDR       A1, [SP, #0]          ; [DPU_V7M3_PIPE] |549|  ; [ORIG 16-BIT INS]
    1286 000001e2 9C02              LDR       V1, [SP, #8]          ; [DPU_V7M3_PIPE] |549|  ; [ORIG 16-BIT INS]
    1287 000001e4 9B01              LDR       A4, [SP, #4]          ; [DPU_V7M3_PIPE] |549|  ; [ORIG 16-BIT INS]
    1288 000001e6 9901              LDR       A2, [SP, #4]          ; [DPU_V7M3_PIPE] |549|  ; [ORIG 16-BIT INS]
    1289 000001e8 9A00              LDR       A3, [SP, #0]          ; [DPU_V7M3_PIPE] |549|  ; [ORIG 16-BIT INS]
    1290 000001ea 68C0              LDR       A1, [A1, #12]         ; [DPU_V7M3_PIPE] |549|  ; [ORIG 16-BIT INS]
    1291 000001ec 4021              ANDS      A2, A2, V1            ; [DPU_V7M3_PIPE] |549|  ; [ORIG 16-BIT INS]
    1292 000001ee 4398              BICS      A1, A1, A4            ; [DPU_V7M3_PIPE] |549|  ; [ORIG 16-BIT INS]
    1293 000001f0 4301              ORRS      A2, A2, A1            ; [DPU_V7M3_PIPE] |549|  ; [ORIG 16-BIT INS]
    1294 000001f2 60D1              STR       A2, [A3, #12]         ; [DPU_V7M3_PIPE] |549|  ; [ORIG 16-BIT INS]
    1295                            .dwpsn  file "../driverlib/timer.c",line 551,column 1,is_stmt,isa 1
    1296 000001f4 9000              STR       A1, [SP, #0]          ; [DPU_V7M3_PIPE]  ; [ORIG 16-BIT INS]
    1297                    $C$DW$65        .dwtag  DW_TAG_TI_branch
    1298                            .dwattr $C$DW$65, DW_AT_low_pc(0x00)
    1299                            .dwattr $C$DW$65, DW_AT_TI_return
    1300                    
    1301 000001f6 BD1F              POP       {A1, A2, A3, A4, V1, PC} ; [DPU_V7M3_PIPE]  ; [ORIG 16-BIT INS]
    1302                            .dwcfi  cfa_offset, 0
    1303                            .dwcfi  restore_reg, 4
    1304                            .dwcfi  restore_reg, 3
    1305                            .dwcfi  restore_reg, 2
    1306                            .dwcfi  restore_reg, 1
    1307                            .dwcfi  restore_reg, 0
    1308                            ; BRANCH OCCURS                  ; [] 
    1309                            .dwattr $C$DW$58, DW_AT_TI_end_file("../driverlib/timer.c")
    1310                            .dwattr $C$DW$58, DW_AT_TI_end_line(0x227)
    1311                            .dwattr $C$DW$58, DW_AT_TI_end_column(0x01)
    1312                            .dwendentry
    1313                            .dwendtag $C$DW$58
    1314                    
    1315 000001f8                   .sect   ".text"
    1316                            .clink
    1317                            .thumbfunc TimerControlStall
    1318 000001f8                   .thumb
    1319                            .global TimerControlStall
    1320                    
TI ARM Assembler Unix v18.1.1 Fri Jul  3 20:08:26 2020

Tools Copyright (c) 1996-2017 Texas Instruments Incorporated
timer.asm                                                            PAGE   25

    1321                    $C$DW$66        .dwtag  DW_TAG_subprogram
    1322                            .dwattr $C$DW$66, DW_AT_name("TimerControlStall")
    1323                            .dwattr $C$DW$66, DW_AT_low_pc(TimerControlStall)
    1324                            .dwattr $C$DW$66, DW_AT_high_pc(0x00)
    1325                            .dwattr $C$DW$66, DW_AT_TI_symbol_name("TimerControlStall")
    1326                            .dwattr $C$DW$66, DW_AT_external
    1327                            .dwattr $C$DW$66, DW_AT_TI_begin_file("../driverlib/timer.c")
    1328                            .dwattr $C$DW$66, DW_AT_TI_begin_line(0x23b)
    1329                            .dwattr $C$DW$66, DW_AT_TI_begin_column(0x01)
    1330                            .dwattr $C$DW$66, DW_AT_decl_file("../driverlib/timer.c")
    1331                            .dwattr $C$DW$66, DW_AT_decl_line(0x23b)
    1332                            .dwattr $C$DW$66, DW_AT_decl_column(0x01)
    1333                            .dwattr $C$DW$66, DW_AT_TI_max_frame_size(0x10)
    1334                            .dwpsn  file "../driverlib/timer.c",line 573,column 1,is_stmt,address TimerControlStall,isa 1
    1335                    
    1336                            .dwfde $C$DW$CIE, TimerControlStall
    1337                    $C$DW$67        .dwtag  DW_TAG_formal_parameter
    1338                            .dwattr $C$DW$67, DW_AT_name("ui32Base")
    1339                            .dwattr $C$DW$67, DW_AT_TI_symbol_name("ui32Base")
    1340                            .dwattr $C$DW$67, DW_AT_type(*$C$DW$T$27)
    1341                            .dwattr $C$DW$67, DW_AT_location[DW_OP_reg0]
    1342                    
    1343                    $C$DW$68        .dwtag  DW_TAG_formal_parameter
    1344                            .dwattr $C$DW$68, DW_AT_name("ui32Timer")
    1345                            .dwattr $C$DW$68, DW_AT_TI_symbol_name("ui32Timer")
    1346                            .dwattr $C$DW$68, DW_AT_type(*$C$DW$T$27)
    1347                            .dwattr $C$DW$68, DW_AT_location[DW_OP_reg1]
    1348                    
    1349                    $C$DW$69        .dwtag  DW_TAG_formal_parameter
    1350                            .dwattr $C$DW$69, DW_AT_name("bStall")
    1351                            .dwattr $C$DW$69, DW_AT_TI_symbol_name("bStall")
    1352                            .dwattr $C$DW$69, DW_AT_type(*$C$DW$T$33)
    1353                            .dwattr $C$DW$69, DW_AT_location[DW_OP_reg2]
    1354                    
    1355                    ;----------------------------------------------------------------------
    1356                    ; 571 | TimerControlStall(uint32_t ui32Base, uint32_t ui32Timer,               
    1357                    ; 572 | bool bStall)                                                           
    1358                    ;----------------------------------------------------------------------
    1359                    
    1360                    ;*****************************************************************************
    1361                    ;* FUNCTION NAME: TimerControlStall                                          *
    1362                    ;*                                                                           *
    1363                    ;*   Regs Modified     : A1,A2,SP,SR                                         *
    1364                    ;*   Regs Used         : A1,A2,A3,SP,LR,SR                                   *
    1365                    ;*   Local Frame Size  : 0 Args + 12 Auto + 0 Save = 12 byte                 *
    1366                    ;*****************************************************************************
    1367 000001f8           TimerControlStall:
    1368                    ;* --------------------------------------------------------------------------*
    1369                            .dwcfi  cfa_offset, 0
    1370 000001f8 0D10F1AD          SUB       SP, SP, #16           ; [DPU_V7M3_PIPE]  ; [KEEP 32-BIT INS]
    1371                            .dwcfi  cfa_offset, 16
    1372                    $C$DW$70        .dwtag  DW_TAG_variable
    1373                            .dwattr $C$DW$70, DW_AT_name("ui32Base")
    1374                            .dwattr $C$DW$70, DW_AT_TI_symbol_name("ui32Base")
    1375                            .dwattr $C$DW$70, DW_AT_type(*$C$DW$T$27)
TI ARM Assembler Unix v18.1.1 Fri Jul  3 20:08:26 2020

Tools Copyright (c) 1996-2017 Texas Instruments Incorporated
timer.asm                                                            PAGE   26

    1376                            .dwattr $C$DW$70, DW_AT_location[DW_OP_breg13 0]
    1377                    
    1378                    $C$DW$71        .dwtag  DW_TAG_variable
    1379                            .dwattr $C$DW$71, DW_AT_name("ui32Timer")
    1380                            .dwattr $C$DW$71, DW_AT_TI_symbol_name("ui32Timer")
    1381                            .dwattr $C$DW$71, DW_AT_type(*$C$DW$T$27)
    1382                            .dwattr $C$DW$71, DW_AT_location[DW_OP_breg13 4]
    1383                    
    1384                    $C$DW$72        .dwtag  DW_TAG_variable
    1385                            .dwattr $C$DW$72, DW_AT_name("bStall")
    1386                            .dwattr $C$DW$72, DW_AT_TI_symbol_name("bStall")
    1387                            .dwattr $C$DW$72, DW_AT_type(*$C$DW$T$33)
    1388                            .dwattr $C$DW$72, DW_AT_location[DW_OP_breg13 8]
    1389                    
    1390                    ;----------------------------------------------------------------------
    1391                    ; 574 | //                                                                     
    1392                    ; 575 | // Check the arguments.                                                
    1393                    ; 576 | //                                                                     
    1394                    ; 577 | ASSERT(_TimerBaseValid(ui32Base));                                     
    1395                    ; 578 | ASSERT((ui32Timer == TIMER_A) || (ui32Timer == TIMER_B) ||             
    1396                    ; 579 |        (ui32Timer == TIMER_BOTH));                                     
    1397                    ; 581 | //                                                                     
    1398                    ; 582 | // Set the stall mode.                                                 
    1399                    ; 583 | //                                                                     
    1400                    ;----------------------------------------------------------------------
    1401 000001fc 2008F88D          STRB      A3, [SP, #8]          ; [DPU_V7M3_PIPE] |573|  ; [KEEP 32-BIT INS]
    1402 00000200 9101              STR       A2, [SP, #4]          ; [DPU_V7M3_PIPE] |573|  ; [ORIG 16-BIT INS]
    1403 00000202 9000              STR       A1, [SP, #0]          ; [DPU_V7M3_PIPE] |573|  ; [ORIG 16-BIT INS]
    1404                            .dwpsn  file "../driverlib/timer.c",line 584,column 5,is_stmt,isa 1
    1405                    ;----------------------------------------------------------------------
    1406                    ; 584 | ui32Timer &= TIMER_CTL_TASTALL | TIMER_CTL_TBSTALL;                    
    1407                    ;----------------------------------------------------------------------
    1408 00000204 9901              LDR       A2, [SP, #4]          ; [DPU_V7M3_PIPE] |584|  ; [ORIG 16-BIT INS]
    1409 00000206 2002F240          MOV       A1, #514              ; [DPU_V7M3_PIPE] |584|  ; [KEEP 32-BIT INS]
    1410 0000020a 4008              ANDS      A1, A1, A2            ; [DPU_V7M3_PIPE] |584|  ; [ORIG 16-BIT INS]
    1411 0000020c 9001              STR       A1, [SP, #4]          ; [DPU_V7M3_PIPE] |584|  ; [ORIG 16-BIT INS]
    1412                            .dwpsn  file "../driverlib/timer.c",line 585,column 5,is_stmt,isa 1
    1413                    ;----------------------------------------------------------------------
    1414                    ; 585 | HWREG(ui32Base + TIMER_O_CTL) = (bStall ?                              
    1415                    ; 586 |                                  (HWREG(ui32Base + TIMER_O_CTL) |      
    1416                    ; 587 |                                   ui32Timer) :                         
    1417                    ; 588 |                                  (HWREG(ui32Base + TIMER_O_CTL) &      
    1418                    ; 589 |                                   ~(ui32Timer)));                      
    1419                    ;----------------------------------------------------------------------
    1420 0000020e 0008F89D          LDRB      A1, [SP, #8]          ; [DPU_V7M3_PIPE] |585|  ; [KEEP 32-BIT INS]
    1421 00000212 B120              CBZ       A1, ||$C$L16||        ; []  ; [ORIG 16-BIT INS]
    1422                            ; BRANCHCC OCCURS {||$C$L16||}   ; [] |585| 
    1423                    ;* --------------------------------------------------------------------------*
    1424 00000214 9900              LDR       A2, [SP, #0]          ; [DPU_V7M3_PIPE] |585|  ; [ORIG 16-BIT INS]
    1425 00000216 9801              LDR       A1, [SP, #4]          ; [DPU_V7M3_PIPE] |585|  ; [ORIG 16-BIT INS]
    1426 00000218 68C9              LDR       A2, [A2, #12]         ; [DPU_V7M3_PIPE] |585|  ; [ORIG 16-BIT INS]
    1427 0000021a 4308              ORRS      A1, A1, A2            ; [DPU_V7M3_PIPE] |585|  ; [ORIG 16-BIT INS]
    1428 0000021c E003              B         ||$C$L17||            ; [DPU_V7M3_PIPE] |585|  ; [ORIG 16-BIT INS]
    1429                            ; BRANCH OCCURS {||$C$L17||}     ; [] |585| 
    1430                    ;* --------------------------------------------------------------------------*
TI ARM Assembler Unix v18.1.1 Fri Jul  3 20:08:26 2020

Tools Copyright (c) 1996-2017 Texas Instruments Incorporated
timer.asm                                                            PAGE   27

    1431 0000021e           ||$C$L16||:    
    1432 0000021e 9800              LDR       A1, [SP, #0]          ; [DPU_V7M3_PIPE] |585|  ; [ORIG 16-BIT INS]
    1433 00000220 9901              LDR       A2, [SP, #4]          ; [DPU_V7M3_PIPE] |585|  ; [ORIG 16-BIT INS]
    1434 00000222 68C0              LDR       A1, [A1, #12]         ; [DPU_V7M3_PIPE] |585|  ; [ORIG 16-BIT INS]
    1435 00000224 4388              BICS      A1, A1, A2            ; [DPU_V7M3_PIPE] |585|  ; [ORIG 16-BIT INS]
    1436                    ;* --------------------------------------------------------------------------*
    1437 00000226           ||$C$L17||:    
    1438 00000226 9900              LDR       A2, [SP, #0]          ; [DPU_V7M3_PIPE] |585|  ; [ORIG 16-BIT INS]
    1439 00000228 60C8              STR       A1, [A2, #12]         ; [DPU_V7M3_PIPE] |585|  ; [ORIG 16-BIT INS]
    1440                            .dwpsn  file "../driverlib/timer.c",line 590,column 1,is_stmt,isa 1
    1441 0000022a B004              ADD       SP, SP, #16           ; [DPU_V7M3_PIPE]  ; [ORIG 16-BIT INS]
    1442                            .dwcfi  cfa_offset, 0
    1443                    $C$DW$73        .dwtag  DW_TAG_TI_branch
    1444                            .dwattr $C$DW$73, DW_AT_low_pc(0x00)
    1445                            .dwattr $C$DW$73, DW_AT_TI_return
    1446                    
    1447 0000022c 4770              BX        LR                    ; [DPU_V7M3_PIPE]  ; [ORIG 16-BIT INS]
    1448                            ; BRANCH OCCURS                  ; [] 
    1449                            .dwattr $C$DW$66, DW_AT_TI_end_file("../driverlib/timer.c")
    1450                            .dwattr $C$DW$66, DW_AT_TI_end_line(0x24e)
    1451                            .dwattr $C$DW$66, DW_AT_TI_end_column(0x01)
    1452                            .dwendentry
    1453                            .dwendtag $C$DW$66
    1454                    
    1455 0000022e                   .sect   ".text"
    1456                            .clink
    1457                            .thumbfunc TimerControlWaitOnTrigger
    1458 0000022e                   .thumb
    1459                            .global TimerControlWaitOnTrigger
    1460                    
    1461                    $C$DW$74        .dwtag  DW_TAG_subprogram
    1462                            .dwattr $C$DW$74, DW_AT_name("TimerControlWaitOnTrigger")
    1463                            .dwattr $C$DW$74, DW_AT_low_pc(TimerControlWaitOnTrigger)
    1464                            .dwattr $C$DW$74, DW_AT_high_pc(0x00)
    1465                            .dwattr $C$DW$74, DW_AT_TI_symbol_name("TimerControlWaitOnTrigger")
    1466                            .dwattr $C$DW$74, DW_AT_external
    1467                            .dwattr $C$DW$74, DW_AT_TI_begin_file("../driverlib/timer.c")
    1468                            .dwattr $C$DW$74, DW_AT_TI_begin_line(0x265)
    1469                            .dwattr $C$DW$74, DW_AT_TI_begin_column(0x01)
    1470                            .dwattr $C$DW$74, DW_AT_decl_file("../driverlib/timer.c")
    1471                            .dwattr $C$DW$74, DW_AT_decl_line(0x265)
    1472                            .dwattr $C$DW$74, DW_AT_decl_column(0x01)
    1473                            .dwattr $C$DW$74, DW_AT_TI_max_frame_size(0x10)
    1474                            .dwpsn  file "../driverlib/timer.c",line 615,column 1,is_stmt,address TimerControlWaitOnTrigge
    1475                    
    1476                            .dwfde $C$DW$CIE, TimerControlWaitOnTrigger
    1477                    $C$DW$75        .dwtag  DW_TAG_formal_parameter
    1478                            .dwattr $C$DW$75, DW_AT_name("ui32Base")
    1479                            .dwattr $C$DW$75, DW_AT_TI_symbol_name("ui32Base")
    1480                            .dwattr $C$DW$75, DW_AT_type(*$C$DW$T$27)
    1481                            .dwattr $C$DW$75, DW_AT_location[DW_OP_reg0]
    1482                    
    1483                    $C$DW$76        .dwtag  DW_TAG_formal_parameter
    1484                            .dwattr $C$DW$76, DW_AT_name("ui32Timer")
    1485                            .dwattr $C$DW$76, DW_AT_TI_symbol_name("ui32Timer")
TI ARM Assembler Unix v18.1.1 Fri Jul  3 20:08:26 2020

Tools Copyright (c) 1996-2017 Texas Instruments Incorporated
timer.asm                                                            PAGE   28

    1486                            .dwattr $C$DW$76, DW_AT_type(*$C$DW$T$27)
    1487                            .dwattr $C$DW$76, DW_AT_location[DW_OP_reg1]
    1488                    
    1489                    $C$DW$77        .dwtag  DW_TAG_formal_parameter
    1490                            .dwattr $C$DW$77, DW_AT_name("bWait")
    1491                            .dwattr $C$DW$77, DW_AT_TI_symbol_name("bWait")
    1492                            .dwattr $C$DW$77, DW_AT_type(*$C$DW$T$33)
    1493                            .dwattr $C$DW$77, DW_AT_location[DW_OP_reg2]
    1494                    
    1495                    ;----------------------------------------------------------------------
    1496                    ; 613 | TimerControlWaitOnTrigger(uint32_t ui32Base, uint32_t ui32Timer,       
    1497                    ; 614 | bool bWait)                                                            
    1498                    ;----------------------------------------------------------------------
    1499                    
    1500                    ;*****************************************************************************
    1501                    ;* FUNCTION NAME: TimerControlWaitOnTrigger                                  *
    1502                    ;*                                                                           *
    1503                    ;*   Regs Modified     : A1,A2,SP,SR                                         *
    1504                    ;*   Regs Used         : A1,A2,A3,SP,LR,SR                                   *
    1505                    ;*   Local Frame Size  : 0 Args + 12 Auto + 0 Save = 12 byte                 *
    1506                    ;*****************************************************************************
    1507 0000022e           TimerControlWaitOnTrigger:
    1508                    ;* --------------------------------------------------------------------------*
    1509                            .dwcfi  cfa_offset, 0
    1510 0000022e 0D10F1AD          SUB       SP, SP, #16           ; [DPU_V7M3_PIPE]  ; [KEEP 32-BIT INS]
    1511                            .dwcfi  cfa_offset, 16
    1512                    $C$DW$78        .dwtag  DW_TAG_variable
    1513                            .dwattr $C$DW$78, DW_AT_name("ui32Base")
    1514                            .dwattr $C$DW$78, DW_AT_TI_symbol_name("ui32Base")
    1515                            .dwattr $C$DW$78, DW_AT_type(*$C$DW$T$27)
    1516                            .dwattr $C$DW$78, DW_AT_location[DW_OP_breg13 0]
    1517                    
    1518                    $C$DW$79        .dwtag  DW_TAG_variable
    1519                            .dwattr $C$DW$79, DW_AT_name("ui32Timer")
    1520                            .dwattr $C$DW$79, DW_AT_TI_symbol_name("ui32Timer")
    1521                            .dwattr $C$DW$79, DW_AT_type(*$C$DW$T$27)
    1522                            .dwattr $C$DW$79, DW_AT_location[DW_OP_breg13 4]
    1523                    
    1524                    $C$DW$80        .dwtag  DW_TAG_variable
    1525                            .dwattr $C$DW$80, DW_AT_name("bWait")
    1526                            .dwattr $C$DW$80, DW_AT_TI_symbol_name("bWait")
    1527                            .dwattr $C$DW$80, DW_AT_type(*$C$DW$T$33)
    1528                            .dwattr $C$DW$80, DW_AT_location[DW_OP_breg13 8]
    1529                    
    1530                    ;----------------------------------------------------------------------
    1531                    ; 616 | //                                                                     
    1532                    ; 617 | // Check the arguments.                                                
    1533                    ; 618 | //                                                                     
    1534                    ; 619 | ASSERT(_TimerBaseValid(ui32Base));                                     
    1535                    ; 620 | ASSERT((ui32Timer == TIMER_A) || (ui32Timer == TIMER_B) ||             
    1536                    ; 621 |        (ui32Timer == TIMER_BOTH));                                     
    1537                    ; 623 | //                                                                     
    1538                    ; 624 | // Set the wait on trigger mode for timer A.                           
    1539                    ; 625 | //                                                                     
    1540                    ;----------------------------------------------------------------------
TI ARM Assembler Unix v18.1.1 Fri Jul  3 20:08:26 2020

Tools Copyright (c) 1996-2017 Texas Instruments Incorporated
timer.asm                                                            PAGE   29

    1541 00000232 2008F88D          STRB      A3, [SP, #8]          ; [DPU_V7M3_PIPE] |615|  ; [KEEP 32-BIT INS]
    1542 00000236 9101              STR       A2, [SP, #4]          ; [DPU_V7M3_PIPE] |615|  ; [ORIG 16-BIT INS]
    1543 00000238 9000              STR       A1, [SP, #0]          ; [DPU_V7M3_PIPE] |615|  ; [ORIG 16-BIT INS]
    1544                            .dwpsn  file "../driverlib/timer.c",line 626,column 5,is_stmt,isa 1
    1545                    ;----------------------------------------------------------------------
    1546                    ; 626 | if((ui32Timer & TIMER_A) != 0)                                         
    1547                    ;----------------------------------------------------------------------
    1548 0000023a 9801              LDR       A1, [SP, #4]          ; [DPU_V7M3_PIPE] |626|  ; [ORIG 16-BIT INS]
    1549 0000023c 0FFFF010          TST       A1, #255              ; [DPU_V7M3_PIPE] |626|  ; [KEEP 32-BIT INS]
    1550 00000240 D00F              BEQ       ||$C$L19||            ; [DPU_V7M3_PIPE] |626|  ; [ORIG 16-BIT INS]
    1551                            ; BRANCHCC OCCURS {||$C$L19||}   ; [] |626| 
    1552                    ;* --------------------------------------------------------------------------*
    1553                            .dwpsn  file "../driverlib/timer.c",line 628,column 9,is_stmt,isa 1
    1554                    ;----------------------------------------------------------------------
    1555                    ; 628 | if(bWait)                                                              
    1556                    ;----------------------------------------------------------------------
    1557 00000242 0008F89D          LDRB      A1, [SP, #8]          ; [DPU_V7M3_PIPE] |628|  ; [KEEP 32-BIT INS]
    1558 00000246 B130              CBZ       A1, ||$C$L18||        ; []  ; [ORIG 16-BIT INS]
    1559                            ; BRANCHCC OCCURS {||$C$L18||}   ; [] |628| 
    1560                    ;* --------------------------------------------------------------------------*
    1561                            .dwpsn  file "../driverlib/timer.c",line 630,column 13,is_stmt,isa 1
    1562                    ;----------------------------------------------------------------------
    1563                    ; 630 | HWREG(ui32Base + TIMER_O_TAMR) |= TIMER_TAMR_TAWOT;                    
    1564                    ;----------------------------------------------------------------------
    1565 00000248 9800              LDR       A1, [SP, #0]          ; [DPU_V7M3_PIPE] |630|  ; [ORIG 16-BIT INS]
    1566 0000024a 1D00              ADDS      A1, A1, #4            ; [DPU_V7M3_PIPE] |630|  ; [ORIG 16-BIT INS]
    1567 0000024c 6801              LDR       A2, [A1, #0]          ; [DPU_V7M3_PIPE] |630|  ; [ORIG 16-BIT INS]
    1568 0000024e 0140F041          ORR       A2, A2, #64           ; [DPU_V7M3_PIPE] |630|  ; [KEEP 32-BIT INS]
    1569 00000252 6001              STR       A2, [A1, #0]          ; [DPU_V7M3_PIPE] |630|  ; [ORIG 16-BIT INS]
    1570                            .dwpsn  file "../driverlib/timer.c",line 631,column 9,is_stmt,isa 1
    1571                    ;----------------------------------------------------------------------
    1572                    ; 632 | else                                                                   
    1573                    ;----------------------------------------------------------------------
    1574 00000254 E005              B         ||$C$L19||            ; [DPU_V7M3_PIPE] |631|  ; [ORIG 16-BIT INS]
    1575                            ; BRANCH OCCURS {||$C$L19||}     ; [] |631| 
    1576                    ;* --------------------------------------------------------------------------*
    1577 00000256           ||$C$L18||:    
    1578                            .dwpsn  file "../driverlib/timer.c",line 634,column 13,is_stmt,isa 1
    1579                    ;----------------------------------------------------------------------
    1580                    ; 634 | HWREG(ui32Base + TIMER_O_TAMR) &= ~(TIMER_TAMR_TAWOT);                 
    1581                    ; 638 | //                                                                     
    1582                    ; 639 | // Set the wait on trigger mode for timer B.                           
    1583                    ; 640 | //                                                                     
    1584                    ;----------------------------------------------------------------------
    1585 00000256 9800              LDR       A1, [SP, #0]          ; [DPU_V7M3_PIPE] |634|  ; [ORIG 16-BIT INS]
    1586 00000258 1D00              ADDS      A1, A1, #4            ; [DPU_V7M3_PIPE] |634|  ; [ORIG 16-BIT INS]
    1587 0000025a 6801              LDR       A2, [A1, #0]          ; [DPU_V7M3_PIPE] |634|  ; [ORIG 16-BIT INS]
    1588 0000025c 0140F021          BIC       A2, A2, #64           ; [DPU_V7M3_PIPE] |634|  ; [KEEP 32-BIT INS]
    1589 00000260 6001              STR       A2, [A1, #0]          ; [DPU_V7M3_PIPE] |634|  ; [ORIG 16-BIT INS]
    1590                    ;* --------------------------------------------------------------------------*
    1591 00000262           ||$C$L19||:    
    1592                            .dwpsn  file "../driverlib/timer.c",line 641,column 5,is_stmt,isa 1
    1593                    ;----------------------------------------------------------------------
    1594                    ; 641 | if((ui32Timer & TIMER_B) != 0)                                         
    1595                    ;----------------------------------------------------------------------
TI ARM Assembler Unix v18.1.1 Fri Jul  3 20:08:26 2020

Tools Copyright (c) 1996-2017 Texas Instruments Incorporated
timer.asm                                                            PAGE   30

    1596 00000262 9801              LDR       A1, [SP, #4]          ; [DPU_V7M3_PIPE] |641|  ; [ORIG 16-BIT INS]
    1597 00000264 4F7FF410          TST       A1, #65280            ; [DPU_V7M3_PIPE] |641|  ; [KEEP 32-BIT INS]
    1598 00000268 D00F              BEQ       ||$C$L21||            ; [DPU_V7M3_PIPE] |641|  ; [ORIG 16-BIT INS]
    1599                            ; BRANCHCC OCCURS {||$C$L21||}   ; [] |641| 
    1600                    ;* --------------------------------------------------------------------------*
    1601                            .dwpsn  file "../driverlib/timer.c",line 643,column 9,is_stmt,isa 1
    1602                    ;----------------------------------------------------------------------
    1603                    ; 643 | if(bWait)                                                              
    1604                    ;----------------------------------------------------------------------
    1605 0000026a 0008F89D          LDRB      A1, [SP, #8]          ; [DPU_V7M3_PIPE] |643|  ; [KEEP 32-BIT INS]
    1606 0000026e B130              CBZ       A1, ||$C$L20||        ; []  ; [ORIG 16-BIT INS]
    1607                            ; BRANCHCC OCCURS {||$C$L20||}   ; [] |643| 
    1608                    ;* --------------------------------------------------------------------------*
    1609                            .dwpsn  file "../driverlib/timer.c",line 645,column 13,is_stmt,isa 1
    1610                    ;----------------------------------------------------------------------
    1611                    ; 645 | HWREG(ui32Base + TIMER_O_TBMR) |= TIMER_TBMR_TBWOT;                    
    1612                    ;----------------------------------------------------------------------
    1613 00000270 9800              LDR       A1, [SP, #0]          ; [DPU_V7M3_PIPE] |645|  ; [ORIG 16-BIT INS]
    1614 00000272 3008              ADDS      A1, A1, #8            ; [DPU_V7M3_PIPE] |645|  ; [ORIG 16-BIT INS]
    1615 00000274 6801              LDR       A2, [A1, #0]          ; [DPU_V7M3_PIPE] |645|  ; [ORIG 16-BIT INS]
    1616 00000276 0140F041          ORR       A2, A2, #64           ; [DPU_V7M3_PIPE] |645|  ; [KEEP 32-BIT INS]
    1617 0000027a 6001              STR       A2, [A1, #0]          ; [DPU_V7M3_PIPE] |645|  ; [ORIG 16-BIT INS]
    1618                            .dwpsn  file "../driverlib/timer.c",line 646,column 9,is_stmt,isa 1
    1619                    ;----------------------------------------------------------------------
    1620                    ; 647 | else                                                                   
    1621                    ;----------------------------------------------------------------------
    1622 0000027c E005              B         ||$C$L21||            ; [DPU_V7M3_PIPE] |646|  ; [ORIG 16-BIT INS]
    1623                            ; BRANCH OCCURS {||$C$L21||}     ; [] |646| 
    1624                    ;* --------------------------------------------------------------------------*
    1625 0000027e           ||$C$L20||:    
    1626                            .dwpsn  file "../driverlib/timer.c",line 649,column 13,is_stmt,isa 1
    1627                    ;----------------------------------------------------------------------
    1628                    ; 649 | HWREG(ui32Base + TIMER_O_TBMR) &= ~(TIMER_TBMR_TBWOT);                 
    1629                    ;----------------------------------------------------------------------
    1630 0000027e 9800              LDR       A1, [SP, #0]          ; [DPU_V7M3_PIPE] |649|  ; [ORIG 16-BIT INS]
    1631 00000280 3008              ADDS      A1, A1, #8            ; [DPU_V7M3_PIPE] |649|  ; [ORIG 16-BIT INS]
    1632 00000282 6801              LDR       A2, [A1, #0]          ; [DPU_V7M3_PIPE] |649|  ; [ORIG 16-BIT INS]
    1633 00000284 0140F021          BIC       A2, A2, #64           ; [DPU_V7M3_PIPE] |649|  ; [KEEP 32-BIT INS]
    1634 00000288 6001              STR       A2, [A1, #0]          ; [DPU_V7M3_PIPE] |649|  ; [ORIG 16-BIT INS]
    1635                            .dwpsn  file "../driverlib/timer.c",line 652,column 1,is_stmt,isa 1
    1636                    ;* --------------------------------------------------------------------------*
    1637 0000028a           ||$C$L21||:    
    1638 0000028a B004              ADD       SP, SP, #16           ; [DPU_V7M3_PIPE]  ; [ORIG 16-BIT INS]
    1639                            .dwcfi  cfa_offset, 0
    1640                    $C$DW$81        .dwtag  DW_TAG_TI_branch
    1641                            .dwattr $C$DW$81, DW_AT_low_pc(0x00)
    1642                            .dwattr $C$DW$81, DW_AT_TI_return
    1643                    
    1644 0000028c 4770              BX        LR                    ; [DPU_V7M3_PIPE]  ; [ORIG 16-BIT INS]
    1645                            ; BRANCH OCCURS                  ; [] 
    1646                            .dwattr $C$DW$74, DW_AT_TI_end_file("../driverlib/timer.c")
    1647                            .dwattr $C$DW$74, DW_AT_TI_end_line(0x28c)
    1648                            .dwattr $C$DW$74, DW_AT_TI_end_column(0x01)
    1649                            .dwendentry
    1650                            .dwendtag $C$DW$74
TI ARM Assembler Unix v18.1.1 Fri Jul  3 20:08:26 2020

Tools Copyright (c) 1996-2017 Texas Instruments Incorporated
timer.asm                                                            PAGE   31

    1651                    
    1652 0000028e                   .sect   ".text"
    1653                            .clink
    1654                            .thumbfunc TimerRTCEnable
    1655 0000028e                   .thumb
    1656                            .global TimerRTCEnable
    1657                    
    1658                    $C$DW$82        .dwtag  DW_TAG_subprogram
    1659                            .dwattr $C$DW$82, DW_AT_name("TimerRTCEnable")
    1660                            .dwattr $C$DW$82, DW_AT_low_pc(TimerRTCEnable)
    1661                            .dwattr $C$DW$82, DW_AT_high_pc(0x00)
    1662                            .dwattr $C$DW$82, DW_AT_TI_symbol_name("TimerRTCEnable")
    1663                            .dwattr $C$DW$82, DW_AT_external
    1664                            .dwattr $C$DW$82, DW_AT_TI_begin_file("../driverlib/timer.c")
    1665                            .dwattr $C$DW$82, DW_AT_TI_begin_line(0x29b)
    1666                            .dwattr $C$DW$82, DW_AT_TI_begin_column(0x01)
    1667                            .dwattr $C$DW$82, DW_AT_decl_file("../driverlib/timer.c")
    1668                            .dwattr $C$DW$82, DW_AT_decl_line(0x29b)
    1669                            .dwattr $C$DW$82, DW_AT_decl_column(0x01)
    1670                            .dwattr $C$DW$82, DW_AT_TI_max_frame_size(0x08)
    1671                            .dwpsn  file "../driverlib/timer.c",line 668,column 1,is_stmt,address TimerRTCEnable,isa 1
    1672                    
    1673                            .dwfde $C$DW$CIE, TimerRTCEnable
    1674                    $C$DW$83        .dwtag  DW_TAG_formal_parameter
    1675                            .dwattr $C$DW$83, DW_AT_name("ui32Base")
    1676                            .dwattr $C$DW$83, DW_AT_TI_symbol_name("ui32Base")
    1677                            .dwattr $C$DW$83, DW_AT_type(*$C$DW$T$27)
    1678                            .dwattr $C$DW$83, DW_AT_location[DW_OP_reg0]
    1679                    
    1680                    ;----------------------------------------------------------------------
    1681                    ; 667 | TimerRTCEnable(uint32_t ui32Base)                                      
    1682                    ;----------------------------------------------------------------------
    1683                    
    1684                    ;*****************************************************************************
    1685                    ;* FUNCTION NAME: TimerRTCEnable                                             *
    1686                    ;*                                                                           *
    1687                    ;*   Regs Modified     : A1,A2,SP,SR                                         *
    1688                    ;*   Regs Used         : A1,A2,SP,LR,SR                                      *
    1689                    ;*   Local Frame Size  : 0 Args + 4 Auto + 0 Save = 4 byte                   *
    1690                    ;*****************************************************************************
    1691 0000028e           TimerRTCEnable:
    1692                    ;* --------------------------------------------------------------------------*
    1693                            .dwcfi  cfa_offset, 0
    1694 0000028e 0D08F1AD          SUB       SP, SP, #8            ; [DPU_V7M3_PIPE]  ; [KEEP 32-BIT INS]
    1695                            .dwcfi  cfa_offset, 8
    1696                    $C$DW$84        .dwtag  DW_TAG_variable
    1697                            .dwattr $C$DW$84, DW_AT_name("ui32Base")
    1698                            .dwattr $C$DW$84, DW_AT_TI_symbol_name("ui32Base")
    1699                            .dwattr $C$DW$84, DW_AT_type(*$C$DW$T$27)
    1700                            .dwattr $C$DW$84, DW_AT_location[DW_OP_breg13 0]
    1701                    
    1702                    ;----------------------------------------------------------------------
    1703                    ; 669 | //                                                                     
    1704                    ; 670 | // Check the arguments.                                                
    1705                    ; 671 | //                                                                     
TI ARM Assembler Unix v18.1.1 Fri Jul  3 20:08:26 2020

Tools Copyright (c) 1996-2017 Texas Instruments Incorporated
timer.asm                                                            PAGE   32

    1706                    ; 672 | ASSERT(_TimerBaseValid(ui32Base));                                     
    1707                    ; 674 | //                                                                     
    1708                    ; 675 | // Enable RTC counting.                                                
    1709                    ; 676 | //                                                                     
    1710                    ;----------------------------------------------------------------------
    1711 00000292 9000              STR       A1, [SP, #0]          ; [DPU_V7M3_PIPE] |668|  ; [ORIG 16-BIT INS]
    1712                            .dwpsn  file "../driverlib/timer.c",line 677,column 5,is_stmt,isa 1
    1713                    ;----------------------------------------------------------------------
    1714                    ; 677 | HWREG(ui32Base + TIMER_O_CTL) |= TIMER_CTL_RTCEN;                      
    1715                    ;----------------------------------------------------------------------
    1716 00000294 9800              LDR       A1, [SP, #0]          ; [DPU_V7M3_PIPE] |677|  ; [ORIG 16-BIT INS]
    1717 00000296 300C              ADDS      A1, A1, #12           ; [DPU_V7M3_PIPE] |677|  ; [ORIG 16-BIT INS]
    1718 00000298 6801              LDR       A2, [A1, #0]          ; [DPU_V7M3_PIPE] |677|  ; [ORIG 16-BIT INS]
    1719 0000029a 0110F041          ORR       A2, A2, #16           ; [DPU_V7M3_PIPE] |677|  ; [KEEP 32-BIT INS]
    1720 0000029e 6001              STR       A2, [A1, #0]          ; [DPU_V7M3_PIPE] |677|  ; [ORIG 16-BIT INS]
    1721                            .dwpsn  file "../driverlib/timer.c",line 678,column 1,is_stmt,isa 1
    1722 000002a0 B002              ADD       SP, SP, #8            ; [DPU_V7M3_PIPE]  ; [ORIG 16-BIT INS]
    1723                            .dwcfi  cfa_offset, 0
    1724                    $C$DW$85        .dwtag  DW_TAG_TI_branch
    1725                            .dwattr $C$DW$85, DW_AT_low_pc(0x00)
    1726                            .dwattr $C$DW$85, DW_AT_TI_return
    1727                    
    1728 000002a2 4770              BX        LR                    ; [DPU_V7M3_PIPE]  ; [ORIG 16-BIT INS]
    1729                            ; BRANCH OCCURS                  ; [] 
    1730                            .dwattr $C$DW$82, DW_AT_TI_end_file("../driverlib/timer.c")
    1731                            .dwattr $C$DW$82, DW_AT_TI_end_line(0x2a6)
    1732                            .dwattr $C$DW$82, DW_AT_TI_end_column(0x01)
    1733                            .dwendentry
    1734                            .dwendtag $C$DW$82
    1735                    
    1736 000002a4                   .sect   ".text"
    1737                            .clink
    1738                            .thumbfunc TimerRTCDisable
    1739 000002a4                   .thumb
    1740                            .global TimerRTCDisable
    1741                    
    1742                    $C$DW$86        .dwtag  DW_TAG_subprogram
    1743                            .dwattr $C$DW$86, DW_AT_name("TimerRTCDisable")
    1744                            .dwattr $C$DW$86, DW_AT_low_pc(TimerRTCDisable)
    1745                            .dwattr $C$DW$86, DW_AT_high_pc(0x00)
    1746                            .dwattr $C$DW$86, DW_AT_TI_symbol_name("TimerRTCDisable")
    1747                            .dwattr $C$DW$86, DW_AT_external
    1748                            .dwattr $C$DW$86, DW_AT_TI_begin_file("../driverlib/timer.c")
    1749                            .dwattr $C$DW$86, DW_AT_TI_begin_line(0x2b4)
    1750                            .dwattr $C$DW$86, DW_AT_TI_begin_column(0x01)
    1751                            .dwattr $C$DW$86, DW_AT_decl_file("../driverlib/timer.c")
    1752                            .dwattr $C$DW$86, DW_AT_decl_line(0x2b4)
    1753                            .dwattr $C$DW$86, DW_AT_decl_column(0x01)
    1754                            .dwattr $C$DW$86, DW_AT_TI_max_frame_size(0x08)
    1755                            .dwpsn  file "../driverlib/timer.c",line 693,column 1,is_stmt,address TimerRTCDisable,isa 1
    1756                    
    1757                            .dwfde $C$DW$CIE, TimerRTCDisable
    1758                    $C$DW$87        .dwtag  DW_TAG_formal_parameter
    1759                            .dwattr $C$DW$87, DW_AT_name("ui32Base")
    1760                            .dwattr $C$DW$87, DW_AT_TI_symbol_name("ui32Base")
TI ARM Assembler Unix v18.1.1 Fri Jul  3 20:08:26 2020

Tools Copyright (c) 1996-2017 Texas Instruments Incorporated
timer.asm                                                            PAGE   33

    1761                            .dwattr $C$DW$87, DW_AT_type(*$C$DW$T$27)
    1762                            .dwattr $C$DW$87, DW_AT_location[DW_OP_reg0]
    1763                    
    1764                    ;----------------------------------------------------------------------
    1765                    ; 692 | TimerRTCDisable(uint32_t ui32Base)                                     
    1766                    ;----------------------------------------------------------------------
    1767                    
    1768                    ;*****************************************************************************
    1769                    ;* FUNCTION NAME: TimerRTCDisable                                            *
    1770                    ;*                                                                           *
    1771                    ;*   Regs Modified     : A1,A2,SP,SR                                         *
    1772                    ;*   Regs Used         : A1,A2,SP,LR,SR                                      *
    1773                    ;*   Local Frame Size  : 0 Args + 4 Auto + 0 Save = 4 byte                   *
    1774                    ;*****************************************************************************
    1775 000002a4           TimerRTCDisable:
    1776                    ;* --------------------------------------------------------------------------*
    1777                            .dwcfi  cfa_offset, 0
    1778 000002a4 0D08F1AD          SUB       SP, SP, #8            ; [DPU_V7M3_PIPE]  ; [KEEP 32-BIT INS]
    1779                            .dwcfi  cfa_offset, 8
    1780                    $C$DW$88        .dwtag  DW_TAG_variable
    1781                            .dwattr $C$DW$88, DW_AT_name("ui32Base")
    1782                            .dwattr $C$DW$88, DW_AT_TI_symbol_name("ui32Base")
    1783                            .dwattr $C$DW$88, DW_AT_type(*$C$DW$T$27)
    1784                            .dwattr $C$DW$88, DW_AT_location[DW_OP_breg13 0]
    1785                    
    1786                    ;----------------------------------------------------------------------
    1787                    ; 694 | //                                                                     
    1788                    ; 695 | // Check the arguments.                                                
    1789                    ; 696 | //                                                                     
    1790                    ; 697 | ASSERT(_TimerBaseValid(ui32Base));                                     
    1791                    ; 699 | //                                                                     
    1792                    ; 700 | // Disable RTC counting.                                               
    1793                    ; 701 | //                                                                     
    1794                    ;----------------------------------------------------------------------
    1795 000002a8 9000              STR       A1, [SP, #0]          ; [DPU_V7M3_PIPE] |693|  ; [ORIG 16-BIT INS]
    1796                            .dwpsn  file "../driverlib/timer.c",line 702,column 5,is_stmt,isa 1
    1797                    ;----------------------------------------------------------------------
    1798                    ; 702 | HWREG(ui32Base + TIMER_O_CTL) &= ~(TIMER_CTL_RTCEN);                   
    1799                    ;----------------------------------------------------------------------
    1800 000002aa 9800              LDR       A1, [SP, #0]          ; [DPU_V7M3_PIPE] |702|  ; [ORIG 16-BIT INS]
    1801 000002ac 300C              ADDS      A1, A1, #12           ; [DPU_V7M3_PIPE] |702|  ; [ORIG 16-BIT INS]
    1802 000002ae 6801              LDR       A2, [A1, #0]          ; [DPU_V7M3_PIPE] |702|  ; [ORIG 16-BIT INS]
    1803 000002b0 0110F021          BIC       A2, A2, #16           ; [DPU_V7M3_PIPE] |702|  ; [KEEP 32-BIT INS]
    1804 000002b4 6001              STR       A2, [A1, #0]          ; [DPU_V7M3_PIPE] |702|  ; [ORIG 16-BIT INS]
    1805                            .dwpsn  file "../driverlib/timer.c",line 703,column 1,is_stmt,isa 1
    1806 000002b6 B002              ADD       SP, SP, #8            ; [DPU_V7M3_PIPE]  ; [ORIG 16-BIT INS]
    1807                            .dwcfi  cfa_offset, 0
    1808                    $C$DW$89        .dwtag  DW_TAG_TI_branch
    1809                            .dwattr $C$DW$89, DW_AT_low_pc(0x00)
    1810                            .dwattr $C$DW$89, DW_AT_TI_return
    1811                    
    1812 000002b8 4770              BX        LR                    ; [DPU_V7M3_PIPE]  ; [ORIG 16-BIT INS]
    1813                            ; BRANCH OCCURS                  ; [] 
    1814                            .dwattr $C$DW$86, DW_AT_TI_end_file("../driverlib/timer.c")
    1815                            .dwattr $C$DW$86, DW_AT_TI_end_line(0x2bf)
TI ARM Assembler Unix v18.1.1 Fri Jul  3 20:08:26 2020

Tools Copyright (c) 1996-2017 Texas Instruments Incorporated
timer.asm                                                            PAGE   34

    1816                            .dwattr $C$DW$86, DW_AT_TI_end_column(0x01)
    1817                            .dwendentry
    1818                            .dwendtag $C$DW$86
    1819                    
    1820 000002ba                   .sect   ".text"
    1821                            .clink
    1822                            .thumbfunc TimerClockSourceSet
    1823 000002ba                   .thumb
    1824                            .global TimerClockSourceSet
    1825                    
    1826                    $C$DW$90        .dwtag  DW_TAG_subprogram
    1827                            .dwattr $C$DW$90, DW_AT_name("TimerClockSourceSet")
    1828                            .dwattr $C$DW$90, DW_AT_low_pc(TimerClockSourceSet)
    1829                            .dwattr $C$DW$90, DW_AT_high_pc(0x00)
    1830                            .dwattr $C$DW$90, DW_AT_TI_symbol_name("TimerClockSourceSet")
    1831                            .dwattr $C$DW$90, DW_AT_external
    1832                            .dwattr $C$DW$90, DW_AT_TI_begin_file("../driverlib/timer.c")
    1833                            .dwattr $C$DW$90, DW_AT_TI_begin_line(0x2d5)
    1834                            .dwattr $C$DW$90, DW_AT_TI_begin_column(0x01)
    1835                            .dwattr $C$DW$90, DW_AT_decl_file("../driverlib/timer.c")
    1836                            .dwattr $C$DW$90, DW_AT_decl_line(0x2d5)
    1837                            .dwattr $C$DW$90, DW_AT_decl_column(0x01)
    1838                            .dwattr $C$DW$90, DW_AT_TI_max_frame_size(0x08)
    1839                            .dwpsn  file "../driverlib/timer.c",line 726,column 1,is_stmt,address TimerClockSourceSet,isa 
    1840                    
    1841                            .dwfde $C$DW$CIE, TimerClockSourceSet
    1842                    $C$DW$91        .dwtag  DW_TAG_formal_parameter
    1843                            .dwattr $C$DW$91, DW_AT_name("ui32Base")
    1844                            .dwattr $C$DW$91, DW_AT_TI_symbol_name("ui32Base")
    1845                            .dwattr $C$DW$91, DW_AT_type(*$C$DW$T$27)
    1846                            .dwattr $C$DW$91, DW_AT_location[DW_OP_reg0]
    1847                    
    1848                    $C$DW$92        .dwtag  DW_TAG_formal_parameter
    1849                            .dwattr $C$DW$92, DW_AT_name("ui32Source")
    1850                            .dwattr $C$DW$92, DW_AT_TI_symbol_name("ui32Source")
    1851                            .dwattr $C$DW$92, DW_AT_type(*$C$DW$T$27)
    1852                            .dwattr $C$DW$92, DW_AT_location[DW_OP_reg1]
    1853                    
    1854                    ;----------------------------------------------------------------------
    1855                    ; 725 | TimerClockSourceSet(uint32_t ui32Base, uint32_t ui32Source)            
    1856                    ;----------------------------------------------------------------------
    1857                    
    1858                    ;*****************************************************************************
    1859                    ;* FUNCTION NAME: TimerClockSourceSet                                        *
    1860                    ;*                                                                           *
    1861                    ;*   Regs Modified     : A1,A2,SP                                            *
    1862                    ;*   Regs Used         : A1,A2,SP,LR                                         *
    1863                    ;*   Local Frame Size  : 0 Args + 8 Auto + 0 Save = 8 byte                   *
    1864                    ;*****************************************************************************
    1865 000002ba           TimerClockSourceSet:
    1866                    ;* --------------------------------------------------------------------------*
    1867                            .dwcfi  cfa_offset, 0
    1868 000002ba 0D08F1AD          SUB       SP, SP, #8            ; [DPU_V7M3_PIPE]  ; [KEEP 32-BIT INS]
    1869                            .dwcfi  cfa_offset, 8
    1870                    $C$DW$93        .dwtag  DW_TAG_variable
TI ARM Assembler Unix v18.1.1 Fri Jul  3 20:08:26 2020

Tools Copyright (c) 1996-2017 Texas Instruments Incorporated
timer.asm                                                            PAGE   35

    1871                            .dwattr $C$DW$93, DW_AT_name("ui32Base")
    1872                            .dwattr $C$DW$93, DW_AT_TI_symbol_name("ui32Base")
    1873                            .dwattr $C$DW$93, DW_AT_type(*$C$DW$T$27)
    1874                            .dwattr $C$DW$93, DW_AT_location[DW_OP_breg13 0]
    1875                    
    1876                    $C$DW$94        .dwtag  DW_TAG_variable
    1877                            .dwattr $C$DW$94, DW_AT_name("ui32Source")
    1878                            .dwattr $C$DW$94, DW_AT_TI_symbol_name("ui32Source")
    1879                            .dwattr $C$DW$94, DW_AT_type(*$C$DW$T$27)
    1880                            .dwattr $C$DW$94, DW_AT_location[DW_OP_breg13 4]
    1881                    
    1882                    ;----------------------------------------------------------------------
    1883                    ; 727 | //                                                                     
    1884                    ; 728 | // Check the arguments.                                                
    1885                    ; 729 | //                                                                     
    1886                    ; 730 | ASSERT(_TimerBaseValid(ui32Base));                                     
    1887                    ; 731 | ASSERT((ui32Source == TIMER_CLOCK_SYSTEM) ||                           
    1888                    ; 732 |        (ui32Source == TIMER_CLOCK_PIOSC));                             
    1889                    ; 734 | //                                                                     
    1890                    ; 735 | // Set the timer clock source.                                         
    1891                    ; 736 | //                                                                     
    1892                    ;----------------------------------------------------------------------
    1893 000002be 9101              STR       A2, [SP, #4]          ; [DPU_V7M3_PIPE] |726|  ; [ORIG 16-BIT INS]
    1894 000002c0 9000              STR       A1, [SP, #0]          ; [DPU_V7M3_PIPE] |726|  ; [ORIG 16-BIT INS]
    1895                            .dwpsn  file "../driverlib/timer.c",line 737,column 5,is_stmt,isa 1
    1896                    ;----------------------------------------------------------------------
    1897                    ; 737 | HWREG(ui32Base + TIMER_O_CC) = ui32Source;                             
    1898                    ;----------------------------------------------------------------------
    1899 000002c2 9801              LDR       A1, [SP, #4]          ; [DPU_V7M3_PIPE] |737|  ; [ORIG 16-BIT INS]
    1900 000002c4 9900              LDR       A2, [SP, #0]          ; [DPU_V7M3_PIPE] |737|  ; [ORIG 16-BIT INS]
    1901 000002c6 0FC8F8C1          STR       A1, [A2, #4040]       ; [DPU_V7M3_PIPE] |737|  ; [KEEP 32-BIT INS]
    1902                            .dwpsn  file "../driverlib/timer.c",line 738,column 1,is_stmt,isa 1
    1903 000002ca B002              ADD       SP, SP, #8            ; [DPU_V7M3_PIPE]  ; [ORIG 16-BIT INS]
    1904                            .dwcfi  cfa_offset, 0
    1905                    $C$DW$95        .dwtag  DW_TAG_TI_branch
    1906                            .dwattr $C$DW$95, DW_AT_low_pc(0x00)
    1907                            .dwattr $C$DW$95, DW_AT_TI_return
    1908                    
    1909 000002cc 4770              BX        LR                    ; [DPU_V7M3_PIPE]  ; [ORIG 16-BIT INS]
    1910                            ; BRANCH OCCURS                  ; [] 
    1911                            .dwattr $C$DW$90, DW_AT_TI_end_file("../driverlib/timer.c")
    1912                            .dwattr $C$DW$90, DW_AT_TI_end_line(0x2e2)
    1913                            .dwattr $C$DW$90, DW_AT_TI_end_column(0x01)
    1914                            .dwendentry
    1915                            .dwendtag $C$DW$90
    1916                    
    1917                    ;******************************************************************************
    1918                    ;* CONSTANT TABLE                                                             *
    1919                    ;******************************************************************************
    1920 000002ce                   .sect   ".text"
    1921                            .align  4
    1922 000002ce 000046C0! ||$C$CON1||:    .bits   g_ppui32TimerIntMap,32
         000002d2 00000000 
    1923                            .align  4
    1924 000002d2 00000000  ||$C$CON2||:    .bits   1895759872,32
TI ARM Assembler Unix v18.1.1 Fri Jul  3 20:08:26 2020

Tools Copyright (c) 1996-2017 Texas Instruments Incorporated
timer.asm                                                            PAGE   36

         000002d6 000070FF 
    1925                            .align  4
    1926 000002d6 E00070FF  ||$C$CON3||:    .bits   1074782208,32
         000002da 0000400F 
    1927                            .align  4
    1928 000002da 0000400F  ||$C$CON4||:    .bits   269090816,32
         000002de 0000100A 
    1929                            .align  4
    1930 000002de 0000100A! ||$C$CON5||:    .bits   g_ppui32TimerIntMapSnowflake,32
         000002e2 00000000 
    1931 000002e4                   .sect   ".text"
    1932                            .clink
    1933                            .thumbfunc TimerClockSourceGet
    1934 000002e4                   .thumb
    1935                            .global TimerClockSourceGet
    1936                    
    1937                    $C$DW$96        .dwtag  DW_TAG_subprogram
    1938                            .dwattr $C$DW$96, DW_AT_name("TimerClockSourceGet")
    1939                            .dwattr $C$DW$96, DW_AT_low_pc(TimerClockSourceGet)
    1940                            .dwattr $C$DW$96, DW_AT_high_pc(0x00)
    1941                            .dwattr $C$DW$96, DW_AT_TI_symbol_name("TimerClockSourceGet")
    1942                            .dwattr $C$DW$96, DW_AT_external
    1943                            .dwattr $C$DW$96, DW_AT_type(*$C$DW$T$27)
    1944                            .dwattr $C$DW$96, DW_AT_TI_begin_file("../driverlib/timer.c")
    1945                            .dwattr $C$DW$96, DW_AT_TI_begin_line(0x2f6)
    1946                            .dwattr $C$DW$96, DW_AT_TI_begin_column(0x01)
    1947                            .dwattr $C$DW$96, DW_AT_decl_file("../driverlib/timer.c")
    1948                            .dwattr $C$DW$96, DW_AT_decl_line(0x2f6)
    1949                            .dwattr $C$DW$96, DW_AT_decl_column(0x01)
    1950                            .dwattr $C$DW$96, DW_AT_TI_max_frame_size(0x08)
    1951                            .dwpsn  file "../driverlib/timer.c",line 759,column 1,is_stmt,address TimerClockSourceGet,isa 
    1952                    
    1953                            .dwfde $C$DW$CIE, TimerClockSourceGet
    1954                    $C$DW$97        .dwtag  DW_TAG_formal_parameter
    1955                            .dwattr $C$DW$97, DW_AT_name("ui32Base")
    1956                            .dwattr $C$DW$97, DW_AT_TI_symbol_name("ui32Base")
    1957                            .dwattr $C$DW$97, DW_AT_type(*$C$DW$T$27)
    1958                            .dwattr $C$DW$97, DW_AT_location[DW_OP_reg0]
    1959                    
    1960                    ;----------------------------------------------------------------------
    1961                    ; 758 | TimerClockSourceGet(uint32_t ui32Base)                                 
    1962                    ;----------------------------------------------------------------------
    1963                    
    1964                    ;*****************************************************************************
    1965                    ;* FUNCTION NAME: TimerClockSourceGet                                        *
    1966                    ;*                                                                           *
    1967                    ;*   Regs Modified     : A1,SP                                               *
    1968                    ;*   Regs Used         : A1,SP,LR                                            *
    1969                    ;*   Local Frame Size  : 0 Args + 4 Auto + 0 Save = 4 byte                   *
    1970                    ;*****************************************************************************
    1971 000002e4           TimerClockSourceGet:
    1972                    ;* --------------------------------------------------------------------------*
    1973                            .dwcfi  cfa_offset, 0
    1974 000002e4 0D08F1AD          SUB       SP, SP, #8            ; [DPU_V7M3_PIPE]  ; [KEEP 32-BIT INS]
    1975                            .dwcfi  cfa_offset, 8
TI ARM Assembler Unix v18.1.1 Fri Jul  3 20:08:26 2020

Tools Copyright (c) 1996-2017 Texas Instruments Incorporated
timer.asm                                                            PAGE   37

    1976                    $C$DW$98        .dwtag  DW_TAG_variable
    1977                            .dwattr $C$DW$98, DW_AT_name("ui32Base")
    1978                            .dwattr $C$DW$98, DW_AT_TI_symbol_name("ui32Base")
    1979                            .dwattr $C$DW$98, DW_AT_type(*$C$DW$T$27)
    1980                            .dwattr $C$DW$98, DW_AT_location[DW_OP_breg13 0]
    1981                    
    1982                    ;----------------------------------------------------------------------
    1983                    ; 760 | //                                                                     
    1984                    ; 761 | // Check the arguments.                                                
    1985                    ; 762 | //                                                                     
    1986                    ; 763 | ASSERT(_TimerBaseValid(ui32Base));                                     
    1987                    ; 765 | //                                                                     
    1988                    ; 766 | // Return the timer clock source.                                      
    1989                    ; 767 | //                                                                     
    1990                    ;----------------------------------------------------------------------
    1991 000002e8 9000              STR       A1, [SP, #0]          ; [DPU_V7M3_PIPE] |759|  ; [ORIG 16-BIT INS]
    1992                            .dwpsn  file "../driverlib/timer.c",line 768,column 5,is_stmt,isa 1
    1993                    ;----------------------------------------------------------------------
    1994                    ; 768 | return(HWREG(ui32Base + TIMER_O_CC));                                  
    1995                    ;----------------------------------------------------------------------
    1996 000002ea 9800              LDR       A1, [SP, #0]          ; [DPU_V7M3_PIPE] |768|  ; [ORIG 16-BIT INS]
    1997 000002ec 0FC8F8D0          LDR       A1, [A1, #4040]       ; [DPU_V7M3_PIPE] |768|  ; [KEEP 32-BIT INS]
    1998                            .dwpsn  file "../driverlib/timer.c",line 769,column 1,is_stmt,isa 1
    1999 000002f0 B002              ADD       SP, SP, #8            ; [DPU_V7M3_PIPE]  ; [ORIG 16-BIT INS]
    2000                            .dwcfi  cfa_offset, 0
    2001                    $C$DW$99        .dwtag  DW_TAG_TI_branch
    2002                            .dwattr $C$DW$99, DW_AT_low_pc(0x00)
    2003                            .dwattr $C$DW$99, DW_AT_TI_return
    2004                    
    2005 000002f2 4770              BX        LR                    ; [DPU_V7M3_PIPE]  ; [ORIG 16-BIT INS]
    2006                            ; BRANCH OCCURS                  ; [] 
    2007                            .dwattr $C$DW$96, DW_AT_TI_end_file("../driverlib/timer.c")
    2008                            .dwattr $C$DW$96, DW_AT_TI_end_line(0x301)
    2009                            .dwattr $C$DW$96, DW_AT_TI_end_column(0x01)
    2010                            .dwendentry
    2011                            .dwendtag $C$DW$96
    2012                    
    2013 000002f4                   .sect   ".text"
    2014                            .clink
    2015                            .thumbfunc TimerPrescaleSet
    2016 000002f4                   .thumb
    2017                            .global TimerPrescaleSet
    2018                    
    2019                    $C$DW$100       .dwtag  DW_TAG_subprogram
    2020                            .dwattr $C$DW$100, DW_AT_name("TimerPrescaleSet")
    2021                            .dwattr $C$DW$100, DW_AT_low_pc(TimerPrescaleSet)
    2022                            .dwattr $C$DW$100, DW_AT_high_pc(0x00)
    2023                            .dwattr $C$DW$100, DW_AT_TI_symbol_name("TimerPrescaleSet")
    2024                            .dwattr $C$DW$100, DW_AT_external
    2025                            .dwattr $C$DW$100, DW_AT_TI_begin_file("../driverlib/timer.c")
    2026                            .dwattr $C$DW$100, DW_AT_TI_begin_line(0x31c)
    2027                            .dwattr $C$DW$100, DW_AT_TI_begin_column(0x01)
    2028                            .dwattr $C$DW$100, DW_AT_decl_file("../driverlib/timer.c")
    2029                            .dwattr $C$DW$100, DW_AT_decl_line(0x31c)
    2030                            .dwattr $C$DW$100, DW_AT_decl_column(0x01)
TI ARM Assembler Unix v18.1.1 Fri Jul  3 20:08:26 2020

Tools Copyright (c) 1996-2017 Texas Instruments Incorporated
timer.asm                                                            PAGE   38

    2031                            .dwattr $C$DW$100, DW_AT_TI_max_frame_size(0x10)
    2032                            .dwpsn  file "../driverlib/timer.c",line 797,column 1,is_stmt,address TimerPrescaleSet,isa 1
    2033                    
    2034                            .dwfde $C$DW$CIE, TimerPrescaleSet
    2035                    $C$DW$101       .dwtag  DW_TAG_formal_parameter
    2036                            .dwattr $C$DW$101, DW_AT_name("ui32Base")
    2037                            .dwattr $C$DW$101, DW_AT_TI_symbol_name("ui32Base")
    2038                            .dwattr $C$DW$101, DW_AT_type(*$C$DW$T$27)
    2039                            .dwattr $C$DW$101, DW_AT_location[DW_OP_reg0]
    2040                    
    2041                    $C$DW$102       .dwtag  DW_TAG_formal_parameter
    2042                            .dwattr $C$DW$102, DW_AT_name("ui32Timer")
    2043                            .dwattr $C$DW$102, DW_AT_TI_symbol_name("ui32Timer")
    2044                            .dwattr $C$DW$102, DW_AT_type(*$C$DW$T$27)
    2045                            .dwattr $C$DW$102, DW_AT_location[DW_OP_reg1]
    2046                    
    2047                    $C$DW$103       .dwtag  DW_TAG_formal_parameter
    2048                            .dwattr $C$DW$103, DW_AT_name("ui32Value")
    2049                            .dwattr $C$DW$103, DW_AT_TI_symbol_name("ui32Value")
    2050                            .dwattr $C$DW$103, DW_AT_type(*$C$DW$T$27)
    2051                            .dwattr $C$DW$103, DW_AT_location[DW_OP_reg2]
    2052                    
    2053                    ;----------------------------------------------------------------------
    2054                    ; 796 | TimerPrescaleSet(uint32_t ui32Base, uint32_t ui32Timer, uint32_t ui32Va
    2055                    ;     | lue)                                                                   
    2056                    ;----------------------------------------------------------------------
    2057                    
    2058                    ;*****************************************************************************
    2059                    ;* FUNCTION NAME: TimerPrescaleSet                                           *
    2060                    ;*                                                                           *
    2061                    ;*   Regs Modified     : A1,A2,SP,SR                                         *
    2062                    ;*   Regs Used         : A1,A2,A3,SP,LR,SR                                   *
    2063                    ;*   Local Frame Size  : 0 Args + 12 Auto + 0 Save = 12 byte                 *
    2064                    ;*****************************************************************************
    2065 000002f4           TimerPrescaleSet:
    2066                    ;* --------------------------------------------------------------------------*
    2067                            .dwcfi  cfa_offset, 0
    2068 000002f4 0D10F1AD          SUB       SP, SP, #16           ; [DPU_V7M3_PIPE]  ; [KEEP 32-BIT INS]
    2069                            .dwcfi  cfa_offset, 16
    2070                    $C$DW$104       .dwtag  DW_TAG_variable
    2071                            .dwattr $C$DW$104, DW_AT_name("ui32Base")
    2072                            .dwattr $C$DW$104, DW_AT_TI_symbol_name("ui32Base")
    2073                            .dwattr $C$DW$104, DW_AT_type(*$C$DW$T$27)
    2074                            .dwattr $C$DW$104, DW_AT_location[DW_OP_breg13 0]
    2075                    
    2076                    $C$DW$105       .dwtag  DW_TAG_variable
    2077                            .dwattr $C$DW$105, DW_AT_name("ui32Timer")
    2078                            .dwattr $C$DW$105, DW_AT_TI_symbol_name("ui32Timer")
    2079                            .dwattr $C$DW$105, DW_AT_type(*$C$DW$T$27)
    2080                            .dwattr $C$DW$105, DW_AT_location[DW_OP_breg13 4]
    2081                    
    2082                    $C$DW$106       .dwtag  DW_TAG_variable
    2083                            .dwattr $C$DW$106, DW_AT_name("ui32Value")
    2084                            .dwattr $C$DW$106, DW_AT_TI_symbol_name("ui32Value")
    2085                            .dwattr $C$DW$106, DW_AT_type(*$C$DW$T$27)
TI ARM Assembler Unix v18.1.1 Fri Jul  3 20:08:26 2020

Tools Copyright (c) 1996-2017 Texas Instruments Incorporated
timer.asm                                                            PAGE   39

    2086                            .dwattr $C$DW$106, DW_AT_location[DW_OP_breg13 8]
    2087                    
    2088                    ;----------------------------------------------------------------------
    2089                    ; 798 | //                                                                     
    2090                    ; 799 | // Check the arguments.                                                
    2091                    ; 800 | //                                                                     
    2092                    ; 801 | ASSERT(_TimerBaseValid(ui32Base));                                     
    2093                    ; 802 | ASSERT((ui32Timer == TIMER_A) || (ui32Timer == TIMER_B) ||             
    2094                    ; 803 |        (ui32Timer == TIMER_BOTH));                                     
    2095                    ; 804 | ASSERT(ui32Value < 256);                                               
    2096                    ; 806 | //                                                                     
    2097                    ; 807 | // Set the timer A prescaler if requested.                             
    2098                    ; 808 | //                                                                     
    2099                    ;----------------------------------------------------------------------
    2100 000002f8 9202              STR       A3, [SP, #8]          ; [DPU_V7M3_PIPE] |797|  ; [ORIG 16-BIT INS]
    2101 000002fa 9101              STR       A2, [SP, #4]          ; [DPU_V7M3_PIPE] |797|  ; [ORIG 16-BIT INS]
    2102 000002fc 9000              STR       A1, [SP, #0]          ; [DPU_V7M3_PIPE] |797|  ; [ORIG 16-BIT INS]
    2103                            .dwpsn  file "../driverlib/timer.c",line 809,column 5,is_stmt,isa 1
    2104                    ;----------------------------------------------------------------------
    2105                    ; 809 | if(ui32Timer & TIMER_A)                                                
    2106                    ;----------------------------------------------------------------------
    2107 000002fe 9801              LDR       A1, [SP, #4]          ; [DPU_V7M3_PIPE] |809|  ; [ORIG 16-BIT INS]
    2108 00000300 0FFFF010          TST       A1, #255              ; [DPU_V7M3_PIPE] |809|  ; [KEEP 32-BIT INS]
    2109 00000304 D002              BEQ       ||$C$L22||            ; [DPU_V7M3_PIPE] |809|  ; [ORIG 16-BIT INS]
    2110                            ; BRANCHCC OCCURS {||$C$L22||}   ; [] |809| 
    2111                    ;* --------------------------------------------------------------------------*
    2112                            .dwpsn  file "../driverlib/timer.c",line 811,column 9,is_stmt,isa 1
    2113                    ;----------------------------------------------------------------------
    2114                    ; 811 | HWREG(ui32Base + TIMER_O_TAPR) = ui32Value;                            
    2115                    ; 814 | //                                                                     
    2116                    ; 815 | // Set the timer B prescaler if requested.                             
    2117                    ; 816 | //                                                                     
    2118                    ;----------------------------------------------------------------------
    2119 00000306 9802              LDR       A1, [SP, #8]          ; [DPU_V7M3_PIPE] |811|  ; [ORIG 16-BIT INS]
    2120 00000308 9900              LDR       A2, [SP, #0]          ; [DPU_V7M3_PIPE] |811|  ; [ORIG 16-BIT INS]
    2121 0000030a 6388              STR       A1, [A2, #56]         ; [DPU_V7M3_PIPE] |811|  ; [ORIG 16-BIT INS]
    2122                    ;* --------------------------------------------------------------------------*
    2123 0000030c           ||$C$L22||:    
    2124                            .dwpsn  file "../driverlib/timer.c",line 817,column 5,is_stmt,isa 1
    2125                    ;----------------------------------------------------------------------
    2126                    ; 817 | if(ui32Timer & TIMER_B)                                                
    2127                    ;----------------------------------------------------------------------
    2128 0000030c 9801              LDR       A1, [SP, #4]          ; [DPU_V7M3_PIPE] |817|  ; [ORIG 16-BIT INS]
    2129 0000030e 4F7FF410          TST       A1, #65280            ; [DPU_V7M3_PIPE] |817|  ; [KEEP 32-BIT INS]
    2130 00000312 D002              BEQ       ||$C$L23||            ; [DPU_V7M3_PIPE] |817|  ; [ORIG 16-BIT INS]
    2131                            ; BRANCHCC OCCURS {||$C$L23||}   ; [] |817| 
    2132                    ;* --------------------------------------------------------------------------*
    2133                            .dwpsn  file "../driverlib/timer.c",line 819,column 9,is_stmt,isa 1
    2134                    ;----------------------------------------------------------------------
    2135                    ; 819 | HWREG(ui32Base + TIMER_O_TBPR) = ui32Value;                            
    2136                    ;----------------------------------------------------------------------
    2137 00000314 9802              LDR       A1, [SP, #8]          ; [DPU_V7M3_PIPE] |819|  ; [ORIG 16-BIT INS]
    2138 00000316 9900              LDR       A2, [SP, #0]          ; [DPU_V7M3_PIPE] |819|  ; [ORIG 16-BIT INS]
    2139 00000318 63C8              STR       A1, [A2, #60]         ; [DPU_V7M3_PIPE] |819|  ; [ORIG 16-BIT INS]
    2140                            .dwpsn  file "../driverlib/timer.c",line 821,column 1,is_stmt,isa 1
TI ARM Assembler Unix v18.1.1 Fri Jul  3 20:08:26 2020

Tools Copyright (c) 1996-2017 Texas Instruments Incorporated
timer.asm                                                            PAGE   40

    2141                    ;* --------------------------------------------------------------------------*
    2142 0000031a           ||$C$L23||:    
    2143 0000031a B004              ADD       SP, SP, #16           ; [DPU_V7M3_PIPE]  ; [ORIG 16-BIT INS]
    2144                            .dwcfi  cfa_offset, 0
    2145                    $C$DW$107       .dwtag  DW_TAG_TI_branch
    2146                            .dwattr $C$DW$107, DW_AT_low_pc(0x00)
    2147                            .dwattr $C$DW$107, DW_AT_TI_return
    2148                    
    2149 0000031c 4770              BX        LR                    ; [DPU_V7M3_PIPE]  ; [ORIG 16-BIT INS]
    2150                            ; BRANCH OCCURS                  ; [] 
    2151                            .dwattr $C$DW$100, DW_AT_TI_end_file("../driverlib/timer.c")
    2152                            .dwattr $C$DW$100, DW_AT_TI_end_line(0x335)
    2153                            .dwattr $C$DW$100, DW_AT_TI_end_column(0x01)
    2154                            .dwendentry
    2155                            .dwendtag $C$DW$100
    2156                    
    2157 0000031e                   .sect   ".text"
    2158                            .clink
    2159                            .thumbfunc TimerPrescaleGet
    2160 0000031e                   .thumb
    2161                            .global TimerPrescaleGet
    2162                    
    2163                    $C$DW$108       .dwtag  DW_TAG_subprogram
    2164                            .dwattr $C$DW$108, DW_AT_name("TimerPrescaleGet")
    2165                            .dwattr $C$DW$108, DW_AT_low_pc(TimerPrescaleGet)
    2166                            .dwattr $C$DW$108, DW_AT_high_pc(0x00)
    2167                            .dwattr $C$DW$108, DW_AT_TI_symbol_name("TimerPrescaleGet")
    2168                            .dwattr $C$DW$108, DW_AT_external
    2169                            .dwattr $C$DW$108, DW_AT_type(*$C$DW$T$27)
    2170                            .dwattr $C$DW$108, DW_AT_TI_begin_file("../driverlib/timer.c")
    2171                            .dwattr $C$DW$108, DW_AT_TI_begin_line(0x34d)
    2172                            .dwattr $C$DW$108, DW_AT_TI_begin_column(0x01)
    2173                            .dwattr $C$DW$108, DW_AT_decl_file("../driverlib/timer.c")
    2174                            .dwattr $C$DW$108, DW_AT_decl_line(0x34d)
    2175                            .dwattr $C$DW$108, DW_AT_decl_column(0x01)
    2176                            .dwattr $C$DW$108, DW_AT_TI_max_frame_size(0x08)
    2177                            .dwpsn  file "../driverlib/timer.c",line 846,column 1,is_stmt,address TimerPrescaleGet,isa 1
    2178                    
    2179                            .dwfde $C$DW$CIE, TimerPrescaleGet
    2180                    $C$DW$109       .dwtag  DW_TAG_formal_parameter
    2181                            .dwattr $C$DW$109, DW_AT_name("ui32Base")
    2182                            .dwattr $C$DW$109, DW_AT_TI_symbol_name("ui32Base")
    2183                            .dwattr $C$DW$109, DW_AT_type(*$C$DW$T$27)
    2184                            .dwattr $C$DW$109, DW_AT_location[DW_OP_reg0]
    2185                    
    2186                    $C$DW$110       .dwtag  DW_TAG_formal_parameter
    2187                            .dwattr $C$DW$110, DW_AT_name("ui32Timer")
    2188                            .dwattr $C$DW$110, DW_AT_TI_symbol_name("ui32Timer")
    2189                            .dwattr $C$DW$110, DW_AT_type(*$C$DW$T$27)
    2190                            .dwattr $C$DW$110, DW_AT_location[DW_OP_reg1]
    2191                    
    2192                    ;----------------------------------------------------------------------
    2193                    ; 845 | TimerPrescaleGet(uint32_t ui32Base, uint32_t ui32Timer)                
    2194                    ;----------------------------------------------------------------------
    2195                    
TI ARM Assembler Unix v18.1.1 Fri Jul  3 20:08:26 2020

Tools Copyright (c) 1996-2017 Texas Instruments Incorporated
timer.asm                                                            PAGE   41

    2196                    ;*****************************************************************************
    2197                    ;* FUNCTION NAME: TimerPrescaleGet                                           *
    2198                    ;*                                                                           *
    2199                    ;*   Regs Modified     : A1,SP,SR                                            *
    2200                    ;*   Regs Used         : A1,A2,SP,LR,SR                                      *
    2201                    ;*   Local Frame Size  : 0 Args + 8 Auto + 0 Save = 8 byte                   *
    2202                    ;*****************************************************************************
    2203 0000031e           TimerPrescaleGet:
    2204                    ;* --------------------------------------------------------------------------*
    2205                            .dwcfi  cfa_offset, 0
    2206 0000031e 0D08F1AD          SUB       SP, SP, #8            ; [DPU_V7M3_PIPE]  ; [KEEP 32-BIT INS]
    2207                            .dwcfi  cfa_offset, 8
    2208                    $C$DW$111       .dwtag  DW_TAG_variable
    2209                            .dwattr $C$DW$111, DW_AT_name("ui32Base")
    2210                            .dwattr $C$DW$111, DW_AT_TI_symbol_name("ui32Base")
    2211                            .dwattr $C$DW$111, DW_AT_type(*$C$DW$T$27)
    2212                            .dwattr $C$DW$111, DW_AT_location[DW_OP_breg13 0]
    2213                    
    2214                    $C$DW$112       .dwtag  DW_TAG_variable
    2215                            .dwattr $C$DW$112, DW_AT_name("ui32Timer")
    2216                            .dwattr $C$DW$112, DW_AT_TI_symbol_name("ui32Timer")
    2217                            .dwattr $C$DW$112, DW_AT_type(*$C$DW$T$27)
    2218                            .dwattr $C$DW$112, DW_AT_location[DW_OP_breg13 4]
    2219                    
    2220                    ;----------------------------------------------------------------------
    2221                    ; 847 | //                                                                     
    2222                    ; 848 | // Check the arguments.                                                
    2223                    ; 849 | //                                                                     
    2224                    ; 850 | ASSERT(_TimerBaseValid(ui32Base));                                     
    2225                    ; 851 | ASSERT((ui32Timer == TIMER_A) || (ui32Timer == TIMER_B) ||             
    2226                    ; 852 |        (ui32Timer == TIMER_BOTH));                                     
    2227                    ; 854 | //                                                                     
    2228                    ; 855 | // Return the appropriate prescale value.                              
    2229                    ; 856 | //                                                                     
    2230                    ;----------------------------------------------------------------------
    2231 00000322 9101              STR       A2, [SP, #4]          ; [DPU_V7M3_PIPE] |846|  ; [ORIG 16-BIT INS]
    2232 00000324 9000              STR       A1, [SP, #0]          ; [DPU_V7M3_PIPE] |846|  ; [ORIG 16-BIT INS]
    2233                            .dwpsn  file "../driverlib/timer.c",line 857,column 5,is_stmt,isa 1
    2234                    ;----------------------------------------------------------------------
    2235                    ; 857 | return((ui32Timer == TIMER_A) ? HWREG(ui32Base + TIMER_O_TAPR) :       
    2236                    ; 858 |        HWREG(ui32Base + TIMER_O_TBPR));                                
    2237                    ;----------------------------------------------------------------------
    2238 00000326 9801              LDR       A1, [SP, #4]          ; [DPU_V7M3_PIPE] |857|  ; [ORIG 16-BIT INS]
    2239 00000328 28FF              CMP       A1, #255              ; [DPU_V7M3_PIPE] |857|  ; [ORIG 16-BIT INS]
    2240 0000032a D102              BNE       ||$C$L24||            ; [DPU_V7M3_PIPE] |857|  ; [ORIG 16-BIT INS]
    2241                            ; BRANCHCC OCCURS {||$C$L24||}   ; [] |857| 
    2242                    ;* --------------------------------------------------------------------------*
    2243 0000032c 9800              LDR       A1, [SP, #0]          ; [DPU_V7M3_PIPE] |857|  ; [ORIG 16-BIT INS]
    2244 0000032e 6B80              LDR       A1, [A1, #56]         ; [DPU_V7M3_PIPE] |857|  ; [ORIG 16-BIT INS]
    2245 00000330 E001              B         ||$C$L25||            ; [DPU_V7M3_PIPE] |857|  ; [ORIG 16-BIT INS]
    2246                            ; BRANCH OCCURS {||$C$L25||}     ; [] |857| 
    2247                    ;* --------------------------------------------------------------------------*
    2248 00000332           ||$C$L24||:    
    2249 00000332 9800              LDR       A1, [SP, #0]          ; [DPU_V7M3_PIPE] |857|  ; [ORIG 16-BIT INS]
    2250 00000334 6BC0              LDR       A1, [A1, #60]         ; [DPU_V7M3_PIPE] |857|  ; [ORIG 16-BIT INS]
TI ARM Assembler Unix v18.1.1 Fri Jul  3 20:08:26 2020

Tools Copyright (c) 1996-2017 Texas Instruments Incorporated
timer.asm                                                            PAGE   42

    2251                    ;* --------------------------------------------------------------------------*
    2252 00000336           ||$C$L25||:    
    2253                            .dwpsn  file "../driverlib/timer.c",line 859,column 1,is_stmt,isa 1
    2254 00000336 B002              ADD       SP, SP, #8            ; [DPU_V7M3_PIPE]  ; [ORIG 16-BIT INS]
    2255                            .dwcfi  cfa_offset, 0
    2256                    $C$DW$113       .dwtag  DW_TAG_TI_branch
    2257                            .dwattr $C$DW$113, DW_AT_low_pc(0x00)
    2258                            .dwattr $C$DW$113, DW_AT_TI_return
    2259                    
    2260 00000338 4770              BX        LR                    ; [DPU_V7M3_PIPE]  ; [ORIG 16-BIT INS]
    2261                            ; BRANCH OCCURS                  ; [] 
    2262                            .dwattr $C$DW$108, DW_AT_TI_end_file("../driverlib/timer.c")
    2263                            .dwattr $C$DW$108, DW_AT_TI_end_line(0x35b)
    2264                            .dwattr $C$DW$108, DW_AT_TI_end_column(0x01)
    2265                            .dwendentry
    2266                            .dwendtag $C$DW$108
    2267                    
    2268 0000033a                   .sect   ".text"
    2269                            .clink
    2270                            .thumbfunc TimerPrescaleMatchSet
    2271 0000033a                   .thumb
    2272                            .global TimerPrescaleMatchSet
    2273                    
    2274                    $C$DW$114       .dwtag  DW_TAG_subprogram
    2275                            .dwattr $C$DW$114, DW_AT_name("TimerPrescaleMatchSet")
    2276                            .dwattr $C$DW$114, DW_AT_low_pc(TimerPrescaleMatchSet)
    2277                            .dwattr $C$DW$114, DW_AT_high_pc(0x00)
    2278                            .dwattr $C$DW$114, DW_AT_TI_symbol_name("TimerPrescaleMatchSet")
    2279                            .dwattr $C$DW$114, DW_AT_external
    2280                            .dwattr $C$DW$114, DW_AT_TI_begin_file("../driverlib/timer.c")
    2281                            .dwattr $C$DW$114, DW_AT_TI_begin_line(0x377)
    2282                            .dwattr $C$DW$114, DW_AT_TI_begin_column(0x01)
    2283                            .dwattr $C$DW$114, DW_AT_decl_file("../driverlib/timer.c")
    2284                            .dwattr $C$DW$114, DW_AT_decl_line(0x377)
    2285                            .dwattr $C$DW$114, DW_AT_decl_column(0x01)
    2286                            .dwattr $C$DW$114, DW_AT_TI_max_frame_size(0x10)
    2287                            .dwpsn  file "../driverlib/timer.c",line 889,column 1,is_stmt,address TimerPrescaleMatchSet,is
    2288                    
    2289                            .dwfde $C$DW$CIE, TimerPrescaleMatchSet
    2290                    $C$DW$115       .dwtag  DW_TAG_formal_parameter
    2291                            .dwattr $C$DW$115, DW_AT_name("ui32Base")
    2292                            .dwattr $C$DW$115, DW_AT_TI_symbol_name("ui32Base")
    2293                            .dwattr $C$DW$115, DW_AT_type(*$C$DW$T$27)
    2294                            .dwattr $C$DW$115, DW_AT_location[DW_OP_reg0]
    2295                    
    2296                    $C$DW$116       .dwtag  DW_TAG_formal_parameter
    2297                            .dwattr $C$DW$116, DW_AT_name("ui32Timer")
    2298                            .dwattr $C$DW$116, DW_AT_TI_symbol_name("ui32Timer")
    2299                            .dwattr $C$DW$116, DW_AT_type(*$C$DW$T$27)
    2300                            .dwattr $C$DW$116, DW_AT_location[DW_OP_reg1]
    2301                    
    2302                    $C$DW$117       .dwtag  DW_TAG_formal_parameter
    2303                            .dwattr $C$DW$117, DW_AT_name("ui32Value")
    2304                            .dwattr $C$DW$117, DW_AT_TI_symbol_name("ui32Value")
    2305                            .dwattr $C$DW$117, DW_AT_type(*$C$DW$T$27)
TI ARM Assembler Unix v18.1.1 Fri Jul  3 20:08:26 2020

Tools Copyright (c) 1996-2017 Texas Instruments Incorporated
timer.asm                                                            PAGE   43

    2306                            .dwattr $C$DW$117, DW_AT_location[DW_OP_reg2]
    2307                    
    2308                    ;----------------------------------------------------------------------
    2309                    ; 887 | TimerPrescaleMatchSet(uint32_t ui32Base, uint32_t ui32Timer,           
    2310                    ; 888 | uint32_t ui32Value)                                                    
    2311                    ;----------------------------------------------------------------------
    2312                    
    2313                    ;*****************************************************************************
    2314                    ;* FUNCTION NAME: TimerPrescaleMatchSet                                      *
    2315                    ;*                                                                           *
    2316                    ;*   Regs Modified     : A1,A2,SP,SR                                         *
    2317                    ;*   Regs Used         : A1,A2,A3,SP,LR,SR                                   *
    2318                    ;*   Local Frame Size  : 0 Args + 12 Auto + 0 Save = 12 byte                 *
    2319                    ;*****************************************************************************
    2320 0000033a           TimerPrescaleMatchSet:
    2321                    ;* --------------------------------------------------------------------------*
    2322                            .dwcfi  cfa_offset, 0
    2323 0000033a 0D10F1AD          SUB       SP, SP, #16           ; [DPU_V7M3_PIPE]  ; [KEEP 32-BIT INS]
    2324                            .dwcfi  cfa_offset, 16
    2325                    $C$DW$118       .dwtag  DW_TAG_variable
    2326                            .dwattr $C$DW$118, DW_AT_name("ui32Base")
    2327                            .dwattr $C$DW$118, DW_AT_TI_symbol_name("ui32Base")
    2328                            .dwattr $C$DW$118, DW_AT_type(*$C$DW$T$27)
    2329                            .dwattr $C$DW$118, DW_AT_location[DW_OP_breg13 0]
    2330                    
    2331                    $C$DW$119       .dwtag  DW_TAG_variable
    2332                            .dwattr $C$DW$119, DW_AT_name("ui32Timer")
    2333                            .dwattr $C$DW$119, DW_AT_TI_symbol_name("ui32Timer")
    2334                            .dwattr $C$DW$119, DW_AT_type(*$C$DW$T$27)
    2335                            .dwattr $C$DW$119, DW_AT_location[DW_OP_breg13 4]
    2336                    
    2337                    $C$DW$120       .dwtag  DW_TAG_variable
    2338                            .dwattr $C$DW$120, DW_AT_name("ui32Value")
    2339                            .dwattr $C$DW$120, DW_AT_TI_symbol_name("ui32Value")
    2340                            .dwattr $C$DW$120, DW_AT_type(*$C$DW$T$27)
    2341                            .dwattr $C$DW$120, DW_AT_location[DW_OP_breg13 8]
    2342                    
    2343                    ;----------------------------------------------------------------------
    2344                    ; 890 | //                                                                     
    2345                    ; 891 | // Check the arguments.                                                
    2346                    ; 892 | //                                                                     
    2347                    ; 893 | ASSERT(_TimerBaseValid(ui32Base));                                     
    2348                    ; 894 | ASSERT((ui32Timer == TIMER_A) || (ui32Timer == TIMER_B) ||             
    2349                    ; 895 |        (ui32Timer == TIMER_BOTH));                                     
    2350                    ; 896 | ASSERT(ui32Value < 256);                                               
    2351                    ; 898 | //                                                                     
    2352                    ; 899 | // Set the timer A prescale match if requested.                        
    2353                    ; 900 | //                                                                     
    2354                    ;----------------------------------------------------------------------
    2355 0000033e 9202              STR       A3, [SP, #8]          ; [DPU_V7M3_PIPE] |889|  ; [ORIG 16-BIT INS]
    2356 00000340 9101              STR       A2, [SP, #4]          ; [DPU_V7M3_PIPE] |889|  ; [ORIG 16-BIT INS]
    2357 00000342 9000              STR       A1, [SP, #0]          ; [DPU_V7M3_PIPE] |889|  ; [ORIG 16-BIT INS]
    2358                            .dwpsn  file "../driverlib/timer.c",line 901,column 5,is_stmt,isa 1
    2359                    ;----------------------------------------------------------------------
    2360                    ; 901 | if(ui32Timer & TIMER_A)                                                
TI ARM Assembler Unix v18.1.1 Fri Jul  3 20:08:26 2020

Tools Copyright (c) 1996-2017 Texas Instruments Incorporated
timer.asm                                                            PAGE   44

    2361                    ;----------------------------------------------------------------------
    2362 00000344 9801              LDR       A1, [SP, #4]          ; [DPU_V7M3_PIPE] |901|  ; [ORIG 16-BIT INS]
    2363 00000346 0FFFF010          TST       A1, #255              ; [DPU_V7M3_PIPE] |901|  ; [KEEP 32-BIT INS]
    2364 0000034a D002              BEQ       ||$C$L26||            ; [DPU_V7M3_PIPE] |901|  ; [ORIG 16-BIT INS]
    2365                            ; BRANCHCC OCCURS {||$C$L26||}   ; [] |901| 
    2366                    ;* --------------------------------------------------------------------------*
    2367                            .dwpsn  file "../driverlib/timer.c",line 903,column 9,is_stmt,isa 1
    2368                    ;----------------------------------------------------------------------
    2369                    ; 903 | HWREG(ui32Base + TIMER_O_TAPMR) = ui32Value;                           
    2370                    ; 906 | //                                                                     
    2371                    ; 907 | // Set the timer B prescale match if requested.                        
    2372                    ; 908 | //                                                                     
    2373                    ;----------------------------------------------------------------------
    2374 0000034c 9802              LDR       A1, [SP, #8]          ; [DPU_V7M3_PIPE] |903|  ; [ORIG 16-BIT INS]
    2375 0000034e 9900              LDR       A2, [SP, #0]          ; [DPU_V7M3_PIPE] |903|  ; [ORIG 16-BIT INS]
    2376 00000350 6408              STR       A1, [A2, #64]         ; [DPU_V7M3_PIPE] |903|  ; [ORIG 16-BIT INS]
    2377                    ;* --------------------------------------------------------------------------*
    2378 00000352           ||$C$L26||:    
    2379                            .dwpsn  file "../driverlib/timer.c",line 909,column 5,is_stmt,isa 1
    2380                    ;----------------------------------------------------------------------
    2381                    ; 909 | if(ui32Timer & TIMER_B)                                                
    2382                    ;----------------------------------------------------------------------
    2383 00000352 9801              LDR       A1, [SP, #4]          ; [DPU_V7M3_PIPE] |909|  ; [ORIG 16-BIT INS]
    2384 00000354 4F7FF410          TST       A1, #65280            ; [DPU_V7M3_PIPE] |909|  ; [KEEP 32-BIT INS]
    2385 00000358 D002              BEQ       ||$C$L27||            ; [DPU_V7M3_PIPE] |909|  ; [ORIG 16-BIT INS]
    2386                            ; BRANCHCC OCCURS {||$C$L27||}   ; [] |909| 
    2387                    ;* --------------------------------------------------------------------------*
    2388                            .dwpsn  file "../driverlib/timer.c",line 911,column 9,is_stmt,isa 1
    2389                    ;----------------------------------------------------------------------
    2390                    ; 911 | HWREG(ui32Base + TIMER_O_TBPMR) = ui32Value;                           
    2391                    ;----------------------------------------------------------------------
    2392 0000035a 9802              LDR       A1, [SP, #8]          ; [DPU_V7M3_PIPE] |911|  ; [ORIG 16-BIT INS]
    2393 0000035c 9900              LDR       A2, [SP, #0]          ; [DPU_V7M3_PIPE] |911|  ; [ORIG 16-BIT INS]
    2394 0000035e 6448              STR       A1, [A2, #68]         ; [DPU_V7M3_PIPE] |911|  ; [ORIG 16-BIT INS]
    2395                            .dwpsn  file "../driverlib/timer.c",line 913,column 1,is_stmt,isa 1
    2396                    ;* --------------------------------------------------------------------------*
    2397 00000360           ||$C$L27||:    
    2398 00000360 B004              ADD       SP, SP, #16           ; [DPU_V7M3_PIPE]  ; [ORIG 16-BIT INS]
    2399                            .dwcfi  cfa_offset, 0
    2400                    $C$DW$121       .dwtag  DW_TAG_TI_branch
    2401                            .dwattr $C$DW$121, DW_AT_low_pc(0x00)
    2402                            .dwattr $C$DW$121, DW_AT_TI_return
    2403                    
    2404 00000362 4770              BX        LR                    ; [DPU_V7M3_PIPE]  ; [ORIG 16-BIT INS]
    2405                            ; BRANCH OCCURS                  ; [] 
    2406                            .dwattr $C$DW$114, DW_AT_TI_end_file("../driverlib/timer.c")
    2407                            .dwattr $C$DW$114, DW_AT_TI_end_line(0x391)
    2408                            .dwattr $C$DW$114, DW_AT_TI_end_column(0x01)
    2409                            .dwendentry
    2410                            .dwendtag $C$DW$114
    2411                    
    2412                    ;******************************************************************************
    2413                    ;* CONSTANT TABLE                                                             *
    2414                    ;******************************************************************************
    2415 00000364                   .sect   ".text"
TI ARM Assembler Unix v18.1.1 Fri Jul  3 20:08:26 2020

Tools Copyright (c) 1996-2017 Texas Instruments Incorporated
timer.asm                                                            PAGE   45

    2416                            .align  4
    2417 00000364 FFFFFEFE  ||$C$CON6||:    .bits   -258,32
    2418 00000368                   .sect   ".text"
    2419                            .clink
    2420                            .thumbfunc TimerPrescaleMatchGet
    2421 00000368                   .thumb
    2422                            .global TimerPrescaleMatchGet
    2423                    
    2424                    $C$DW$122       .dwtag  DW_TAG_subprogram
    2425                            .dwattr $C$DW$122, DW_AT_name("TimerPrescaleMatchGet")
    2426                            .dwattr $C$DW$122, DW_AT_low_pc(TimerPrescaleMatchGet)
    2427                            .dwattr $C$DW$122, DW_AT_high_pc(0x00)
    2428                            .dwattr $C$DW$122, DW_AT_TI_symbol_name("TimerPrescaleMatchGet")
    2429                            .dwattr $C$DW$122, DW_AT_external
    2430                            .dwattr $C$DW$122, DW_AT_type(*$C$DW$T$27)
    2431                            .dwattr $C$DW$122, DW_AT_TI_begin_file("../driverlib/timer.c")
    2432                            .dwattr $C$DW$122, DW_AT_TI_begin_line(0x3aa)
    2433                            .dwattr $C$DW$122, DW_AT_TI_begin_column(0x01)
    2434                            .dwattr $C$DW$122, DW_AT_decl_file("../driverlib/timer.c")
    2435                            .dwattr $C$DW$122, DW_AT_decl_line(0x3aa)
    2436                            .dwattr $C$DW$122, DW_AT_decl_column(0x01)
    2437                            .dwattr $C$DW$122, DW_AT_TI_max_frame_size(0x08)
    2438                            .dwpsn  file "../driverlib/timer.c",line 939,column 1,is_stmt,address TimerPrescaleMatchGet,is
    2439                    
    2440                            .dwfde $C$DW$CIE, TimerPrescaleMatchGet
    2441                    $C$DW$123       .dwtag  DW_TAG_formal_parameter
    2442                            .dwattr $C$DW$123, DW_AT_name("ui32Base")
    2443                            .dwattr $C$DW$123, DW_AT_TI_symbol_name("ui32Base")
    2444                            .dwattr $C$DW$123, DW_AT_type(*$C$DW$T$27)
    2445                            .dwattr $C$DW$123, DW_AT_location[DW_OP_reg0]
    2446                    
    2447                    $C$DW$124       .dwtag  DW_TAG_formal_parameter
    2448                            .dwattr $C$DW$124, DW_AT_name("ui32Timer")
    2449                            .dwattr $C$DW$124, DW_AT_TI_symbol_name("ui32Timer")
    2450                            .dwattr $C$DW$124, DW_AT_type(*$C$DW$T$27)
    2451                            .dwattr $C$DW$124, DW_AT_location[DW_OP_reg1]
    2452                    
    2453                    ;----------------------------------------------------------------------
    2454                    ; 938 | TimerPrescaleMatchGet(uint32_t ui32Base, uint32_t ui32Timer)           
    2455                    ;----------------------------------------------------------------------
    2456                    
    2457                    ;*****************************************************************************
    2458                    ;* FUNCTION NAME: TimerPrescaleMatchGet                                      *
    2459                    ;*                                                                           *
    2460                    ;*   Regs Modified     : A1,SP,SR                                            *
    2461                    ;*   Regs Used         : A1,A2,SP,LR,SR                                      *
    2462                    ;*   Local Frame Size  : 0 Args + 8 Auto + 0 Save = 8 byte                   *
    2463                    ;*****************************************************************************
    2464 00000368           TimerPrescaleMatchGet:
    2465                    ;* --------------------------------------------------------------------------*
    2466                            .dwcfi  cfa_offset, 0
    2467 00000368 0D08F1AD          SUB       SP, SP, #8            ; [DPU_V7M3_PIPE]  ; [KEEP 32-BIT INS]
    2468                            .dwcfi  cfa_offset, 8
    2469                    $C$DW$125       .dwtag  DW_TAG_variable
    2470                            .dwattr $C$DW$125, DW_AT_name("ui32Base")
TI ARM Assembler Unix v18.1.1 Fri Jul  3 20:08:26 2020

Tools Copyright (c) 1996-2017 Texas Instruments Incorporated
timer.asm                                                            PAGE   46

    2471                            .dwattr $C$DW$125, DW_AT_TI_symbol_name("ui32Base")
    2472                            .dwattr $C$DW$125, DW_AT_type(*$C$DW$T$27)
    2473                            .dwattr $C$DW$125, DW_AT_location[DW_OP_breg13 0]
    2474                    
    2475                    $C$DW$126       .dwtag  DW_TAG_variable
    2476                            .dwattr $C$DW$126, DW_AT_name("ui32Timer")
    2477                            .dwattr $C$DW$126, DW_AT_TI_symbol_name("ui32Timer")
    2478                            .dwattr $C$DW$126, DW_AT_type(*$C$DW$T$27)
    2479                            .dwattr $C$DW$126, DW_AT_location[DW_OP_breg13 4]
    2480                    
    2481                    ;----------------------------------------------------------------------
    2482                    ; 940 | //                                                                     
    2483                    ; 941 | // Check the arguments.                                                
    2484                    ; 942 | //                                                                     
    2485                    ; 943 | ASSERT(_TimerBaseValid(ui32Base));                                     
    2486                    ; 944 | ASSERT((ui32Timer == TIMER_A) || (ui32Timer == TIMER_B) ||             
    2487                    ; 945 |        (ui32Timer == TIMER_BOTH));                                     
    2488                    ; 947 | //                                                                     
    2489                    ; 948 | // Return the appropriate prescale match value.                        
    2490                    ; 949 | //                                                                     
    2491                    ;----------------------------------------------------------------------
    2492 0000036c 9101              STR       A2, [SP, #4]          ; [DPU_V7M3_PIPE] |939|  ; [ORIG 16-BIT INS]
    2493 0000036e 9000              STR       A1, [SP, #0]          ; [DPU_V7M3_PIPE] |939|  ; [ORIG 16-BIT INS]
    2494                            .dwpsn  file "../driverlib/timer.c",line 950,column 5,is_stmt,isa 1
    2495                    ;----------------------------------------------------------------------
    2496                    ; 950 | return((ui32Timer == TIMER_A) ? HWREG(ui32Base + TIMER_O_TAPMR) :      
    2497                    ; 951 |        HWREG(ui32Base + TIMER_O_TBPMR));                               
    2498                    ;----------------------------------------------------------------------
    2499 00000370 9801              LDR       A1, [SP, #4]          ; [DPU_V7M3_PIPE] |950|  ; [ORIG 16-BIT INS]
    2500 00000372 28FF              CMP       A1, #255              ; [DPU_V7M3_PIPE] |950|  ; [ORIG 16-BIT INS]
    2501 00000374 D102              BNE       ||$C$L28||            ; [DPU_V7M3_PIPE] |950|  ; [ORIG 16-BIT INS]
    2502                            ; BRANCHCC OCCURS {||$C$L28||}   ; [] |950| 
    2503                    ;* --------------------------------------------------------------------------*
    2504 00000376 9800              LDR       A1, [SP, #0]          ; [DPU_V7M3_PIPE] |950|  ; [ORIG 16-BIT INS]
    2505 00000378 6C00              LDR       A1, [A1, #64]         ; [DPU_V7M3_PIPE] |950|  ; [ORIG 16-BIT INS]
    2506 0000037a E001              B         ||$C$L29||            ; [DPU_V7M3_PIPE] |950|  ; [ORIG 16-BIT INS]
    2507                            ; BRANCH OCCURS {||$C$L29||}     ; [] |950| 
    2508                    ;* --------------------------------------------------------------------------*
    2509 0000037c           ||$C$L28||:    
    2510 0000037c 9800              LDR       A1, [SP, #0]          ; [DPU_V7M3_PIPE] |950|  ; [ORIG 16-BIT INS]
    2511 0000037e 6C40              LDR       A1, [A1, #68]         ; [DPU_V7M3_PIPE] |950|  ; [ORIG 16-BIT INS]
    2512                    ;* --------------------------------------------------------------------------*
    2513 00000380           ||$C$L29||:    
    2514                            .dwpsn  file "../driverlib/timer.c",line 952,column 1,is_stmt,isa 1
    2515 00000380 B002              ADD       SP, SP, #8            ; [DPU_V7M3_PIPE]  ; [ORIG 16-BIT INS]
    2516                            .dwcfi  cfa_offset, 0
    2517                    $C$DW$127       .dwtag  DW_TAG_TI_branch
    2518                            .dwattr $C$DW$127, DW_AT_low_pc(0x00)
    2519                            .dwattr $C$DW$127, DW_AT_TI_return
    2520                    
    2521 00000382 4770              BX        LR                    ; [DPU_V7M3_PIPE]  ; [ORIG 16-BIT INS]
    2522                            ; BRANCH OCCURS                  ; [] 
    2523                            .dwattr $C$DW$122, DW_AT_TI_end_file("../driverlib/timer.c")
    2524                            .dwattr $C$DW$122, DW_AT_TI_end_line(0x3b8)
    2525                            .dwattr $C$DW$122, DW_AT_TI_end_column(0x01)
TI ARM Assembler Unix v18.1.1 Fri Jul  3 20:08:26 2020

Tools Copyright (c) 1996-2017 Texas Instruments Incorporated
timer.asm                                                            PAGE   47

    2526                            .dwendentry
    2527                            .dwendtag $C$DW$122
    2528                    
    2529 00000384                   .sect   ".text"
    2530                            .clink
    2531                            .thumbfunc TimerLoadSet
    2532 00000384                   .thumb
    2533                            .global TimerLoadSet
    2534                    
    2535                    $C$DW$128       .dwtag  DW_TAG_subprogram
    2536                            .dwattr $C$DW$128, DW_AT_name("TimerLoadSet")
    2537                            .dwattr $C$DW$128, DW_AT_low_pc(TimerLoadSet)
    2538                            .dwattr $C$DW$128, DW_AT_high_pc(0x00)
    2539                            .dwattr $C$DW$128, DW_AT_TI_symbol_name("TimerLoadSet")
    2540                            .dwattr $C$DW$128, DW_AT_external
    2541                            .dwattr $C$DW$128, DW_AT_TI_begin_file("../driverlib/timer.c")
    2542                            .dwattr $C$DW$128, DW_AT_TI_begin_line(0x3cf)
    2543                            .dwattr $C$DW$128, DW_AT_TI_begin_column(0x01)
    2544                            .dwattr $C$DW$128, DW_AT_decl_file("../driverlib/timer.c")
    2545                            .dwattr $C$DW$128, DW_AT_decl_line(0x3cf)
    2546                            .dwattr $C$DW$128, DW_AT_decl_column(0x01)
    2547                            .dwattr $C$DW$128, DW_AT_TI_max_frame_size(0x10)
    2548                            .dwpsn  file "../driverlib/timer.c",line 976,column 1,is_stmt,address TimerLoadSet,isa 1
    2549                    
    2550                            .dwfde $C$DW$CIE, TimerLoadSet
    2551                    $C$DW$129       .dwtag  DW_TAG_formal_parameter
    2552                            .dwattr $C$DW$129, DW_AT_name("ui32Base")
    2553                            .dwattr $C$DW$129, DW_AT_TI_symbol_name("ui32Base")
    2554                            .dwattr $C$DW$129, DW_AT_type(*$C$DW$T$27)
    2555                            .dwattr $C$DW$129, DW_AT_location[DW_OP_reg0]
    2556                    
    2557                    $C$DW$130       .dwtag  DW_TAG_formal_parameter
    2558                            .dwattr $C$DW$130, DW_AT_name("ui32Timer")
    2559                            .dwattr $C$DW$130, DW_AT_TI_symbol_name("ui32Timer")
    2560                            .dwattr $C$DW$130, DW_AT_type(*$C$DW$T$27)
    2561                            .dwattr $C$DW$130, DW_AT_location[DW_OP_reg1]
    2562                    
    2563                    $C$DW$131       .dwtag  DW_TAG_formal_parameter
    2564                            .dwattr $C$DW$131, DW_AT_name("ui32Value")
    2565                            .dwattr $C$DW$131, DW_AT_TI_symbol_name("ui32Value")
    2566                            .dwattr $C$DW$131, DW_AT_type(*$C$DW$T$27)
    2567                            .dwattr $C$DW$131, DW_AT_location[DW_OP_reg2]
    2568                    
    2569                    ;----------------------------------------------------------------------
    2570                    ; 975 | TimerLoadSet(uint32_t ui32Base, uint32_t ui32Timer, uint32_t ui32Value)
    2571                    ;----------------------------------------------------------------------
    2572                    
    2573                    ;*****************************************************************************
    2574                    ;* FUNCTION NAME: TimerLoadSet                                               *
    2575                    ;*                                                                           *
    2576                    ;*   Regs Modified     : A1,A2,SP,SR                                         *
    2577                    ;*   Regs Used         : A1,A2,A3,SP,LR,SR                                   *
    2578                    ;*   Local Frame Size  : 0 Args + 12 Auto + 0 Save = 12 byte                 *
    2579                    ;*****************************************************************************
    2580 00000384           TimerLoadSet:
TI ARM Assembler Unix v18.1.1 Fri Jul  3 20:08:26 2020

Tools Copyright (c) 1996-2017 Texas Instruments Incorporated
timer.asm                                                            PAGE   48

    2581                    ;* --------------------------------------------------------------------------*
    2582                            .dwcfi  cfa_offset, 0
    2583 00000384 0D10F1AD          SUB       SP, SP, #16           ; [DPU_V7M3_PIPE]  ; [KEEP 32-BIT INS]
    2584                            .dwcfi  cfa_offset, 16
    2585                    $C$DW$132       .dwtag  DW_TAG_variable
    2586                            .dwattr $C$DW$132, DW_AT_name("ui32Base")
    2587                            .dwattr $C$DW$132, DW_AT_TI_symbol_name("ui32Base")
    2588                            .dwattr $C$DW$132, DW_AT_type(*$C$DW$T$27)
    2589                            .dwattr $C$DW$132, DW_AT_location[DW_OP_breg13 0]
    2590                    
    2591                    $C$DW$133       .dwtag  DW_TAG_variable
    2592                            .dwattr $C$DW$133, DW_AT_name("ui32Timer")
    2593                            .dwattr $C$DW$133, DW_AT_TI_symbol_name("ui32Timer")
    2594                            .dwattr $C$DW$133, DW_AT_type(*$C$DW$T$27)
    2595                            .dwattr $C$DW$133, DW_AT_location[DW_OP_breg13 4]
    2596                    
    2597                    $C$DW$134       .dwtag  DW_TAG_variable
    2598                            .dwattr $C$DW$134, DW_AT_name("ui32Value")
    2599                            .dwattr $C$DW$134, DW_AT_TI_symbol_name("ui32Value")
    2600                            .dwattr $C$DW$134, DW_AT_type(*$C$DW$T$27)
    2601                            .dwattr $C$DW$134, DW_AT_location[DW_OP_breg13 8]
    2602                    
    2603                    ;----------------------------------------------------------------------
    2604                    ; 977 | //                                                                     
    2605                    ; 978 | // Check the arguments.                                                
    2606                    ; 979 | //                                                                     
    2607                    ; 980 | ASSERT(_TimerBaseValid(ui32Base));                                     
    2608                    ; 981 | ASSERT((ui32Timer == TIMER_A) || (ui32Timer == TIMER_B) ||             
    2609                    ; 982 |        (ui32Timer == TIMER_BOTH));                                     
    2610                    ; 984 | //                                                                     
    2611                    ; 985 | // Set the timer A load value if requested.                            
    2612                    ; 986 | //                                                                     
    2613                    ;----------------------------------------------------------------------
    2614 00000388 9202              STR       A3, [SP, #8]          ; [DPU_V7M3_PIPE] |976|  ; [ORIG 16-BIT INS]
    2615 0000038a 9101              STR       A2, [SP, #4]          ; [DPU_V7M3_PIPE] |976|  ; [ORIG 16-BIT INS]
    2616 0000038c 9000              STR       A1, [SP, #0]          ; [DPU_V7M3_PIPE] |976|  ; [ORIG 16-BIT INS]
    2617                            .dwpsn  file "../driverlib/timer.c",line 987,column 5,is_stmt,isa 1
    2618                    ;----------------------------------------------------------------------
    2619                    ; 987 | if(ui32Timer & TIMER_A)                                                
    2620                    ;----------------------------------------------------------------------
    2621 0000038e 9801              LDR       A1, [SP, #4]          ; [DPU_V7M3_PIPE] |987|  ; [ORIG 16-BIT INS]
    2622 00000390 0FFFF010          TST       A1, #255              ; [DPU_V7M3_PIPE] |987|  ; [KEEP 32-BIT INS]
    2623 00000394 D002              BEQ       ||$C$L30||            ; [DPU_V7M3_PIPE] |987|  ; [ORIG 16-BIT INS]
    2624                            ; BRANCHCC OCCURS {||$C$L30||}   ; [] |987| 
    2625                    ;* --------------------------------------------------------------------------*
    2626                            .dwpsn  file "../driverlib/timer.c",line 989,column 9,is_stmt,isa 1
    2627                    ;----------------------------------------------------------------------
    2628                    ; 989 | HWREG(ui32Base + TIMER_O_TAILR) = ui32Value;                           
    2629                    ; 992 | //                                                                     
    2630                    ; 993 | // Set the timer B load value if requested.                            
    2631                    ; 994 | //                                                                     
    2632                    ;----------------------------------------------------------------------
    2633 00000396 9802              LDR       A1, [SP, #8]          ; [DPU_V7M3_PIPE] |989|  ; [ORIG 16-BIT INS]
    2634 00000398 9900              LDR       A2, [SP, #0]          ; [DPU_V7M3_PIPE] |989|  ; [ORIG 16-BIT INS]
    2635 0000039a 6288              STR       A1, [A2, #40]         ; [DPU_V7M3_PIPE] |989|  ; [ORIG 16-BIT INS]
TI ARM Assembler Unix v18.1.1 Fri Jul  3 20:08:26 2020

Tools Copyright (c) 1996-2017 Texas Instruments Incorporated
timer.asm                                                            PAGE   49

    2636                    ;* --------------------------------------------------------------------------*
    2637 0000039c           ||$C$L30||:    
    2638                            .dwpsn  file "../driverlib/timer.c",line 995,column 5,is_stmt,isa 1
    2639                    ;----------------------------------------------------------------------
    2640                    ; 995 | if(ui32Timer & TIMER_B)                                                
    2641                    ;----------------------------------------------------------------------
    2642 0000039c 9801              LDR       A1, [SP, #4]          ; [DPU_V7M3_PIPE] |995|  ; [ORIG 16-BIT INS]
    2643 0000039e 4F7FF410          TST       A1, #65280            ; [DPU_V7M3_PIPE] |995|  ; [KEEP 32-BIT INS]
    2644 000003a2 D002              BEQ       ||$C$L31||            ; [DPU_V7M3_PIPE] |995|  ; [ORIG 16-BIT INS]
    2645                            ; BRANCHCC OCCURS {||$C$L31||}   ; [] |995| 
    2646                    ;* --------------------------------------------------------------------------*
    2647                            .dwpsn  file "../driverlib/timer.c",line 997,column 9,is_stmt,isa 1
    2648                    ;----------------------------------------------------------------------
    2649                    ; 997 | HWREG(ui32Base + TIMER_O_TBILR) = ui32Value;                           
    2650                    ;----------------------------------------------------------------------
    2651 000003a4 9802              LDR       A1, [SP, #8]          ; [DPU_V7M3_PIPE] |997|  ; [ORIG 16-BIT INS]
    2652 000003a6 9900              LDR       A2, [SP, #0]          ; [DPU_V7M3_PIPE] |997|  ; [ORIG 16-BIT INS]
    2653 000003a8 62C8              STR       A1, [A2, #44]         ; [DPU_V7M3_PIPE] |997|  ; [ORIG 16-BIT INS]
    2654                            .dwpsn  file "../driverlib/timer.c",line 999,column 1,is_stmt,isa 1
    2655                    ;* --------------------------------------------------------------------------*
    2656 000003aa           ||$C$L31||:    
    2657 000003aa B004              ADD       SP, SP, #16           ; [DPU_V7M3_PIPE]  ; [ORIG 16-BIT INS]
    2658                            .dwcfi  cfa_offset, 0
    2659                    $C$DW$135       .dwtag  DW_TAG_TI_branch
    2660                            .dwattr $C$DW$135, DW_AT_low_pc(0x00)
    2661                            .dwattr $C$DW$135, DW_AT_TI_return
    2662                    
    2663 000003ac 4770              BX        LR                    ; [DPU_V7M3_PIPE]  ; [ORIG 16-BIT INS]
    2664                            ; BRANCH OCCURS                  ; [] 
    2665                            .dwattr $C$DW$128, DW_AT_TI_end_file("../driverlib/timer.c")
    2666                            .dwattr $C$DW$128, DW_AT_TI_end_line(0x3e7)
    2667                            .dwattr $C$DW$128, DW_AT_TI_end_column(0x01)
    2668                            .dwendentry
    2669                            .dwendtag $C$DW$128
    2670                    
    2671 000003ae                   .sect   ".text"
    2672                            .clink
    2673                            .thumbfunc TimerLoadGet
    2674 000003ae                   .thumb
    2675                            .global TimerLoadGet
    2676                    
    2677                    $C$DW$136       .dwtag  DW_TAG_subprogram
    2678                            .dwattr $C$DW$136, DW_AT_name("TimerLoadGet")
    2679                            .dwattr $C$DW$136, DW_AT_low_pc(TimerLoadGet)
    2680                            .dwattr $C$DW$136, DW_AT_high_pc(0x00)
    2681                            .dwattr $C$DW$136, DW_AT_TI_symbol_name("TimerLoadGet")
    2682                            .dwattr $C$DW$136, DW_AT_external
    2683                            .dwattr $C$DW$136, DW_AT_type(*$C$DW$T$27)
    2684                            .dwattr $C$DW$136, DW_AT_TI_begin_file("../driverlib/timer.c")
    2685                            .dwattr $C$DW$136, DW_AT_TI_begin_line(0x3fd)
    2686                            .dwattr $C$DW$136, DW_AT_TI_begin_column(0x01)
    2687                            .dwattr $C$DW$136, DW_AT_decl_file("../driverlib/timer.c")
    2688                            .dwattr $C$DW$136, DW_AT_decl_line(0x3fd)
    2689                            .dwattr $C$DW$136, DW_AT_decl_column(0x01)
    2690                            .dwattr $C$DW$136, DW_AT_TI_max_frame_size(0x08)
TI ARM Assembler Unix v18.1.1 Fri Jul  3 20:08:26 2020

Tools Copyright (c) 1996-2017 Texas Instruments Incorporated
timer.asm                                                            PAGE   50

    2691                            .dwpsn  file "../driverlib/timer.c",line 1022,column 1,is_stmt,address TimerLoadGet,isa 1
    2692                    
    2693                            .dwfde $C$DW$CIE, TimerLoadGet
    2694                    $C$DW$137       .dwtag  DW_TAG_formal_parameter
    2695                            .dwattr $C$DW$137, DW_AT_name("ui32Base")
    2696                            .dwattr $C$DW$137, DW_AT_TI_symbol_name("ui32Base")
    2697                            .dwattr $C$DW$137, DW_AT_type(*$C$DW$T$27)
    2698                            .dwattr $C$DW$137, DW_AT_location[DW_OP_reg0]
    2699                    
    2700                    $C$DW$138       .dwtag  DW_TAG_formal_parameter
    2701                            .dwattr $C$DW$138, DW_AT_name("ui32Timer")
    2702                            .dwattr $C$DW$138, DW_AT_TI_symbol_name("ui32Timer")
    2703                            .dwattr $C$DW$138, DW_AT_type(*$C$DW$T$27)
    2704                            .dwattr $C$DW$138, DW_AT_location[DW_OP_reg1]
    2705                    
    2706                    ;----------------------------------------------------------------------
    2707                    ; 1021 | TimerLoadGet(uint32_t ui32Base, uint32_t ui32Timer)                    
    2708                    ;----------------------------------------------------------------------
    2709                    
    2710                    ;*****************************************************************************
    2711                    ;* FUNCTION NAME: TimerLoadGet                                               *
    2712                    ;*                                                                           *
    2713                    ;*   Regs Modified     : A1,SP,SR                                            *
    2714                    ;*   Regs Used         : A1,A2,SP,LR,SR                                      *
    2715                    ;*   Local Frame Size  : 0 Args + 8 Auto + 0 Save = 8 byte                   *
    2716                    ;*****************************************************************************
    2717 000003ae           TimerLoadGet:
    2718                    ;* --------------------------------------------------------------------------*
    2719                            .dwcfi  cfa_offset, 0
    2720 000003ae 0D08F1AD          SUB       SP, SP, #8            ; [DPU_V7M3_PIPE]  ; [KEEP 32-BIT INS]
    2721                            .dwcfi  cfa_offset, 8
    2722                    $C$DW$139       .dwtag  DW_TAG_variable
    2723                            .dwattr $C$DW$139, DW_AT_name("ui32Base")
    2724                            .dwattr $C$DW$139, DW_AT_TI_symbol_name("ui32Base")
    2725                            .dwattr $C$DW$139, DW_AT_type(*$C$DW$T$27)
    2726                            .dwattr $C$DW$139, DW_AT_location[DW_OP_breg13 0]
    2727                    
    2728                    $C$DW$140       .dwtag  DW_TAG_variable
    2729                            .dwattr $C$DW$140, DW_AT_name("ui32Timer")
    2730                            .dwattr $C$DW$140, DW_AT_TI_symbol_name("ui32Timer")
    2731                            .dwattr $C$DW$140, DW_AT_type(*$C$DW$T$27)
    2732                            .dwattr $C$DW$140, DW_AT_location[DW_OP_breg13 4]
    2733                    
    2734                    ;----------------------------------------------------------------------
    2735                    ; 1023 | //                                                                     
    2736                    ; 1024 | // Check the arguments.                                                
    2737                    ; 1025 | //                                                                     
    2738                    ; 1026 | ASSERT(_TimerBaseValid(ui32Base));                                     
    2739                    ; 1027 | ASSERT((ui32Timer == TIMER_A) || (ui32Timer == TIMER_B));              
    2740                    ; 1029 | //                                                                     
    2741                    ; 1030 | // Return the appropriate load value.                                  
    2742                    ; 1031 | //                                                                     
    2743                    ;----------------------------------------------------------------------
    2744 000003b2 9101              STR       A2, [SP, #4]          ; [DPU_V7M3_PIPE] |1022|  ; [ORIG 16-BIT INS]
    2745 000003b4 9000              STR       A1, [SP, #0]          ; [DPU_V7M3_PIPE] |1022|  ; [ORIG 16-BIT INS]
TI ARM Assembler Unix v18.1.1 Fri Jul  3 20:08:26 2020

Tools Copyright (c) 1996-2017 Texas Instruments Incorporated
timer.asm                                                            PAGE   51

    2746                            .dwpsn  file "../driverlib/timer.c",line 1032,column 5,is_stmt,isa 1
    2747                    ;----------------------------------------------------------------------
    2748                    ; 1032 | return((ui32Timer == TIMER_A) ? HWREG(ui32Base + TIMER_O_TAILR) :      
    2749                    ; 1033 |        HWREG(ui32Base + TIMER_O_TBILR));                               
    2750                    ;----------------------------------------------------------------------
    2751 000003b6 9801              LDR       A1, [SP, #4]          ; [DPU_V7M3_PIPE] |1032|  ; [ORIG 16-BIT INS]
    2752 000003b8 28FF              CMP       A1, #255              ; [DPU_V7M3_PIPE] |1032|  ; [ORIG 16-BIT INS]
    2753 000003ba D102              BNE       ||$C$L32||            ; [DPU_V7M3_PIPE] |1032|  ; [ORIG 16-BIT INS]
    2754                            ; BRANCHCC OCCURS {||$C$L32||}   ; [] |1032| 
    2755                    ;* --------------------------------------------------------------------------*
    2756 000003bc 9800              LDR       A1, [SP, #0]          ; [DPU_V7M3_PIPE] |1032|  ; [ORIG 16-BIT INS]
    2757 000003be 6A80              LDR       A1, [A1, #40]         ; [DPU_V7M3_PIPE] |1032|  ; [ORIG 16-BIT INS]
