TI ARM Assembler Unix v18.1.1 Fri Jul  3 20:08:26 2020

Tools Copyright (c) 1996-2017 Texas Instruments Incorporated
timer.asm                                                            PAGE    1

       1                    ;******************************************************************************
       2                    ;* TI ARM C/C++ Codegen                                      Unix v18.1.1.LTS *
       3                    ;* Date/Time created: Fri Jul  3 20:08:25 2020                                *
       4                    ;******************************************************************************
       5                            .compiler_opts --abi=eabi --arm_vmrs_si_workaround=off --code_state=16 --diag_wrap=off --embed
       6 00000000                   .thumb
       7                    
       8                    $C$DW$CU        .dwtag  DW_TAG_compile_unit
       9                            .dwattr $C$DW$CU, DW_AT_name("../driverlib/timer.c")
      10                            .dwattr $C$DW$CU, DW_AT_producer("TI TI ARM C/C++ Codegen Unix v18.1.1.LTS Copyright (c) 1996-
      11                            .dwattr $C$DW$CU, DW_AT_TI_version(0x01)
      12                            .dwattr $C$DW$CU, DW_AT_comp_dir("/home/pola/workspace_v8/Microwave/Debug")
      13 00000000                   .sect   ".const:g_ppui32TimerIntMap"
      14                            .clink
      15                            .align  4
      16                            .elfsym g_ppui32TimerIntMap,SYM_SIZE(96)
      17 00000000           g_ppui32TimerIntMap:
      18 00000000 40030000          .bits   1073938432,32                   ; g_ppui32TimerIntMap[0][0] @ 0
      19 00000004 00000023          .bits   35,32                   ; g_ppui32TimerIntMap[0][1] @ 32
      20 00000008 40031000          .bits   1073942528,32                   ; g_ppui32TimerIntMap[1][0] @ 64
      21 0000000c 00000025          .bits   37,32                   ; g_ppui32TimerIntMap[1][1] @ 96
      22 00000010 40032000          .bits   1073946624,32                   ; g_ppui32TimerIntMap[2][0] @ 128
      23 00000014 00000027          .bits   39,32                   ; g_ppui32TimerIntMap[2][1] @ 160
      24 00000018 40033000          .bits   1073950720,32                   ; g_ppui32TimerIntMap[3][0] @ 192
      25 0000001c 00000033          .bits   51,32                   ; g_ppui32TimerIntMap[3][1] @ 224
      26 00000020 40034000          .bits   1073954816,32                   ; g_ppui32TimerIntMap[4][0] @ 256
      27 00000024 00000056          .bits   86,32                   ; g_ppui32TimerIntMap[4][1] @ 288
      28 00000028 40035000          .bits   1073958912,32                   ; g_ppui32TimerIntMap[5][0] @ 320
      29 0000002c 0000006C          .bits   108,32                  ; g_ppui32TimerIntMap[5][1] @ 352
      30 00000030 40036000          .bits   1073963008,32                   ; g_ppui32TimerIntMap[6][0] @ 384
      31 00000034 0000006E          .bits   110,32                  ; g_ppui32TimerIntMap[6][1] @ 416
      32 00000038 40037000          .bits   1073967104,32                   ; g_ppui32TimerIntMap[7][0] @ 448
      33 0000003c 00000070          .bits   112,32                  ; g_ppui32TimerIntMap[7][1] @ 480
      34 00000040 4004C000          .bits   1074053120,32                   ; g_ppui32TimerIntMap[8][0] @ 512
      35 00000044 00000072          .bits   114,32                  ; g_ppui32TimerIntMap[8][1] @ 544
      36 00000048 4004D000          .bits   1074057216,32                   ; g_ppui32TimerIntMap[9][0] @ 576
      37 0000004c 00000074          .bits   116,32                  ; g_ppui32TimerIntMap[9][1] @ 608
      38 00000050 4004E000          .bits   1074061312,32                   ; g_ppui32TimerIntMap[10][0] @ 640
      39 00000054 00000076          .bits   118,32                  ; g_ppui32TimerIntMap[10][1] @ 672
      40 00000058 4004F000          .bits   1074065408,32                   ; g_ppui32TimerIntMap[11][0] @ 704
      41 0000005c 00000078          .bits   120,32                  ; g_ppui32TimerIntMap[11][1] @ 736
      42                    
      43                    $C$DW$1 .dwtag  DW_TAG_variable
      44                            .dwattr $C$DW$1, DW_AT_name("g_ppui32TimerIntMap")
      45                            .dwattr $C$DW$1, DW_AT_TI_symbol_name("g_ppui32TimerIntMap")
      46                            .dwattr $C$DW$1, DW_AT_type(*$C$DW$T$122)
      47                            .dwattr $C$DW$1, DW_AT_location[DW_OP_addr g_ppui32TimerIntMap]
      48                            .dwattr $C$DW$1, DW_AT_decl_file("../driverlib/timer.c")
      49                            .dwattr $C$DW$1, DW_AT_decl_line(0x47)
      50                            .dwattr $C$DW$1, DW_AT_decl_column(0x17)
      51                    
      52 00000000                   .sect   ".const:g_ppui32TimerIntMapSnowflake"
      53                            .clink
      54                            .align  4
      55                            .elfsym g_ppui32TimerIntMapSnowflake,SYM_SIZE(64)
TI ARM Assembler Unix v18.1.1 Fri Jul  3 20:08:26 2020

Tools Copyright (c) 1996-2017 Texas Instruments Incorporated
timer.asm                                                            PAGE    2

      56 00000000           g_ppui32TimerIntMapSnowflake:
      57 00000000 40030000          .bits   1073938432,32                   ; g_ppui32TimerIntMapSnowflake[0][0] @ 0
      58 00000004 00000023          .bits   35,32                   ; g_ppui32TimerIntMapSnowflake[0][1] @ 32
      59 00000008 40031000          .bits   1073942528,32                   ; g_ppui32TimerIntMapSnowflake[1][0] @ 64
      60 0000000c 00000025          .bits   37,32                   ; g_ppui32TimerIntMapSnowflake[1][1] @ 96
      61 00000010 40032000          .bits   1073946624,32                   ; g_ppui32TimerIntMapSnowflake[2][0] @ 128
      62 00000014 00000027          .bits   39,32                   ; g_ppui32TimerIntMapSnowflake[2][1] @ 160
      63 00000018 40033000          .bits   1073950720,32                   ; g_ppui32TimerIntMapSnowflake[3][0] @ 192
      64 0000001c 00000033          .bits   51,32                   ; g_ppui32TimerIntMapSnowflake[3][1] @ 224
      65 00000020 40034000          .bits   1073954816,32                   ; g_ppui32TimerIntMapSnowflake[4][0] @ 256
      66 00000024 0000004F          .bits   79,32                   ; g_ppui32TimerIntMapSnowflake[4][1] @ 288
      67 00000028 40035000          .bits   1073958912,32                   ; g_ppui32TimerIntMapSnowflake[5][0] @ 320
      68 0000002c 00000051          .bits   81,32                   ; g_ppui32TimerIntMapSnowflake[5][1] @ 352
      69 00000030 400E0000          .bits   1074659328,32                   ; g_ppui32TimerIntMapSnowflake[6][0] @ 384
      70 00000034 00000072          .bits   114,32                  ; g_ppui32TimerIntMapSnowflake[6][1] @ 416
      71 00000038 400E1000          .bits   1074663424,32                   ; g_ppui32TimerIntMapSnowflake[7][0] @ 448
      72 0000003c 00000074          .bits   116,32                  ; g_ppui32TimerIntMapSnowflake[7][1] @ 480
      73                    
      74                    $C$DW$2 .dwtag  DW_TAG_variable
      75                            .dwattr $C$DW$2, DW_AT_name("g_ppui32TimerIntMapSnowflake")
      76                            .dwattr $C$DW$2, DW_AT_TI_symbol_name("g_ppui32TimerIntMapSnowflake")
      77                            .dwattr $C$DW$2, DW_AT_type(*$C$DW$T$123)
      78                            .dwattr $C$DW$2, DW_AT_location[DW_OP_addr g_ppui32TimerIntMapSnowflake]
      79                            .dwattr $C$DW$2, DW_AT_decl_file("../driverlib/timer.c")
      80                            .dwattr $C$DW$2, DW_AT_decl_line(0x59)
      81                            .dwattr $C$DW$2, DW_AT_decl_column(0x17)
      82                    
      83                    
      84                    $C$DW$3 .dwtag  DW_TAG_subprogram
      85                            .dwattr $C$DW$3, DW_AT_name("IntRegister")
      86                            .dwattr $C$DW$3, DW_AT_TI_symbol_name("IntRegister")
      87                            .dwattr $C$DW$3, DW_AT_declaration
      88                            .dwattr $C$DW$3, DW_AT_external
      89                            .dwattr $C$DW$3, DW_AT_decl_file("/home/pola/workspace_v8/Microwave/driverlib/interrupt.h")
      90                            .dwattr $C$DW$3, DW_AT_decl_line(0x45)
      91                            .dwattr $C$DW$3, DW_AT_decl_column(0x0d)
      92                    $C$DW$4 .dwtag  DW_TAG_formal_parameter
      93                            .dwattr $C$DW$4, DW_AT_type(*$C$DW$T$27)
      94                    
      95                    $C$DW$5 .dwtag  DW_TAG_formal_parameter
      96                            .dwattr $C$DW$5, DW_AT_type(*$C$DW$T$25)
      97                    
      98                            .dwendtag $C$DW$3
      99                    
     100                    
     101                    $C$DW$6 .dwtag  DW_TAG_subprogram
     102                            .dwattr $C$DW$6, DW_AT_name("IntEnable")
     103                            .dwattr $C$DW$6, DW_AT_TI_symbol_name("IntEnable")
     104                            .dwattr $C$DW$6, DW_AT_declaration
     105                            .dwattr $C$DW$6, DW_AT_external
     106                            .dwattr $C$DW$6, DW_AT_decl_file("/home/pola/workspace_v8/Microwave/driverlib/interrupt.h")
     107                            .dwattr $C$DW$6, DW_AT_decl_line(0x4c)
     108                            .dwattr $C$DW$6, DW_AT_decl_column(0x0d)
     109                    $C$DW$7 .dwtag  DW_TAG_formal_parameter
     110                            .dwattr $C$DW$7, DW_AT_type(*$C$DW$T$27)
TI ARM Assembler Unix v18.1.1 Fri Jul  3 20:08:26 2020

Tools Copyright (c) 1996-2017 Texas Instruments Incorporated
timer.asm                                                            PAGE    3

     111                    
     112                            .dwendtag $C$DW$6
     113                    
     114                    
     115                    $C$DW$8 .dwtag  DW_TAG_subprogram
     116                            .dwattr $C$DW$8, DW_AT_name("IntDisable")
     117                            .dwattr $C$DW$8, DW_AT_TI_symbol_name("IntDisable")
     118                            .dwattr $C$DW$8, DW_AT_declaration
     119                            .dwattr $C$DW$8, DW_AT_external
     120                            .dwattr $C$DW$8, DW_AT_decl_file("/home/pola/workspace_v8/Microwave/driverlib/interrupt.h")
     121                            .dwattr $C$DW$8, DW_AT_decl_line(0x4d)
     122                            .dwattr $C$DW$8, DW_AT_decl_column(0x0d)
     123                    $C$DW$9 .dwtag  DW_TAG_formal_parameter
     124                            .dwattr $C$DW$9, DW_AT_type(*$C$DW$T$27)
     125                    
     126                            .dwendtag $C$DW$8
     127                    
     128                    
     129                    $C$DW$10        .dwtag  DW_TAG_subprogram
     130                            .dwattr $C$DW$10, DW_AT_name("IntUnregister")
     131                            .dwattr $C$DW$10, DW_AT_TI_symbol_name("IntUnregister")
     132                            .dwattr $C$DW$10, DW_AT_declaration
     133                            .dwattr $C$DW$10, DW_AT_external
     134                            .dwattr $C$DW$10, DW_AT_decl_file("/home/pola/workspace_v8/Microwave/driverlib/interrupt.h")
     135                            .dwattr $C$DW$10, DW_AT_decl_line(0x46)
     136                            .dwattr $C$DW$10, DW_AT_decl_column(0x0d)
     137                    $C$DW$11        .dwtag  DW_TAG_formal_parameter
     138                            .dwattr $C$DW$11, DW_AT_type(*$C$DW$T$27)
     139                    
     140                            .dwendtag $C$DW$10
     141                    
     142                    ;       /home/pola/ti/ccsv8/tools/compiler/ti-cgt-arm_18.1.1.LTS/bin/armacpia -@/tmp/TI3Sv4mMyQW 
     143 00000000                   .sect   ".text"
     144                            .clink
     145                            .thumbfunc _TimerIntNumberGet
     146 00000000                   .thumb
     147                    
     148                    $C$DW$12        .dwtag  DW_TAG_subprogram
     149                            .dwattr $C$DW$12, DW_AT_name("_TimerIntNumberGet")
     150                            .dwattr $C$DW$12, DW_AT_low_pc(_TimerIntNumberGet)
     151                            .dwattr $C$DW$12, DW_AT_high_pc(0x00)
     152                            .dwattr $C$DW$12, DW_AT_TI_symbol_name("_TimerIntNumberGet")
     153                            .dwattr $C$DW$12, DW_AT_type(*$C$DW$T$27)
     154                            .dwattr $C$DW$12, DW_AT_TI_begin_file("../driverlib/timer.c")
     155                            .dwattr $C$DW$12, DW_AT_TI_begin_line(0x93)
     156                            .dwattr $C$DW$12, DW_AT_TI_begin_column(0x01)
     157                            .dwattr $C$DW$12, DW_AT_decl_file("../driverlib/timer.c")
     158                            .dwattr $C$DW$12, DW_AT_decl_line(0x93)
     159                            .dwattr $C$DW$12, DW_AT_decl_column(0x01)
     160                            .dwattr $C$DW$12, DW_AT_TI_max_frame_size(0x18)
     161                            .dwpsn  file "../driverlib/timer.c",line 148,column 1,is_stmt,address _TimerIntNumberGet,isa 1
     162                    
     163                            .dwfde $C$DW$CIE, _TimerIntNumberGet
     164                    $C$DW$13        .dwtag  DW_TAG_formal_parameter
     165                            .dwattr $C$DW$13, DW_AT_name("ui32Base")
TI ARM Assembler Unix v18.1.1 Fri Jul  3 20:08:26 2020

Tools Copyright (c) 1996-2017 Texas Instruments Incorporated
timer.asm                                                            PAGE    4

     166                            .dwattr $C$DW$13, DW_AT_TI_symbol_name("ui32Base")
     167                            .dwattr $C$DW$13, DW_AT_type(*$C$DW$T$27)
     168                            .dwattr $C$DW$13, DW_AT_location[DW_OP_reg0]
     169                    
     170                    $C$DW$14        .dwtag  DW_TAG_formal_parameter
     171                            .dwattr $C$DW$14, DW_AT_name("ui32Timer")
     172                            .dwattr $C$DW$14, DW_AT_TI_symbol_name("ui32Timer")
     173                            .dwattr $C$DW$14, DW_AT_type(*$C$DW$T$27)
     174                            .dwattr $C$DW$14, DW_AT_location[DW_OP_reg1]
     175                    
     176                    ;----------------------------------------------------------------------
     177                    ; 147 | _TimerIntNumberGet(uint32_t ui32Base, uint32_t ui32Timer)              
     178                    ;----------------------------------------------------------------------
     179                    
     180                    ;*****************************************************************************
     181                    ;* FUNCTION NAME: _TimerIntNumberGet                                         *
     182                    ;*                                                                           *
     183                    ;*   Regs Modified     : A1,A2,A3,SP,SR                                      *
     184                    ;*   Regs Used         : A1,A2,A3,SP,LR,SR                                   *
     185                    ;*   Local Frame Size  : 0 Args + 24 Auto + 0 Save = 24 byte                 *
     186                    ;*****************************************************************************
     187 00000000           _TimerIntNumberGet:
     188                    ;* --------------------------------------------------------------------------*
     189                            .dwcfi  cfa_offset, 0
     190 00000000 0D18F1AD          SUB       SP, SP, #24           ; [DPU_V7M3_PIPE]  ; [KEEP 32-BIT INS]
     191                            .dwcfi  cfa_offset, 24
     192                    $C$DW$15        .dwtag  DW_TAG_variable
     193                            .dwattr $C$DW$15, DW_AT_name("ui32Base")
     194                            .dwattr $C$DW$15, DW_AT_TI_symbol_name("ui32Base")
     195                            .dwattr $C$DW$15, DW_AT_type(*$C$DW$T$27)
     196                            .dwattr $C$DW$15, DW_AT_location[DW_OP_breg13 0]
     197                    
     198                    $C$DW$16        .dwtag  DW_TAG_variable
     199                            .dwattr $C$DW$16, DW_AT_name("ui32Timer")
     200                            .dwattr $C$DW$16, DW_AT_TI_symbol_name("ui32Timer")
     201                            .dwattr $C$DW$16, DW_AT_type(*$C$DW$T$27)
     202                            .dwattr $C$DW$16, DW_AT_location[DW_OP_breg13 4]
     203                    
     204                    $C$DW$17        .dwtag  DW_TAG_variable
     205                            .dwattr $C$DW$17, DW_AT_name("ui32Int")
     206                            .dwattr $C$DW$17, DW_AT_TI_symbol_name("ui32Int")
     207                            .dwattr $C$DW$17, DW_AT_type(*$C$DW$T$27)
     208                            .dwattr $C$DW$17, DW_AT_location[DW_OP_breg13 8]
     209                    
     210                    $C$DW$18        .dwtag  DW_TAG_variable
     211                            .dwattr $C$DW$18, DW_AT_name("ui8Idx")
     212                            .dwattr $C$DW$18, DW_AT_TI_symbol_name("ui8Idx")
     213                            .dwattr $C$DW$18, DW_AT_type(*$C$DW$T$106)
     214                            .dwattr $C$DW$18, DW_AT_location[DW_OP_breg13 12]
     215                    
     216                    $C$DW$19        .dwtag  DW_TAG_variable
     217                            .dwattr $C$DW$19, DW_AT_name("ui8Rows")
     218                            .dwattr $C$DW$19, DW_AT_TI_symbol_name("ui8Rows")
     219                            .dwattr $C$DW$19, DW_AT_type(*$C$DW$T$106)
     220                            .dwattr $C$DW$19, DW_AT_location[DW_OP_breg13 16]
TI ARM Assembler Unix v18.1.1 Fri Jul  3 20:08:26 2020

Tools Copyright (c) 1996-2017 Texas Instruments Incorporated
timer.asm                                                            PAGE    5

     221                    
     222                    $C$DW$20        .dwtag  DW_TAG_variable
     223                            .dwattr $C$DW$20, DW_AT_name("ppui32SSIIntMap")
     224                            .dwattr $C$DW$20, DW_AT_TI_symbol_name("ppui32SSIIntMap")
     225                            .dwattr $C$DW$20, DW_AT_type(*$C$DW$T$124)
     226                            .dwattr $C$DW$20, DW_AT_location[DW_OP_breg13 20]
     227                    
     228                    ;----------------------------------------------------------------------
     229                    ; 149 | uint32_t ui32Int;                                                      
     230                    ; 150 | uint_fast8_t ui8Idx, ui8Rows;                                          
     231                    ; 151 | const uint32_t (*ppui32SSIIntMap)[2];                                  
     232                    ; 153 | //                                                                     
     233                    ; 154 | // Default interrupt map.                                              
     234                    ; 155 | //                                                                     
     235                    ;----------------------------------------------------------------------
     236 00000004 9101              STR       A2, [SP, #4]          ; [DPU_V7M3_PIPE] |148|  ; [ORIG 16-BIT INS]
     237 00000006 9000              STR       A1, [SP, #0]          ; [DPU_V7M3_PIPE] |148|  ; [ORIG 16-BIT INS]
     238                            .dwpsn  file "../driverlib/timer.c",line 156,column 5,is_stmt,isa 1
     239                    ;----------------------------------------------------------------------
     240                    ; 156 | ppui32SSIIntMap = g_ppui32TimerIntMap;                                 
     241                    ;----------------------------------------------------------------------
     242 00000008 48B1              LDR       A1, $C$CON1           ; [DPU_V7M3_PIPE] |156|  ; [ORIG 16-BIT INS]
     243 0000000a 9005              STR       A1, [SP, #20]         ; [DPU_V7M3_PIPE] |156|  ; [ORIG 16-BIT INS]
     244                            .dwpsn  file "../driverlib/timer.c",line 157,column 5,is_stmt,isa 1
     245                    ;----------------------------------------------------------------------
     246                    ; 157 | ui8Rows = g_ui8TimerIntMapRows;                                        
     247                    ;----------------------------------------------------------------------
     248 0000000c 200C              MOVS      A1, #12               ; [DPU_V7M3_PIPE] |157|  ; [ORIG 16-BIT INS]
     249 0000000e 9004              STR       A1, [SP, #16]         ; [DPU_V7M3_PIPE] |157|  ; [ORIG 16-BIT INS]
     250                            .dwpsn  file "../driverlib/timer.c",line 159,column 5,is_stmt,isa 1
     251                    ;----------------------------------------------------------------------
     252                    ; 159 | if(CLASS_IS_TM4C129)                                                   
     253                    ;----------------------------------------------------------------------
     254 00000010 49B1              LDR       A2, $C$CON3           ; [DPU_V7M3_PIPE] |159|  ; [ORIG 16-BIT INS]
     255 00000012 48B0              LDR       A1, $C$CON2           ; [DPU_V7M3_PIPE] |159|  ; [ORIG 16-BIT INS]
     256 00000014 680A              LDR       A3, [A2, #0]          ; [DPU_V7M3_PIPE] |159|  ; [ORIG 16-BIT INS]
     257 00000016 49B1              LDR       A2, $C$CON4           ; [DPU_V7M3_PIPE] |159|  ; [ORIG 16-BIT INS]
     258 00000018 4010              ANDS      A1, A1, A3            ; [DPU_V7M3_PIPE] |159|  ; [ORIG 16-BIT INS]
     259 0000001a 4281              CMP       A2, A1                ; [DPU_V7M3_PIPE] |159|  ; [ORIG 16-BIT INS]
     260 0000001c D103              BNE       ||$C$L1||             ; [DPU_V7M3_PIPE] |159|  ; [ORIG 16-BIT INS]
     261                            ; BRANCHCC OCCURS {||$C$L1||}    ; [] |159| 
     262                    ;* --------------------------------------------------------------------------*
     263                            .dwpsn  file "../driverlib/timer.c",line 161,column 9,is_stmt,isa 1
     264                    ;----------------------------------------------------------------------
     265                    ; 161 | ppui32SSIIntMap = g_ppui32TimerIntMapSnowflake;                        
     266                    ;----------------------------------------------------------------------
     267 0000001e 48B0              LDR       A1, $C$CON5           ; [DPU_V7M3_PIPE] |161|  ; [ORIG 16-BIT INS]
     268 00000020 9005              STR       A1, [SP, #20]         ; [DPU_V7M3_PIPE] |161|  ; [ORIG 16-BIT INS]
     269                            .dwpsn  file "../driverlib/timer.c",line 162,column 9,is_stmt,isa 1
     270                    ;----------------------------------------------------------------------
     271                    ; 162 | ui8Rows = g_ui8TimerIntMapRowsSnowflake;                               
     272                    ; 165 | //                                                                     
     273                    ; 166 | // Loop through the table that maps timer base addresses to interrupt  
     274                    ; 167 | // numbers.                                                            
     275                    ; 168 | //                                                                     
TI ARM Assembler Unix v18.1.1 Fri Jul  3 20:08:26 2020

Tools Copyright (c) 1996-2017 Texas Instruments Incorporated
timer.asm                                                            PAGE    6

     276                    ;----------------------------------------------------------------------
     277 00000022 2008              MOVS      A1, #8                ; [DPU_V7M3_PIPE] |162|  ; [ORIG 16-BIT INS]
     278 00000024 9004              STR       A1, [SP, #16]         ; [DPU_V7M3_PIPE] |162|  ; [ORIG 16-BIT INS]
     279                    ;* --------------------------------------------------------------------------*
     280 00000026           ||$C$L1||:    
     281                            .dwpsn  file "../driverlib/timer.c",line 169,column 9,is_stmt,isa 1
     282                    ;----------------------------------------------------------------------
     283                    ; 169 | for(ui8Idx = 0; ui8Idx < ui8Rows; ui8Idx++)                            
     284                    ;----------------------------------------------------------------------
     285 00000026 2000              MOVS      A1, #0                ; [DPU_V7M3_PIPE] |169|  ; [ORIG 16-BIT INS]
     286 00000028 9003              STR       A1, [SP, #12]         ; [DPU_V7M3_PIPE] |169|  ; [ORIG 16-BIT INS]
     287                            .dwpsn  file "../driverlib/timer.c",line 169,column 21,is_stmt,isa 1
     288                    ;----------------------------------------------------------------------
     289                    ; 171 | //                                                                     
     290                    ; 172 | // See if this base address matches.                                   
     291                    ; 173 | //                                                                     
     292                    ;----------------------------------------------------------------------
     293 0000002a 9804              LDR       A1, [SP, #16]         ; [DPU_V7M3_PIPE] |169|  ; [ORIG 16-BIT INS]
     294 0000002c 9903              LDR       A2, [SP, #12]         ; [DPU_V7M3_PIPE] |169|  ; [ORIG 16-BIT INS]
     295 0000002e 4288              CMP       A1, A2                ; [DPU_V7M3_PIPE] |169|  ; [ORIG 16-BIT INS]
     296 00000030 D91C              BLS       ||$C$L5||             ; [DPU_V7M3_PIPE] |169|  ; [ORIG 16-BIT INS]
     297                            ; BRANCHCC OCCURS {||$C$L5||}    ; [] |169| 
     298                    ;* --------------------------------------------------------------------------*
     299                    ;*   BEGIN LOOP ||$C$L2||
     300                    ;*
     301                    ;*   Loop source line                : 169
     302                    ;*   Loop closing brace source line  : 188
     303                    ;*   Known Minimum Trip Count        : 1
     304                    ;*   Known Maximum Trip Count        : 4294967295
     305                    ;*   Known Max Trip Count Factor     : 1
     306                    ;* --------------------------------------------------------------------------*
     307 00000032           ||$C$L2||:    
     308                            .dwpsn  file "../driverlib/timer.c",line 174,column 9,is_stmt,isa 1
     309                    ;----------------------------------------------------------------------
     310                    ; 174 | if(ppui32SSIIntMap[ui8Idx][0] == ui32Base)                             
     311                    ;----------------------------------------------------------------------
     312 00000032 9903              LDR       A2, [SP, #12]         ; [DPU_V7M3_PIPE] |174|  ; [ORIG 16-BIT INS]
     313 00000034 9A05              LDR       A3, [SP, #20]         ; [DPU_V7M3_PIPE] |174|  ; [ORIG 16-BIT INS]
     314 00000036 9800              LDR       A1, [SP, #0]          ; [DPU_V7M3_PIPE] |174|  ; [ORIG 16-BIT INS]
     315 00000038 1031F852          LDR       A2, [A3, +A2, LSL #3] ; [DPU_V7M3_PIPE] |174|  ; [KEEP 32-BIT INS]
     316 0000003c 4288              CMP       A1, A2                ; [DPU_V7M3_PIPE] |174|  ; [ORIG 16-BIT INS]
     317 0000003e D10E              BNE       ||$C$L4||             ; [DPU_V7M3_PIPE] |174|  ; [ORIG 16-BIT INS]
     318                            ; BRANCHCC OCCURS {||$C$L4||}    ; [] |174| 
     319                    ;* --------------------------------------------------------------------------*
     320                            .dwpsn  file "../driverlib/timer.c",line 176,column 13,is_stmt,isa 1
     321                    ;----------------------------------------------------------------------
     322                    ; 176 | ui32Int = ppui32SSIIntMap[ui8Idx][1];                                  
     323                    ;----------------------------------------------------------------------
     324 00000040 9903              LDR       A2, [SP, #12]         ; [DPU_V7M3_PIPE] |176|  ; [ORIG 16-BIT INS]
     325 00000042 9805              LDR       A1, [SP, #20]         ; [DPU_V7M3_PIPE] |176|  ; [ORIG 16-BIT INS]
     326 00000044 00C1EB00          ADD       A1, A1, A2, LSL #3    ; [DPU_V7M3_PIPE] |176|  ; [KEEP 32-BIT INS]
     327 00000048 6840              LDR       A1, [A1, #4]          ; [DPU_V7M3_PIPE] |176|  ; [ORIG 16-BIT INS]
     328 0000004a 9002              STR       A1, [SP, #8]          ; [DPU_V7M3_PIPE] |176|  ; [ORIG 16-BIT INS]
     329                            .dwpsn  file "../driverlib/timer.c",line 178,column 13,is_stmt,isa 1
     330                    ;----------------------------------------------------------------------
TI ARM Assembler Unix v18.1.1 Fri Jul  3 20:08:26 2020

Tools Copyright (c) 1996-2017 Texas Instruments Incorporated
timer.asm                                                            PAGE    7

     331                    ; 178 | if(ui32Timer == TIMER_B)                                               
     332                    ;----------------------------------------------------------------------
     333 0000004c 9801              LDR       A1, [SP, #4]          ; [DPU_V7M3_PIPE] |178|  ; [ORIG 16-BIT INS]
     334 0000004e 4F7FF5B0          CMP       A1, #65280            ; [DPU_V7M3_PIPE] |178|  ; [KEEP 32-BIT INS]
     335 00000052 D102              BNE       ||$C$L3||             ; [DPU_V7M3_PIPE] |178|  ; [ORIG 16-BIT INS]
     336                            ; BRANCHCC OCCURS {||$C$L3||}    ; [] |178| 
     337                    ;* --------------------------------------------------------------------------*
     338                            .dwpsn  file "../driverlib/timer.c",line 180,column 17,is_stmt,isa 1
     339                    ;----------------------------------------------------------------------
     340                    ; 180 | ui32Int += 1;                                                          
     341                    ; 183 | //                                                                     
     342                    ; 184 | // Return the corresponding interrupt number.                          
     343                    ; 185 | //                                                                     
     344                    ;----------------------------------------------------------------------
     345 00000054 9802              LDR       A1, [SP, #8]          ; [DPU_V7M3_PIPE] |180|  ; [ORIG 16-BIT INS]
     346 00000056 1C40              ADDS      A1, A1, #1            ; [DPU_V7M3_PIPE] |180|  ; [ORIG 16-BIT INS]
     347 00000058 9002              STR       A1, [SP, #8]          ; [DPU_V7M3_PIPE] |180|  ; [ORIG 16-BIT INS]
     348                    ;* --------------------------------------------------------------------------*
     349 0000005a           ||$C$L3||:    
     350                            .dwpsn  file "../driverlib/timer.c",line 186,column 13,is_stmt,isa 1
     351                    ;----------------------------------------------------------------------
     352                    ; 186 | return(ui32Int);                                                       
     353                    ; 190 | //                                                                     
     354                    ; 191 | // The base address could not be found, so return an error.            
     355                    ; 192 | //                                                                     
     356                    ;----------------------------------------------------------------------
     357 0000005a 9802              LDR       A1, [SP, #8]          ; [DPU_V7M3_PIPE] |186|  ; [ORIG 16-BIT INS]
     358 0000005c E007              B         ||$C$L6||             ; [DPU_V7M3_PIPE] |186|  ; [ORIG 16-BIT INS]
     359                            ; BRANCH OCCURS {||$C$L6||}      ; [] |186| 
     360                    ;* --------------------------------------------------------------------------*
     361 0000005e           ||$C$L4||:    
     362                            .dwpsn  file "../driverlib/timer.c",line 169,column 39,is_stmt,isa 1
     363 0000005e 9803              LDR       A1, [SP, #12]         ; [DPU_V7M3_PIPE] |169|  ; [ORIG 16-BIT INS]
     364 00000060 1C40              ADDS      A1, A1, #1            ; [DPU_V7M3_PIPE] |169|  ; [ORIG 16-BIT INS]
     365 00000062 9003              STR       A1, [SP, #12]         ; [DPU_V7M3_PIPE] |169|  ; [ORIG 16-BIT INS]
     366                            .dwpsn  file "../driverlib/timer.c",line 169,column 21,is_stmt,isa 1
     367 00000064 9804              LDR       A1, [SP, #16]         ; [DPU_V7M3_PIPE] |169|  ; [ORIG 16-BIT INS]
     368 00000066 9903              LDR       A2, [SP, #12]         ; [DPU_V7M3_PIPE] |169|  ; [ORIG 16-BIT INS]
     369 00000068 4288              CMP       A1, A2                ; [DPU_V7M3_PIPE] |169|  ; [ORIG 16-BIT INS]
     370 0000006a D8E2              BHI       ||$C$L2||             ; [DPU_V7M3_PIPE] |169|  ; [ORIG 16-BIT INS]
     371                            ; BRANCHCC OCCURS {||$C$L2||}    ; [] |169| 
     372                    ;* --------------------------------------------------------------------------*
     373 0000006c           ||$C$L5||:    
     374                            .dwpsn  file "../driverlib/timer.c",line 193,column 5,is_stmt,isa 1
     375                    ;----------------------------------------------------------------------
     376                    ; 193 | return(0);                                                             
     377                    ;----------------------------------------------------------------------
     378 0000006c 2000              MOVS      A1, #0                ; [DPU_V7M3_PIPE] |193|  ; [ORIG 16-BIT INS]
     379                    ;* --------------------------------------------------------------------------*
     380 0000006e           ||$C$L6||:    
     381                            .dwpsn  file "../driverlib/timer.c",line 194,column 1,is_stmt,isa 1
     382 0000006e B006              ADD       SP, SP, #24           ; [DPU_V7M3_PIPE]  ; [ORIG 16-BIT INS]
     383                            .dwcfi  cfa_offset, 0
     384                    $C$DW$21        .dwtag  DW_TAG_TI_branch
     385                            .dwattr $C$DW$21, DW_AT_low_pc(0x00)
TI ARM Assembler Unix v18.1.1 Fri Jul  3 20:08:26 2020

Tools Copyright (c) 1996-2017 Texas Instruments Incorporated
timer.asm                                                            PAGE    8

     386                            .dwattr $C$DW$21, DW_AT_TI_return
     387                    
     388 00000070 4770              BX        LR                    ; [DPU_V7M3_PIPE]  ; [ORIG 16-BIT INS]
     389                            ; BRANCH OCCURS                  ; [] 
     390                            .dwattr $C$DW$12, DW_AT_TI_end_file("../driverlib/timer.c")
     391                            .dwattr $C$DW$12, DW_AT_TI_end_line(0xc2)
     392                            .dwattr $C$DW$12, DW_AT_TI_end_column(0x01)
     393                            .dwendentry
     394                            .dwendtag $C$DW$12
     395                    
     396 00000072                   .sect   ".text"
     397                            .clink
     398                            .thumbfunc TimerEnable
     399 00000072                   .thumb
     400                            .global TimerEnable
     401                    
     402                    $C$DW$22        .dwtag  DW_TAG_subprogram
     403                            .dwattr $C$DW$22, DW_AT_name("TimerEnable")
     404                            .dwattr $C$DW$22, DW_AT_low_pc(TimerEnable)
     405                            .dwattr $C$DW$22, DW_AT_high_pc(0x00)
     406                            .dwattr $C$DW$22, DW_AT_TI_symbol_name("TimerEnable")
     407                            .dwattr $C$DW$22, DW_AT_external
     408                            .dwattr $C$DW$22, DW_AT_TI_begin_file("../driverlib/timer.c")
     409                            .dwattr $C$DW$22, DW_AT_TI_begin_line(0xd3)
     410                            .dwattr $C$DW$22, DW_AT_TI_begin_column(0x01)
     411                            .dwattr $C$DW$22, DW_AT_decl_file("../driverlib/timer.c")
     412                            .dwattr $C$DW$22, DW_AT_decl_line(0xd3)
     413                            .dwattr $C$DW$22, DW_AT_decl_column(0x01)
     414                            .dwattr $C$DW$22, DW_AT_TI_max_frame_size(0x08)
     415                            .dwpsn  file "../driverlib/timer.c",line 212,column 1,is_stmt,address TimerEnable,isa 1
     416                    
     417                            .dwfde $C$DW$CIE, TimerEnable
     418                    $C$DW$23        .dwtag  DW_TAG_formal_parameter
     419                            .dwattr $C$DW$23, DW_AT_name("ui32Base")
     420                            .dwattr $C$DW$23, DW_AT_TI_symbol_name("ui32Base")
     421                            .dwattr $C$DW$23, DW_AT_type(*$C$DW$T$27)
     422                            .dwattr $C$DW$23, DW_AT_location[DW_OP_reg0]
     423                    
     424                    $C$DW$24        .dwtag  DW_TAG_formal_parameter
     425                            .dwattr $C$DW$24, DW_AT_name("ui32Timer")
     426                            .dwattr $C$DW$24, DW_AT_TI_symbol_name("ui32Timer")
     427                            .dwattr $C$DW$24, DW_AT_type(*$C$DW$T$27)
     428                            .dwattr $C$DW$24, DW_AT_location[DW_OP_reg1]
     429                    
     430                    ;----------------------------------------------------------------------
     431                    ; 211 | TimerEnable(uint32_t ui32Base, uint32_t ui32Timer)                     
     432                    ;----------------------------------------------------------------------
     433                    
     434                    ;*****************************************************************************
     435                    ;* FUNCTION NAME: TimerEnable                                                *
     436                    ;*                                                                           *
     437                    ;*   Regs Modified     : A1,A2,A3,A4,SP,SR                                   *
     438                    ;*   Regs Used         : A1,A2,A3,A4,SP,LR,SR                                *
     439                    ;*   Local Frame Size  : 0 Args + 8 Auto + 0 Save = 8 byte                   *
     440                    ;*****************************************************************************
TI ARM Assembler Unix v18.1.1 Fri Jul  3 20:08:26 2020

Tools Copyright (c) 1996-2017 Texas Instruments Incorporated
timer.asm                                                            PAGE    9

     441 00000072           TimerEnable:
     442                    ;* --------------------------------------------------------------------------*
     443                            .dwcfi  cfa_offset, 0
     444 00000072 0D08F1AD          SUB       SP, SP, #8            ; [DPU_V7M3_PIPE]  ; [KEEP 32-BIT INS]
     445                            .dwcfi  cfa_offset, 8
     446                    $C$DW$25        .dwtag  DW_TAG_variable
     447                            .dwattr $C$DW$25, DW_AT_name("ui32Base")
     448                            .dwattr $C$DW$25, DW_AT_TI_symbol_name("ui32Base")
     449                            .dwattr $C$DW$25, DW_AT_type(*$C$DW$T$27)
     450                            .dwattr $C$DW$25, DW_AT_location[DW_OP_breg13 0]
     451                    
     452                    $C$DW$26        .dwtag  DW_TAG_variable
     453                            .dwattr $C$DW$26, DW_AT_name("ui32Timer")
     454                            .dwattr $C$DW$26, DW_AT_TI_symbol_name("ui32Timer")
     455                            .dwattr $C$DW$26, DW_AT_type(*$C$DW$T$27)
     456                            .dwattr $C$DW$26, DW_AT_location[DW_OP_breg13 4]
     457                    
     458                    ;----------------------------------------------------------------------
     459                    ; 213 | //                                                                     
     460                    ; 214 | // Check the arguments.                                                
     461                    ; 215 | //                                                                     
     462                    ; 216 | ASSERT(_TimerBaseValid(ui32Base));                                     
     463                    ; 217 | ASSERT((ui32Timer == TIMER_A) || (ui32Timer == TIMER_B) ||             
     464                    ; 218 |        (ui32Timer == TIMER_BOTH));                                     
     465                    ; 220 | //                                                                     
     466                    ; 221 | // Enable the timer(s) module.                                         
     467                    ; 222 | //                                                                     
     468                    ;----------------------------------------------------------------------
     469 00000076 9101              STR       A2, [SP, #4]          ; [DPU_V7M3_PIPE] |212|  ; [ORIG 16-BIT INS]
     470 00000078 9000              STR       A1, [SP, #0]          ; [DPU_V7M3_PIPE] |212|  ; [ORIG 16-BIT INS]
     471                            .dwpsn  file "../driverlib/timer.c",line 223,column 5,is_stmt,isa 1
     472                    ;----------------------------------------------------------------------
     473                    ; 223 | HWREG(ui32Base + TIMER_O_CTL) |= ui32Timer & (TIMER_CTL_TAEN |         
     474                    ; 224 |                                               TIMER_CTL_TBEN);         
     475                    ;----------------------------------------------------------------------
     476 0000007a 9800              LDR       A1, [SP, #0]          ; [DPU_V7M3_PIPE] |223|  ; [ORIG 16-BIT INS]
     477 0000007c 9B01              LDR       A4, [SP, #4]          ; [DPU_V7M3_PIPE] |223|  ; [ORIG 16-BIT INS]
     478 0000007e 300C              ADDS      A1, A1, #12           ; [DPU_V7M3_PIPE] |223|  ; [ORIG 16-BIT INS]
     479 00000080 6802              LDR       A3, [A1, #0]          ; [DPU_V7M3_PIPE] |223|  ; [ORIG 16-BIT INS]
     480 00000082 1101F240          MOV       A2, #257              ; [DPU_V7M3_PIPE] |223|  ; [KEEP 32-BIT INS]
     481 00000086 4019              ANDS      A2, A2, A4            ; [DPU_V7M3_PIPE] |223|  ; [ORIG 16-BIT INS]
     482 00000088 4311              ORRS      A2, A2, A3            ; [DPU_V7M3_PIPE] |223|  ; [ORIG 16-BIT INS]
     483 0000008a 6001              STR       A2, [A1, #0]          ; [DPU_V7M3_PIPE] |223|  ; [ORIG 16-BIT INS]
     484                            .dwpsn  file "../driverlib/timer.c",line 225,column 1,is_stmt,isa 1
     485 0000008c B002              ADD       SP, SP, #8            ; [DPU_V7M3_PIPE]  ; [ORIG 16-BIT INS]
     486                            .dwcfi  cfa_offset, 0
     487                    $C$DW$27        .dwtag  DW_TAG_TI_branch
     488                            .dwattr $C$DW$27, DW_AT_low_pc(0x00)
     489                            .dwattr $C$DW$27, DW_AT_TI_return
     490                    
     491 0000008e 4770              BX        LR                    ; [DPU_V7M3_PIPE]  ; [ORIG 16-BIT INS]
     492                            ; BRANCH OCCURS                  ; [] 
     493                            .dwattr $C$DW$22, DW_AT_TI_end_file("../driverlib/timer.c")
     494                            .dwattr $C$DW$22, DW_AT_TI_end_line(0xe1)
     495                            .dwattr $C$DW$22, DW_AT_TI_end_column(0x01)
TI ARM Assembler Unix v18.1.1 Fri Jul  3 20:08:26 2020

Tools Copyright (c) 1996-2017 Texas Instruments Incorporated
timer.asm                                                            PAGE   10

     496                            .dwendentry
     497                            .dwendtag $C$DW$22
     498                    
     499 00000090                   .sect   ".text"
     500                            .clink
     501                            .thumbfunc TimerDisable
     502 00000090                   .thumb
     503                            .global TimerDisable
     504                    
     505                    $C$DW$28        .dwtag  DW_TAG_subprogram
     506                            .dwattr $C$DW$28, DW_AT_name("TimerDisable")
     507                            .dwattr $C$DW$28, DW_AT_low_pc(TimerDisable)
     508                            .dwattr $C$DW$28, DW_AT_high_pc(0x00)
     509                            .dwattr $C$DW$28, DW_AT_TI_symbol_name("TimerDisable")
     510                            .dwattr $C$DW$28, DW_AT_external
     511                            .dwattr $C$DW$28, DW_AT_TI_begin_file("../driverlib/timer.c")
     512                            .dwattr $C$DW$28, DW_AT_TI_begin_line(0xf1)
     513                            .dwattr $C$DW$28, DW_AT_TI_begin_column(0x01)
     514                            .dwattr $C$DW$28, DW_AT_decl_file("../driverlib/timer.c")
     515                            .dwattr $C$DW$28, DW_AT_decl_line(0xf1)
     516                            .dwattr $C$DW$28, DW_AT_decl_column(0x01)
     517                            .dwattr $C$DW$28, DW_AT_TI_max_frame_size(0x08)
     518                            .dwpsn  file "../driverlib/timer.c",line 242,column 1,is_stmt,address TimerDisable,isa 1
     519                    
     520                            .dwfde $C$DW$CIE, TimerDisable
     521                    $C$DW$29        .dwtag  DW_TAG_formal_parameter
     522                            .dwattr $C$DW$29, DW_AT_name("ui32Base")
     523                            .dwattr $C$DW$29, DW_AT_TI_symbol_name("ui32Base")
     524                            .dwattr $C$DW$29, DW_AT_type(*$C$DW$T$27)
     525                            .dwattr $C$DW$29, DW_AT_location[DW_OP_reg0]
     526                    
     527                    $C$DW$30        .dwtag  DW_TAG_formal_parameter
     528                            .dwattr $C$DW$30, DW_AT_name("ui32Timer")
     529                            .dwattr $C$DW$30, DW_AT_TI_symbol_name("ui32Timer")
     530                            .dwattr $C$DW$30, DW_AT_type(*$C$DW$T$27)
     531                            .dwattr $C$DW$30, DW_AT_location[DW_OP_reg1]
     532                    
     533                    ;----------------------------------------------------------------------
     534                    ; 241 | TimerDisable(uint32_t ui32Base, uint32_t ui32Timer)                    
     535                    ;----------------------------------------------------------------------
     536                    
     537                    ;*****************************************************************************
     538                    ;* FUNCTION NAME: TimerDisable                                               *
     539                    ;*                                                                           *
     540                    ;*   Regs Modified     : A1,A2,A3,A4,SP,SR                                   *
     541                    ;*   Regs Used         : A1,A2,A3,A4,SP,LR,SR                                *
     542                    ;*   Local Frame Size  : 0 Args + 8 Auto + 0 Save = 8 byte                   *
     543                    ;*****************************************************************************
     544 00000090           TimerDisable:
     545                    ;* --------------------------------------------------------------------------*
     546                            .dwcfi  cfa_offset, 0
     547 00000090 0D08F1AD          SUB       SP, SP, #8            ; [DPU_V7M3_PIPE]  ; [KEEP 32-BIT INS]
     548                            .dwcfi  cfa_offset, 8
     549                    $C$DW$31        .dwtag  DW_TAG_variable
     550                            .dwattr $C$DW$31, DW_AT_name("ui32Base")
TI ARM Assembler Unix v18.1.1 Fri Jul  3 20:08:26 2020

Tools Copyright (c) 1996-2017 Texas Instruments Incorporated
timer.asm                                                            PAGE   11

     551                            .dwattr $C$DW$31, DW_AT_TI_symbol_name("ui32Base")
     552                            .dwattr $C$DW$31, DW_AT_type(*$C$DW$T$27)
     553                            .dwattr $C$DW$31, DW_AT_location[DW_OP_breg13 0]
     554                    
     555                    $C$DW$32        .dwtag  DW_TAG_variable
     556                            .dwattr $C$DW$32, DW_AT_name("ui32Timer")
     557                            .dwattr $C$DW$32, DW_AT_TI_symbol_name("ui32Timer")
     558                            .dwattr $C$DW$32, DW_AT_type(*$C$DW$T$27)
     559                            .dwattr $C$DW$32, DW_AT_location[DW_OP_breg13 4]
     560                    
     561                    ;----------------------------------------------------------------------
     562                    ; 243 | //                                                                     
     563                    ; 244 | // Check the arguments.                                                
     564                    ; 245 | //                                                                     
     565                    ; 246 | ASSERT(_TimerBaseValid(ui32Base));                                     
     566                    ; 247 | ASSERT((ui32Timer == TIMER_A) || (ui32Timer == TIMER_B) ||             
     567                    ; 248 |        (ui32Timer == TIMER_BOTH));                                     
     568                    ; 250 | //                                                                     
     569                    ; 251 | // Disable the timer module.                                           
     570                    ; 252 | //                                                                     
     571                    ;----------------------------------------------------------------------
     572 00000094 9101              STR       A2, [SP, #4]          ; [DPU_V7M3_PIPE] |242|  ; [ORIG 16-BIT INS]
     573 00000096 9000              STR       A1, [SP, #0]          ; [DPU_V7M3_PIPE] |242|  ; [ORIG 16-BIT INS]
     574                            .dwpsn  file "../driverlib/timer.c",line 253,column 5,is_stmt,isa 1
     575                    ;----------------------------------------------------------------------
     576                    ; 253 | HWREG(ui32Base + TIMER_O_CTL) &= ~(ui32Timer &                         
     577                    ; 254 |                                    (TIMER_CTL_TAEN | TIMER_CTL_TBEN)); 
     578                    ;----------------------------------------------------------------------
     579 00000098 9800              LDR       A1, [SP, #0]          ; [DPU_V7M3_PIPE] |253|  ; [ORIG 16-BIT INS]
     580 0000009a 9B01              LDR       A4, [SP, #4]          ; [DPU_V7M3_PIPE] |253|  ; [ORIG 16-BIT INS]
     581 0000009c 300C              ADDS      A1, A1, #12           ; [DPU_V7M3_PIPE] |253|  ; [ORIG 16-BIT INS]
     582 0000009e 6802              LDR       A3, [A1, #0]          ; [DPU_V7M3_PIPE] |253|  ; [ORIG 16-BIT INS]
     583 000000a0 1101F240          MOV       A2, #257              ; [DPU_V7M3_PIPE] |253|  ; [KEEP 32-BIT INS]
     584 000000a4 4019              ANDS      A2, A2, A4            ; [DPU_V7M3_PIPE] |253|  ; [ORIG 16-BIT INS]
     585 000000a6 438A              BICS      A3, A3, A2            ; [DPU_V7M3_PIPE] |253|  ; [ORIG 16-BIT INS]
     586 000000a8 6002              STR       A3, [A1, #0]          ; [DPU_V7M3_PIPE] |253|  ; [ORIG 16-BIT INS]
     587                            .dwpsn  file "../driverlib/timer.c",line 255,column 1,is_stmt,isa 1
     588 000000aa B002              ADD       SP, SP, #8            ; [DPU_V7M3_PIPE]  ; [ORIG 16-BIT INS]
     589                            .dwcfi  cfa_offset, 0
     590                    $C$DW$33        .dwtag  DW_TAG_TI_branch
     591                            .dwattr $C$DW$33, DW_AT_low_pc(0x00)
     592                            .dwattr $C$DW$33, DW_AT_TI_return
     593                    
     594 000000ac 4770              BX        LR                    ; [DPU_V7M3_PIPE]  ; [ORIG 16-BIT INS]
     595                            ; BRANCH OCCURS                  ; [] 
     596                            .dwattr $C$DW$28, DW_AT_TI_end_file("../driverlib/timer.c")
     597                            .dwattr $C$DW$28, DW_AT_TI_end_line(0xff)
     598                            .dwattr $C$DW$28, DW_AT_TI_end_column(0x01)
     599                            .dwendentry
     600                            .dwendtag $C$DW$28
     601                    
     602 000000ae                   .sect   ".text"
     603                            .clink
     604                            .thumbfunc TimerConfigure
     605 000000ae                   .thumb
TI ARM Assembler Unix v18.1.1 Fri Jul  3 20:08:26 2020

Tools Copyright (c) 1996-2017 Texas Instruments Incorporated
timer.asm                                                            PAGE   12

     606                            .global TimerConfigure
     607                    
     608                    $C$DW$34        .dwtag  DW_TAG_subprogram
     609                            .dwattr $C$DW$34, DW_AT_name("TimerConfigure")
     610                            .dwattr $C$DW$34, DW_AT_low_pc(TimerConfigure)
     611                            .dwattr $C$DW$34, DW_AT_high_pc(0x00)
     612                            .dwattr $C$DW$34, DW_AT_TI_symbol_name("TimerConfigure")
     613                            .dwattr $C$DW$34, DW_AT_external
     614                            .dwattr $C$DW$34, DW_AT_TI_begin_file("../driverlib/timer.c")
     615                            .dwattr $C$DW$34, DW_AT_TI_begin_line(0x15d)
     616                            .dwattr $C$DW$34, DW_AT_TI_begin_column(0x01)
     617                            .dwattr $C$DW$34, DW_AT_decl_file("../driverlib/timer.c")
     618                            .dwattr $C$DW$34, DW_AT_decl_line(0x15d)
     619                            .dwattr $C$DW$34, DW_AT_decl_column(0x01)
     620                            .dwattr $C$DW$34, DW_AT_TI_max_frame_size(0x08)
     621                            .dwpsn  file "../driverlib/timer.c",line 350,column 1,is_stmt,address TimerConfigure,isa 1
     622                    
     623                            .dwfde $C$DW$CIE, TimerConfigure
     624                    $C$DW$35        .dwtag  DW_TAG_formal_parameter
     625                            .dwattr $C$DW$35, DW_AT_name("ui32Base")
     626                            .dwattr $C$DW$35, DW_AT_TI_symbol_name("ui32Base")
     627                            .dwattr $C$DW$35, DW_AT_type(*$C$DW$T$27)
     628                            .dwattr $C$DW$35, DW_AT_location[DW_OP_reg0]
     629                    
     630                    $C$DW$36        .dwtag  DW_TAG_formal_parameter
     631                            .dwattr $C$DW$36, DW_AT_name("ui32Config")
     632                            .dwattr $C$DW$36, DW_AT_TI_symbol_name("ui32Config")
     633                            .dwattr $C$DW$36, DW_AT_type(*$C$DW$T$27)
     634                            .dwattr $C$DW$36, DW_AT_location[DW_OP_reg1]
     635                    
     636                    ;----------------------------------------------------------------------
     637                    ; 349 | TimerConfigure(uint32_t ui32Base, uint32_t ui32Config)                 
     638                    ;----------------------------------------------------------------------
     639                    
     640                    ;*****************************************************************************
     641                    ;* FUNCTION NAME: TimerConfigure                                             *
     642                    ;*                                                                           *
     643                    ;*   Regs Modified     : A1,A2,A3,SP,SR                                      *
     644                    ;*   Regs Used         : A1,A2,A3,SP,LR,SR                                   *
     645                    ;*   Local Frame Size  : 0 Args + 8 Auto + 0 Save = 8 byte                   *
     646                    ;*****************************************************************************
     647 000000ae           TimerConfigure:
     648                    ;* --------------------------------------------------------------------------*
     649                            .dwcfi  cfa_offset, 0
     650 000000ae 0D08F1AD          SUB       SP, SP, #8            ; [DPU_V7M3_PIPE]  ; [KEEP 32-BIT INS]
     651                            .dwcfi  cfa_offset, 8
     652                    $C$DW$37        .dwtag  DW_TAG_variable
     653                            .dwattr $C$DW$37, DW_AT_name("ui32Base")
     654                            .dwattr $C$DW$37, DW_AT_TI_symbol_name("ui32Base")
     655                            .dwattr $C$DW$37, DW_AT_type(*$C$DW$T$27)
     656                            .dwattr $C$DW$37, DW_AT_location[DW_OP_breg13 0]
     657                    
     658                    $C$DW$38        .dwtag  DW_TAG_variable
     659                            .dwattr $C$DW$38, DW_AT_name("ui32Config")
     660                            .dwattr $C$DW$38, DW_AT_TI_symbol_name("ui32Config")
TI ARM Assembler Unix v18.1.1 Fri Jul  3 20:08:26 2020

Tools Copyright (c) 1996-2017 Texas Instruments Incorporated
timer.asm                                                            PAGE   13

     661                            .dwattr $C$DW$38, DW_AT_type(*$C$DW$T$27)
     662                            .dwattr $C$DW$38, DW_AT_location[DW_OP_breg13 4]
     663                    
     664                    ;----------------------------------------------------------------------
     665                    ; 351 | //                                                                     
     666                    ; 352 | // Check the arguments.                                                
     667                    ; 353 | //                                                                     
     668                    ; 354 | ASSERT(_TimerBaseValid(ui32Base));                                     
     669                    ; 355 | ASSERT(((ui32Config & 0xfff0ffff) == TIMER_CFG_ONE_SHOT) ||            
     670                    ; 356 |        ((ui32Config & 0xfff0ffff) == TIMER_CFG_ONE_SHOT_UP) ||         
     671                    ; 357 |        ((ui32Config & 0xfff0ffff) == TIMER_CFG_PERIODIC) ||            
     672                    ; 358 |        ((ui32Config & 0xfff0ffff) == TIMER_CFG_PERIODIC_UP) ||         
     673                    ; 359 |        ((ui32Config & 0xfff0ffff) == TIMER_CFG_RTC) ||                 
     674                    ; 360 |        ((ui32Config & 0xff000000) == TIMER_CFG_SPLIT_PAIR));           
     675                    ; 361 | ASSERT(((ui32Config & 0xff000000) != TIMER_CFG_SPLIT_PAIR) ||          
     676                    ; 362 |        ((((ui32Config & 0x000000ff) == TIMER_CFG_A_ONE_SHOT) ||        
     677                    ; 363 |          ((ui32Config & 0x000000ff) == TIMER_CFG_A_ONE_SHOT_UP) ||     
     678                    ; 364 |          ((ui32Config & 0x000000ff) == TIMER_CFG_A_PERIODIC) ||        
     679                    ; 365 |          ((ui32Config & 0x000000ff) == TIMER_CFG_A_PERIODIC_UP) ||     
     680                    ; 366 |          ((ui32Config & 0x000000ff) == TIMER_CFG_A_CAP_COUNT) ||       
     681                    ; 367 |          ((ui32Config & 0x000000ff) == TIMER_CFG_A_CAP_COUNT_UP) ||    
     682                    ; 368 |          ((ui32Config & 0x000000ff) == TIMER_CFG_A_CAP_TIME) ||        
     683                    ; 369 |          ((ui32Config & 0x000000ff) == TIMER_CFG_A_CAP_TIME_UP) ||     
     684                    ; 370 |          ((ui32Config & 0x000000ff) == TIMER_CFG_A_ONE_SHOT_PWM) ||    
     685                    ; 371 |          ((ui32Config & 0x000000ff) == TIMER_CFG_A_PWM)) &&            
     686                    ; 372 |         (((ui32Config & 0x0000ff00) == TIMER_CFG_B_ONE_SHOT) ||        
     687                    ; 373 |          ((ui32Config & 0x0000ff00) == TIMER_CFG_B_ONE_SHOT_UP) ||     
     688                    ; 374 |          ((ui32Config & 0x0000ff00) == TIMER_CFG_B_PERIODIC) ||        
     689                    ; 375 |          ((ui32Config & 0x0000ff00) == TIMER_CFG_B_PERIODIC_UP) ||     
     690                    ; 376 |          ((ui32Config & 0x0000ff00) == TIMER_CFG_B_CAP_COUNT) ||       
     691                    ; 377 |          ((ui32Config & 0x0000ff00) == TIMER_CFG_B_CAP_COUNT_UP) ||    
     692                    ; 378 |          ((ui32Config & 0x0000ff00) == TIMER_CFG_B_CAP_TIME) ||        
     693                    ; 379 |          ((ui32Config & 0x0000ff00) == TIMER_CFG_B_CAP_TIME_UP) ||     
     694                    ; 380 |          ((ui32Config & 0x0000ff00) == TIMER_CFG_B_ONE_SHOT_PWM) ||    
     695                    ; 381 |          ((ui32Config & 0x0000ff00) == TIMER_CFG_B_PWM))));            
     696                    ; 383 | //                                                                     
     697                    ; 384 | // Disable the timers.                                                 
     698                    ; 385 | //                                                                     
     699                    ;----------------------------------------------------------------------
     700 000000b2 9101              STR       A2, [SP, #4]          ; [DPU_V7M3_PIPE] |350|  ; [ORIG 16-BIT INS]
     701 000000b4 9000              STR       A1, [SP, #0]          ; [DPU_V7M3_PIPE] |350|  ; [ORIG 16-BIT INS]
     702                            .dwpsn  file "../driverlib/timer.c",line 386,column 5,is_stmt,isa 1
     703                    ;----------------------------------------------------------------------
     704                    ; 386 | HWREG(ui32Base + TIMER_O_CTL) &= ~(TIMER_CTL_TAEN | TIMER_CTL_TBEN);   
     705                    ; 388 | //                                                                     
     706                    ; 389 | // Set the global timer configuration.                                 
     707                    ; 390 | //                                                                     
     708                    ;----------------------------------------------------------------------
     709 000000b6 49AB              LDR       A2, $C$CON6           ; [DPU_V7M3_PIPE] |386|  ; [ORIG 16-BIT INS]
     710 000000b8 9800              LDR       A1, [SP, #0]          ; [DPU_V7M3_PIPE] |386|  ; [ORIG 16-BIT INS]
     711 000000ba 300C              ADDS      A1, A1, #12           ; [DPU_V7M3_PIPE] |386|  ; [ORIG 16-BIT INS]
     712 000000bc 6802              LDR       A3, [A1, #0]          ; [DPU_V7M3_PIPE] |386|  ; [ORIG 16-BIT INS]
     713 000000be 4011              ANDS      A2, A2, A3            ; [DPU_V7M3_PIPE] |386|  ; [ORIG 16-BIT INS]
     714 000000c0 6001              STR       A2, [A1, #0]          ; [DPU_V7M3_PIPE] |386|  ; [ORIG 16-BIT INS]
     715                            .dwpsn  file "../driverlib/timer.c",line 391,column 5,is_stmt,isa 1
TI ARM Assembler Unix v18.1.1 Fri Jul  3 20:08:26 2020

Tools Copyright (c) 1996-2017 Texas Instruments Incorporated
timer.asm                                                            PAGE   14

     716                    ;----------------------------------------------------------------------
     717                    ; 391 | HWREG(ui32Base + TIMER_O_CFG) = ui32Config >> 24;                      
     718                    ; 393 | //                                                                     
     719                    ; 394 | // Set the configuration of the A and B timers and set the TxPWMIE bit.
     720                    ; 395 | // Note that the B timer configuration is ignored by the hardware in 32
     721                    ;     | -bit                                                                   
     722                    ; 396 | // modes.                                                              
     723                    ; 397 | //                                                                     
     724                    ;----------------------------------------------------------------------
     725 000000c2 9801              LDR       A1, [SP, #4]          ; [DPU_V7M3_PIPE] |391|  ; [ORIG 16-BIT INS]
     726 000000c4 9900              LDR       A2, [SP, #0]          ; [DPU_V7M3_PIPE] |391|  ; [ORIG 16-BIT INS]
     727 000000c6 0E00              LSRS      A1, A1, #24           ; [DPU_V7M3_PIPE] |391|  ; [ORIG 16-BIT INS]
     728 000000c8 6008              STR       A1, [A2, #0]          ; [DPU_V7M3_PIPE] |391|  ; [ORIG 16-BIT INS]
     729                            .dwpsn  file "../driverlib/timer.c",line 398,column 5,is_stmt,isa 1
     730                    ;----------------------------------------------------------------------
     731                    ; 398 | if(NEW_TIMER_CONFIGURATION)                                            
     732                    ;----------------------------------------------------------------------
     733 000000ca 4983              LDR       A2, $C$CON3           ; [DPU_V7M3_PIPE] |398|  ; [ORIG 16-BIT INS]
     734 000000cc 4881              LDR       A1, $C$CON2           ; [DPU_V7M3_PIPE] |398|  ; [ORIG 16-BIT INS]
     735 000000ce 680A              LDR       A3, [A2, #0]          ; [DPU_V7M3_PIPE] |398|  ; [ORIG 16-BIT INS]
     736 000000d0 4982              LDR       A2, $C$CON4           ; [DPU_V7M3_PIPE] |398|  ; [ORIG 16-BIT INS]
     737 000000d2 4010              ANDS      A1, A1, A3            ; [DPU_V7M3_PIPE] |398|  ; [ORIG 16-BIT INS]
     738 000000d4 4281              CMP       A2, A1                ; [DPU_V7M3_PIPE] |398|  ; [ORIG 16-BIT INS]
     739 000000d6 D118              BNE       ||$C$L7||             ; [DPU_V7M3_PIPE] |398|  ; [ORIG 16-BIT INS]
     740                            ; BRANCHCC OCCURS {||$C$L7||}    ; [] |398| 
     741                    ;* --------------------------------------------------------------------------*
     742                            .dwpsn  file "../driverlib/timer.c",line 400,column 9,is_stmt,isa 1
     743                    ;----------------------------------------------------------------------
     744                    ; 400 | HWREG(ui32Base + TIMER_O_TAMR) = (((ui32Config & 0x000f0000) >> 4) |   
     745                    ; 401 |                                   (ui32Config & 0xff) |                
     746                    ; 402 |                                   TIMER_TAMR_TAPWMIE);                 
     747                    ;----------------------------------------------------------------------
     748 000000d8 9901              LDR       A2, [SP, #4]          ; [DPU_V7M3_PIPE] |400|  ; [ORIG 16-BIT INS]
     749 000000da 9801              LDR       A1, [SP, #4]          ; [DPU_V7M3_PIPE] |400|  ; [ORIG 16-BIT INS]
     750 000000dc 9A00              LDR       A3, [SP, #0]          ; [DPU_V7M3_PIPE] |400|  ; [ORIG 16-BIT INS]
     751 000000de 2170F401          AND       A2, A2, #983040       ; [DPU_V7M3_PIPE] |400|  ; [KEEP 32-BIT INS]
     752 000000e2 00FFF000          AND       A1, A1, #255          ; [DPU_V7M3_PIPE] |400|  ; [KEEP 32-BIT INS]
     753 000000e6 1011EA40          ORR       A1, A1, A2, LSR #4    ; [DPU_V7M3_PIPE] |400|  ; [KEEP 32-BIT INS]
     754 000000ea 7000F440          ORR       A1, A1, #512          ; [DPU_V7M3_PIPE] |400|  ; [KEEP 32-BIT INS]
     755 000000ee 6050              STR       A1, [A3, #4]          ; [DPU_V7M3_PIPE] |400|  ; [ORIG 16-BIT INS]
     756                            .dwpsn  file "../driverlib/timer.c",line 403,column 9,is_stmt,isa 1
     757                    ;----------------------------------------------------------------------
     758                    ; 403 | HWREG(ui32Base + TIMER_O_TBMR) = (((ui32Config & 0x00f00000) >> 8) |   
     759                    ; 404 |                                   ((ui32Config >> 8) & 0xff) |         
     760                    ; 405 |                                   TIMER_TBMR_TBPWMIE);                 
     761                    ;----------------------------------------------------------------------
     762 000000f0 9901              LDR       A2, [SP, #4]          ; [DPU_V7M3_PIPE] |403|  ; [ORIG 16-BIT INS]
     763 000000f2 9801              LDR       A1, [SP, #4]          ; [DPU_V7M3_PIPE] |403|  ; [ORIG 16-BIT INS]
     764 000000f4 9A00              LDR       A3, [SP, #0]          ; [DPU_V7M3_PIPE] |403|  ; [ORIG 16-BIT INS]
     765 000000f6 0170F401          AND       A2, A2, #15728640     ; [DPU_V7M3_PIPE] |403|  ; [KEEP 32-BIT INS]
     766 000000fa 2007F3C0          UBFX      A1, A1, #8, #8        ; [DPU_V7M3_PIPE] |403|  ; [KEEP 32-BIT INS]
     767 000000fe 2011EA40          ORR       A1, A1, A2, LSR #8    ; [DPU_V7M3_PIPE] |403|  ; [KEEP 32-BIT INS]
     768 00000102 7000F440          ORR       A1, A1, #512          ; [DPU_V7M3_PIPE] |403|  ; [KEEP 32-BIT INS]
     769 00000106 6090              STR       A1, [A3, #8]          ; [DPU_V7M3_PIPE] |403|  ; [ORIG 16-BIT INS]
     770                            .dwpsn  file "../driverlib/timer.c",line 406,column 5,is_stmt,isa 1
TI ARM Assembler Unix v18.1.1 Fri Jul  3 20:08:26 2020

Tools Copyright (c) 1996-2017 Texas Instruments Incorporated
timer.asm                                                            PAGE   15

     771                    ;----------------------------------------------------------------------
     772                    ; 407 | else                                                                   
     773                    ;----------------------------------------------------------------------
     774 00000108 E00D              B         ||$C$L8||             ; [DPU_V7M3_PIPE] |406|  ; [ORIG 16-BIT INS]
     775                            ; BRANCH OCCURS {||$C$L8||}      ; [] |406| 
     776                    ;* --------------------------------------------------------------------------*
     777 0000010a           ||$C$L7||:    
     778                            .dwpsn  file "../driverlib/timer.c",line 409,column 9,is_stmt,isa 1
     779                    ;----------------------------------------------------------------------
     780                    ; 409 | HWREG(ui32Base + TIMER_O_TAMR) = ((ui32Config & 0xff) |                
     781                    ; 410 |                                   TIMER_TAMR_TAPWMIE);                 
     782                    ;----------------------------------------------------------------------
     783 0000010a 9801              LDR       A1, [SP, #4]          ; [DPU_V7M3_PIPE] |409|  ; [ORIG 16-BIT INS]
     784 0000010c 9900              LDR       A2, [SP, #0]          ; [DPU_V7M3_PIPE] |409|  ; [ORIG 16-BIT INS]
     785 0000010e 00FFF000          AND       A1, A1, #255          ; [DPU_V7M3_PIPE] |409|  ; [KEEP 32-BIT INS]
     786 00000112 7000F440          ORR       A1, A1, #512          ; [DPU_V7M3_PIPE] |409|  ; [KEEP 32-BIT INS]
     787 00000116 6048              STR       A1, [A2, #4]          ; [DPU_V7M3_PIPE] |409|  ; [ORIG 16-BIT INS]
     788                            .dwpsn  file "../driverlib/timer.c",line 411,column 9,is_stmt,isa 1
     789                    ;----------------------------------------------------------------------
     790                    ; 411 | HWREG(ui32Base + TIMER_O_TBMR) = (((ui32Config >> 8) & 0xff) |         
     791                    ; 412 |                                   TIMER_TBMR_TBPWMIE);                 
     792                    ;----------------------------------------------------------------------
     793 00000118 9801              LDR       A1, [SP, #4]          ; [DPU_V7M3_PIPE] |411|  ; [ORIG 16-BIT INS]
     794 0000011a 9900              LDR       A2, [SP, #0]          ; [DPU_V7M3_PIPE] |411|  ; [ORIG 16-BIT INS]
     795 0000011c 2007F3C0          UBFX      A1, A1, #8, #8        ; [DPU_V7M3_PIPE] |411|  ; [KEEP 32-BIT INS]
     796 00000120 7000F440          ORR       A1, A1, #512          ; [DPU_V7M3_PIPE] |411|  ; [KEEP 32-BIT INS]
     797 00000124 6088              STR       A1, [A2, #8]          ; [DPU_V7M3_PIPE] |411|  ; [ORIG 16-BIT INS]
     798                            .dwpsn  file "../driverlib/timer.c",line 414,column 1,is_stmt,isa 1
     799                    ;* --------------------------------------------------------------------------*
     800 00000126           ||$C$L8||:    
     801 00000126 B002              ADD       SP, SP, #8            ; [DPU_V7M3_PIPE]  ; [ORIG 16-BIT INS]
     802                            .dwcfi  cfa_offset, 0
     803                    $C$DW$39        .dwtag  DW_TAG_TI_branch
     804                            .dwattr $C$DW$39, DW_AT_low_pc(0x00)
     805                            .dwattr $C$DW$39, DW_AT_TI_return
     806                    
     807 00000128 4770              BX        LR                    ; [DPU_V7M3_PIPE]  ; [ORIG 16-BIT INS]
     808                            ; BRANCH OCCURS                  ; [] 
     809                            .dwattr $C$DW$34, DW_AT_TI_end_file("../driverlib/timer.c")
     810                            .dwattr $C$DW$34, DW_AT_TI_end_line(0x19e)
     811                            .dwattr $C$DW$34, DW_AT_TI_end_column(0x01)
     812                            .dwendentry
     813                            .dwendtag $C$DW$34
     814                    
     815 0000012a                   .sect   ".text"
     816                            .clink
     817                            .thumbfunc TimerControlLevel
     818 0000012a                   .thumb
     819                            .global TimerControlLevel
     820                    
     821                    $C$DW$40        .dwtag  DW_TAG_subprogram
     822                            .dwattr $C$DW$40, DW_AT_name("TimerControlLevel")
     823                            .dwattr $C$DW$40, DW_AT_low_pc(TimerControlLevel)
     824                            .dwattr $C$DW$40, DW_AT_high_pc(0x00)
     825                            .dwattr $C$DW$40, DW_AT_TI_symbol_name("TimerControlLevel")
TI ARM Assembler Unix v18.1.1 Fri Jul  3 20:08:26 2020

Tools Copyright (c) 1996-2017 Texas Instruments Incorporated
timer.asm                                                            PAGE   16

     826                            .dwattr $C$DW$40, DW_AT_external
     827                            .dwattr $C$DW$40, DW_AT_TI_begin_file("../driverlib/timer.c")
     828                            .dwattr $C$DW$40, DW_AT_TI_begin_line(0x1b1)
     829                            .dwattr $C$DW$40, DW_AT_TI_begin_column(0x01)
     830                            .dwattr $C$DW$40, DW_AT_decl_file("../driverlib/timer.c")
     831                            .dwattr $C$DW$40, DW_AT_decl_line(0x1b1)
     832                            .dwattr $C$DW$40, DW_AT_decl_column(0x01)
     833                            .dwattr $C$DW$40, DW_AT_TI_max_frame_size(0x10)
     834                            .dwpsn  file "../driverlib/timer.c",line 434,column 1,is_stmt,address TimerControlLevel,isa 1
     835                    
     836                            .dwfde $C$DW$CIE, TimerControlLevel
     837                    $C$DW$41        .dwtag  DW_TAG_formal_parameter
     838                            .dwattr $C$DW$41, DW_AT_name("ui32Base")
     839                            .dwattr $C$DW$41, DW_AT_TI_symbol_name("ui32Base")
     840                            .dwattr $C$DW$41, DW_AT_type(*$C$DW$T$27)
     841                            .dwattr $C$DW$41, DW_AT_location[DW_OP_reg0]
     842                    
     843                    $C$DW$42        .dwtag  DW_TAG_formal_parameter
     844                            .dwattr $C$DW$42, DW_AT_name("ui32Timer")
     845                            .dwattr $C$DW$42, DW_AT_TI_symbol_name("ui32Timer")
     846                            .dwattr $C$DW$42, DW_AT_type(*$C$DW$T$27)
     847                            .dwattr $C$DW$42, DW_AT_location[DW_OP_reg1]
     848                    
     849                    $C$DW$43        .dwtag  DW_TAG_formal_parameter
     850                            .dwattr $C$DW$43, DW_AT_name("bInvert")
     851                            .dwattr $C$DW$43, DW_AT_TI_symbol_name("bInvert")
     852                            .dwattr $C$DW$43, DW_AT_type(*$C$DW$T$33)
     853                            .dwattr $C$DW$43, DW_AT_location[DW_OP_reg2]
     854                    
     855                    ;----------------------------------------------------------------------
     856                    ; 433 | TimerControlLevel(uint32_t ui32Base, uint32_t ui32Timer, bool bInvert) 
     857                    ;----------------------------------------------------------------------
     858                    
     859                    ;*****************************************************************************
     860                    ;* FUNCTION NAME: TimerControlLevel                                          *
     861                    ;*                                                                           *
     862                    ;*   Regs Modified     : A1,A2,SP,SR                                         *
     863                    ;*   Regs Used         : A1,A2,A3,SP,LR,SR                                   *
     864                    ;*   Local Frame Size  : 0 Args + 12 Auto + 0 Save = 12 byte                 *
     865                    ;*****************************************************************************
     866 0000012a           TimerControlLevel:
     867                    ;* --------------------------------------------------------------------------*
     868                            .dwcfi  cfa_offset, 0
     869 0000012a 0D10F1AD          SUB       SP, SP, #16           ; [DPU_V7M3_PIPE]  ; [KEEP 32-BIT INS]
     870                            .dwcfi  cfa_offset, 16
     871                    $C$DW$44        .dwtag  DW_TAG_variable
     872                            .dwattr $C$DW$44, DW_AT_name("ui32Base")
     873                            .dwattr $C$DW$44, DW_AT_TI_symbol_name("ui32Base")
     874                            .dwattr $C$DW$44, DW_AT_type(*$C$DW$T$27)
     875                            .dwattr $C$DW$44, DW_AT_location[DW_OP_breg13 0]
     876                    
     877                    $C$DW$45        .dwtag  DW_TAG_variable
     878                            .dwattr $C$DW$45, DW_AT_name("ui32Timer")
     879                            .dwattr $C$DW$45, DW_AT_TI_symbol_name("ui32Timer")
     880                            .dwattr $C$DW$45, DW_AT_type(*$C$DW$T$27)
TI ARM Assembler Unix v18.1.1 Fri Jul  3 20:08:26 2020

Tools Copyright (c) 1996-2017 Texas Instruments Incorporated
timer.asm                                                            PAGE   17

     881                            .dwattr $C$DW$45, DW_AT_location[DW_OP_breg13 4]
     882                    
     883                    $C$DW$46        .dwtag  DW_TAG_variable
     884                            .dwattr $C$DW$46, DW_AT_name("bInvert")
     885                            .dwattr $C$DW$46, DW_AT_TI_symbol_name("bInvert")
     886                            .dwattr $C$DW$46, DW_AT_type(*$C$DW$T$33)
     887                            .dwattr $C$DW$46, DW_AT_location[DW_OP_breg13 8]
     888                    
     889                    ;----------------------------------------------------------------------
     890                    ; 435 | //                                                                     
     891                    ; 436 | // Check the arguments.                                                
     892                    ; 437 | //                                                                     
     893                    ; 438 | ASSERT(_TimerBaseValid(ui32Base));                                     
     894                    ; 439 | ASSERT((ui32Timer == TIMER_A) || (ui32Timer == TIMER_B) ||             
     895                    ; 440 |        (ui32Timer == TIMER_BOTH));                                     
     896                    ; 442 | //                                                                     
     897                    ; 443 | // Set the output levels as requested.                                 
     898                    ; 444 | //                                                                     
     899                    ;----------------------------------------------------------------------
     900 0000012e 2008F88D          STRB      A3, [SP, #8]          ; [DPU_V7M3_PIPE] |434|  ; [KEEP 32-BIT INS]
     901 00000132 9101              STR       A2, [SP, #4]          ; [DPU_V7M3_PIPE] |434|  ; [ORIG 16-BIT INS]
     902 00000134 9000              STR       A1, [SP, #0]          ; [DPU_V7M3_PIPE] |434|  ; [ORIG 16-BIT INS]
     903                            .dwpsn  file "../driverlib/timer.c",line 445,column 5,is_stmt,isa 1
     904                    ;----------------------------------------------------------------------
     905                    ; 445 | ui32Timer &= TIMER_CTL_TAPWML | TIMER_CTL_TBPWML;                      
     906                    ;----------------------------------------------------------------------
     907 00000136 9901              LDR       A2, [SP, #4]          ; [DPU_V7M3_PIPE] |445|  ; [ORIG 16-BIT INS]
     908 00000138 0040F244          MOV       A1, #16448            ; [DPU_V7M3_PIPE] |445|  ; [KEEP 32-BIT INS]
     909 0000013c 4008              ANDS      A1, A1, A2            ; [DPU_V7M3_PIPE] |445|  ; [ORIG 16-BIT INS]
     910 0000013e 9001              STR       A1, [SP, #4]          ; [DPU_V7M3_PIPE] |445|  ; [ORIG 16-BIT INS]
     911                            .dwpsn  file "../driverlib/timer.c",line 446,column 5,is_stmt,isa 1
     912                    ;----------------------------------------------------------------------
     913                    ; 446 | HWREG(ui32Base + TIMER_O_CTL) = (bInvert ?                             
     914                    ; 447 |                                  (HWREG(ui32Base + TIMER_O_CTL) |      
     915                    ; 448 |                                   ui32Timer) :                         
     916                    ; 449 |                                  (HWREG(ui32Base + TIMER_O_CTL) &      
     917                    ; 450 |                                   ~(ui32Timer)));                      
     918                    ;----------------------------------------------------------------------
     919 00000140 0008F89D          LDRB      A1, [SP, #8]          ; [DPU_V7M3_PIPE] |446|  ; [KEEP 32-BIT INS]
     920 00000144 B120              CBZ       A1, ||$C$L9||         ; []  ; [ORIG 16-BIT INS]
     921                            ; BRANCHCC OCCURS {||$C$L9||}    ; [] |446| 
     922                    ;* --------------------------------------------------------------------------*
     923 00000146 9900              LDR       A2, [SP, #0]          ; [DPU_V7M3_PIPE] |446|  ; [ORIG 16-BIT INS]
     924 00000148 9801              LDR       A1, [SP, #4]          ; [DPU_V7M3_PIPE] |446|  ; [ORIG 16-BIT INS]
     925 0000014a 68C9              LDR       A2, [A2, #12]         ; [DPU_V7M3_PIPE] |446|  ; [ORIG 16-BIT INS]
     926 0000014c 4308              ORRS      A1, A1, A2            ; [DPU_V7M3_PIPE] |446|  ; [ORIG 16-BIT INS]
     927 0000014e E003              B         ||$C$L10||            ; [DPU_V7M3_PIPE] |446|  ; [ORIG 16-BIT INS]
     928                            ; BRANCH OCCURS {||$C$L10||}     ; [] |446| 
     929                    ;* --------------------------------------------------------------------------*
     930 00000150           ||$C$L9||:    
     931 00000150 9800              LDR       A1, [SP, #0]          ; [DPU_V7M3_PIPE] |446|  ; [ORIG 16-BIT INS]
     932 00000152 9901              LDR       A2, [SP, #4]          ; [DPU_V7M3_PIPE] |446|  ; [ORIG 16-BIT INS]
     933 00000154 68C0              LDR       A1, [A1, #12]         ; [DPU_V7M3_PIPE] |446|  ; [ORIG 16-BIT INS]
     934 00000156 4388              BICS      A1, A1, A2            ; [DPU_V7M3_PIPE] |446|  ; [ORIG 16-BIT INS]
     935                    ;* --------------------------------------------------------------------------*
TI ARM Assembler Unix v18.1.1 Fri Jul  3 20:08:26 2020

Tools Copyright (c) 1996-2017 Texas Instruments Incorporated
timer.asm                                                            PAGE   18

     936 00000158           ||$C$L10||:    
     937 00000158 9900              LDR       A2, [SP, #0]          ; [DPU_V7M3_PIPE] |446|  ; [ORIG 16-BIT INS]
     938 0000015a 60C8              STR       A1, [A2, #12]         ; [DPU_V7M3_PIPE] |446|  ; [ORIG 16-BIT INS]
     939                            .dwpsn  file "../driverlib/timer.c",line 451,column 1,is_stmt,isa 1
     940 0000015c B004              ADD       SP, SP, #16           ; [DPU_V7M3_PIPE]  ; [ORIG 16-BIT INS]
     941                            .dwcfi  cfa_offset, 0
     942                    $C$DW$47        .dwtag  DW_TAG_TI_branch
     943                            .dwattr $C$DW$47, DW_AT_low_pc(0x00)
     944                            .dwattr $C$DW$47, DW_AT_TI_return
     945                    
     946 0000015e 4770              BX        LR                    ; [DPU_V7M3_PIPE]  ; [ORIG 16-BIT INS]
     947                            ; BRANCH OCCURS                  ; [] 
     948                            .dwattr $C$DW$40, DW_AT_TI_end_file("../driverlib/timer.c")
     949                            .dwattr $C$DW$40, DW_AT_TI_end_line(0x1c3)
     950                            .dwattr $C$DW$40, DW_AT_TI_end_column(0x01)
     951                            .dwendentry
     952                            .dwendtag $C$DW$40
     953                    
     954 00000160                   .sect   ".text"
     955                            .clink
     956                            .thumbfunc TimerControlTrigger
     957 00000160                   .thumb
     958                            .global TimerControlTrigger
     959                    
     960                    $C$DW$48        .dwtag  DW_TAG_subprogram
     961                            .dwattr $C$DW$48, DW_AT_name("TimerControlTrigger")
     962                            .dwattr $C$DW$48, DW_AT_low_pc(TimerControlTrigger)
     963                            .dwattr $C$DW$48, DW_AT_high_pc(0x00)
     964                            .dwattr $C$DW$48, DW_AT_TI_symbol_name("TimerControlTrigger")
     965                            .dwattr $C$DW$48, DW_AT_external
     966                            .dwattr $C$DW$48, DW_AT_TI_begin_file("../driverlib/timer.c")
     967                            .dwattr $C$DW$48, DW_AT_TI_begin_line(0x1d6)
     968                            .dwattr $C$DW$48, DW_AT_TI_begin_column(0x01)
     969                            .dwattr $C$DW$48, DW_AT_decl_file("../driverlib/timer.c")
     970                            .dwattr $C$DW$48, DW_AT_decl_line(0x1d6)
     971                            .dwattr $C$DW$48, DW_AT_decl_column(0x01)
     972                            .dwattr $C$DW$48, DW_AT_TI_max_frame_size(0x10)
     973                            .dwpsn  file "../driverlib/timer.c",line 472,column 1,is_stmt,address TimerControlTrigger,isa 
     974                    
     975                            .dwfde $C$DW$CIE, TimerControlTrigger
     976                    $C$DW$49        .dwtag  DW_TAG_formal_parameter
     977                            .dwattr $C$DW$49, DW_AT_name("ui32Base")
     978                            .dwattr $C$DW$49, DW_AT_TI_symbol_name("ui32Base")
     979                            .dwattr $C$DW$49, DW_AT_type(*$C$DW$T$27)
     980                            .dwattr $C$DW$49, DW_AT_location[DW_OP_reg0]
     981                    
     982                    $C$DW$50        .dwtag  DW_TAG_formal_parameter
     983                            .dwattr $C$DW$50, DW_AT_name("ui32Timer")
     984                            .dwattr $C$DW$50, DW_AT_TI_symbol_name("ui32Timer")
     985                            .dwattr $C$DW$50, DW_AT_type(*$C$DW$T$27)
     986                            .dwattr $C$DW$50, DW_AT_location[DW_OP_reg1]
     987                    
     988                    $C$DW$51        .dwtag  DW_TAG_formal_parameter
     989                            .dwattr $C$DW$51, DW_AT_name("bEnable")
     990                            .dwattr $C$DW$51, DW_AT_TI_symbol_name("bEnable")
TI ARM Assembler Unix v18.1.1 Fri Jul  3 20:08:26 2020

Tools Copyright (c) 1996-2017 Texas Instruments Incorporated
timer.asm                                                            PAGE   19

     991                            .dwattr $C$DW$51, DW_AT_type(*$C$DW$T$33)
     992                            .dwattr $C$DW$51, DW_AT_location[DW_OP_reg2]
     993                    
     994                    ;----------------------------------------------------------------------
     995                    ; 470 | TimerControlTrigger(uint32_t ui32Base, uint32_t ui32Timer,             
     996                    ; 471 | bool bEnable)                                                          
     997                    ;----------------------------------------------------------------------
     998                    
     999                    ;*****************************************************************************
    1000                    ;* FUNCTION NAME: TimerControlTrigger                                        *
    1001                    ;*                                                                           *
    1002                    ;*   Regs Modified     : A1,A2,A3,SP,SR                                      *
    1003                    ;*   Regs Used         : A1,A2,A3,SP,LR,SR                                   *
    1004                    ;*   Local Frame Size  : 0 Args + 16 Auto + 0 Save = 16 byte                 *
    1005                    ;*****************************************************************************
    1006 00000160           TimerControlTrigger:
    1007                    ;* --------------------------------------------------------------------------*
    1008                            .dwcfi  cfa_offset, 0
    1009 00000160 0D10F1AD          SUB       SP, SP, #16           ; [DPU_V7M3_PIPE]  ; [KEEP 32-BIT INS]
    1010                            .dwcfi  cfa_offset, 16
    1011                    $C$DW$52        .dwtag  DW_TAG_variable
    1012                            .dwattr $C$DW$52, DW_AT_name("ui32Base")
    1013                            .dwattr $C$DW$52, DW_AT_TI_symbol_name("ui32Base")
    1014                            .dwattr $C$DW$52, DW_AT_type(*$C$DW$T$27)
    1015                            .dwattr $C$DW$52, DW_AT_location[DW_OP_breg13 0]
    1016                    
    1017                    $C$DW$53        .dwtag  DW_TAG_variable
    1018                            .dwattr $C$DW$53, DW_AT_name("ui32Timer")
    1019                            .dwattr $C$DW$53, DW_AT_TI_symbol_name("ui32Timer")
    1020                            .dwattr $C$DW$53, DW_AT_type(*$C$DW$T$27)
    1021                            .dwattr $C$DW$53, DW_AT_location[DW_OP_breg13 4]
    1022                    
    1023                    $C$DW$54        .dwtag  DW_TAG_variable
    1024                            .dwattr $C$DW$54, DW_AT_name("bEnable")
    1025                            .dwattr $C$DW$54, DW_AT_TI_symbol_name("bEnable")
    1026                            .dwattr $C$DW$54, DW_AT_type(*$C$DW$T$33)
    1027                            .dwattr $C$DW$54, DW_AT_location[DW_OP_breg13 8]
    1028                    
    1029                    ;----------------------------------------------------------------------
    1030                    ; 473 | //                                                                     
    1031                    ; 474 | // Check the arguments.                                                
    1032                    ; 475 | //                                                                     
    1033                    ; 476 | ASSERT(_TimerBaseValid(ui32Base));                                     
    1034                    ; 477 | ASSERT((ui32Timer == TIMER_A) || (ui32Timer == TIMER_B) ||             
    1035                    ; 478 |        (ui32Timer == TIMER_BOTH));                                     
    1036                    ; 480 | //                                                                     
    1037                    ; 481 | // On newer devices the Timer time out ADC trigger enable must also    
    1038                    ; 482 | // be set.                                                             
    1039                    ; 483 | //                                                                     
    1040                    ;----------------------------------------------------------------------
    1041 00000164 2008F88D          STRB      A3, [SP, #8]          ; [DPU_V7M3_PIPE] |472|  ; [KEEP 32-BIT INS]
    1042 00000168 9101              STR       A2, [SP, #4]          ; [DPU_V7M3_PIPE] |472|  ; [ORIG 16-BIT INS]
    1043 0000016a 9000              STR       A1, [SP, #0]          ; [DPU_V7M3_PIPE] |472|  ; [ORIG 16-BIT INS]
    1044                            .dwpsn  file "../driverlib/timer.c",line 484,column 5,is_stmt,isa 1
    1045                    ;----------------------------------------------------------------------
TI ARM Assembler Unix v18.1.1 Fri Jul  3 20:08:26 2020

Tools Copyright (c) 1996-2017 Texas Instruments Incorporated
timer.asm                                                            PAGE   20

    1046                    ; 484 | if(NEW_TIMER_CONFIGURATION)                                            
    1047                    ; 486 |     uint32_t ui32Val;                                                  
    1048                    ; 488 |     //                                                                 
    1049                    ; 489 |     // Determine which bits to set or clear in GPTMADCEV.              
    1050                    ; 490 |     //                                                                 
    1051                    ;----------------------------------------------------------------------
    1052 0000016c 495A              LDR       A2, $C$CON3           ; [DPU_V7M3_PIPE] |484|  ; [ORIG 16-BIT INS]
    1053 0000016e 4859              LDR       A1, $C$CON2           ; [DPU_V7M3_PIPE] |484|  ; [ORIG 16-BIT INS]
    1054 00000170 680A              LDR       A3, [A2, #0]          ; [DPU_V7M3_PIPE] |484|  ; [ORIG 16-BIT INS]
    1055 00000172 495A              LDR       A2, $C$CON4           ; [DPU_V7M3_PIPE] |484|  ; [ORIG 16-BIT INS]
    1056 00000174 4010              ANDS      A1, A1, A3            ; [DPU_V7M3_PIPE] |484|  ; [ORIG 16-BIT INS]
    1057 00000176 4281              CMP       A2, A1                ; [DPU_V7M3_PIPE] |484|  ; [ORIG 16-BIT INS]
    1058 00000178 D114              BNE       ||$C$L13||            ; [DPU_V7M3_PIPE] |484|  ; [ORIG 16-BIT INS]
    1059                            ; BRANCHCC OCCURS {||$C$L13||}   ; [] |484| 
    1060                    ;* --------------------------------------------------------------------------*
    1061                    
    1062                    $C$DW$55        .dwtag  DW_TAG_lexical_block
    1063                            .dwattr $C$DW$55, DW_AT_low_pc(0x00)
    1064                            .dwattr $C$DW$55, DW_AT_high_pc(0x00)
    1065                    $C$DW$56        .dwtag  DW_TAG_variable
    1066                            .dwattr $C$DW$56, DW_AT_name("ui32Val")
    1067                            .dwattr $C$DW$56, DW_AT_TI_symbol_name("ui32Val")
    1068                            .dwattr $C$DW$56, DW_AT_type(*$C$DW$T$27)
    1069                            .dwattr $C$DW$56, DW_AT_location[DW_OP_breg13 12]
    1070                    
    1071                            .dwpsn  file "../driverlib/timer.c",line 491,column 9,is_stmt,isa 1
    1072                    ;----------------------------------------------------------------------
    1073                    ; 491 | ui32Val = (TIMER_ADCEV_TATOADCEN | TIMER_ADCEV_TBTOADCEN);             
    1074                    ;----------------------------------------------------------------------
    1075 0000017a 1001F240          MOV       A1, #257              ; [DPU_V7M3_PIPE] |491|  ; [KEEP 32-BIT INS]
    1076 0000017e 9003              STR       A1, [SP, #12]         ; [DPU_V7M3_PIPE] |491|  ; [ORIG 16-BIT INS]
    1077                            .dwpsn  file "../driverlib/timer.c",line 492,column 9,is_stmt,isa 1
    1078                    ;----------------------------------------------------------------------
    1079                    ; 492 | ui32Val &= ui32Timer;                                                  
    1080                    ; 494 | //                                                                     
    1081                    ; 495 | // Write the GPTM ADC Event register to enable or disable the trigger  
    1082                    ; 496 | // to the ADC.                                                         
    1083                    ; 497 | //                                                                     
    1084                    ;----------------------------------------------------------------------
    1085 00000180 9801              LDR       A1, [SP, #4]          ; [DPU_V7M3_PIPE] |492|  ; [ORIG 16-BIT INS]
    1086 00000182 9903              LDR       A2, [SP, #12]         ; [DPU_V7M3_PIPE] |492|  ; [ORIG 16-BIT INS]
    1087 00000184 4008              ANDS      A1, A1, A2            ; [DPU_V7M3_PIPE] |492|  ; [ORIG 16-BIT INS]
    1088 00000186 9003              STR       A1, [SP, #12]         ; [DPU_V7M3_PIPE] |492|  ; [ORIG 16-BIT INS]
    1089                            .dwpsn  file "../driverlib/timer.c",line 498,column 9,is_stmt,isa 1
    1090                    ;----------------------------------------------------------------------
    1091                    ; 498 | HWREG(ui32Base + TIMER_O_ADCEV) = (bEnable ?                           
    1092                    ; 499 |                                    (HWREG(ui32Base + TIMER_O_ADCEV) |  
    1093                    ; 500 |                                     ui32Val) :                         
    1094                    ; 501 |                                    (HWREG(ui32Base + TIMER_O_ADCEV) &  
    1095                    ; 502 |                                     ~(ui32Val)));                      
    1096                    ; 505 | //                                                                     
    1097                    ; 506 | // Set the trigger output as requested.                                
    1098                    ; 507 | // Set the ADC trigger output as requested.                            
    1099                    ; 508 | //                                                                     
    1100                    ;----------------------------------------------------------------------
TI ARM Assembler Unix v18.1.1 Fri Jul  3 20:08:26 2020

Tools Copyright (c) 1996-2017 Texas Instruments Incorporated
timer.asm                                                            PAGE   21

    1101 00000188 0008F89D          LDRB      A1, [SP, #8]          ; [DPU_V7M3_PIPE] |498|  ; [KEEP 32-BIT INS]
    1102 0000018c B120              CBZ       A1, ||$C$L11||        ; []  ; [ORIG 16-BIT INS]
    1103                            ; BRANCHCC OCCURS {||$C$L11||}   ; [] |498| 
    1104                    ;* --------------------------------------------------------------------------*
    1105 0000018e 9900              LDR       A2, [SP, #0]          ; [DPU_V7M3_PIPE] |498|  ; [ORIG 16-BIT INS]
    1106 00000190 9803              LDR       A1, [SP, #12]         ; [DPU_V7M3_PIPE] |498|  ; [ORIG 16-BIT INS]
    1107 00000192 6F09              LDR       A2, [A2, #112]        ; [DPU_V7M3_PIPE] |498|  ; [ORIG 16-BIT INS]
    1108 00000194 4308              ORRS      A1, A1, A2            ; [DPU_V7M3_PIPE] |498|  ; [ORIG 16-BIT INS]
    1109 00000196 E003              B         ||$C$L12||            ; [DPU_V7M3_PIPE] |498|  ; [ORIG 16-BIT INS]
    1110                            ; BRANCH OCCURS {||$C$L12||}     ; [] |498| 
    1111                    ;* --------------------------------------------------------------------------*
    1112 00000198           ||$C$L11||:    
    1113 00000198 9800              LDR       A1, [SP, #0]          ; [DPU_V7M3_PIPE] |498|  ; [ORIG 16-BIT INS]
    1114 0000019a 9903              LDR       A2, [SP, #12]         ; [DPU_V7M3_PIPE] |498|  ; [ORIG 16-BIT INS]
    1115 0000019c 6F00              LDR       A1, [A1, #112]        ; [DPU_V7M3_PIPE] |498|  ; [ORIG 16-BIT INS]
    1116 0000019e 4388              BICS      A1, A1, A2            ; [DPU_V7M3_PIPE] |498|  ; [ORIG 16-BIT INS]
    1117                    ;* --------------------------------------------------------------------------*
    1118 000001a0           ||$C$L12||:    
    1119 000001a0 9900              LDR       A2, [SP, #0]          ; [DPU_V7M3_PIPE] |498|  ; [ORIG 16-BIT INS]
    1120 000001a2 6708              STR       A1, [A2, #112]        ; [DPU_V7M3_PIPE] |498|  ; [ORIG 16-BIT INS]
    1121                            .dwendtag $C$DW$55
    1122                    
    1123                    ;* --------------------------------------------------------------------------*
    1124 000001a4           ||$C$L13||:    
    1125                            .dwpsn  file "../driverlib/timer.c",line 509,column 5,is_stmt,isa 1
    1126                    ;----------------------------------------------------------------------
    1127                    ; 509 | ui32Timer &= TIMER_CTL_TAOTE | TIMER_CTL_TBOTE;                        
    1128                    ;----------------------------------------------------------------------
    1129 000001a4 9901              LDR       A2, [SP, #4]          ; [DPU_V7M3_PIPE] |509|  ; [ORIG 16-BIT INS]
    1130 000001a6 0020F242          MOV       A1, #8224             ; [DPU_V7M3_PIPE] |509|  ; [KEEP 32-BIT INS]
    1131 000001aa 4008              ANDS      A1, A1, A2            ; [DPU_V7M3_PIPE] |509|  ; [ORIG 16-BIT INS]
    1132 000001ac 9001              STR       A1, [SP, #4]          ; [DPU_V7M3_PIPE] |509|  ; [ORIG 16-BIT INS]
    1133                            .dwpsn  file "../driverlib/timer.c",line 510,column 5,is_stmt,isa 1
    1134                    ;----------------------------------------------------------------------
    1135                    ; 510 | HWREG(ui32Base + TIMER_O_CTL) = (bEnable ?                             
    1136                    ; 511 |                                  (HWREG(ui32Base + TIMER_O_CTL) |      
    1137                    ; 512 |                                   ui32Timer) :                         
    1138                    ; 513 |                                  (HWREG(ui32Base + TIMER_O_CTL) &      
    1139                    ; 514 |                                   ~(ui32Timer)));                      
    1140                    ;----------------------------------------------------------------------
    1141 000001ae 0008F89D          LDRB      A1, [SP, #8]          ; [DPU_V7M3_PIPE] |510|  ; [KEEP 32-BIT INS]
    1142 000001b2 B120              CBZ       A1, ||$C$L14||        ; []  ; [ORIG 16-BIT INS]
    1143                            ; BRANCHCC OCCURS {||$C$L14||}   ; [] |510| 
    1144                    ;* --------------------------------------------------------------------------*
    1145 000001b4 9900              LDR       A2, [SP, #0]          ; [DPU_V7M3_PIPE] |510|  ; [ORIG 16-BIT INS]
    1146 000001b6 9801              LDR       A1, [SP, #4]          ; [DPU_V7M3_PIPE] |510|  ; [ORIG 16-BIT INS]
    1147 000001b8 68C9              LDR       A2, [A2, #12]         ; [DPU_V7M3_PIPE] |510|  ; [ORIG 16-BIT INS]
    1148 000001ba 4308              ORRS      A1, A1, A2            ; [DPU_V7M3_PIPE] |510|  ; [ORIG 16-BIT INS]
    1149 000001bc E003              B         ||$C$L15||            ; [DPU_V7M3_PIPE] |510|  ; [ORIG 16-BIT INS]
    1150                            ; BRANCH OCCURS {||$C$L15||}     ; [] |510| 
    1151                    ;* --------------------------------------------------------------------------*
    1152 000001be           ||$C$L14||:    
    1153 000001be 9800              LDR       A1, [SP, #0]          ; [DPU_V7M3_PIPE] |510|  ; [ORIG 16-BIT INS]
    1154 000001c0 9901              LDR       A2, [SP, #4]          ; [DPU_V7M3_PIPE] |510|  ; [ORIG 16-BIT INS]
    1155 000001c2 68C0              LDR       A1, [A1, #12]         ; [DPU_V7M3_PIPE] |510|  ; [ORIG 16-BIT INS]
TI ARM Assembler Unix v18.1.1 Fri Jul  3 20:08:26 2020

Tools Copyright (c) 1996-2017 Texas Instruments Incorporated
timer.asm                                                            PAGE   22

    1156 000001c4 4388              BICS      A1, A1, A2            ; [DPU_V7M3_PIPE] |510|  ; [ORIG 16-BIT INS]
    1157                    ;* --------------------------------------------------------------------------*
    1158 000001c6           ||$C$L15||:    
    1159 000001c6 9900              LDR       A2, [SP, #0]          ; [DPU_V7M3_PIPE] |510|  ; [ORIG 16-BIT INS]
    1160 000001c8 60C8              STR       A1, [A2, #12]         ; [DPU_V7M3_PIPE] |510|  ; [ORIG 16-BIT INS]
    1161                            .dwpsn  file "../driverlib/timer.c",line 515,column 1,is_stmt,isa 1
    1162 000001ca B004              ADD       SP, SP, #16           ; [DPU_V7M3_PIPE]  ; [ORIG 16-BIT INS]
    1163                            .dwcfi  cfa_offset, 0
    1164                    $C$DW$57        .dwtag  DW_TAG_TI_branch
    1165                            .dwattr $C$DW$57, DW_AT_low_pc(0x00)
    1166                            .dwattr $C$DW$57, DW_AT_TI_return
    1167                    
    1168 000001cc 4770              BX        LR                    ; [DPU_V7M3_PIPE]  ; [ORIG 16-BIT INS]
    1169                            ; BRANCH OCCURS                  ; [] 
    1170                            .dwattr $C$DW$48, DW_AT_TI_end_file("../driverlib/timer.c")
    1171                            .dwattr $C$DW$48, DW_AT_TI_end_line(0x203)
    1172                            .dwattr $C$DW$48, DW_AT_TI_end_column(0x01)
    1173                            .dwendentry
    1174                            .dwendtag $C$DW$48
    1175                    
    1176 000001ce                   .sect   ".text"
    1177                            .clink
    1178                            .thumbfunc TimerControlEvent
    1179 000001ce                   .thumb
    1180                            .global TimerControlEvent
    1181                    
    1182                    $C$DW$58        .dwtag  DW_TAG_subprogram
    1183                            .dwattr $C$DW$58, DW_AT_name("TimerControlEvent")
    1184                            .dwattr $C$DW$58, DW_AT_low_pc(TimerControlEvent)
    1185                            .dwattr $C$DW$58, DW_AT_high_pc(0x00)
    1186                            .dwattr $C$DW$58, DW_AT_TI_symbol_name("TimerControlEvent")
    1187                            .dwattr $C$DW$58, DW_AT_external
    1188                            .dwattr $C$DW$58, DW_AT_TI_begin_file("../driverlib/timer.c")
    1189                            .dwattr $C$DW$58, DW_AT_TI_begin_line(0x217)
    1190                            .dwattr $C$DW$58, DW_AT_TI_begin_column(0x01)
    1191                            .dwattr $C$DW$58, DW_AT_decl_file("../driverlib/timer.c")
    1192                            .dwattr $C$DW$58, DW_AT_decl_line(0x217)
    1193                            .dwattr $C$DW$58, DW_AT_decl_column(0x01)
    1194                            .dwattr $C$DW$58, DW_AT_TI_max_frame_size(0x18)
    1195                            .dwpsn  file "../driverlib/timer.c",line 537,column 1,is_stmt,address TimerControlEvent,isa 1
    1196                    
    1197                            .dwfde $C$DW$CIE, TimerControlEvent
    1198                    $C$DW$59        .dwtag  DW_TAG_formal_parameter
    1199                            .dwattr $C$DW$59, DW_AT_name("ui32Base")
    1200                            .dwattr $C$DW$59, DW_AT_TI_symbol_name("ui32Base")
    1201                            .dwattr $C$DW$59, DW_AT_type(*$C$DW$T$27)
    1202                            .dwattr $C$DW$59, DW_AT_location[DW_OP_reg0]
    1203                    
    1204                    $C$DW$60        .dwtag  DW_TAG_formal_parameter
    1205                            .dwattr $C$DW$60, DW_AT_name("ui32Timer")
    1206                            .dwattr $C$DW$60, DW_AT_TI_symbol_name("ui32Timer")
    1207                            .dwattr $C$DW$60, DW_AT_type(*$C$DW$T$27)
    1208                            .dwattr $C$DW$60, DW_AT_location[DW_OP_reg1]
    1209                    
    1210                    $C$DW$61        .dwtag  DW_TAG_formal_parameter
TI ARM Assembler Unix v18.1.1 Fri Jul  3 20:08:26 2020

Tools Copyright (c) 1996-2017 Texas Instruments Incorporated
timer.asm                                                            PAGE   23

    1211                            .dwattr $C$DW$61, DW_AT_name("ui32Event")
    1212                            .dwattr $C$DW$61, DW_AT_TI_symbol_name("ui32Event")
    1213                            .dwattr $C$DW$61, DW_AT_type(*$C$DW$T$27)
    1214                            .dwattr $C$DW$61, DW_AT_location[DW_OP_reg2]
    1215                    
    1216                    ;----------------------------------------------------------------------
    1217                    ; 535 | TimerControlEvent(uint32_t ui32Base, uint32_t ui32Timer,               
    1218                    ; 536 | uint32_t ui32Event)                                                    
    1219                    ;----------------------------------------------------------------------
    1220                    
    1221                    ;*****************************************************************************
    1222                    ;* FUNCTION NAME: TimerControlEvent                                          *
    1223                    ;*                                                                           *
    1224                    ;*   Regs Modified     : A1,A2,A3,A4,V1,SP,SR                                *
    1225                    ;*   Regs Used         : A1,A2,A3,A4,V1,SP,LR,SR                             *
    1226                    ;*   Local Frame Size  : 0 Args + 12 Auto + 8 Save = 20 byte                 *
    1227                    ;*****************************************************************************
    1228 000001ce           TimerControlEvent:
    1229                    ;* --------------------------------------------------------------------------*
    1230                            .dwcfi  cfa_offset, 0
    1231 000001ce B51F              PUSH      {A1, A2, A3, A4, V1, LR} ; [DPU_V7M3_PIPE]  ; [ORIG 16-BIT INS]
    1232                            .dwcfi  cfa_offset, 24
    1233                            .dwcfi  save_reg_to_mem, 14, -4
    1234                            .dwcfi  save_reg_to_mem, 4, -8
    1235                            .dwcfi  save_reg_to_mem, 3, -12
    1236                            .dwcfi  save_reg_to_mem, 2, -16
    1237                            .dwcfi  save_reg_to_mem, 1, -20
    1238                            .dwcfi  save_reg_to_mem, 0, -24
    1239                    $C$DW$62        .dwtag  DW_TAG_variable
    1240                            .dwattr $C$DW$62, DW_AT_name("ui32Base")
    1241                            .dwattr $C$DW$62, DW_AT_TI_symbol_name("ui32Base")
    1242                            .dwattr $C$DW$62, DW_AT_type(*$C$DW$T$27)
    1243                            .dwattr $C$DW$62, DW_AT_location[DW_OP_breg13 0]
    1244                    
    1245                    $C$DW$63        .dwtag  DW_TAG_variable
    1246                            .dwattr $C$DW$63, DW_AT_name("ui32Timer")
    1247                            .dwattr $C$DW$63, DW_AT_TI_symbol_name("ui32Timer")
    1248                            .dwattr $C$DW$63, DW_AT_type(*$C$DW$T$27)
    1249                            .dwattr $C$DW$63, DW_AT_location[DW_OP_breg13 4]
    1250                    
    1251                    $C$DW$64        .dwtag  DW_TAG_variable
    1252                            .dwattr $C$DW$64, DW_AT_name("ui32Event")
    1253                            .dwattr $C$DW$64, DW_AT_TI_symbol_name("ui32Event")
    1254                            .dwattr $C$DW$64, DW_AT_type(*$C$DW$T$27)
    1255                            .dwattr $C$DW$64, DW_AT_location[DW_OP_breg13 8]
    1256                    
    1257                    ;----------------------------------------------------------------------
    1258                    ; 538 | //                                                                     
    1259                    ; 539 | // Check the arguments.                                                
    1260                    ; 540 | //                                                                     
    1261                    ; 541 | ASSERT(_TimerBaseValid(ui32Base));                                     
    1262                    ; 542 | ASSERT((ui32Timer == TIMER_A) || (ui32Timer == TIMER_B) ||             
    1263                    ; 543 |        (ui32Timer == TIMER_BOTH));                                     
    1264                    ; 545 | //                                                                     
    1265                    ; 546 | // Set the event type.                                                 
TI ARM Assembler Unix v18.1.1 Fri Jul  3 20:08:26 2020

Tools Copyright (c) 1996-2017 Texas Instruments Incorporated
timer.asm                                                            PAGE   24

    1266                    ; 547 | //                                                                     
    1267                    ;----------------------------------------------------------------------
    1268 000001d0 9202              STR       A3, [SP, #8]          ; [DPU_V7M3_PIPE] |537|  ; [ORIG 16-BIT INS]
    1269 000001d2 9101              STR       A2, [SP, #4]          ; [DPU_V7M3_PIPE] |537|  ; [ORIG 16-BIT INS]
    1270 000001d4 9000              STR       A1, [SP, #0]          ; [DPU_V7M3_PIPE] |537|  ; [ORIG 16-BIT INS]
    1271                            .dwpsn  file "../driverlib/timer.c",line 548,column 5,is_stmt,isa 1
    1272                    ;----------------------------------------------------------------------
    1273                    ; 548 | ui32Timer &= TIMER_CTL_TAEVENT_M | TIMER_CTL_TBEVENT_M;                
    1274                    ;----------------------------------------------------------------------
    1275 000001d6 9901              LDR       A2, [SP, #4]          ; [DPU_V7M3_PIPE] |548|  ; [ORIG 16-BIT INS]
    1276 000001d8 400CF640          MOV       A1, #3084             ; [DPU_V7M3_PIPE] |548|  ; [KEEP 32-BIT INS]
    1277 000001dc 4008              ANDS      A1, A1, A2            ; [DPU_V7M3_PIPE] |548|  ; [ORIG 16-BIT INS]
    1278 000001de 9001              STR       A1, [SP, #4]          ; [DPU_V7M3_PIPE] |548|  ; [ORIG 16-BIT INS]
    1279                            .dwpsn  file "../driverlib/timer.c",line 549,column 5,is_stmt,isa 1
    1280                    ;----------------------------------------------------------------------
    1281                    ; 549 | HWREG(ui32Base + TIMER_O_CTL) = ((HWREG(ui32Base + TIMER_O_CTL) &      
    1282                    ; 550 |                                   ~ui32Timer) | (ui32Event & ui32Timer)
    1283                    ;     | );                                                                     
    1284                    ;----------------------------------------------------------------------
    1285 000001e0 9800              LDR       A1, [SP, #0]          ; [DPU_V7M3_PIPE] |549|  ; [ORIG 16-BIT INS]
    1286 000001e2 9C02              LDR       V1, [SP, #8]          ; [DPU_V7M3_PIPE] |549|  ; [ORIG 16-BIT INS]
    1287 000001e4 9B01              LDR       A4, [SP, #4]          ; [DPU_V7M3_PIPE] |549|  ; [ORIG 16-BIT INS]
    1288 000001e6 9901              LDR       A2, [SP, #4]          ; [DPU_V7M3_PIPE] |549|  ; [ORIG 16-BIT INS]
    1289 000001e8 9A00              LDR       A3, [SP, #0]          ; [DPU_V7M3_PIPE] |549|  ; [ORIG 16-BIT INS]
    1290 000001ea 68C0              LDR       A1, [A1, #12]         ; [DPU_V7M3_PIPE] |549|  ; [ORIG 16-BIT INS]
    1291 000001ec 4021              ANDS      A2, A2, V1            ; [DPU_V7M3_PIPE] |549|  ; [ORIG 16-BIT INS]
    1292 000001ee 4398              BICS      A1, A1, A4            ; [DPU_V7M3_PIPE] |549|  ; [ORIG 16-BIT INS]
    1293 000001f0 4301              ORRS      A2, A2, A1            ; [DPU_V7M3_PIPE] |549|  ; [ORIG 16-BIT INS]
    1294 000001f2 60D1              STR       A2, [A3, #12]         ; [DPU_V7M3_PIPE] |549|  ; [ORIG 16-BIT INS]
    1295                            .dwpsn  file "../driverlib/timer.c",line 551,column 1,is_stmt,isa 1
    1296 000001f4 9000              STR       A1, [SP, #0]          ; [DPU_V7M3_PIPE]  ; [ORIG 16-BIT INS]
    1297                    $C$DW$65        .dwtag  DW_TAG_TI_branch
    1298                            .dwattr $C$DW$65, DW_AT_low_pc(0x00)
    1299                            .dwattr $C$DW$65, DW_AT_TI_return
    1300                    
    1301 000001f6 BD1F              POP       {A1, A2, A3, A4, V1, PC} ; [DPU_V7M3_PIPE]  ; [ORIG 16-BIT INS]
    1302                            .dwcfi  cfa_offset, 0
    1303                            .dwcfi  restore_reg, 4
    1304                            .dwcfi  restore_reg, 3
    1305                            .dwcfi  restore_reg, 2
    1306                            .dwcfi  restore_reg, 1
    1307                            .dwcfi  restore_reg, 0
    1308                            ; BRANCH OCCURS                  ; [] 
    1309                            .dwattr $C$DW$58, DW_AT_TI_end_file("../driverlib/timer.c")
    1310                            .dwattr $C$DW$58, DW_AT_TI_end_line(0x227)
    1311                            .dwattr $C$DW$58, DW_AT_TI_end_column(0x01)
    1312                            .dwendentry
    1313                            .dwendtag $C$DW$58
    1314                    
    1315 000001f8                   .sect   ".text"
    1316                            .clink
    1317                            .thumbfunc TimerControlStall
    1318 000001f8                   .thumb
    1319                            .global TimerControlStall
    1320                    
TI ARM Assembler Unix v18.1.1 Fri Jul  3 20:08:26 2020

Tools Copyright (c) 1996-2017 Texas Instruments Incorporated
timer.asm                                                            PAGE   25

    1321                    $C$DW$66        .dwtag  DW_TAG_subprogram
    1322                            .dwattr $C$DW$66, DW_AT_name("TimerControlStall")
    1323                            .dwattr $C$DW$66, DW_AT_low_pc(TimerControlStall)
    1324                            .dwattr $C$DW$66, DW_AT_high_pc(0x00)
    1325                            .dwattr $C$DW$66, DW_AT_TI_symbol_name("TimerControlStall")
    1326                            .dwattr $C$DW$66, DW_AT_external
    1327                            .dwattr $C$DW$66, DW_AT_TI_begin_file("../driverlib/timer.c")
    1328                            .dwattr $C$DW$66, DW_AT_TI_begin_line(0x23b)
    1329                            .dwattr $C$DW$66, DW_AT_TI_begin_column(0x01)
    1330                            .dwattr $C$DW$66, DW_AT_decl_file("../driverlib/timer.c")
    1331                            .dwattr $C$DW$66, DW_AT_decl_line(0x23b)
    1332                            .dwattr $C$DW$66, DW_AT_decl_column(0x01)
    1333                            .dwattr $C$DW$66, DW_AT_TI_max_frame_size(0x10)
    1334                            .dwpsn  file "../driverlib/timer.c",line 573,column 1,is_stmt,address TimerControlStall,isa 1
    1335                    
    1336                            .dwfde $C$DW$CIE, TimerControlStall
    1337                    $C$DW$67        .dwtag  DW_TAG_formal_parameter
    1338                            .dwattr $C$DW$67, DW_AT_name("ui32Base")
    1339                            .dwattr $C$DW$67, DW_AT_TI_symbol_name("ui32Base")
    1340                            .dwattr $C$DW$67, DW_AT_type(*$C$DW$T$27)
    1341                            .dwattr $C$DW$67, DW_AT_location[DW_OP_reg0]
    1342                    
    1343                    $C$DW$68        .dwtag  DW_TAG_formal_parameter
    1344                            .dwattr $C$DW$68, DW_AT_name("ui32Timer")
    1345                            .dwattr $C$DW$68, DW_AT_TI_symbol_name("ui32Timer")
    1346                            .dwattr $C$DW$68, DW_AT_type(*$C$DW$T$27)
    1347                            .dwattr $C$DW$68, DW_AT_location[DW_OP_reg1]
    1348                    
    1349                    $C$DW$69        .dwtag  DW_TAG_formal_parameter
    1350                            .dwattr $C$DW$69, DW_AT_name("bStall")
    1351                            .dwattr $C$DW$69, DW_AT_TI_symbol_name("bStall")
    1352                            .dwattr $C$DW$69, DW_AT_type(*$C$DW$T$33)
    1353                            .dwattr $C$DW$69, DW_AT_location[DW_OP_reg2]
    1354                    
    1355                    ;----------------------------------------------------------------------
    1356                    ; 571 | TimerControlStall(uint32_t ui32Base, uint32_t ui32Timer,               
    1357                    ; 572 | bool bStall)                                                           
    1358                    ;----------------------------------------------------------------------
    1359                    
    1360                    ;*****************************************************************************
    1361                    ;* FUNCTION NAME: TimerControlStall                                          *
    1362                    ;*                                                                           *
    1363                    ;*   Regs Modified     : A1,A2,SP,SR                                         *
    1364                    ;*   Regs Used         : A1,A2,A3,SP,LR,SR                                   *
    1365                    ;*   Local Frame Size  : 0 Args + 12 Auto + 0 Save = 12 byte                 *
    1366                    ;*****************************************************************************
    1367 000001f8           TimerControlStall:
    1368                    ;* --------------------------------------------------------------------------*
    1369                            .dwcfi  cfa_offset, 0
    1370 000001f8 0D10F1AD          SUB       SP, SP, #16           ; [DPU_V7M3_PIPE]  ; [KEEP 32-BIT INS]
    1371                            .dwcfi  cfa_offset, 16
    1372                    $C$DW$70        .dwtag  DW_TAG_variable
    1373                            .dwattr $C$DW$70, DW_AT_name("ui32Base")
    1374                            .dwattr $C$DW$70, DW_AT_TI_symbol_name("ui32Base")
    1375                            .dwattr $C$DW$70, DW_AT_type(*$C$DW$T$27)
TI ARM Assembler Unix v18.1.1 Fri Jul  3 20:08:26 2020

Tools Copyright (c) 1996-2017 Texas Instruments Incorporated
timer.asm                                                            PAGE   26

    1376                            .dwattr $C$DW$70, DW_AT_location[DW_OP_breg13 0]
    1377                    
    1378                    $C$DW$71        .dwtag  DW_TAG_variable
    1379                            .dwattr $C$DW$71, DW_AT_name("ui32Timer")
    1380                            .dwattr $C$DW$71, DW_AT_TI_symbol_name("ui32Timer")
    1381                            .dwattr $C$DW$71, DW_AT_type(*$C$DW$T$27)
    1382                            .dwattr $C$DW$71, DW_AT_location[DW_OP_breg13 4]
    1383                    
    1384                    $C$DW$72        .dwtag  DW_TAG_variable
    1385                            .dwattr $C$DW$72, DW_AT_name("bStall")
    1386                            .dwattr $C$DW$72, DW_AT_TI_symbol_name("bStall")
    1387                            .dwattr $C$DW$72, DW_AT_type(*$C$DW$T$33)
    1388                            .dwattr $C$DW$72, DW_AT_location[DW_OP_breg13 8]
    1389                    
    1390                    ;----------------------------------------------------------------------
    1391                    ; 574 | //                                                                     
    1392                    ; 575 | // Check the arguments.                                                
    1393                    ; 576 | //                                                                     
    1394                    ; 577 | ASSERT(_TimerBaseValid(ui32Base));                                     
    1395                    ; 578 | ASSERT((ui32Timer == TIMER_A) || (ui32Timer == TIMER_B) ||             
    1396                    ; 579 |        (ui32Timer == TIMER_BOTH));                                     
    1397                    ; 581 | //                                                                     
    1398                    ; 582 | // Set the stall mode.                                                 
    1399                    ; 583 | //                                                                     
    1400                    ;----------------------------------------------------------------------
    1401 000001fc 2008F88D          STRB      A3, [SP, #8]          ; [DPU_V7M3_PIPE] |573|  ; [KEEP 32-BIT INS]
    1402 00000200 9101              STR       A2, [SP, #4]          ; [DPU_V7M3_PIPE] |573|  ; [ORIG 16-BIT INS]
    1403 00000202 9000              STR       A1, [SP, #0]          ; [DPU_V7M3_PIPE] |573|  ; [ORIG 16-BIT INS]
    1404                            .dwpsn  file "../driverlib/timer.c",line 584,column 5,is_stmt,isa 1
    1405                    ;----------------------------------------------------------------------
    1406                    ; 584 | ui32Timer &= TIMER_CTL_TASTALL | TIMER_CTL_TBSTALL;                    
    1407                    ;----------------------------------------------------------------------
    1408 00000204 9901              LDR       A2, [SP, #4]          ; [DPU_V7M3_PIPE] |584|  ; [ORIG 16-BIT INS]
    1409 00000206 2002F240          MOV       A1, #514              ; [DPU_V7M3_PIPE] |584|  ; [KEEP 32-BIT INS]
    1410 0000020a 4008              ANDS      A1, A1, A2            ; [DPU_V7M3_PIPE] |584|  ; [ORIG 16-BIT INS]
    1411 0000020c 9001              STR       A1, [SP, #4]          ; [DPU_V7M3_PIPE] |584|  ; [ORIG 16-BIT INS]
    1412                            .dwpsn  file "../driverlib/timer.c",line 585,column 5,is_stmt,isa 1
    1413                    ;----------------------------------------------------------------------
    1414                    ; 585 | HWREG(ui32Base + TIMER_O_CTL) = (bStall ?                              
    1415                    ; 586 |                                  (HWREG(ui32Base + TIMER_O_CTL) |      
    1416                    ; 587 |                                   ui32Timer) :                         
    1417                    ; 588 |                                  (HWREG(ui32Base + TIMER_O_CTL) &      
    1418                    ; 589 |                                   ~(ui32Timer)));                      
    1419                    ;----------------------------------------------------------------------
    1420 0000020e 0008F89D          LDRB      A1, [SP, #8]          ; [DPU_V7M3_PIPE] |585|  ; [KEEP 32-BIT INS]
    1421 00000212 B120              CBZ       A1, ||$C$L16||        ; []  ; [ORIG 16-BIT INS]
    1422                            ; BRANCHCC OCCURS {||$C$L16||}   ; [] |585| 
    1423                    ;* --------------------------------------------------------------------------*
    1424 00000214 9900              LDR       A2, [SP, #0]          ; [DPU_V7M3_PIPE] |585|  ; [ORIG 16-BIT INS]
    1425 00000216 9801              LDR       A1, [SP, #4]          ; [DPU_V7M3_PIPE] |585|  ; [ORIG 16-BIT INS]
    1426 00000218 68C9              LDR       A2, [A2, #12]         ; [DPU_V7M3_PIPE] |585|  ; [ORIG 16-BIT INS]
    1427 0000021a 4308              ORRS      A1, A1, A2            ; [DPU_V7M3_PIPE] |585|  ; [ORIG 16-BIT INS]
    1428 0000021c E003              B         ||$C$L17||            ; [DPU_V7M3_PIPE] |585|  ; [ORIG 16-BIT INS]
    1429                            ; BRANCH OCCURS {||$C$L17||}     ; [] |585| 
    1430                    ;* --------------------------------------------------------------------------*
TI ARM Assembler Unix v18.1.1 Fri Jul  3 20:08:26 2020

Tools Copyright (c) 1996-2017 Texas Instruments Incorporated
timer.asm                                                            PAGE   27

    1431 0000021e           ||$C$L16||:    
    1432 0000021e 9800              LDR       A1, [SP, #0]          ; [DPU_V7M3_PIPE] |585|  ; [ORIG 16-BIT INS]
    1433 00000220 9901              LDR       A2, [SP, #4]          ; [DPU_V7M3_PIPE] |585|  ; [ORIG 16-BIT INS]
    1434 00000222 68C0              LDR       A1, [A1, #12]         ; [DPU_V7M3_PIPE] |585|  ; [ORIG 16-BIT INS]
    1435 00000224 4388              BICS      A1, A1, A2            ; [DPU_V7M3_PIPE] |585|  ; [ORIG 16-BIT INS]
    1436                    ;* --------------------------------------------------------------------------*
    1437 00000226           ||$C$L17||:    
    1438 00000226 9900              LDR       A2, [SP, #0]          ; [DPU_V7M3_PIPE] |585|  ; [ORIG 16-BIT INS]
    1439 00000228 60C8              STR       A1, [A2, #12]         ; [DPU_V7M3_PIPE] |585|  ; [ORIG 16-BIT INS]
    1440                            .dwpsn  file "../driverlib/timer.c",line 590,column 1,is_stmt,isa 1
    1441 0000022a B004              ADD       SP, SP, #16           ; [DPU_V7M3_PIPE]  ; [ORIG 16-BIT INS]
    1442                            .dwcfi  cfa_offset, 0
    1443                    $C$DW$73        .dwtag  DW_TAG_TI_branch
    1444                            .dwattr $C$DW$73, DW_AT_low_pc(0x00)
    1445                            .dwattr $C$DW$73, DW_AT_TI_return
    1446                    
    1447 0000022c 4770              BX        LR                    ; [DPU_V7M3_PIPE]  ; [ORIG 16-BIT INS]
    1448                            ; BRANCH OCCURS                  ; [] 
    1449                            .dwattr $C$DW$66, DW_AT_TI_end_file("../driverlib/timer.c")
    1450                            .dwattr $C$DW$66, DW_AT_TI_end_line(0x24e)
    1451                            .dwattr $C$DW$66, DW_AT_TI_end_column(0x01)
    1452                            .dwendentry
    1453                            .dwendtag $C$DW$66
    1454                    
    1455 0000022e                   .sect   ".text"
    1456                            .clink
    1457                            .thumbfunc TimerControlWaitOnTrigger
    1458 0000022e                   .thumb
    1459                            .global TimerControlWaitOnTrigger
    1460                    
    1461                    $C$DW$74        .dwtag  DW_TAG_subprogram
    1462                            .dwattr $C$DW$74, DW_AT_name("TimerControlWaitOnTrigger")
    1463                            .dwattr $C$DW$74, DW_AT_low_pc(TimerControlWaitOnTrigger)
    1464                            .dwattr $C$DW$74, DW_AT_high_pc(0x00)
    1465                            .dwattr $C$DW$74, DW_AT_TI_symbol_name("TimerControlWaitOnTrigger")
    1466                            .dwattr $C$DW$74, DW_AT_external
    1467                            .dwattr $C$DW$74, DW_AT_TI_begin_file("../driverlib/timer.c")
    1468                            .dwattr $C$DW$74, DW_AT_TI_begin_line(0x265)
    1469                            .dwattr $C$DW$74, DW_AT_TI_begin_column(0x01)
    1470                            .dwattr $C$DW$74, DW_AT_decl_file("../driverlib/timer.c")
    1471                            .dwattr $C$DW$74, DW_AT_decl_line(0x265)
    1472                            .dwattr $C$DW$74, DW_AT_decl_column(0x01)
    1473                            .dwattr $C$DW$74, DW_AT_TI_max_frame_size(0x10)
    1474                            .dwpsn  file "../driverlib/timer.c",line 615,column 1,is_stmt,address TimerControlWaitOnTrigge
    1475                    
    1476                            .dwfde $C$DW$CIE, TimerControlWaitOnTrigger
    1477                    $C$DW$75        .dwtag  DW_TAG_formal_parameter
    1478                            .dwattr $C$DW$75, DW_AT_name("ui32Base")
    1479                            .dwattr $C$DW$75, DW_AT_TI_symbol_name("ui32Base")
    1480                            .dwattr $C$DW$75, DW_AT_type(*$C$DW$T$27)
    1481                            .dwattr $C$DW$75, DW_AT_location[DW_OP_reg0]
    1482                    
    1483                    $C$DW$76        .dwtag  DW_TAG_formal_parameter
    1484                            .dwattr $C$DW$76, DW_AT_name("ui32Timer")
    1485                            .dwattr $C$DW$76, DW_AT_TI_symbol_name("ui32Timer")
TI ARM Assembler Unix v18.1.1 Fri Jul  3 20:08:26 2020

Tools Copyright (c) 1996-2017 Texas Instruments Incorporated
timer.asm                                                            PAGE   28

    1486                            .dwattr $C$DW$76, DW_AT_type(*$C$DW$T$27)
    1487                            .dwattr $C$DW$76, DW_AT_location[DW_OP_reg1]
    1488                    
    1489                    $C$DW$77        .dwtag  DW_TAG_formal_parameter
    1490                            .dwattr $C$DW$77, DW_AT_name("bWait")
    1491                            .dwattr $C$DW$77, DW_AT_TI_symbol_name("bWait")
    1492                            .dwattr $C$DW$77, DW_AT_type(*$C$DW$T$33)
    1493                            .dwattr $C$DW$77, DW_AT_location[DW_OP_reg2]
    1494                    
    1495                    ;----------------------------------------------------------------------
    1496                    ; 613 | TimerControlWaitOnTrigger(uint32_t ui32Base, uint32_t ui32Timer,       
    1497                    ; 614 | bool bWait)                                                            
    1498                    ;----------------------------------------------------------------------
    1499                    
    1500                    ;*****************************************************************************
    1501                    ;* FUNCTION NAME: TimerControlWaitOnTrigger                                  *
    1502                    ;*                                                                           *
    1503                    ;*   Regs Modified     : A1,A2,SP,SR                                         *
    1504                    ;*   Regs Used         : A1,A2,A3,SP,LR,SR                                   *
    1505                    ;*   Local Frame Size  : 0 Args + 12 Auto + 0 Save = 12 byte                 *
    1506                    ;*****************************************************************************
    1507 0000022e           TimerControlWaitOnTrigger:
    1508                    ;* --------------------------------------------------------------------------*
    1509                            .dwcfi  cfa_offset, 0
    1510 0000022e 0D10F1AD          SUB       SP, SP, #16           ; [DPU_V7M3_PIPE]  ; [KEEP 32-BIT INS]
    1511                            .dwcfi  cfa_offset, 16
    1512                    $C$DW$78        .dwtag  DW_TAG_variable
    1513                            .dwattr $C$DW$78, DW_AT_name("ui32Base")
    1514                            .dwattr $C$DW$78, DW_AT_TI_symbol_name("ui32Base")
    1515                            .dwattr $C$DW$78, DW_AT_type(*$C$DW$T$27)
    1516                            .dwattr $C$DW$78, DW_AT_location[DW_OP_breg13 0]
    1517                    
    1518                    $C$DW$79        .dwtag  DW_TAG_variable
    1519                            .dwattr $C$DW$79, DW_AT_name("ui32Timer")
    1520                            .dwattr $C$DW$79, DW_AT_TI_symbol_name("ui32Timer")
    1521                            .dwattr $C$DW$79, DW_AT_type(*$C$DW$T$27)
    1522                            .dwattr $C$DW$79, DW_AT_location[DW_OP_breg13 4]
    1523                    
    1524                    $C$DW$80        .dwtag  DW_TAG_variable
    1525                            .dwattr $C$DW$80, DW_AT_name("bWait")
    1526                            .dwattr $C$DW$80, DW_AT_TI_symbol_name("bWait")
    1527                            .dwattr $C$DW$80, DW_AT_type(*$C$DW$T$33)
    1528                            .dwattr $C$DW$80, DW_AT_location[DW_OP_breg13 8]
    1529                    
    1530                    ;----------------------------------------------------------------------
    1531                    ; 616 | //                                                                     
    1532                    ; 617 | // Check the arguments.                                                
    1533                    ; 618 | //                                                                     
    1534                    ; 619 | ASSERT(_TimerBaseValid(ui32Base));                                     
    1535                    ; 620 | ASSERT((ui32Timer == TIMER_A) || (ui32Timer == TIMER_B) ||             
    1536                    ; 621 |        (ui32Timer == TIMER_BOTH));                                     
    1537                    ; 623 | //                                                                     
    1538                    ; 624 | // Set the wait on trigger mode for timer A.                           
    1539                    ; 625 | //                                                                     
    1540                    ;----------------------------------------------------------------------
TI ARM Assembler Unix v18.1.1 Fri Jul  3 20:08:26 2020

Tools Copyright (c) 1996-2017 Texas Instruments Incorporated
timer.asm                                                            PAGE   29

    1541 00000232 2008F88D          STRB      A3, [SP, #8]          ; [DPU_V7M3_PIPE] |615|  ; [KEEP 32-BIT INS]
    1542 00000236 9101              STR       A2, [SP, #4]          ; [DPU_V7M3_PIPE] |615|  ; [ORIG 16-BIT INS]
    1543 00000238 9000              STR       A1, [SP, #0]          ; [DPU_V7M3_PIPE] |615|  ; [ORIG 16-BIT INS]
    1544                            .dwpsn  file "../driverlib/timer.c",line 626,column 5,is_stmt,isa 1
    1545                    ;----------------------------------------------------------------------
    1546                    ; 626 | if((ui32Timer & TIMER_A) != 0)                                         
    1547                    ;----------------------------------------------------------------------
    1548 0000023a 9801              LDR       A1, [SP, #4]          ; [DPU_V7M3_PIPE] |626|  ; [ORIG 16-BIT INS]
    1549 0000023c 0FFFF010          TST       A1, #255              ; [DPU_V7M3_PIPE] |626|  ; [KEEP 32-BIT INS]
    1550 00000240 D00F              BEQ       ||$C$L19||            ; [DPU_V7M3_PIPE] |626|  ; [ORIG 16-BIT INS]
    1551                            ; BRANCHCC OCCURS {||$C$L19||}   ; [] |626| 
    1552                    ;* --------------------------------------------------------------------------*
    1553                            .dwpsn  file "../driverlib/timer.c",line 628,column 9,is_stmt,isa 1
    1554                    ;----------------------------------------------------------------------
    1555                    ; 628 | if(bWait)                                                              
    1556                    ;----------------------------------------------------------------------
    1557 00000242 0008F89D          LDRB      A1, [SP, #8]          ; [DPU_V7M3_PIPE] |628|  ; [KEEP 32-BIT INS]
    1558 00000246 B130              CBZ       A1, ||$C$L18||        ; []  ; [ORIG 16-BIT INS]
    1559                            ; BRANCHCC OCCURS {||$C$L18||}   ; [] |628| 
    1560                    ;* --------------------------------------------------------------------------*
    1561                            .dwpsn  file "../driverlib/timer.c",line 630,column 13,is_stmt,isa 1
    1562                    ;----------------------------------------------------------------------
    1563                    ; 630 | HWREG(ui32Base + TIMER_O_TAMR) |= TIMER_TAMR_TAWOT;                    
    1564                    ;----------------------------------------------------------------------
    1565 00000248 9800              LDR       A1, [SP, #0]          ; [DPU_V7M3_PIPE] |630|  ; [ORIG 16-BIT INS]
    1566 0000024a 1D00              ADDS      A1, A1, #4            ; [DPU_V7M3_PIPE] |630|  ; [ORIG 16-BIT INS]
    1567 0000024c 6801              LDR       A2, [A1, #0]          ; [DPU_V7M3_PIPE] |630|  ; [ORIG 16-BIT INS]
    1568 0000024e 0140F041          ORR       A2, A2, #64           ; [DPU_V7M3_PIPE] |630|  ; [KEEP 32-BIT INS]
    1569 00000252 6001              STR       A2, [A1, #0]          ; [DPU_V7M3_PIPE] |630|  ; [ORIG 16-BIT INS]
    1570                            .dwpsn  file "../driverlib/timer.c",line 631,column 9,is_stmt,isa 1
    1571                    ;----------------------------------------------------------------------
    1572                    ; 632 | else                                                                   
    1573                    ;----------------------------------------------------------------------
    1574 00000254 E005              B         ||$C$L19||            ; [DPU_V7M3_PIPE] |631|  ; [ORIG 16-BIT INS]
    1575                            ; BRANCH OCCURS {||$C$L19||}     ; [] |631| 
    1576                    ;* --------------------------------------------------------------------------*
    1577 00000256           ||$C$L18||:    
    1578                            .dwpsn  file "../driverlib/timer.c",line 634,column 13,is_stmt,isa 1
    1579                    ;----------------------------------------------------------------------
    1580                    ; 634 | HWREG(ui32Base + TIMER_O_TAMR) &= ~(TIMER_TAMR_TAWOT);                 
    1581                    ; 638 | //                                                                     
    1582                    ; 639 | // Set the wait on trigger mode for timer B.                           
    1583                    ; 640 | //                                                                     
    1584                    ;----------------------------------------------------------------------
    1585 00000256 9800              LDR       A1, [SP, #0]          ; [DPU_V7M3_PIPE] |634|  ; [ORIG 16-BIT INS]
    1586 00000258 1D00              ADDS      A1, A1, #4            ; [DPU_V7M3_PIPE] |634|  ; [ORIG 16-BIT INS]
    1587 0000025a 6801              LDR       A2, [A1, #0]          ; [DPU_V7M3_PIPE] |634|  ; [ORIG 16-BIT INS]
    1588 0000025c 0140F021          BIC       A2, A2, #64           ; [DPU_V7M3_PIPE] |634|  ; [KEEP 32-BIT INS]
    1589 00000260 6001              STR       A2, [A1, #0]          ; [DPU_V7M3_PIPE] |634|  ; [ORIG 16-BIT INS]
    1590                    ;* --------------------------------------------------------------------------*
    1591 00000262           ||$C$L19||:    
    1592                            .dwpsn  file "../driverlib/timer.c",line 641,column 5,is_stmt,isa 1
    1593                    ;----------------------------------------------------------------------
    1594                    ; 641 | if((ui32Timer & TIMER_B) != 0)                                         
    1595                    ;----------------------------------------------------------------------
TI ARM Assembler Unix v18.1.1 Fri Jul  3 20:08:26 2020

Tools Copyright (c) 1996-2017 Texas Instruments Incorporated
timer.asm                                                            PAGE   30

    1596 00000262 9801              LDR       A1, [SP, #4]          ; [DPU_V7M3_PIPE] |641|  ; [ORIG 16-BIT INS]
    1597 00000264 4F7FF410          TST       A1, #65280            ; [DPU_V7M3_PIPE] |641|  ; [KEEP 32-BIT INS]
    1598 00000268 D00F              BEQ       ||$C$L21||            ; [DPU_V7M3_PIPE] |641|  ; [ORIG 16-BIT INS]
    1599                            ; BRANCHCC OCCURS {||$C$L21||}   ; [] |641| 
    1600                    ;* --------------------------------------------------------------------------*
    1601                            .dwpsn  file "../driverlib/timer.c",line 643,column 9,is_stmt,isa 1
    1602                    ;----------------------------------------------------------------------
    1603                    ; 643 | if(bWait)                                                              
    1604                    ;----------------------------------------------------------------------
    1605 0000026a 0008F89D          LDRB      A1, [SP, #8]          ; [DPU_V7M3_PIPE] |643|  ; [KEEP 32-BIT INS]
    1606 0000026e B130              CBZ       A1, ||$C$L20||        ; []  ; [ORIG 16-BIT INS]
    1607                            ; BRANCHCC OCCURS {||$C$L20||}   ; [] |643| 
    1608                    ;* --------------------------------------------------------------------------*
    1609                            .dwpsn  file "../driverlib/timer.c",line 645,column 13,is_stmt,isa 1
    1610                    ;----------------------------------------------------------------------
    1611                    ; 645 | HWREG(ui32Base + TIMER_O_TBMR) |= TIMER_TBMR_TBWOT;                    
    1612                    ;----------------------------------------------------------------------
    1613 00000270 9800              LDR       A1, [SP, #0]          ; [DPU_V7M3_PIPE] |645|  ; [ORIG 16-BIT INS]
    1614 00000272 3008              ADDS      A1, A1, #8            ; [DPU_V7M3_PIPE] |645|  ; [ORIG 16-BIT INS]
    1615 00000274 6801              LDR       A2, [A1, #0]          ; [DPU_V7M3_PIPE] |645|  ; [ORIG 16-BIT INS]
    1616 00000276 0140F041          ORR       A2, A2, #64           ; [DPU_V7M3_PIPE] |645|  ; [KEEP 32-BIT INS]
    1617 0000027a 6001              STR       A2, [A1, #0]          ; [DPU_V7M3_PIPE] |645|  ; [ORIG 16-BIT INS]
    1618                            .dwpsn  file "../driverlib/timer.c",line 646,column 9,is_stmt,isa 1
    1619                    ;----------------------------------------------------------------------
    1620                    ; 647 | else                                                                   
    1621                    ;----------------------------------------------------------------------
    1622 0000027c E005              B         ||$C$L21||            ; [DPU_V7M3_PIPE] |646|  ; [ORIG 16-BIT INS]
    1623                            ; BRANCH OCCURS {||$C$L21||}     ; [] |646| 
    1624                    ;* --------------------------------------------------------------------------*
    1625 0000027e           ||$C$L20||:    
    1626                            .dwpsn  file "../driverlib/timer.c",line 649,column 13,is_stmt,isa 1
    1627                    ;----------------------------------------------------------------------
    1628                    ; 649 | HWREG(ui32Base + TIMER_O_TBMR) &= ~(TIMER_TBMR_TBWOT);                 
    1629                    ;----------------------------------------------------------------------
    1630 0000027e 9800              LDR       A1, [SP, #0]          ; [DPU_V7M3_PIPE] |649|  ; [ORIG 16-BIT INS]
    1631 00000280 3008              ADDS      A1, A1, #8            ; [DPU_V7M3_PIPE] |649|  ; [ORIG 16-BIT INS]
    1632 00000282 6801              LDR       A2, [A1, #0]          ; [DPU_V7M3_PIPE] |649|  ; [ORIG 16-BIT INS]
    1633 00000284 0140F021          BIC       A2, A2, #64           ; [DPU_V7M3_PIPE] |649|  ; [KEEP 32-BIT INS]
    1634 00000288 6001              STR       A2, [A1, #0]          ; [DPU_V7M3_PIPE] |649|  ; [ORIG 16-BIT INS]
    1635                            .dwpsn  file "../driverlib/timer.c",line 652,column 1,is_stmt,isa 1
    1636                    ;* --------------------------------------------------------------------------*
    1637 0000028a           ||$C$L21||:    
    1638 0000028a B004              ADD       SP, SP, #16           ; [DPU_V7M3_PIPE]  ; [ORIG 16-BIT INS]
    1639                            .dwcfi  cfa_offset, 0
    1640                    $C$DW$81        .dwtag  DW_TAG_TI_branch
    1641                            .dwattr $C$DW$81, DW_AT_low_pc(0x00)
    1642                            .dwattr $C$DW$81, DW_AT_TI_return
    1643                    
    1644 0000028c 4770              BX        LR                    ; [DPU_V7M3_PIPE]  ; [ORIG 16-BIT INS]
    1645                            ; BRANCH OCCURS                  ; [] 
    1646                            .dwattr $C$DW$74, DW_AT_TI_end_file("../driverlib/timer.c")
    1647                            .dwattr $C$DW$74, DW_AT_TI_end_line(0x28c)
    1648                            .dwattr $C$DW$74, DW_AT_TI_end_column(0x01)
    1649                            .dwendentry
    1650                            .dwendtag $C$DW$74
TI ARM Assembler Unix v18.1.1 Fri Jul  3 20:08:26 2020

Tools Copyright (c) 1996-2017 Texas Instruments Incorporated
timer.asm                                                            PAGE   31

    1651                    
    1652 0000028e                   .sect   ".text"
    1653                            .clink
    1654                            .thumbfunc TimerRTCEnable
    1655 0000028e                   .thumb
    1656                            .global TimerRTCEnable
    1657                    
    1658                    $C$DW$82        .dwtag  DW_TAG_subprogram
    1659                            .dwattr $C$DW$82, DW_AT_name("TimerRTCEnable")
    1660                            .dwattr $C$DW$82, DW_AT_low_pc(TimerRTCEnable)
    1661                            .dwattr $C$DW$82, DW_AT_high_pc(0x00)
    1662                            .dwattr $C$DW$82, DW_AT_TI_symbol_name("TimerRTCEnable")
    1663                            .dwattr $C$DW$82, DW_AT_external
    1664                            .dwattr $C$DW$82, DW_AT_TI_begin_file("../driverlib/timer.c")
    1665                            .dwattr $C$DW$82, DW_AT_TI_begin_line(0x29b)
    1666                            .dwattr $C$DW$82, DW_AT_TI_begin_column(0x01)
    1667                            .dwattr $C$DW$82, DW_AT_decl_file("../driverlib/timer.c")
    1668                            .dwattr $C$DW$82, DW_AT_decl_line(0x29b)
    1669                            .dwattr $C$DW$82, DW_AT_decl_column(0x01)
    1670                            .dwattr $C$DW$82, DW_AT_TI_max_frame_size(0x08)
    1671                            .dwpsn  file "../driverlib/timer.c",line 668,column 1,is_stmt,address TimerRTCEnable,isa 1
    1672                    
    1673                            .dwfde $C$DW$CIE, TimerRTCEnable
    1674                    $C$DW$83        .dwtag  DW_TAG_formal_parameter
    1675                            .dwattr $C$DW$83, DW_AT_name("ui32Base")
    1676                            .dwattr $C$DW$83, DW_AT_TI_symbol_name("ui32Base")
    1677                            .dwattr $C$DW$83, DW_AT_type(*$C$DW$T$27)
    1678                            .dwattr $C$DW$83, DW_AT_location[DW_OP_reg0]
    1679                    
    1680                    ;----------------------------------------------------------------------
    1681                    ; 667 | TimerRTCEnable(uint32_t ui32Base)                                      
    1682                    ;----------------------------------------------------------------------
    1683                    
    1684                    ;*****************************************************************************
    1685                    ;* FUNCTION NAME: TimerRTCEnable                                             *
    1686                    ;*                                                                           *
    1687                    ;*   Regs Modified     : A1,A2,SP,SR                                         *
    1688                    ;*   Regs Used         : A1,A2,SP,LR,SR                                      *
    1689                    ;*   Local Frame Size  : 0 Args + 4 Auto + 0 Save = 4 byte                   *
    1690                    ;*****************************************************************************
    1691 0000028e           TimerRTCEnable:
    1692                    ;* --------------------------------------------------------------------------*
    1693                            .dwcfi  cfa_offset, 0
    1694 0000028e 0D08F1AD          SUB       SP, SP, #8            ; [DPU_V7M3_PIPE]  ; [KEEP 32-BIT INS]
    1695                            .dwcfi  cfa_offset, 8
    1696                    $C$DW$84        .dwtag  DW_TAG_variable
    1697                            .dwattr $C$DW$84, DW_AT_name("ui32Base")
    1698                            .dwattr $C$DW$84, DW_AT_TI_symbol_name("ui32Base")
    1699                            .dwattr $C$DW$84, DW_AT_type(*$C$DW$T$27)
    1700                            .dwattr $C$DW$84, DW_AT_location[DW_OP_breg13 0]
    1701                    
    1702                    ;----------------------------------------------------------------------
    1703                    ; 669 | //                                                                     
    1704                    ; 670 | // Check the arguments.                                                
    1705                    ; 671 | //                                                                     
TI ARM Assembler Unix v18.1.1 Fri Jul  3 20:08:26 2020

Tools Copyright (c) 1996-2017 Texas Instruments Incorporated
timer.asm                                                            PAGE   32

    1706                    ; 672 | ASSERT(_TimerBaseValid(ui32Base));                                     
    1707                    ; 674 | //                                                                     
    1708                    ; 675 | // Enable RTC counting.                                                
    1709                    ; 676 | //                                                                     
    1710                    ;----------------------------------------------------------------------
    1711 00000292 9000              STR       A1, [SP, #0]          ; [DPU_V7M3_PIPE] |668|  ; [ORIG 16-BIT INS]
    1712                            .dwpsn  file "../driverlib/timer.c",line 677,column 5,is_stmt,isa 1
    1713                    ;----------------------------------------------------------------------
    1714                    ; 677 | HWREG(ui32Base + TIMER_O_CTL) |= TIMER_CTL_RTCEN;                      
    1715                    ;----------------------------------------------------------------------
    1716 00000294 9800              LDR       A1, [SP, #0]          ; [DPU_V7M3_PIPE] |677|  ; [ORIG 16-BIT INS]
    1717 00000296 300C              ADDS      A1, A1, #12           ; [DPU_V7M3_PIPE] |677|  ; [ORIG 16-BIT INS]
    1718 00000298 6801              LDR       A2, [A1, #0]          ; [DPU_V7M3_PIPE] |677|  ; [ORIG 16-BIT INS]
    1719 0000029a 0110F041          ORR       A2, A2, #16           ; [DPU_V7M3_PIPE] |677|  ; [KEEP 32-BIT INS]
    1720 0000029e 6001              STR       A2, [A1, #0]          ; [DPU_V7M3_PIPE] |677|  ; [ORIG 16-BIT INS]
    1721                            .dwpsn  file "../driverlib/timer.c",line 678,column 1,is_stmt,isa 1
    1722 000002a0 B002              ADD       SP, SP, #8            ; [DPU_V7M3_PIPE]  ; [ORIG 16-BIT INS]
    1723                            .dwcfi  cfa_offset, 0
    1724                    $C$DW$85        .dwtag  DW_TAG_TI_branch
    1725                            .dwattr $C$DW$85, DW_AT_low_pc(0x00)
    1726                            .dwattr $C$DW$85, DW_AT_TI_return
    1727                    
    1728 000002a2 4770              BX        LR                    ; [DPU_V7M3_PIPE]  ; [ORIG 16-BIT INS]
    1729                            ; BRANCH OCCURS                  ; [] 
    1730                            .dwattr $C$DW$82, DW_AT_TI_end_file("../driverlib/timer.c")
    1731                            .dwattr $C$DW$82, DW_AT_TI_end_line(0x2a6)
    1732                            .dwattr $C$DW$82, DW_AT_TI_end_column(0x01)
    1733                            .dwendentry
    1734                            .dwendtag $C$DW$82
    1735                    
    1736 000002a4                   .sect   ".text"
    1737                            .clink
    1738                            .thumbfunc TimerRTCDisable
    1739 000002a4                   .thumb
    1740                            .global TimerRTCDisable
    1741                    
    1742                    $C$DW$86        .dwtag  DW_TAG_subprogram
    1743                            .dwattr $C$DW$86, DW_AT_name("TimerRTCDisable")
    1744                            .dwattr $C$DW$86, DW_AT_low_pc(TimerRTCDisable)
    1745                            .dwattr $C$DW$86, DW_AT_high_pc(0x00)
    1746                            .dwattr $C$DW$86, DW_AT_TI_symbol_name("TimerRTCDisable")
    1747                            .dwattr $C$DW$86, DW_AT_external
    1748                            .dwattr $C$DW$86, DW_AT_TI_begin_file("../driverlib/timer.c")
    1749                            .dwattr $C$DW$86, DW_AT_TI_begin_line(0x2b4)
    1750                            .dwattr $C$DW$86, DW_AT_TI_begin_column(0x01)
    1751                            .dwattr $C$DW$86, DW_AT_decl_file("../driverlib/timer.c")
    1752                            .dwattr $C$DW$86, DW_AT_decl_line(0x2b4)
    1753                            .dwattr $C$DW$86, DW_AT_decl_column(0x01)
    1754                            .dwattr $C$DW$86, DW_AT_TI_max_frame_size(0x08)
    1755                            .dwpsn  file "../driverlib/timer.c",line 693,column 1,is_stmt,address TimerRTCDisable,isa 1
    1756                    
    1757                            .dwfde $C$DW$CIE, TimerRTCDisable
    1758                    $C$DW$87        .dwtag  DW_TAG_formal_parameter
    1759                            .dwattr $C$DW$87, DW_AT_name("ui32Base")
    1760                            .dwattr $C$DW$87, DW_AT_TI_symbol_name("ui32Base")
TI ARM Assembler Unix v18.1.1 Fri Jul  3 20:08:26 2020

Tools Copyright (c) 1996-2017 Texas Instruments Incorporated
timer.asm                                                            PAGE   33

    1761                            .dwattr $C$DW$87, DW_AT_type(*$C$DW$T$27)
    1762                            .dwattr $C$DW$87, DW_AT_location[DW_OP_reg0]
    1763                    
    1764                    ;----------------------------------------------------------------------
    1765                    ; 692 | TimerRTCDisable(uint32_t ui32Base)                                     
    1766                    ;----------------------------------------------------------------------
    1767                    
    1768                    ;*****************************************************************************
    1769                    ;* FUNCTION NAME: TimerRTCDisable                                            *
    1770                    ;*                                                                           *
    1771                    ;*   Regs Modified     : A1,A2,SP,SR                                         *
    1772                    ;*   Regs Used         : A1,A2,SP,LR,SR                                      *
    1773                    ;*   Local Frame Size  : 0 Args + 4 Auto + 0 Save = 4 byte                   *
    1774                    ;*****************************************************************************
    1775 000002a4           TimerRTCDisable:
    1776                    ;* --------------------------------------------------------------------------*
    1777                            .dwcfi  cfa_offset, 0
    1778 000002a4 0D08F1AD          SUB       SP, SP, #8            ; [DPU_V7M3_PIPE]  ; [KEEP 32-BIT INS]
    1779                            .dwcfi  cfa_offset, 8
    1780                    $C$DW$88        .dwtag  DW_TAG_variable
    1781                            .dwattr $C$DW$88, DW_AT_name("ui32Base")
    1782                            .dwattr $C$DW$88, DW_AT_TI_symbol_name("ui32Base")
    1783                            .dwattr $C$DW$88, DW_AT_type(*$C$DW$T$27)
    1784                            .dwattr $C$DW$88, DW_AT_location[DW_OP_breg13 0]
    1785                    
    1786                    ;----------------------------------------------------------------------
    1787                    ; 694 | //                                                                     
    1788                    ; 695 | // Check the arguments.                                                
    1789                    ; 696 | //                                                                     
    1790                    ; 697 | ASSERT(_TimerBaseValid(ui32Base));                                     
    1791                    ; 699 | //                                                                     
    1792                    ; 700 | // Disable RTC counting.                                               
    1793                    ; 701 | //                                                                     
    1794                    ;----------------------------------------------------------------------
    1795 000002a8 9000              STR       A1, [SP, #0]          ; [DPU_V7M3_PIPE] |693|  ; [ORIG 16-BIT INS]
    1796                            .dwpsn  file "../driverlib/timer.c",line 702,column 5,is_stmt,isa 1
    1797                    ;----------------------------------------------------------------------
    1798                    ; 702 | HWREG(ui32Base + TIMER_O_CTL) &= ~(TIMER_CTL_RTCEN);                   
    1799                    ;----------------------------------------------------------------------
    1800 000002aa 9800              LDR       A1, [SP, #0]          ; [DPU_V7M3_PIPE] |702|  ; [ORIG 16-BIT INS]
    1801 000002ac 300C              ADDS      A1, A1, #12           ; [DPU_V7M3_PIPE] |702|  ; [ORIG 16-BIT INS]
    1802 000002ae 6801              LDR       A2, [A1, #0]          ; [DPU_V7M3_PIPE] |702|  ; [ORIG 16-BIT INS]
    1803 000002b0 0110F021          BIC       A2, A2, #16           ; [DPU_V7M3_PIPE] |702|  ; [KEEP 32-BIT INS]
    1804 000002b4 6001              STR       A2, [A1, #0]          ; [DPU_V7M3_PIPE] |702|  ; [ORIG 16-BIT INS]
    1805                            .dwpsn  file "../driverlib/timer.c",line 703,column 1,is_stmt,isa 1
    1806 000002b6 B002              ADD       SP, SP, #8            ; [DPU_V7M3_PIPE]  ; [ORIG 16-BIT INS]
    1807                            .dwcfi  cfa_offset, 0
    1808                    $C$DW$89        .dwtag  DW_TAG_TI_branch
    1809                            .dwattr $C$DW$89, DW_AT_low_pc(0x00)
    1810                            .dwattr $C$DW$89, DW_AT_TI_return
    1811                    
    1812 000002b8 4770              BX        LR                    ; [DPU_V7M3_PIPE]  ; [ORIG 16-BIT INS]
    1813                            ; BRANCH OCCURS                  ; [] 
    1814                            .dwattr $C$DW$86, DW_AT_TI_end_file("../driverlib/timer.c")
    1815                            .dwattr $C$DW$86, DW_AT_TI_end_line(0x2bf)
TI ARM Assembler Unix v18.1.1 Fri Jul  3 20:08:26 2020

Tools Copyright (c) 1996-2017 Texas Instruments Incorporated
timer.asm                                                            PAGE   34

    1816                            .dwattr $C$DW$86, DW_AT_TI_end_column(0x01)
    1817                            .dwendentry
    1818                            .dwendtag $C$DW$86
    1819                    
    1820 000002ba                   .sect   ".text"
    1821                            .clink
    1822                            .thumbfunc TimerClockSourceSet
    1823 000002ba                   .thumb
    1824                            .global TimerClockSourceSet
    1825                    
    1826                    $C$DW$90        .dwtag  DW_TAG_subprogram
    1827                            .dwattr $C$DW$90, DW_AT_name("TimerClockSourceSet")
    1828                            .dwattr $C$DW$90, DW_AT_low_pc(TimerClockSourceSet)
    1829                            .dwattr $C$DW$90, DW_AT_high_pc(0x00)
    1830                            .dwattr $C$DW$90, DW_AT_TI_symbol_name("TimerClockSourceSet")
    1831                            .dwattr $C$DW$90, DW_AT_external
    1832                            .dwattr $C$DW$90, DW_AT_TI_begin_file("../driverlib/timer.c")
    1833                            .dwattr $C$DW$90, DW_AT_TI_begin_line(0x2d5)
    1834                            .dwattr $C$DW$90, DW_AT_TI_begin_column(0x01)
    1835                            .dwattr $C$DW$90, DW_AT_decl_file("../driverlib/timer.c")
    1836                            .dwattr $C$DW$90, DW_AT_decl_line(0x2d5)
    1837                            .dwattr $C$DW$90, DW_AT_decl_column(0x01)
    1838                            .dwattr $C$DW$90, DW_AT_TI_max_frame_size(0x08)
    1839                            .dwpsn  file "../driverlib/timer.c",line 726,column 1,is_stmt,address TimerClockSourceSet,isa 
    1840                    
    1841                            .dwfde $C$DW$CIE, TimerClockSourceSet
    1842                    $C$DW$91        .dwtag  DW_TAG_formal_parameter
    1843                            .dwattr $C$DW$91, DW_AT_name("ui32Base")
    1844                            .dwattr $C$DW$91, DW_AT_TI_symbol_name("ui32Base")
    1845                            .dwattr $C$DW$91, DW_AT_type(*$C$DW$T$27)
    1846                            .dwattr $C$DW$91, DW_AT_location[DW_OP_reg0]
    1847                    
    1848                    $C$DW$92        .dwtag  DW_TAG_formal_parameter
    1849                            .dwattr $C$DW$92, DW_AT_name("ui32Source")
    1850                            .dwattr $C$DW$92, DW_AT_TI_symbol_name("ui32Source")
    1851                            .dwattr $C$DW$92, DW_AT_type(*$C$DW$T$27)
    1852                            .dwattr $C$DW$92, DW_AT_location[DW_OP_reg1]
    1853                    
    1854                    ;----------------------------------------------------------------------
    1855                    ; 725 | TimerClockSourceSet(uint32_t ui32Base, uint32_t ui32Source)            
    1856                    ;----------------------------------------------------------------------
    1857                    
    1858                    ;*****************************************************************************
    1859                    ;* FUNCTION NAME: TimerClockSourceSet                                        *
    1860                    ;*                                                                           *
    1861                    ;*   Regs Modified     : A1,A2,SP                                            *
    1862                    ;*   Regs Used         : A1,A2,SP,LR                                         *
    1863                    ;*   Local Frame Size  : 0 Args + 8 Auto + 0 Save = 8 byte                   *
    1864                    ;*****************************************************************************
    1865 000002ba           TimerClockSourceSet:
    1866                    ;* --------------------------------------------------------------------------*
    1867                            .dwcfi  cfa_offset, 0
    1868 000002ba 0D08F1AD          SUB       SP, SP, #8            ; [DPU_V7M3_PIPE]  ; [KEEP 32-BIT INS]
    1869                            .dwcfi  cfa_offset, 8
    1870                    $C$DW$93        .dwtag  DW_TAG_variable
TI ARM Assembler Unix v18.1.1 Fri Jul  3 20:08:26 2020

Tools Copyright (c) 1996-2017 Texas Instruments Incorporated
timer.asm                                                            PAGE   35

    1871                            .dwattr $C$DW$93, DW_AT_name("ui32Base")
    1872                            .dwattr $C$DW$93, DW_AT_TI_symbol_name("ui32Base")
    1873                            .dwattr $C$DW$93, DW_AT_type(*$C$DW$T$27)
    1874                            .dwattr $C$DW$93, DW_AT_location[DW_OP_breg13 0]
    1875                    
    1876                    $C$DW$94        .dwtag  DW_TAG_variable
    1877                            .dwattr $C$DW$94, DW_AT_name("ui32Source")
    1878                            .dwattr $C$DW$94, DW_AT_TI_symbol_name("ui32Source")
    1879                            .dwattr $C$DW$94, DW_AT_type(*$C$DW$T$27)
    1880                            .dwattr $C$DW$94, DW_AT_location[DW_OP_breg13 4]
    1881                    
    1882                    ;----------------------------------------------------------------------
    1883                    ; 727 | //                                                                     
    1884                    ; 728 | // Check the arguments.                                                
    1885                    ; 729 | //                                                                     
    1886                    ; 730 | ASSERT(_TimerBaseValid(ui32Base));                                     
    1887                    ; 731 | ASSERT((ui32Source == TIMER_CLOCK_SYSTEM) ||                           
    1888                    ; 732 |        (ui32Source == TIMER_CLOCK_PIOSC));                             
    1889                    ; 734 | //                                                                     
    1890                    ; 735 | // Set the timer clock source.                                         
    1891                    ; 736 | //                                                                     
    1892                    ;----------------------------------------------------------------------
    1893 000002be 9101              STR       A2, [SP, #4]          ; [DPU_V7M3_PIPE] |726|  ; [ORIG 16-BIT INS]
    1894 000002c0 9000              STR       A1, [SP, #0]          ; [DPU_V7M3_PIPE] |726|  ; [ORIG 16-BIT INS]
    1895                            .dwpsn  file "../driverlib/timer.c",line 737,column 5,is_stmt,isa 1
    1896                    ;----------------------------------------------------------------------
    1897                    ; 737 | HWREG(ui32Base + TIMER_O_CC) = ui32Source;                             
    1898                    ;----------------------------------------------------------------------
    1899 000002c2 9801              LDR       A1, [SP, #4]          ; [DPU_V7M3_PIPE] |737|  ; [ORIG 16-BIT INS]
    1900 000002c4 9900              LDR       A2, [SP, #0]          ; [DPU_V7M3_PIPE] |737|  ; [ORIG 16-BIT INS]
    1901 000002c6 0FC8F8C1          STR       A1, [A2, #4040]       ; [DPU_V7M3_PIPE] |737|  ; [KEEP 32-BIT INS]
    1902                            .dwpsn  file "../driverlib/timer.c",line 738,column 1,is_stmt,isa 1
    1903 000002ca B002              ADD       SP, SP, #8            ; [DPU_V7M3_PIPE]  ; [ORIG 16-BIT INS]
    1904                            .dwcfi  cfa_offset, 0
    1905                    $C$DW$95        .dwtag  DW_TAG_TI_branch
    1906                            .dwattr $C$DW$95, DW_AT_low_pc(0x00)
    1907                            .dwattr $C$DW$95, DW_AT_TI_return
    1908                    
    1909 000002cc 4770              BX        LR                    ; [DPU_V7M3_PIPE]  ; [ORIG 16-BIT INS]
    1910                            ; BRANCH OCCURS                  ; [] 
    1911                            .dwattr $C$DW$90, DW_AT_TI_end_file("../driverlib/timer.c")
    1912                            .dwattr $C$DW$90, DW_AT_TI_end_line(0x2e2)
    1913                            .dwattr $C$DW$90, DW_AT_TI_end_column(0x01)
    1914                            .dwendentry
    1915                            .dwendtag $C$DW$90
    1916                    
    1917                    ;******************************************************************************
    1918                    ;* CONSTANT TABLE                                                             *
    1919                    ;******************************************************************************
    1920 000002ce                   .sect   ".text"
    1921                            .align  4
    1922 000002ce 000046C0! ||$C$CON1||:    .bits   g_ppui32TimerIntMap,32
         000002d2 00000000 
    1923                            .align  4
    1924 000002d2 00000000  ||$C$CON2||:    .bits   1895759872,32
TI ARM Assembler Unix v18.1.1 Fri Jul  3 20:08:26 2020

Tools Copyright (c) 1996-2017 Texas Instruments Incorporated
timer.asm                                                            PAGE   36

         000002d6 000070FF 
    1925                            .align  4
    1926 000002d6 E00070FF  ||$C$CON3||:    .bits   1074782208,32
         000002da 0000400F 
    1927                            .align  4
    1928 000002da 0000400F  ||$C$CON4||:    .bits   269090816,32
         000002de 0000100A 
    1929                            .align  4
    1930 000002de 0000100A! ||$C$CON5||:    .bits   g_ppui32TimerIntMapSnowflake,32
         000002e2 00000000 
    1931 000002e4                   .sect   ".text"
    1932                            .clink
    1933                            .thumbfunc TimerClockSourceGet
    1934 000002e4                   .thumb
    1935                            .global TimerClockSourceGet
    1936                    
    1937                    $C$DW$96        .dwtag  DW_TAG_subprogram
    1938                            .dwattr $C$DW$96, DW_AT_name("TimerClockSourceGet")
    1939                            .dwattr $C$DW$96, DW_AT_low_pc(TimerClockSourceGet)
    1940                            .dwattr $C$DW$96, DW_AT_high_pc(0x00)
    1941                            .dwattr $C$DW$96, DW_AT_TI_symbol_name("TimerClockSourceGet")
    1942                            .dwattr $C$DW$96, DW_AT_external
    1943                            .dwattr $C$DW$96, DW_AT_type(*$C$DW$T$27)
    1944                            .dwattr $C$DW$96, DW_AT_TI_begin_file("../driverlib/timer.c")
    1945                            .dwattr $C$DW$96, DW_AT_TI_begin_line(0x2f6)
    1946                            .dwattr $C$DW$96, DW_AT_TI_begin_column(0x01)
    1947                            .dwattr $C$DW$96, DW_AT_decl_file("../driverlib/timer.c")
    1948                            .dwattr $C$DW$96, DW_AT_decl_line(0x2f6)
    1949                            .dwattr $C$DW$96, DW_AT_decl_column(0x01)
    1950                            .dwattr $C$DW$96, DW_AT_TI_max_frame_size(0x08)
    1951                            .dwpsn  file "../driverlib/timer.c",line 759,column 1,is_stmt,address TimerClockSourceGet,isa 
    1952                    
    1953                            .dwfde $C$DW$CIE, TimerClockSourceGet
    1954                    $C$DW$97        .dwtag  DW_TAG_formal_parameter
    1955                            .dwattr $C$DW$97, DW_AT_name("ui32Base")
    1956                            .dwattr $C$DW$97, DW_AT_TI_symbol_name("ui32Base")
    1957                            .dwattr $C$DW$97, DW_AT_type(*$C$DW$T$27)
    1958                            .dwattr $C$DW$97, DW_AT_location[DW_OP_reg0]
    1959                    
    1960                    ;----------------------------------------------------------------------
    1961                    ; 758 | TimerClockSourceGet(uint32_t ui32Base)                                 
    1962                    ;----------------------------------------------------------------------
    1963                    
    1964                    ;*****************************************************************************
    1965                    ;* FUNCTION NAME: TimerClockSourceGet                                        *
    1966                    ;*                                                                           *
    1967                    ;*   Regs Modified     : A1,SP                                               *
    1968                    ;*   Regs Used         : A1,SP,LR                                            *
    1969                    ;*   Local Frame Size  : 0 Args + 4 Auto + 0 Save = 4 byte                   *
    1970                    ;*****************************************************************************
    1971 000002e4           TimerClockSourceGet:
    1972                    ;* --------------------------------------------------------------------------*
    1973                            .dwcfi  cfa_offset, 0
    1974 000002e4 0D08F1AD          SUB       SP, SP, #8            ; [DPU_V7M3_PIPE]  ; [KEEP 32-BIT INS]
    1975                            .dwcfi  cfa_offset, 8
TI ARM Assembler Unix v18.1.1 Fri Jul  3 20:08:26 2020

Tools Copyright (c) 1996-2017 Texas Instruments Incorporated
timer.asm                                                            PAGE   37

    1976                    $C$DW$98        .dwtag  DW_TAG_variable
    1977                            .dwattr $C$DW$98, DW_AT_name("ui32Base")
    1978                            .dwattr $C$DW$98, DW_AT_TI_symbol_name("ui32Base")
    1979                            .dwattr $C$DW$98, DW_AT_type(*$C$DW$T$27)
    1980                            .dwattr $C$DW$98, DW_AT_location[DW_OP_breg13 0]
    1981                    
    1982                    ;----------------------------------------------------------------------
    1983                    ; 760 | //                                                                     
    1984                    ; 761 | // Check the arguments.                                                
    1985                    ; 762 | //                                                                     
    1986                    ; 763 | ASSERT(_TimerBaseValid(ui32Base));                                     
    1987                    ; 765 | //                                                                     
    1988                    ; 766 | // Return the timer clock source.                                      
    1989                    ; 767 | //                                                                     
    1990                    ;----------------------------------------------------------------------
    1991 000002e8 9000              STR       A1, [SP, #0]          ; [DPU_V7M3_PIPE] |759|  ; [ORIG 16-BIT INS]
    1992                            .dwpsn  file "../driverlib/timer.c",line 768,column 5,is_stmt,isa 1
    1993                    ;----------------------------------------------------------------------
    1994                    ; 768 | return(HWREG(ui32Base + TIMER_O_CC));                                  
    1995                    ;----------------------------------------------------------------------
    1996 000002ea 9800              LDR       A1, [SP, #0]          ; [DPU_V7M3_PIPE] |768|  ; [ORIG 16-BIT INS]
    1997 000002ec 0FC8F8D0          LDR       A1, [A1, #4040]       ; [DPU_V7M3_PIPE] |768|  ; [KEEP 32-BIT INS]
    1998                            .dwpsn  file "../driverlib/timer.c",line 769,column 1,is_stmt,isa 1
    1999 000002f0 B002              ADD       SP, SP, #8            ; [DPU_V7M3_PIPE]  ; [ORIG 16-BIT INS]
    2000                            .dwcfi  cfa_offset, 0
    2001                    $C$DW$99        .dwtag  DW_TAG_TI_branch
    2002                            .dwattr $C$DW$99, DW_AT_low_pc(0x00)
    2003                            .dwattr $C$DW$99, DW_AT_TI_return
    2004                    
    2005 000002f2 4770              BX        LR                    ; [DPU_V7M3_PIPE]  ; [ORIG 16-BIT INS]
    2006                            ; BRANCH OCCURS                  ; [] 
    2007                            .dwattr $C$DW$96, DW_AT_TI_end_file("../driverlib/timer.c")
    2008                            .dwattr $C$DW$96, DW_AT_TI_end_line(0x301)
    2009                            .dwattr $C$DW$96, DW_AT_TI_end_column(0x01)
    2010                            .dwendentry
    2011                            .dwendtag $C$DW$96
    2012                    
    2013 000002f4                   .sect   ".text"
    2014                            .clink
    2015                            .thumbfunc TimerPrescaleSet
    2016 000002f4                   .thumb
    2017                            .global TimerPrescaleSet
    2018                    
    2019                    $C$DW$100       .dwtag  DW_TAG_subprogram
    2020                            .dwattr $C$DW$100, DW_AT_name("TimerPrescaleSet")
    2021                            .dwattr $C$DW$100, DW_AT_low_pc(TimerPrescaleSet)
    2022                            .dwattr $C$DW$100, DW_AT_high_pc(0x00)
    2023                            .dwattr $C$DW$100, DW_AT_TI_symbol_name("TimerPrescaleSet")
    2024                            .dwattr $C$DW$100, DW_AT_external
    2025                            .dwattr $C$DW$100, DW_AT_TI_begin_file("../driverlib/timer.c")
    2026                            .dwattr $C$DW$100, DW_AT_TI_begin_line(0x31c)
    2027                            .dwattr $C$DW$100, DW_AT_TI_begin_column(0x01)
    2028                            .dwattr $C$DW$100, DW_AT_decl_file("../driverlib/timer.c")
    2029                            .dwattr $C$DW$100, DW_AT_decl_line(0x31c)
    2030                            .dwattr $C$DW$100, DW_AT_decl_column(0x01)
TI ARM Assembler Unix v18.1.1 Fri Jul  3 20:08:26 2020

Tools Copyright (c) 1996-2017 Texas Instruments Incorporated
timer.asm                                                            PAGE   38

    2031                            .dwattr $C$DW$100, DW_AT_TI_max_frame_size(0x10)
    2032                            .dwpsn  file "../driverlib/timer.c",line 797,column 1,is_stmt,address TimerPrescaleSet,isa 1
    2033                    
    2034                            .dwfde $C$DW$CIE, TimerPrescaleSet
    2035                    $C$DW$101       .dwtag  DW_TAG_formal_parameter
    2036                            .dwattr $C$DW$101, DW_AT_name("ui32Base")
    2037                            .dwattr $C$DW$101, DW_AT_TI_symbol_name("ui32Base")
    2038                            .dwattr $C$DW$101, DW_AT_type(*$C$DW$T$27)
    2039                            .dwattr $C$DW$101, DW_AT_location[DW_OP_reg0]
    2040                    
    2041                    $C$DW$102       .dwtag  DW_TAG_formal_parameter
    2042                            .dwattr $C$DW$102, DW_AT_name("ui32Timer")
    2043                            .dwattr $C$DW$102, DW_AT_TI_symbol_name("ui32Timer")
    2044                            .dwattr $C$DW$102, DW_AT_type(*$C$DW$T$27)
    2045                            .dwattr $C$DW$102, DW_AT_location[DW_OP_reg1]
    2046                    
    2047                    $C$DW$103       .dwtag  DW_TAG_formal_parameter
    2048                            .dwattr $C$DW$103, DW_AT_name("ui32Value")
    2049                            .dwattr $C$DW$103, DW_AT_TI_symbol_name("ui32Value")
    2050                            .dwattr $C$DW$103, DW_AT_type(*$C$DW$T$27)
    2051                            .dwattr $C$DW$103, DW_AT_location[DW_OP_reg2]
    2052                    
    2053                    ;----------------------------------------------------------------------
    2054                    ; 796 | TimerPrescaleSet(uint32_t ui32Base, uint32_t ui32Timer, uint32_t ui32Va
    2055                    ;     | lue)                                                                   
    2056                    ;----------------------------------------------------------------------
    2057                    
    2058                    ;*****************************************************************************
    2059                    ;* FUNCTION NAME: TimerPrescaleSet                                           *
    2060                    ;*                                                                           *
    2061                    ;*   Regs Modified     : A1,A2,SP,SR                                         *
    2062                    ;*   Regs Used         : A1,A2,A3,SP,LR,SR                                   *
    2063                    ;*   Local Frame Size  : 0 Args + 12 Auto + 0 Save = 12 byte                 *
    2064                    ;*****************************************************************************
    2065 000002f4           TimerPrescaleSet:
    2066                    ;* --------------------------------------------------------------------------*
    2067                            .dwcfi  cfa_offset, 0
    2068 000002f4 0D10F1AD          SUB       SP, SP, #16           ; [DPU_V7M3_PIPE]  ; [KEEP 32-BIT INS]
    2069                            .dwcfi  cfa_offset, 16
    2070                    $C$DW$104       .dwtag  DW_TAG_variable
    2071                            .dwattr $C$DW$104, DW_AT_name("ui32Base")
    2072                            .dwattr $C$DW$104, DW_AT_TI_symbol_name("ui32Base")
    2073                            .dwattr $C$DW$104, DW_AT_type(*$C$DW$T$27)
    2074                            .dwattr $C$DW$104, DW_AT_location[DW_OP_breg13 0]
    2075                    
    2076                    $C$DW$105       .dwtag  DW_TAG_variable
    2077                            .dwattr $C$DW$105, DW_AT_name("ui32Timer")
    2078                            .dwattr $C$DW$105, DW_AT_TI_symbol_name("ui32Timer")
    2079                            .dwattr $C$DW$105, DW_AT_type(*$C$DW$T$27)
    2080                            .dwattr $C$DW$105, DW_AT_location[DW_OP_breg13 4]
    2081                    
    2082                    $C$DW$106       .dwtag  DW_TAG_variable
    2083                            .dwattr $C$DW$106, DW_AT_name("ui32Value")
    2084                            .dwattr $C$DW$106, DW_AT_TI_symbol_name("ui32Value")
    2085                            .dwattr $C$DW$106, DW_AT_type(*$C$DW$T$27)
TI ARM Assembler Unix v18.1.1 Fri Jul  3 20:08:26 2020

Tools Copyright (c) 1996-2017 Texas Instruments Incorporated
timer.asm                                                            PAGE   39

    2086                            .dwattr $C$DW$106, DW_AT_location[DW_OP_breg13 8]
    2087                    
    2088                    ;----------------------------------------------------------------------
    2089                    ; 798 | //                                                                     
    2090                    ; 799 | // Check the arguments.                                                
    2091                    ; 800 | //                                                                     
    2092                    ; 801 | ASSERT(_TimerBaseValid(ui32Base));                                     
    2093                    ; 802 | ASSERT((ui32Timer == TIMER_A) || (ui32Timer == TIMER_B) ||             
    2094                    ; 803 |        (ui32Timer == TIMER_BOTH));                                     
    2095                    ; 804 | ASSERT(ui32Value < 256);                                               
    2096                    ; 806 | //                                                                     
    2097                    ; 807 | // Set the timer A prescaler if requested.                             
    2098                    ; 808 | //                                                                     
    2099                    ;----------------------------------------------------------------------
    2100 000002f8 9202              STR       A3, [SP, #8]          ; [DPU_V7M3_PIPE] |797|  ; [ORIG 16-BIT INS]
    2101 000002fa 9101              STR       A2, [SP, #4]          ; [DPU_V7M3_PIPE] |797|  ; [ORIG 16-BIT INS]
    2102 000002fc 9000              STR       A1, [SP, #0]          ; [DPU_V7M3_PIPE] |797|  ; [ORIG 16-BIT INS]
    2103                            .dwpsn  file "../driverlib/timer.c",line 809,column 5,is_stmt,isa 1
    2104                    ;----------------------------------------------------------------------
    2105                    ; 809 | if(ui32Timer & TIMER_A)                                                
    2106                    ;----------------------------------------------------------------------
    2107 000002fe 9801              LDR       A1, [SP, #4]          ; [DPU_V7M3_PIPE] |809|  ; [ORIG 16-BIT INS]
    2108 00000300 0FFFF010          TST       A1, #255              ; [DPU_V7M3_PIPE] |809|  ; [KEEP 32-BIT INS]
    2109 00000304 D002              BEQ       ||$C$L22||            ; [DPU_V7M3_PIPE] |809|  ; [ORIG 16-BIT INS]
    2110                            ; BRANCHCC OCCURS {||$C$L22||}   ; [] |809| 
    2111                    ;* --------------------------------------------------------------------------*
    2112                            .dwpsn  file "../driverlib/timer.c",line 811,column 9,is_stmt,isa 1
    2113                    ;----------------------------------------------------------------------
    2114                    ; 811 | HWREG(ui32Base + TIMER_O_TAPR) = ui32Value;                            
    2115                    ; 814 | //                                                                     
    2116                    ; 815 | // Set the timer B prescaler if requested.                             
    2117                    ; 816 | //                                                                     
    2118                    ;----------------------------------------------------------------------
    2119 00000306 9802              LDR       A1, [SP, #8]          ; [DPU_V7M3_PIPE] |811|  ; [ORIG 16-BIT INS]
    2120 00000308 9900              LDR       A2, [SP, #0]          ; [DPU_V7M3_PIPE] |811|  ; [ORIG 16-BIT INS]
    2121 0000030a 6388              STR       A1, [A2, #56]         ; [DPU_V7M3_PIPE] |811|  ; [ORIG 16-BIT INS]
    2122                    ;* --------------------------------------------------------------------------*
    2123 0000030c           ||$C$L22||:    
    2124                            .dwpsn  file "../driverlib/timer.c",line 817,column 5,is_stmt,isa 1
    2125                    ;----------------------------------------------------------------------
    2126                    ; 817 | if(ui32Timer & TIMER_B)                                                
    2127                    ;----------------------------------------------------------------------
    2128 0000030c 9801              LDR       A1, [SP, #4]          ; [DPU_V7M3_PIPE] |817|  ; [ORIG 16-BIT INS]
    2129 0000030e 4F7FF410          TST       A1, #65280            ; [DPU_V7M3_PIPE] |817|  ; [KEEP 32-BIT INS]
    2130 00000312 D002              BEQ       ||$C$L23||            ; [DPU_V7M3_PIPE] |817|  ; [ORIG 16-BIT INS]
    2131                            ; BRANCHCC OCCURS {||$C$L23||}   ; [] |817| 
    2132                    ;* --------------------------------------------------------------------------*
    2133                            .dwpsn  file "../driverlib/timer.c",line 819,column 9,is_stmt,isa 1
    2134                    ;----------------------------------------------------------------------
    2135                    ; 819 | HWREG(ui32Base + TIMER_O_TBPR) = ui32Value;                            
    2136                    ;----------------------------------------------------------------------
    2137 00000314 9802              LDR       A1, [SP, #8]          ; [DPU_V7M3_PIPE] |819|  ; [ORIG 16-BIT INS]
    2138 00000316 9900              LDR       A2, [SP, #0]          ; [DPU_V7M3_PIPE] |819|  ; [ORIG 16-BIT INS]
    2139 00000318 63C8              STR       A1, [A2, #60]         ; [DPU_V7M3_PIPE] |819|  ; [ORIG 16-BIT INS]
    2140                            .dwpsn  file "../driverlib/timer.c",line 821,column 1,is_stmt,isa 1
TI ARM Assembler Unix v18.1.1 Fri Jul  3 20:08:26 2020

Tools Copyright (c) 1996-2017 Texas Instruments Incorporated
timer.asm                                                            PAGE   40

    2141                    ;* --------------------------------------------------------------------------*
    2142 0000031a           ||$C$L23||:    
    2143 0000031a B004              ADD       SP, SP, #16           ; [DPU_V7M3_PIPE]  ; [ORIG 16-BIT INS]
    2144                            .dwcfi  cfa_offset, 0
    2145                    $C$DW$107       .dwtag  DW_TAG_TI_branch
    2146                            .dwattr $C$DW$107, DW_AT_low_pc(0x00)
    2147                            .dwattr $C$DW$107, DW_AT_TI_return
    2148                    
    2149 0000031c 4770              BX        LR                    ; [DPU_V7M3_PIPE]  ; [ORIG 16-BIT INS]
    2150                            ; BRANCH OCCURS                  ; [] 
    2151                            .dwattr $C$DW$100, DW_AT_TI_end_file("../driverlib/timer.c")
    2152                            .dwattr $C$DW$100, DW_AT_TI_end_line(0x335)
    2153                            .dwattr $C$DW$100, DW_AT_TI_end_column(0x01)
    2154                            .dwendentry
    2155                            .dwendtag $C$DW$100
    2156                    
    2157 0000031e                   .sect   ".text"
    2158                            .clink
    2159                            .thumbfunc TimerPrescaleGet
    2160 0000031e                   .thumb
    2161                            .global TimerPrescaleGet
    2162                    
    2163                    $C$DW$108       .dwtag  DW_TAG_subprogram
    2164                            .dwattr $C$DW$108, DW_AT_name("TimerPrescaleGet")
    2165                            .dwattr $C$DW$108, DW_AT_low_pc(TimerPrescaleGet)
    2166                            .dwattr $C$DW$108, DW_AT_high_pc(0x00)
    2167                            .dwattr $C$DW$108, DW_AT_TI_symbol_name("TimerPrescaleGet")
    2168                            .dwattr $C$DW$108, DW_AT_external
    2169                            .dwattr $C$DW$108, DW_AT_type(*$C$DW$T$27)
    2170                            .dwattr $C$DW$108, DW_AT_TI_begin_file("../driverlib/timer.c")
    2171                            .dwattr $C$DW$108, DW_AT_TI_begin_line(0x34d)
    2172                            .dwattr $C$DW$108, DW_AT_TI_begin_column(0x01)
    2173                            .dwattr $C$DW$108, DW_AT_decl_file("../driverlib/timer.c")
    2174                            .dwattr $C$DW$108, DW_AT_decl_line(0x34d)
    2175                            .dwattr $C$DW$108, DW_AT_decl_column(0x01)
    2176                            .dwattr $C$DW$108, DW_AT_TI_max_frame_size(0x08)
    2177                            .dwpsn  file "../driverlib/timer.c",line 846,column 1,is_stmt,address TimerPrescaleGet,isa 1
    2178                    
    2179                            .dwfde $C$DW$CIE, TimerPrescaleGet
    2180                    $C$DW$109       .dwtag  DW_TAG_formal_parameter
    2181                            .dwattr $C$DW$109, DW_AT_name("ui32Base")
    2182                            .dwattr $C$DW$109, DW_AT_TI_symbol_name("ui32Base")
    2183                            .dwattr $C$DW$109, DW_AT_type(*$C$DW$T$27)
    2184                            .dwattr $C$DW$109, DW_AT_location[DW_OP_reg0]
    2185                    
    2186                    $C$DW$110       .dwtag  DW_TAG_formal_parameter
    2187                            .dwattr $C$DW$110, DW_AT_name("ui32Timer")
    2188                            .dwattr $C$DW$110, DW_AT_TI_symbol_name("ui32Timer")
    2189                            .dwattr $C$DW$110, DW_AT_type(*$C$DW$T$27)
    2190                            .dwattr $C$DW$110, DW_AT_location[DW_OP_reg1]
    2191                    
    2192                    ;----------------------------------------------------------------------
    2193                    ; 845 | TimerPrescaleGet(uint32_t ui32Base, uint32_t ui32Timer)                
    2194                    ;----------------------------------------------------------------------
    2195                    
TI ARM Assembler Unix v18.1.1 Fri Jul  3 20:08:26 2020

Tools Copyright (c) 1996-2017 Texas Instruments Incorporated
timer.asm                                                            PAGE   41

    2196                    ;*****************************************************************************
    2197                    ;* FUNCTION NAME: TimerPrescaleGet                                           *
    2198                    ;*                                                                           *
    2199                    ;*   Regs Modified     : A1,SP,SR                                            *
    2200                    ;*   Regs Used         : A1,A2,SP,LR,SR                                      *
    2201                    ;*   Local Frame Size  : 0 Args + 8 Auto + 0 Save = 8 byte                   *
    2202                    ;*****************************************************************************
    2203 0000031e           TimerPrescaleGet:
    2204                    ;* --------------------------------------------------------------------------*
    2205                            .dwcfi  cfa_offset, 0
    2206 0000031e 0D08F1AD          SUB       SP, SP, #8            ; [DPU_V7M3_PIPE]  ; [KEEP 32-BIT INS]
    2207                            .dwcfi  cfa_offset, 8
    2208                    $C$DW$111       .dwtag  DW_TAG_variable
    2209                            .dwattr $C$DW$111, DW_AT_name("ui32Base")
    2210                            .dwattr $C$DW$111, DW_AT_TI_symbol_name("ui32Base")
    2211                            .dwattr $C$DW$111, DW_AT_type(*$C$DW$T$27)
    2212                            .dwattr $C$DW$111, DW_AT_location[DW_OP_breg13 0]
    2213                    
    2214                    $C$DW$112       .dwtag  DW_TAG_variable
    2215                            .dwattr $C$DW$112, DW_AT_name("ui32Timer")
    2216                            .dwattr $C$DW$112, DW_AT_TI_symbol_name("ui32Timer")
    2217                            .dwattr $C$DW$112, DW_AT_type(*$C$DW$T$27)
    2218                            .dwattr $C$DW$112, DW_AT_location[DW_OP_breg13 4]
    2219                    
    2220                    ;----------------------------------------------------------------------
    2221                    ; 847 | //                                                                     
    2222                    ; 848 | // Check the arguments.                                                
    2223                    ; 849 | //                                                                     
    2224                    ; 850 | ASSERT(_TimerBaseValid(ui32Base));                                     
    2225                    ; 851 | ASSERT((ui32Timer == TIMER_A) || (ui32Timer == TIMER_B) ||             
    2226                    ; 852 |        (ui32Timer == TIMER_BOTH));                                     
    2227                    ; 854 | //                                                                     
    2228                    ; 855 | // Return the appropriate prescale value.                              
    2229                    ; 856 | //                                                                     
    2230                    ;----------------------------------------------------------------------
    2231 00000322 9101              STR       A2, [SP, #4]          ; [DPU_V7M3_PIPE] |846|  ; [ORIG 16-BIT INS]
    2232 00000324 9000              STR       A1, [SP, #0]          ; [DPU_V7M3_PIPE] |846|  ; [ORIG 16-BIT INS]
    2233                            .dwpsn  file "../driverlib/timer.c",line 857,column 5,is_stmt,isa 1
    2234                    ;----------------------------------------------------------------------
    2235                    ; 857 | return((ui32Timer == TIMER_A) ? HWREG(ui32Base + TIMER_O_TAPR) :       
    2236                    ; 858 |        HWREG(ui32Base + TIMER_O_TBPR));                                
    2237                    ;----------------------------------------------------------------------
    2238 00000326 9801              LDR       A1, [SP, #4]          ; [DPU_V7M3_PIPE] |857|  ; [ORIG 16-BIT INS]
    2239 00000328 28FF              CMP       A1, #255              ; [DPU_V7M3_PIPE] |857|  ; [ORIG 16-BIT INS]
    2240 0000032a D102              BNE       ||$C$L24||            ; [DPU_V7M3_PIPE] |857|  ; [ORIG 16-BIT INS]
    2241                            ; BRANCHCC OCCURS {||$C$L24||}   ; [] |857| 
    2242                    ;* --------------------------------------------------------------------------*
    2243 0000032c 9800              LDR       A1, [SP, #0]          ; [DPU_V7M3_PIPE] |857|  ; [ORIG 16-BIT INS]
    2244 0000032e 6B80              LDR       A1, [A1, #56]         ; [DPU_V7M3_PIPE] |857|  ; [ORIG 16-BIT INS]
    2245 00000330 E001              B         ||$C$L25||            ; [DPU_V7M3_PIPE] |857|  ; [ORIG 16-BIT INS]
    2246                            ; BRANCH OCCURS {||$C$L25||}     ; [] |857| 
    2247                    ;* --------------------------------------------------------------------------*
    2248 00000332           ||$C$L24||:    
    2249 00000332 9800              LDR       A1, [SP, #0]          ; [DPU_V7M3_PIPE] |857|  ; [ORIG 16-BIT INS]
    2250 00000334 6BC0              LDR       A1, [A1, #60]         ; [DPU_V7M3_PIPE] |857|  ; [ORIG 16-BIT INS]
TI ARM Assembler Unix v18.1.1 Fri Jul  3 20:08:26 2020

Tools Copyright (c) 1996-2017 Texas Instruments Incorporated
timer.asm                                                            PAGE   42

    2251                    ;* --------------------------------------------------------------------------*
    2252 00000336           ||$C$L25||:    
    2253                            .dwpsn  file "../driverlib/timer.c",line 859,column 1,is_stmt,isa 1
    2254 00000336 B002              ADD       SP, SP, #8            ; [DPU_V7M3_PIPE]  ; [ORIG 16-BIT INS]
    2255                            .dwcfi  cfa_offset, 0
    2256                    $C$DW$113       .dwtag  DW_TAG_TI_branch
    2257                            .dwattr $C$DW$113, DW_AT_low_pc(0x00)
    2258                            .dwattr $C$DW$113, DW_AT_TI_return
    2259                    
    2260 00000338 4770              BX        LR                    ; [DPU_V7M3_PIPE]  ; [ORIG 16-BIT INS]
    2261                            ; BRANCH OCCURS                  ; [] 
    2262                            .dwattr $C$DW$108, DW_AT_TI_end_file("../driverlib/timer.c")
    2263                            .dwattr $C$DW$108, DW_AT_TI_end_line(0x35b)
    2264                            .dwattr $C$DW$108, DW_AT_TI_end_column(0x01)
    2265                            .dwendentry
    2266                            .dwendtag $C$DW$108
    2267                    
    2268 0000033a                   .sect   ".text"
    2269                            .clink
    2270                            .thumbfunc TimerPrescaleMatchSet
    2271 0000033a                   .thumb
    2272                            .global TimerPrescaleMatchSet
    2273                    
    2274                    $C$DW$114       .dwtag  DW_TAG_subprogram
    2275                            .dwattr $C$DW$114, DW_AT_name("TimerPrescaleMatchSet")
    2276                            .dwattr $C$DW$114, DW_AT_low_pc(TimerPrescaleMatchSet)
    2277                            .dwattr $C$DW$114, DW_AT_high_pc(0x00)
    2278                            .dwattr $C$DW$114, DW_AT_TI_symbol_name("TimerPrescaleMatchSet")
    2279                            .dwattr $C$DW$114, DW_AT_external
    2280                            .dwattr $C$DW$114, DW_AT_TI_begin_file("../driverlib/timer.c")
    2281                            .dwattr $C$DW$114, DW_AT_TI_begin_line(0x377)
    2282                            .dwattr $C$DW$114, DW_AT_TI_begin_column(0x01)
    2283                            .dwattr $C$DW$114, DW_AT_decl_file("../driverlib/timer.c")
    2284                            .dwattr $C$DW$114, DW_AT_decl_line(0x377)
    2285                            .dwattr $C$DW$114, DW_AT_decl_column(0x01)
    2286                            .dwattr $C$DW$114, DW_AT_TI_max_frame_size(0x10)
    2287                            .dwpsn  file "../driverlib/timer.c",line 889,column 1,is_stmt,address TimerPrescaleMatchSet,is
    2288                    
    2289                            .dwfde $C$DW$CIE, TimerPrescaleMatchSet
    2290                    $C$DW$115       .dwtag  DW_TAG_formal_parameter
    2291                            .dwattr $C$DW$115, DW_AT_name("ui32Base")
    2292                            .dwattr $C$DW$115, DW_AT_TI_symbol_name("ui32Base")
    2293                            .dwattr $C$DW$115, DW_AT_type(*$C$DW$T$27)
    2294                            .dwattr $C$DW$115, DW_AT_location[DW_OP_reg0]
    2295                    
    2296                    $C$DW$116       .dwtag  DW_TAG_formal_parameter
    2297                            .dwattr $C$DW$116, DW_AT_name("ui32Timer")
    2298                            .dwattr $C$DW$116, DW_AT_TI_symbol_name("ui32Timer")
    2299                            .dwattr $C$DW$116, DW_AT_type(*$C$DW$T$27)
    2300                            .dwattr $C$DW$116, DW_AT_location[DW_OP_reg1]
    2301                    
    2302                    $C$DW$117       .dwtag  DW_TAG_formal_parameter
    2303                            .dwattr $C$DW$117, DW_AT_name("ui32Value")
    2304                            .dwattr $C$DW$117, DW_AT_TI_symbol_name("ui32Value")
    2305                            .dwattr $C$DW$117, DW_AT_type(*$C$DW$T$27)
TI ARM Assembler Unix v18.1.1 Fri Jul  3 20:08:26 2020

Tools Copyright (c) 1996-2017 Texas Instruments Incorporated
timer.asm                                                            PAGE   43

    2306                            .dwattr $C$DW$117, DW_AT_location[DW_OP_reg2]
    2307                    
    2308                    ;----------------------------------------------------------------------
    2309                    ; 887 | TimerPrescaleMatchSet(uint32_t ui32Base, uint32_t ui32Timer,           
    2310                    ; 888 | uint32_t ui32Value)                                                    
    2311                    ;----------------------------------------------------------------------
    2312                    
    2313                    ;*****************************************************************************
    2314                    ;* FUNCTION NAME: TimerPrescaleMatchSet                                      *
    2315                    ;*                                                                           *
    2316                    ;*   Regs Modified     : A1,A2,SP,SR                                         *
    2317                    ;*   Regs Used         : A1,A2,A3,SP,LR,SR                                   *
    2318                    ;*   Local Frame Size  : 0 Args + 12 Auto + 0 Save = 12 byte                 *
    2319                    ;*****************************************************************************
    2320 0000033a           TimerPrescaleMatchSet:
    2321                    ;* --------------------------------------------------------------------------*
    2322                            .dwcfi  cfa_offset, 0
    2323 0000033a 0D10F1AD          SUB       SP, SP, #16           ; [DPU_V7M3_PIPE]  ; [KEEP 32-BIT INS]
    2324                            .dwcfi  cfa_offset, 16
    2325                    $C$DW$118       .dwtag  DW_TAG_variable
    2326                            .dwattr $C$DW$118, DW_AT_name("ui32Base")
    2327                            .dwattr $C$DW$118, DW_AT_TI_symbol_name("ui32Base")
    2328                            .dwattr $C$DW$118, DW_AT_type(*$C$DW$T$27)
    2329                            .dwattr $C$DW$118, DW_AT_location[DW_OP_breg13 0]
    2330                    
    2331                    $C$DW$119       .dwtag  DW_TAG_variable
    2332                            .dwattr $C$DW$119, DW_AT_name("ui32Timer")
    2333                            .dwattr $C$DW$119, DW_AT_TI_symbol_name("ui32Timer")
    2334                            .dwattr $C$DW$119, DW_AT_type(*$C$DW$T$27)
    2335                            .dwattr $C$DW$119, DW_AT_location[DW_OP_breg13 4]
    2336                    
    2337                    $C$DW$120       .dwtag  DW_TAG_variable
    2338                            .dwattr $C$DW$120, DW_AT_name("ui32Value")
    2339                            .dwattr $C$DW$120, DW_AT_TI_symbol_name("ui32Value")
    2340                            .dwattr $C$DW$120, DW_AT_type(*$C$DW$T$27)
    2341                            .dwattr $C$DW$120, DW_AT_location[DW_OP_breg13 8]
    2342                    
    2343                    ;----------------------------------------------------------------------
    2344                    ; 890 | //                                                                     
    2345                    ; 891 | // Check the arguments.                                                
    2346                    ; 892 | //                                                                     
    2347                    ; 893 | ASSERT(_TimerBaseValid(ui32Base));                                     
    2348                    ; 894 | ASSERT((ui32Timer == TIMER_A) || (ui32Timer == TIMER_B) ||             
    2349                    ; 895 |        (ui32Timer == TIMER_BOTH));                                     
    2350                    ; 896 | ASSERT(ui32Value < 256);                                               
    2351                    ; 898 | //                                                                     
    2352                    ; 899 | // Set the timer A prescale match if requested.                        
    2353                    ; 900 | //                                                                     
    2354                    ;----------------------------------------------------------------------
    2355 0000033e 9202              STR       A3, [SP, #8]          ; [DPU_V7M3_PIPE] |889|  ; [ORIG 16-BIT INS]
    2356 00000340 9101              STR       A2, [SP, #4]          ; [DPU_V7M3_PIPE] |889|  ; [ORIG 16-BIT INS]
    2357 00000342 9000              STR       A1, [SP, #0]          ; [DPU_V7M3_PIPE] |889|  ; [ORIG 16-BIT INS]
    2358                            .dwpsn  file "../driverlib/timer.c",line 901,column 5,is_stmt,isa 1
    2359                    ;----------------------------------------------------------------------
    2360                    ; 901 | if(ui32Timer & TIMER_A)                                                
TI ARM Assembler Unix v18.1.1 Fri Jul  3 20:08:26 2020

Tools Copyright (c) 1996-2017 Texas Instruments Incorporated
timer.asm                                                            PAGE   44

    2361                    ;----------------------------------------------------------------------
    2362 00000344 9801              LDR       A1, [SP, #4]          ; [DPU_V7M3_PIPE] |901|  ; [ORIG 16-BIT INS]
    2363 00000346 0FFFF010          TST       A1, #255              ; [DPU_V7M3_PIPE] |901|  ; [KEEP 32-BIT INS]
    2364 0000034a D002              BEQ       ||$C$L26||            ; [DPU_V7M3_PIPE] |901|  ; [ORIG 16-BIT INS]
    2365                            ; BRANCHCC OCCURS {||$C$L26||}   ; [] |901| 
    2366                    ;* --------------------------------------------------------------------------*
    2367                            .dwpsn  file "../driverlib/timer.c",line 903,column 9,is_stmt,isa 1
    2368                    ;----------------------------------------------------------------------
    2369                    ; 903 | HWREG(ui32Base + TIMER_O_TAPMR) = ui32Value;                           
    2370                    ; 906 | //                                                                     
    2371                    ; 907 | // Set the timer B prescale match if requested.                        
    2372                    ; 908 | //                                                                     
    2373                    ;----------------------------------------------------------------------
    2374 0000034c 9802              LDR       A1, [SP, #8]          ; [DPU_V7M3_PIPE] |903|  ; [ORIG 16-BIT INS]
    2375 0000034e 9900              LDR       A2, [SP, #0]          ; [DPU_V7M3_PIPE] |903|  ; [ORIG 16-BIT INS]
    2376 00000350 6408              STR       A1, [A2, #64]         ; [DPU_V7M3_PIPE] |903|  ; [ORIG 16-BIT INS]
    2377                    ;* --------------------------------------------------------------------------*
    2378 00000352           ||$C$L26||:    
    2379                            .dwpsn  file "../driverlib/timer.c",line 909,column 5,is_stmt,isa 1
    2380                    ;----------------------------------------------------------------------
    2381                    ; 909 | if(ui32Timer & TIMER_B)                                                
    2382                    ;----------------------------------------------------------------------
    2383 00000352 9801              LDR       A1, [SP, #4]          ; [DPU_V7M3_PIPE] |909|  ; [ORIG 16-BIT INS]
    2384 00000354 4F7FF410          TST       A1, #65280            ; [DPU_V7M3_PIPE] |909|  ; [KEEP 32-BIT INS]
    2385 00000358 D002              BEQ       ||$C$L27||            ; [DPU_V7M3_PIPE] |909|  ; [ORIG 16-BIT INS]
    2386                            ; BRANCHCC OCCURS {||$C$L27||}   ; [] |909| 
    2387                    ;* --------------------------------------------------------------------------*
    2388                            .dwpsn  file "../driverlib/timer.c",line 911,column 9,is_stmt,isa 1
    2389                    ;----------------------------------------------------------------------
    2390                    ; 911 | HWREG(ui32Base + TIMER_O_TBPMR) = ui32Value;                           
    2391                    ;----------------------------------------------------------------------
    2392 0000035a 9802              LDR       A1, [SP, #8]          ; [DPU_V7M3_PIPE] |911|  ; [ORIG 16-BIT INS]
    2393 0000035c 9900              LDR       A2, [SP, #0]          ; [DPU_V7M3_PIPE] |911|  ; [ORIG 16-BIT INS]
    2394 0000035e 6448              STR       A1, [A2, #68]         ; [DPU_V7M3_PIPE] |911|  ; [ORIG 16-BIT INS]
    2395                            .dwpsn  file "../driverlib/timer.c",line 913,column 1,is_stmt,isa 1
    2396                    ;* --------------------------------------------------------------------------*
    2397 00000360           ||$C$L27||:    
    2398 00000360 B004              ADD       SP, SP, #16           ; [DPU_V7M3_PIPE]  ; [ORIG 16-BIT INS]
    2399                            .dwcfi  cfa_offset, 0
    2400                    $C$DW$121       .dwtag  DW_TAG_TI_branch
    2401                            .dwattr $C$DW$121, DW_AT_low_pc(0x00)
    2402                            .dwattr $C$DW$121, DW_AT_TI_return
    2403                    
    2404 00000362 4770              BX        LR                    ; [DPU_V7M3_PIPE]  ; [ORIG 16-BIT INS]
    2405                            ; BRANCH OCCURS                  ; [] 
    2406                            .dwattr $C$DW$114, DW_AT_TI_end_file("../driverlib/timer.c")
    2407                            .dwattr $C$DW$114, DW_AT_TI_end_line(0x391)
    2408                            .dwattr $C$DW$114, DW_AT_TI_end_column(0x01)
    2409                            .dwendentry
    2410                            .dwendtag $C$DW$114
    2411                    
    2412                    ;******************************************************************************
    2413                    ;* CONSTANT TABLE                                                             *
    2414                    ;******************************************************************************
    2415 00000364                   .sect   ".text"
TI ARM Assembler Unix v18.1.1 Fri Jul  3 20:08:26 2020

Tools Copyright (c) 1996-2017 Texas Instruments Incorporated
timer.asm                                                            PAGE   45

    2416                            .align  4
    2417 00000364 FFFFFEFE  ||$C$CON6||:    .bits   -258,32
    2418 00000368                   .sect   ".text"
    2419                            .clink
    2420                            .thumbfunc TimerPrescaleMatchGet
    2421 00000368                   .thumb
    2422                            .global TimerPrescaleMatchGet
    2423                    
    2424                    $C$DW$122       .dwtag  DW_TAG_subprogram
    2425                            .dwattr $C$DW$122, DW_AT_name("TimerPrescaleMatchGet")
    2426                            .dwattr $C$DW$122, DW_AT_low_pc(TimerPrescaleMatchGet)
    2427                            .dwattr $C$DW$122, DW_AT_high_pc(0x00)
    2428                            .dwattr $C$DW$122, DW_AT_TI_symbol_name("TimerPrescaleMatchGet")
    2429                            .dwattr $C$DW$122, DW_AT_external
    2430                            .dwattr $C$DW$122, DW_AT_type(*$C$DW$T$27)
    2431                            .dwattr $C$DW$122, DW_AT_TI_begin_file("../driverlib/timer.c")
    2432                            .dwattr $C$DW$122, DW_AT_TI_begin_line(0x3aa)
    2433                            .dwattr $C$DW$122, DW_AT_TI_begin_column(0x01)
    2434                            .dwattr $C$DW$122, DW_AT_decl_file("../driverlib/timer.c")
    2435                            .dwattr $C$DW$122, DW_AT_decl_line(0x3aa)
    2436                            .dwattr $C$DW$122, DW_AT_decl_column(0x01)
    2437                            .dwattr $C$DW$122, DW_AT_TI_max_frame_size(0x08)
    2438                            .dwpsn  file "../driverlib/timer.c",line 939,column 1,is_stmt,address TimerPrescaleMatchGet,is
    2439                    
    2440                            .dwfde $C$DW$CIE, TimerPrescaleMatchGet
    2441                    $C$DW$123       .dwtag  DW_TAG_formal_parameter
    2442                            .dwattr $C$DW$123, DW_AT_name("ui32Base")
    2443                            .dwattr $C$DW$123, DW_AT_TI_symbol_name("ui32Base")
    2444                            .dwattr $C$DW$123, DW_AT_type(*$C$DW$T$27)
    2445                            .dwattr $C$DW$123, DW_AT_location[DW_OP_reg0]
    2446                    
    2447                    $C$DW$124       .dwtag  DW_TAG_formal_parameter
    2448                            .dwattr $C$DW$124, DW_AT_name("ui32Timer")
    2449                            .dwattr $C$DW$124, DW_AT_TI_symbol_name("ui32Timer")
    2450                            .dwattr $C$DW$124, DW_AT_type(*$C$DW$T$27)
    2451                            .dwattr $C$DW$124, DW_AT_location[DW_OP_reg1]
    2452                    
    2453                    ;----------------------------------------------------------------------
    2454                    ; 938 | TimerPrescaleMatchGet(uint32_t ui32Base, uint32_t ui32Timer)           
    2455                    ;----------------------------------------------------------------------
    2456                    
    2457                    ;*****************************************************************************
    2458                    ;* FUNCTION NAME: TimerPrescaleMatchGet                                      *
    2459                    ;*                                                                           *
    2460                    ;*   Regs Modified     : A1,SP,SR                                            *
    2461                    ;*   Regs Used         : A1,A2,SP,LR,SR                                      *
    2462                    ;*   Local Frame Size  : 0 Args + 8 Auto + 0 Save = 8 byte                   *
    2463                    ;*****************************************************************************
    2464 00000368           TimerPrescaleMatchGet:
    2465                    ;* --------------------------------------------------------------------------*
    2466                            .dwcfi  cfa_offset, 0
    2467 00000368 0D08F1AD          SUB       SP, SP, #8            ; [DPU_V7M3_PIPE]  ; [KEEP 32-BIT INS]
    2468                            .dwcfi  cfa_offset, 8
    2469                    $C$DW$125       .dwtag  DW_TAG_variable
    2470                            .dwattr $C$DW$125, DW_AT_name("ui32Base")
TI ARM Assembler Unix v18.1.1 Fri Jul  3 20:08:26 2020

Tools Copyright (c) 1996-2017 Texas Instruments Incorporated
timer.asm                                                            PAGE   46

    2471                            .dwattr $C$DW$125, DW_AT_TI_symbol_name("ui32Base")
    2472                            .dwattr $C$DW$125, DW_AT_type(*$C$DW$T$27)
    2473                            .dwattr $C$DW$125, DW_AT_location[DW_OP_breg13 0]
    2474                    
    2475                    $C$DW$126       .dwtag  DW_TAG_variable
    2476                            .dwattr $C$DW$126, DW_AT_name("ui32Timer")
    2477                            .dwattr $C$DW$126, DW_AT_TI_symbol_name("ui32Timer")
    2478                            .dwattr $C$DW$126, DW_AT_type(*$C$DW$T$27)
    2479                            .dwattr $C$DW$126, DW_AT_location[DW_OP_breg13 4]
    2480                    
    2481                    ;----------------------------------------------------------------------
    2482                    ; 940 | //                                                                     
    2483                    ; 941 | // Check the arguments.                                                
    2484                    ; 942 | //                                                                     
    2485                    ; 943 | ASSERT(_TimerBaseValid(ui32Base));                                     
    2486                    ; 944 | ASSERT((ui32Timer == TIMER_A) || (ui32Timer == TIMER_B) ||             
    2487                    ; 945 |        (ui32Timer == TIMER_BOTH));                                     
    2488                    ; 947 | //                                                                     
    2489                    ; 948 | // Return the appropriate prescale match value.                        
    2490                    ; 949 | //                                                                     
    2491                    ;----------------------------------------------------------------------
    2492 0000036c 9101              STR       A2, [SP, #4]          ; [DPU_V7M3_PIPE] |939|  ; [ORIG 16-BIT INS]
    2493 0000036e 9000              STR       A1, [SP, #0]          ; [DPU_V7M3_PIPE] |939|  ; [ORIG 16-BIT INS]
    2494                            .dwpsn  file "../driverlib/timer.c",line 950,column 5,is_stmt,isa 1
    2495                    ;----------------------------------------------------------------------
    2496                    ; 950 | return((ui32Timer == TIMER_A) ? HWREG(ui32Base + TIMER_O_TAPMR) :      
    2497                    ; 951 |        HWREG(ui32Base + TIMER_O_TBPMR));                               
    2498                    ;----------------------------------------------------------------------
    2499 00000370 9801              LDR       A1, [SP, #4]          ; [DPU_V7M3_PIPE] |950|  ; [ORIG 16-BIT INS]
    2500 00000372 28FF              CMP       A1, #255              ; [DPU_V7M3_PIPE] |950|  ; [ORIG 16-BIT INS]
    2501 00000374 D102              BNE       ||$C$L28||            ; [DPU_V7M3_PIPE] |950|  ; [ORIG 16-BIT INS]
    2502                            ; BRANCHCC OCCURS {||$C$L28||}   ; [] |950| 
    2503                    ;* --------------------------------------------------------------------------*
    2504 00000376 9800              LDR       A1, [SP, #0]          ; [DPU_V7M3_PIPE] |950|  ; [ORIG 16-BIT INS]
    2505 00000378 6C00              LDR       A1, [A1, #64]         ; [DPU_V7M3_PIPE] |950|  ; [ORIG 16-BIT INS]
    2506 0000037a E001              B         ||$C$L29||            ; [DPU_V7M3_PIPE] |950|  ; [ORIG 16-BIT INS]
    2507                            ; BRANCH OCCURS {||$C$L29||}     ; [] |950| 
    2508                    ;* --------------------------------------------------------------------------*
    2509 0000037c           ||$C$L28||:    
    2510 0000037c 9800              LDR       A1, [SP, #0]          ; [DPU_V7M3_PIPE] |950|  ; [ORIG 16-BIT INS]
    2511 0000037e 6C40              LDR       A1, [A1, #68]         ; [DPU_V7M3_PIPE] |950|  ; [ORIG 16-BIT INS]
    2512                    ;* --------------------------------------------------------------------------*
    2513 00000380           ||$C$L29||:    
    2514                            .dwpsn  file "../driverlib/timer.c",line 952,column 1,is_stmt,isa 1
    2515 00000380 B002              ADD       SP, SP, #8            ; [DPU_V7M3_PIPE]  ; [ORIG 16-BIT INS]
    2516                            .dwcfi  cfa_offset, 0
    2517                    $C$DW$127       .dwtag  DW_TAG_TI_branch
    2518                            .dwattr $C$DW$127, DW_AT_low_pc(0x00)
    2519                            .dwattr $C$DW$127, DW_AT_TI_return
    2520                    
    2521 00000382 4770              BX        LR                    ; [DPU_V7M3_PIPE]  ; [ORIG 16-BIT INS]
    2522                            ; BRANCH OCCURS                  ; [] 
    2523                            .dwattr $C$DW$122, DW_AT_TI_end_file("../driverlib/timer.c")
    2524                            .dwattr $C$DW$122, DW_AT_TI_end_line(0x3b8)
    2525                            .dwattr $C$DW$122, DW_AT_TI_end_column(0x01)
TI ARM Assembler Unix v18.1.1 Fri Jul  3 20:08:26 2020

Tools Copyright (c) 1996-2017 Texas Instruments Incorporated
timer.asm                                                            PAGE   47

    2526                            .dwendentry
    2527                            .dwendtag $C$DW$122
    2528                    
    2529 00000384                   .sect   ".text"
    2530                            .clink
    2531                            .thumbfunc TimerLoadSet
    2532 00000384                   .thumb
    2533                            .global TimerLoadSet
    2534                    
    2535                    $C$DW$128       .dwtag  DW_TAG_subprogram
    2536                            .dwattr $C$DW$128, DW_AT_name("TimerLoadSet")
    2537                            .dwattr $C$DW$128, DW_AT_low_pc(TimerLoadSet)
    2538                            .dwattr $C$DW$128, DW_AT_high_pc(0x00)
    2539                            .dwattr $C$DW$128, DW_AT_TI_symbol_name("TimerLoadSet")
    2540                            .dwattr $C$DW$128, DW_AT_external
    2541                            .dwattr $C$DW$128, DW_AT_TI_begin_file("../driverlib/timer.c")
    2542                            .dwattr $C$DW$128, DW_AT_TI_begin_line(0x3cf)
    2543                            .dwattr $C$DW$128, DW_AT_TI_begin_column(0x01)
    2544                            .dwattr $C$DW$128, DW_AT_decl_file("../driverlib/timer.c")
    2545                            .dwattr $C$DW$128, DW_AT_decl_line(0x3cf)
    2546                            .dwattr $C$DW$128, DW_AT_decl_column(0x01)
    2547                            .dwattr $C$DW$128, DW_AT_TI_max_frame_size(0x10)
    2548                            .dwpsn  file "../driverlib/timer.c",line 976,column 1,is_stmt,address TimerLoadSet,isa 1
    2549                    
    2550                            .dwfde $C$DW$CIE, TimerLoadSet
    2551                    $C$DW$129       .dwtag  DW_TAG_formal_parameter
    2552                            .dwattr $C$DW$129, DW_AT_name("ui32Base")
    2553                            .dwattr $C$DW$129, DW_AT_TI_symbol_name("ui32Base")
    2554                            .dwattr $C$DW$129, DW_AT_type(*$C$DW$T$27)
    2555                            .dwattr $C$DW$129, DW_AT_location[DW_OP_reg0]
    2556                    
    2557                    $C$DW$130       .dwtag  DW_TAG_formal_parameter
    2558                            .dwattr $C$DW$130, DW_AT_name("ui32Timer")
    2559                            .dwattr $C$DW$130, DW_AT_TI_symbol_name("ui32Timer")
    2560                            .dwattr $C$DW$130, DW_AT_type(*$C$DW$T$27)
    2561                            .dwattr $C$DW$130, DW_AT_location[DW_OP_reg1]
    2562                    
    2563                    $C$DW$131       .dwtag  DW_TAG_formal_parameter
    2564                            .dwattr $C$DW$131, DW_AT_name("ui32Value")
    2565                            .dwattr $C$DW$131, DW_AT_TI_symbol_name("ui32Value")
    2566                            .dwattr $C$DW$131, DW_AT_type(*$C$DW$T$27)
    2567                            .dwattr $C$DW$131, DW_AT_location[DW_OP_reg2]
    2568                    
    2569                    ;----------------------------------------------------------------------
    2570                    ; 975 | TimerLoadSet(uint32_t ui32Base, uint32_t ui32Timer, uint32_t ui32Value)
    2571                    ;----------------------------------------------------------------------
    2572                    
    2573                    ;*****************************************************************************
    2574                    ;* FUNCTION NAME: TimerLoadSet                                               *
    2575                    ;*                                                                           *
    2576                    ;*   Regs Modified     : A1,A2,SP,SR                                         *
    2577                    ;*   Regs Used         : A1,A2,A3,SP,LR,SR                                   *
    2578                    ;*   Local Frame Size  : 0 Args + 12 Auto + 0 Save = 12 byte                 *
    2579                    ;*****************************************************************************
    2580 00000384           TimerLoadSet:
TI ARM Assembler Unix v18.1.1 Fri Jul  3 20:08:26 2020

Tools Copyright (c) 1996-2017 Texas Instruments Incorporated
timer.asm                                                            PAGE   48

    2581                    ;* --------------------------------------------------------------------------*
    2582                            .dwcfi  cfa_offset, 0
    2583 00000384 0D10F1AD          SUB       SP, SP, #16           ; [DPU_V7M3_PIPE]  ; [KEEP 32-BIT INS]
    2584                            .dwcfi  cfa_offset, 16
    2585                    $C$DW$132       .dwtag  DW_TAG_variable
    2586                            .dwattr $C$DW$132, DW_AT_name("ui32Base")
    2587                            .dwattr $C$DW$132, DW_AT_TI_symbol_name("ui32Base")
    2588                            .dwattr $C$DW$132, DW_AT_type(*$C$DW$T$27)
    2589                            .dwattr $C$DW$132, DW_AT_location[DW_OP_breg13 0]
    2590                    
    2591                    $C$DW$133       .dwtag  DW_TAG_variable
    2592                            .dwattr $C$DW$133, DW_AT_name("ui32Timer")
    2593                            .dwattr $C$DW$133, DW_AT_TI_symbol_name("ui32Timer")
    2594                            .dwattr $C$DW$133, DW_AT_type(*$C$DW$T$27)
    2595                            .dwattr $C$DW$133, DW_AT_location[DW_OP_breg13 4]
    2596                    
    2597                    $C$DW$134       .dwtag  DW_TAG_variable
    2598                            .dwattr $C$DW$134, DW_AT_name("ui32Value")
    2599                            .dwattr $C$DW$134, DW_AT_TI_symbol_name("ui32Value")
    2600                            .dwattr $C$DW$134, DW_AT_type(*$C$DW$T$27)
    2601                            .dwattr $C$DW$134, DW_AT_location[DW_OP_breg13 8]
    2602                    
    2603                    ;----------------------------------------------------------------------
    2604                    ; 977 | //                                                                     
    2605                    ; 978 | // Check the arguments.                                                
    2606                    ; 979 | //                                                                     
    2607                    ; 980 | ASSERT(_TimerBaseValid(ui32Base));                                     
    2608                    ; 981 | ASSERT((ui32Timer == TIMER_A) || (ui32Timer == TIMER_B) ||             
    2609                    ; 982 |        (ui32Timer == TIMER_BOTH));                                     
    2610                    ; 984 | //                                                                     
    2611                    ; 985 | // Set the timer A load value if requested.                            
    2612                    ; 986 | //                                                                     
    2613                    ;----------------------------------------------------------------------
    2614 00000388 9202              STR       A3, [SP, #8]          ; [DPU_V7M3_PIPE] |976|  ; [ORIG 16-BIT INS]
    2615 0000038a 9101              STR       A2, [SP, #4]          ; [DPU_V7M3_PIPE] |976|  ; [ORIG 16-BIT INS]
    2616 0000038c 9000              STR       A1, [SP, #0]          ; [DPU_V7M3_PIPE] |976|  ; [ORIG 16-BIT INS]
    2617                            .dwpsn  file "../driverlib/timer.c",line 987,column 5,is_stmt,isa 1
    2618                    ;----------------------------------------------------------------------
    2619                    ; 987 | if(ui32Timer & TIMER_A)                                                
    2620                    ;----------------------------------------------------------------------
    2621 0000038e 9801              LDR       A1, [SP, #4]          ; [DPU_V7M3_PIPE] |987|  ; [ORIG 16-BIT INS]
    2622 00000390 0FFFF010          TST       A1, #255              ; [DPU_V7M3_PIPE] |987|  ; [KEEP 32-BIT INS]
    2623 00000394 D002              BEQ       ||$C$L30||            ; [DPU_V7M3_PIPE] |987|  ; [ORIG 16-BIT INS]
    2624                            ; BRANCHCC OCCURS {||$C$L30||}   ; [] |987| 
    2625                    ;* --------------------------------------------------------------------------*
    2626                            .dwpsn  file "../driverlib/timer.c",line 989,column 9,is_stmt,isa 1
    2627                    ;----------------------------------------------------------------------
    2628                    ; 989 | HWREG(ui32Base + TIMER_O_TAILR) = ui32Value;                           
    2629                    ; 992 | //                                                                     
    2630                    ; 993 | // Set the timer B load value if requested.                            
    2631                    ; 994 | //                                                                     
    2632                    ;----------------------------------------------------------------------
    2633 00000396 9802              LDR       A1, [SP, #8]          ; [DPU_V7M3_PIPE] |989|  ; [ORIG 16-BIT INS]
    2634 00000398 9900              LDR       A2, [SP, #0]          ; [DPU_V7M3_PIPE] |989|  ; [ORIG 16-BIT INS]
    2635 0000039a 6288              STR       A1, [A2, #40]         ; [DPU_V7M3_PIPE] |989|  ; [ORIG 16-BIT INS]
TI ARM Assembler Unix v18.1.1 Fri Jul  3 20:08:26 2020

Tools Copyright (c) 1996-2017 Texas Instruments Incorporated
timer.asm                                                            PAGE   49

    2636                    ;* --------------------------------------------------------------------------*
    2637 0000039c           ||$C$L30||:    
    2638                            .dwpsn  file "../driverlib/timer.c",line 995,column 5,is_stmt,isa 1
    2639                    ;----------------------------------------------------------------------
    2640                    ; 995 | if(ui32Timer & TIMER_B)                                                
    2641                    ;----------------------------------------------------------------------
    2642 0000039c 9801              LDR       A1, [SP, #4]          ; [DPU_V7M3_PIPE] |995|  ; [ORIG 16-BIT INS]
    2643 0000039e 4F7FF410          TST       A1, #65280            ; [DPU_V7M3_PIPE] |995|  ; [KEEP 32-BIT INS]
    2644 000003a2 D002              BEQ       ||$C$L31||            ; [DPU_V7M3_PIPE] |995|  ; [ORIG 16-BIT INS]
    2645                            ; BRANCHCC OCCURS {||$C$L31||}   ; [] |995| 
    2646                    ;* --------------------------------------------------------------------------*
    2647                            .dwpsn  file "../driverlib/timer.c",line 997,column 9,is_stmt,isa 1
    2648                    ;----------------------------------------------------------------------
    2649                    ; 997 | HWREG(ui32Base + TIMER_O_TBILR) = ui32Value;                           
    2650                    ;----------------------------------------------------------------------
    2651 000003a4 9802              LDR       A1, [SP, #8]          ; [DPU_V7M3_PIPE] |997|  ; [ORIG 16-BIT INS]
    2652 000003a6 9900              LDR       A2, [SP, #0]          ; [DPU_V7M3_PIPE] |997|  ; [ORIG 16-BIT INS]
    2653 000003a8 62C8              STR       A1, [A2, #44]         ; [DPU_V7M3_PIPE] |997|  ; [ORIG 16-BIT INS]
    2654                            .dwpsn  file "../driverlib/timer.c",line 999,column 1,is_stmt,isa 1
    2655                    ;* --------------------------------------------------------------------------*
    2656 000003aa           ||$C$L31||:    
    2657 000003aa B004              ADD       SP, SP, #16           ; [DPU_V7M3_PIPE]  ; [ORIG 16-BIT INS]
    2658                            .dwcfi  cfa_offset, 0
    2659                    $C$DW$135       .dwtag  DW_TAG_TI_branch
    2660                            .dwattr $C$DW$135, DW_AT_low_pc(0x00)
    2661                            .dwattr $C$DW$135, DW_AT_TI_return
    2662                    
    2663 000003ac 4770              BX        LR                    ; [DPU_V7M3_PIPE]  ; [ORIG 16-BIT INS]
    2664                            ; BRANCH OCCURS                  ; [] 
    2665                            .dwattr $C$DW$128, DW_AT_TI_end_file("../driverlib/timer.c")
    2666                            .dwattr $C$DW$128, DW_AT_TI_end_line(0x3e7)
    2667                            .dwattr $C$DW$128, DW_AT_TI_end_column(0x01)
    2668                            .dwendentry
    2669                            .dwendtag $C$DW$128
    2670                    
    2671 000003ae                   .sect   ".text"
    2672                            .clink
    2673                            .thumbfunc TimerLoadGet
    2674 000003ae                   .thumb
    2675                            .global TimerLoadGet
    2676                    
    2677                    $C$DW$136       .dwtag  DW_TAG_subprogram
    2678                            .dwattr $C$DW$136, DW_AT_name("TimerLoadGet")
    2679                            .dwattr $C$DW$136, DW_AT_low_pc(TimerLoadGet)
    2680                            .dwattr $C$DW$136, DW_AT_high_pc(0x00)
    2681                            .dwattr $C$DW$136, DW_AT_TI_symbol_name("TimerLoadGet")
    2682                            .dwattr $C$DW$136, DW_AT_external
    2683                            .dwattr $C$DW$136, DW_AT_type(*$C$DW$T$27)
    2684                            .dwattr $C$DW$136, DW_AT_TI_begin_file("../driverlib/timer.c")
    2685                            .dwattr $C$DW$136, DW_AT_TI_begin_line(0x3fd)
    2686                            .dwattr $C$DW$136, DW_AT_TI_begin_column(0x01)
    2687                            .dwattr $C$DW$136, DW_AT_decl_file("../driverlib/timer.c")
    2688                            .dwattr $C$DW$136, DW_AT_decl_line(0x3fd)
    2689                            .dwattr $C$DW$136, DW_AT_decl_column(0x01)
    2690                            .dwattr $C$DW$136, DW_AT_TI_max_frame_size(0x08)
TI ARM Assembler Unix v18.1.1 Fri Jul  3 20:08:26 2020

Tools Copyright (c) 1996-2017 Texas Instruments Incorporated
timer.asm                                                            PAGE   50

    2691                            .dwpsn  file "../driverlib/timer.c",line 1022,column 1,is_stmt,address TimerLoadGet,isa 1
    2692                    
    2693                            .dwfde $C$DW$CIE, TimerLoadGet
    2694                    $C$DW$137       .dwtag  DW_TAG_formal_parameter
    2695                            .dwattr $C$DW$137, DW_AT_name("ui32Base")
    2696                            .dwattr $C$DW$137, DW_AT_TI_symbol_name("ui32Base")
    2697                            .dwattr $C$DW$137, DW_AT_type(*$C$DW$T$27)
    2698                            .dwattr $C$DW$137, DW_AT_location[DW_OP_reg0]
    2699                    
    2700                    $C$DW$138       .dwtag  DW_TAG_formal_parameter
    2701                            .dwattr $C$DW$138, DW_AT_name("ui32Timer")
    2702                            .dwattr $C$DW$138, DW_AT_TI_symbol_name("ui32Timer")
    2703                            .dwattr $C$DW$138, DW_AT_type(*$C$DW$T$27)
    2704                            .dwattr $C$DW$138, DW_AT_location[DW_OP_reg1]
    2705                    
    2706                    ;----------------------------------------------------------------------
    2707                    ; 1021 | TimerLoadGet(uint32_t ui32Base, uint32_t ui32Timer)                    
    2708                    ;----------------------------------------------------------------------
    2709                    
    2710                    ;*****************************************************************************
    2711                    ;* FUNCTION NAME: TimerLoadGet                                               *
    2712                    ;*                                                                           *
    2713                    ;*   Regs Modified     : A1,SP,SR                                            *
    2714                    ;*   Regs Used         : A1,A2,SP,LR,SR                                      *
    2715                    ;*   Local Frame Size  : 0 Args + 8 Auto + 0 Save = 8 byte                   *
    2716                    ;*****************************************************************************
    2717 000003ae           TimerLoadGet:
    2718                    ;* --------------------------------------------------------------------------*
    2719                            .dwcfi  cfa_offset, 0
    2720 000003ae 0D08F1AD          SUB       SP, SP, #8            ; [DPU_V7M3_PIPE]  ; [KEEP 32-BIT INS]
    2721                            .dwcfi  cfa_offset, 8
    2722                    $C$DW$139       .dwtag  DW_TAG_variable
    2723                            .dwattr $C$DW$139, DW_AT_name("ui32Base")
    2724                            .dwattr $C$DW$139, DW_AT_TI_symbol_name("ui32Base")
    2725                            .dwattr $C$DW$139, DW_AT_type(*$C$DW$T$27)
    2726                            .dwattr $C$DW$139, DW_AT_location[DW_OP_breg13 0]
    2727                    
    2728                    $C$DW$140       .dwtag  DW_TAG_variable
    2729                            .dwattr $C$DW$140, DW_AT_name("ui32Timer")
    2730                            .dwattr $C$DW$140, DW_AT_TI_symbol_name("ui32Timer")
    2731                            .dwattr $C$DW$140, DW_AT_type(*$C$DW$T$27)
    2732                            .dwattr $C$DW$140, DW_AT_location[DW_OP_breg13 4]
    2733                    
    2734                    ;----------------------------------------------------------------------
    2735                    ; 1023 | //                                                                     
    2736                    ; 1024 | // Check the arguments.                                                
    2737                    ; 1025 | //                                                                     
    2738                    ; 1026 | ASSERT(_TimerBaseValid(ui32Base));                                     
    2739                    ; 1027 | ASSERT((ui32Timer == TIMER_A) || (ui32Timer == TIMER_B));              
    2740                    ; 1029 | //                                                                     
    2741                    ; 1030 | // Return the appropriate load value.                                  
    2742                    ; 1031 | //                                                                     
    2743                    ;----------------------------------------------------------------------
    2744 000003b2 9101              STR       A2, [SP, #4]          ; [DPU_V7M3_PIPE] |1022|  ; [ORIG 16-BIT INS]
    2745 000003b4 9000              STR       A1, [SP, #0]          ; [DPU_V7M3_PIPE] |1022|  ; [ORIG 16-BIT INS]
TI ARM Assembler Unix v18.1.1 Fri Jul  3 20:08:26 2020

Tools Copyright (c) 1996-2017 Texas Instruments Incorporated
timer.asm                                                            PAGE   51

    2746                            .dwpsn  file "../driverlib/timer.c",line 1032,column 5,is_stmt,isa 1
    2747                    ;----------------------------------------------------------------------
    2748                    ; 1032 | return((ui32Timer == TIMER_A) ? HWREG(ui32Base + TIMER_O_TAILR) :      
    2749                    ; 1033 |        HWREG(ui32Base + TIMER_O_TBILR));                               
    2750                    ;----------------------------------------------------------------------
    2751 000003b6 9801              LDR       A1, [SP, #4]          ; [DPU_V7M3_PIPE] |1032|  ; [ORIG 16-BIT INS]
    2752 000003b8 28FF              CMP       A1, #255              ; [DPU_V7M3_PIPE] |1032|  ; [ORIG 16-BIT INS]
    2753 000003ba D102              BNE       ||$C$L32||            ; [DPU_V7M3_PIPE] |1032|  ; [ORIG 16-BIT INS]
    2754                            ; BRANCHCC OCCURS {||$C$L32||}   ; [] |1032| 
    2755                    ;* --------------------------------------------------------------------------*
    2756 000003bc 9800              LDR       A1, [SP, #0]          ; [DPU_V7M3_PIPE] |1032|  ; [ORIG 16-BIT INS]
    2757 000003be 6A80              LDR       A1, [A1, #40]         ; [DPU_V7M3_PIPE] |1032|  ; [ORIG 16-BIT INS]
    2758 000003c0 E001              B         ||$C$L33||            ; [DPU_V7M3_PIPE] |1032|  ; [ORIG 16-BIT INS]
    2759                            ; BRANCH OCCURS {||$C$L33||}     ; [] |1032| 
    2760                    ;* --------------------------------------------------------------------------*
    2761 000003c2           ||$C$L32||:    
    2762 000003c2 9800              LDR       A1, [SP, #0]          ; [DPU_V7M3_PIPE] |1032|  ; [ORIG 16-BIT INS]
    2763 000003c4 6AC0              LDR       A1, [A1, #44]         ; [DPU_V7M3_PIPE] |1032|  ; [ORIG 16-BIT INS]
    2764                    ;* --------------------------------------------------------------------------*
    2765 000003c6           ||$C$L33||:    
    2766                            .dwpsn  file "../driverlib/timer.c",line 1034,column 1,is_stmt,isa 1
    2767 000003c6 B002              ADD       SP, SP, #8            ; [DPU_V7M3_PIPE]  ; [ORIG 16-BIT INS]
    2768                            .dwcfi  cfa_offset, 0
    2769                    $C$DW$141       .dwtag  DW_TAG_TI_branch
    2770                            .dwattr $C$DW$141, DW_AT_low_pc(0x00)
    2771                            .dwattr $C$DW$141, DW_AT_TI_return
    2772                    
    2773 000003c8 4770              BX        LR                    ; [DPU_V7M3_PIPE]  ; [ORIG 16-BIT INS]
    2774                            ; BRANCH OCCURS                  ; [] 
    2775                            .dwattr $C$DW$136, DW_AT_TI_end_file("../driverlib/timer.c")
    2776                            .dwattr $C$DW$136, DW_AT_TI_end_line(0x40a)
    2777                            .dwattr $C$DW$136, DW_AT_TI_end_column(0x01)
    2778                            .dwendentry
    2779                            .dwendtag $C$DW$136
    2780                    
    2781 000003ca                   .sect   ".text"
    2782                            .clink
    2783                            .thumbfunc TimerLoadSet64
    2784 000003ca                   .thumb
    2785                            .global TimerLoadSet64
    2786                    
    2787                    $C$DW$142       .dwtag  DW_TAG_subprogram
    2788                            .dwattr $C$DW$142, DW_AT_name("TimerLoadSet64")
    2789                            .dwattr $C$DW$142, DW_AT_low_pc(TimerLoadSet64)
    2790                            .dwattr $C$DW$142, DW_AT_high_pc(0x00)
    2791                            .dwattr $C$DW$142, DW_AT_TI_symbol_name("TimerLoadSet64")
    2792                            .dwattr $C$DW$142, DW_AT_external
    2793                            .dwattr $C$DW$142, DW_AT_TI_begin_file("../driverlib/timer.c")
    2794                            .dwattr $C$DW$142, DW_AT_TI_begin_line(0x41a)
    2795                            .dwattr $C$DW$142, DW_AT_TI_begin_column(0x01)
    2796                            .dwattr $C$DW$142, DW_AT_decl_file("../driverlib/timer.c")
    2797                            .dwattr $C$DW$142, DW_AT_decl_line(0x41a)
    2798                            .dwattr $C$DW$142, DW_AT_decl_column(0x01)
    2799                            .dwattr $C$DW$142, DW_AT_TI_max_frame_size(0x10)
    2800                            .dwpsn  file "../driverlib/timer.c",line 1051,column 1,is_stmt,address TimerLoadSet64,isa 1
TI ARM Assembler Unix v18.1.1 Fri Jul  3 20:08:26 2020

Tools Copyright (c) 1996-2017 Texas Instruments Incorporated
timer.asm                                                            PAGE   52

    2801                    
    2802                            .dwfde $C$DW$CIE, TimerLoadSet64
    2803                    $C$DW$143       .dwtag  DW_TAG_formal_parameter
    2804                            .dwattr $C$DW$143, DW_AT_name("ui32Base")
    2805                            .dwattr $C$DW$143, DW_AT_TI_symbol_name("ui32Base")
    2806                            .dwattr $C$DW$143, DW_AT_type(*$C$DW$T$27)
    2807                            .dwattr $C$DW$143, DW_AT_location[DW_OP_reg0]
    2808                    
    2809                    $C$DW$144       .dwtag  DW_TAG_formal_parameter
    2810                            .dwattr $C$DW$144, DW_AT_name("ui64Value")
    2811                            .dwattr $C$DW$144, DW_AT_TI_symbol_name("ui64Value")
    2812                            .dwattr $C$DW$144, DW_AT_type(*$C$DW$T$37)
    2813                            .dwattr $C$DW$144, DW_AT_location[DW_OP_reg2]
    2814                    
    2815                    ;----------------------------------------------------------------------
    2816                    ; 1050 | TimerLoadSet64(uint32_t ui32Base, uint64_t ui64Value)                  
    2817                    ;----------------------------------------------------------------------
    2818                    
    2819                    ;*****************************************************************************
    2820                    ;* FUNCTION NAME: TimerLoadSet64                                             *
    2821                    ;*                                                                           *
    2822                    ;*   Regs Modified     : A1,A2,SP                                            *
    2823                    ;*   Regs Used         : A1,A2,A3,A4,SP,LR                                   *
    2824                    ;*   Local Frame Size  : 0 Args + 12 Auto + 0 Save = 12 byte                 *
    2825                    ;*****************************************************************************
    2826 000003ca           TimerLoadSet64:
    2827                    ;* --------------------------------------------------------------------------*
    2828                            .dwcfi  cfa_offset, 0
    2829 000003ca 0D10F1AD          SUB       SP, SP, #16           ; [DPU_V7M3_PIPE]  ; [KEEP 32-BIT INS]
    2830                            .dwcfi  cfa_offset, 16
    2831                    $C$DW$145       .dwtag  DW_TAG_variable
    2832                            .dwattr $C$DW$145, DW_AT_name("ui64Value")
    2833                            .dwattr $C$DW$145, DW_AT_TI_symbol_name("ui64Value")
    2834                            .dwattr $C$DW$145, DW_AT_type(*$C$DW$T$37)
    2835                            .dwattr $C$DW$145, DW_AT_location[DW_OP_breg13 0]
    2836                    
    2837                    $C$DW$146       .dwtag  DW_TAG_variable
    2838                            .dwattr $C$DW$146, DW_AT_name("ui32Base")
    2839                            .dwattr $C$DW$146, DW_AT_TI_symbol_name("ui32Base")
    2840                            .dwattr $C$DW$146, DW_AT_type(*$C$DW$T$27)
    2841                            .dwattr $C$DW$146, DW_AT_location[DW_OP_breg13 8]
    2842                    
    2843                    ;----------------------------------------------------------------------
    2844                    ; 1052 | //                                                                     
    2845                    ; 1053 | // Check the arguments.                                                
    2846                    ; 1054 | //                                                                     
    2847                    ; 1055 | ASSERT(_TimerBaseValid(ui32Base));                                     
    2848                    ; 1057 | //                                                                     
    2849                    ; 1058 | // Set the timer load value.  The upper 32-bits must be written before
    2850                    ;     | the                                                                    
    2851                    ; 1059 | // lower 32-bits in order to adhere to the hardware interlocks on the  
    2852                    ; 1060 | // 64-bit value.                                                       
    2853                    ; 1061 | //                                                                     
    2854                    ;----------------------------------------------------------------------
    2855 000003ce 000CE88D          STMIA     SP, {A3,A4}           ; [DPU_V7M3_PIPE] |1051|  ; [KEEP 32-BIT INS]
TI ARM Assembler Unix v18.1.1 Fri Jul  3 20:08:26 2020

Tools Copyright (c) 1996-2017 Texas Instruments Incorporated
timer.asm                                                            PAGE   53

    2856 000003d2 9002              STR       A1, [SP, #8]          ; [DPU_V7M3_PIPE] |1051|  ; [ORIG 16-BIT INS]
    2857                            .dwpsn  file "../driverlib/timer.c",line 1062,column 5,is_stmt,isa 1
    2858                    ;----------------------------------------------------------------------
    2859                    ; 1062 | HWREG(ui32Base + TIMER_O_TBILR) = ui64Value >> 32;                     
    2860                    ;----------------------------------------------------------------------
    2861 000003d4 9902              LDR       A2, [SP, #8]          ; [DPU_V7M3_PIPE] |1062|  ; [ORIG 16-BIT INS]
    2862 000003d6 9801              LDR       A1, [SP, #4]          ; [DPU_V7M3_PIPE] |1062|  ; [ORIG 16-BIT INS]
    2863 000003d8 62C8              STR       A1, [A2, #44]         ; [DPU_V7M3_PIPE] |1062|  ; [ORIG 16-BIT INS]
    2864                            .dwpsn  file "../driverlib/timer.c",line 1063,column 5,is_stmt,isa 1
    2865                    ;----------------------------------------------------------------------
    2866                    ; 1063 | HWREG(ui32Base + TIMER_O_TAILR) = ui64Value & 0xffffffff;              
    2867                    ;----------------------------------------------------------------------
    2868 000003da 9800              LDR       A1, [SP, #0]          ; [DPU_V7M3_PIPE] |1063|  ; [ORIG 16-BIT INS]
    2869 000003dc 9902              LDR       A2, [SP, #8]          ; [DPU_V7M3_PIPE] |1063|  ; [ORIG 16-BIT INS]
    2870 000003de 6288              STR       A1, [A2, #40]         ; [DPU_V7M3_PIPE] |1063|  ; [ORIG 16-BIT INS]
    2871                            .dwpsn  file "../driverlib/timer.c",line 1064,column 1,is_stmt,isa 1
    2872 000003e0 B004              ADD       SP, SP, #16           ; [DPU_V7M3_PIPE]  ; [ORIG 16-BIT INS]
    2873                            .dwcfi  cfa_offset, 0
    2874                    $C$DW$147       .dwtag  DW_TAG_TI_branch
    2875                            .dwattr $C$DW$147, DW_AT_low_pc(0x00)
    2876                            .dwattr $C$DW$147, DW_AT_TI_return
    2877                    
    2878 000003e2 4770              BX        LR                    ; [DPU_V7M3_PIPE]  ; [ORIG 16-BIT INS]
    2879                            ; BRANCH OCCURS                  ; [] 
    2880                            .dwattr $C$DW$142, DW_AT_TI_end_file("../driverlib/timer.c")
    2881                            .dwattr $C$DW$142, DW_AT_TI_end_line(0x428)
    2882                            .dwattr $C$DW$142, DW_AT_TI_end_column(0x01)
    2883                            .dwendentry
    2884                            .dwendtag $C$DW$142
    2885                    
    2886 000003e4                   .sect   ".text"
    2887                            .clink
    2888                            .thumbfunc TimerLoadGet64
    2889 000003e4                   .thumb
    2890                            .global TimerLoadGet64
    2891                    
    2892                    $C$DW$148       .dwtag  DW_TAG_subprogram
    2893                            .dwattr $C$DW$148, DW_AT_name("TimerLoadGet64")
    2894                            .dwattr $C$DW$148, DW_AT_low_pc(TimerLoadGet64)
    2895                            .dwattr $C$DW$148, DW_AT_high_pc(0x00)
    2896                            .dwattr $C$DW$148, DW_AT_TI_symbol_name("TimerLoadGet64")
    2897                            .dwattr $C$DW$148, DW_AT_external
    2898                            .dwattr $C$DW$148, DW_AT_type(*$C$DW$T$37)
    2899                            .dwattr $C$DW$148, DW_AT_TI_begin_file("../driverlib/timer.c")
    2900                            .dwattr $C$DW$148, DW_AT_TI_begin_line(0x437)
    2901                            .dwattr $C$DW$148, DW_AT_TI_begin_column(0x01)
    2902                            .dwattr $C$DW$148, DW_AT_decl_file("../driverlib/timer.c")
    2903                            .dwattr $C$DW$148, DW_AT_decl_line(0x437)
    2904                            .dwattr $C$DW$148, DW_AT_decl_column(0x01)
    2905                            .dwattr $C$DW$148, DW_AT_TI_max_frame_size(0x10)
    2906                            .dwpsn  file "../driverlib/timer.c",line 1080,column 1,is_stmt,address TimerLoadGet64,isa 1
    2907                    
    2908                            .dwfde $C$DW$CIE, TimerLoadGet64
    2909                    $C$DW$149       .dwtag  DW_TAG_formal_parameter
    2910                            .dwattr $C$DW$149, DW_AT_name("ui32Base")
TI ARM Assembler Unix v18.1.1 Fri Jul  3 20:08:26 2020

Tools Copyright (c) 1996-2017 Texas Instruments Incorporated
timer.asm                                                            PAGE   54

    2911                            .dwattr $C$DW$149, DW_AT_TI_symbol_name("ui32Base")
    2912                            .dwattr $C$DW$149, DW_AT_type(*$C$DW$T$27)
    2913                            .dwattr $C$DW$149, DW_AT_location[DW_OP_reg0]
    2914                    
    2915                    ;----------------------------------------------------------------------
    2916                    ; 1079 | TimerLoadGet64(uint32_t ui32Base)                                      
    2917                    ;----------------------------------------------------------------------
    2918                    
    2919                    ;*****************************************************************************
    2920                    ;* FUNCTION NAME: TimerLoadGet64                                             *
    2921                    ;*                                                                           *
    2922                    ;*   Regs Modified     : A1,A2,A3,A4,SP,SR                                   *
    2923                    ;*   Regs Used         : A1,A2,A3,A4,SP,LR,SR                                *
    2924                    ;*   Local Frame Size  : 0 Args + 16 Auto + 0 Save = 16 byte                 *
    2925                    ;*****************************************************************************
    2926 000003e4           TimerLoadGet64:
    2927                    ;* --------------------------------------------------------------------------*
    2928                            .dwcfi  cfa_offset, 0
    2929 000003e4 0D10F1AD          SUB       SP, SP, #16           ; [DPU_V7M3_PIPE]  ; [KEEP 32-BIT INS]
    2930                            .dwcfi  cfa_offset, 16
    2931                    $C$DW$150       .dwtag  DW_TAG_variable
    2932                            .dwattr $C$DW$150, DW_AT_name("ui32Base")
    2933                            .dwattr $C$DW$150, DW_AT_TI_symbol_name("ui32Base")
    2934                            .dwattr $C$DW$150, DW_AT_type(*$C$DW$T$27)
    2935                            .dwattr $C$DW$150, DW_AT_location[DW_OP_breg13 0]
    2936                    
    2937                    $C$DW$151       .dwtag  DW_TAG_variable
    2938                            .dwattr $C$DW$151, DW_AT_name("ui32High1")
    2939                            .dwattr $C$DW$151, DW_AT_TI_symbol_name("ui32High1")
    2940                            .dwattr $C$DW$151, DW_AT_type(*$C$DW$T$27)
    2941                            .dwattr $C$DW$151, DW_AT_location[DW_OP_breg13 4]
    2942                    
    2943                    $C$DW$152       .dwtag  DW_TAG_variable
    2944                            .dwattr $C$DW$152, DW_AT_name("ui32High2")
    2945                            .dwattr $C$DW$152, DW_AT_TI_symbol_name("ui32High2")
    2946                            .dwattr $C$DW$152, DW_AT_type(*$C$DW$T$27)
    2947                            .dwattr $C$DW$152, DW_AT_location[DW_OP_breg13 8]
    2948                    
    2949                    $C$DW$153       .dwtag  DW_TAG_variable
    2950                            .dwattr $C$DW$153, DW_AT_name("ui32Low")
    2951                            .dwattr $C$DW$153, DW_AT_TI_symbol_name("ui32Low")
    2952                            .dwattr $C$DW$153, DW_AT_type(*$C$DW$T$27)
    2953                            .dwattr $C$DW$153, DW_AT_location[DW_OP_breg13 12]
    2954                    
    2955                    ;----------------------------------------------------------------------
    2956                    ; 1081 | uint32_t ui32High1, ui32High2, ui32Low;                                
    2957                    ; 1083 | //                                                                     
    2958                    ; 1084 | // Check the arguments.                                                
    2959                    ; 1085 | //                                                                     
    2960                    ; 1086 | ASSERT(_TimerBaseValid(ui32Base));                                     
    2961                    ; 1088 | //                                                                     
    2962                    ; 1089 | // Read the 64-bit load value.  A read of the low 32-bits is performed 
    2963                    ; 1090 | // between two reads of the upper 32-bits; if the upper 32-bit values m
    2964                    ;     | atch                                                                   
    2965                    ; 1091 | // then the 64-bit value is consistent.  If they do not match, then the
TI ARM Assembler Unix v18.1.1 Fri Jul  3 20:08:26 2020

Tools Copyright (c) 1996-2017 Texas Instruments Incorporated
timer.asm                                                            PAGE   55

    2966                    ; 1092 | // read is performed again until they do match (it should never execute
    2967                    ;     |  the                                                                   
    2968                    ; 1093 | // loop body more than twice).                                         
    2969                    ; 1094 | //                                                                     
    2970                    ; 1095 | do                                                                     
    2971                    ;----------------------------------------------------------------------
    2972 000003e8 9000              STR       A1, [SP, #0]          ; [DPU_V7M3_PIPE] |1080|  ; [ORIG 16-BIT INS]
    2973                    ;* --------------------------------------------------------------------------*
    2974                    ;*   BEGIN LOOP ||$C$L34||
    2975                    ;*
    2976                    ;*   Loop source line                : 1095
    2977                    ;*   Loop closing brace source line  : 1100
    2978                    ;*   Known Minimum Trip Count        : 1
    2979                    ;*   Known Maximum Trip Count        : 4294967295
    2980                    ;*   Known Max Trip Count Factor     : 1
    2981                    ;* --------------------------------------------------------------------------*
    2982 000003ea           ||$C$L34||:    
    2983                            .dwpsn  file "../driverlib/timer.c",line 1097,column 9,is_stmt,isa 1
    2984                    ;----------------------------------------------------------------------
    2985                    ; 1097 | ui32High1 = HWREG(ui32Base + TIMER_O_TBILR);                           
    2986                    ;----------------------------------------------------------------------
    2987 000003ea 9800              LDR       A1, [SP, #0]          ; [DPU_V7M3_PIPE] |1097|  ; [ORIG 16-BIT INS]
    2988 000003ec 6AC0              LDR       A1, [A1, #44]         ; [DPU_V7M3_PIPE] |1097|  ; [ORIG 16-BIT INS]
    2989 000003ee 9001              STR       A1, [SP, #4]          ; [DPU_V7M3_PIPE] |1097|  ; [ORIG 16-BIT INS]
    2990                            .dwpsn  file "../driverlib/timer.c",line 1098,column 9,is_stmt,isa 1
    2991                    ;----------------------------------------------------------------------
    2992                    ; 1098 | ui32Low = HWREG(ui32Base + TIMER_O_TAILR);                             
    2993                    ;----------------------------------------------------------------------
    2994 000003f0 9800              LDR       A1, [SP, #0]          ; [DPU_V7M3_PIPE] |1098|  ; [ORIG 16-BIT INS]
    2995 000003f2 6A80              LDR       A1, [A1, #40]         ; [DPU_V7M3_PIPE] |1098|  ; [ORIG 16-BIT INS]
    2996 000003f4 9003              STR       A1, [SP, #12]         ; [DPU_V7M3_PIPE] |1098|  ; [ORIG 16-BIT INS]
    2997                            .dwpsn  file "../driverlib/timer.c",line 1099,column 9,is_stmt,isa 1
    2998                    ;----------------------------------------------------------------------
    2999                    ; 1099 | ui32High2 = HWREG(ui32Base + TIMER_O_TBILR);                           
    3000                    ;----------------------------------------------------------------------
    3001 000003f6 9800              LDR       A1, [SP, #0]          ; [DPU_V7M3_PIPE] |1099|  ; [ORIG 16-BIT INS]
    3002 000003f8 6AC0              LDR       A1, [A1, #44]         ; [DPU_V7M3_PIPE] |1099|  ; [ORIG 16-BIT INS]
    3003 000003fa 9002              STR       A1, [SP, #8]          ; [DPU_V7M3_PIPE] |1099|  ; [ORIG 16-BIT INS]
    3004                            .dwpsn  file "../driverlib/timer.c",line 1101,column 11,is_stmt,isa 1
    3005                    ;----------------------------------------------------------------------
    3006                    ; 1101 | while(ui32High1 != ui32High2);                                         
    3007                    ; 1103 | //                                                                     
    3008                    ; 1104 | // Return the load value.                                              
    3009                    ; 1105 | //                                                                     
    3010                    ;----------------------------------------------------------------------
    3011 000003fc 9901              LDR       A2, [SP, #4]          ; [DPU_V7M3_PIPE] |1101|  ; [ORIG 16-BIT INS]
    3012 000003fe 9802              LDR       A1, [SP, #8]          ; [DPU_V7M3_PIPE] |1101|  ; [ORIG 16-BIT INS]
    3013 00000400 4288              CMP       A1, A2                ; [DPU_V7M3_PIPE] |1101|  ; [ORIG 16-BIT INS]
    3014 00000402 D1F2              BNE       ||$C$L34||            ; [DPU_V7M3_PIPE] |1101|  ; [ORIG 16-BIT INS]
    3015                            ; BRANCHCC OCCURS {||$C$L34||}   ; [] |1101| 
    3016                    ;* --------------------------------------------------------------------------*
    3017                            .dwpsn  file "../driverlib/timer.c",line 1106,column 5,is_stmt,isa 1
    3018                    ;----------------------------------------------------------------------
    3019                    ; 1106 | return(((uint64_t)ui32High1 << 32) | (uint64_t)ui32Low);               
    3020                    ;----------------------------------------------------------------------
TI ARM Assembler Unix v18.1.1 Fri Jul  3 20:08:26 2020

Tools Copyright (c) 1996-2017 Texas Instruments Incorporated
timer.asm                                                            PAGE   56

    3021 00000404 9A01              LDR       A3, [SP, #4]          ; [DPU_V7M3_PIPE] |1106|  ; [ORIG 16-BIT INS]
    3022 00000406 9803              LDR       A1, [SP, #12]         ; [DPU_V7M3_PIPE] |1106|  ; [ORIG 16-BIT INS]
    3023 00000408 2300              MOVS      A4, #0                ; [DPU_V7M3_PIPE] |1106|  ; [ORIG 16-BIT INS]
    3024 0000040a 2100              MOVS      A2, #0                ; [DPU_V7M3_PIPE] |1106|  ; [ORIG 16-BIT INS]
    3025 0000040c 0012              LSLS      A3, A3, #0            ; [DPU_V7M3_PIPE] |1106|  ; [ORIG 16-BIT INS]
    3026 0000040e 4318              ORRS      A1, A1, A4            ; [DPU_V7M3_PIPE] |1106|  ; [ORIG 16-BIT INS]
    3027 00000410 4311              ORRS      A2, A2, A3            ; [DPU_V7M3_PIPE] |1106|  ; [ORIG 16-BIT INS]
    3028                            .dwpsn  file "../driverlib/timer.c",line 1107,column 1,is_stmt,isa 1
    3029 00000412 B004              ADD       SP, SP, #16           ; [DPU_V7M3_PIPE]  ; [ORIG 16-BIT INS]
    3030                            .dwcfi  cfa_offset, 0
    3031                    $C$DW$154       .dwtag  DW_TAG_TI_branch
    3032                            .dwattr $C$DW$154, DW_AT_low_pc(0x00)
    3033                            .dwattr $C$DW$154, DW_AT_TI_return
    3034                    
    3035 00000414 4770              BX        LR                    ; [DPU_V7M3_PIPE]  ; [ORIG 16-BIT INS]
    3036                            ; BRANCH OCCURS                  ; [] 
    3037                            .dwattr $C$DW$148, DW_AT_TI_end_file("../driverlib/timer.c")
    3038                            .dwattr $C$DW$148, DW_AT_TI_end_line(0x453)
    3039                            .dwattr $C$DW$148, DW_AT_TI_end_column(0x01)
    3040                            .dwendentry
    3041                            .dwendtag $C$DW$148
    3042                    
    3043 00000416                   .sect   ".text"
    3044                            .clink
    3045                            .thumbfunc TimerValueGet
    3046 00000416                   .thumb
    3047                            .global TimerValueGet
    3048                    
    3049                    $C$DW$155       .dwtag  DW_TAG_subprogram
    3050                            .dwattr $C$DW$155, DW_AT_name("TimerValueGet")
    3051                            .dwattr $C$DW$155, DW_AT_low_pc(TimerValueGet)
    3052                            .dwattr $C$DW$155, DW_AT_high_pc(0x00)
    3053                            .dwattr $C$DW$155, DW_AT_TI_symbol_name("TimerValueGet")
    3054                            .dwattr $C$DW$155, DW_AT_external
    3055                            .dwattr $C$DW$155, DW_AT_type(*$C$DW$T$27)
    3056                            .dwattr $C$DW$155, DW_AT_TI_begin_file("../driverlib/timer.c")
    3057                            .dwattr $C$DW$155, DW_AT_TI_begin_line(0x468)
    3058                            .dwattr $C$DW$155, DW_AT_TI_begin_column(0x01)
    3059                            .dwattr $C$DW$155, DW_AT_decl_file("../driverlib/timer.c")
    3060                            .dwattr $C$DW$155, DW_AT_decl_line(0x468)
    3061                            .dwattr $C$DW$155, DW_AT_decl_column(0x01)
    3062                            .dwattr $C$DW$155, DW_AT_TI_max_frame_size(0x08)
    3063                            .dwpsn  file "../driverlib/timer.c",line 1129,column 1,is_stmt,address TimerValueGet,isa 1
    3064                    
    3065                            .dwfde $C$DW$CIE, TimerValueGet
    3066                    $C$DW$156       .dwtag  DW_TAG_formal_parameter
    3067                            .dwattr $C$DW$156, DW_AT_name("ui32Base")
    3068                            .dwattr $C$DW$156, DW_AT_TI_symbol_name("ui32Base")
    3069                            .dwattr $C$DW$156, DW_AT_type(*$C$DW$T$27)
    3070                            .dwattr $C$DW$156, DW_AT_location[DW_OP_reg0]
    3071                    
    3072                    $C$DW$157       .dwtag  DW_TAG_formal_parameter
    3073                            .dwattr $C$DW$157, DW_AT_name("ui32Timer")
    3074                            .dwattr $C$DW$157, DW_AT_TI_symbol_name("ui32Timer")
    3075                            .dwattr $C$DW$157, DW_AT_type(*$C$DW$T$27)
TI ARM Assembler Unix v18.1.1 Fri Jul  3 20:08:26 2020

Tools Copyright (c) 1996-2017 Texas Instruments Incorporated
timer.asm                                                            PAGE   57

    3076                            .dwattr $C$DW$157, DW_AT_location[DW_OP_reg1]
    3077                    
    3078                    ;----------------------------------------------------------------------
    3079                    ; 1128 | TimerValueGet(uint32_t ui32Base, uint32_t ui32Timer)                   
    3080                    ;----------------------------------------------------------------------
    3081                    
    3082                    ;*****************************************************************************
    3083                    ;* FUNCTION NAME: TimerValueGet                                              *
    3084                    ;*                                                                           *
    3085                    ;*   Regs Modified     : A1,SP,SR                                            *
    3086                    ;*   Regs Used         : A1,A2,SP,LR,SR                                      *
    3087                    ;*   Local Frame Size  : 0 Args + 8 Auto + 0 Save = 8 byte                   *
    3088                    ;*****************************************************************************
    3089 00000416           TimerValueGet:
    3090                    ;* --------------------------------------------------------------------------*
    3091                            .dwcfi  cfa_offset, 0
    3092 00000416 0D08F1AD          SUB       SP, SP, #8            ; [DPU_V7M3_PIPE]  ; [KEEP 32-BIT INS]
    3093                            .dwcfi  cfa_offset, 8
    3094                    $C$DW$158       .dwtag  DW_TAG_variable
    3095                            .dwattr $C$DW$158, DW_AT_name("ui32Base")
    3096                            .dwattr $C$DW$158, DW_AT_TI_symbol_name("ui32Base")
    3097                            .dwattr $C$DW$158, DW_AT_type(*$C$DW$T$27)
    3098                            .dwattr $C$DW$158, DW_AT_location[DW_OP_breg13 0]
    3099                    
    3100                    $C$DW$159       .dwtag  DW_TAG_variable
    3101                            .dwattr $C$DW$159, DW_AT_name("ui32Timer")
    3102                            .dwattr $C$DW$159, DW_AT_TI_symbol_name("ui32Timer")
    3103                            .dwattr $C$DW$159, DW_AT_type(*$C$DW$T$27)
    3104                            .dwattr $C$DW$159, DW_AT_location[DW_OP_breg13 4]
    3105                    
    3106                    ;----------------------------------------------------------------------
    3107                    ; 1130 | //                                                                     
    3108                    ; 1131 | // Check the arguments.                                                
    3109                    ; 1132 | //                                                                     
    3110                    ; 1133 | ASSERT(_TimerBaseValid(ui32Base));                                     
    3111                    ; 1134 | ASSERT((ui32Timer == TIMER_A) || (ui32Timer == TIMER_B));              
    3112                    ; 1136 | //                                                                     
    3113                    ; 1137 | // Return the appropriate timer value.                                 
    3114                    ; 1138 | //                                                                     
    3115                    ;----------------------------------------------------------------------
    3116 0000041a 9101              STR       A2, [SP, #4]          ; [DPU_V7M3_PIPE] |1129|  ; [ORIG 16-BIT INS]
    3117 0000041c 9000              STR       A1, [SP, #0]          ; [DPU_V7M3_PIPE] |1129|  ; [ORIG 16-BIT INS]
    3118                            .dwpsn  file "../driverlib/timer.c",line 1139,column 5,is_stmt,isa 1
    3119                    ;----------------------------------------------------------------------
    3120                    ; 1139 | return((ui32Timer == TIMER_A) ? HWREG(ui32Base + TIMER_O_TAR) :        
    3121                    ; 1140 |        HWREG(ui32Base + TIMER_O_TBR));                                 
    3122                    ;----------------------------------------------------------------------
    3123 0000041e 9801              LDR       A1, [SP, #4]          ; [DPU_V7M3_PIPE] |1139|  ; [ORIG 16-BIT INS]
    3124 00000420 28FF              CMP       A1, #255              ; [DPU_V7M3_PIPE] |1139|  ; [ORIG 16-BIT INS]
    3125 00000422 D102              BNE       ||$C$L35||            ; [DPU_V7M3_PIPE] |1139|  ; [ORIG 16-BIT INS]
    3126                            ; BRANCHCC OCCURS {||$C$L35||}   ; [] |1139| 
    3127                    ;* --------------------------------------------------------------------------*
    3128 00000424 9800              LDR       A1, [SP, #0]          ; [DPU_V7M3_PIPE] |1139|  ; [ORIG 16-BIT INS]
    3129 00000426 6C80              LDR       A1, [A1, #72]         ; [DPU_V7M3_PIPE] |1139|  ; [ORIG 16-BIT INS]
    3130 00000428 E001              B         ||$C$L36||            ; [DPU_V7M3_PIPE] |1139|  ; [ORIG 16-BIT INS]
TI ARM Assembler Unix v18.1.1 Fri Jul  3 20:08:26 2020

Tools Copyright (c) 1996-2017 Texas Instruments Incorporated
timer.asm                                                            PAGE   58

    3131                            ; BRANCH OCCURS {||$C$L36||}     ; [] |1139| 
    3132                    ;* --------------------------------------------------------------------------*
    3133 0000042a           ||$C$L35||:    
    3134 0000042a 9800              LDR       A1, [SP, #0]          ; [DPU_V7M3_PIPE] |1139|  ; [ORIG 16-BIT INS]
    3135 0000042c 6CC0              LDR       A1, [A1, #76]         ; [DPU_V7M3_PIPE] |1139|  ; [ORIG 16-BIT INS]
    3136                    ;* --------------------------------------------------------------------------*
    3137 0000042e           ||$C$L36||:    
    3138                            .dwpsn  file "../driverlib/timer.c",line 1141,column 1,is_stmt,isa 1
    3139 0000042e B002              ADD       SP, SP, #8            ; [DPU_V7M3_PIPE]  ; [ORIG 16-BIT INS]
    3140                            .dwcfi  cfa_offset, 0
    3141                    $C$DW$160       .dwtag  DW_TAG_TI_branch
    3142                            .dwattr $C$DW$160, DW_AT_low_pc(0x00)
    3143                            .dwattr $C$DW$160, DW_AT_TI_return
    3144                    
    3145 00000430 4770              BX        LR                    ; [DPU_V7M3_PIPE]  ; [ORIG 16-BIT INS]
    3146                            ; BRANCH OCCURS                  ; [] 
    3147                            .dwattr $C$DW$155, DW_AT_TI_end_file("../driverlib/timer.c")
    3148                            .dwattr $C$DW$155, DW_AT_TI_end_line(0x475)
    3149                            .dwattr $C$DW$155, DW_AT_TI_end_column(0x01)
    3150                            .dwendentry
    3151                            .dwendtag $C$DW$155
    3152                    
    3153 00000432                   .sect   ".text"
    3154                            .clink
    3155                            .thumbfunc TimerValueGet64
    3156 00000432                   .thumb
    3157                            .global TimerValueGet64
    3158                    
    3159                    $C$DW$161       .dwtag  DW_TAG_subprogram
    3160                            .dwattr $C$DW$161, DW_AT_name("TimerValueGet64")
    3161                            .dwattr $C$DW$161, DW_AT_low_pc(TimerValueGet64)
    3162                            .dwattr $C$DW$161, DW_AT_high_pc(0x00)
    3163                            .dwattr $C$DW$161, DW_AT_TI_symbol_name("TimerValueGet64")
    3164                            .dwattr $C$DW$161, DW_AT_external
    3165                            .dwattr $C$DW$161, DW_AT_type(*$C$DW$T$37)
    3166                            .dwattr $C$DW$161, DW_AT_TI_begin_file("../driverlib/timer.c")
    3167                            .dwattr $C$DW$161, DW_AT_TI_begin_line(0x483)
    3168                            .dwattr $C$DW$161, DW_AT_TI_begin_column(0x01)
    3169                            .dwattr $C$DW$161, DW_AT_decl_file("../driverlib/timer.c")
    3170                            .dwattr $C$DW$161, DW_AT_decl_line(0x483)
    3171                            .dwattr $C$DW$161, DW_AT_decl_column(0x01)
    3172                            .dwattr $C$DW$161, DW_AT_TI_max_frame_size(0x10)
    3173                            .dwpsn  file "../driverlib/timer.c",line 1156,column 1,is_stmt,address TimerValueGet64,isa 1
    3174                    
    3175                            .dwfde $C$DW$CIE, TimerValueGet64
    3176                    $C$DW$162       .dwtag  DW_TAG_formal_parameter
    3177                            .dwattr $C$DW$162, DW_AT_name("ui32Base")
    3178                            .dwattr $C$DW$162, DW_AT_TI_symbol_name("ui32Base")
    3179                            .dwattr $C$DW$162, DW_AT_type(*$C$DW$T$27)
    3180                            .dwattr $C$DW$162, DW_AT_location[DW_OP_reg0]
    3181                    
    3182                    ;----------------------------------------------------------------------
    3183                    ; 1155 | TimerValueGet64(uint32_t ui32Base)                                     
    3184                    ;----------------------------------------------------------------------
    3185                    
TI ARM Assembler Unix v18.1.1 Fri Jul  3 20:08:26 2020

Tools Copyright (c) 1996-2017 Texas Instruments Incorporated
timer.asm                                                            PAGE   59

    3186                    ;*****************************************************************************
    3187                    ;* FUNCTION NAME: TimerValueGet64                                            *
    3188                    ;*                                                                           *
    3189                    ;*   Regs Modified     : A1,A2,A3,A4,SP,SR                                   *
    3190                    ;*   Regs Used         : A1,A2,A3,A4,SP,LR,SR                                *
    3191                    ;*   Local Frame Size  : 0 Args + 16 Auto + 0 Save = 16 byte                 *
    3192                    ;*****************************************************************************
    3193 00000432           TimerValueGet64:
    3194                    ;* --------------------------------------------------------------------------*
    3195                            .dwcfi  cfa_offset, 0
    3196 00000432 0D10F1AD          SUB       SP, SP, #16           ; [DPU_V7M3_PIPE]  ; [KEEP 32-BIT INS]
    3197                            .dwcfi  cfa_offset, 16
    3198                    $C$DW$163       .dwtag  DW_TAG_variable
    3199                            .dwattr $C$DW$163, DW_AT_name("ui32Base")
    3200                            .dwattr $C$DW$163, DW_AT_TI_symbol_name("ui32Base")
    3201                            .dwattr $C$DW$163, DW_AT_type(*$C$DW$T$27)
    3202                            .dwattr $C$DW$163, DW_AT_location[DW_OP_breg13 0]
    3203                    
    3204                    $C$DW$164       .dwtag  DW_TAG_variable
    3205                            .dwattr $C$DW$164, DW_AT_name("ui32High1")
    3206                            .dwattr $C$DW$164, DW_AT_TI_symbol_name("ui32High1")
    3207                            .dwattr $C$DW$164, DW_AT_type(*$C$DW$T$27)
    3208                            .dwattr $C$DW$164, DW_AT_location[DW_OP_breg13 4]
    3209                    
    3210                    $C$DW$165       .dwtag  DW_TAG_variable
    3211                            .dwattr $C$DW$165, DW_AT_name("ui32High2")
    3212                            .dwattr $C$DW$165, DW_AT_TI_symbol_name("ui32High2")
    3213                            .dwattr $C$DW$165, DW_AT_type(*$C$DW$T$27)
    3214                            .dwattr $C$DW$165, DW_AT_location[DW_OP_breg13 8]
    3215                    
    3216                    $C$DW$166       .dwtag  DW_TAG_variable
    3217                            .dwattr $C$DW$166, DW_AT_name("ui32Low")
    3218                            .dwattr $C$DW$166, DW_AT_TI_symbol_name("ui32Low")
    3219                            .dwattr $C$DW$166, DW_AT_type(*$C$DW$T$27)
    3220                            .dwattr $C$DW$166, DW_AT_location[DW_OP_breg13 12]
    3221                    
    3222                    ;----------------------------------------------------------------------
    3223                    ; 1157 | uint32_t ui32High1, ui32High2, ui32Low;                                
    3224                    ; 1159 | //                                                                     
    3225                    ; 1160 | // Check the arguments.                                                
    3226                    ; 1161 | //                                                                     
    3227                    ; 1162 | ASSERT(_TimerBaseValid(ui32Base));                                     
    3228                    ; 1164 | //                                                                     
    3229                    ; 1165 | // Read the 64-bit timer value.  A read of the low 32-bits is performed
    3230                    ; 1166 | // between two reads of the upper 32-bits; if the upper 32-bit values m
    3231                    ;     | atch                                                                   
    3232                    ; 1167 | // then the 64-bit value is consistent.  If they do not match, then the
    3233                    ; 1168 | // read is performed again until they do match (it should never execute
    3234                    ;     |  the                                                                   
    3235                    ; 1169 | // loop body more than twice).                                         
    3236                    ; 1170 | //                                                                     
    3237                    ; 1171 | do                                                                     
    3238                    ;----------------------------------------------------------------------
    3239 00000436 9000              STR       A1, [SP, #0]          ; [DPU_V7M3_PIPE] |1156|  ; [ORIG 16-BIT INS]
    3240                    ;* --------------------------------------------------------------------------*
TI ARM Assembler Unix v18.1.1 Fri Jul  3 20:08:26 2020

Tools Copyright (c) 1996-2017 Texas Instruments Incorporated
timer.asm                                                            PAGE   60

    3241                    ;*   BEGIN LOOP ||$C$L37||
    3242                    ;*
    3243                    ;*   Loop source line                : 1171
    3244                    ;*   Loop closing brace source line  : 1176
    3245                    ;*   Known Minimum Trip Count        : 1
    3246                    ;*   Known Maximum Trip Count        : 4294967295
    3247                    ;*   Known Max Trip Count Factor     : 1
    3248                    ;* --------------------------------------------------------------------------*
    3249 00000438           ||$C$L37||:    
    3250                            .dwpsn  file "../driverlib/timer.c",line 1173,column 9,is_stmt,isa 1
    3251                    ;----------------------------------------------------------------------
    3252                    ; 1173 | ui32High1 = HWREG(ui32Base + TIMER_O_TBR);                             
    3253                    ;----------------------------------------------------------------------
    3254 00000438 9800              LDR       A1, [SP, #0]          ; [DPU_V7M3_PIPE] |1173|  ; [ORIG 16-BIT INS]
    3255 0000043a 6CC0              LDR       A1, [A1, #76]         ; [DPU_V7M3_PIPE] |1173|  ; [ORIG 16-BIT INS]
    3256 0000043c 9001              STR       A1, [SP, #4]          ; [DPU_V7M3_PIPE] |1173|  ; [ORIG 16-BIT INS]
    3257                            .dwpsn  file "../driverlib/timer.c",line 1174,column 9,is_stmt,isa 1
    3258                    ;----------------------------------------------------------------------
    3259                    ; 1174 | ui32Low = HWREG(ui32Base + TIMER_O_TAR);                               
    3260                    ;----------------------------------------------------------------------
    3261 0000043e 9800              LDR       A1, [SP, #0]          ; [DPU_V7M3_PIPE] |1174|  ; [ORIG 16-BIT INS]
    3262 00000440 6C80              LDR       A1, [A1, #72]         ; [DPU_V7M3_PIPE] |1174|  ; [ORIG 16-BIT INS]
    3263 00000442 9003              STR       A1, [SP, #12]         ; [DPU_V7M3_PIPE] |1174|  ; [ORIG 16-BIT INS]
    3264                            .dwpsn  file "../driverlib/timer.c",line 1175,column 9,is_stmt,isa 1
    3265                    ;----------------------------------------------------------------------
    3266                    ; 1175 | ui32High2 = HWREG(ui32Base + TIMER_O_TBR);                             
    3267                    ;----------------------------------------------------------------------
    3268 00000444 9800              LDR       A1, [SP, #0]          ; [DPU_V7M3_PIPE] |1175|  ; [ORIG 16-BIT INS]
    3269 00000446 6CC0              LDR       A1, [A1, #76]         ; [DPU_V7M3_PIPE] |1175|  ; [ORIG 16-BIT INS]
    3270 00000448 9002              STR       A1, [SP, #8]          ; [DPU_V7M3_PIPE] |1175|  ; [ORIG 16-BIT INS]
    3271                            .dwpsn  file "../driverlib/timer.c",line 1177,column 11,is_stmt,isa 1
    3272                    ;----------------------------------------------------------------------
    3273                    ; 1177 | while(ui32High1 != ui32High2);                                         
    3274                    ; 1179 | //                                                                     
    3275                    ; 1180 | // Return the timer value.                                             
    3276                    ; 1181 | //                                                                     
    3277                    ;----------------------------------------------------------------------
    3278 0000044a 9901              LDR       A2, [SP, #4]          ; [DPU_V7M3_PIPE] |1177|  ; [ORIG 16-BIT INS]
    3279 0000044c 9802              LDR       A1, [SP, #8]          ; [DPU_V7M3_PIPE] |1177|  ; [ORIG 16-BIT INS]
    3280 0000044e 4288              CMP       A1, A2                ; [DPU_V7M3_PIPE] |1177|  ; [ORIG 16-BIT INS]
    3281 00000450 D1F2              BNE       ||$C$L37||            ; [DPU_V7M3_PIPE] |1177|  ; [ORIG 16-BIT INS]
    3282                            ; BRANCHCC OCCURS {||$C$L37||}   ; [] |1177| 
    3283                    ;* --------------------------------------------------------------------------*
    3284                            .dwpsn  file "../driverlib/timer.c",line 1182,column 5,is_stmt,isa 1
    3285                    ;----------------------------------------------------------------------
    3286                    ; 1182 | return(((uint64_t)ui32High1 << 32) | (uint64_t)ui32Low);               
    3287                    ;----------------------------------------------------------------------
    3288 00000452 9A01              LDR       A3, [SP, #4]          ; [DPU_V7M3_PIPE] |1182|  ; [ORIG 16-BIT INS]
    3289 00000454 9803              LDR       A1, [SP, #12]         ; [DPU_V7M3_PIPE] |1182|  ; [ORIG 16-BIT INS]
    3290 00000456 2300              MOVS      A4, #0                ; [DPU_V7M3_PIPE] |1182|  ; [ORIG 16-BIT INS]
    3291 00000458 2100              MOVS      A2, #0                ; [DPU_V7M3_PIPE] |1182|  ; [ORIG 16-BIT INS]
    3292 0000045a 0012              LSLS      A3, A3, #0            ; [DPU_V7M3_PIPE] |1182|  ; [ORIG 16-BIT INS]
    3293 0000045c 4318              ORRS      A1, A1, A4            ; [DPU_V7M3_PIPE] |1182|  ; [ORIG 16-BIT INS]
    3294 0000045e 4311              ORRS      A2, A2, A3            ; [DPU_V7M3_PIPE] |1182|  ; [ORIG 16-BIT INS]
    3295                            .dwpsn  file "../driverlib/timer.c",line 1183,column 1,is_stmt,isa 1
TI ARM Assembler Unix v18.1.1 Fri Jul  3 20:08:26 2020

Tools Copyright (c) 1996-2017 Texas Instruments Incorporated
timer.asm                                                            PAGE   61

    3296 00000460 B004              ADD       SP, SP, #16           ; [DPU_V7M3_PIPE]  ; [ORIG 16-BIT INS]
    3297                            .dwcfi  cfa_offset, 0
    3298                    $C$DW$167       .dwtag  DW_TAG_TI_branch
    3299                            .dwattr $C$DW$167, DW_AT_low_pc(0x00)
    3300                            .dwattr $C$DW$167, DW_AT_TI_return
    3301                    
    3302 00000462 4770              BX        LR                    ; [DPU_V7M3_PIPE]  ; [ORIG 16-BIT INS]
    3303                            ; BRANCH OCCURS                  ; [] 
    3304                            .dwattr $C$DW$161, DW_AT_TI_end_file("../driverlib/timer.c")
    3305                            .dwattr $C$DW$161, DW_AT_TI_end_line(0x49f)
    3306                            .dwattr $C$DW$161, DW_AT_TI_end_column(0x01)
    3307                            .dwendentry
    3308                            .dwendtag $C$DW$161
    3309                    
    3310 00000464                   .sect   ".text"
    3311                            .clink
    3312                            .thumbfunc TimerMatchSet
    3313 00000464                   .thumb
    3314                            .global TimerMatchSet
    3315                    
    3316                    $C$DW$168       .dwtag  DW_TAG_subprogram
    3317                            .dwattr $C$DW$168, DW_AT_name("TimerMatchSet")
    3318                            .dwattr $C$DW$168, DW_AT_low_pc(TimerMatchSet)
    3319                            .dwattr $C$DW$168, DW_AT_high_pc(0x00)
    3320                            .dwattr $C$DW$168, DW_AT_TI_symbol_name("TimerMatchSet")
    3321                            .dwattr $C$DW$168, DW_AT_external
    3322                            .dwattr $C$DW$168, DW_AT_TI_begin_file("../driverlib/timer.c")
    3323                            .dwattr $C$DW$168, DW_AT_TI_begin_line(0x4b9)
    3324                            .dwattr $C$DW$168, DW_AT_TI_begin_column(0x01)
    3325                            .dwattr $C$DW$168, DW_AT_decl_file("../driverlib/timer.c")
    3326                            .dwattr $C$DW$168, DW_AT_decl_line(0x4b9)
    3327                            .dwattr $C$DW$168, DW_AT_decl_column(0x01)
    3328                            .dwattr $C$DW$168, DW_AT_TI_max_frame_size(0x10)
    3329                            .dwpsn  file "../driverlib/timer.c",line 1211,column 1,is_stmt,address TimerMatchSet,isa 1
    3330                    
    3331                            .dwfde $C$DW$CIE, TimerMatchSet
    3332                    $C$DW$169       .dwtag  DW_TAG_formal_parameter
    3333                            .dwattr $C$DW$169, DW_AT_name("ui32Base")
    3334                            .dwattr $C$DW$169, DW_AT_TI_symbol_name("ui32Base")
    3335                            .dwattr $C$DW$169, DW_AT_type(*$C$DW$T$27)
    3336                            .dwattr $C$DW$169, DW_AT_location[DW_OP_reg0]
    3337                    
    3338                    $C$DW$170       .dwtag  DW_TAG_formal_parameter
    3339                            .dwattr $C$DW$170, DW_AT_name("ui32Timer")
    3340                            .dwattr $C$DW$170, DW_AT_TI_symbol_name("ui32Timer")
    3341                            .dwattr $C$DW$170, DW_AT_type(*$C$DW$T$27)
    3342                            .dwattr $C$DW$170, DW_AT_location[DW_OP_reg1]
    3343                    
    3344                    $C$DW$171       .dwtag  DW_TAG_formal_parameter
    3345                            .dwattr $C$DW$171, DW_AT_name("ui32Value")
    3346                            .dwattr $C$DW$171, DW_AT_TI_symbol_name("ui32Value")
    3347                            .dwattr $C$DW$171, DW_AT_type(*$C$DW$T$27)
    3348                            .dwattr $C$DW$171, DW_AT_location[DW_OP_reg2]
    3349                    
    3350                    ;----------------------------------------------------------------------
TI ARM Assembler Unix v18.1.1 Fri Jul  3 20:08:26 2020

Tools Copyright (c) 1996-2017 Texas Instruments Incorporated
timer.asm                                                            PAGE   62

    3351                    ; 1209 | TimerMatchSet(uint32_t ui32Base, uint32_t ui32Timer,                   
    3352                    ; 1210 | uint32_t ui32Value)                                                    
    3353                    ;----------------------------------------------------------------------
    3354                    
    3355                    ;*****************************************************************************
    3356                    ;* FUNCTION NAME: TimerMatchSet                                              *
    3357                    ;*                                                                           *
    3358                    ;*   Regs Modified     : A1,A2,SP,SR                                         *
    3359                    ;*   Regs Used         : A1,A2,A3,SP,LR,SR                                   *
    3360                    ;*   Local Frame Size  : 0 Args + 12 Auto + 0 Save = 12 byte                 *
    3361                    ;*****************************************************************************
    3362 00000464           TimerMatchSet:
    3363                    ;* --------------------------------------------------------------------------*
    3364                            .dwcfi  cfa_offset, 0
    3365 00000464 0D10F1AD          SUB       SP, SP, #16           ; [DPU_V7M3_PIPE]  ; [KEEP 32-BIT INS]
    3366                            .dwcfi  cfa_offset, 16
    3367                    $C$DW$172       .dwtag  DW_TAG_variable
    3368                            .dwattr $C$DW$172, DW_AT_name("ui32Base")
    3369                            .dwattr $C$DW$172, DW_AT_TI_symbol_name("ui32Base")
    3370                            .dwattr $C$DW$172, DW_AT_type(*$C$DW$T$27)
    3371                            .dwattr $C$DW$172, DW_AT_location[DW_OP_breg13 0]
    3372                    
    3373                    $C$DW$173       .dwtag  DW_TAG_variable
    3374                            .dwattr $C$DW$173, DW_AT_name("ui32Timer")
    3375                            .dwattr $C$DW$173, DW_AT_TI_symbol_name("ui32Timer")
    3376                            .dwattr $C$DW$173, DW_AT_type(*$C$DW$T$27)
    3377                            .dwattr $C$DW$173, DW_AT_location[DW_OP_breg13 4]
    3378                    
    3379                    $C$DW$174       .dwtag  DW_TAG_variable
    3380                            .dwattr $C$DW$174, DW_AT_name("ui32Value")
    3381                            .dwattr $C$DW$174, DW_AT_TI_symbol_name("ui32Value")
    3382                            .dwattr $C$DW$174, DW_AT_type(*$C$DW$T$27)
    3383                            .dwattr $C$DW$174, DW_AT_location[DW_OP_breg13 8]
    3384                    
    3385                    ;----------------------------------------------------------------------
    3386                    ; 1212 | //                                                                     
    3387                    ; 1213 | // Check the arguments.                                                
    3388                    ; 1214 | //                                                                     
    3389                    ; 1215 | ASSERT(_TimerBaseValid(ui32Base));                                     
    3390                    ; 1216 | ASSERT((ui32Timer == TIMER_A) || (ui32Timer == TIMER_B) ||             
    3391                    ; 1217 |        (ui32Timer == TIMER_BOTH));                                     
    3392                    ; 1219 | //                                                                     
    3393                    ; 1220 | // Set the timer A match value if requested.                           
    3394                    ; 1221 | //                                                                     
    3395                    ;----------------------------------------------------------------------
    3396 00000468 9202              STR       A3, [SP, #8]          ; [DPU_V7M3_PIPE] |1211|  ; [ORIG 16-BIT INS]
    3397 0000046a 9101              STR       A2, [SP, #4]          ; [DPU_V7M3_PIPE] |1211|  ; [ORIG 16-BIT INS]
    3398 0000046c 9000              STR       A1, [SP, #0]          ; [DPU_V7M3_PIPE] |1211|  ; [ORIG 16-BIT INS]
    3399                            .dwpsn  file "../driverlib/timer.c",line 1222,column 5,is_stmt,isa 1
    3400                    ;----------------------------------------------------------------------
    3401                    ; 1222 | if(ui32Timer & TIMER_A)                                                
    3402                    ;----------------------------------------------------------------------
    3403 0000046e 9801              LDR       A1, [SP, #4]          ; [DPU_V7M3_PIPE] |1222|  ; [ORIG 16-BIT INS]
    3404 00000470 0FFFF010          TST       A1, #255              ; [DPU_V7M3_PIPE] |1222|  ; [KEEP 32-BIT INS]
    3405 00000474 D002              BEQ       ||$C$L38||            ; [DPU_V7M3_PIPE] |1222|  ; [ORIG 16-BIT INS]
TI ARM Assembler Unix v18.1.1 Fri Jul  3 20:08:26 2020

Tools Copyright (c) 1996-2017 Texas Instruments Incorporated
timer.asm                                                            PAGE   63

    3406                            ; BRANCHCC OCCURS {||$C$L38||}   ; [] |1222| 
    3407                    ;* --------------------------------------------------------------------------*
    3408                            .dwpsn  file "../driverlib/timer.c",line 1224,column 9,is_stmt,isa 1
    3409                    ;----------------------------------------------------------------------
    3410                    ; 1224 | HWREG(ui32Base + TIMER_O_TAMATCHR) = ui32Value;                        
    3411                    ; 1227 | //                                                                     
    3412                    ; 1228 | // Set the timer B match value if requested.                           
    3413                    ; 1229 | //                                                                     
    3414                    ;----------------------------------------------------------------------
    3415 00000476 9802              LDR       A1, [SP, #8]          ; [DPU_V7M3_PIPE] |1224|  ; [ORIG 16-BIT INS]
    3416 00000478 9900              LDR       A2, [SP, #0]          ; [DPU_V7M3_PIPE] |1224|  ; [ORIG 16-BIT INS]
    3417 0000047a 6308              STR       A1, [A2, #48]         ; [DPU_V7M3_PIPE] |1224|  ; [ORIG 16-BIT INS]
    3418                    ;* --------------------------------------------------------------------------*
    3419 0000047c           ||$C$L38||:    
    3420                            .dwpsn  file "../driverlib/timer.c",line 1230,column 5,is_stmt,isa 1
    3421                    ;----------------------------------------------------------------------
    3422                    ; 1230 | if(ui32Timer & TIMER_B)                                                
    3423                    ;----------------------------------------------------------------------
    3424 0000047c 9801              LDR       A1, [SP, #4]          ; [DPU_V7M3_PIPE] |1230|  ; [ORIG 16-BIT INS]
    3425 0000047e 4F7FF410          TST       A1, #65280            ; [DPU_V7M3_PIPE] |1230|  ; [KEEP 32-BIT INS]
    3426 00000482 D002              BEQ       ||$C$L39||            ; [DPU_V7M3_PIPE] |1230|  ; [ORIG 16-BIT INS]
    3427                            ; BRANCHCC OCCURS {||$C$L39||}   ; [] |1230| 
    3428                    ;* --------------------------------------------------------------------------*
    3429                            .dwpsn  file "../driverlib/timer.c",line 1232,column 9,is_stmt,isa 1
    3430                    ;----------------------------------------------------------------------
    3431                    ; 1232 | HWREG(ui32Base + TIMER_O_TBMATCHR) = ui32Value;                        
    3432                    ;----------------------------------------------------------------------
    3433 00000484 9802              LDR       A1, [SP, #8]          ; [DPU_V7M3_PIPE] |1232|  ; [ORIG 16-BIT INS]
    3434 00000486 9900              LDR       A2, [SP, #0]          ; [DPU_V7M3_PIPE] |1232|  ; [ORIG 16-BIT INS]
    3435 00000488 6348              STR       A1, [A2, #52]         ; [DPU_V7M3_PIPE] |1232|  ; [ORIG 16-BIT INS]
    3436                            .dwpsn  file "../driverlib/timer.c",line 1234,column 1,is_stmt,isa 1
    3437                    ;* --------------------------------------------------------------------------*
    3438 0000048a           ||$C$L39||:    
    3439 0000048a B004              ADD       SP, SP, #16           ; [DPU_V7M3_PIPE]  ; [ORIG 16-BIT INS]
    3440                            .dwcfi  cfa_offset, 0
    3441                    $C$DW$175       .dwtag  DW_TAG_TI_branch
    3442                            .dwattr $C$DW$175, DW_AT_low_pc(0x00)
    3443                            .dwattr $C$DW$175, DW_AT_TI_return
    3444                    
    3445 0000048c 4770              BX        LR                    ; [DPU_V7M3_PIPE]  ; [ORIG 16-BIT INS]
    3446                            ; BRANCH OCCURS                  ; [] 
    3447                            .dwattr $C$DW$168, DW_AT_TI_end_file("../driverlib/timer.c")
    3448                            .dwattr $C$DW$168, DW_AT_TI_end_line(0x4d2)
    3449                            .dwattr $C$DW$168, DW_AT_TI_end_column(0x01)
    3450                            .dwendentry
    3451                            .dwendtag $C$DW$168
    3452                    
    3453 0000048e                   .sect   ".text"
    3454                            .clink
    3455                            .thumbfunc TimerMatchGet
    3456 0000048e                   .thumb
    3457                            .global TimerMatchGet
    3458                    
    3459                    $C$DW$176       .dwtag  DW_TAG_subprogram
    3460                            .dwattr $C$DW$176, DW_AT_name("TimerMatchGet")
TI ARM Assembler Unix v18.1.1 Fri Jul  3 20:08:26 2020

Tools Copyright (c) 1996-2017 Texas Instruments Incorporated
timer.asm                                                            PAGE   64

    3461                            .dwattr $C$DW$176, DW_AT_low_pc(TimerMatchGet)
    3462                            .dwattr $C$DW$176, DW_AT_high_pc(0x00)
    3463                            .dwattr $C$DW$176, DW_AT_TI_symbol_name("TimerMatchGet")
    3464                            .dwattr $C$DW$176, DW_AT_external
    3465                            .dwattr $C$DW$176, DW_AT_type(*$C$DW$T$27)
    3466                            .dwattr $C$DW$176, DW_AT_TI_begin_file("../driverlib/timer.c")
    3467                            .dwattr $C$DW$176, DW_AT_TI_begin_line(0x4e7)
    3468                            .dwattr $C$DW$176, DW_AT_TI_begin_column(0x01)
    3469                            .dwattr $C$DW$176, DW_AT_decl_file("../driverlib/timer.c")
    3470                            .dwattr $C$DW$176, DW_AT_decl_line(0x4e7)
    3471                            .dwattr $C$DW$176, DW_AT_decl_column(0x01)
    3472                            .dwattr $C$DW$176, DW_AT_TI_max_frame_size(0x08)
    3473                            .dwpsn  file "../driverlib/timer.c",line 1256,column 1,is_stmt,address TimerMatchGet,isa 1
    3474                    
    3475                            .dwfde $C$DW$CIE, TimerMatchGet
    3476                    $C$DW$177       .dwtag  DW_TAG_formal_parameter
    3477                            .dwattr $C$DW$177, DW_AT_name("ui32Base")
    3478                            .dwattr $C$DW$177, DW_AT_TI_symbol_name("ui32Base")
    3479                            .dwattr $C$DW$177, DW_AT_type(*$C$DW$T$27)
    3480                            .dwattr $C$DW$177, DW_AT_location[DW_OP_reg0]
    3481                    
    3482                    $C$DW$178       .dwtag  DW_TAG_formal_parameter
    3483                            .dwattr $C$DW$178, DW_AT_name("ui32Timer")
    3484                            .dwattr $C$DW$178, DW_AT_TI_symbol_name("ui32Timer")
    3485                            .dwattr $C$DW$178, DW_AT_type(*$C$DW$T$27)
    3486                            .dwattr $C$DW$178, DW_AT_location[DW_OP_reg1]
    3487                    
    3488                    ;----------------------------------------------------------------------
    3489                    ; 1255 | TimerMatchGet(uint32_t ui32Base, uint32_t ui32Timer)                   
    3490                    ;----------------------------------------------------------------------
    3491                    
    3492                    ;*****************************************************************************
    3493                    ;* FUNCTION NAME: TimerMatchGet                                              *
    3494                    ;*                                                                           *
    3495                    ;*   Regs Modified     : A1,SP,SR                                            *
    3496                    ;*   Regs Used         : A1,A2,SP,LR,SR                                      *
    3497                    ;*   Local Frame Size  : 0 Args + 8 Auto + 0 Save = 8 byte                   *
    3498                    ;*****************************************************************************
    3499 0000048e           TimerMatchGet:
    3500                    ;* --------------------------------------------------------------------------*
    3501                            .dwcfi  cfa_offset, 0
    3502 0000048e 0D08F1AD          SUB       SP, SP, #8            ; [DPU_V7M3_PIPE]  ; [KEEP 32-BIT INS]
    3503                            .dwcfi  cfa_offset, 8
    3504                    $C$DW$179       .dwtag  DW_TAG_variable
    3505                            .dwattr $C$DW$179, DW_AT_name("ui32Base")
    3506                            .dwattr $C$DW$179, DW_AT_TI_symbol_name("ui32Base")
    3507                            .dwattr $C$DW$179, DW_AT_type(*$C$DW$T$27)
    3508                            .dwattr $C$DW$179, DW_AT_location[DW_OP_breg13 0]
    3509                    
    3510                    $C$DW$180       .dwtag  DW_TAG_variable
    3511                            .dwattr $C$DW$180, DW_AT_name("ui32Timer")
    3512                            .dwattr $C$DW$180, DW_AT_TI_symbol_name("ui32Timer")
    3513                            .dwattr $C$DW$180, DW_AT_type(*$C$DW$T$27)
    3514                            .dwattr $C$DW$180, DW_AT_location[DW_OP_breg13 4]
    3515                    
TI ARM Assembler Unix v18.1.1 Fri Jul  3 20:08:26 2020

Tools Copyright (c) 1996-2017 Texas Instruments Incorporated
timer.asm                                                            PAGE   65

    3516                    ;----------------------------------------------------------------------
    3517                    ; 1257 | //                                                                     
    3518                    ; 1258 | // Check the arguments.                                                
    3519                    ; 1259 | //                                                                     
    3520                    ; 1260 | ASSERT(_TimerBaseValid(ui32Base));                                     
    3521                    ; 1261 | ASSERT((ui32Timer == TIMER_A) || (ui32Timer == TIMER_B));              
    3522                    ; 1263 | //                                                                     
    3523                    ; 1264 | // Return the appropriate match value.                                 
    3524                    ; 1265 | //                                                                     
    3525                    ;----------------------------------------------------------------------
    3526 00000492 9101              STR       A2, [SP, #4]          ; [DPU_V7M3_PIPE] |1256|  ; [ORIG 16-BIT INS]
    3527 00000494 9000              STR       A1, [SP, #0]          ; [DPU_V7M3_PIPE] |1256|  ; [ORIG 16-BIT INS]
    3528                            .dwpsn  file "../driverlib/timer.c",line 1266,column 5,is_stmt,isa 1
    3529                    ;----------------------------------------------------------------------
    3530                    ; 1266 | return((ui32Timer == TIMER_A) ? HWREG(ui32Base + TIMER_O_TAMATCHR) :   
    3531                    ; 1267 |        HWREG(ui32Base + TIMER_O_TBMATCHR));                            
    3532                    ;----------------------------------------------------------------------
    3533 00000496 9801              LDR       A1, [SP, #4]          ; [DPU_V7M3_PIPE] |1266|  ; [ORIG 16-BIT INS]
    3534 00000498 28FF              CMP       A1, #255              ; [DPU_V7M3_PIPE] |1266|  ; [ORIG 16-BIT INS]
    3535 0000049a D102              BNE       ||$C$L40||            ; [DPU_V7M3_PIPE] |1266|  ; [ORIG 16-BIT INS]
    3536                            ; BRANCHCC OCCURS {||$C$L40||}   ; [] |1266| 
    3537                    ;* --------------------------------------------------------------------------*
    3538 0000049c 9800              LDR       A1, [SP, #0]          ; [DPU_V7M3_PIPE] |1266|  ; [ORIG 16-BIT INS]
    3539 0000049e 6B00              LDR       A1, [A1, #48]         ; [DPU_V7M3_PIPE] |1266|  ; [ORIG 16-BIT INS]
    3540 000004a0 E001              B         ||$C$L41||            ; [DPU_V7M3_PIPE] |1266|  ; [ORIG 16-BIT INS]
    3541                            ; BRANCH OCCURS {||$C$L41||}     ; [] |1266| 
    3542                    ;* --------------------------------------------------------------------------*
    3543 000004a2           ||$C$L40||:    
    3544 000004a2 9800              LDR       A1, [SP, #0]          ; [DPU_V7M3_PIPE] |1266|  ; [ORIG 16-BIT INS]
    3545 000004a4 6B40              LDR       A1, [A1, #52]         ; [DPU_V7M3_PIPE] |1266|  ; [ORIG 16-BIT INS]
    3546                    ;* --------------------------------------------------------------------------*
    3547 000004a6           ||$C$L41||:    
    3548                            .dwpsn  file "../driverlib/timer.c",line 1268,column 1,is_stmt,isa 1
    3549 000004a6 B002              ADD       SP, SP, #8            ; [DPU_V7M3_PIPE]  ; [ORIG 16-BIT INS]
    3550                            .dwcfi  cfa_offset, 0
    3551                    $C$DW$181       .dwtag  DW_TAG_TI_branch
    3552                            .dwattr $C$DW$181, DW_AT_low_pc(0x00)
    3553                            .dwattr $C$DW$181, DW_AT_TI_return
    3554                    
    3555 000004a8 4770              BX        LR                    ; [DPU_V7M3_PIPE]  ; [ORIG 16-BIT INS]
    3556                            ; BRANCH OCCURS                  ; [] 
    3557                            .dwattr $C$DW$176, DW_AT_TI_end_file("../driverlib/timer.c")
    3558                            .dwattr $C$DW$176, DW_AT_TI_end_line(0x4f4)
    3559                            .dwattr $C$DW$176, DW_AT_TI_end_column(0x01)
    3560                            .dwendentry
    3561                            .dwendtag $C$DW$176
    3562                    
    3563 000004aa                   .sect   ".text"
    3564                            .clink
    3565                            .thumbfunc TimerMatchSet64
    3566 000004aa                   .thumb
    3567                            .global TimerMatchSet64
    3568                    
    3569                    $C$DW$182       .dwtag  DW_TAG_subprogram
    3570                            .dwattr $C$DW$182, DW_AT_name("TimerMatchSet64")
TI ARM Assembler Unix v18.1.1 Fri Jul  3 20:08:26 2020

Tools Copyright (c) 1996-2017 Texas Instruments Incorporated
timer.asm                                                            PAGE   66

    3571                            .dwattr $C$DW$182, DW_AT_low_pc(TimerMatchSet64)
    3572                            .dwattr $C$DW$182, DW_AT_high_pc(0x00)
    3573                            .dwattr $C$DW$182, DW_AT_TI_symbol_name("TimerMatchSet64")
    3574                            .dwattr $C$DW$182, DW_AT_external
    3575                            .dwattr $C$DW$182, DW_AT_TI_begin_file("../driverlib/timer.c")
    3576                            .dwattr $C$DW$182, DW_AT_TI_begin_line(0x505)
    3577                            .dwattr $C$DW$182, DW_AT_TI_begin_column(0x01)
    3578                            .dwattr $C$DW$182, DW_AT_decl_file("../driverlib/timer.c")
    3579                            .dwattr $C$DW$182, DW_AT_decl_line(0x505)
    3580                            .dwattr $C$DW$182, DW_AT_decl_column(0x01)
    3581                            .dwattr $C$DW$182, DW_AT_TI_max_frame_size(0x10)
    3582                            .dwpsn  file "../driverlib/timer.c",line 1286,column 1,is_stmt,address TimerMatchSet64,isa 1
    3583                    
    3584                            .dwfde $C$DW$CIE, TimerMatchSet64
    3585                    $C$DW$183       .dwtag  DW_TAG_formal_parameter
    3586                            .dwattr $C$DW$183, DW_AT_name("ui32Base")
    3587                            .dwattr $C$DW$183, DW_AT_TI_symbol_name("ui32Base")
    3588                            .dwattr $C$DW$183, DW_AT_type(*$C$DW$T$27)
    3589                            .dwattr $C$DW$183, DW_AT_location[DW_OP_reg0]
    3590                    
    3591                    $C$DW$184       .dwtag  DW_TAG_formal_parameter
    3592                            .dwattr $C$DW$184, DW_AT_name("ui64Value")
    3593                            .dwattr $C$DW$184, DW_AT_TI_symbol_name("ui64Value")
    3594                            .dwattr $C$DW$184, DW_AT_type(*$C$DW$T$37)
    3595                            .dwattr $C$DW$184, DW_AT_location[DW_OP_reg2]
    3596                    
    3597                    ;----------------------------------------------------------------------
    3598                    ; 1285 | TimerMatchSet64(uint32_t ui32Base, uint64_t ui64Value)                 
    3599                    ;----------------------------------------------------------------------
    3600                    
    3601                    ;*****************************************************************************
    3602                    ;* FUNCTION NAME: TimerMatchSet64                                            *
    3603                    ;*                                                                           *
    3604                    ;*   Regs Modified     : A1,A2,SP                                            *
    3605                    ;*   Regs Used         : A1,A2,A3,A4,SP,LR                                   *
    3606                    ;*   Local Frame Size  : 0 Args + 12 Auto + 0 Save = 12 byte                 *
    3607                    ;*****************************************************************************
    3608 000004aa           TimerMatchSet64:
    3609                    ;* --------------------------------------------------------------------------*
    3610                            .dwcfi  cfa_offset, 0
    3611 000004aa 0D10F1AD          SUB       SP, SP, #16           ; [DPU_V7M3_PIPE]  ; [KEEP 32-BIT INS]
    3612                            .dwcfi  cfa_offset, 16
    3613                    $C$DW$185       .dwtag  DW_TAG_variable
    3614                            .dwattr $C$DW$185, DW_AT_name("ui64Value")
    3615                            .dwattr $C$DW$185, DW_AT_TI_symbol_name("ui64Value")
    3616                            .dwattr $C$DW$185, DW_AT_type(*$C$DW$T$37)
    3617                            .dwattr $C$DW$185, DW_AT_location[DW_OP_breg13 0]
    3618                    
    3619                    $C$DW$186       .dwtag  DW_TAG_variable
    3620                            .dwattr $C$DW$186, DW_AT_name("ui32Base")
    3621                            .dwattr $C$DW$186, DW_AT_TI_symbol_name("ui32Base")
    3622                            .dwattr $C$DW$186, DW_AT_type(*$C$DW$T$27)
    3623                            .dwattr $C$DW$186, DW_AT_location[DW_OP_breg13 8]
    3624                    
    3625                    ;----------------------------------------------------------------------
TI ARM Assembler Unix v18.1.1 Fri Jul  3 20:08:26 2020

Tools Copyright (c) 1996-2017 Texas Instruments Incorporated
timer.asm                                                            PAGE   67

    3626                    ; 1287 | //                                                                     
    3627                    ; 1288 | // Check the arguments.                                                
    3628                    ; 1289 | //                                                                     
    3629                    ; 1290 | ASSERT(_TimerBaseValid(ui32Base));                                     
    3630                    ; 1292 | //                                                                     
    3631                    ; 1293 | // Set the timer match value.  The upper 32-bits must be written before
    3632                    ;     |  the                                                                   
    3633                    ; 1294 | // lower 32-bits in order to adhere to the hardware interlocks on the  
    3634                    ; 1295 | // 64-bit value.                                                       
    3635                    ; 1296 | //                                                                     
    3636                    ;----------------------------------------------------------------------
    3637 000004ae 000CE88D          STMIA     SP, {A3,A4}           ; [DPU_V7M3_PIPE] |1286|  ; [KEEP 32-BIT INS]
    3638 000004b2 9002              STR       A1, [SP, #8]          ; [DPU_V7M3_PIPE] |1286|  ; [ORIG 16-BIT INS]
    3639                            .dwpsn  file "../driverlib/timer.c",line 1297,column 5,is_stmt,isa 1
    3640                    ;----------------------------------------------------------------------
    3641                    ; 1297 | HWREG(ui32Base + TIMER_O_TBMATCHR) = ui64Value >> 32;                  
    3642                    ;----------------------------------------------------------------------
    3643 000004b4 9902              LDR       A2, [SP, #8]          ; [DPU_V7M3_PIPE] |1297|  ; [ORIG 16-BIT INS]
    3644 000004b6 9801              LDR       A1, [SP, #4]          ; [DPU_V7M3_PIPE] |1297|  ; [ORIG 16-BIT INS]
    3645 000004b8 6348              STR       A1, [A2, #52]         ; [DPU_V7M3_PIPE] |1297|  ; [ORIG 16-BIT INS]
    3646                            .dwpsn  file "../driverlib/timer.c",line 1298,column 5,is_stmt,isa 1
    3647                    ;----------------------------------------------------------------------
    3648                    ; 1298 | HWREG(ui32Base + TIMER_O_TAMATCHR) = ui64Value & 0xffffffff;           
    3649                    ;----------------------------------------------------------------------
    3650 000004ba 9800              LDR       A1, [SP, #0]          ; [DPU_V7M3_PIPE] |1298|  ; [ORIG 16-BIT INS]
    3651 000004bc 9902              LDR       A2, [SP, #8]          ; [DPU_V7M3_PIPE] |1298|  ; [ORIG 16-BIT INS]
    3652 000004be 6308              STR       A1, [A2, #48]         ; [DPU_V7M3_PIPE] |1298|  ; [ORIG 16-BIT INS]
    3653                            .dwpsn  file "../driverlib/timer.c",line 1299,column 1,is_stmt,isa 1
    3654 000004c0 B004              ADD       SP, SP, #16           ; [DPU_V7M3_PIPE]  ; [ORIG 16-BIT INS]
    3655                            .dwcfi  cfa_offset, 0
    3656                    $C$DW$187       .dwtag  DW_TAG_TI_branch
    3657                            .dwattr $C$DW$187, DW_AT_low_pc(0x00)
    3658                            .dwattr $C$DW$187, DW_AT_TI_return
    3659                    
    3660 000004c2 4770              BX        LR                    ; [DPU_V7M3_PIPE]  ; [ORIG 16-BIT INS]
    3661                            ; BRANCH OCCURS                  ; [] 
    3662                            .dwattr $C$DW$182, DW_AT_TI_end_file("../driverlib/timer.c")
    3663                            .dwattr $C$DW$182, DW_AT_TI_end_line(0x513)
    3664                            .dwattr $C$DW$182, DW_AT_TI_end_column(0x01)
    3665                            .dwendentry
    3666                            .dwendtag $C$DW$182
    3667                    
    3668 000004c4                   .sect   ".text"
    3669                            .clink
    3670                            .thumbfunc TimerMatchGet64
    3671 000004c4                   .thumb
    3672                            .global TimerMatchGet64
    3673                    
    3674                    $C$DW$188       .dwtag  DW_TAG_subprogram
    3675                            .dwattr $C$DW$188, DW_AT_name("TimerMatchGet64")
    3676                            .dwattr $C$DW$188, DW_AT_low_pc(TimerMatchGet64)
    3677                            .dwattr $C$DW$188, DW_AT_high_pc(0x00)
    3678                            .dwattr $C$DW$188, DW_AT_TI_symbol_name("TimerMatchGet64")
    3679                            .dwattr $C$DW$188, DW_AT_external
    3680                            .dwattr $C$DW$188, DW_AT_type(*$C$DW$T$37)
TI ARM Assembler Unix v18.1.1 Fri Jul  3 20:08:26 2020

Tools Copyright (c) 1996-2017 Texas Instruments Incorporated
timer.asm                                                            PAGE   68

    3681                            .dwattr $C$DW$188, DW_AT_TI_begin_file("../driverlib/timer.c")
    3682                            .dwattr $C$DW$188, DW_AT_TI_begin_line(0x521)
    3683                            .dwattr $C$DW$188, DW_AT_TI_begin_column(0x01)
    3684                            .dwattr $C$DW$188, DW_AT_decl_file("../driverlib/timer.c")
    3685                            .dwattr $C$DW$188, DW_AT_decl_line(0x521)
    3686                            .dwattr $C$DW$188, DW_AT_decl_column(0x01)
    3687                            .dwattr $C$DW$188, DW_AT_TI_max_frame_size(0x10)
    3688                            .dwpsn  file "../driverlib/timer.c",line 1314,column 1,is_stmt,address TimerMatchGet64,isa 1
    3689                    
    3690                            .dwfde $C$DW$CIE, TimerMatchGet64
    3691                    $C$DW$189       .dwtag  DW_TAG_formal_parameter
    3692                            .dwattr $C$DW$189, DW_AT_name("ui32Base")
    3693                            .dwattr $C$DW$189, DW_AT_TI_symbol_name("ui32Base")
    3694                            .dwattr $C$DW$189, DW_AT_type(*$C$DW$T$27)
    3695                            .dwattr $C$DW$189, DW_AT_location[DW_OP_reg0]
    3696                    
    3697                    ;----------------------------------------------------------------------
    3698                    ; 1313 | TimerMatchGet64(uint32_t ui32Base)                                     
    3699                    ;----------------------------------------------------------------------
    3700                    
    3701                    ;*****************************************************************************
    3702                    ;* FUNCTION NAME: TimerMatchGet64                                            *
    3703                    ;*                                                                           *
    3704                    ;*   Regs Modified     : A1,A2,A3,A4,SP,SR                                   *
    3705                    ;*   Regs Used         : A1,A2,A3,A4,SP,LR,SR                                *
    3706                    ;*   Local Frame Size  : 0 Args + 16 Auto + 0 Save = 16 byte                 *
    3707                    ;*****************************************************************************
    3708 000004c4           TimerMatchGet64:
    3709                    ;* --------------------------------------------------------------------------*
    3710                            .dwcfi  cfa_offset, 0
    3711 000004c4 0D10F1AD          SUB       SP, SP, #16           ; [DPU_V7M3_PIPE]  ; [KEEP 32-BIT INS]
    3712                            .dwcfi  cfa_offset, 16
    3713                    $C$DW$190       .dwtag  DW_TAG_variable
    3714                            .dwattr $C$DW$190, DW_AT_name("ui32Base")
    3715                            .dwattr $C$DW$190, DW_AT_TI_symbol_name("ui32Base")
    3716                            .dwattr $C$DW$190, DW_AT_type(*$C$DW$T$27)
    3717                            .dwattr $C$DW$190, DW_AT_location[DW_OP_breg13 0]
    3718                    
    3719                    $C$DW$191       .dwtag  DW_TAG_variable
    3720                            .dwattr $C$DW$191, DW_AT_name("ui32High1")
    3721                            .dwattr $C$DW$191, DW_AT_TI_symbol_name("ui32High1")
    3722                            .dwattr $C$DW$191, DW_AT_type(*$C$DW$T$27)
    3723                            .dwattr $C$DW$191, DW_AT_location[DW_OP_breg13 4]
    3724                    
    3725                    $C$DW$192       .dwtag  DW_TAG_variable
    3726                            .dwattr $C$DW$192, DW_AT_name("ui32High2")
    3727                            .dwattr $C$DW$192, DW_AT_TI_symbol_name("ui32High2")
    3728                            .dwattr $C$DW$192, DW_AT_type(*$C$DW$T$27)
    3729                            .dwattr $C$DW$192, DW_AT_location[DW_OP_breg13 8]
    3730                    
    3731                    $C$DW$193       .dwtag  DW_TAG_variable
    3732                            .dwattr $C$DW$193, DW_AT_name("ui32Low")
    3733                            .dwattr $C$DW$193, DW_AT_TI_symbol_name("ui32Low")
    3734                            .dwattr $C$DW$193, DW_AT_type(*$C$DW$T$27)
    3735                            .dwattr $C$DW$193, DW_AT_location[DW_OP_breg13 12]
TI ARM Assembler Unix v18.1.1 Fri Jul  3 20:08:26 2020

Tools Copyright (c) 1996-2017 Texas Instruments Incorporated
timer.asm                                                            PAGE   69

    3736                    
    3737                    ;----------------------------------------------------------------------
    3738                    ; 1315 | uint32_t ui32High1, ui32High2, ui32Low;                                
    3739                    ; 1317 | //                                                                     
    3740                    ; 1318 | // Check the arguments.                                                
    3741                    ; 1319 | //                                                                     
    3742                    ; 1320 | ASSERT(_TimerBaseValid(ui32Base));                                     
    3743                    ; 1322 | //                                                                     
    3744                    ; 1323 | // Read the 64-bit match value.  A read of the low 32-bits is performed
    3745                    ; 1324 | // between two reads of the upper 32-bits; if the upper 32-bit values m
    3746                    ;     | atch                                                                   
    3747                    ; 1325 | // then the 64-bit value is consistent.  If they do not match, then the
    3748                    ; 1326 | // read is performed again until they do match (it should never execute
    3749                    ;     |  the                                                                   
    3750                    ; 1327 | // loop body more than twice).                                         
    3751                    ; 1328 | //                                                                     
    3752                    ; 1329 | do                                                                     
    3753                    ;----------------------------------------------------------------------
    3754 000004c8 9000              STR       A1, [SP, #0]          ; [DPU_V7M3_PIPE] |1314|  ; [ORIG 16-BIT INS]
    3755                    ;* --------------------------------------------------------------------------*
    3756                    ;*   BEGIN LOOP ||$C$L42||
    3757                    ;*
    3758                    ;*   Loop source line                : 1329
    3759                    ;*   Loop closing brace source line  : 1334
    3760                    ;*   Known Minimum Trip Count        : 1
    3761                    ;*   Known Maximum Trip Count        : 4294967295
    3762                    ;*   Known Max Trip Count Factor     : 1
    3763                    ;* --------------------------------------------------------------------------*
    3764 000004ca           ||$C$L42||:    
    3765                            .dwpsn  file "../driverlib/timer.c",line 1331,column 9,is_stmt,isa 1
    3766                    ;----------------------------------------------------------------------
    3767                    ; 1331 | ui32High1 = HWREG(ui32Base + TIMER_O_TBMATCHR);                        
    3768                    ;----------------------------------------------------------------------
    3769 000004ca 9800              LDR       A1, [SP, #0]          ; [DPU_V7M3_PIPE] |1331|  ; [ORIG 16-BIT INS]
    3770 000004cc 6B40              LDR       A1, [A1, #52]         ; [DPU_V7M3_PIPE] |1331|  ; [ORIG 16-BIT INS]
    3771 000004ce 9001              STR       A1, [SP, #4]          ; [DPU_V7M3_PIPE] |1331|  ; [ORIG 16-BIT INS]
    3772                            .dwpsn  file "../driverlib/timer.c",line 1332,column 9,is_stmt,isa 1
    3773                    ;----------------------------------------------------------------------
    3774                    ; 1332 | ui32Low = HWREG(ui32Base + TIMER_O_TAMATCHR);                          
    3775                    ;----------------------------------------------------------------------
    3776 000004d0 9800              LDR       A1, [SP, #0]          ; [DPU_V7M3_PIPE] |1332|  ; [ORIG 16-BIT INS]
    3777 000004d2 6B00              LDR       A1, [A1, #48]         ; [DPU_V7M3_PIPE] |1332|  ; [ORIG 16-BIT INS]
    3778 000004d4 9003              STR       A1, [SP, #12]         ; [DPU_V7M3_PIPE] |1332|  ; [ORIG 16-BIT INS]
    3779                            .dwpsn  file "../driverlib/timer.c",line 1333,column 9,is_stmt,isa 1
    3780                    ;----------------------------------------------------------------------
    3781                    ; 1333 | ui32High2 = HWREG(ui32Base + TIMER_O_TBMATCHR);                        
    3782                    ;----------------------------------------------------------------------
    3783 000004d6 9800              LDR       A1, [SP, #0]          ; [DPU_V7M3_PIPE] |1333|  ; [ORIG 16-BIT INS]
    3784 000004d8 6B40              LDR       A1, [A1, #52]         ; [DPU_V7M3_PIPE] |1333|  ; [ORIG 16-BIT INS]
    3785 000004da 9002              STR       A1, [SP, #8]          ; [DPU_V7M3_PIPE] |1333|  ; [ORIG 16-BIT INS]
    3786                            .dwpsn  file "../driverlib/timer.c",line 1335,column 11,is_stmt,isa 1
    3787                    ;----------------------------------------------------------------------
    3788                    ; 1335 | while(ui32High1 != ui32High2);                                         
    3789                    ; 1337 | //                                                                     
    3790                    ; 1338 | // Return the match value.                                             
TI ARM Assembler Unix v18.1.1 Fri Jul  3 20:08:26 2020

Tools Copyright (c) 1996-2017 Texas Instruments Incorporated
timer.asm                                                            PAGE   70

    3791                    ; 1339 | //                                                                     
    3792                    ;----------------------------------------------------------------------
    3793 000004dc 9901              LDR       A2, [SP, #4]          ; [DPU_V7M3_PIPE] |1335|  ; [ORIG 16-BIT INS]
    3794 000004de 9802              LDR       A1, [SP, #8]          ; [DPU_V7M3_PIPE] |1335|  ; [ORIG 16-BIT INS]
    3795 000004e0 4288              CMP       A1, A2                ; [DPU_V7M3_PIPE] |1335|  ; [ORIG 16-BIT INS]
    3796 000004e2 D1F2              BNE       ||$C$L42||            ; [DPU_V7M3_PIPE] |1335|  ; [ORIG 16-BIT INS]
    3797                            ; BRANCHCC OCCURS {||$C$L42||}   ; [] |1335| 
    3798                    ;* --------------------------------------------------------------------------*
    3799                            .dwpsn  file "../driverlib/timer.c",line 1340,column 5,is_stmt,isa 1
    3800                    ;----------------------------------------------------------------------
    3801                    ; 1340 | return(((uint64_t)ui32High1 << 32) | (uint64_t)ui32Low);               
    3802                    ;----------------------------------------------------------------------
    3803 000004e4 9A01              LDR       A3, [SP, #4]          ; [DPU_V7M3_PIPE] |1340|  ; [ORIG 16-BIT INS]
    3804 000004e6 9803              LDR       A1, [SP, #12]         ; [DPU_V7M3_PIPE] |1340|  ; [ORIG 16-BIT INS]
    3805 000004e8 2300              MOVS      A4, #0                ; [DPU_V7M3_PIPE] |1340|  ; [ORIG 16-BIT INS]
    3806 000004ea 2100              MOVS      A2, #0                ; [DPU_V7M3_PIPE] |1340|  ; [ORIG 16-BIT INS]
    3807 000004ec 0012              LSLS      A3, A3, #0            ; [DPU_V7M3_PIPE] |1340|  ; [ORIG 16-BIT INS]
    3808 000004ee 4318              ORRS      A1, A1, A4            ; [DPU_V7M3_PIPE] |1340|  ; [ORIG 16-BIT INS]
    3809 000004f0 4311              ORRS      A2, A2, A3            ; [DPU_V7M3_PIPE] |1340|  ; [ORIG 16-BIT INS]
    3810                            .dwpsn  file "../driverlib/timer.c",line 1341,column 1,is_stmt,isa 1
    3811 000004f2 B004              ADD       SP, SP, #16           ; [DPU_V7M3_PIPE]  ; [ORIG 16-BIT INS]
    3812                            .dwcfi  cfa_offset, 0
    3813                    $C$DW$194       .dwtag  DW_TAG_TI_branch
    3814                            .dwattr $C$DW$194, DW_AT_low_pc(0x00)
    3815                            .dwattr $C$DW$194, DW_AT_TI_return
    3816                    
    3817 000004f4 4770              BX        LR                    ; [DPU_V7M3_PIPE]  ; [ORIG 16-BIT INS]
    3818                            ; BRANCH OCCURS                  ; [] 
    3819                            .dwattr $C$DW$188, DW_AT_TI_end_file("../driverlib/timer.c")
    3820                            .dwattr $C$DW$188, DW_AT_TI_end_line(0x53d)
    3821                            .dwattr $C$DW$188, DW_AT_TI_end_column(0x01)
    3822                            .dwendentry
    3823                            .dwendtag $C$DW$188
    3824                    
    3825 000004f6                   .sect   ".text"
    3826                            .clink
    3827                            .thumbfunc TimerIntRegister
    3828 000004f6                   .thumb
    3829                            .global TimerIntRegister
    3830                    
    3831                    $C$DW$195       .dwtag  DW_TAG_subprogram
    3832                            .dwattr $C$DW$195, DW_AT_name("TimerIntRegister")
    3833                            .dwattr $C$DW$195, DW_AT_low_pc(TimerIntRegister)
    3834                            .dwattr $C$DW$195, DW_AT_high_pc(0x00)
    3835                            .dwattr $C$DW$195, DW_AT_TI_symbol_name("TimerIntRegister")
    3836                            .dwattr $C$DW$195, DW_AT_external
    3837                            .dwattr $C$DW$195, DW_AT_TI_begin_file("../driverlib/timer.c")
    3838                            .dwattr $C$DW$195, DW_AT_TI_begin_line(0x556)
    3839                            .dwattr $C$DW$195, DW_AT_TI_begin_column(0x01)
    3840                            .dwattr $C$DW$195, DW_AT_decl_file("../driverlib/timer.c")
    3841                            .dwattr $C$DW$195, DW_AT_decl_line(0x556)
    3842                            .dwattr $C$DW$195, DW_AT_decl_column(0x01)
    3843                            .dwattr $C$DW$195, DW_AT_TI_max_frame_size(0x18)
    3844                            .dwpsn  file "../driverlib/timer.c",line 1368,column 1,is_stmt,address TimerIntRegister,isa 1
    3845                    
TI ARM Assembler Unix v18.1.1 Fri Jul  3 20:08:26 2020

Tools Copyright (c) 1996-2017 Texas Instruments Incorporated
timer.asm                                                            PAGE   71

    3846                            .dwfde $C$DW$CIE, TimerIntRegister
    3847                    $C$DW$196       .dwtag  DW_TAG_formal_parameter
    3848                            .dwattr $C$DW$196, DW_AT_name("ui32Base")
    3849                            .dwattr $C$DW$196, DW_AT_TI_symbol_name("ui32Base")
    3850                            .dwattr $C$DW$196, DW_AT_type(*$C$DW$T$27)
    3851                            .dwattr $C$DW$196, DW_AT_location[DW_OP_reg0]
    3852                    
    3853                    $C$DW$197       .dwtag  DW_TAG_formal_parameter
    3854                            .dwattr $C$DW$197, DW_AT_name("ui32Timer")
    3855                            .dwattr $C$DW$197, DW_AT_TI_symbol_name("ui32Timer")
    3856                            .dwattr $C$DW$197, DW_AT_type(*$C$DW$T$27)
    3857                            .dwattr $C$DW$197, DW_AT_location[DW_OP_reg1]
    3858                    
    3859                    $C$DW$198       .dwtag  DW_TAG_formal_parameter
    3860                            .dwattr $C$DW$198, DW_AT_name("pfnHandler")
    3861                            .dwattr $C$DW$198, DW_AT_TI_symbol_name("pfnHandler")
    3862                            .dwattr $C$DW$198, DW_AT_type(*$C$DW$T$25)
    3863                            .dwattr $C$DW$198, DW_AT_location[DW_OP_reg2]
    3864                    
    3865                    ;----------------------------------------------------------------------
    3866                    ; 1366 | TimerIntRegister(uint32_t ui32Base, uint32_t ui32Timer,                
    3867                    ; 1367 | void (*pfnHandler)(void))                                              
    3868                    ;----------------------------------------------------------------------
    3869                    
    3870                    ;*****************************************************************************
    3871                    ;* FUNCTION NAME: TimerIntRegister                                           *
    3872                    ;*                                                                           *
    3873                    ;*   Regs Modified     : A1,A2,A3,A4,V9,SP,LR,SR,D0,D0_hi,D1,D1_hi,D2,D2_hi, *
    3874                    ;*                           D3,D3_hi,D4,D4_hi,D5,D5_hi,D6,D6_hi,D7,D7_hi,   *
    3875                    ;*                           FPEXC,FPSCR                                     *
    3876                    ;*   Regs Used         : A1,A2,A3,A4,V9,SP,LR,SR,D0,D0_hi,D1,D1_hi,D2,D2_hi, *
    3877                    ;*                           D3,D3_hi,D4,D4_hi,D5,D5_hi,D6,D6_hi,D7,D7_hi,   *
    3878                    ;*                           FPEXC,FPSCR                                     *
    3879                    ;*   Local Frame Size  : 0 Args + 16 Auto + 4 Save = 20 byte                 *
    3880                    ;*****************************************************************************
    3881 000004f6           TimerIntRegister:
    3882                    ;* --------------------------------------------------------------------------*
    3883                            .dwcfi  cfa_offset, 0
    3884 000004f6 B500              PUSH      {LR}                  ; [DPU_V7M3_PIPE]  ; [ORIG 16-BIT INS]
    3885                            .dwcfi  cfa_offset, 4
    3886                            .dwcfi  save_reg_to_mem, 14, -4
    3887 000004f8 0D14F1AD          SUB       SP, SP, #20           ; [DPU_V7M3_PIPE]  ; [KEEP 32-BIT INS]
    3888                            .dwcfi  cfa_offset, 24
    3889                    $C$DW$199       .dwtag  DW_TAG_variable
    3890                            .dwattr $C$DW$199, DW_AT_name("ui32Base")
    3891                            .dwattr $C$DW$199, DW_AT_TI_symbol_name("ui32Base")
    3892                            .dwattr $C$DW$199, DW_AT_type(*$C$DW$T$27)
    3893                            .dwattr $C$DW$199, DW_AT_location[DW_OP_breg13 0]
    3894                    
    3895                    $C$DW$200       .dwtag  DW_TAG_variable
    3896                            .dwattr $C$DW$200, DW_AT_name("ui32Timer")
    3897                            .dwattr $C$DW$200, DW_AT_TI_symbol_name("ui32Timer")
    3898                            .dwattr $C$DW$200, DW_AT_type(*$C$DW$T$27)
    3899                            .dwattr $C$DW$200, DW_AT_location[DW_OP_breg13 4]
    3900                    
TI ARM Assembler Unix v18.1.1 Fri Jul  3 20:08:26 2020

Tools Copyright (c) 1996-2017 Texas Instruments Incorporated
timer.asm                                                            PAGE   72

    3901                    $C$DW$201       .dwtag  DW_TAG_variable
    3902                            .dwattr $C$DW$201, DW_AT_name("pfnHandler")
    3903                            .dwattr $C$DW$201, DW_AT_TI_symbol_name("pfnHandler")
    3904                            .dwattr $C$DW$201, DW_AT_type(*$C$DW$T$25)
    3905                            .dwattr $C$DW$201, DW_AT_location[DW_OP_breg13 8]
    3906                    
    3907                    $C$DW$202       .dwtag  DW_TAG_variable
    3908                            .dwattr $C$DW$202, DW_AT_name("ui32Int")
    3909                            .dwattr $C$DW$202, DW_AT_TI_symbol_name("ui32Int")
    3910                            .dwattr $C$DW$202, DW_AT_type(*$C$DW$T$27)
    3911                            .dwattr $C$DW$202, DW_AT_location[DW_OP_breg13 12]
    3912                    
    3913                    ;----------------------------------------------------------------------
    3914                    ; 1369 | uint32_t ui32Int;                                                      
    3915                    ; 1371 | //                                                                     
    3916                    ; 1372 | // Check the arguments.                                                
    3917                    ; 1373 | //                                                                     
    3918                    ; 1374 | ASSERT(_TimerBaseValid(ui32Base));                                     
    3919                    ; 1375 | ASSERT((ui32Timer == TIMER_A) || (ui32Timer == TIMER_B) ||             
    3920                    ; 1376 |        (ui32Timer == TIMER_BOTH));                                     
    3921                    ; 1378 | //                                                                     
    3922                    ; 1379 | // Get the interrupt number for this timer module.                     
    3923                    ; 1380 | //                                                                     
    3924                    ;----------------------------------------------------------------------
    3925 000004fc 9202              STR       A3, [SP, #8]          ; [DPU_V7M3_PIPE] |1368|  ; [ORIG 16-BIT INS]
    3926 000004fe 9101              STR       A2, [SP, #4]          ; [DPU_V7M3_PIPE] |1368|  ; [ORIG 16-BIT INS]
    3927 00000500 9000              STR       A1, [SP, #0]          ; [DPU_V7M3_PIPE] |1368|  ; [ORIG 16-BIT INS]
    3928                            .dwpsn  file "../driverlib/timer.c",line 1381,column 5,is_stmt,isa 1
    3929                    ;----------------------------------------------------------------------
    3930                    ; 1381 | ui32Int = _TimerIntNumberGet(ui32Base, ui32Timer);                     
    3931                    ; 1383 | ASSERT(ui32Int != 0);                                                  
    3932                    ; 1385 | //                                                                     
    3933                    ; 1386 | // Register the interrupt handler.                                     
    3934                    ; 1387 | //                                                                     
    3935                    ;----------------------------------------------------------------------
    3936 00000502 9800              LDR       A1, [SP, #0]          ; [DPU_V7M3_PIPE] |1381|  ; [ORIG 16-BIT INS]
    3937 00000504 9901              LDR       A2, [SP, #4]          ; [DPU_V7M3_PIPE] |1381|  ; [ORIG 16-BIT INS]
    3938                    $C$DW$203       .dwtag  DW_TAG_TI_branch
    3939                            .dwattr $C$DW$203, DW_AT_low_pc(0x00)
    3940                            .dwattr $C$DW$203, DW_AT_name("_TimerIntNumberGet")
    3941                            .dwattr $C$DW$203, DW_AT_TI_call
    3942                    
    3943 00000506 FFFEF7FF!         BL        _TimerIntNumberGet    ; [DPU_V7M3_PIPE] |1381|  ; [KEEP 32-BIT INS]
    3944                            ; CALL OCCURS {_TimerIntNumberGet }  ; [] |1381| 
    3945 0000050a 9003              STR       A1, [SP, #12]         ; [DPU_V7M3_PIPE] |1381|  ; [ORIG 16-BIT INS]
    3946                            .dwpsn  file "../driverlib/timer.c",line 1388,column 5,is_stmt,isa 1
    3947                    ;----------------------------------------------------------------------
    3948                    ; 1388 | IntRegister(ui32Int, pfnHandler);                                      
    3949                    ; 1390 | //                                                                     
    3950                    ; 1391 | // Enable the interrupt.                                               
    3951                    ; 1392 | //                                                                     
    3952                    ;----------------------------------------------------------------------
    3953 0000050c 9902              LDR       A2, [SP, #8]          ; [DPU_V7M3_PIPE] |1388|  ; [ORIG 16-BIT INS]
    3954 0000050e 9803              LDR       A1, [SP, #12]         ; [DPU_V7M3_PIPE] |1388|  ; [ORIG 16-BIT INS]
    3955                    $C$DW$204       .dwtag  DW_TAG_TI_branch
TI ARM Assembler Unix v18.1.1 Fri Jul  3 20:08:26 2020

Tools Copyright (c) 1996-2017 Texas Instruments Incorporated
timer.asm                                                            PAGE   73

    3956                            .dwattr $C$DW$204, DW_AT_low_pc(0x00)
    3957                            .dwattr $C$DW$204, DW_AT_name("IntRegister")
    3958                            .dwattr $C$DW$204, DW_AT_TI_call
    3959                    
    3960 00000510 FFFEF7FF!         BL        IntRegister           ; [DPU_V7M3_PIPE] |1388|  ; [KEEP 32-BIT INS]
    3961                            ; CALL OCCURS {IntRegister }     ; [] |1388| 
    3962                            .dwpsn  file "../driverlib/timer.c",line 1393,column 5,is_stmt,isa 1
    3963                    ;----------------------------------------------------------------------
    3964                    ; 1393 | IntEnable(ui32Int);                                                    
    3965                    ;----------------------------------------------------------------------
    3966 00000514 9803              LDR       A1, [SP, #12]         ; [DPU_V7M3_PIPE] |1393|  ; [ORIG 16-BIT INS]
    3967                    $C$DW$205       .dwtag  DW_TAG_TI_branch
    3968                            .dwattr $C$DW$205, DW_AT_low_pc(0x00)
    3969                            .dwattr $C$DW$205, DW_AT_name("IntEnable")
    3970                            .dwattr $C$DW$205, DW_AT_TI_call
    3971                    
    3972 00000516 FFFEF7FF!         BL        IntEnable             ; [DPU_V7M3_PIPE] |1393|  ; [KEEP 32-BIT INS]
    3973                            ; CALL OCCURS {IntEnable }       ; [] |1393| 
    3974                            .dwpsn  file "../driverlib/timer.c",line 1394,column 1,is_stmt,isa 1
    3975 0000051a B005              ADD       SP, SP, #20           ; [DPU_V7M3_PIPE]  ; [ORIG 16-BIT INS]
    3976                            .dwcfi  cfa_offset, 4
    3977                    $C$DW$206       .dwtag  DW_TAG_TI_branch
    3978                            .dwattr $C$DW$206, DW_AT_low_pc(0x00)
    3979                            .dwattr $C$DW$206, DW_AT_TI_return
    3980                    
    3981 0000051c BD00              POP       {PC}                  ; [DPU_V7M3_PIPE]  ; [ORIG 16-BIT INS]
    3982                            .dwcfi  cfa_offset, 0
    3983                            ; BRANCH OCCURS                  ; [] 
    3984                            .dwattr $C$DW$195, DW_AT_TI_end_file("../driverlib/timer.c")
    3985                            .dwattr $C$DW$195, DW_AT_TI_end_line(0x572)
    3986                            .dwattr $C$DW$195, DW_AT_TI_end_column(0x01)
    3987                            .dwendentry
    3988                            .dwendtag $C$DW$195
    3989                    
    3990 0000051e                   .sect   ".text"
    3991                            .clink
    3992                            .thumbfunc TimerIntUnregister
    3993 0000051e                   .thumb
    3994                            .global TimerIntUnregister
    3995                    
    3996                    $C$DW$207       .dwtag  DW_TAG_subprogram
    3997                            .dwattr $C$DW$207, DW_AT_name("TimerIntUnregister")
    3998                            .dwattr $C$DW$207, DW_AT_low_pc(TimerIntUnregister)
    3999                            .dwattr $C$DW$207, DW_AT_high_pc(0x00)
    4000                            .dwattr $C$DW$207, DW_AT_TI_symbol_name("TimerIntUnregister")
    4001                            .dwattr $C$DW$207, DW_AT_external
    4002                            .dwattr $C$DW$207, DW_AT_TI_begin_file("../driverlib/timer.c")
    4003                            .dwattr $C$DW$207, DW_AT_TI_begin_line(0x587)
    4004                            .dwattr $C$DW$207, DW_AT_TI_begin_column(0x01)
    4005                            .dwattr $C$DW$207, DW_AT_decl_file("../driverlib/timer.c")
    4006                            .dwattr $C$DW$207, DW_AT_decl_line(0x587)
    4007                            .dwattr $C$DW$207, DW_AT_decl_column(0x01)
    4008                            .dwattr $C$DW$207, DW_AT_TI_max_frame_size(0x10)
    4009                            .dwpsn  file "../driverlib/timer.c",line 1416,column 1,is_stmt,address TimerIntUnregister,isa 
    4010                    
TI ARM Assembler Unix v18.1.1 Fri Jul  3 20:08:26 2020

Tools Copyright (c) 1996-2017 Texas Instruments Incorporated
timer.asm                                                            PAGE   74

    4011                            .dwfde $C$DW$CIE, TimerIntUnregister
    4012                    $C$DW$208       .dwtag  DW_TAG_formal_parameter
    4013                            .dwattr $C$DW$208, DW_AT_name("ui32Base")
    4014                            .dwattr $C$DW$208, DW_AT_TI_symbol_name("ui32Base")
    4015                            .dwattr $C$DW$208, DW_AT_type(*$C$DW$T$27)
    4016                            .dwattr $C$DW$208, DW_AT_location[DW_OP_reg0]
    4017                    
    4018                    $C$DW$209       .dwtag  DW_TAG_formal_parameter
    4019                            .dwattr $C$DW$209, DW_AT_name("ui32Timer")
    4020                            .dwattr $C$DW$209, DW_AT_TI_symbol_name("ui32Timer")
    4021                            .dwattr $C$DW$209, DW_AT_type(*$C$DW$T$27)
    4022                            .dwattr $C$DW$209, DW_AT_location[DW_OP_reg1]
    4023                    
    4024                    ;----------------------------------------------------------------------
    4025                    ; 1415 | TimerIntUnregister(uint32_t ui32Base, uint32_t ui32Timer)              
    4026                    ;----------------------------------------------------------------------
    4027                    
    4028                    ;*****************************************************************************
    4029                    ;* FUNCTION NAME: TimerIntUnregister                                         *
    4030                    ;*                                                                           *
    4031                    ;*   Regs Modified     : A1,A2,A3,A4,V9,SP,LR,SR,D0,D0_hi,D1,D1_hi,D2,D2_hi, *
    4032                    ;*                           D3,D3_hi,D4,D4_hi,D5,D5_hi,D6,D6_hi,D7,D7_hi,   *
    4033                    ;*                           FPEXC,FPSCR                                     *
    4034                    ;*   Regs Used         : A1,A2,A3,A4,V9,SP,LR,SR,D0,D0_hi,D1,D1_hi,D2,D2_hi, *
    4035                    ;*                           D3,D3_hi,D4,D4_hi,D5,D5_hi,D6,D6_hi,D7,D7_hi,   *
    4036                    ;*                           FPEXC,FPSCR                                     *
    4037                    ;*   Local Frame Size  : 0 Args + 12 Auto + 4 Save = 16 byte                 *
    4038                    ;*****************************************************************************
    4039 0000051e           TimerIntUnregister:
    4040                    ;* --------------------------------------------------------------------------*
    4041                            .dwcfi  cfa_offset, 0
    4042 0000051e B50E              PUSH      {A2, A3, A4, LR}      ; [DPU_V7M3_PIPE]  ; [ORIG 16-BIT INS]
    4043                            .dwcfi  cfa_offset, 16
    4044                            .dwcfi  save_reg_to_mem, 14, -4
    4045                            .dwcfi  save_reg_to_mem, 3, -8
    4046                            .dwcfi  save_reg_to_mem, 2, -12
    4047                            .dwcfi  save_reg_to_mem, 1, -16
    4048                    $C$DW$210       .dwtag  DW_TAG_variable
    4049                            .dwattr $C$DW$210, DW_AT_name("ui32Base")
    4050                            .dwattr $C$DW$210, DW_AT_TI_symbol_name("ui32Base")
    4051                            .dwattr $C$DW$210, DW_AT_type(*$C$DW$T$27)
    4052                            .dwattr $C$DW$210, DW_AT_location[DW_OP_breg13 0]
    4053                    
    4054                    $C$DW$211       .dwtag  DW_TAG_variable
    4055                            .dwattr $C$DW$211, DW_AT_name("ui32Timer")
    4056                            .dwattr $C$DW$211, DW_AT_TI_symbol_name("ui32Timer")
    4057                            .dwattr $C$DW$211, DW_AT_type(*$C$DW$T$27)
    4058                            .dwattr $C$DW$211, DW_AT_location[DW_OP_breg13 4]
    4059                    
    4060                    $C$DW$212       .dwtag  DW_TAG_variable
    4061                            .dwattr $C$DW$212, DW_AT_name("ui32Int")
    4062                            .dwattr $C$DW$212, DW_AT_TI_symbol_name("ui32Int")
    4063                            .dwattr $C$DW$212, DW_AT_type(*$C$DW$T$27)
    4064                            .dwattr $C$DW$212, DW_AT_location[DW_OP_breg13 8]
    4065                    
TI ARM Assembler Unix v18.1.1 Fri Jul  3 20:08:26 2020

Tools Copyright (c) 1996-2017 Texas Instruments Incorporated
timer.asm                                                            PAGE   75

    4066                    ;----------------------------------------------------------------------
    4067                    ; 1417 | uint32_t ui32Int;                                                      
    4068                    ; 1419 | //                                                                     
    4069                    ; 1420 | // Check the arguments.                                                
    4070                    ; 1421 | //                                                                     
    4071                    ; 1422 | ASSERT(_TimerBaseValid(ui32Base));                                     
    4072                    ; 1423 | ASSERT((ui32Timer == TIMER_A) || (ui32Timer == TIMER_B) ||             
    4073                    ; 1424 |        (ui32Timer == TIMER_BOTH));                                     
    4074                    ; 1426 | //                                                                     
    4075                    ; 1427 | // Get the interrupt number for this timer module.                     
    4076                    ; 1428 | //                                                                     
    4077                    ;----------------------------------------------------------------------
    4078 00000520 9101              STR       A2, [SP, #4]          ; [DPU_V7M3_PIPE] |1416|  ; [ORIG 16-BIT INS]
    4079 00000522 9000              STR       A1, [SP, #0]          ; [DPU_V7M3_PIPE] |1416|  ; [ORIG 16-BIT INS]
    4080                            .dwpsn  file "../driverlib/timer.c",line 1429,column 5,is_stmt,isa 1
    4081                    ;----------------------------------------------------------------------
    4082                    ; 1429 | ui32Int = _TimerIntNumberGet(ui32Base, ui32Timer);                     
    4083                    ; 1431 | //                                                                     
    4084                    ; 1432 | // Disable the interrupt.                                              
    4085                    ; 1433 | //                                                                     
    4086                    ;----------------------------------------------------------------------
    4087 00000524 9800              LDR       A1, [SP, #0]          ; [DPU_V7M3_PIPE] |1429|  ; [ORIG 16-BIT INS]
    4088 00000526 9901              LDR       A2, [SP, #4]          ; [DPU_V7M3_PIPE] |1429|  ; [ORIG 16-BIT INS]
    4089                    $C$DW$213       .dwtag  DW_TAG_TI_branch
    4090                            .dwattr $C$DW$213, DW_AT_low_pc(0x00)
    4091                            .dwattr $C$DW$213, DW_AT_name("_TimerIntNumberGet")
    4092                            .dwattr $C$DW$213, DW_AT_TI_call
    4093                    
    4094 00000528 FFFEF7FF!         BL        _TimerIntNumberGet    ; [DPU_V7M3_PIPE] |1429|  ; [KEEP 32-BIT INS]
    4095                            ; CALL OCCURS {_TimerIntNumberGet }  ; [] |1429| 
    4096 0000052c 9002              STR       A1, [SP, #8]          ; [DPU_V7M3_PIPE] |1429|  ; [ORIG 16-BIT INS]
    4097                            .dwpsn  file "../driverlib/timer.c",line 1434,column 5,is_stmt,isa 1
    4098                    ;----------------------------------------------------------------------
    4099                    ; 1434 | IntDisable(ui32Int);                                                   
    4100                    ; 1436 | //                                                                     
    4101                    ; 1437 | // Unregister the interrupt handler.                                   
    4102                    ; 1438 | //                                                                     
    4103                    ;----------------------------------------------------------------------
    4104 0000052e 9802              LDR       A1, [SP, #8]          ; [DPU_V7M3_PIPE] |1434|  ; [ORIG 16-BIT INS]
    4105                    $C$DW$214       .dwtag  DW_TAG_TI_branch
    4106                            .dwattr $C$DW$214, DW_AT_low_pc(0x00)
    4107                            .dwattr $C$DW$214, DW_AT_name("IntDisable")
    4108                            .dwattr $C$DW$214, DW_AT_TI_call
    4109                    
    4110 00000530 FFFEF7FF!         BL        IntDisable            ; [DPU_V7M3_PIPE] |1434|  ; [KEEP 32-BIT INS]
    4111                            ; CALL OCCURS {IntDisable }      ; [] |1434| 
    4112                            .dwpsn  file "../driverlib/timer.c",line 1439,column 5,is_stmt,isa 1
    4113                    ;----------------------------------------------------------------------
    4114                    ; 1439 | IntUnregister(ui32Int);                                                
    4115                    ;----------------------------------------------------------------------
    4116 00000534 9802              LDR       A1, [SP, #8]          ; [DPU_V7M3_PIPE] |1439|  ; [ORIG 16-BIT INS]
    4117                    $C$DW$215       .dwtag  DW_TAG_TI_branch
    4118                            .dwattr $C$DW$215, DW_AT_low_pc(0x00)
    4119                            .dwattr $C$DW$215, DW_AT_name("IntUnregister")
    4120                            .dwattr $C$DW$215, DW_AT_TI_call
TI ARM Assembler Unix v18.1.1 Fri Jul  3 20:08:26 2020

Tools Copyright (c) 1996-2017 Texas Instruments Incorporated
timer.asm                                                            PAGE   76

    4121                    
    4122 00000536 FFFEF7FF!         BL        IntUnregister         ; [DPU_V7M3_PIPE] |1439|  ; [KEEP 32-BIT INS]
    4123                            ; CALL OCCURS {IntUnregister }   ; [] |1439| 
    4124                            .dwpsn  file "../driverlib/timer.c",line 1440,column 1,is_stmt,isa 1
    4125                    $C$DW$216       .dwtag  DW_TAG_TI_branch
    4126                            .dwattr $C$DW$216, DW_AT_low_pc(0x00)
    4127                            .dwattr $C$DW$216, DW_AT_TI_return
    4128                    
    4129 0000053a BD0E              POP       {A2, A3, A4, PC}      ; [DPU_V7M3_PIPE]  ; [ORIG 16-BIT INS]
    4130                            .dwcfi  cfa_offset, 0
    4131                            .dwcfi  restore_reg, 3
    4132                            .dwcfi  restore_reg, 2
    4133                            .dwcfi  restore_reg, 1
    4134                            ; BRANCH OCCURS                  ; [] 
    4135                            .dwattr $C$DW$207, DW_AT_TI_end_file("../driverlib/timer.c")
    4136                            .dwattr $C$DW$207, DW_AT_TI_end_line(0x5a0)
    4137                            .dwattr $C$DW$207, DW_AT_TI_end_column(0x01)
    4138                            .dwendentry
    4139                            .dwendtag $C$DW$207
    4140                    
    4141 0000053c                   .sect   ".text"
    4142                            .clink
    4143                            .thumbfunc TimerIntEnable
    4144 0000053c                   .thumb
    4145                            .global TimerIntEnable
    4146                    
    4147                    $C$DW$217       .dwtag  DW_TAG_subprogram
    4148                            .dwattr $C$DW$217, DW_AT_name("TimerIntEnable")
    4149                            .dwattr $C$DW$217, DW_AT_low_pc(TimerIntEnable)
    4150                            .dwattr $C$DW$217, DW_AT_high_pc(0x00)
    4151                            .dwattr $C$DW$217, DW_AT_TI_symbol_name("TimerIntEnable")
    4152                            .dwattr $C$DW$217, DW_AT_external
    4153                            .dwattr $C$DW$217, DW_AT_TI_begin_file("../driverlib/timer.c")
    4154                            .dwattr $C$DW$217, DW_AT_TI_begin_line(0x5c0)
    4155                            .dwattr $C$DW$217, DW_AT_TI_begin_column(0x01)
    4156                            .dwattr $C$DW$217, DW_AT_decl_file("../driverlib/timer.c")
    4157                            .dwattr $C$DW$217, DW_AT_decl_line(0x5c0)
    4158                            .dwattr $C$DW$217, DW_AT_decl_column(0x01)
    4159                            .dwattr $C$DW$217, DW_AT_TI_max_frame_size(0x08)
    4160                            .dwpsn  file "../driverlib/timer.c",line 1473,column 1,is_stmt,address TimerIntEnable,isa 1
    4161                    
    4162                            .dwfde $C$DW$CIE, TimerIntEnable
    4163                    $C$DW$218       .dwtag  DW_TAG_formal_parameter
    4164                            .dwattr $C$DW$218, DW_AT_name("ui32Base")
    4165                            .dwattr $C$DW$218, DW_AT_TI_symbol_name("ui32Base")
    4166                            .dwattr $C$DW$218, DW_AT_type(*$C$DW$T$27)
    4167                            .dwattr $C$DW$218, DW_AT_location[DW_OP_reg0]
    4168                    
    4169                    $C$DW$219       .dwtag  DW_TAG_formal_parameter
    4170                            .dwattr $C$DW$219, DW_AT_name("ui32IntFlags")
    4171                            .dwattr $C$DW$219, DW_AT_TI_symbol_name("ui32IntFlags")
    4172                            .dwattr $C$DW$219, DW_AT_type(*$C$DW$T$27)
    4173                            .dwattr $C$DW$219, DW_AT_location[DW_OP_reg1]
    4174                    
    4175                    ;----------------------------------------------------------------------
TI ARM Assembler Unix v18.1.1 Fri Jul  3 20:08:26 2020

Tools Copyright (c) 1996-2017 Texas Instruments Incorporated
timer.asm                                                            PAGE   77

    4176                    ; 1472 | TimerIntEnable(uint32_t ui32Base, uint32_t ui32IntFlags)               
    4177                    ;----------------------------------------------------------------------
    4178                    
    4179                    ;*****************************************************************************
    4180                    ;* FUNCTION NAME: TimerIntEnable                                             *
    4181                    ;*                                                                           *
    4182                    ;*   Regs Modified     : A1,A2,A3,SP,SR                                      *
    4183                    ;*   Regs Used         : A1,A2,A3,SP,LR,SR                                   *
    4184                    ;*   Local Frame Size  : 0 Args + 8 Auto + 0 Save = 8 byte                   *
    4185                    ;*****************************************************************************
    4186 0000053c           TimerIntEnable:
    4187                    ;* --------------------------------------------------------------------------*
    4188                            .dwcfi  cfa_offset, 0
    4189 0000053c 0D08F1AD          SUB       SP, SP, #8            ; [DPU_V7M3_PIPE]  ; [KEEP 32-BIT INS]
    4190                            .dwcfi  cfa_offset, 8
    4191                    $C$DW$220       .dwtag  DW_TAG_variable
    4192                            .dwattr $C$DW$220, DW_AT_name("ui32Base")
    4193                            .dwattr $C$DW$220, DW_AT_TI_symbol_name("ui32Base")
    4194                            .dwattr $C$DW$220, DW_AT_type(*$C$DW$T$27)
    4195                            .dwattr $C$DW$220, DW_AT_location[DW_OP_breg13 0]
    4196                    
    4197                    $C$DW$221       .dwtag  DW_TAG_variable
    4198                            .dwattr $C$DW$221, DW_AT_name("ui32IntFlags")
    4199                            .dwattr $C$DW$221, DW_AT_TI_symbol_name("ui32IntFlags")
    4200                            .dwattr $C$DW$221, DW_AT_type(*$C$DW$T$27)
    4201                            .dwattr $C$DW$221, DW_AT_location[DW_OP_breg13 4]
    4202                    
    4203                    ;----------------------------------------------------------------------
    4204                    ; 1474 | //                                                                     
    4205                    ; 1475 | // Check the arguments.                                                
    4206                    ; 1476 | //                                                                     
    4207                    ; 1477 | ASSERT(_TimerBaseValid(ui32Base));                                     
    4208                    ; 1479 | //                                                                     
    4209                    ; 1480 | // Enable the specified interrupts.                                    
    4210                    ; 1481 | //                                                                     
    4211                    ;----------------------------------------------------------------------
    4212 00000540 9101              STR       A2, [SP, #4]          ; [DPU_V7M3_PIPE] |1473|  ; [ORIG 16-BIT INS]
    4213 00000542 9000              STR       A1, [SP, #0]          ; [DPU_V7M3_PIPE] |1473|  ; [ORIG 16-BIT INS]
    4214                            .dwpsn  file "../driverlib/timer.c",line 1482,column 5,is_stmt,isa 1
    4215                    ;----------------------------------------------------------------------
    4216                    ; 1482 | HWREG(ui32Base + TIMER_O_IMR) |= ui32IntFlags;                         
    4217                    ;----------------------------------------------------------------------
    4218 00000544 9800              LDR       A1, [SP, #0]          ; [DPU_V7M3_PIPE] |1482|  ; [ORIG 16-BIT INS]
    4219 00000546 9901              LDR       A2, [SP, #4]          ; [DPU_V7M3_PIPE] |1482|  ; [ORIG 16-BIT INS]
    4220 00000548 3018              ADDS      A1, A1, #24           ; [DPU_V7M3_PIPE] |1482|  ; [ORIG 16-BIT INS]
    4221 0000054a 6802              LDR       A3, [A1, #0]          ; [DPU_V7M3_PIPE] |1482|  ; [ORIG 16-BIT INS]
    4222 0000054c 4311              ORRS      A2, A2, A3            ; [DPU_V7M3_PIPE] |1482|  ; [ORIG 16-BIT INS]
    4223 0000054e 6001              STR       A2, [A1, #0]          ; [DPU_V7M3_PIPE] |1482|  ; [ORIG 16-BIT INS]
    4224                            .dwpsn  file "../driverlib/timer.c",line 1483,column 1,is_stmt,isa 1
    4225 00000550 B002              ADD       SP, SP, #8            ; [DPU_V7M3_PIPE]  ; [ORIG 16-BIT INS]
    4226                            .dwcfi  cfa_offset, 0
    4227                    $C$DW$222       .dwtag  DW_TAG_TI_branch
    4228                            .dwattr $C$DW$222, DW_AT_low_pc(0x00)
    4229                            .dwattr $C$DW$222, DW_AT_TI_return
    4230                    
TI ARM Assembler Unix v18.1.1 Fri Jul  3 20:08:26 2020

Tools Copyright (c) 1996-2017 Texas Instruments Incorporated
timer.asm                                                            PAGE   78

    4231 00000552 4770              BX        LR                    ; [DPU_V7M3_PIPE]  ; [ORIG 16-BIT INS]
    4232                            ; BRANCH OCCURS                  ; [] 
    4233                            .dwattr $C$DW$217, DW_AT_TI_end_file("../driverlib/timer.c")
    4234                            .dwattr $C$DW$217, DW_AT_TI_end_line(0x5cb)
    4235                            .dwattr $C$DW$217, DW_AT_TI_end_column(0x01)
    4236                            .dwendentry
    4237                            .dwendtag $C$DW$217
    4238                    
    4239 00000554                   .sect   ".text"
    4240                            .clink
    4241                            .thumbfunc TimerIntDisable
    4242 00000554                   .thumb
    4243                            .global TimerIntDisable
    4244                    
    4245                    $C$DW$223       .dwtag  DW_TAG_subprogram
    4246                            .dwattr $C$DW$223, DW_AT_name("TimerIntDisable")
    4247                            .dwattr $C$DW$223, DW_AT_low_pc(TimerIntDisable)
    4248                            .dwattr $C$DW$223, DW_AT_high_pc(0x00)
    4249                            .dwattr $C$DW$223, DW_AT_TI_symbol_name("TimerIntDisable")
    4250                            .dwattr $C$DW$223, DW_AT_external
    4251                            .dwattr $C$DW$223, DW_AT_TI_begin_file("../driverlib/timer.c")
    4252                            .dwattr $C$DW$223, DW_AT_TI_begin_line(0x5e0)
    4253                            .dwattr $C$DW$223, DW_AT_TI_begin_column(0x01)
    4254                            .dwattr $C$DW$223, DW_AT_decl_file("../driverlib/timer.c")
    4255                            .dwattr $C$DW$223, DW_AT_decl_line(0x5e0)
    4256                            .dwattr $C$DW$223, DW_AT_decl_column(0x01)
    4257                            .dwattr $C$DW$223, DW_AT_TI_max_frame_size(0x08)
    4258                            .dwpsn  file "../driverlib/timer.c",line 1505,column 1,is_stmt,address TimerIntDisable,isa 1
    4259                    
    4260                            .dwfde $C$DW$CIE, TimerIntDisable
    4261                    $C$DW$224       .dwtag  DW_TAG_formal_parameter
    4262                            .dwattr $C$DW$224, DW_AT_name("ui32Base")
    4263                            .dwattr $C$DW$224, DW_AT_TI_symbol_name("ui32Base")
    4264                            .dwattr $C$DW$224, DW_AT_type(*$C$DW$T$27)
    4265                            .dwattr $C$DW$224, DW_AT_location[DW_OP_reg0]
    4266                    
    4267                    $C$DW$225       .dwtag  DW_TAG_formal_parameter
    4268                            .dwattr $C$DW$225, DW_AT_name("ui32IntFlags")
    4269                            .dwattr $C$DW$225, DW_AT_TI_symbol_name("ui32IntFlags")
    4270                            .dwattr $C$DW$225, DW_AT_type(*$C$DW$T$27)
    4271                            .dwattr $C$DW$225, DW_AT_location[DW_OP_reg1]
    4272                    
    4273                    ;----------------------------------------------------------------------
    4274                    ; 1504 | TimerIntDisable(uint32_t ui32Base, uint32_t ui32IntFlags)              
    4275                    ;----------------------------------------------------------------------
    4276                    
    4277                    ;*****************************************************************************
    4278                    ;* FUNCTION NAME: TimerIntDisable                                            *
    4279                    ;*                                                                           *
    4280                    ;*   Regs Modified     : A1,A2,A3,SP,SR                                      *
    4281                    ;*   Regs Used         : A1,A2,A3,SP,LR,SR                                   *
    4282                    ;*   Local Frame Size  : 0 Args + 8 Auto + 0 Save = 8 byte                   *
    4283                    ;*****************************************************************************
    4284 00000554           TimerIntDisable:
    4285                    ;* --------------------------------------------------------------------------*
TI ARM Assembler Unix v18.1.1 Fri Jul  3 20:08:26 2020

Tools Copyright (c) 1996-2017 Texas Instruments Incorporated
timer.asm                                                            PAGE   79

    4286                            .dwcfi  cfa_offset, 0
    4287 00000554 0D08F1AD          SUB       SP, SP, #8            ; [DPU_V7M3_PIPE]  ; [KEEP 32-BIT INS]
    4288                            .dwcfi  cfa_offset, 8
    4289                    $C$DW$226       .dwtag  DW_TAG_variable
    4290                            .dwattr $C$DW$226, DW_AT_name("ui32Base")
    4291                            .dwattr $C$DW$226, DW_AT_TI_symbol_name("ui32Base")
    4292                            .dwattr $C$DW$226, DW_AT_type(*$C$DW$T$27)
    4293                            .dwattr $C$DW$226, DW_AT_location[DW_OP_breg13 0]
    4294                    
    4295                    $C$DW$227       .dwtag  DW_TAG_variable
    4296                            .dwattr $C$DW$227, DW_AT_name("ui32IntFlags")
    4297                            .dwattr $C$DW$227, DW_AT_TI_symbol_name("ui32IntFlags")
    4298                            .dwattr $C$DW$227, DW_AT_type(*$C$DW$T$27)
    4299                            .dwattr $C$DW$227, DW_AT_location[DW_OP_breg13 4]
    4300                    
    4301                    ;----------------------------------------------------------------------
    4302                    ; 1506 | //                                                                     
    4303                    ; 1507 | // Check the arguments.                                                
    4304                    ; 1508 | //                                                                     
    4305                    ; 1509 | ASSERT(_TimerBaseValid(ui32Base));                                     
    4306                    ; 1511 | //                                                                     
    4307                    ; 1512 | // Disable the specified interrupts.                                   
    4308                    ; 1513 | //                                                                     
    4309                    ;----------------------------------------------------------------------
    4310 00000558 9101              STR       A2, [SP, #4]          ; [DPU_V7M3_PIPE] |1505|  ; [ORIG 16-BIT INS]
    4311 0000055a 9000              STR       A1, [SP, #0]          ; [DPU_V7M3_PIPE] |1505|  ; [ORIG 16-BIT INS]
    4312                            .dwpsn  file "../driverlib/timer.c",line 1514,column 5,is_stmt,isa 1
    4313                    ;----------------------------------------------------------------------
    4314                    ; 1514 | HWREG(ui32Base + TIMER_O_IMR) &= ~(ui32IntFlags);                      
    4315                    ;----------------------------------------------------------------------
    4316 0000055c 9800              LDR       A1, [SP, #0]          ; [DPU_V7M3_PIPE] |1514|  ; [ORIG 16-BIT INS]
    4317 0000055e 9A01              LDR       A3, [SP, #4]          ; [DPU_V7M3_PIPE] |1514|  ; [ORIG 16-BIT INS]
    4318 00000560 3018              ADDS      A1, A1, #24           ; [DPU_V7M3_PIPE] |1514|  ; [ORIG 16-BIT INS]
    4319 00000562 6801              LDR       A2, [A1, #0]          ; [DPU_V7M3_PIPE] |1514|  ; [ORIG 16-BIT INS]
    4320 00000564 4391              BICS      A2, A2, A3            ; [DPU_V7M3_PIPE] |1514|  ; [ORIG 16-BIT INS]
    4321 00000566 6001              STR       A2, [A1, #0]          ; [DPU_V7M3_PIPE] |1514|  ; [ORIG 16-BIT INS]
    4322                            .dwpsn  file "../driverlib/timer.c",line 1515,column 1,is_stmt,isa 1
    4323 00000568 B002              ADD       SP, SP, #8            ; [DPU_V7M3_PIPE]  ; [ORIG 16-BIT INS]
    4324                            .dwcfi  cfa_offset, 0
    4325                    $C$DW$228       .dwtag  DW_TAG_TI_branch
    4326                            .dwattr $C$DW$228, DW_AT_low_pc(0x00)
    4327                            .dwattr $C$DW$228, DW_AT_TI_return
    4328                    
    4329 0000056a 4770              BX        LR                    ; [DPU_V7M3_PIPE]  ; [ORIG 16-BIT INS]
    4330                            ; BRANCH OCCURS                  ; [] 
    4331                            .dwattr $C$DW$223, DW_AT_TI_end_file("../driverlib/timer.c")
    4332                            .dwattr $C$DW$223, DW_AT_TI_end_line(0x5eb)
    4333                            .dwattr $C$DW$223, DW_AT_TI_end_column(0x01)
    4334                            .dwendentry
    4335                            .dwendtag $C$DW$223
    4336                    
    4337 0000056c                   .sect   ".text"
    4338                            .clink
    4339                            .thumbfunc TimerIntStatus
    4340 0000056c                   .thumb
TI ARM Assembler Unix v18.1.1 Fri Jul  3 20:08:26 2020

Tools Copyright (c) 1996-2017 Texas Instruments Incorporated
timer.asm                                                            PAGE   80

    4341                            .global TimerIntStatus
    4342                    
    4343                    $C$DW$229       .dwtag  DW_TAG_subprogram
    4344                            .dwattr $C$DW$229, DW_AT_name("TimerIntStatus")
    4345                            .dwattr $C$DW$229, DW_AT_low_pc(TimerIntStatus)
    4346                            .dwattr $C$DW$229, DW_AT_high_pc(0x00)
    4347                            .dwattr $C$DW$229, DW_AT_TI_symbol_name("TimerIntStatus")
    4348                            .dwattr $C$DW$229, DW_AT_external
    4349                            .dwattr $C$DW$229, DW_AT_type(*$C$DW$T$27)
    4350                            .dwattr $C$DW$229, DW_AT_TI_begin_file("../driverlib/timer.c")
    4351                            .dwattr $C$DW$229, DW_AT_TI_begin_line(0x5fe)
    4352                            .dwattr $C$DW$229, DW_AT_TI_begin_column(0x01)
    4353                            .dwattr $C$DW$229, DW_AT_decl_file("../driverlib/timer.c")
    4354                            .dwattr $C$DW$229, DW_AT_decl_line(0x5fe)
    4355                            .dwattr $C$DW$229, DW_AT_decl_column(0x01)
    4356                            .dwattr $C$DW$229, DW_AT_TI_max_frame_size(0x08)
    4357                            .dwpsn  file "../driverlib/timer.c",line 1535,column 1,is_stmt,address TimerIntStatus,isa 1
    4358                    
    4359                            .dwfde $C$DW$CIE, TimerIntStatus
    4360                    $C$DW$230       .dwtag  DW_TAG_formal_parameter
    4361                            .dwattr $C$DW$230, DW_AT_name("ui32Base")
    4362                            .dwattr $C$DW$230, DW_AT_TI_symbol_name("ui32Base")
    4363                            .dwattr $C$DW$230, DW_AT_type(*$C$DW$T$27)
    4364                            .dwattr $C$DW$230, DW_AT_location[DW_OP_reg0]
    4365                    
    4366                    $C$DW$231       .dwtag  DW_TAG_formal_parameter
    4367                            .dwattr $C$DW$231, DW_AT_name("bMasked")
    4368                            .dwattr $C$DW$231, DW_AT_TI_symbol_name("bMasked")
    4369                            .dwattr $C$DW$231, DW_AT_type(*$C$DW$T$33)
    4370                            .dwattr $C$DW$231, DW_AT_location[DW_OP_reg1]
    4371                    
    4372                    ;----------------------------------------------------------------------
    4373                    ; 1534 | TimerIntStatus(uint32_t ui32Base, bool bMasked)                        
    4374                    ;----------------------------------------------------------------------
    4375                    
    4376                    ;*****************************************************************************
    4377                    ;* FUNCTION NAME: TimerIntStatus                                             *
    4378                    ;*                                                                           *
    4379                    ;*   Regs Modified     : A1,SP                                               *
    4380                    ;*   Regs Used         : A1,A2,SP,LR                                         *
    4381                    ;*   Local Frame Size  : 0 Args + 8 Auto + 0 Save = 8 byte                   *
    4382                    ;*****************************************************************************
    4383 0000056c           TimerIntStatus:
    4384                    ;* --------------------------------------------------------------------------*
    4385                            .dwcfi  cfa_offset, 0
    4386 0000056c 0D08F1AD          SUB       SP, SP, #8            ; [DPU_V7M3_PIPE]  ; [KEEP 32-BIT INS]
    4387                            .dwcfi  cfa_offset, 8
    4388                    $C$DW$232       .dwtag  DW_TAG_variable
    4389                            .dwattr $C$DW$232, DW_AT_name("ui32Base")
    4390                            .dwattr $C$DW$232, DW_AT_TI_symbol_name("ui32Base")
    4391                            .dwattr $C$DW$232, DW_AT_type(*$C$DW$T$27)
    4392                            .dwattr $C$DW$232, DW_AT_location[DW_OP_breg13 0]
    4393                    
    4394                    $C$DW$233       .dwtag  DW_TAG_variable
    4395                            .dwattr $C$DW$233, DW_AT_name("bMasked")
TI ARM Assembler Unix v18.1.1 Fri Jul  3 20:08:26 2020

Tools Copyright (c) 1996-2017 Texas Instruments Incorporated
timer.asm                                                            PAGE   81

    4396                            .dwattr $C$DW$233, DW_AT_TI_symbol_name("bMasked")
    4397                            .dwattr $C$DW$233, DW_AT_type(*$C$DW$T$33)
    4398                            .dwattr $C$DW$233, DW_AT_location[DW_OP_breg13 4]
    4399                    
    4400                    ;----------------------------------------------------------------------
    4401                    ; 1536 | //                                                                     
    4402                    ; 1537 | // Check the arguments.                                                
    4403                    ; 1538 | //                                                                     
    4404                    ; 1539 | ASSERT(_TimerBaseValid(ui32Base));                                     
    4405                    ; 1541 | //                                                                     
    4406                    ; 1542 | // Return either the interrupt status or the raw interrupt status as   
    4407                    ; 1543 | // requested.                                                          
    4408                    ; 1544 | //                                                                     
    4409                    ;----------------------------------------------------------------------
    4410 00000570 1004F88D          STRB      A2, [SP, #4]          ; [DPU_V7M3_PIPE] |1535|  ; [KEEP 32-BIT INS]
    4411 00000574 9000              STR       A1, [SP, #0]          ; [DPU_V7M3_PIPE] |1535|  ; [ORIG 16-BIT INS]
    4412                            .dwpsn  file "../driverlib/timer.c",line 1545,column 5,is_stmt,isa 1
    4413                    ;----------------------------------------------------------------------
    4414                    ; 1545 | return(bMasked ? HWREG(ui32Base + TIMER_O_MIS) :                       
    4415                    ; 1546 |        HWREG(ui32Base + TIMER_O_RIS));                                 
    4416                    ;----------------------------------------------------------------------
    4417 00000576 0004F89D          LDRB      A1, [SP, #4]          ; [DPU_V7M3_PIPE] |1545|  ; [KEEP 32-BIT INS]
    4418 0000057a B110              CBZ       A1, ||$C$L43||        ; []  ; [ORIG 16-BIT INS]
    4419                            ; BRANCHCC OCCURS {||$C$L43||}   ; [] |1545| 
    4420                    ;* --------------------------------------------------------------------------*
    4421 0000057c 9800              LDR       A1, [SP, #0]          ; [DPU_V7M3_PIPE] |1545|  ; [ORIG 16-BIT INS]
    4422 0000057e 6A00              LDR       A1, [A1, #32]         ; [DPU_V7M3_PIPE] |1545|  ; [ORIG 16-BIT INS]
    4423 00000580 E001              B         ||$C$L44||            ; [DPU_V7M3_PIPE] |1545|  ; [ORIG 16-BIT INS]
    4424                            ; BRANCH OCCURS {||$C$L44||}     ; [] |1545| 
    4425                    ;* --------------------------------------------------------------------------*
    4426 00000582           ||$C$L43||:    
    4427 00000582 9800              LDR       A1, [SP, #0]          ; [DPU_V7M3_PIPE] |1545|  ; [ORIG 16-BIT INS]
    4428 00000584 69C0              LDR       A1, [A1, #28]         ; [DPU_V7M3_PIPE] |1545|  ; [ORIG 16-BIT INS]
    4429                    ;* --------------------------------------------------------------------------*
    4430 00000586           ||$C$L44||:    
    4431                            .dwpsn  file "../driverlib/timer.c",line 1547,column 1,is_stmt,isa 1
    4432 00000586 B002              ADD       SP, SP, #8            ; [DPU_V7M3_PIPE]  ; [ORIG 16-BIT INS]
    4433                            .dwcfi  cfa_offset, 0
    4434                    $C$DW$234       .dwtag  DW_TAG_TI_branch
    4435                            .dwattr $C$DW$234, DW_AT_low_pc(0x00)
    4436                            .dwattr $C$DW$234, DW_AT_TI_return
    4437                    
    4438 00000588 4770              BX        LR                    ; [DPU_V7M3_PIPE]  ; [ORIG 16-BIT INS]
    4439                            ; BRANCH OCCURS                  ; [] 
    4440                            .dwattr $C$DW$229, DW_AT_TI_end_file("../driverlib/timer.c")
    4441                            .dwattr $C$DW$229, DW_AT_TI_end_line(0x60b)
    4442                            .dwattr $C$DW$229, DW_AT_TI_end_column(0x01)
    4443                            .dwendentry
    4444                            .dwendtag $C$DW$229
    4445                    
    4446 0000058a                   .sect   ".text"
    4447                            .clink
    4448                            .thumbfunc TimerIntClear
    4449 0000058a                   .thumb
    4450                            .global TimerIntClear
TI ARM Assembler Unix v18.1.1 Fri Jul  3 20:08:26 2020

Tools Copyright (c) 1996-2017 Texas Instruments Incorporated
timer.asm                                                            PAGE   82

    4451                    
    4452                    $C$DW$235       .dwtag  DW_TAG_subprogram
    4453                            .dwattr $C$DW$235, DW_AT_name("TimerIntClear")
    4454                            .dwattr $C$DW$235, DW_AT_low_pc(TimerIntClear)
    4455                            .dwattr $C$DW$235, DW_AT_high_pc(0x00)
    4456                            .dwattr $C$DW$235, DW_AT_TI_symbol_name("TimerIntClear")
    4457                            .dwattr $C$DW$235, DW_AT_external
    4458                            .dwattr $C$DW$235, DW_AT_TI_begin_file("../driverlib/timer.c")
    4459                            .dwattr $C$DW$235, DW_AT_TI_begin_line(0x628)
    4460                            .dwattr $C$DW$235, DW_AT_TI_begin_column(0x01)
    4461                            .dwattr $C$DW$235, DW_AT_decl_file("../driverlib/timer.c")
    4462                            .dwattr $C$DW$235, DW_AT_decl_line(0x628)
    4463                            .dwattr $C$DW$235, DW_AT_decl_column(0x01)
    4464                            .dwattr $C$DW$235, DW_AT_TI_max_frame_size(0x08)
    4465                            .dwpsn  file "../driverlib/timer.c",line 1577,column 1,is_stmt,address TimerIntClear,isa 1
    4466                    
    4467                            .dwfde $C$DW$CIE, TimerIntClear
    4468                    $C$DW$236       .dwtag  DW_TAG_formal_parameter
    4469                            .dwattr $C$DW$236, DW_AT_name("ui32Base")
    4470                            .dwattr $C$DW$236, DW_AT_TI_symbol_name("ui32Base")
    4471                            .dwattr $C$DW$236, DW_AT_type(*$C$DW$T$27)
    4472                            .dwattr $C$DW$236, DW_AT_location[DW_OP_reg0]
    4473                    
    4474                    $C$DW$237       .dwtag  DW_TAG_formal_parameter
    4475                            .dwattr $C$DW$237, DW_AT_name("ui32IntFlags")
    4476                            .dwattr $C$DW$237, DW_AT_TI_symbol_name("ui32IntFlags")
    4477                            .dwattr $C$DW$237, DW_AT_type(*$C$DW$T$27)
    4478                            .dwattr $C$DW$237, DW_AT_location[DW_OP_reg1]
    4479                    
    4480                    ;----------------------------------------------------------------------
    4481                    ; 1576 | TimerIntClear(uint32_t ui32Base, uint32_t ui32IntFlags)                
    4482                    ;----------------------------------------------------------------------
    4483                    
    4484                    ;*****************************************************************************
    4485                    ;* FUNCTION NAME: TimerIntClear                                              *
    4486                    ;*                                                                           *
    4487                    ;*   Regs Modified     : A1,A2,SP                                            *
    4488                    ;*   Regs Used         : A1,A2,SP,LR                                         *
    4489                    ;*   Local Frame Size  : 0 Args + 8 Auto + 0 Save = 8 byte                   *
    4490                    ;*****************************************************************************
    4491 0000058a           TimerIntClear:
    4492                    ;* --------------------------------------------------------------------------*
    4493                            .dwcfi  cfa_offset, 0
    4494 0000058a 0D08F1AD          SUB       SP, SP, #8            ; [DPU_V7M3_PIPE]  ; [KEEP 32-BIT INS]
    4495                            .dwcfi  cfa_offset, 8
    4496                    $C$DW$238       .dwtag  DW_TAG_variable
    4497                            .dwattr $C$DW$238, DW_AT_name("ui32Base")
    4498                            .dwattr $C$DW$238, DW_AT_TI_symbol_name("ui32Base")
    4499                            .dwattr $C$DW$238, DW_AT_type(*$C$DW$T$27)
    4500                            .dwattr $C$DW$238, DW_AT_location[DW_OP_breg13 0]
    4501                    
    4502                    $C$DW$239       .dwtag  DW_TAG_variable
    4503                            .dwattr $C$DW$239, DW_AT_name("ui32IntFlags")
    4504                            .dwattr $C$DW$239, DW_AT_TI_symbol_name("ui32IntFlags")
    4505                            .dwattr $C$DW$239, DW_AT_type(*$C$DW$T$27)
TI ARM Assembler Unix v18.1.1 Fri Jul  3 20:08:26 2020

Tools Copyright (c) 1996-2017 Texas Instruments Incorporated
timer.asm                                                            PAGE   83

    4506                            .dwattr $C$DW$239, DW_AT_location[DW_OP_breg13 4]
    4507                    
    4508                    ;----------------------------------------------------------------------
    4509                    ; 1578 | //                                                                     
    4510                    ; 1579 | // Check the arguments.                                                
    4511                    ; 1580 | //                                                                     
    4512                    ; 1581 | ASSERT(_TimerBaseValid(ui32Base));                                     
    4513                    ; 1583 | //                                                                     
    4514                    ; 1584 | // Clear the requested interrupt sources.                              
    4515                    ; 1585 | //                                                                     
    4516                    ;----------------------------------------------------------------------
    4517 0000058e 9101              STR       A2, [SP, #4]          ; [DPU_V7M3_PIPE] |1577|  ; [ORIG 16-BIT INS]
    4518 00000590 9000              STR       A1, [SP, #0]          ; [DPU_V7M3_PIPE] |1577|  ; [ORIG 16-BIT INS]
    4519                            .dwpsn  file "../driverlib/timer.c",line 1586,column 5,is_stmt,isa 1
    4520                    ;----------------------------------------------------------------------
    4521                    ; 1586 | HWREG(ui32Base + TIMER_O_ICR) = ui32IntFlags;                          
    4522                    ;----------------------------------------------------------------------
    4523 00000592 9801              LDR       A1, [SP, #4]          ; [DPU_V7M3_PIPE] |1586|  ; [ORIG 16-BIT INS]
    4524 00000594 9900              LDR       A2, [SP, #0]          ; [DPU_V7M3_PIPE] |1586|  ; [ORIG 16-BIT INS]
    4525 00000596 6248              STR       A1, [A2, #36]         ; [DPU_V7M3_PIPE] |1586|  ; [ORIG 16-BIT INS]
    4526                            .dwpsn  file "../driverlib/timer.c",line 1587,column 1,is_stmt,isa 1
    4527 00000598 B002              ADD       SP, SP, #8            ; [DPU_V7M3_PIPE]  ; [ORIG 16-BIT INS]
    4528                            .dwcfi  cfa_offset, 0
    4529                    $C$DW$240       .dwtag  DW_TAG_TI_branch
    4530                            .dwattr $C$DW$240, DW_AT_low_pc(0x00)
    4531                            .dwattr $C$DW$240, DW_AT_TI_return
    4532                    
    4533 0000059a 4770              BX        LR                    ; [DPU_V7M3_PIPE]  ; [ORIG 16-BIT INS]
    4534                            ; BRANCH OCCURS                  ; [] 
    4535                            .dwattr $C$DW$235, DW_AT_TI_end_file("../driverlib/timer.c")
    4536                            .dwattr $C$DW$235, DW_AT_TI_end_line(0x633)
    4537                            .dwattr $C$DW$235, DW_AT_TI_end_column(0x01)
    4538                            .dwendentry
    4539                            .dwendtag $C$DW$235
    4540                    
    4541 0000059c                   .sect   ".text"
    4542                            .clink
    4543                            .thumbfunc TimerSynchronize
    4544 0000059c                   .thumb
    4545                            .global TimerSynchronize
    4546                    
    4547                    $C$DW$241       .dwtag  DW_TAG_subprogram
    4548                            .dwattr $C$DW$241, DW_AT_name("TimerSynchronize")
    4549                            .dwattr $C$DW$241, DW_AT_low_pc(TimerSynchronize)
    4550                            .dwattr $C$DW$241, DW_AT_high_pc(0x00)
    4551                            .dwattr $C$DW$241, DW_AT_TI_symbol_name("TimerSynchronize")
    4552                            .dwattr $C$DW$241, DW_AT_external
    4553                            .dwattr $C$DW$241, DW_AT_TI_begin_file("../driverlib/timer.c")
    4554                            .dwattr $C$DW$241, DW_AT_TI_begin_line(0x665)
    4555                            .dwattr $C$DW$241, DW_AT_TI_begin_column(0x01)
    4556                            .dwattr $C$DW$241, DW_AT_decl_file("../driverlib/timer.c")
    4557                            .dwattr $C$DW$241, DW_AT_decl_line(0x665)
    4558                            .dwattr $C$DW$241, DW_AT_decl_column(0x01)
    4559                            .dwattr $C$DW$241, DW_AT_TI_max_frame_size(0x08)
    4560                            .dwpsn  file "../driverlib/timer.c",line 1638,column 1,is_stmt,address TimerSynchronize,isa 1
TI ARM Assembler Unix v18.1.1 Fri Jul  3 20:08:26 2020

Tools Copyright (c) 1996-2017 Texas Instruments Incorporated
timer.asm                                                            PAGE   84

    4561                    
    4562                            .dwfde $C$DW$CIE, TimerSynchronize
    4563                    $C$DW$242       .dwtag  DW_TAG_formal_parameter
    4564                            .dwattr $C$DW$242, DW_AT_name("ui32Base")
    4565                            .dwattr $C$DW$242, DW_AT_TI_symbol_name("ui32Base")
    4566                            .dwattr $C$DW$242, DW_AT_type(*$C$DW$T$27)
    4567                            .dwattr $C$DW$242, DW_AT_location[DW_OP_reg0]
    4568                    
    4569                    $C$DW$243       .dwtag  DW_TAG_formal_parameter
    4570                            .dwattr $C$DW$243, DW_AT_name("ui32Timers")
    4571                            .dwattr $C$DW$243, DW_AT_TI_symbol_name("ui32Timers")
    4572                            .dwattr $C$DW$243, DW_AT_type(*$C$DW$T$27)
    4573                            .dwattr $C$DW$243, DW_AT_location[DW_OP_reg1]
    4574                    
    4575                    ;----------------------------------------------------------------------
    4576                    ; 1637 | TimerSynchronize(uint32_t ui32Base, uint32_t ui32Timers)               
    4577                    ;----------------------------------------------------------------------
    4578                    
    4579                    ;*****************************************************************************
    4580                    ;* FUNCTION NAME: TimerSynchronize                                           *
    4581                    ;*                                                                           *
    4582                    ;*   Regs Modified     : A1,A2,SP                                            *
    4583                    ;*   Regs Used         : A1,A2,SP,LR                                         *
    4584                    ;*   Local Frame Size  : 0 Args + 8 Auto + 0 Save = 8 byte                   *
    4585                    ;*****************************************************************************
    4586 0000059c           TimerSynchronize:
    4587                    ;* --------------------------------------------------------------------------*
    4588                            .dwcfi  cfa_offset, 0
    4589 0000059c 0D08F1AD          SUB       SP, SP, #8            ; [DPU_V7M3_PIPE]  ; [KEEP 32-BIT INS]
    4590                            .dwcfi  cfa_offset, 8
    4591                    $C$DW$244       .dwtag  DW_TAG_variable
    4592                            .dwattr $C$DW$244, DW_AT_name("ui32Base")
    4593                            .dwattr $C$DW$244, DW_AT_TI_symbol_name("ui32Base")
    4594                            .dwattr $C$DW$244, DW_AT_type(*$C$DW$T$27)
    4595                            .dwattr $C$DW$244, DW_AT_location[DW_OP_breg13 0]
    4596                    
    4597                    $C$DW$245       .dwtag  DW_TAG_variable
    4598                            .dwattr $C$DW$245, DW_AT_name("ui32Timers")
    4599                            .dwattr $C$DW$245, DW_AT_TI_symbol_name("ui32Timers")
    4600                            .dwattr $C$DW$245, DW_AT_type(*$C$DW$T$27)
    4601                            .dwattr $C$DW$245, DW_AT_location[DW_OP_breg13 4]
    4602                    
    4603                    ;----------------------------------------------------------------------
    4604                    ; 1639 | //                                                                     
    4605                    ; 1640 | // Check the arguments.                                                
    4606                    ; 1641 | //                                                                     
    4607                    ; 1642 | ASSERT(ui32Base == TIMER0_BASE);                                       
    4608                    ; 1644 | //                                                                     
    4609                    ; 1645 | // Synchronize the specified timers.                                   
    4610                    ; 1646 | //                                                                     
    4611                    ;----------------------------------------------------------------------
    4612 000005a0 9101              STR       A2, [SP, #4]          ; [DPU_V7M3_PIPE] |1638|  ; [ORIG 16-BIT INS]
    4613 000005a2 9000              STR       A1, [SP, #0]          ; [DPU_V7M3_PIPE] |1638|  ; [ORIG 16-BIT INS]
    4614                            .dwpsn  file "../driverlib/timer.c",line 1647,column 5,is_stmt,isa 1
    4615                    ;----------------------------------------------------------------------
TI ARM Assembler Unix v18.1.1 Fri Jul  3 20:08:26 2020

Tools Copyright (c) 1996-2017 Texas Instruments Incorporated
timer.asm                                                            PAGE   85

    4616                    ; 1647 | HWREG(ui32Base + TIMER_O_SYNC) = ui32Timers;                           
    4617                    ;----------------------------------------------------------------------
    4618 000005a4 9801              LDR       A1, [SP, #4]          ; [DPU_V7M3_PIPE] |1647|  ; [ORIG 16-BIT INS]
    4619 000005a6 9900              LDR       A2, [SP, #0]          ; [DPU_V7M3_PIPE] |1647|  ; [ORIG 16-BIT INS]
    4620 000005a8 6108              STR       A1, [A2, #16]         ; [DPU_V7M3_PIPE] |1647|  ; [ORIG 16-BIT INS]
    4621                            .dwpsn  file "../driverlib/timer.c",line 1648,column 1,is_stmt,isa 1
    4622 000005aa B002              ADD       SP, SP, #8            ; [DPU_V7M3_PIPE]  ; [ORIG 16-BIT INS]
    4623                            .dwcfi  cfa_offset, 0
    4624                    $C$DW$246       .dwtag  DW_TAG_TI_branch
    4625                            .dwattr $C$DW$246, DW_AT_low_pc(0x00)
    4626                            .dwattr $C$DW$246, DW_AT_TI_return
    4627                    
    4628 000005ac 4770              BX        LR                    ; [DPU_V7M3_PIPE]  ; [ORIG 16-BIT INS]
    4629                            ; BRANCH OCCURS                  ; [] 
    4630                            .dwattr $C$DW$241, DW_AT_TI_end_file("../driverlib/timer.c")
    4631                            .dwattr $C$DW$241, DW_AT_TI_end_line(0x670)
    4632                            .dwattr $C$DW$241, DW_AT_TI_end_column(0x01)
    4633                            .dwendentry
    4634                            .dwendtag $C$DW$241
    4635                    
    4636 000005ae                   .sect   ".text"
    4637                            .clink
    4638                            .thumbfunc TimerADCEventSet
    4639 000005ae                   .thumb
    4640                            .global TimerADCEventSet
    4641                    
    4642                    $C$DW$247       .dwtag  DW_TAG_subprogram
    4643                            .dwattr $C$DW$247, DW_AT_name("TimerADCEventSet")
    4644                            .dwattr $C$DW$247, DW_AT_low_pc(TimerADCEventSet)
    4645                            .dwattr $C$DW$247, DW_AT_high_pc(0x00)
    4646                            .dwattr $C$DW$247, DW_AT_TI_symbol_name("TimerADCEventSet")
    4647                            .dwattr $C$DW$247, DW_AT_external
    4648                            .dwattr $C$DW$247, DW_AT_TI_begin_file("../driverlib/timer.c")
    4649                            .dwattr $C$DW$247, DW_AT_TI_begin_line(0x696)
    4650                            .dwattr $C$DW$247, DW_AT_TI_begin_column(0x01)
    4651                            .dwattr $C$DW$247, DW_AT_decl_file("../driverlib/timer.c")
    4652                            .dwattr $C$DW$247, DW_AT_decl_line(0x696)
    4653                            .dwattr $C$DW$247, DW_AT_decl_column(0x01)
    4654                            .dwattr $C$DW$247, DW_AT_TI_max_frame_size(0x08)
    4655                            .dwpsn  file "../driverlib/timer.c",line 1687,column 1,is_stmt,address TimerADCEventSet,isa 1
    4656                    
    4657                            .dwfde $C$DW$CIE, TimerADCEventSet
    4658                    $C$DW$248       .dwtag  DW_TAG_formal_parameter
    4659                            .dwattr $C$DW$248, DW_AT_name("ui32Base")
    4660                            .dwattr $C$DW$248, DW_AT_TI_symbol_name("ui32Base")
    4661                            .dwattr $C$DW$248, DW_AT_type(*$C$DW$T$27)
    4662                            .dwattr $C$DW$248, DW_AT_location[DW_OP_reg0]
    4663                    
    4664                    $C$DW$249       .dwtag  DW_TAG_formal_parameter
    4665                            .dwattr $C$DW$249, DW_AT_name("ui32ADCEvent")
    4666                            .dwattr $C$DW$249, DW_AT_TI_symbol_name("ui32ADCEvent")
    4667                            .dwattr $C$DW$249, DW_AT_type(*$C$DW$T$27)
    4668                            .dwattr $C$DW$249, DW_AT_location[DW_OP_reg1]
    4669                    
    4670                    ;----------------------------------------------------------------------
TI ARM Assembler Unix v18.1.1 Fri Jul  3 20:08:26 2020

Tools Copyright (c) 1996-2017 Texas Instruments Incorporated
timer.asm                                                            PAGE   86

    4671                    ; 1686 | TimerADCEventSet(uint32_t ui32Base, uint32_t ui32ADCEvent)             
    4672                    ;----------------------------------------------------------------------
    4673                    
    4674                    ;*****************************************************************************
    4675                    ;* FUNCTION NAME: TimerADCEventSet                                           *
    4676                    ;*                                                                           *
    4677                    ;*   Regs Modified     : A1,A2,SP                                            *
    4678                    ;*   Regs Used         : A1,A2,SP,LR                                         *
    4679                    ;*   Local Frame Size  : 0 Args + 8 Auto + 0 Save = 8 byte                   *
    4680                    ;*****************************************************************************
    4681 000005ae           TimerADCEventSet:
    4682                    ;* --------------------------------------------------------------------------*
    4683                            .dwcfi  cfa_offset, 0
    4684 000005ae 0D08F1AD          SUB       SP, SP, #8            ; [DPU_V7M3_PIPE]  ; [KEEP 32-BIT INS]
    4685                            .dwcfi  cfa_offset, 8
    4686                    $C$DW$250       .dwtag  DW_TAG_variable
    4687                            .dwattr $C$DW$250, DW_AT_name("ui32Base")
    4688                            .dwattr $C$DW$250, DW_AT_TI_symbol_name("ui32Base")
    4689                            .dwattr $C$DW$250, DW_AT_type(*$C$DW$T$27)
    4690                            .dwattr $C$DW$250, DW_AT_location[DW_OP_breg13 0]
    4691                    
    4692                    $C$DW$251       .dwtag  DW_TAG_variable
    4693                            .dwattr $C$DW$251, DW_AT_name("ui32ADCEvent")
    4694                            .dwattr $C$DW$251, DW_AT_TI_symbol_name("ui32ADCEvent")
    4695                            .dwattr $C$DW$251, DW_AT_type(*$C$DW$T$27)
    4696                            .dwattr $C$DW$251, DW_AT_location[DW_OP_breg13 4]
    4697                    
    4698                    ;----------------------------------------------------------------------
    4699                    ; 1688 | //                                                                     
    4700                    ; 1689 | // Check the arguments.                                                
    4701                    ; 1690 | //                                                                     
    4702                    ; 1691 | ASSERT(_TimerBaseValid(ui32Base));                                     
    4703                    ; 1693 | //                                                                     
    4704                    ; 1694 | // Set the ADC triggers.                                               
    4705                    ; 1695 | //                                                                     
    4706                    ;----------------------------------------------------------------------
    4707 000005b2 9101              STR       A2, [SP, #4]          ; [DPU_V7M3_PIPE] |1687|  ; [ORIG 16-BIT INS]
    4708 000005b4 9000              STR       A1, [SP, #0]          ; [DPU_V7M3_PIPE] |1687|  ; [ORIG 16-BIT INS]
    4709                            .dwpsn  file "../driverlib/timer.c",line 1696,column 5,is_stmt,isa 1
    4710                    ;----------------------------------------------------------------------
    4711                    ; 1696 | HWREG(ui32Base + TIMER_O_ADCEV) = ui32ADCEvent;                        
    4712                    ;----------------------------------------------------------------------
    4713 000005b6 9801              LDR       A1, [SP, #4]          ; [DPU_V7M3_PIPE] |1696|  ; [ORIG 16-BIT INS]
    4714 000005b8 9900              LDR       A2, [SP, #0]          ; [DPU_V7M3_PIPE] |1696|  ; [ORIG 16-BIT INS]
    4715 000005ba 6708              STR       A1, [A2, #112]        ; [DPU_V7M3_PIPE] |1696|  ; [ORIG 16-BIT INS]
    4716                            .dwpsn  file "../driverlib/timer.c",line 1697,column 1,is_stmt,isa 1
    4717 000005bc B002              ADD       SP, SP, #8            ; [DPU_V7M3_PIPE]  ; [ORIG 16-BIT INS]
    4718                            .dwcfi  cfa_offset, 0
    4719                    $C$DW$252       .dwtag  DW_TAG_TI_branch
    4720                            .dwattr $C$DW$252, DW_AT_low_pc(0x00)
    4721                            .dwattr $C$DW$252, DW_AT_TI_return
    4722                    
    4723 000005be 4770              BX        LR                    ; [DPU_V7M3_PIPE]  ; [ORIG 16-BIT INS]
    4724                            ; BRANCH OCCURS                  ; [] 
    4725                            .dwattr $C$DW$247, DW_AT_TI_end_file("../driverlib/timer.c")
TI ARM Assembler Unix v18.1.1 Fri Jul  3 20:08:26 2020

Tools Copyright (c) 1996-2017 Texas Instruments Incorporated
timer.asm                                                            PAGE   87

    4726                            .dwattr $C$DW$247, DW_AT_TI_end_line(0x6a1)
    4727                            .dwattr $C$DW$247, DW_AT_TI_end_column(0x01)
    4728                            .dwendentry
    4729                            .dwendtag $C$DW$247
    4730                    
    4731 000005c0                   .sect   ".text"
    4732                            .clink
    4733                            .thumbfunc TimerADCEventGet
    4734 000005c0                   .thumb
    4735                            .global TimerADCEventGet
    4736                    
    4737                    $C$DW$253       .dwtag  DW_TAG_subprogram
    4738                            .dwattr $C$DW$253, DW_AT_name("TimerADCEventGet")
    4739                            .dwattr $C$DW$253, DW_AT_low_pc(TimerADCEventGet)
    4740                            .dwattr $C$DW$253, DW_AT_high_pc(0x00)
    4741                            .dwattr $C$DW$253, DW_AT_TI_symbol_name("TimerADCEventGet")
    4742                            .dwattr $C$DW$253, DW_AT_external
    4743                            .dwattr $C$DW$253, DW_AT_type(*$C$DW$T$27)
    4744                            .dwattr $C$DW$253, DW_AT_TI_begin_file("../driverlib/timer.c")
    4745                            .dwattr $C$DW$253, DW_AT_TI_begin_line(0x6c4)
    4746                            .dwattr $C$DW$253, DW_AT_TI_begin_column(0x01)
    4747                            .dwattr $C$DW$253, DW_AT_decl_file("../driverlib/timer.c")
    4748                            .dwattr $C$DW$253, DW_AT_decl_line(0x6c4)
    4749                            .dwattr $C$DW$253, DW_AT_decl_column(0x01)
    4750                            .dwattr $C$DW$253, DW_AT_TI_max_frame_size(0x08)
    4751                            .dwpsn  file "../driverlib/timer.c",line 1733,column 1,is_stmt,address TimerADCEventGet,isa 1
    4752                    
    4753                            .dwfde $C$DW$CIE, TimerADCEventGet
    4754                    $C$DW$254       .dwtag  DW_TAG_formal_parameter
    4755                            .dwattr $C$DW$254, DW_AT_name("ui32Base")
    4756                            .dwattr $C$DW$254, DW_AT_TI_symbol_name("ui32Base")
    4757                            .dwattr $C$DW$254, DW_AT_type(*$C$DW$T$27)
    4758                            .dwattr $C$DW$254, DW_AT_location[DW_OP_reg0]
    4759                    
    4760                    ;----------------------------------------------------------------------
    4761                    ; 1732 | TimerADCEventGet(uint32_t ui32Base)                                    
    4762                    ;----------------------------------------------------------------------
    4763                    
    4764                    ;*****************************************************************************
    4765                    ;* FUNCTION NAME: TimerADCEventGet                                           *
    4766                    ;*                                                                           *
    4767                    ;*   Regs Modified     : A1,SP                                               *
    4768                    ;*   Regs Used         : A1,SP,LR                                            *
    4769                    ;*   Local Frame Size  : 0 Args + 4 Auto + 0 Save = 4 byte                   *
    4770                    ;*****************************************************************************
    4771 000005c0           TimerADCEventGet:
    4772                    ;* --------------------------------------------------------------------------*
    4773                            .dwcfi  cfa_offset, 0
    4774 000005c0 0D08F1AD          SUB       SP, SP, #8            ; [DPU_V7M3_PIPE]  ; [KEEP 32-BIT INS]
    4775                            .dwcfi  cfa_offset, 8
    4776                    $C$DW$255       .dwtag  DW_TAG_variable
    4777                            .dwattr $C$DW$255, DW_AT_name("ui32Base")
    4778                            .dwattr $C$DW$255, DW_AT_TI_symbol_name("ui32Base")
    4779                            .dwattr $C$DW$255, DW_AT_type(*$C$DW$T$27)
    4780                            .dwattr $C$DW$255, DW_AT_location[DW_OP_breg13 0]
TI ARM Assembler Unix v18.1.1 Fri Jul  3 20:08:26 2020

Tools Copyright (c) 1996-2017 Texas Instruments Incorporated
timer.asm                                                            PAGE   88

    4781                    
    4782                    ;----------------------------------------------------------------------
    4783                    ; 1734 | //                                                                     
    4784                    ; 1735 | // Check the arguments.                                                
    4785                    ; 1736 | //                                                                     
    4786                    ; 1737 | ASSERT(_TimerBaseValid(ui32Base));                                     
    4787                    ; 1739 | //                                                                     
    4788                    ; 1740 | // Return the current ADC triggers.                                    
    4789                    ; 1741 | //                                                                     
    4790                    ;----------------------------------------------------------------------
    4791 000005c4 9000              STR       A1, [SP, #0]          ; [DPU_V7M3_PIPE] |1733|  ; [ORIG 16-BIT INS]
    4792                            .dwpsn  file "../driverlib/timer.c",line 1742,column 5,is_stmt,isa 1
    4793                    ;----------------------------------------------------------------------
    4794                    ; 1742 | return(HWREG(ui32Base + TIMER_O_ADCEV));                               
    4795                    ;----------------------------------------------------------------------
    4796 000005c6 9800              LDR       A1, [SP, #0]          ; [DPU_V7M3_PIPE] |1742|  ; [ORIG 16-BIT INS]
    4797 000005c8 6F00              LDR       A1, [A1, #112]        ; [DPU_V7M3_PIPE] |1742|  ; [ORIG 16-BIT INS]
    4798                            .dwpsn  file "../driverlib/timer.c",line 1743,column 1,is_stmt,isa 1
    4799 000005ca B002              ADD       SP, SP, #8            ; [DPU_V7M3_PIPE]  ; [ORIG 16-BIT INS]
    4800                            .dwcfi  cfa_offset, 0
    4801                    $C$DW$256       .dwtag  DW_TAG_TI_branch
    4802                            .dwattr $C$DW$256, DW_AT_low_pc(0x00)
    4803                            .dwattr $C$DW$256, DW_AT_TI_return
    4804                    
    4805 000005cc 4770              BX        LR                    ; [DPU_V7M3_PIPE]  ; [ORIG 16-BIT INS]
    4806                            ; BRANCH OCCURS                  ; [] 
    4807                            .dwattr $C$DW$253, DW_AT_TI_end_file("../driverlib/timer.c")
    4808                            .dwattr $C$DW$253, DW_AT_TI_end_line(0x6cf)
    4809                            .dwattr $C$DW$253, DW_AT_TI_end_column(0x01)
    4810                            .dwendentry
    4811                            .dwendtag $C$DW$253
    4812                    
    4813 000005ce                   .sect   ".text"
    4814                            .clink
    4815                            .thumbfunc TimerDMAEventSet
    4816 000005ce                   .thumb
    4817                            .global TimerDMAEventSet
    4818                    
    4819                    $C$DW$257       .dwtag  DW_TAG_subprogram
    4820                            .dwattr $C$DW$257, DW_AT_name("TimerDMAEventSet")
    4821                            .dwattr $C$DW$257, DW_AT_low_pc(TimerDMAEventSet)
    4822                            .dwattr $C$DW$257, DW_AT_high_pc(0x00)
    4823                            .dwattr $C$DW$257, DW_AT_TI_symbol_name("TimerDMAEventSet")
    4824                            .dwattr $C$DW$257, DW_AT_external
    4825                            .dwattr $C$DW$257, DW_AT_TI_begin_file("../driverlib/timer.c")
    4826                            .dwattr $C$DW$257, DW_AT_TI_begin_line(0x6f4)
    4827                            .dwattr $C$DW$257, DW_AT_TI_begin_column(0x01)
    4828                            .dwattr $C$DW$257, DW_AT_decl_file("../driverlib/timer.c")
    4829                            .dwattr $C$DW$257, DW_AT_decl_line(0x6f4)
    4830                            .dwattr $C$DW$257, DW_AT_decl_column(0x01)
    4831                            .dwattr $C$DW$257, DW_AT_TI_max_frame_size(0x08)
    4832                            .dwpsn  file "../driverlib/timer.c",line 1781,column 1,is_stmt,address TimerDMAEventSet,isa 1
    4833                    
    4834                            .dwfde $C$DW$CIE, TimerDMAEventSet
    4835                    $C$DW$258       .dwtag  DW_TAG_formal_parameter
TI ARM Assembler Unix v18.1.1 Fri Jul  3 20:08:26 2020

Tools Copyright (c) 1996-2017 Texas Instruments Incorporated
timer.asm                                                            PAGE   89

    4836                            .dwattr $C$DW$258, DW_AT_name("ui32Base")
    4837                            .dwattr $C$DW$258, DW_AT_TI_symbol_name("ui32Base")
    4838                            .dwattr $C$DW$258, DW_AT_type(*$C$DW$T$27)
    4839                            .dwattr $C$DW$258, DW_AT_location[DW_OP_reg0]
    4840                    
    4841                    $C$DW$259       .dwtag  DW_TAG_formal_parameter
    4842                            .dwattr $C$DW$259, DW_AT_name("ui32DMAEvent")
    4843                            .dwattr $C$DW$259, DW_AT_TI_symbol_name("ui32DMAEvent")
    4844                            .dwattr $C$DW$259, DW_AT_type(*$C$DW$T$27)
    4845                            .dwattr $C$DW$259, DW_AT_location[DW_OP_reg1]
    4846                    
    4847                    ;----------------------------------------------------------------------
    4848                    ; 1780 | TimerDMAEventSet(uint32_t ui32Base, uint32_t ui32DMAEvent)             
    4849                    ;----------------------------------------------------------------------
    4850                    
    4851                    ;*****************************************************************************
    4852                    ;* FUNCTION NAME: TimerDMAEventSet                                           *
    4853                    ;*                                                                           *
    4854                    ;*   Regs Modified     : A1,A2,SP                                            *
    4855                    ;*   Regs Used         : A1,A2,SP,LR                                         *
    4856                    ;*   Local Frame Size  : 0 Args + 8 Auto + 0 Save = 8 byte                   *
    4857                    ;*****************************************************************************
    4858 000005ce           TimerDMAEventSet:
    4859                    ;* --------------------------------------------------------------------------*
    4860                            .dwcfi  cfa_offset, 0
    4861 000005ce 0D08F1AD          SUB       SP, SP, #8            ; [DPU_V7M3_PIPE]  ; [KEEP 32-BIT INS]
    4862                            .dwcfi  cfa_offset, 8
    4863                    $C$DW$260       .dwtag  DW_TAG_variable
    4864                            .dwattr $C$DW$260, DW_AT_name("ui32Base")
    4865                            .dwattr $C$DW$260, DW_AT_TI_symbol_name("ui32Base")
    4866                            .dwattr $C$DW$260, DW_AT_type(*$C$DW$T$27)
    4867                            .dwattr $C$DW$260, DW_AT_location[DW_OP_breg13 0]
    4868                    
    4869                    $C$DW$261       .dwtag  DW_TAG_variable
    4870                            .dwattr $C$DW$261, DW_AT_name("ui32DMAEvent")
    4871                            .dwattr $C$DW$261, DW_AT_TI_symbol_name("ui32DMAEvent")
    4872                            .dwattr $C$DW$261, DW_AT_type(*$C$DW$T$27)
    4873                            .dwattr $C$DW$261, DW_AT_location[DW_OP_breg13 4]
    4874                    
    4875                    ;----------------------------------------------------------------------
    4876                    ; 1782 | //                                                                     
    4877                    ; 1783 | // Check the arguments.                                                
    4878                    ; 1784 | //                                                                     
    4879                    ; 1785 | ASSERT(_TimerBaseValid(ui32Base));                                     
    4880                    ; 1787 | //                                                                     
    4881                    ; 1788 | // Set the uDMA triggers.                                              
    4882                    ; 1789 | //                                                                     
    4883                    ;----------------------------------------------------------------------
    4884 000005d2 9101              STR       A2, [SP, #4]          ; [DPU_V7M3_PIPE] |1781|  ; [ORIG 16-BIT INS]
    4885 000005d4 9000              STR       A1, [SP, #0]          ; [DPU_V7M3_PIPE] |1781|  ; [ORIG 16-BIT INS]
    4886                            .dwpsn  file "../driverlib/timer.c",line 1790,column 5,is_stmt,isa 1
    4887                    ;----------------------------------------------------------------------
    4888                    ; 1790 | HWREG(ui32Base + TIMER_O_DMAEV) = ui32DMAEvent;                        
    4889                    ;----------------------------------------------------------------------
    4890 000005d6 9801              LDR       A1, [SP, #4]          ; [DPU_V7M3_PIPE] |1790|  ; [ORIG 16-BIT INS]
TI ARM Assembler Unix v18.1.1 Fri Jul  3 20:08:26 2020

Tools Copyright (c) 1996-2017 Texas Instruments Incorporated
timer.asm                                                            PAGE   90

    4891 000005d8 9900              LDR       A2, [SP, #0]          ; [DPU_V7M3_PIPE] |1790|  ; [ORIG 16-BIT INS]
    4892 000005da 66C8              STR       A1, [A2, #108]        ; [DPU_V7M3_PIPE] |1790|  ; [ORIG 16-BIT INS]
    4893                            .dwpsn  file "../driverlib/timer.c",line 1791,column 1,is_stmt,isa 1
    4894 000005dc B002              ADD       SP, SP, #8            ; [DPU_V7M3_PIPE]  ; [ORIG 16-BIT INS]
    4895                            .dwcfi  cfa_offset, 0
    4896                    $C$DW$262       .dwtag  DW_TAG_TI_branch
    4897                            .dwattr $C$DW$262, DW_AT_low_pc(0x00)
    4898                            .dwattr $C$DW$262, DW_AT_TI_return
    4899                    
    4900 000005de 4770              BX        LR                    ; [DPU_V7M3_PIPE]  ; [ORIG 16-BIT INS]
    4901                            ; BRANCH OCCURS                  ; [] 
    4902                            .dwattr $C$DW$257, DW_AT_TI_end_file("../driverlib/timer.c")
    4903                            .dwattr $C$DW$257, DW_AT_TI_end_line(0x6ff)
    4904                            .dwattr $C$DW$257, DW_AT_TI_end_column(0x01)
    4905                            .dwendentry
    4906                            .dwendtag $C$DW$257
    4907                    
    4908 000005e0                   .sect   ".text"
    4909                            .clink
    4910                            .thumbfunc TimerDMAEventGet
    4911 000005e0                   .thumb
    4912                            .global TimerDMAEventGet
    4913                    
    4914                    $C$DW$263       .dwtag  DW_TAG_subprogram
    4915                            .dwattr $C$DW$263, DW_AT_name("TimerDMAEventGet")
    4916                            .dwattr $C$DW$263, DW_AT_low_pc(TimerDMAEventGet)
    4917                            .dwattr $C$DW$263, DW_AT_high_pc(0x00)
    4918                            .dwattr $C$DW$263, DW_AT_TI_symbol_name("TimerDMAEventGet")
    4919                            .dwattr $C$DW$263, DW_AT_external
    4920                            .dwattr $C$DW$263, DW_AT_type(*$C$DW$T$27)
    4921                            .dwattr $C$DW$263, DW_AT_TI_begin_file("../driverlib/timer.c")
    4922                            .dwattr $C$DW$263, DW_AT_TI_begin_line(0x723)
    4923                            .dwattr $C$DW$263, DW_AT_TI_begin_column(0x01)
    4924                            .dwattr $C$DW$263, DW_AT_decl_file("../driverlib/timer.c")
    4925                            .dwattr $C$DW$263, DW_AT_decl_line(0x723)
    4926                            .dwattr $C$DW$263, DW_AT_decl_column(0x01)
    4927                            .dwattr $C$DW$263, DW_AT_TI_max_frame_size(0x08)
    4928                            .dwpsn  file "../driverlib/timer.c",line 1828,column 1,is_stmt,address TimerDMAEventGet,isa 1
    4929                    
    4930                            .dwfde $C$DW$CIE, TimerDMAEventGet
    4931                    $C$DW$264       .dwtag  DW_TAG_formal_parameter
    4932                            .dwattr $C$DW$264, DW_AT_name("ui32Base")
    4933                            .dwattr $C$DW$264, DW_AT_TI_symbol_name("ui32Base")
    4934                            .dwattr $C$DW$264, DW_AT_type(*$C$DW$T$27)
    4935                            .dwattr $C$DW$264, DW_AT_location[DW_OP_reg0]
    4936                    
    4937                    ;----------------------------------------------------------------------
    4938                    ; 1827 | TimerDMAEventGet(uint32_t ui32Base)                                    
    4939                    ;----------------------------------------------------------------------
    4940                    
    4941                    ;*****************************************************************************
    4942                    ;* FUNCTION NAME: TimerDMAEventGet                                           *
    4943                    ;*                                                                           *
    4944                    ;*   Regs Modified     : A1,SP                                               *
    4945                    ;*   Regs Used         : A1,SP,LR                                            *
TI ARM Assembler Unix v18.1.1 Fri Jul  3 20:08:26 2020

Tools Copyright (c) 1996-2017 Texas Instruments Incorporated
timer.asm                                                            PAGE   91

    4946                    ;*   Local Frame Size  : 0 Args + 4 Auto + 0 Save = 4 byte                   *
    4947                    ;*****************************************************************************
    4948 000005e0           TimerDMAEventGet:
    4949                    ;* --------------------------------------------------------------------------*
    4950                            .dwcfi  cfa_offset, 0
    4951 000005e0 0D08F1AD          SUB       SP, SP, #8            ; [DPU_V7M3_PIPE]  ; [KEEP 32-BIT INS]
    4952                            .dwcfi  cfa_offset, 8
    4953                    $C$DW$265       .dwtag  DW_TAG_variable
    4954                            .dwattr $C$DW$265, DW_AT_name("ui32Base")
    4955                            .dwattr $C$DW$265, DW_AT_TI_symbol_name("ui32Base")
    4956                            .dwattr $C$DW$265, DW_AT_type(*$C$DW$T$27)
    4957                            .dwattr $C$DW$265, DW_AT_location[DW_OP_breg13 0]
    4958                    
    4959                    ;----------------------------------------------------------------------
    4960                    ; 1829 | //                                                                     
    4961                    ; 1830 | // Check the arguments.                                                
    4962                    ; 1831 | //                                                                     
    4963                    ; 1832 | ASSERT(_TimerBaseValid(ui32Base));                                     
    4964                    ; 1834 | //                                                                     
    4965                    ; 1835 | // Return the current uDMA triggers.                                   
    4966                    ; 1836 | //                                                                     
    4967                    ;----------------------------------------------------------------------
    4968 000005e4 9000              STR       A1, [SP, #0]          ; [DPU_V7M3_PIPE] |1828|  ; [ORIG 16-BIT INS]
    4969                            .dwpsn  file "../driverlib/timer.c",line 1837,column 5,is_stmt,isa 1
    4970                    ;----------------------------------------------------------------------
    4971                    ; 1837 | return(HWREG(ui32Base + TIMER_O_DMAEV));                               
    4972                    ;----------------------------------------------------------------------
    4973 000005e6 9800              LDR       A1, [SP, #0]          ; [DPU_V7M3_PIPE] |1837|  ; [ORIG 16-BIT INS]
    4974 000005e8 6EC0              LDR       A1, [A1, #108]        ; [DPU_V7M3_PIPE] |1837|  ; [ORIG 16-BIT INS]
    4975                            .dwpsn  file "../driverlib/timer.c",line 1838,column 1,is_stmt,isa 1
    4976 000005ea B002              ADD       SP, SP, #8            ; [DPU_V7M3_PIPE]  ; [ORIG 16-BIT INS]
    4977                            .dwcfi  cfa_offset, 0
    4978                    $C$DW$266       .dwtag  DW_TAG_TI_branch
    4979                            .dwattr $C$DW$266, DW_AT_low_pc(0x00)
    4980                            .dwattr $C$DW$266, DW_AT_TI_return
    4981                    
    4982 000005ec 4770              BX        LR                    ; [DPU_V7M3_PIPE]  ; [ORIG 16-BIT INS]
    4983                            ; BRANCH OCCURS                  ; [] 
    4984                            .dwattr $C$DW$263, DW_AT_TI_end_file("../driverlib/timer.c")
    4985                            .dwattr $C$DW$263, DW_AT_TI_end_line(0x72e)
    4986                            .dwattr $C$DW$263, DW_AT_TI_end_column(0x01)
    4987                            .dwendentry
    4988                            .dwendtag $C$DW$263
    4989                    
    4990 000005ee                   .sect   ".text"
    4991                            .clink
    4992                            .thumbfunc TimerUpdateMode
    4993 000005ee                   .thumb
    4994                            .global TimerUpdateMode
    4995                    
    4996                    $C$DW$267       .dwtag  DW_TAG_subprogram
    4997                            .dwattr $C$DW$267, DW_AT_name("TimerUpdateMode")
    4998                            .dwattr $C$DW$267, DW_AT_low_pc(TimerUpdateMode)
    4999                            .dwattr $C$DW$267, DW_AT_high_pc(0x00)
    5000                            .dwattr $C$DW$267, DW_AT_TI_symbol_name("TimerUpdateMode")
TI ARM Assembler Unix v18.1.1 Fri Jul  3 20:08:26 2020

Tools Copyright (c) 1996-2017 Texas Instruments Incorporated
timer.asm                                                            PAGE   92

    5001                            .dwattr $C$DW$267, DW_AT_external
    5002                            .dwattr $C$DW$267, DW_AT_TI_begin_file("../driverlib/timer.c")
    5003                            .dwattr $C$DW$267, DW_AT_TI_begin_line(0x757)
    5004                            .dwattr $C$DW$267, DW_AT_TI_begin_column(0x01)
    5005                            .dwattr $C$DW$267, DW_AT_decl_file("../driverlib/timer.c")
    5006                            .dwattr $C$DW$267, DW_AT_decl_line(0x757)
    5007                            .dwattr $C$DW$267, DW_AT_decl_column(0x01)
    5008                            .dwattr $C$DW$267, DW_AT_TI_max_frame_size(0x10)
    5009                            .dwpsn  file "../driverlib/timer.c",line 1880,column 1,is_stmt,address TimerUpdateMode,isa 1
    5010                    
    5011                            .dwfde $C$DW$CIE, TimerUpdateMode
    5012                    $C$DW$268       .dwtag  DW_TAG_formal_parameter
    5013                            .dwattr $C$DW$268, DW_AT_name("ui32Base")
    5014                            .dwattr $C$DW$268, DW_AT_TI_symbol_name("ui32Base")
    5015                            .dwattr $C$DW$268, DW_AT_type(*$C$DW$T$27)
    5016                            .dwattr $C$DW$268, DW_AT_location[DW_OP_reg0]
    5017                    
    5018                    $C$DW$269       .dwtag  DW_TAG_formal_parameter
    5019                            .dwattr $C$DW$269, DW_AT_name("ui32Timer")
    5020                            .dwattr $C$DW$269, DW_AT_TI_symbol_name("ui32Timer")
    5021                            .dwattr $C$DW$269, DW_AT_type(*$C$DW$T$27)
    5022                            .dwattr $C$DW$269, DW_AT_location[DW_OP_reg1]
    5023                    
    5024                    $C$DW$270       .dwtag  DW_TAG_formal_parameter
    5025                            .dwattr $C$DW$270, DW_AT_name("ui32Config")
    5026                            .dwattr $C$DW$270, DW_AT_TI_symbol_name("ui32Config")
    5027                            .dwattr $C$DW$270, DW_AT_type(*$C$DW$T$27)
    5028                            .dwattr $C$DW$270, DW_AT_location[DW_OP_reg2]
    5029                    
    5030                    ;----------------------------------------------------------------------
    5031                    ; 1879 | TimerUpdateMode(uint32_t ui32Base, uint32_t ui32Timer, uint32_t ui32Con
    5032                    ;     | fig)                                                                   
    5033                    ;----------------------------------------------------------------------
    5034                    
    5035                    ;*****************************************************************************
    5036                    ;* FUNCTION NAME: TimerUpdateMode                                            *
    5037                    ;*                                                                           *
    5038                    ;*   Regs Modified     : A1,A2,SP,SR                                         *
    5039                    ;*   Regs Used         : A1,A2,A3,SP,LR,SR                                   *
    5040                    ;*   Local Frame Size  : 0 Args + 16 Auto + 0 Save = 16 byte                 *
    5041                    ;*****************************************************************************
    5042 000005ee           TimerUpdateMode:
    5043                    ;* --------------------------------------------------------------------------*
    5044                            .dwcfi  cfa_offset, 0
    5045 000005ee 0D10F1AD          SUB       SP, SP, #16           ; [DPU_V7M3_PIPE]  ; [KEEP 32-BIT INS]
    5046                            .dwcfi  cfa_offset, 16
    5047                    $C$DW$271       .dwtag  DW_TAG_variable
    5048                            .dwattr $C$DW$271, DW_AT_name("ui32Base")
    5049                            .dwattr $C$DW$271, DW_AT_TI_symbol_name("ui32Base")
    5050                            .dwattr $C$DW$271, DW_AT_type(*$C$DW$T$27)
    5051                            .dwattr $C$DW$271, DW_AT_location[DW_OP_breg13 0]
    5052                    
    5053                    $C$DW$272       .dwtag  DW_TAG_variable
    5054                            .dwattr $C$DW$272, DW_AT_name("ui32Timer")
    5055                            .dwattr $C$DW$272, DW_AT_TI_symbol_name("ui32Timer")
TI ARM Assembler Unix v18.1.1 Fri Jul  3 20:08:26 2020

Tools Copyright (c) 1996-2017 Texas Instruments Incorporated
timer.asm                                                            PAGE   93

    5056                            .dwattr $C$DW$272, DW_AT_type(*$C$DW$T$27)
    5057                            .dwattr $C$DW$272, DW_AT_location[DW_OP_breg13 4]
    5058                    
    5059                    $C$DW$273       .dwtag  DW_TAG_variable
    5060                            .dwattr $C$DW$273, DW_AT_name("ui32Config")
    5061                            .dwattr $C$DW$273, DW_AT_TI_symbol_name("ui32Config")
    5062                            .dwattr $C$DW$273, DW_AT_type(*$C$DW$T$27)
    5063                            .dwattr $C$DW$273, DW_AT_location[DW_OP_breg13 8]
    5064                    
    5065                    $C$DW$274       .dwtag  DW_TAG_variable
    5066                            .dwattr $C$DW$274, DW_AT_name("ui32Value")
    5067                            .dwattr $C$DW$274, DW_AT_TI_symbol_name("ui32Value")
    5068                            .dwattr $C$DW$274, DW_AT_type(*$C$DW$T$27)
    5069                            .dwattr $C$DW$274, DW_AT_location[DW_OP_breg13 12]
    5070                    
    5071                    ;----------------------------------------------------------------------
    5072                    ; 1881 | uint32_t ui32Value;                                                    
    5073                    ;----------------------------------------------------------------------
    5074 000005f2 9202              STR       A3, [SP, #8]          ; [DPU_V7M3_PIPE] |1880|  ; [ORIG 16-BIT INS]
    5075 000005f4 9101              STR       A2, [SP, #4]          ; [DPU_V7M3_PIPE] |1880|  ; [ORIG 16-BIT INS]
    5076 000005f6 9000              STR       A1, [SP, #0]          ; [DPU_V7M3_PIPE] |1880|  ; [ORIG 16-BIT INS]
    5077                            .dwpsn  file "../driverlib/timer.c",line 1883,column 5,is_stmt,isa 1
    5078                    ;----------------------------------------------------------------------
    5079                    ; 1883 | if((ui32Timer & TIMER_A) == TIMER_A)                                   
    5080                    ;----------------------------------------------------------------------
    5081 000005f8 9801              LDR       A1, [SP, #4]          ; [DPU_V7M3_PIPE] |1883|  ; [ORIG 16-BIT INS]
    5082 000005fa 00FFF000          AND       A1, A1, #255          ; [DPU_V7M3_PIPE] |1883|  ; [KEEP 32-BIT INS]
    5083 000005fe 28FF              CMP       A1, #255              ; [DPU_V7M3_PIPE] |1883|  ; [ORIG 16-BIT INS]
    5084 00000600 D10B              BNE       ||$C$L45||            ; [DPU_V7M3_PIPE] |1883|  ; [ORIG 16-BIT INS]
    5085                            ; BRANCHCC OCCURS {||$C$L45||}   ; [] |1883| 
    5086                    ;* --------------------------------------------------------------------------*
    5087                            .dwpsn  file "../driverlib/timer.c",line 1885,column 9,is_stmt,isa 1
    5088                    ;----------------------------------------------------------------------
    5089                    ; 1885 | ui32Value = HWREG(ui32Base + TIMER_O_TAMR) & ~(0x00000500);            
    5090                    ;----------------------------------------------------------------------
    5091 00000602 9800              LDR       A1, [SP, #0]          ; [DPU_V7M3_PIPE] |1885|  ; [ORIG 16-BIT INS]
    5092 00000604 6840              LDR       A1, [A1, #4]          ; [DPU_V7M3_PIPE] |1885|  ; [ORIG 16-BIT INS]
    5093 00000606 60A0F420          BIC       A1, A1, #1280         ; [DPU_V7M3_PIPE] |1885|  ; [KEEP 32-BIT INS]
    5094 0000060a 9003              STR       A1, [SP, #12]         ; [DPU_V7M3_PIPE] |1885|  ; [ORIG 16-BIT INS]
    5095                            .dwpsn  file "../driverlib/timer.c",line 1886,column 9,is_stmt,isa 1
    5096                    ;----------------------------------------------------------------------
    5097                    ; 1886 | ui32Value |= ui32Config;                                               
    5098                    ;----------------------------------------------------------------------
    5099 0000060c 9802              LDR       A1, [SP, #8]          ; [DPU_V7M3_PIPE] |1886|  ; [ORIG 16-BIT INS]
    5100 0000060e 9903              LDR       A2, [SP, #12]         ; [DPU_V7M3_PIPE] |1886|  ; [ORIG 16-BIT INS]
    5101 00000610 4308              ORRS      A1, A1, A2            ; [DPU_V7M3_PIPE] |1886|  ; [ORIG 16-BIT INS]
    5102 00000612 9003              STR       A1, [SP, #12]         ; [DPU_V7M3_PIPE] |1886|  ; [ORIG 16-BIT INS]
    5103                            .dwpsn  file "../driverlib/timer.c",line 1887,column 9,is_stmt,isa 1
    5104                    ;----------------------------------------------------------------------
    5105                    ; 1887 | HWREG(ui32Base + TIMER_O_TAMR) = ui32Value;                            
    5106                    ;----------------------------------------------------------------------
    5107 00000614 9900              LDR       A2, [SP, #0]          ; [DPU_V7M3_PIPE] |1887|  ; [ORIG 16-BIT INS]
    5108 00000616 9803              LDR       A1, [SP, #12]         ; [DPU_V7M3_PIPE] |1887|  ; [ORIG 16-BIT INS]
    5109 00000618 6048              STR       A1, [A2, #4]          ; [DPU_V7M3_PIPE] |1887|  ; [ORIG 16-BIT INS]
    5110                    ;* --------------------------------------------------------------------------*
TI ARM Assembler Unix v18.1.1 Fri Jul  3 20:08:26 2020

Tools Copyright (c) 1996-2017 Texas Instruments Incorporated
timer.asm                                                            PAGE   94

    5111 0000061a           ||$C$L45||:    
    5112                            .dwpsn  file "../driverlib/timer.c",line 1890,column 5,is_stmt,isa 1
    5113                    ;----------------------------------------------------------------------
    5114                    ; 1890 | if((ui32Timer & TIMER_B) == TIMER_B)                                   
    5115                    ;----------------------------------------------------------------------
    5116 0000061a 9801              LDR       A1, [SP, #4]          ; [DPU_V7M3_PIPE] |1890|  ; [ORIG 16-BIT INS]
    5117 0000061c 407FF400          AND       A1, A1, #65280        ; [DPU_V7M3_PIPE] |1890|  ; [KEEP 32-BIT INS]
    5118 00000620 4F7FF5B0          CMP       A1, #65280            ; [DPU_V7M3_PIPE] |1890|  ; [KEEP 32-BIT INS]
    5119 00000624 D10B              BNE       ||$C$L46||            ; [DPU_V7M3_PIPE] |1890|  ; [ORIG 16-BIT INS]
    5120                            ; BRANCHCC OCCURS {||$C$L46||}   ; [] |1890| 
    5121                    ;* --------------------------------------------------------------------------*
    5122                            .dwpsn  file "../driverlib/timer.c",line 1892,column 9,is_stmt,isa 1
    5123                    ;----------------------------------------------------------------------
    5124                    ; 1892 | ui32Value = HWREG(ui32Base + TIMER_O_TBMR) & ~(0x00000500);            
    5125                    ;----------------------------------------------------------------------
    5126 00000626 9800              LDR       A1, [SP, #0]          ; [DPU_V7M3_PIPE] |1892|  ; [ORIG 16-BIT INS]
    5127 00000628 6880              LDR       A1, [A1, #8]          ; [DPU_V7M3_PIPE] |1892|  ; [ORIG 16-BIT INS]
    5128 0000062a 60A0F420          BIC       A1, A1, #1280         ; [DPU_V7M3_PIPE] |1892|  ; [KEEP 32-BIT INS]
    5129 0000062e 9003              STR       A1, [SP, #12]         ; [DPU_V7M3_PIPE] |1892|  ; [ORIG 16-BIT INS]
    5130                            .dwpsn  file "../driverlib/timer.c",line 1893,column 9,is_stmt,isa 1
    5131                    ;----------------------------------------------------------------------
    5132                    ; 1893 | ui32Value |= ui32Config;                                               
    5133                    ;----------------------------------------------------------------------
    5134 00000630 9802              LDR       A1, [SP, #8]          ; [DPU_V7M3_PIPE] |1893|  ; [ORIG 16-BIT INS]
    5135 00000632 9903              LDR       A2, [SP, #12]         ; [DPU_V7M3_PIPE] |1893|  ; [ORIG 16-BIT INS]
    5136 00000634 4308              ORRS      A1, A1, A2            ; [DPU_V7M3_PIPE] |1893|  ; [ORIG 16-BIT INS]
    5137 00000636 9003              STR       A1, [SP, #12]         ; [DPU_V7M3_PIPE] |1893|  ; [ORIG 16-BIT INS]
    5138                            .dwpsn  file "../driverlib/timer.c",line 1894,column 9,is_stmt,isa 1
    5139                    ;----------------------------------------------------------------------
    5140                    ; 1894 | HWREG(ui32Base + TIMER_O_TBMR) = ui32Value;                            
    5141                    ;----------------------------------------------------------------------
    5142 00000638 9900              LDR       A2, [SP, #0]          ; [DPU_V7M3_PIPE] |1894|  ; [ORIG 16-BIT INS]
    5143 0000063a 9803              LDR       A1, [SP, #12]         ; [DPU_V7M3_PIPE] |1894|  ; [ORIG 16-BIT INS]
    5144 0000063c 6088              STR       A1, [A2, #8]          ; [DPU_V7M3_PIPE] |1894|  ; [ORIG 16-BIT INS]
    5145                            .dwpsn  file "../driverlib/timer.c",line 1896,column 1,is_stmt,isa 1
    5146                    ;* --------------------------------------------------------------------------*
    5147 0000063e           ||$C$L46||:    
    5148 0000063e B004              ADD       SP, SP, #16           ; [DPU_V7M3_PIPE]  ; [ORIG 16-BIT INS]
    5149                            .dwcfi  cfa_offset, 0
    5150                    $C$DW$275       .dwtag  DW_TAG_TI_branch
    5151                            .dwattr $C$DW$275, DW_AT_low_pc(0x00)
    5152                            .dwattr $C$DW$275, DW_AT_TI_return
    5153                    
    5154 00000640 4770              BX        LR                    ; [DPU_V7M3_PIPE]  ; [ORIG 16-BIT INS]
    5155                            ; BRANCH OCCURS                  ; [] 
    5156                            .dwattr $C$DW$267, DW_AT_TI_end_file("../driverlib/timer.c")
    5157                            .dwattr $C$DW$267, DW_AT_TI_end_line(0x768)
    5158                            .dwattr $C$DW$267, DW_AT_TI_end_column(0x01)
    5159                            .dwendentry
    5160                            .dwendtag $C$DW$267
    5161                    
    5162                    ;*****************************************************************************
    5163                    ;* UNDEFINED EXTERNAL REFERENCES                                             *
    5164                    ;*****************************************************************************
    5165                            .global IntRegister
TI ARM Assembler Unix v18.1.1 Fri Jul  3 20:08:26 2020

Tools Copyright (c) 1996-2017 Texas Instruments Incorporated
timer.asm                                                            PAGE   95

    5166                            .global IntEnable
    5167                            .global IntDisable
    5168                            .global IntUnregister
    5169                    
    5170                    ;******************************************************************************
    5171                    ;* BUILD ATTRIBUTES                                                           *
    5172                    ;******************************************************************************
    5173                            .battr "aeabi", Tag_File, 1, Tag_ABI_PCS_wchar_t(2)
    5174                            .battr "aeabi", Tag_File, 1, Tag_ABI_FP_rounding(0)
    5175                            .battr "aeabi", Tag_File, 1, Tag_ABI_FP_denormal(0)
    5176                            .battr "aeabi", Tag_File, 1, Tag_ABI_FP_exceptions(0)
    5177                            .battr "aeabi", Tag_File, 1, Tag_ABI_FP_number_model(1)
    5178                            .battr "aeabi", Tag_File, 1, Tag_ABI_enum_size(0)
    5179                            .battr "aeabi", Tag_File, 1, Tag_ABI_optimization_goals(5)
    5180                            .battr "aeabi", Tag_File, 1, Tag_ABI_FP_optimization_goals(0)
    5181                            .battr "TI", Tag_File, 1, Tag_Bitfield_layout(2)
    5182                            .battr "aeabi", Tag_File, 1, Tag_ABI_VFP_args(3)
    5183                            .battr "TI", Tag_File, 1, Tag_FP_interface(1)
    5184                    
    5185                    ;******************************************************************************
    5186                    ;* TYPE INFORMATION                                                           *
    5187                    ;******************************************************************************
    5188                    
    5189                    $C$DW$T$21      .dwtag  DW_TAG_structure_type
    5190                            .dwattr $C$DW$T$21, DW_AT_byte_size(0x10)
    5191                    $C$DW$276       .dwtag  DW_TAG_member
    5192                            .dwattr $C$DW$276, DW_AT_type(*$C$DW$T$14)
    5193                            .dwattr $C$DW$276, DW_AT_name("__max_align1")
    5194                            .dwattr $C$DW$276, DW_AT_TI_symbol_name("__max_align1")
    5195                            .dwattr $C$DW$276, DW_AT_data_member_location[DW_OP_plus_uconst 0x0]
    5196                            .dwattr $C$DW$276, DW_AT_accessibility(DW_ACCESS_public)
    5197                            .dwattr $C$DW$276, DW_AT_decl_file("/home/pola/ti/ccsv8/tools/compiler/ti-cgt-arm_18.1.1.LTS/i
    5198                            .dwattr $C$DW$276, DW_AT_decl_line(0x70)
    5199                            .dwattr $C$DW$276, DW_AT_decl_column(0x0c)
    5200                    
    5201                    $C$DW$277       .dwtag  DW_TAG_member
    5202                            .dwattr $C$DW$277, DW_AT_type(*$C$DW$T$18)
    5203                            .dwattr $C$DW$277, DW_AT_name("__max_align2")
    5204                            .dwattr $C$DW$277, DW_AT_TI_symbol_name("__max_align2")
    5205                            .dwattr $C$DW$277, DW_AT_data_member_location[DW_OP_plus_uconst 0x8]
    5206                            .dwattr $C$DW$277, DW_AT_accessibility(DW_ACCESS_public)
    5207                            .dwattr $C$DW$277, DW_AT_decl_file("/home/pola/ti/ccsv8/tools/compiler/ti-cgt-arm_18.1.1.LTS/i
    5208                            .dwattr $C$DW$277, DW_AT_decl_line(0x71)
    5209                            .dwattr $C$DW$277, DW_AT_decl_column(0x0e)
    5210                    
    5211                            .dwattr $C$DW$T$21, DW_AT_decl_file("/home/pola/ti/ccsv8/tools/compiler/ti-cgt-arm_18.1.1.LTS/
    5212                            .dwattr $C$DW$T$21, DW_AT_decl_line(0x6f)
    5213                            .dwattr $C$DW$T$21, DW_AT_decl_column(0x10)
    5214                            .dwendtag $C$DW$T$21
    5215                    
    5216                    $C$DW$T$23      .dwtag  DW_TAG_typedef
    5217                            .dwattr $C$DW$T$23, DW_AT_name("__max_align_t")
    5218                            .dwattr $C$DW$T$23, DW_AT_type(*$C$DW$T$21)
    5219                            .dwattr $C$DW$T$23, DW_AT_language(DW_LANG_C)
    5220                            .dwattr $C$DW$T$23, DW_AT_decl_file("/home/pola/ti/ccsv8/tools/compiler/ti-cgt-arm_18.1.1.LTS/
TI ARM Assembler Unix v18.1.1 Fri Jul  3 20:08:26 2020

Tools Copyright (c) 1996-2017 Texas Instruments Incorporated
timer.asm                                                            PAGE   96

    5221                            .dwattr $C$DW$T$23, DW_AT_decl_line(0x72)
    5222                            .dwattr $C$DW$T$23, DW_AT_decl_column(0x03)
    5223                    
    5224                    $C$DW$T$2       .dwtag  DW_TAG_unspecified_type
    5225                            .dwattr $C$DW$T$2, DW_AT_name("void")
    5226                    
    5227                    $C$DW$T$3       .dwtag  DW_TAG_pointer_type
    5228                            .dwattr $C$DW$T$3, DW_AT_type(*$C$DW$T$2)
    5229                            .dwattr $C$DW$T$3, DW_AT_address_class(0x20)
    5230                    
    5231                    
    5232                    $C$DW$T$24      .dwtag  DW_TAG_subroutine_type
    5233                            .dwattr $C$DW$T$24, DW_AT_language(DW_LANG_C)
    5234                            .dwendtag $C$DW$T$24
    5235                    
    5236                    $C$DW$T$25      .dwtag  DW_TAG_pointer_type
    5237                            .dwattr $C$DW$T$25, DW_AT_type(*$C$DW$T$24)
    5238                            .dwattr $C$DW$T$25, DW_AT_address_class(0x20)
    5239                    
    5240                    $C$DW$T$4       .dwtag  DW_TAG_base_type
    5241                            .dwattr $C$DW$T$4, DW_AT_encoding(DW_ATE_boolean)
    5242                            .dwattr $C$DW$T$4, DW_AT_name("bool")
    5243                            .dwattr $C$DW$T$4, DW_AT_byte_size(0x01)
    5244                    
    5245                    $C$DW$T$5       .dwtag  DW_TAG_base_type
    5246                            .dwattr $C$DW$T$5, DW_AT_encoding(DW_ATE_signed_char)
    5247                            .dwattr $C$DW$T$5, DW_AT_name("signed char")
    5248                            .dwattr $C$DW$T$5, DW_AT_byte_size(0x01)
    5249                    
    5250                    $C$DW$T$40      .dwtag  DW_TAG_typedef
    5251                            .dwattr $C$DW$T$40, DW_AT_name("__int8_t")
    5252                            .dwattr $C$DW$T$40, DW_AT_type(*$C$DW$T$5)
    5253                            .dwattr $C$DW$T$40, DW_AT_language(DW_LANG_C)
    5254                            .dwattr $C$DW$T$40, DW_AT_decl_file("/home/pola/ti/ccsv8/tools/compiler/ti-cgt-arm_18.1.1.LTS/
    5255                            .dwattr $C$DW$T$40, DW_AT_decl_line(0x39)
    5256                            .dwattr $C$DW$T$40, DW_AT_decl_column(0x16)
    5257                    
    5258                    $C$DW$T$41      .dwtag  DW_TAG_typedef
    5259                            .dwattr $C$DW$T$41, DW_AT_name("__int_least8_t")
    5260                            .dwattr $C$DW$T$41, DW_AT_type(*$C$DW$T$40)
    5261                            .dwattr $C$DW$T$41, DW_AT_language(DW_LANG_C)
    5262                            .dwattr $C$DW$T$41, DW_AT_decl_file("/home/pola/ti/ccsv8/tools/compiler/ti-cgt-arm_18.1.1.LTS/
    5263                            .dwattr $C$DW$T$41, DW_AT_decl_line(0x58)
    5264                            .dwattr $C$DW$T$41, DW_AT_decl_column(0x12)
    5265                    
    5266                    $C$DW$T$42      .dwtag  DW_TAG_typedef
    5267                            .dwattr $C$DW$T$42, DW_AT_name("int_least8_t")
    5268                            .dwattr $C$DW$T$42, DW_AT_type(*$C$DW$T$41)
    5269                            .dwattr $C$DW$T$42, DW_AT_language(DW_LANG_C)
    5270                            .dwattr $C$DW$T$42, DW_AT_decl_file("/home/pola/ti/ccsv8/tools/compiler/ti-cgt-arm_18.1.1.LTS/
    5271                            .dwattr $C$DW$T$42, DW_AT_decl_line(0x28)
    5272                            .dwattr $C$DW$T$42, DW_AT_decl_column(0x19)
    5273                    
    5274                    $C$DW$T$43      .dwtag  DW_TAG_typedef
    5275                            .dwattr $C$DW$T$43, DW_AT_name("int8_t")
TI ARM Assembler Unix v18.1.1 Fri Jul  3 20:08:26 2020

Tools Copyright (c) 1996-2017 Texas Instruments Incorporated
timer.asm                                                            PAGE   97

    5276                            .dwattr $C$DW$T$43, DW_AT_type(*$C$DW$T$40)
    5277                            .dwattr $C$DW$T$43, DW_AT_language(DW_LANG_C)
    5278                            .dwattr $C$DW$T$43, DW_AT_decl_file("/home/pola/ti/ccsv8/tools/compiler/ti-cgt-arm_18.1.1.LTS/
    5279                            .dwattr $C$DW$T$43, DW_AT_decl_line(0x24)
    5280                            .dwattr $C$DW$T$43, DW_AT_decl_column(0x13)
    5281                    
    5282                    $C$DW$T$6       .dwtag  DW_TAG_base_type
    5283                            .dwattr $C$DW$T$6, DW_AT_encoding(DW_ATE_unsigned_char)
    5284                            .dwattr $C$DW$T$6, DW_AT_name("unsigned char")
    5285                            .dwattr $C$DW$T$6, DW_AT_byte_size(0x01)
    5286                    
    5287                    $C$DW$T$44      .dwtag  DW_TAG_typedef
    5288                            .dwattr $C$DW$T$44, DW_AT_name("__uint8_t")
    5289                            .dwattr $C$DW$T$44, DW_AT_type(*$C$DW$T$6)
    5290                            .dwattr $C$DW$T$44, DW_AT_language(DW_LANG_C)
    5291                            .dwattr $C$DW$T$44, DW_AT_decl_file("/home/pola/ti/ccsv8/tools/compiler/ti-cgt-arm_18.1.1.LTS/
    5292                            .dwattr $C$DW$T$44, DW_AT_decl_line(0x3a)
    5293                            .dwattr $C$DW$T$44, DW_AT_decl_column(0x18)
    5294                    
    5295                    $C$DW$T$45      .dwtag  DW_TAG_typedef
    5296                            .dwattr $C$DW$T$45, DW_AT_name("__sa_family_t")
    5297                            .dwattr $C$DW$T$45, DW_AT_type(*$C$DW$T$44)
    5298                            .dwattr $C$DW$T$45, DW_AT_language(DW_LANG_C)
    5299                            .dwattr $C$DW$T$45, DW_AT_decl_file("/home/pola/ti/ccsv8/tools/compiler/ti-cgt-arm_18.1.1.LTS/
    5300                            .dwattr $C$DW$T$45, DW_AT_decl_line(0x43)
    5301                            .dwattr $C$DW$T$45, DW_AT_decl_column(0x13)
    5302                    
    5303                    $C$DW$T$46      .dwtag  DW_TAG_typedef
    5304                            .dwattr $C$DW$T$46, DW_AT_name("__uint_least8_t")
    5305                            .dwattr $C$DW$T$46, DW_AT_type(*$C$DW$T$44)
    5306                            .dwattr $C$DW$T$46, DW_AT_language(DW_LANG_C)
    5307                            .dwattr $C$DW$T$46, DW_AT_decl_file("/home/pola/ti/ccsv8/tools/compiler/ti-cgt-arm_18.1.1.LTS/
    5308                            .dwattr $C$DW$T$46, DW_AT_decl_line(0x6d)
    5309                            .dwattr $C$DW$T$46, DW_AT_decl_column(0x13)
    5310                    
    5311                    $C$DW$T$47      .dwtag  DW_TAG_typedef
    5312                            .dwattr $C$DW$T$47, DW_AT_name("uint_least8_t")
    5313                            .dwattr $C$DW$T$47, DW_AT_type(*$C$DW$T$46)
    5314                            .dwattr $C$DW$T$47, DW_AT_language(DW_LANG_C)
    5315                            .dwattr $C$DW$T$47, DW_AT_decl_file("/home/pola/ti/ccsv8/tools/compiler/ti-cgt-arm_18.1.1.LTS/
    5316                            .dwattr $C$DW$T$47, DW_AT_decl_line(0x2d)
    5317                            .dwattr $C$DW$T$47, DW_AT_decl_column(0x1a)
    5318                    
    5319                    $C$DW$T$48      .dwtag  DW_TAG_typedef
    5320                            .dwattr $C$DW$T$48, DW_AT_name("uint8_t")
    5321                            .dwattr $C$DW$T$48, DW_AT_type(*$C$DW$T$44)
    5322                            .dwattr $C$DW$T$48, DW_AT_language(DW_LANG_C)
    5323                            .dwattr $C$DW$T$48, DW_AT_decl_file("/home/pola/ti/ccsv8/tools/compiler/ti-cgt-arm_18.1.1.LTS/
    5324                            .dwattr $C$DW$T$48, DW_AT_decl_line(0x38)
    5325                            .dwattr $C$DW$T$48, DW_AT_decl_column(0x14)
    5326                    
    5327                    $C$DW$T$7       .dwtag  DW_TAG_base_type
    5328                            .dwattr $C$DW$T$7, DW_AT_encoding(DW_ATE_signed_char)
    5329                            .dwattr $C$DW$T$7, DW_AT_name("wchar_t")
    5330                            .dwattr $C$DW$T$7, DW_AT_byte_size(0x02)
TI ARM Assembler Unix v18.1.1 Fri Jul  3 20:08:26 2020

Tools Copyright (c) 1996-2017 Texas Instruments Incorporated
timer.asm                                                            PAGE   98

    5331                    
    5332                    $C$DW$T$8       .dwtag  DW_TAG_base_type
    5333                            .dwattr $C$DW$T$8, DW_AT_encoding(DW_ATE_signed)
    5334                            .dwattr $C$DW$T$8, DW_AT_name("short")
    5335                            .dwattr $C$DW$T$8, DW_AT_byte_size(0x02)
    5336                    
    5337                    $C$DW$T$49      .dwtag  DW_TAG_typedef
    5338                            .dwattr $C$DW$T$49, DW_AT_name("__int16_t")
    5339                            .dwattr $C$DW$T$49, DW_AT_type(*$C$DW$T$8)
    5340                            .dwattr $C$DW$T$49, DW_AT_language(DW_LANG_C)
    5341                            .dwattr $C$DW$T$49, DW_AT_decl_file("/home/pola/ti/ccsv8/tools/compiler/ti-cgt-arm_18.1.1.LTS/
    5342                            .dwattr $C$DW$T$49, DW_AT_decl_line(0x3b)
    5343                            .dwattr $C$DW$T$49, DW_AT_decl_column(0x11)
    5344                    
    5345                    $C$DW$T$50      .dwtag  DW_TAG_typedef
    5346                            .dwattr $C$DW$T$50, DW_AT_name("__int_least16_t")
    5347                            .dwattr $C$DW$T$50, DW_AT_type(*$C$DW$T$49)
    5348                            .dwattr $C$DW$T$50, DW_AT_language(DW_LANG_C)
    5349                            .dwattr $C$DW$T$50, DW_AT_decl_file("/home/pola/ti/ccsv8/tools/compiler/ti-cgt-arm_18.1.1.LTS/
    5350                            .dwattr $C$DW$T$50, DW_AT_decl_line(0x59)
    5351                            .dwattr $C$DW$T$50, DW_AT_decl_column(0x13)
    5352                    
    5353                    $C$DW$T$51      .dwtag  DW_TAG_typedef
    5354                            .dwattr $C$DW$T$51, DW_AT_name("int_least16_t")
    5355                            .dwattr $C$DW$T$51, DW_AT_type(*$C$DW$T$50)
    5356                            .dwattr $C$DW$T$51, DW_AT_language(DW_LANG_C)
    5357                            .dwattr $C$DW$T$51, DW_AT_decl_file("/home/pola/ti/ccsv8/tools/compiler/ti-cgt-arm_18.1.1.LTS/
    5358                            .dwattr $C$DW$T$51, DW_AT_decl_line(0x29)
    5359                            .dwattr $C$DW$T$51, DW_AT_decl_column(0x1a)
    5360                    
    5361                    $C$DW$T$52      .dwtag  DW_TAG_typedef
    5362                            .dwattr $C$DW$T$52, DW_AT_name("int16_t")
    5363                            .dwattr $C$DW$T$52, DW_AT_type(*$C$DW$T$49)
    5364                            .dwattr $C$DW$T$52, DW_AT_language(DW_LANG_C)
    5365                            .dwattr $C$DW$T$52, DW_AT_decl_file("/home/pola/ti/ccsv8/tools/compiler/ti-cgt-arm_18.1.1.LTS/
    5366                            .dwattr $C$DW$T$52, DW_AT_decl_line(0x29)
    5367                            .dwattr $C$DW$T$52, DW_AT_decl_column(0x14)
    5368                    
    5369                    $C$DW$T$9       .dwtag  DW_TAG_base_type
    5370                            .dwattr $C$DW$T$9, DW_AT_encoding(DW_ATE_unsigned)
    5371                            .dwattr $C$DW$T$9, DW_AT_name("unsigned short")
    5372                            .dwattr $C$DW$T$9, DW_AT_byte_size(0x02)
    5373                    
    5374                    $C$DW$T$53      .dwtag  DW_TAG_typedef
    5375                            .dwattr $C$DW$T$53, DW_AT_name("___wchar_t")
    5376                            .dwattr $C$DW$T$53, DW_AT_type(*$C$DW$T$9)
    5377                            .dwattr $C$DW$T$53, DW_AT_language(DW_LANG_C)
    5378                            .dwattr $C$DW$T$53, DW_AT_decl_file("/home/pola/ti/ccsv8/tools/compiler/ti-cgt-arm_18.1.1.LTS/
    5379                            .dwattr $C$DW$T$53, DW_AT_decl_line(0x76)
    5380                            .dwattr $C$DW$T$53, DW_AT_decl_column(0x1a)
    5381                    
    5382                    $C$DW$T$54      .dwtag  DW_TAG_typedef
    5383                            .dwattr $C$DW$T$54, DW_AT_name("__uint16_t")
    5384                            .dwattr $C$DW$T$54, DW_AT_type(*$C$DW$T$9)
    5385                            .dwattr $C$DW$T$54, DW_AT_language(DW_LANG_C)
TI ARM Assembler Unix v18.1.1 Fri Jul  3 20:08:26 2020

Tools Copyright (c) 1996-2017 Texas Instruments Incorporated
timer.asm                                                            PAGE   99

    5386                            .dwattr $C$DW$T$54, DW_AT_decl_file("/home/pola/ti/ccsv8/tools/compiler/ti-cgt-arm_18.1.1.LTS/
    5387                            .dwattr $C$DW$T$54, DW_AT_decl_line(0x3c)
    5388                            .dwattr $C$DW$T$54, DW_AT_decl_column(0x19)
    5389                    
    5390                    $C$DW$T$55      .dwtag  DW_TAG_typedef
    5391                            .dwattr $C$DW$T$55, DW_AT_name("__mode_t")
    5392                            .dwattr $C$DW$T$55, DW_AT_type(*$C$DW$T$54)
    5393                            .dwattr $C$DW$T$55, DW_AT_language(DW_LANG_C)
    5394                            .dwattr $C$DW$T$55, DW_AT_decl_file("/home/pola/ti/ccsv8/tools/compiler/ti-cgt-arm_18.1.1.LTS/
    5395                            .dwattr $C$DW$T$55, DW_AT_decl_line(0x39)
    5396                            .dwattr $C$DW$T$55, DW_AT_decl_column(0x14)
    5397                    
    5398                    $C$DW$T$56      .dwtag  DW_TAG_typedef
    5399                            .dwattr $C$DW$T$56, DW_AT_name("__uint_least16_t")
    5400                            .dwattr $C$DW$T$56, DW_AT_type(*$C$DW$T$54)
    5401                            .dwattr $C$DW$T$56, DW_AT_language(DW_LANG_C)
    5402                            .dwattr $C$DW$T$56, DW_AT_decl_file("/home/pola/ti/ccsv8/tools/compiler/ti-cgt-arm_18.1.1.LTS/
    5403                            .dwattr $C$DW$T$56, DW_AT_decl_line(0x6e)
    5404                            .dwattr $C$DW$T$56, DW_AT_decl_column(0x14)
    5405                    
    5406                    $C$DW$T$57      .dwtag  DW_TAG_typedef
    5407                            .dwattr $C$DW$T$57, DW_AT_name("__char16_t")
    5408                            .dwattr $C$DW$T$57, DW_AT_type(*$C$DW$T$56)
    5409                            .dwattr $C$DW$T$57, DW_AT_language(DW_LANG_C)
    5410                            .dwattr $C$DW$T$57, DW_AT_decl_file("/home/pola/ti/ccsv8/tools/compiler/ti-cgt-arm_18.1.1.LTS/
    5411                            .dwattr $C$DW$T$57, DW_AT_decl_line(0x66)
    5412                            .dwattr $C$DW$T$57, DW_AT_decl_column(0x1a)
    5413                    
    5414                    $C$DW$T$58      .dwtag  DW_TAG_typedef
    5415                            .dwattr $C$DW$T$58, DW_AT_name("uint_least16_t")
    5416                            .dwattr $C$DW$T$58, DW_AT_type(*$C$DW$T$56)
    5417                            .dwattr $C$DW$T$58, DW_AT_language(DW_LANG_C)
    5418                            .dwattr $C$DW$T$58, DW_AT_decl_file("/home/pola/ti/ccsv8/tools/compiler/ti-cgt-arm_18.1.1.LTS/
    5419                            .dwattr $C$DW$T$58, DW_AT_decl_line(0x2e)
    5420                            .dwattr $C$DW$T$58, DW_AT_decl_column(0x1a)
    5421                    
    5422                    $C$DW$T$59      .dwtag  DW_TAG_typedef
    5423                            .dwattr $C$DW$T$59, DW_AT_name("uint16_t")
    5424                            .dwattr $C$DW$T$59, DW_AT_type(*$C$DW$T$54)
    5425                            .dwattr $C$DW$T$59, DW_AT_language(DW_LANG_C)
    5426                            .dwattr $C$DW$T$59, DW_AT_decl_file("/home/pola/ti/ccsv8/tools/compiler/ti-cgt-arm_18.1.1.LTS/
    5427                            .dwattr $C$DW$T$59, DW_AT_decl_line(0x3d)
    5428                            .dwattr $C$DW$T$59, DW_AT_decl_column(0x15)
    5429                    
    5430                    $C$DW$T$10      .dwtag  DW_TAG_base_type
    5431                            .dwattr $C$DW$T$10, DW_AT_encoding(DW_ATE_signed)
    5432                            .dwattr $C$DW$T$10, DW_AT_name("int")
    5433                            .dwattr $C$DW$T$10, DW_AT_byte_size(0x04)
    5434                    
    5435                    $C$DW$T$60      .dwtag  DW_TAG_typedef
    5436                            .dwattr $C$DW$T$60, DW_AT_name("_Mbstatet")
    5437                            .dwattr $C$DW$T$60, DW_AT_type(*$C$DW$T$10)
    5438                            .dwattr $C$DW$T$60, DW_AT_language(DW_LANG_C)
    5439                            .dwattr $C$DW$T$60, DW_AT_decl_file("/home/pola/ti/ccsv8/tools/compiler/ti-cgt-arm_18.1.1.LTS/
    5440                            .dwattr $C$DW$T$60, DW_AT_decl_line(0x84)
TI ARM Assembler Unix v18.1.1 Fri Jul  3 20:08:26 2020

Tools Copyright (c) 1996-2017 Texas Instruments Incorporated
timer.asm                                                            PAGE  100

    5441                            .dwattr $C$DW$T$60, DW_AT_decl_column(0x0d)
    5442                    
    5443                    $C$DW$T$61      .dwtag  DW_TAG_typedef
    5444                            .dwattr $C$DW$T$61, DW_AT_name("__mbstate_t")
    5445                            .dwattr $C$DW$T$61, DW_AT_type(*$C$DW$T$60)
    5446                            .dwattr $C$DW$T$61, DW_AT_language(DW_LANG_C)
    5447                            .dwattr $C$DW$T$61, DW_AT_decl_file("/home/pola/ti/ccsv8/tools/compiler/ti-cgt-arm_18.1.1.LTS/
    5448                            .dwattr $C$DW$T$61, DW_AT_decl_line(0x87)
    5449                            .dwattr $C$DW$T$61, DW_AT_decl_column(0x13)
    5450                    
    5451                    $C$DW$T$62      .dwtag  DW_TAG_typedef
    5452                            .dwattr $C$DW$T$62, DW_AT_name("__accmode_t")
    5453                            .dwattr $C$DW$T$62, DW_AT_type(*$C$DW$T$10)
    5454                            .dwattr $C$DW$T$62, DW_AT_language(DW_LANG_C)
    5455                            .dwattr $C$DW$T$62, DW_AT_decl_file("/home/pola/ti/ccsv8/tools/compiler/ti-cgt-arm_18.1.1.LTS/
    5456                            .dwattr $C$DW$T$62, DW_AT_decl_line(0x3a)
    5457                            .dwattr $C$DW$T$62, DW_AT_decl_column(0x0e)
    5458                    
    5459                    $C$DW$T$63      .dwtag  DW_TAG_typedef
    5460                            .dwattr $C$DW$T$63, DW_AT_name("__cpulevel_t")
    5461                            .dwattr $C$DW$T$63, DW_AT_type(*$C$DW$T$10)
    5462                            .dwattr $C$DW$T$63, DW_AT_language(DW_LANG_C)
    5463                            .dwattr $C$DW$T$63, DW_AT_decl_file("/home/pola/ti/ccsv8/tools/compiler/ti-cgt-arm_18.1.1.LTS/
    5464                            .dwattr $C$DW$T$63, DW_AT_decl_line(0x4b)
    5465                            .dwattr $C$DW$T$63, DW_AT_decl_column(0x0e)
    5466                    
    5467                    $C$DW$T$64      .dwtag  DW_TAG_typedef
    5468                            .dwattr $C$DW$T$64, DW_AT_name("__cpusetid_t")
    5469                            .dwattr $C$DW$T$64, DW_AT_type(*$C$DW$T$10)
    5470                            .dwattr $C$DW$T$64, DW_AT_language(DW_LANG_C)
    5471                            .dwattr $C$DW$T$64, DW_AT_decl_file("/home/pola/ti/ccsv8/tools/compiler/ti-cgt-arm_18.1.1.LTS/
    5472                            .dwattr $C$DW$T$64, DW_AT_decl_line(0x4c)
    5473                            .dwattr $C$DW$T$64, DW_AT_decl_column(0x0e)
    5474                    
    5475                    $C$DW$T$65      .dwtag  DW_TAG_typedef
    5476                            .dwattr $C$DW$T$65, DW_AT_name("__cpuwhich_t")
    5477                            .dwattr $C$DW$T$65, DW_AT_type(*$C$DW$T$10)
    5478                            .dwattr $C$DW$T$65, DW_AT_language(DW_LANG_C)
    5479                            .dwattr $C$DW$T$65, DW_AT_decl_file("/home/pola/ti/ccsv8/tools/compiler/ti-cgt-arm_18.1.1.LTS/
    5480                            .dwattr $C$DW$T$65, DW_AT_decl_line(0x4a)
    5481                            .dwattr $C$DW$T$65, DW_AT_decl_column(0x0e)
    5482                    
    5483                    $C$DW$T$66      .dwtag  DW_TAG_typedef
    5484                            .dwattr $C$DW$T$66, DW_AT_name("__ct_rune_t")
    5485                            .dwattr $C$DW$T$66, DW_AT_type(*$C$DW$T$10)
    5486                            .dwattr $C$DW$T$66, DW_AT_language(DW_LANG_C)
    5487                            .dwattr $C$DW$T$66, DW_AT_decl_file("/home/pola/ti/ccsv8/tools/compiler/ti-cgt-arm_18.1.1.LTS/
    5488                            .dwattr $C$DW$T$66, DW_AT_decl_line(0x60)
    5489                            .dwattr $C$DW$T$66, DW_AT_decl_column(0x0e)
    5490                    
    5491                    $C$DW$T$67      .dwtag  DW_TAG_typedef
    5492                            .dwattr $C$DW$T$67, DW_AT_name("__rune_t")
    5493                            .dwattr $C$DW$T$67, DW_AT_type(*$C$DW$T$66)
    5494                            .dwattr $C$DW$T$67, DW_AT_language(DW_LANG_C)
    5495                            .dwattr $C$DW$T$67, DW_AT_decl_file("/home/pola/ti/ccsv8/tools/compiler/ti-cgt-arm_18.1.1.LTS/
TI ARM Assembler Unix v18.1.1 Fri Jul  3 20:08:26 2020

Tools Copyright (c) 1996-2017 Texas Instruments Incorporated
timer.asm                                                            PAGE  101

    5496                            .dwattr $C$DW$T$67, DW_AT_decl_line(0x61)
    5497                            .dwattr $C$DW$T$67, DW_AT_decl_column(0x15)
    5498                    
    5499                    $C$DW$T$68      .dwtag  DW_TAG_typedef
    5500                            .dwattr $C$DW$T$68, DW_AT_name("__wint_t")
    5501                            .dwattr $C$DW$T$68, DW_AT_type(*$C$DW$T$66)
    5502                            .dwattr $C$DW$T$68, DW_AT_language(DW_LANG_C)
    5503                            .dwattr $C$DW$T$68, DW_AT_decl_file("/home/pola/ti/ccsv8/tools/compiler/ti-cgt-arm_18.1.1.LTS/
    5504                            .dwattr $C$DW$T$68, DW_AT_decl_line(0x62)
    5505                            .dwattr $C$DW$T$68, DW_AT_decl_column(0x15)
    5506                    
    5507                    $C$DW$T$69      .dwtag  DW_TAG_typedef
    5508                            .dwattr $C$DW$T$69, DW_AT_name("__int32_t")
    5509                            .dwattr $C$DW$T$69, DW_AT_type(*$C$DW$T$10)
    5510                            .dwattr $C$DW$T$69, DW_AT_language(DW_LANG_C)
    5511                            .dwattr $C$DW$T$69, DW_AT_decl_file("/home/pola/ti/ccsv8/tools/compiler/ti-cgt-arm_18.1.1.LTS/
    5512                            .dwattr $C$DW$T$69, DW_AT_decl_line(0x3d)
    5513                            .dwattr $C$DW$T$69, DW_AT_decl_column(0x0f)
    5514                    
    5515                    $C$DW$T$70      .dwtag  DW_TAG_typedef
    5516                            .dwattr $C$DW$T$70, DW_AT_name("__blksize_t")
    5517                            .dwattr $C$DW$T$70, DW_AT_type(*$C$DW$T$69)
    5518                            .dwattr $C$DW$T$70, DW_AT_language(DW_LANG_C)
    5519                            .dwattr $C$DW$T$70, DW_AT_decl_file("/home/pola/ti/ccsv8/tools/compiler/ti-cgt-arm_18.1.1.LTS/
    5520                            .dwattr $C$DW$T$70, DW_AT_decl_line(0x2e)
    5521                            .dwattr $C$DW$T$70, DW_AT_decl_column(0x13)
    5522                    
    5523                    $C$DW$T$71      .dwtag  DW_TAG_typedef
    5524                            .dwattr $C$DW$T$71, DW_AT_name("__clockid_t")
    5525                            .dwattr $C$DW$T$71, DW_AT_type(*$C$DW$T$69)
    5526                            .dwattr $C$DW$T$71, DW_AT_language(DW_LANG_C)
    5527                            .dwattr $C$DW$T$71, DW_AT_decl_file("/home/pola/ti/ccsv8/tools/compiler/ti-cgt-arm_18.1.1.LTS/
    5528                            .dwattr $C$DW$T$71, DW_AT_decl_line(0x30)
    5529                            .dwattr $C$DW$T$71, DW_AT_decl_column(0x13)
    5530                    
    5531                    $C$DW$T$72      .dwtag  DW_TAG_typedef
    5532                            .dwattr $C$DW$T$72, DW_AT_name("__critical_t")
    5533                            .dwattr $C$DW$T$72, DW_AT_type(*$C$DW$T$69)
    5534                            .dwattr $C$DW$T$72, DW_AT_language(DW_LANG_C)
    5535                            .dwattr $C$DW$T$72, DW_AT_decl_file("/home/pola/ti/ccsv8/tools/compiler/ti-cgt-arm_18.1.1.LTS/
    5536                            .dwattr $C$DW$T$72, DW_AT_decl_line(0x4e)
    5537                            .dwattr $C$DW$T$72, DW_AT_decl_column(0x13)
    5538                    
    5539                    $C$DW$T$73      .dwtag  DW_TAG_typedef
    5540                            .dwattr $C$DW$T$73, DW_AT_name("__int_fast16_t")
    5541                            .dwattr $C$DW$T$73, DW_AT_type(*$C$DW$T$69)
    5542                            .dwattr $C$DW$T$73, DW_AT_language(DW_LANG_C)
    5543                            .dwattr $C$DW$T$73, DW_AT_decl_file("/home/pola/ti/ccsv8/tools/compiler/ti-cgt-arm_18.1.1.LTS/
    5544                            .dwattr $C$DW$T$73, DW_AT_decl_line(0x55)
    5545                            .dwattr $C$DW$T$73, DW_AT_decl_column(0x13)
    5546                    
    5547                    $C$DW$T$74      .dwtag  DW_TAG_typedef
    5548                            .dwattr $C$DW$T$74, DW_AT_name("int_fast16_t")
    5549                            .dwattr $C$DW$T$74, DW_AT_type(*$C$DW$T$73)
    5550                            .dwattr $C$DW$T$74, DW_AT_language(DW_LANG_C)
TI ARM Assembler Unix v18.1.1 Fri Jul  3 20:08:26 2020

Tools Copyright (c) 1996-2017 Texas Instruments Incorporated
timer.asm                                                            PAGE  102

    5551                            .dwattr $C$DW$T$74, DW_AT_decl_file("/home/pola/ti/ccsv8/tools/compiler/ti-cgt-arm_18.1.1.LTS/
    5552                            .dwattr $C$DW$T$74, DW_AT_decl_line(0x33)
    5553                            .dwattr $C$DW$T$74, DW_AT_decl_column(0x19)
    5554                    
    5555                    $C$DW$T$75      .dwtag  DW_TAG_typedef
    5556                            .dwattr $C$DW$T$75, DW_AT_name("__int_fast32_t")
    5557                            .dwattr $C$DW$T$75, DW_AT_type(*$C$DW$T$69)
    5558                            .dwattr $C$DW$T$75, DW_AT_language(DW_LANG_C)
    5559                            .dwattr $C$DW$T$75, DW_AT_decl_file("/home/pola/ti/ccsv8/tools/compiler/ti-cgt-arm_18.1.1.LTS/
    5560                            .dwattr $C$DW$T$75, DW_AT_decl_line(0x56)
    5561                            .dwattr $C$DW$T$75, DW_AT_decl_column(0x13)
    5562                    
    5563                    $C$DW$T$76      .dwtag  DW_TAG_typedef
    5564                            .dwattr $C$DW$T$76, DW_AT_name("int_fast32_t")
    5565                            .dwattr $C$DW$T$76, DW_AT_type(*$C$DW$T$75)
    5566                            .dwattr $C$DW$T$76, DW_AT_language(DW_LANG_C)
    5567                            .dwattr $C$DW$T$76, DW_AT_decl_file("/home/pola/ti/ccsv8/tools/compiler/ti-cgt-arm_18.1.1.LTS/
    5568                            .dwattr $C$DW$T$76, DW_AT_decl_line(0x34)
    5569                            .dwattr $C$DW$T$76, DW_AT_decl_column(0x19)
    5570                    
    5571                    $C$DW$T$77      .dwtag  DW_TAG_typedef
    5572                            .dwattr $C$DW$T$77, DW_AT_name("__int_fast8_t")
    5573                            .dwattr $C$DW$T$77, DW_AT_type(*$C$DW$T$69)
    5574                            .dwattr $C$DW$T$77, DW_AT_language(DW_LANG_C)
    5575                            .dwattr $C$DW$T$77, DW_AT_decl_file("/home/pola/ti/ccsv8/tools/compiler/ti-cgt-arm_18.1.1.LTS/
    5576                            .dwattr $C$DW$T$77, DW_AT_decl_line(0x54)
    5577                            .dwattr $C$DW$T$77, DW_AT_decl_column(0x13)
    5578                    
    5579                    $C$DW$T$78      .dwtag  DW_TAG_typedef
    5580                            .dwattr $C$DW$T$78, DW_AT_name("int_fast8_t")
    5581                            .dwattr $C$DW$T$78, DW_AT_type(*$C$DW$T$77)
    5582                            .dwattr $C$DW$T$78, DW_AT_language(DW_LANG_C)
    5583                            .dwattr $C$DW$T$78, DW_AT_decl_file("/home/pola/ti/ccsv8/tools/compiler/ti-cgt-arm_18.1.1.LTS/
    5584                            .dwattr $C$DW$T$78, DW_AT_decl_line(0x32)
    5585                            .dwattr $C$DW$T$78, DW_AT_decl_column(0x18)
    5586                    
    5587                    $C$DW$T$79      .dwtag  DW_TAG_typedef
    5588                            .dwattr $C$DW$T$79, DW_AT_name("__int_least32_t")
    5589                            .dwattr $C$DW$T$79, DW_AT_type(*$C$DW$T$69)
    5590                            .dwattr $C$DW$T$79, DW_AT_language(DW_LANG_C)
    5591                            .dwattr $C$DW$T$79, DW_AT_decl_file("/home/pola/ti/ccsv8/tools/compiler/ti-cgt-arm_18.1.1.LTS/
    5592                            .dwattr $C$DW$T$79, DW_AT_decl_line(0x5a)
    5593                            .dwattr $C$DW$T$79, DW_AT_decl_column(0x13)
    5594                    
    5595                    $C$DW$T$80      .dwtag  DW_TAG_typedef
    5596                            .dwattr $C$DW$T$80, DW_AT_name("int_least32_t")
    5597                            .dwattr $C$DW$T$80, DW_AT_type(*$C$DW$T$79)
    5598                            .dwattr $C$DW$T$80, DW_AT_language(DW_LANG_C)
    5599                            .dwattr $C$DW$T$80, DW_AT_decl_file("/home/pola/ti/ccsv8/tools/compiler/ti-cgt-arm_18.1.1.LTS/
    5600                            .dwattr $C$DW$T$80, DW_AT_decl_line(0x2a)
    5601                            .dwattr $C$DW$T$80, DW_AT_decl_column(0x1a)
    5602                    
    5603                    $C$DW$T$81      .dwtag  DW_TAG_typedef
    5604                            .dwattr $C$DW$T$81, DW_AT_name("__intfptr_t")
    5605                            .dwattr $C$DW$T$81, DW_AT_type(*$C$DW$T$69)
TI ARM Assembler Unix v18.1.1 Fri Jul  3 20:08:26 2020

Tools Copyright (c) 1996-2017 Texas Instruments Incorporated
timer.asm                                                            PAGE  103

    5606                            .dwattr $C$DW$T$81, DW_AT_language(DW_LANG_C)
    5607                            .dwattr $C$DW$T$81, DW_AT_decl_file("/home/pola/ti/ccsv8/tools/compiler/ti-cgt-arm_18.1.1.LTS/
    5608                            .dwattr $C$DW$T$81, DW_AT_decl_line(0x51)
    5609                            .dwattr $C$DW$T$81, DW_AT_decl_column(0x13)
    5610                    
    5611                    $C$DW$T$82      .dwtag  DW_TAG_typedef
    5612                            .dwattr $C$DW$T$82, DW_AT_name("__intptr_t")
    5613                            .dwattr $C$DW$T$82, DW_AT_type(*$C$DW$T$69)
    5614                            .dwattr $C$DW$T$82, DW_AT_language(DW_LANG_C)
    5615                            .dwattr $C$DW$T$82, DW_AT_decl_file("/home/pola/ti/ccsv8/tools/compiler/ti-cgt-arm_18.1.1.LTS/
    5616                            .dwattr $C$DW$T$82, DW_AT_decl_line(0x53)
    5617                            .dwattr $C$DW$T$82, DW_AT_decl_column(0x13)
    5618                    
    5619                    $C$DW$T$83      .dwtag  DW_TAG_typedef
    5620                            .dwattr $C$DW$T$83, DW_AT_name("intptr_t")
    5621                            .dwattr $C$DW$T$83, DW_AT_type(*$C$DW$T$82)
    5622                            .dwattr $C$DW$T$83, DW_AT_language(DW_LANG_C)
    5623                            .dwattr $C$DW$T$83, DW_AT_decl_file("/home/pola/ti/ccsv8/tools/compiler/ti-cgt-arm_18.1.1.LTS/
    5624                            .dwattr $C$DW$T$83, DW_AT_decl_line(0x4c)
    5625                            .dwattr $C$DW$T$83, DW_AT_decl_column(0x15)
    5626                    
    5627                    $C$DW$T$84      .dwtag  DW_TAG_typedef
    5628                            .dwattr $C$DW$T$84, DW_AT_name("__lwpid_t")
    5629                            .dwattr $C$DW$T$84, DW_AT_type(*$C$DW$T$69)
    5630                            .dwattr $C$DW$T$84, DW_AT_language(DW_LANG_C)
    5631                            .dwattr $C$DW$T$84, DW_AT_decl_file("/home/pola/ti/ccsv8/tools/compiler/ti-cgt-arm_18.1.1.LTS/
    5632                            .dwattr $C$DW$T$84, DW_AT_decl_line(0x38)
    5633                            .dwattr $C$DW$T$84, DW_AT_decl_column(0x13)
    5634                    
    5635                    $C$DW$T$85      .dwtag  DW_TAG_typedef
    5636                            .dwattr $C$DW$T$85, DW_AT_name("__pid_t")
    5637                            .dwattr $C$DW$T$85, DW_AT_type(*$C$DW$T$69)
    5638                            .dwattr $C$DW$T$85, DW_AT_language(DW_LANG_C)
    5639                            .dwattr $C$DW$T$85, DW_AT_decl_file("/home/pola/ti/ccsv8/tools/compiler/ti-cgt-arm_18.1.1.LTS/
    5640                            .dwattr $C$DW$T$85, DW_AT_decl_line(0x3f)
    5641                            .dwattr $C$DW$T$85, DW_AT_decl_column(0x13)
    5642                    
    5643                    $C$DW$T$86      .dwtag  DW_TAG_typedef
    5644                            .dwattr $C$DW$T$86, DW_AT_name("__ptrdiff_t")
    5645                            .dwattr $C$DW$T$86, DW_AT_type(*$C$DW$T$69)
    5646                            .dwattr $C$DW$T$86, DW_AT_language(DW_LANG_C)
    5647                            .dwattr $C$DW$T$86, DW_AT_decl_file("/home/pola/ti/ccsv8/tools/compiler/ti-cgt-arm_18.1.1.LTS/
    5648                            .dwattr $C$DW$T$86, DW_AT_decl_line(0x5c)
    5649                            .dwattr $C$DW$T$86, DW_AT_decl_column(0x13)
    5650                    
    5651                    $C$DW$T$87      .dwtag  DW_TAG_typedef
    5652                            .dwattr $C$DW$T$87, DW_AT_name("__register_t")
    5653                            .dwattr $C$DW$T$87, DW_AT_type(*$C$DW$T$69)
    5654                            .dwattr $C$DW$T$87, DW_AT_language(DW_LANG_C)
    5655                            .dwattr $C$DW$T$87, DW_AT_decl_file("/home/pola/ti/ccsv8/tools/compiler/ti-cgt-arm_18.1.1.LTS/
    5656                            .dwattr $C$DW$T$87, DW_AT_decl_line(0x5d)
    5657                            .dwattr $C$DW$T$87, DW_AT_decl_column(0x13)
    5658                    
    5659                    $C$DW$T$88      .dwtag  DW_TAG_typedef
    5660                            .dwattr $C$DW$T$88, DW_AT_name("__segsz_t")
TI ARM Assembler Unix v18.1.1 Fri Jul  3 20:08:26 2020

Tools Copyright (c) 1996-2017 Texas Instruments Incorporated
timer.asm                                                            PAGE  104

    5661                            .dwattr $C$DW$T$88, DW_AT_type(*$C$DW$T$69)
    5662                            .dwattr $C$DW$T$88, DW_AT_language(DW_LANG_C)
    5663                            .dwattr $C$DW$T$88, DW_AT_decl_file("/home/pola/ti/ccsv8/tools/compiler/ti-cgt-arm_18.1.1.LTS/
    5664                            .dwattr $C$DW$T$88, DW_AT_decl_line(0x5e)
    5665                            .dwattr $C$DW$T$88, DW_AT_decl_column(0x13)
    5666                    
    5667                    $C$DW$T$89      .dwtag  DW_TAG_typedef
    5668                            .dwattr $C$DW$T$89, DW_AT_name("__ssize_t")
    5669                            .dwattr $C$DW$T$89, DW_AT_type(*$C$DW$T$69)
    5670                            .dwattr $C$DW$T$89, DW_AT_language(DW_LANG_C)
    5671                            .dwattr $C$DW$T$89, DW_AT_decl_file("/home/pola/ti/ccsv8/tools/compiler/ti-cgt-arm_18.1.1.LTS/
    5672                            .dwattr $C$DW$T$89, DW_AT_decl_line(0x60)
    5673                            .dwattr $C$DW$T$89, DW_AT_decl_column(0x13)
    5674                    
    5675                    $C$DW$T$90      .dwtag  DW_TAG_typedef
    5676                            .dwattr $C$DW$T$90, DW_AT_name("int32_t")
    5677                            .dwattr $C$DW$T$90, DW_AT_type(*$C$DW$T$69)
    5678                            .dwattr $C$DW$T$90, DW_AT_language(DW_LANG_C)
    5679                            .dwattr $C$DW$T$90, DW_AT_decl_file("/home/pola/ti/ccsv8/tools/compiler/ti-cgt-arm_18.1.1.LTS/
    5680                            .dwattr $C$DW$T$90, DW_AT_decl_line(0x2e)
    5681                            .dwattr $C$DW$T$90, DW_AT_decl_column(0x14)
    5682                    
    5683                    $C$DW$T$91      .dwtag  DW_TAG_typedef
    5684                            .dwattr $C$DW$T$91, DW_AT_name("__nl_item")
    5685                            .dwattr $C$DW$T$91, DW_AT_type(*$C$DW$T$10)
    5686                            .dwattr $C$DW$T$91, DW_AT_language(DW_LANG_C)
    5687                            .dwattr $C$DW$T$91, DW_AT_decl_file("/home/pola/ti/ccsv8/tools/compiler/ti-cgt-arm_18.1.1.LTS/
    5688                            .dwattr $C$DW$T$91, DW_AT_decl_line(0x3b)
    5689                            .dwattr $C$DW$T$91, DW_AT_decl_column(0x0e)
    5690                    
    5691                    $C$DW$T$11      .dwtag  DW_TAG_base_type
    5692                            .dwattr $C$DW$T$11, DW_AT_encoding(DW_ATE_unsigned)
    5693                            .dwattr $C$DW$T$11, DW_AT_name("unsigned int")
    5694                            .dwattr $C$DW$T$11, DW_AT_byte_size(0x04)
    5695                    
    5696                    $C$DW$T$26      .dwtag  DW_TAG_typedef
    5697                            .dwattr $C$DW$T$26, DW_AT_name("__uint32_t")
    5698                            .dwattr $C$DW$T$26, DW_AT_type(*$C$DW$T$11)
    5699                            .dwattr $C$DW$T$26, DW_AT_language(DW_LANG_C)
    5700                            .dwattr $C$DW$T$26, DW_AT_decl_file("/home/pola/ti/ccsv8/tools/compiler/ti-cgt-arm_18.1.1.LTS/
    5701                            .dwattr $C$DW$T$26, DW_AT_decl_line(0x3e)
    5702                            .dwattr $C$DW$T$26, DW_AT_decl_column(0x17)
    5703                    
    5704                    $C$DW$T$92      .dwtag  DW_TAG_typedef
    5705                            .dwattr $C$DW$T$92, DW_AT_name("__clock_t")
    5706                            .dwattr $C$DW$T$92, DW_AT_type(*$C$DW$T$26)
    5707                            .dwattr $C$DW$T$92, DW_AT_language(DW_LANG_C)
    5708                            .dwattr $C$DW$T$92, DW_AT_decl_file("/home/pola/ti/ccsv8/tools/compiler/ti-cgt-arm_18.1.1.LTS/
    5709                            .dwattr $C$DW$T$92, DW_AT_decl_line(0x4d)
    5710                            .dwattr $C$DW$T$92, DW_AT_decl_column(0x14)
    5711                    
    5712                    $C$DW$T$93      .dwtag  DW_TAG_typedef
    5713                            .dwattr $C$DW$T$93, DW_AT_name("__fflags_t")
    5714                            .dwattr $C$DW$T$93, DW_AT_type(*$C$DW$T$26)
    5715                            .dwattr $C$DW$T$93, DW_AT_language(DW_LANG_C)
TI ARM Assembler Unix v18.1.1 Fri Jul  3 20:08:26 2020

Tools Copyright (c) 1996-2017 Texas Instruments Incorporated
timer.asm                                                            PAGE  105

    5716                            .dwattr $C$DW$T$93, DW_AT_decl_file("/home/pola/ti/ccsv8/tools/compiler/ti-cgt-arm_18.1.1.LTS/
    5717                            .dwattr $C$DW$T$93, DW_AT_decl_line(0x31)
    5718                            .dwattr $C$DW$T$93, DW_AT_decl_column(0x14)
    5719                    
    5720                    $C$DW$T$94      .dwtag  DW_TAG_typedef
    5721                            .dwattr $C$DW$T$94, DW_AT_name("__fixpt_t")
    5722                            .dwattr $C$DW$T$94, DW_AT_type(*$C$DW$T$26)
    5723                            .dwattr $C$DW$T$94, DW_AT_language(DW_LANG_C)
    5724                            .dwattr $C$DW$T$94, DW_AT_decl_file("/home/pola/ti/ccsv8/tools/compiler/ti-cgt-arm_18.1.1.LTS/
    5725                            .dwattr $C$DW$T$94, DW_AT_decl_line(0x76)
    5726                            .dwattr $C$DW$T$94, DW_AT_decl_column(0x14)
    5727                    
    5728                    $C$DW$T$95      .dwtag  DW_TAG_typedef
    5729                            .dwattr $C$DW$T$95, DW_AT_name("__gid_t")
    5730                            .dwattr $C$DW$T$95, DW_AT_type(*$C$DW$T$26)
    5731                            .dwattr $C$DW$T$95, DW_AT_language(DW_LANG_C)
    5732                            .dwattr $C$DW$T$95, DW_AT_decl_file("/home/pola/ti/ccsv8/tools/compiler/ti-cgt-arm_18.1.1.LTS/
    5733                            .dwattr $C$DW$T$95, DW_AT_decl_line(0x34)
    5734                            .dwattr $C$DW$T$95, DW_AT_decl_column(0x14)
    5735                    
    5736                    $C$DW$T$96      .dwtag  DW_TAG_typedef
    5737                            .dwattr $C$DW$T$96, DW_AT_name("__size_t")
    5738                            .dwattr $C$DW$T$96, DW_AT_type(*$C$DW$T$26)
    5739                            .dwattr $C$DW$T$96, DW_AT_language(DW_LANG_C)
    5740                            .dwattr $C$DW$T$96, DW_AT_decl_file("/home/pola/ti/ccsv8/tools/compiler/ti-cgt-arm_18.1.1.LTS/
    5741                            .dwattr $C$DW$T$96, DW_AT_decl_line(0x5f)
    5742                            .dwattr $C$DW$T$96, DW_AT_decl_column(0x14)
    5743                    
    5744                    $C$DW$T$97      .dwtag  DW_TAG_typedef
    5745                            .dwattr $C$DW$T$97, DW_AT_name("__socklen_t")
    5746                            .dwattr $C$DW$T$97, DW_AT_type(*$C$DW$T$26)
    5747                            .dwattr $C$DW$T$97, DW_AT_language(DW_LANG_C)
    5748                            .dwattr $C$DW$T$97, DW_AT_decl_file("/home/pola/ti/ccsv8/tools/compiler/ti-cgt-arm_18.1.1.LTS/
    5749                            .dwattr $C$DW$T$97, DW_AT_decl_line(0x44)
    5750                            .dwattr $C$DW$T$97, DW_AT_decl_column(0x14)
    5751                    
    5752                    $C$DW$T$98      .dwtag  DW_TAG_typedef
    5753                            .dwattr $C$DW$T$98, DW_AT_name("__time_t")
    5754                            .dwattr $C$DW$T$98, DW_AT_type(*$C$DW$T$26)
    5755                            .dwattr $C$DW$T$98, DW_AT_language(DW_LANG_C)
    5756                            .dwattr $C$DW$T$98, DW_AT_decl_file("/home/pola/ti/ccsv8/tools/compiler/ti-cgt-arm_18.1.1.LTS/
    5757                            .dwattr $C$DW$T$98, DW_AT_decl_line(0x64)
    5758                            .dwattr $C$DW$T$98, DW_AT_decl_column(0x19)
    5759                    
    5760                    $C$DW$T$99      .dwtag  DW_TAG_typedef
    5761                            .dwattr $C$DW$T$99, DW_AT_name("__u_register_t")
    5762                            .dwattr $C$DW$T$99, DW_AT_type(*$C$DW$T$26)
    5763                            .dwattr $C$DW$T$99, DW_AT_language(DW_LANG_C)
    5764                            .dwattr $C$DW$T$99, DW_AT_decl_file("/home/pola/ti/ccsv8/tools/compiler/ti-cgt-arm_18.1.1.LTS/
    5765                            .dwattr $C$DW$T$99, DW_AT_decl_line(0x71)
    5766                            .dwattr $C$DW$T$99, DW_AT_decl_column(0x14)
    5767                    
    5768                    $C$DW$T$100     .dwtag  DW_TAG_typedef
    5769                            .dwattr $C$DW$T$100, DW_AT_name("__uid_t")
    5770                            .dwattr $C$DW$T$100, DW_AT_type(*$C$DW$T$26)
TI ARM Assembler Unix v18.1.1 Fri Jul  3 20:08:26 2020

Tools Copyright (c) 1996-2017 Texas Instruments Incorporated
timer.asm                                                            PAGE  106

    5771                            .dwattr $C$DW$T$100, DW_AT_language(DW_LANG_C)
    5772                            .dwattr $C$DW$T$100, DW_AT_decl_file("/home/pola/ti/ccsv8/tools/compiler/ti-cgt-arm_18.1.1.LTS
    5773                            .dwattr $C$DW$T$100, DW_AT_decl_line(0x48)
    5774                            .dwattr $C$DW$T$100, DW_AT_decl_column(0x14)
    5775                    
    5776                    $C$DW$T$101     .dwtag  DW_TAG_typedef
    5777                            .dwattr $C$DW$T$101, DW_AT_name("__uint_fast16_t")
    5778                            .dwattr $C$DW$T$101, DW_AT_type(*$C$DW$T$26)
    5779                            .dwattr $C$DW$T$101, DW_AT_language(DW_LANG_C)
    5780                            .dwattr $C$DW$T$101, DW_AT_decl_file("/home/pola/ti/ccsv8/tools/compiler/ti-cgt-arm_18.1.1.LTS
    5781                            .dwattr $C$DW$T$101, DW_AT_decl_line(0x6a)
    5782                            .dwattr $C$DW$T$101, DW_AT_decl_column(0x14)
    5783                    
    5784                    $C$DW$T$102     .dwtag  DW_TAG_typedef
    5785                            .dwattr $C$DW$T$102, DW_AT_name("uint_fast16_t")
    5786                            .dwattr $C$DW$T$102, DW_AT_type(*$C$DW$T$101)
    5787                            .dwattr $C$DW$T$102, DW_AT_language(DW_LANG_C)
    5788                            .dwattr $C$DW$T$102, DW_AT_decl_file("/home/pola/ti/ccsv8/tools/compiler/ti-cgt-arm_18.1.1.LTS
    5789                            .dwattr $C$DW$T$102, DW_AT_decl_line(0x38)
    5790                            .dwattr $C$DW$T$102, DW_AT_decl_column(0x1a)
    5791                    
    5792                    $C$DW$T$103     .dwtag  DW_TAG_typedef
    5793                            .dwattr $C$DW$T$103, DW_AT_name("__uint_fast32_t")
    5794                            .dwattr $C$DW$T$103, DW_AT_type(*$C$DW$T$26)
    5795                            .dwattr $C$DW$T$103, DW_AT_language(DW_LANG_C)
    5796                            .dwattr $C$DW$T$103, DW_AT_decl_file("/home/pola/ti/ccsv8/tools/compiler/ti-cgt-arm_18.1.1.LTS
    5797                            .dwattr $C$DW$T$103, DW_AT_decl_line(0x6b)
    5798                            .dwattr $C$DW$T$103, DW_AT_decl_column(0x14)
    5799                    
    5800                    $C$DW$T$104     .dwtag  DW_TAG_typedef
    5801                            .dwattr $C$DW$T$104, DW_AT_name("uint_fast32_t")
    5802                            .dwattr $C$DW$T$104, DW_AT_type(*$C$DW$T$103)
    5803                            .dwattr $C$DW$T$104, DW_AT_language(DW_LANG_C)
    5804                            .dwattr $C$DW$T$104, DW_AT_decl_file("/home/pola/ti/ccsv8/tools/compiler/ti-cgt-arm_18.1.1.LTS
    5805                            .dwattr $C$DW$T$104, DW_AT_decl_line(0x39)
    5806                            .dwattr $C$DW$T$104, DW_AT_decl_column(0x1a)
    5807                    
    5808                    $C$DW$T$105     .dwtag  DW_TAG_typedef
    5809                            .dwattr $C$DW$T$105, DW_AT_name("__uint_fast8_t")
    5810                            .dwattr $C$DW$T$105, DW_AT_type(*$C$DW$T$26)
    5811                            .dwattr $C$DW$T$105, DW_AT_language(DW_LANG_C)
    5812                            .dwattr $C$DW$T$105, DW_AT_decl_file("/home/pola/ti/ccsv8/tools/compiler/ti-cgt-arm_18.1.1.LTS
    5813                            .dwattr $C$DW$T$105, DW_AT_decl_line(0x69)
    5814                            .dwattr $C$DW$T$105, DW_AT_decl_column(0x14)
    5815                    
    5816                    $C$DW$T$106     .dwtag  DW_TAG_typedef
    5817                            .dwattr $C$DW$T$106, DW_AT_name("uint_fast8_t")
    5818                            .dwattr $C$DW$T$106, DW_AT_type(*$C$DW$T$105)
    5819                            .dwattr $C$DW$T$106, DW_AT_language(DW_LANG_C)
    5820                            .dwattr $C$DW$T$106, DW_AT_decl_file("/home/pola/ti/ccsv8/tools/compiler/ti-cgt-arm_18.1.1.LTS
    5821                            .dwattr $C$DW$T$106, DW_AT_decl_line(0x37)
    5822                            .dwattr $C$DW$T$106, DW_AT_decl_column(0x19)
    5823                    
    5824                    $C$DW$T$107     .dwtag  DW_TAG_typedef
    5825                            .dwattr $C$DW$T$107, DW_AT_name("__uint_least32_t")
TI ARM Assembler Unix v18.1.1 Fri Jul  3 20:08:26 2020

Tools Copyright (c) 1996-2017 Texas Instruments Incorporated
timer.asm                                                            PAGE  107

    5826                            .dwattr $C$DW$T$107, DW_AT_type(*$C$DW$T$26)
    5827                            .dwattr $C$DW$T$107, DW_AT_language(DW_LANG_C)
    5828                            .dwattr $C$DW$T$107, DW_AT_decl_file("/home/pola/ti/ccsv8/tools/compiler/ti-cgt-arm_18.1.1.LTS
    5829                            .dwattr $C$DW$T$107, DW_AT_decl_line(0x6f)
    5830                            .dwattr $C$DW$T$107, DW_AT_decl_column(0x14)
    5831                    
    5832                    $C$DW$T$108     .dwtag  DW_TAG_typedef
    5833                            .dwattr $C$DW$T$108, DW_AT_name("__char32_t")
    5834                            .dwattr $C$DW$T$108, DW_AT_type(*$C$DW$T$107)
    5835                            .dwattr $C$DW$T$108, DW_AT_language(DW_LANG_C)
    5836                            .dwattr $C$DW$T$108, DW_AT_decl_file("/home/pola/ti/ccsv8/tools/compiler/ti-cgt-arm_18.1.1.LTS
    5837                            .dwattr $C$DW$T$108, DW_AT_decl_line(0x67)
    5838                            .dwattr $C$DW$T$108, DW_AT_decl_column(0x1a)
    5839                    
    5840                    $C$DW$T$109     .dwtag  DW_TAG_typedef
    5841                            .dwattr $C$DW$T$109, DW_AT_name("uint_least32_t")
    5842                            .dwattr $C$DW$T$109, DW_AT_type(*$C$DW$T$107)
    5843                            .dwattr $C$DW$T$109, DW_AT_language(DW_LANG_C)
    5844                            .dwattr $C$DW$T$109, DW_AT_decl_file("/home/pola/ti/ccsv8/tools/compiler/ti-cgt-arm_18.1.1.LTS
    5845                            .dwattr $C$DW$T$109, DW_AT_decl_line(0x2f)
    5846                            .dwattr $C$DW$T$109, DW_AT_decl_column(0x1a)
    5847                    
    5848                    $C$DW$T$110     .dwtag  DW_TAG_typedef
    5849                            .dwattr $C$DW$T$110, DW_AT_name("__uintfptr_t")
    5850                            .dwattr $C$DW$T$110, DW_AT_type(*$C$DW$T$26)
    5851                            .dwattr $C$DW$T$110, DW_AT_language(DW_LANG_C)
    5852                            .dwattr $C$DW$T$110, DW_AT_decl_file("/home/pola/ti/ccsv8/tools/compiler/ti-cgt-arm_18.1.1.LTS
    5853                            .dwattr $C$DW$T$110, DW_AT_decl_line(0x66)
    5854                            .dwattr $C$DW$T$110, DW_AT_decl_column(0x14)
    5855                    
    5856                    $C$DW$T$111     .dwtag  DW_TAG_typedef
    5857                            .dwattr $C$DW$T$111, DW_AT_name("__uintptr_t")
    5858                            .dwattr $C$DW$T$111, DW_AT_type(*$C$DW$T$26)
    5859                            .dwattr $C$DW$T$111, DW_AT_language(DW_LANG_C)
    5860                            .dwattr $C$DW$T$111, DW_AT_decl_file("/home/pola/ti/ccsv8/tools/compiler/ti-cgt-arm_18.1.1.LTS
    5861                            .dwattr $C$DW$T$111, DW_AT_decl_line(0x68)
    5862                            .dwattr $C$DW$T$111, DW_AT_decl_column(0x14)
    5863                    
    5864                    $C$DW$T$112     .dwtag  DW_TAG_typedef
    5865                            .dwattr $C$DW$T$112, DW_AT_name("uintptr_t")
    5866                            .dwattr $C$DW$T$112, DW_AT_type(*$C$DW$T$111)
    5867                            .dwattr $C$DW$T$112, DW_AT_language(DW_LANG_C)
    5868                            .dwattr $C$DW$T$112, DW_AT_decl_file("/home/pola/ti/ccsv8/tools/compiler/ti-cgt-arm_18.1.1.LTS
    5869                            .dwattr $C$DW$T$112, DW_AT_decl_line(0x50)
    5870                            .dwattr $C$DW$T$112, DW_AT_decl_column(0x16)
    5871                    
    5872                    $C$DW$T$113     .dwtag  DW_TAG_typedef
    5873                            .dwattr $C$DW$T$113, DW_AT_name("__vm_offset_t")
    5874                            .dwattr $C$DW$T$113, DW_AT_type(*$C$DW$T$26)
    5875                            .dwattr $C$DW$T$113, DW_AT_language(DW_LANG_C)
    5876                            .dwattr $C$DW$T$113, DW_AT_decl_file("/home/pola/ti/ccsv8/tools/compiler/ti-cgt-arm_18.1.1.LTS
    5877                            .dwattr $C$DW$T$113, DW_AT_decl_line(0x72)
    5878                            .dwattr $C$DW$T$113, DW_AT_decl_column(0x14)
    5879                    
    5880                    $C$DW$T$114     .dwtag  DW_TAG_typedef
TI ARM Assembler Unix v18.1.1 Fri Jul  3 20:08:26 2020

Tools Copyright (c) 1996-2017 Texas Instruments Incorporated
timer.asm                                                            PAGE  108

    5881                            .dwattr $C$DW$T$114, DW_AT_name("__vm_paddr_t")
    5882                            .dwattr $C$DW$T$114, DW_AT_type(*$C$DW$T$26)
    5883                            .dwattr $C$DW$T$114, DW_AT_language(DW_LANG_C)
    5884                            .dwattr $C$DW$T$114, DW_AT_decl_file("/home/pola/ti/ccsv8/tools/compiler/ti-cgt-arm_18.1.1.LTS
    5885                            .dwattr $C$DW$T$114, DW_AT_decl_line(0x73)
    5886                            .dwattr $C$DW$T$114, DW_AT_decl_column(0x14)
    5887                    
    5888                    $C$DW$T$115     .dwtag  DW_TAG_typedef
    5889                            .dwattr $C$DW$T$115, DW_AT_name("__vm_size_t")
    5890                            .dwattr $C$DW$T$115, DW_AT_type(*$C$DW$T$26)
    5891                            .dwattr $C$DW$T$115, DW_AT_language(DW_LANG_C)
    5892                            .dwattr $C$DW$T$115, DW_AT_decl_file("/home/pola/ti/ccsv8/tools/compiler/ti-cgt-arm_18.1.1.LTS
    5893                            .dwattr $C$DW$T$115, DW_AT_decl_line(0x74)
    5894                            .dwattr $C$DW$T$115, DW_AT_decl_column(0x14)
    5895                    
    5896                    $C$DW$T$27      .dwtag  DW_TAG_typedef
    5897                            .dwattr $C$DW$T$27, DW_AT_name("uint32_t")
    5898                            .dwattr $C$DW$T$27, DW_AT_type(*$C$DW$T$26)
    5899                            .dwattr $C$DW$T$27, DW_AT_language(DW_LANG_C)
    5900                            .dwattr $C$DW$T$27, DW_AT_decl_file("/home/pola/ti/ccsv8/tools/compiler/ti-cgt-arm_18.1.1.LTS/
    5901                            .dwattr $C$DW$T$27, DW_AT_decl_line(0x42)
    5902                            .dwattr $C$DW$T$27, DW_AT_decl_column(0x15)
    5903                    
    5904                    $C$DW$T$120     .dwtag  DW_TAG_const_type
    5905                            .dwattr $C$DW$T$120, DW_AT_type(*$C$DW$T$27)
    5906                    
    5907                    
    5908                    $C$DW$T$121     .dwtag  DW_TAG_array_type
    5909                            .dwattr $C$DW$T$121, DW_AT_type(*$C$DW$T$120)
    5910                            .dwattr $C$DW$T$121, DW_AT_language(DW_LANG_C)
    5911                            .dwattr $C$DW$T$121, DW_AT_byte_size(0x08)
    5912                    $C$DW$278       .dwtag  DW_TAG_subrange_type
    5913                            .dwattr $C$DW$278, DW_AT_upper_bound(0x01)
    5914                    
    5915                            .dwendtag $C$DW$T$121
    5916                    
    5917                    
    5918                    $C$DW$T$122     .dwtag  DW_TAG_array_type
    5919                            .dwattr $C$DW$T$122, DW_AT_type(*$C$DW$T$120)
    5920                            .dwattr $C$DW$T$122, DW_AT_language(DW_LANG_C)
    5921                            .dwattr $C$DW$T$122, DW_AT_byte_size(0x60)
    5922                    $C$DW$279       .dwtag  DW_TAG_subrange_type
    5923                            .dwattr $C$DW$279, DW_AT_upper_bound(0x0b)
    5924                    
    5925                    $C$DW$280       .dwtag  DW_TAG_subrange_type
    5926                            .dwattr $C$DW$280, DW_AT_upper_bound(0x01)
    5927                    
    5928                            .dwendtag $C$DW$T$122
    5929                    
    5930                    
    5931                    $C$DW$T$123     .dwtag  DW_TAG_array_type
    5932                            .dwattr $C$DW$T$123, DW_AT_type(*$C$DW$T$120)
    5933                            .dwattr $C$DW$T$123, DW_AT_language(DW_LANG_C)
    5934                            .dwattr $C$DW$T$123, DW_AT_byte_size(0x40)
    5935                    $C$DW$281       .dwtag  DW_TAG_subrange_type
TI ARM Assembler Unix v18.1.1 Fri Jul  3 20:08:26 2020

Tools Copyright (c) 1996-2017 Texas Instruments Incorporated
timer.asm                                                            PAGE  109

    5936                            .dwattr $C$DW$281, DW_AT_upper_bound(0x07)
    5937                    
    5938                    $C$DW$282       .dwtag  DW_TAG_subrange_type
    5939                            .dwattr $C$DW$282, DW_AT_upper_bound(0x01)
    5940                    
    5941                            .dwendtag $C$DW$T$123
    5942                    
    5943                    $C$DW$T$124     .dwtag  DW_TAG_pointer_type
    5944                            .dwattr $C$DW$T$124, DW_AT_type(*$C$DW$T$121)
    5945                            .dwattr $C$DW$T$124, DW_AT_address_class(0x20)
    5946                    
    5947                    $C$DW$T$128     .dwtag  DW_TAG_typedef
    5948                            .dwattr $C$DW$T$128, DW_AT_name("__useconds_t")
    5949                            .dwattr $C$DW$T$128, DW_AT_type(*$C$DW$T$11)
    5950                            .dwattr $C$DW$T$128, DW_AT_language(DW_LANG_C)
    5951                            .dwattr $C$DW$T$128, DW_AT_decl_file("/home/pola/ti/ccsv8/tools/compiler/ti-cgt-arm_18.1.1.LTS
    5952                            .dwattr $C$DW$T$128, DW_AT_decl_line(0x49)
    5953                            .dwattr $C$DW$T$128, DW_AT_decl_column(0x16)
    5954                    
    5955                    $C$DW$T$12      .dwtag  DW_TAG_base_type
    5956                            .dwattr $C$DW$T$12, DW_AT_encoding(DW_ATE_signed)
    5957                            .dwattr $C$DW$T$12, DW_AT_name("long")
    5958                            .dwattr $C$DW$T$12, DW_AT_byte_size(0x04)
    5959                    
    5960                    $C$DW$T$129     .dwtag  DW_TAG_typedef
    5961                            .dwattr $C$DW$T$129, DW_AT_name("__key_t")
    5962                            .dwattr $C$DW$T$129, DW_AT_type(*$C$DW$T$12)
    5963                            .dwattr $C$DW$T$129, DW_AT_language(DW_LANG_C)
    5964                            .dwattr $C$DW$T$129, DW_AT_decl_file("/home/pola/ti/ccsv8/tools/compiler/ti-cgt-arm_18.1.1.LTS
    5965                            .dwattr $C$DW$T$129, DW_AT_decl_line(0x37)
    5966                            .dwattr $C$DW$T$129, DW_AT_decl_column(0x0f)
    5967                    
    5968                    $C$DW$T$130     .dwtag  DW_TAG_typedef
    5969                            .dwattr $C$DW$T$130, DW_AT_name("__suseconds_t")
    5970                            .dwattr $C$DW$T$130, DW_AT_type(*$C$DW$T$12)
    5971                            .dwattr $C$DW$T$130, DW_AT_language(DW_LANG_C)
    5972                            .dwattr $C$DW$T$130, DW_AT_decl_file("/home/pola/ti/ccsv8/tools/compiler/ti-cgt-arm_18.1.1.LTS
    5973                            .dwattr $C$DW$T$130, DW_AT_decl_line(0x45)
    5974                            .dwattr $C$DW$T$130, DW_AT_decl_column(0x0f)
    5975                    
    5976                    $C$DW$T$13      .dwtag  DW_TAG_base_type
    5977                            .dwattr $C$DW$T$13, DW_AT_encoding(DW_ATE_unsigned)
    5978                            .dwattr $C$DW$T$13, DW_AT_name("unsigned long")
    5979                            .dwattr $C$DW$T$13, DW_AT_byte_size(0x04)
    5980                    
    5981                    $C$DW$T$14      .dwtag  DW_TAG_base_type
    5982                            .dwattr $C$DW$T$14, DW_AT_encoding(DW_ATE_signed)
    5983                            .dwattr $C$DW$T$14, DW_AT_name("long long")
    5984                            .dwattr $C$DW$T$14, DW_AT_byte_size(0x08)
    5985                    
    5986                    $C$DW$T$131     .dwtag  DW_TAG_typedef
    5987                            .dwattr $C$DW$T$131, DW_AT_name("__int64_t")
    5988                            .dwattr $C$DW$T$131, DW_AT_type(*$C$DW$T$14)
    5989                            .dwattr $C$DW$T$131, DW_AT_language(DW_LANG_C)
    5990                            .dwattr $C$DW$T$131, DW_AT_decl_file("/home/pola/ti/ccsv8/tools/compiler/ti-cgt-arm_18.1.1.LTS
TI ARM Assembler Unix v18.1.1 Fri Jul  3 20:08:26 2020

Tools Copyright (c) 1996-2017 Texas Instruments Incorporated
timer.asm                                                            PAGE  110

    5991                            .dwattr $C$DW$T$131, DW_AT_decl_line(0x43)
    5992                            .dwattr $C$DW$T$131, DW_AT_decl_column(0x14)
    5993                    
    5994                    $C$DW$T$132     .dwtag  DW_TAG_typedef
    5995                            .dwattr $C$DW$T$132, DW_AT_name("__blkcnt_t")
    5996                            .dwattr $C$DW$T$132, DW_AT_type(*$C$DW$T$131)
    5997                            .dwattr $C$DW$T$132, DW_AT_language(DW_LANG_C)
    5998                            .dwattr $C$DW$T$132, DW_AT_decl_file("/home/pola/ti/ccsv8/tools/compiler/ti-cgt-arm_18.1.1.LTS
    5999                            .dwattr $C$DW$T$132, DW_AT_decl_line(0x2f)
    6000                            .dwattr $C$DW$T$132, DW_AT_decl_column(0x13)
    6001                    
    6002                    $C$DW$T$133     .dwtag  DW_TAG_typedef
    6003                            .dwattr $C$DW$T$133, DW_AT_name("__id_t")
    6004                            .dwattr $C$DW$T$133, DW_AT_type(*$C$DW$T$131)
    6005                            .dwattr $C$DW$T$133, DW_AT_language(DW_LANG_C)
    6006                            .dwattr $C$DW$T$133, DW_AT_decl_file("/home/pola/ti/ccsv8/tools/compiler/ti-cgt-arm_18.1.1.LTS
    6007                            .dwattr $C$DW$T$133, DW_AT_decl_line(0x35)
    6008                            .dwattr $C$DW$T$133, DW_AT_decl_column(0x13)
    6009                    
    6010                    $C$DW$T$134     .dwtag  DW_TAG_typedef
    6011                            .dwattr $C$DW$T$134, DW_AT_name("__int_fast64_t")
    6012                            .dwattr $C$DW$T$134, DW_AT_type(*$C$DW$T$131)
    6013                            .dwattr $C$DW$T$134, DW_AT_language(DW_LANG_C)
    6014                            .dwattr $C$DW$T$134, DW_AT_decl_file("/home/pola/ti/ccsv8/tools/compiler/ti-cgt-arm_18.1.1.LTS
    6015                            .dwattr $C$DW$T$134, DW_AT_decl_line(0x57)
    6016                            .dwattr $C$DW$T$134, DW_AT_decl_column(0x13)
    6017                    
    6018                    $C$DW$T$135     .dwtag  DW_TAG_typedef
    6019                            .dwattr $C$DW$T$135, DW_AT_name("int_fast64_t")
    6020                            .dwattr $C$DW$T$135, DW_AT_type(*$C$DW$T$134)
    6021                            .dwattr $C$DW$T$135, DW_AT_language(DW_LANG_C)
    6022                            .dwattr $C$DW$T$135, DW_AT_decl_file("/home/pola/ti/ccsv8/tools/compiler/ti-cgt-arm_18.1.1.LTS
    6023                            .dwattr $C$DW$T$135, DW_AT_decl_line(0x35)
    6024                            .dwattr $C$DW$T$135, DW_AT_decl_column(0x19)
    6025                    
    6026                    $C$DW$T$136     .dwtag  DW_TAG_typedef
    6027                            .dwattr $C$DW$T$136, DW_AT_name("__int_least64_t")
    6028                            .dwattr $C$DW$T$136, DW_AT_type(*$C$DW$T$131)
    6029                            .dwattr $C$DW$T$136, DW_AT_language(DW_LANG_C)
    6030                            .dwattr $C$DW$T$136, DW_AT_decl_file("/home/pola/ti/ccsv8/tools/compiler/ti-cgt-arm_18.1.1.LTS
    6031                            .dwattr $C$DW$T$136, DW_AT_decl_line(0x5b)
    6032                            .dwattr $C$DW$T$136, DW_AT_decl_column(0x13)
    6033                    
    6034                    $C$DW$T$137     .dwtag  DW_TAG_typedef
    6035                            .dwattr $C$DW$T$137, DW_AT_name("int_least64_t")
    6036                            .dwattr $C$DW$T$137, DW_AT_type(*$C$DW$T$136)
    6037                            .dwattr $C$DW$T$137, DW_AT_language(DW_LANG_C)
    6038                            .dwattr $C$DW$T$137, DW_AT_decl_file("/home/pola/ti/ccsv8/tools/compiler/ti-cgt-arm_18.1.1.LTS
    6039                            .dwattr $C$DW$T$137, DW_AT_decl_line(0x2b)
    6040                            .dwattr $C$DW$T$137, DW_AT_decl_column(0x1a)
    6041                    
    6042                    $C$DW$T$138     .dwtag  DW_TAG_typedef
    6043                            .dwattr $C$DW$T$138, DW_AT_name("__intmax_t")
    6044                            .dwattr $C$DW$T$138, DW_AT_type(*$C$DW$T$131)
    6045                            .dwattr $C$DW$T$138, DW_AT_language(DW_LANG_C)
TI ARM Assembler Unix v18.1.1 Fri Jul  3 20:08:26 2020

Tools Copyright (c) 1996-2017 Texas Instruments Incorporated
timer.asm                                                            PAGE  111

    6046                            .dwattr $C$DW$T$138, DW_AT_decl_file("/home/pola/ti/ccsv8/tools/compiler/ti-cgt-arm_18.1.1.LTS
    6047                            .dwattr $C$DW$T$138, DW_AT_decl_line(0x52)
    6048                            .dwattr $C$DW$T$138, DW_AT_decl_column(0x13)
    6049                    
    6050                    $C$DW$T$139     .dwtag  DW_TAG_typedef
    6051                            .dwattr $C$DW$T$139, DW_AT_name("intmax_t")
    6052                            .dwattr $C$DW$T$139, DW_AT_type(*$C$DW$T$138)
    6053                            .dwattr $C$DW$T$139, DW_AT_language(DW_LANG_C)
    6054                            .dwattr $C$DW$T$139, DW_AT_decl_file("/home/pola/ti/ccsv8/tools/compiler/ti-cgt-arm_18.1.1.LTS
    6055                            .dwattr $C$DW$T$139, DW_AT_decl_line(0x54)
    6056                            .dwattr $C$DW$T$139, DW_AT_decl_column(0x15)
    6057                    
    6058                    $C$DW$T$140     .dwtag  DW_TAG_typedef
    6059                            .dwattr $C$DW$T$140, DW_AT_name("__off64_t")
    6060                            .dwattr $C$DW$T$140, DW_AT_type(*$C$DW$T$131)
    6061                            .dwattr $C$DW$T$140, DW_AT_language(DW_LANG_C)
    6062                            .dwattr $C$DW$T$140, DW_AT_decl_file("/home/pola/ti/ccsv8/tools/compiler/ti-cgt-arm_18.1.1.LTS
    6063                            .dwattr $C$DW$T$140, DW_AT_decl_line(0x3e)
    6064                            .dwattr $C$DW$T$140, DW_AT_decl_column(0x13)
    6065                    
    6066                    $C$DW$T$141     .dwtag  DW_TAG_typedef
    6067                            .dwattr $C$DW$T$141, DW_AT_name("__off_t")
    6068                            .dwattr $C$DW$T$141, DW_AT_type(*$C$DW$T$131)
    6069                            .dwattr $C$DW$T$141, DW_AT_language(DW_LANG_C)
    6070                            .dwattr $C$DW$T$141, DW_AT_decl_file("/home/pola/ti/ccsv8/tools/compiler/ti-cgt-arm_18.1.1.LTS
    6071                            .dwattr $C$DW$T$141, DW_AT_decl_line(0x3d)
    6072                            .dwattr $C$DW$T$141, DW_AT_decl_column(0x13)
    6073                    
    6074                    $C$DW$T$142     .dwtag  DW_TAG_typedef
    6075                            .dwattr $C$DW$T$142, DW_AT_name("__rlim_t")
    6076                            .dwattr $C$DW$T$142, DW_AT_type(*$C$DW$T$131)
    6077                            .dwattr $C$DW$T$142, DW_AT_language(DW_LANG_C)
    6078                            .dwattr $C$DW$T$142, DW_AT_decl_file("/home/pola/ti/ccsv8/tools/compiler/ti-cgt-arm_18.1.1.LTS
    6079                            .dwattr $C$DW$T$142, DW_AT_decl_line(0x40)
    6080                            .dwattr $C$DW$T$142, DW_AT_decl_column(0x13)
    6081                    
    6082                    $C$DW$T$143     .dwtag  DW_TAG_typedef
    6083                            .dwattr $C$DW$T$143, DW_AT_name("int64_t")
    6084                            .dwattr $C$DW$T$143, DW_AT_type(*$C$DW$T$131)
    6085                            .dwattr $C$DW$T$143, DW_AT_language(DW_LANG_C)
    6086                            .dwattr $C$DW$T$143, DW_AT_decl_file("/home/pola/ti/ccsv8/tools/compiler/ti-cgt-arm_18.1.1.LTS
    6087                            .dwattr $C$DW$T$143, DW_AT_decl_line(0x33)
    6088                            .dwattr $C$DW$T$143, DW_AT_decl_column(0x14)
    6089                    
    6090                    $C$DW$T$15      .dwtag  DW_TAG_base_type
    6091                            .dwattr $C$DW$T$15, DW_AT_encoding(DW_ATE_unsigned)
    6092                            .dwattr $C$DW$T$15, DW_AT_name("unsigned long long")
    6093                            .dwattr $C$DW$T$15, DW_AT_byte_size(0x08)
    6094                    
    6095                    $C$DW$T$36      .dwtag  DW_TAG_typedef
    6096                            .dwattr $C$DW$T$36, DW_AT_name("__uint64_t")
    6097                            .dwattr $C$DW$T$36, DW_AT_type(*$C$DW$T$15)
    6098                            .dwattr $C$DW$T$36, DW_AT_language(DW_LANG_C)
    6099                            .dwattr $C$DW$T$36, DW_AT_decl_file("/home/pola/ti/ccsv8/tools/compiler/ti-cgt-arm_18.1.1.LTS/
    6100                            .dwattr $C$DW$T$36, DW_AT_decl_line(0x48)
TI ARM Assembler Unix v18.1.1 Fri Jul  3 20:08:26 2020

Tools Copyright (c) 1996-2017 Texas Instruments Incorporated
timer.asm                                                            PAGE  112

    6101                            .dwattr $C$DW$T$36, DW_AT_decl_column(0x1c)
    6102                    
    6103                    $C$DW$T$144     .dwtag  DW_TAG_typedef
    6104                            .dwattr $C$DW$T$144, DW_AT_name("__dev_t")
    6105                            .dwattr $C$DW$T$144, DW_AT_type(*$C$DW$T$36)
    6106                            .dwattr $C$DW$T$144, DW_AT_language(DW_LANG_C)
    6107                            .dwattr $C$DW$T$144, DW_AT_decl_file("/home/pola/ti/ccsv8/tools/compiler/ti-cgt-arm_18.1.1.LTS
    6108                            .dwattr $C$DW$T$144, DW_AT_decl_line(0x74)
    6109                            .dwattr $C$DW$T$144, DW_AT_decl_column(0x14)
    6110                    
    6111                    $C$DW$T$145     .dwtag  DW_TAG_typedef
    6112                            .dwattr $C$DW$T$145, DW_AT_name("__fsblkcnt_t")
    6113                            .dwattr $C$DW$T$145, DW_AT_type(*$C$DW$T$36)
    6114                            .dwattr $C$DW$T$145, DW_AT_language(DW_LANG_C)
    6115                            .dwattr $C$DW$T$145, DW_AT_decl_file("/home/pola/ti/ccsv8/tools/compiler/ti-cgt-arm_18.1.1.LTS
    6116                            .dwattr $C$DW$T$145, DW_AT_decl_line(0x32)
    6117                            .dwattr $C$DW$T$145, DW_AT_decl_column(0x14)
    6118                    
    6119                    $C$DW$T$146     .dwtag  DW_TAG_typedef
    6120                            .dwattr $C$DW$T$146, DW_AT_name("__fsfilcnt_t")
    6121                            .dwattr $C$DW$T$146, DW_AT_type(*$C$DW$T$36)
    6122                            .dwattr $C$DW$T$146, DW_AT_language(DW_LANG_C)
    6123                            .dwattr $C$DW$T$146, DW_AT_decl_file("/home/pola/ti/ccsv8/tools/compiler/ti-cgt-arm_18.1.1.LTS
    6124                            .dwattr $C$DW$T$146, DW_AT_decl_line(0x33)
    6125                            .dwattr $C$DW$T$146, DW_AT_decl_column(0x14)
    6126                    
    6127                    $C$DW$T$147     .dwtag  DW_TAG_typedef
    6128                            .dwattr $C$DW$T$147, DW_AT_name("__ino_t")
    6129                            .dwattr $C$DW$T$147, DW_AT_type(*$C$DW$T$36)
    6130                            .dwattr $C$DW$T$147, DW_AT_language(DW_LANG_C)
    6131                            .dwattr $C$DW$T$147, DW_AT_decl_file("/home/pola/ti/ccsv8/tools/compiler/ti-cgt-arm_18.1.1.LTS
    6132                            .dwattr $C$DW$T$147, DW_AT_decl_line(0x36)
    6133                            .dwattr $C$DW$T$147, DW_AT_decl_column(0x14)
    6134                    
    6135                    $C$DW$T$148     .dwtag  DW_TAG_typedef
    6136                            .dwattr $C$DW$T$148, DW_AT_name("__nlink_t")
    6137                            .dwattr $C$DW$T$148, DW_AT_type(*$C$DW$T$36)
    6138                            .dwattr $C$DW$T$148, DW_AT_language(DW_LANG_C)
    6139                            .dwattr $C$DW$T$148, DW_AT_decl_file("/home/pola/ti/ccsv8/tools/compiler/ti-cgt-arm_18.1.1.LTS
    6140                            .dwattr $C$DW$T$148, DW_AT_decl_line(0x3c)
    6141                            .dwattr $C$DW$T$148, DW_AT_decl_column(0x14)
    6142                    
    6143                    $C$DW$T$149     .dwtag  DW_TAG_typedef
    6144                            .dwattr $C$DW$T$149, DW_AT_name("__uint_fast64_t")
    6145                            .dwattr $C$DW$T$149, DW_AT_type(*$C$DW$T$36)
    6146                            .dwattr $C$DW$T$149, DW_AT_language(DW_LANG_C)
    6147                            .dwattr $C$DW$T$149, DW_AT_decl_file("/home/pola/ti/ccsv8/tools/compiler/ti-cgt-arm_18.1.1.LTS
    6148                            .dwattr $C$DW$T$149, DW_AT_decl_line(0x6c)
    6149                            .dwattr $C$DW$T$149, DW_AT_decl_column(0x14)
    6150                    
    6151                    $C$DW$T$150     .dwtag  DW_TAG_typedef
    6152                            .dwattr $C$DW$T$150, DW_AT_name("uint_fast64_t")
    6153                            .dwattr $C$DW$T$150, DW_AT_type(*$C$DW$T$149)
    6154                            .dwattr $C$DW$T$150, DW_AT_language(DW_LANG_C)
    6155                            .dwattr $C$DW$T$150, DW_AT_decl_file("/home/pola/ti/ccsv8/tools/compiler/ti-cgt-arm_18.1.1.LTS
TI ARM Assembler Unix v18.1.1 Fri Jul  3 20:08:26 2020

Tools Copyright (c) 1996-2017 Texas Instruments Incorporated
timer.asm                                                            PAGE  113

    6156                            .dwattr $C$DW$T$150, DW_AT_decl_line(0x3a)
    6157                            .dwattr $C$DW$T$150, DW_AT_decl_column(0x1a)
    6158                    
    6159                    $C$DW$T$151     .dwtag  DW_TAG_typedef
    6160                            .dwattr $C$DW$T$151, DW_AT_name("__uint_least64_t")
    6161                            .dwattr $C$DW$T$151, DW_AT_type(*$C$DW$T$36)
    6162                            .dwattr $C$DW$T$151, DW_AT_language(DW_LANG_C)
    6163                            .dwattr $C$DW$T$151, DW_AT_decl_file("/home/pola/ti/ccsv8/tools/compiler/ti-cgt-arm_18.1.1.LTS
    6164                            .dwattr $C$DW$T$151, DW_AT_decl_line(0x70)
    6165                            .dwattr $C$DW$T$151, DW_AT_decl_column(0x14)
    6166                    
    6167                    $C$DW$T$152     .dwtag  DW_TAG_typedef
    6168                            .dwattr $C$DW$T$152, DW_AT_name("uint_least64_t")
    6169                            .dwattr $C$DW$T$152, DW_AT_type(*$C$DW$T$151)
    6170                            .dwattr $C$DW$T$152, DW_AT_language(DW_LANG_C)
    6171                            .dwattr $C$DW$T$152, DW_AT_decl_file("/home/pola/ti/ccsv8/tools/compiler/ti-cgt-arm_18.1.1.LTS
    6172                            .dwattr $C$DW$T$152, DW_AT_decl_line(0x30)
    6173                            .dwattr $C$DW$T$152, DW_AT_decl_column(0x1a)
    6174                    
    6175                    $C$DW$T$153     .dwtag  DW_TAG_typedef
    6176                            .dwattr $C$DW$T$153, DW_AT_name("__uintmax_t")
    6177                            .dwattr $C$DW$T$153, DW_AT_type(*$C$DW$T$36)
    6178                            .dwattr $C$DW$T$153, DW_AT_language(DW_LANG_C)
    6179                            .dwattr $C$DW$T$153, DW_AT_decl_file("/home/pola/ti/ccsv8/tools/compiler/ti-cgt-arm_18.1.1.LTS
    6180                            .dwattr $C$DW$T$153, DW_AT_decl_line(0x67)
    6181                            .dwattr $C$DW$T$153, DW_AT_decl_column(0x14)
    6182                    
    6183                    $C$DW$T$154     .dwtag  DW_TAG_typedef
    6184                            .dwattr $C$DW$T$154, DW_AT_name("__rman_res_t")
    6185                            .dwattr $C$DW$T$154, DW_AT_type(*$C$DW$T$153)
    6186                            .dwattr $C$DW$T$154, DW_AT_language(DW_LANG_C)
    6187                            .dwattr $C$DW$T$154, DW_AT_decl_file("/home/pola/ti/ccsv8/tools/compiler/ti-cgt-arm_18.1.1.LTS
    6188                            .dwattr $C$DW$T$154, DW_AT_decl_line(0x8f)
    6189                            .dwattr $C$DW$T$154, DW_AT_decl_column(0x19)
    6190                    
    6191                    $C$DW$T$155     .dwtag  DW_TAG_typedef
    6192                            .dwattr $C$DW$T$155, DW_AT_name("uintmax_t")
    6193                            .dwattr $C$DW$T$155, DW_AT_type(*$C$DW$T$153)
    6194                            .dwattr $C$DW$T$155, DW_AT_language(DW_LANG_C)
    6195                            .dwattr $C$DW$T$155, DW_AT_decl_file("/home/pola/ti/ccsv8/tools/compiler/ti-cgt-arm_18.1.1.LTS
    6196                            .dwattr $C$DW$T$155, DW_AT_decl_line(0x58)
    6197                            .dwattr $C$DW$T$155, DW_AT_decl_column(0x16)
    6198                    
    6199                    $C$DW$T$37      .dwtag  DW_TAG_typedef
    6200                            .dwattr $C$DW$T$37, DW_AT_name("uint64_t")
    6201                            .dwattr $C$DW$T$37, DW_AT_type(*$C$DW$T$36)
    6202                            .dwattr $C$DW$T$37, DW_AT_language(DW_LANG_C)
    6203                            .dwattr $C$DW$T$37, DW_AT_decl_file("/home/pola/ti/ccsv8/tools/compiler/ti-cgt-arm_18.1.1.LTS/
    6204                            .dwattr $C$DW$T$37, DW_AT_decl_line(0x47)
    6205                            .dwattr $C$DW$T$37, DW_AT_decl_column(0x15)
    6206                    
    6207                    $C$DW$T$16      .dwtag  DW_TAG_base_type
    6208                            .dwattr $C$DW$T$16, DW_AT_encoding(DW_ATE_float)
    6209                            .dwattr $C$DW$T$16, DW_AT_name("float")
    6210                            .dwattr $C$DW$T$16, DW_AT_byte_size(0x04)
TI ARM Assembler Unix v18.1.1 Fri Jul  3 20:08:26 2020

Tools Copyright (c) 1996-2017 Texas Instruments Incorporated
timer.asm                                                            PAGE  114

    6211                    
    6212                    $C$DW$T$157     .dwtag  DW_TAG_typedef
    6213                            .dwattr $C$DW$T$157, DW_AT_name("__float_t")
    6214                            .dwattr $C$DW$T$157, DW_AT_type(*$C$DW$T$16)
    6215                            .dwattr $C$DW$T$157, DW_AT_language(DW_LANG_C)
    6216                            .dwattr $C$DW$T$157, DW_AT_decl_file("/home/pola/ti/ccsv8/tools/compiler/ti-cgt-arm_18.1.1.LTS
    6217                            .dwattr $C$DW$T$157, DW_AT_decl_line(0x50)
    6218                            .dwattr $C$DW$T$157, DW_AT_decl_column(0x10)
    6219                    
    6220                    $C$DW$T$17      .dwtag  DW_TAG_base_type
    6221                            .dwattr $C$DW$T$17, DW_AT_encoding(DW_ATE_float)
    6222                            .dwattr $C$DW$T$17, DW_AT_name("double")
    6223                            .dwattr $C$DW$T$17, DW_AT_byte_size(0x08)
    6224                    
    6225                    $C$DW$T$158     .dwtag  DW_TAG_typedef
    6226                            .dwattr $C$DW$T$158, DW_AT_name("__double_t")
    6227                            .dwattr $C$DW$T$158, DW_AT_type(*$C$DW$T$17)
    6228                            .dwattr $C$DW$T$158, DW_AT_language(DW_LANG_C)
    6229                            .dwattr $C$DW$T$158, DW_AT_decl_file("/home/pola/ti/ccsv8/tools/compiler/ti-cgt-arm_18.1.1.LTS
    6230                            .dwattr $C$DW$T$158, DW_AT_decl_line(0x4f)
    6231                            .dwattr $C$DW$T$158, DW_AT_decl_column(0x11)
    6232                    
    6233                    $C$DW$T$18      .dwtag  DW_TAG_base_type
    6234                            .dwattr $C$DW$T$18, DW_AT_encoding(DW_ATE_float)
    6235                            .dwattr $C$DW$T$18, DW_AT_name("long double")
    6236                            .dwattr $C$DW$T$18, DW_AT_byte_size(0x08)
    6237                    
    6238                    $C$DW$T$33      .dwtag  DW_TAG_base_type
    6239                            .dwattr $C$DW$T$33, DW_AT_encoding(DW_ATE_unsigned_char)
    6240                            .dwattr $C$DW$T$33, DW_AT_name("unsigned char")
    6241                            .dwattr $C$DW$T$33, DW_AT_byte_size(0x01)
    6242                    
    6243                    
    6244                    $C$DW$T$19      .dwtag  DW_TAG_structure_type
    6245                            .dwattr $C$DW$T$19, DW_AT_name("__mq")
    6246                            .dwattr $C$DW$T$19, DW_AT_declaration
    6247                            .dwattr $C$DW$T$19, DW_AT_decl_file("/home/pola/ti/ccsv8/tools/compiler/ti-cgt-arm_18.1.1.LTS/
    6248                            .dwattr $C$DW$T$19, DW_AT_decl_line(0x47)
    6249                            .dwattr $C$DW$T$19, DW_AT_decl_column(0x10)
    6250                            .dwendtag $C$DW$T$19
    6251                    
    6252                    $C$DW$T$159     .dwtag  DW_TAG_pointer_type
    6253                            .dwattr $C$DW$T$159, DW_AT_type(*$C$DW$T$19)
    6254                            .dwattr $C$DW$T$159, DW_AT_address_class(0x20)
    6255                    
    6256                    $C$DW$T$160     .dwtag  DW_TAG_typedef
    6257                            .dwattr $C$DW$T$160, DW_AT_name("__mqd_t")
    6258                            .dwattr $C$DW$T$160, DW_AT_type(*$C$DW$T$159)
    6259                            .dwattr $C$DW$T$160, DW_AT_language(DW_LANG_C)
    6260                            .dwattr $C$DW$T$160, DW_AT_decl_file("/home/pola/ti/ccsv8/tools/compiler/ti-cgt-arm_18.1.1.LTS
    6261                            .dwattr $C$DW$T$160, DW_AT_decl_line(0x47)
    6262                            .dwattr $C$DW$T$160, DW_AT_decl_column(0x16)
    6263                    
    6264                    
    6265                    $C$DW$T$20      .dwtag  DW_TAG_structure_type
TI ARM Assembler Unix v18.1.1 Fri Jul  3 20:08:26 2020

Tools Copyright (c) 1996-2017 Texas Instruments Incorporated
timer.asm                                                            PAGE  115

    6266                            .dwattr $C$DW$T$20, DW_AT_name("__timer")
    6267                            .dwattr $C$DW$T$20, DW_AT_declaration
    6268                            .dwattr $C$DW$T$20, DW_AT_decl_file("/home/pola/ti/ccsv8/tools/compiler/ti-cgt-arm_18.1.1.LTS/
    6269                            .dwattr $C$DW$T$20, DW_AT_decl_line(0x46)
    6270                            .dwattr $C$DW$T$20, DW_AT_decl_column(0x10)
    6271                            .dwendtag $C$DW$T$20
    6272                    
    6273                    $C$DW$T$161     .dwtag  DW_TAG_pointer_type
    6274                            .dwattr $C$DW$T$161, DW_AT_type(*$C$DW$T$20)
    6275                            .dwattr $C$DW$T$161, DW_AT_address_class(0x20)
    6276                    
    6277                    $C$DW$T$162     .dwtag  DW_TAG_typedef
    6278                            .dwattr $C$DW$T$162, DW_AT_name("__timer_t")
    6279                            .dwattr $C$DW$T$162, DW_AT_type(*$C$DW$T$161)
    6280                            .dwattr $C$DW$T$162, DW_AT_language(DW_LANG_C)
    6281                            .dwattr $C$DW$T$162, DW_AT_decl_file("/home/pola/ti/ccsv8/tools/compiler/ti-cgt-arm_18.1.1.LTS
    6282                            .dwattr $C$DW$T$162, DW_AT_decl_line(0x46)
    6283                            .dwattr $C$DW$T$162, DW_AT_decl_column(0x19)
    6284                    
    6285                    
    6286                    $C$DW$T$22      .dwtag  DW_TAG_structure_type
    6287                            .dwattr $C$DW$T$22, DW_AT_name("__va_list_t")
    6288                            .dwattr $C$DW$T$22, DW_AT_byte_size(0x04)
    6289                    $C$DW$283       .dwtag  DW_TAG_member
    6290                            .dwattr $C$DW$283, DW_AT_type(*$C$DW$T$3)
    6291                            .dwattr $C$DW$283, DW_AT_name("__ap")
    6292                            .dwattr $C$DW$283, DW_AT_TI_symbol_name("__ap")
    6293                            .dwattr $C$DW$283, DW_AT_data_member_location[DW_OP_plus_uconst 0x0]
    6294                            .dwattr $C$DW$283, DW_AT_accessibility(DW_ACCESS_public)
    6295                            .dwattr $C$DW$283, DW_AT_decl_file("/home/pola/ti/ccsv8/tools/compiler/ti-cgt-arm_18.1.1.LTS/i
    6296                            .dwattr $C$DW$283, DW_AT_decl_line(0x88)
    6297                            .dwattr $C$DW$283, DW_AT_decl_column(0x0c)
    6298                    
    6299                            .dwattr $C$DW$T$22, DW_AT_decl_file("/home/pola/ti/ccsv8/tools/compiler/ti-cgt-arm_18.1.1.LTS/
    6300                            .dwattr $C$DW$T$22, DW_AT_decl_line(0x87)
    6301                            .dwattr $C$DW$T$22, DW_AT_decl_column(0x10)
    6302                            .dwendtag $C$DW$T$22
    6303                    
    6304                    $C$DW$T$163     .dwtag  DW_TAG_typedef
    6305                            .dwattr $C$DW$T$163, DW_AT_name("__va_list")
    6306                            .dwattr $C$DW$T$163, DW_AT_type(*$C$DW$T$22)
    6307                            .dwattr $C$DW$T$163, DW_AT_language(DW_LANG_C)
    6308                            .dwattr $C$DW$T$163, DW_AT_decl_file("/home/pola/ti/ccsv8/tools/compiler/ti-cgt-arm_18.1.1.LTS
    6309                            .dwattr $C$DW$T$163, DW_AT_decl_line(0x89)
    6310                            .dwattr $C$DW$T$163, DW_AT_decl_column(0x03)
    6311                    
    6312                            .dwattr $C$DW$CU, DW_AT_language(DW_LANG_C)
    6313                    
    6314                    ;***************************************************************
    6315                    ;* DWARF CIE ENTRIES                                           *
    6316                    ;***************************************************************
    6317                    
    6318                    $C$DW$CIE       .dwcie 14
    6319                            .dwcfi  cfa_register, 13
    6320                            .dwcfi  cfa_offset, 0
TI ARM Assembler Unix v18.1.1 Fri Jul  3 20:08:26 2020

Tools Copyright (c) 1996-2017 Texas Instruments Incorporated
timer.asm                                                            PAGE  116

    6321                            .dwcfi  same_value, 4
    6322                            .dwcfi  same_value, 5
    6323                            .dwcfi  same_value, 6
    6324                            .dwcfi  same_value, 7
    6325                            .dwcfi  same_value, 8
    6326                            .dwcfi  same_value, 9
    6327                            .dwcfi  same_value, 10
    6328                            .dwcfi  same_value, 11
    6329                            .dwcfi  same_value, 80
    6330                            .dwcfi  same_value, 81
    6331                            .dwcfi  same_value, 82
    6332                            .dwcfi  same_value, 83
    6333                            .dwcfi  same_value, 84
    6334                            .dwcfi  same_value, 85
    6335                            .dwcfi  same_value, 86
    6336                            .dwcfi  same_value, 87
    6337                            .dwcfi  same_value, 88
    6338                            .dwcfi  same_value, 89
    6339                            .dwcfi  same_value, 90
    6340                            .dwcfi  same_value, 91
    6341                            .dwcfi  same_value, 92
    6342                            .dwcfi  same_value, 93
    6343                            .dwcfi  same_value, 94
    6344                            .dwcfi  same_value, 95
    6345                            .dwendentry
    6346                    
    6347                    ;***************************************************************
    6348                    ;* DWARF REGISTER MAP                                          *
    6349                    ;***************************************************************
    6350                    
    6351                    $C$DW$284       .dwtag  DW_TAG_TI_assign_register
    6352                            .dwattr $C$DW$284, DW_AT_name("A1")
    6353                            .dwattr $C$DW$284, DW_AT_location[DW_OP_reg0]
    6354                    
    6355                    $C$DW$285       .dwtag  DW_TAG_TI_assign_register
    6356                            .dwattr $C$DW$285, DW_AT_name("A2")
    6357                            .dwattr $C$DW$285, DW_AT_location[DW_OP_reg1]
    6358                    
    6359                    $C$DW$286       .dwtag  DW_TAG_TI_assign_register
    6360                            .dwattr $C$DW$286, DW_AT_name("A3")
    6361                            .dwattr $C$DW$286, DW_AT_location[DW_OP_reg2]
    6362                    
    6363                    $C$DW$287       .dwtag  DW_TAG_TI_assign_register
    6364                            .dwattr $C$DW$287, DW_AT_name("A4")
    6365                            .dwattr $C$DW$287, DW_AT_location[DW_OP_reg3]
    6366                    
    6367                    $C$DW$288       .dwtag  DW_TAG_TI_assign_register
    6368                            .dwattr $C$DW$288, DW_AT_name("V1")
    6369                            .dwattr $C$DW$288, DW_AT_location[DW_OP_reg4]
    6370                    
    6371                    $C$DW$289       .dwtag  DW_TAG_TI_assign_register
    6372                            .dwattr $C$DW$289, DW_AT_name("V2")
    6373                            .dwattr $C$DW$289, DW_AT_location[DW_OP_reg5]
    6374                    
    6375                    $C$DW$290       .dwtag  DW_TAG_TI_assign_register
TI ARM Assembler Unix v18.1.1 Fri Jul  3 20:08:26 2020

Tools Copyright (c) 1996-2017 Texas Instruments Incorporated
timer.asm                                                            PAGE  117

    6376                            .dwattr $C$DW$290, DW_AT_name("V3")
    6377                            .dwattr $C$DW$290, DW_AT_location[DW_OP_reg6]
    6378                    
    6379                    $C$DW$291       .dwtag  DW_TAG_TI_assign_register
    6380                            .dwattr $C$DW$291, DW_AT_name("V4")
    6381                            .dwattr $C$DW$291, DW_AT_location[DW_OP_reg7]
    6382                    
    6383                    $C$DW$292       .dwtag  DW_TAG_TI_assign_register
    6384                            .dwattr $C$DW$292, DW_AT_name("V5")
    6385                            .dwattr $C$DW$292, DW_AT_location[DW_OP_reg8]
    6386                    
    6387                    $C$DW$293       .dwtag  DW_TAG_TI_assign_register
    6388                            .dwattr $C$DW$293, DW_AT_name("V6")
    6389                            .dwattr $C$DW$293, DW_AT_location[DW_OP_reg9]
    6390                    
    6391                    $C$DW$294       .dwtag  DW_TAG_TI_assign_register
    6392                            .dwattr $C$DW$294, DW_AT_name("V7")
    6393                            .dwattr $C$DW$294, DW_AT_location[DW_OP_reg10]
    6394                    
    6395                    $C$DW$295       .dwtag  DW_TAG_TI_assign_register
    6396                            .dwattr $C$DW$295, DW_AT_name("V8")
    6397                            .dwattr $C$DW$295, DW_AT_location[DW_OP_reg11]
    6398                    
    6399                    $C$DW$296       .dwtag  DW_TAG_TI_assign_register
    6400                            .dwattr $C$DW$296, DW_AT_name("V9")
    6401                            .dwattr $C$DW$296, DW_AT_location[DW_OP_reg12]
    6402                    
    6403                    $C$DW$297       .dwtag  DW_TAG_TI_assign_register
    6404                            .dwattr $C$DW$297, DW_AT_name("SP")
    6405                            .dwattr $C$DW$297, DW_AT_location[DW_OP_reg13]
    6406                    
    6407                    $C$DW$298       .dwtag  DW_TAG_TI_assign_register
    6408                            .dwattr $C$DW$298, DW_AT_name("LR")
    6409                            .dwattr $C$DW$298, DW_AT_location[DW_OP_reg14]
    6410                    
    6411                    $C$DW$299       .dwtag  DW_TAG_TI_assign_register
    6412                            .dwattr $C$DW$299, DW_AT_name("PC")
    6413                            .dwattr $C$DW$299, DW_AT_location[DW_OP_reg15]
    6414                    
    6415                    $C$DW$300       .dwtag  DW_TAG_TI_assign_register
    6416                            .dwattr $C$DW$300, DW_AT_name("SR")
    6417                            .dwattr $C$DW$300, DW_AT_location[DW_OP_reg17]
    6418                    
    6419                    $C$DW$301       .dwtag  DW_TAG_TI_assign_register
    6420                            .dwattr $C$DW$301, DW_AT_name("AP")
    6421                            .dwattr $C$DW$301, DW_AT_location[DW_OP_reg7]
    6422                    
    6423                    $C$DW$302       .dwtag  DW_TAG_TI_assign_register
    6424                            .dwattr $C$DW$302, DW_AT_name("D0")
    6425                            .dwattr $C$DW$302, DW_AT_location[DW_OP_regx 0x40]
    6426                    
    6427                    $C$DW$303       .dwtag  DW_TAG_TI_assign_register
    6428                            .dwattr $C$DW$303, DW_AT_name("D0_hi")
    6429                            .dwattr $C$DW$303, DW_AT_location[DW_OP_regx 0x41]
    6430                    
TI ARM Assembler Unix v18.1.1 Fri Jul  3 20:08:26 2020

Tools Copyright (c) 1996-2017 Texas Instruments Incorporated
timer.asm                                                            PAGE  118

    6431                    $C$DW$304       .dwtag  DW_TAG_TI_assign_register
    6432                            .dwattr $C$DW$304, DW_AT_name("D1")
    6433                            .dwattr $C$DW$304, DW_AT_location[DW_OP_regx 0x42]
    6434                    
    6435                    $C$DW$305       .dwtag  DW_TAG_TI_assign_register
    6436                            .dwattr $C$DW$305, DW_AT_name("D1_hi")
    6437                            .dwattr $C$DW$305, DW_AT_location[DW_OP_regx 0x43]
    6438                    
    6439                    $C$DW$306       .dwtag  DW_TAG_TI_assign_register
    6440                            .dwattr $C$DW$306, DW_AT_name("D2")
    6441                            .dwattr $C$DW$306, DW_AT_location[DW_OP_regx 0x44]
    6442                    
    6443                    $C$DW$307       .dwtag  DW_TAG_TI_assign_register
    6444                            .dwattr $C$DW$307, DW_AT_name("D2_hi")
    6445                            .dwattr $C$DW$307, DW_AT_location[DW_OP_regx 0x45]
    6446                    
    6447                    $C$DW$308       .dwtag  DW_TAG_TI_assign_register
    6448                            .dwattr $C$DW$308, DW_AT_name("D3")
    6449                            .dwattr $C$DW$308, DW_AT_location[DW_OP_regx 0x46]
    6450                    
    6451                    $C$DW$309       .dwtag  DW_TAG_TI_assign_register
    6452                            .dwattr $C$DW$309, DW_AT_name("D3_hi")
    6453                            .dwattr $C$DW$309, DW_AT_location[DW_OP_regx 0x47]
    6454                    
    6455                    $C$DW$310       .dwtag  DW_TAG_TI_assign_register
    6456                            .dwattr $C$DW$310, DW_AT_name("D4")
    6457                            .dwattr $C$DW$310, DW_AT_location[DW_OP_regx 0x48]
    6458                    
    6459                    $C$DW$311       .dwtag  DW_TAG_TI_assign_register
    6460                            .dwattr $C$DW$311, DW_AT_name("D4_hi")
    6461                            .dwattr $C$DW$311, DW_AT_location[DW_OP_regx 0x49]
    6462                    
    6463                    $C$DW$312       .dwtag  DW_TAG_TI_assign_register
    6464                            .dwattr $C$DW$312, DW_AT_name("D5")
    6465                            .dwattr $C$DW$312, DW_AT_location[DW_OP_regx 0x4a]
    6466                    
    6467                    $C$DW$313       .dwtag  DW_TAG_TI_assign_register
    6468                            .dwattr $C$DW$313, DW_AT_name("D5_hi")
    6469                            .dwattr $C$DW$313, DW_AT_location[DW_OP_regx 0x4b]
    6470                    
    6471                    $C$DW$314       .dwtag  DW_TAG_TI_assign_register
    6472                            .dwattr $C$DW$314, DW_AT_name("D6")
    6473                            .dwattr $C$DW$314, DW_AT_location[DW_OP_regx 0x4c]
    6474                    
    6475                    $C$DW$315       .dwtag  DW_TAG_TI_assign_register
    6476                            .dwattr $C$DW$315, DW_AT_name("D6_hi")
    6477                            .dwattr $C$DW$315, DW_AT_location[DW_OP_regx 0x4d]
    6478                    
    6479                    $C$DW$316       .dwtag  DW_TAG_TI_assign_register
    6480                            .dwattr $C$DW$316, DW_AT_name("D7")
    6481                            .dwattr $C$DW$316, DW_AT_location[DW_OP_regx 0x4e]
    6482                    
    6483                    $C$DW$317       .dwtag  DW_TAG_TI_assign_register
    6484                            .dwattr $C$DW$317, DW_AT_name("D7_hi")
    6485                            .dwattr $C$DW$317, DW_AT_location[DW_OP_regx 0x4f]
TI ARM Assembler Unix v18.1.1 Fri Jul  3 20:08:26 2020

Tools Copyright (c) 1996-2017 Texas Instruments Incorporated
timer.asm                                                            PAGE  119

    6486                    
    6487                    $C$DW$318       .dwtag  DW_TAG_TI_assign_register
    6488                            .dwattr $C$DW$318, DW_AT_name("D8")
    6489                            .dwattr $C$DW$318, DW_AT_location[DW_OP_regx 0x50]
    6490                    
    6491                    $C$DW$319       .dwtag  DW_TAG_TI_assign_register
    6492                            .dwattr $C$DW$319, DW_AT_name("D8_hi")
    6493                            .dwattr $C$DW$319, DW_AT_location[DW_OP_regx 0x51]
    6494                    
    6495                    $C$DW$320       .dwtag  DW_TAG_TI_assign_register
    6496                            .dwattr $C$DW$320, DW_AT_name("D9")
    6497                            .dwattr $C$DW$320, DW_AT_location[DW_OP_regx 0x52]
    6498                    
    6499                    $C$DW$321       .dwtag  DW_TAG_TI_assign_register
    6500                            .dwattr $C$DW$321, DW_AT_name("D9_hi")
    6501                            .dwattr $C$DW$321, DW_AT_location[DW_OP_regx 0x53]
    6502                    
    6503                    $C$DW$322       .dwtag  DW_TAG_TI_assign_register
    6504                            .dwattr $C$DW$322, DW_AT_name("D10")
    6505                            .dwattr $C$DW$322, DW_AT_location[DW_OP_regx 0x54]
    6506                    
    6507                    $C$DW$323       .dwtag  DW_TAG_TI_assign_register
    6508                            .dwattr $C$DW$323, DW_AT_name("D10_hi")
    6509                            .dwattr $C$DW$323, DW_AT_location[DW_OP_regx 0x55]
    6510                    
    6511                    $C$DW$324       .dwtag  DW_TAG_TI_assign_register
    6512                            .dwattr $C$DW$324, DW_AT_name("D11")
    6513                            .dwattr $C$DW$324, DW_AT_location[DW_OP_regx 0x56]
    6514                    
    6515                    $C$DW$325       .dwtag  DW_TAG_TI_assign_register
    6516                            .dwattr $C$DW$325, DW_AT_name("D11_hi")
    6517                            .dwattr $C$DW$325, DW_AT_location[DW_OP_regx 0x57]
    6518                    
    6519                    $C$DW$326       .dwtag  DW_TAG_TI_assign_register
    6520                            .dwattr $C$DW$326, DW_AT_name("D12")
    6521                            .dwattr $C$DW$326, DW_AT_location[DW_OP_regx 0x58]
    6522                    
    6523                    $C$DW$327       .dwtag  DW_TAG_TI_assign_register
    6524                            .dwattr $C$DW$327, DW_AT_name("D12_hi")
    6525                            .dwattr $C$DW$327, DW_AT_location[DW_OP_regx 0x59]
    6526                    
    6527                    $C$DW$328       .dwtag  DW_TAG_TI_assign_register
    6528                            .dwattr $C$DW$328, DW_AT_name("D13")
    6529                            .dwattr $C$DW$328, DW_AT_location[DW_OP_regx 0x5a]
    6530                    
    6531                    $C$DW$329       .dwtag  DW_TAG_TI_assign_register
    6532                            .dwattr $C$DW$329, DW_AT_name("D13_hi")
    6533                            .dwattr $C$DW$329, DW_AT_location[DW_OP_regx 0x5b]
    6534                    
    6535                    $C$DW$330       .dwtag  DW_TAG_TI_assign_register
    6536                            .dwattr $C$DW$330, DW_AT_name("D14")
    6537                            .dwattr $C$DW$330, DW_AT_location[DW_OP_regx 0x5c]
    6538                    
    6539                    $C$DW$331       .dwtag  DW_TAG_TI_assign_register
    6540                            .dwattr $C$DW$331, DW_AT_name("D14_hi")
TI ARM Assembler Unix v18.1.1 Fri Jul  3 20:08:26 2020

Tools Copyright (c) 1996-2017 Texas Instruments Incorporated
timer.asm                                                            PAGE  120

    6541                            .dwattr $C$DW$331, DW_AT_location[DW_OP_regx 0x5d]
    6542                    
    6543                    $C$DW$332       .dwtag  DW_TAG_TI_assign_register
    6544                            .dwattr $C$DW$332, DW_AT_name("D15")
    6545                            .dwattr $C$DW$332, DW_AT_location[DW_OP_regx 0x5e]
    6546                    
    6547                    $C$DW$333       .dwtag  DW_TAG_TI_assign_register
    6548                            .dwattr $C$DW$333, DW_AT_name("D15_hi")
    6549                            .dwattr $C$DW$333, DW_AT_location[DW_OP_regx 0x5f]
    6550                    
    6551                    $C$DW$334       .dwtag  DW_TAG_TI_assign_register
    6552                            .dwattr $C$DW$334, DW_AT_name("FPEXC")
    6553                            .dwattr $C$DW$334, DW_AT_location[DW_OP_reg18]
    6554                    
    6555                    $C$DW$335       .dwtag  DW_TAG_TI_assign_register
    6556                            .dwattr $C$DW$335, DW_AT_name("FPSCR")
    6557                            .dwattr $C$DW$335, DW_AT_location[DW_OP_reg19]
    6558                    
    6559                            .dwendtag $C$DW$CU
    6560                    

--------------------------
Thumb2 Statistics
--------------------------
Number of Thumb2 ins converted to Thumb = 0 (0%)
Number of Thumb ins in input = 763 (88%)
Number of Thumb2 ins encoded as Thumb2 = 102 (100%)
Number of Thumb2 ins converted to 2 OPND Thumb = 80


No Assembly Errors, No Assembly Warnings
