TI ARM Assembler Unix v18.1.1 Fri Jul  3 20:08:27 2020

Tools Copyright (c) 1996-2017 Texas Instruments Incorporated
watchdog.asm                                                         PAGE    1

       1                    ;******************************************************************************
       2                    ;* TI ARM C/C++ Codegen                                      Unix v18.1.1.LTS *
       3                    ;* Date/Time created: Fri Jul  3 20:08:26 2020                                *
       4                    ;******************************************************************************
       5                            .compiler_opts --abi=eabi --arm_vmrs_si_workaround=off --code_state=16 --diag_wrap=off --embed
       6 00000000                   .thumb
       7                    
       8                    $C$DW$CU        .dwtag  DW_TAG_compile_unit
       9                            .dwattr $C$DW$CU, DW_AT_name("../driverlib/watchdog.c")
      10                            .dwattr $C$DW$CU, DW_AT_producer("TI TI ARM C/C++ Codegen Unix v18.1.1.LTS Copyright (c) 1996-
      11                            .dwattr $C$DW$CU, DW_AT_TI_version(0x01)
      12                            .dwattr $C$DW$CU, DW_AT_comp_dir("/home/pola/workspace_v8/Microwave/Debug")
      13                    
      14                    $C$DW$1 .dwtag  DW_TAG_subprogram
      15                            .dwattr $C$DW$1, DW_AT_name("IntRegister")
      16                            .dwattr $C$DW$1, DW_AT_TI_symbol_name("IntRegister")
      17                            .dwattr $C$DW$1, DW_AT_declaration
      18                            .dwattr $C$DW$1, DW_AT_external
      19                            .dwattr $C$DW$1, DW_AT_decl_file("/home/pola/workspace_v8/Microwave/driverlib/interrupt.h")
      20                            .dwattr $C$DW$1, DW_AT_decl_line(0x45)
      21                            .dwattr $C$DW$1, DW_AT_decl_column(0x0d)
      22                    $C$DW$2 .dwtag  DW_TAG_formal_parameter
      23                            .dwattr $C$DW$2, DW_AT_type(*$C$DW$T$27)
      24                    
      25                    $C$DW$3 .dwtag  DW_TAG_formal_parameter
      26                            .dwattr $C$DW$3, DW_AT_type(*$C$DW$T$25)
      27                    
      28                            .dwendtag $C$DW$1
      29                    
      30                    
      31                    $C$DW$4 .dwtag  DW_TAG_subprogram
      32                            .dwattr $C$DW$4, DW_AT_name("IntEnable")
      33                            .dwattr $C$DW$4, DW_AT_TI_symbol_name("IntEnable")
      34                            .dwattr $C$DW$4, DW_AT_declaration
      35                            .dwattr $C$DW$4, DW_AT_external
      36                            .dwattr $C$DW$4, DW_AT_decl_file("/home/pola/workspace_v8/Microwave/driverlib/interrupt.h")
      37                            .dwattr $C$DW$4, DW_AT_decl_line(0x4c)
      38                            .dwattr $C$DW$4, DW_AT_decl_column(0x0d)
      39                    $C$DW$5 .dwtag  DW_TAG_formal_parameter
      40                            .dwattr $C$DW$5, DW_AT_type(*$C$DW$T$27)
      41                    
      42                            .dwendtag $C$DW$4
      43                    
      44                    
      45                    $C$DW$6 .dwtag  DW_TAG_subprogram
      46                            .dwattr $C$DW$6, DW_AT_name("IntDisable")
      47                            .dwattr $C$DW$6, DW_AT_TI_symbol_name("IntDisable")
      48                            .dwattr $C$DW$6, DW_AT_declaration
      49                            .dwattr $C$DW$6, DW_AT_external
      50                            .dwattr $C$DW$6, DW_AT_decl_file("/home/pola/workspace_v8/Microwave/driverlib/interrupt.h")
      51                            .dwattr $C$DW$6, DW_AT_decl_line(0x4d)
      52                            .dwattr $C$DW$6, DW_AT_decl_column(0x0d)
      53                    $C$DW$7 .dwtag  DW_TAG_formal_parameter
      54                            .dwattr $C$DW$7, DW_AT_type(*$C$DW$T$27)
      55                    
TI ARM Assembler Unix v18.1.1 Fri Jul  3 20:08:27 2020

Tools Copyright (c) 1996-2017 Texas Instruments Incorporated
watchdog.asm                                                         PAGE    2

      56                            .dwendtag $C$DW$6
      57                    
      58                    
      59                    $C$DW$8 .dwtag  DW_TAG_subprogram
      60                            .dwattr $C$DW$8, DW_AT_name("IntUnregister")
      61                            .dwattr $C$DW$8, DW_AT_TI_symbol_name("IntUnregister")
      62                            .dwattr $C$DW$8, DW_AT_declaration
      63                            .dwattr $C$DW$8, DW_AT_external
      64                            .dwattr $C$DW$8, DW_AT_decl_file("/home/pola/workspace_v8/Microwave/driverlib/interrupt.h")
      65                            .dwattr $C$DW$8, DW_AT_decl_line(0x46)
      66                            .dwattr $C$DW$8, DW_AT_decl_column(0x0d)
      67                    $C$DW$9 .dwtag  DW_TAG_formal_parameter
      68                            .dwattr $C$DW$9, DW_AT_type(*$C$DW$T$27)
      69                    
      70                            .dwendtag $C$DW$8
      71                    
      72                    ;       /home/pola/ti/ccsv8/tools/compiler/ti-cgt-arm_18.1.1.LTS/bin/armacpia -@/tmp/TI3Tc8jQtpp 
      73 00000000                   .sect   ".text"
      74                            .clink
      75                            .thumbfunc WatchdogRunning
      76 00000000                   .thumb
      77                            .global WatchdogRunning
      78                    
      79                    $C$DW$10        .dwtag  DW_TAG_subprogram
      80                            .dwattr $C$DW$10, DW_AT_name("WatchdogRunning")
      81                            .dwattr $C$DW$10, DW_AT_low_pc(WatchdogRunning)
      82                            .dwattr $C$DW$10, DW_AT_high_pc(0x00)
      83                            .dwattr $C$DW$10, DW_AT_TI_symbol_name("WatchdogRunning")
      84                            .dwattr $C$DW$10, DW_AT_external
      85                            .dwattr $C$DW$10, DW_AT_type(*$C$DW$T$110)
      86                            .dwattr $C$DW$10, DW_AT_TI_begin_file("../driverlib/watchdog.c")
      87                            .dwattr $C$DW$10, DW_AT_TI_begin_line(0x46)
      88                            .dwattr $C$DW$10, DW_AT_TI_begin_column(0x01)
      89                            .dwattr $C$DW$10, DW_AT_decl_file("../driverlib/watchdog.c")
      90                            .dwattr $C$DW$10, DW_AT_decl_line(0x46)
      91                            .dwattr $C$DW$10, DW_AT_decl_column(0x01)
      92                            .dwattr $C$DW$10, DW_AT_TI_max_frame_size(0x08)
      93                            .dwpsn  file "../driverlib/watchdog.c",line 71,column 1,is_stmt,address WatchdogRunning,isa 1
      94                    
      95                            .dwfde $C$DW$CIE, WatchdogRunning
      96                    $C$DW$11        .dwtag  DW_TAG_formal_parameter
      97                            .dwattr $C$DW$11, DW_AT_name("ui32Base")
      98                            .dwattr $C$DW$11, DW_AT_TI_symbol_name("ui32Base")
      99                            .dwattr $C$DW$11, DW_AT_type(*$C$DW$T$27)
     100                            .dwattr $C$DW$11, DW_AT_location[DW_OP_reg0]
     101                    
     102                    ;----------------------------------------------------------------------
     103                    ;  70 | WatchdogRunning(uint32_t ui32Base)                                     
     104                    ;----------------------------------------------------------------------
     105                    
     106                    ;*****************************************************************************
     107                    ;* FUNCTION NAME: WatchdogRunning                                            *
     108                    ;*                                                                           *
     109                    ;*   Regs Modified     : A1,A2,SP,SR                                         *
     110                    ;*   Regs Used         : A1,A2,SP,LR,SR                                      *
TI ARM Assembler Unix v18.1.1 Fri Jul  3 20:08:27 2020

Tools Copyright (c) 1996-2017 Texas Instruments Incorporated
watchdog.asm                                                         PAGE    3

     111                    ;*   Local Frame Size  : 0 Args + 4 Auto + 0 Save = 4 byte                   *
     112                    ;*****************************************************************************
     113 00000000           WatchdogRunning:
     114                    ;* --------------------------------------------------------------------------*
     115                            .dwcfi  cfa_offset, 0
     116 00000000 0D08F1AD          SUB       SP, SP, #8            ; [DPU_V7M3_PIPE]  ; [KEEP 32-BIT INS]
     117                            .dwcfi  cfa_offset, 8
     118                    $C$DW$12        .dwtag  DW_TAG_variable
     119                            .dwattr $C$DW$12, DW_AT_name("ui32Base")
     120                            .dwattr $C$DW$12, DW_AT_TI_symbol_name("ui32Base")
     121                            .dwattr $C$DW$12, DW_AT_type(*$C$DW$T$27)
     122                            .dwattr $C$DW$12, DW_AT_location[DW_OP_breg13 0]
     123                    
     124                    ;----------------------------------------------------------------------
     125                    ;  72 | //                                                                     
     126                    ;  73 | // Check the arguments.                                                
     127                    ;  74 | //                                                                     
     128                    ;  75 | ASSERT((ui32Base == WATCHDOG0_BASE) || (ui32Base == WATCHDOG1_BASE));  
     129                    ;  77 | //                                                                     
     130                    ;  78 | // See if the watchdog timer module is enabled, and return.            
     131                    ;  79 | //                                                                     
     132                    ;----------------------------------------------------------------------
     133 00000004 9000              STR       A1, [SP, #0]          ; [DPU_V7M3_PIPE] |71|  ; [ORIG 16-BIT INS]
     134                            .dwpsn  file "../driverlib/watchdog.c",line 80,column 5,is_stmt,isa 1
     135                    ;----------------------------------------------------------------------
     136                    ;  80 | return(HWREG(ui32Base + WDT_O_CTL) & WDT_CTL_INTEN);                   
     137                    ;----------------------------------------------------------------------
     138 00000006 9800              LDR       A1, [SP, #0]          ; [DPU_V7M3_PIPE] |80|  ; [ORIG 16-BIT INS]
     139 00000008 6881              LDR       A2, [A1, #8]          ; [DPU_V7M3_PIPE] |80|  ; [ORIG 16-BIT INS]
     140 0000000a 2000              MOVS      A1, #0                ; [DPU_V7M3_PIPE] |80|  ; [ORIG 16-BIT INS]
     141 0000000c 0849              LSRS      A2, A2, #1            ; [DPU_V7M3_PIPE] |80|  ; [ORIG 16-BIT INS]
     142 0000000e D300              BCC       ||$C$L1||             ; [DPU_V7M3_PIPE] |80|  ; [ORIG 16-BIT INS]
     143                            ; BRANCHCC OCCURS {||$C$L1||}    ; [] |80| 
     144                    ;* --------------------------------------------------------------------------*
     145 00000010 2001              MOVS      A1, #1                ; [DPU_V7M3_PIPE] |80|  ; [ORIG 16-BIT INS]
     146                    ;* --------------------------------------------------------------------------*
     147 00000012           ||$C$L1||:    
     148                            .dwpsn  file "../driverlib/watchdog.c",line 81,column 1,is_stmt,isa 1
     149 00000012 B002              ADD       SP, SP, #8            ; [DPU_V7M3_PIPE]  ; [ORIG 16-BIT INS]
     150                            .dwcfi  cfa_offset, 0
     151                    $C$DW$13        .dwtag  DW_TAG_TI_branch
     152                            .dwattr $C$DW$13, DW_AT_low_pc(0x00)
     153                            .dwattr $C$DW$13, DW_AT_TI_return
     154                    
     155 00000014 4770              BX        LR                    ; [DPU_V7M3_PIPE]  ; [ORIG 16-BIT INS]
     156                            ; BRANCH OCCURS                  ; [] 
     157                            .dwattr $C$DW$10, DW_AT_TI_end_file("../driverlib/watchdog.c")
     158                            .dwattr $C$DW$10, DW_AT_TI_end_line(0x51)
     159                            .dwattr $C$DW$10, DW_AT_TI_end_column(0x01)
     160                            .dwendentry
     161                            .dwendtag $C$DW$10
     162                    
     163 00000016                   .sect   ".text"
     164                            .clink
     165                            .thumbfunc WatchdogEnable
TI ARM Assembler Unix v18.1.1 Fri Jul  3 20:08:27 2020

Tools Copyright (c) 1996-2017 Texas Instruments Incorporated
watchdog.asm                                                         PAGE    4

     166 00000016                   .thumb
     167                            .global WatchdogEnable
     168                    
     169                    $C$DW$14        .dwtag  DW_TAG_subprogram
     170                            .dwattr $C$DW$14, DW_AT_name("WatchdogEnable")
     171                            .dwattr $C$DW$14, DW_AT_low_pc(WatchdogEnable)
     172                            .dwattr $C$DW$14, DW_AT_high_pc(0x00)
     173                            .dwattr $C$DW$14, DW_AT_TI_symbol_name("WatchdogEnable")
     174                            .dwattr $C$DW$14, DW_AT_external
     175                            .dwattr $C$DW$14, DW_AT_TI_begin_file("../driverlib/watchdog.c")
     176                            .dwattr $C$DW$14, DW_AT_TI_begin_line(0x61)
     177                            .dwattr $C$DW$14, DW_AT_TI_begin_column(0x01)
     178                            .dwattr $C$DW$14, DW_AT_decl_file("../driverlib/watchdog.c")
     179                            .dwattr $C$DW$14, DW_AT_decl_line(0x61)
     180                            .dwattr $C$DW$14, DW_AT_decl_column(0x01)
     181                            .dwattr $C$DW$14, DW_AT_TI_max_frame_size(0x08)
     182                            .dwpsn  file "../driverlib/watchdog.c",line 98,column 1,is_stmt,address WatchdogEnable,isa 1
     183                    
     184                            .dwfde $C$DW$CIE, WatchdogEnable
     185                    $C$DW$15        .dwtag  DW_TAG_formal_parameter
     186                            .dwattr $C$DW$15, DW_AT_name("ui32Base")
     187                            .dwattr $C$DW$15, DW_AT_TI_symbol_name("ui32Base")
     188                            .dwattr $C$DW$15, DW_AT_type(*$C$DW$T$27)
     189                            .dwattr $C$DW$15, DW_AT_location[DW_OP_reg0]
     190                    
     191                    ;----------------------------------------------------------------------
     192                    ;  97 | WatchdogEnable(uint32_t ui32Base)                                      
     193                    ;----------------------------------------------------------------------
     194                    
     195                    ;*****************************************************************************
     196                    ;* FUNCTION NAME: WatchdogEnable                                             *
     197                    ;*                                                                           *
     198                    ;*   Regs Modified     : A1,A2,SP,SR                                         *
     199                    ;*   Regs Used         : A1,A2,SP,LR,SR                                      *
     200                    ;*   Local Frame Size  : 0 Args + 4 Auto + 0 Save = 4 byte                   *
     201                    ;*****************************************************************************
     202 00000016           WatchdogEnable:
     203                    ;* --------------------------------------------------------------------------*
     204                            .dwcfi  cfa_offset, 0
     205 00000016 0D08F1AD          SUB       SP, SP, #8            ; [DPU_V7M3_PIPE]  ; [KEEP 32-BIT INS]
     206                            .dwcfi  cfa_offset, 8
     207                    $C$DW$16        .dwtag  DW_TAG_variable
     208                            .dwattr $C$DW$16, DW_AT_name("ui32Base")
     209                            .dwattr $C$DW$16, DW_AT_TI_symbol_name("ui32Base")
     210                            .dwattr $C$DW$16, DW_AT_type(*$C$DW$T$27)
     211                            .dwattr $C$DW$16, DW_AT_location[DW_OP_breg13 0]
     212                    
     213                    ;----------------------------------------------------------------------
     214                    ;  99 | //                                                                     
     215                    ; 100 | // Check the arguments.                                                
     216                    ; 101 | //                                                                     
     217                    ; 102 | ASSERT((ui32Base == WATCHDOG0_BASE) || (ui32Base == WATCHDOG1_BASE));  
     218                    ; 104 | //                                                                     
     219                    ; 105 | // Enable the watchdog timer module.                                   
     220                    ; 106 | //                                                                     
TI ARM Assembler Unix v18.1.1 Fri Jul  3 20:08:27 2020

Tools Copyright (c) 1996-2017 Texas Instruments Incorporated
watchdog.asm                                                         PAGE    5

     221                    ;----------------------------------------------------------------------
     222 0000001a 9000              STR       A1, [SP, #0]          ; [DPU_V7M3_PIPE] |98|  ; [ORIG 16-BIT INS]
     223                            .dwpsn  file "../driverlib/watchdog.c",line 107,column 5,is_stmt,isa 1
     224                    ;----------------------------------------------------------------------
     225                    ; 107 | HWREG(ui32Base + WDT_O_CTL) |= WDT_CTL_INTEN;                          
     226                    ;----------------------------------------------------------------------
     227 0000001c 9800              LDR       A1, [SP, #0]          ; [DPU_V7M3_PIPE] |107|  ; [ORIG 16-BIT INS]
     228 0000001e 3008              ADDS      A1, A1, #8            ; [DPU_V7M3_PIPE] |107|  ; [ORIG 16-BIT INS]
     229 00000020 6801              LDR       A2, [A1, #0]          ; [DPU_V7M3_PIPE] |107|  ; [ORIG 16-BIT INS]
     230 00000022 0101F041          ORR       A2, A2, #1            ; [DPU_V7M3_PIPE] |107|  ; [KEEP 32-BIT INS]
     231 00000026 6001              STR       A2, [A1, #0]          ; [DPU_V7M3_PIPE] |107|  ; [ORIG 16-BIT INS]
     232                            .dwpsn  file "../driverlib/watchdog.c",line 108,column 1,is_stmt,isa 1
     233 00000028 B002              ADD       SP, SP, #8            ; [DPU_V7M3_PIPE]  ; [ORIG 16-BIT INS]
     234                            .dwcfi  cfa_offset, 0
     235                    $C$DW$17        .dwtag  DW_TAG_TI_branch
     236                            .dwattr $C$DW$17, DW_AT_low_pc(0x00)
     237                            .dwattr $C$DW$17, DW_AT_TI_return
     238                    
     239 0000002a 4770              BX        LR                    ; [DPU_V7M3_PIPE]  ; [ORIG 16-BIT INS]
     240                            ; BRANCH OCCURS                  ; [] 
     241                            .dwattr $C$DW$14, DW_AT_TI_end_file("../driverlib/watchdog.c")
     242                            .dwattr $C$DW$14, DW_AT_TI_end_line(0x6c)
     243                            .dwattr $C$DW$14, DW_AT_TI_end_column(0x01)
     244                            .dwendentry
     245                            .dwendtag $C$DW$14
     246                    
     247 0000002c                   .sect   ".text"
     248                            .clink
     249                            .thumbfunc WatchdogResetEnable
     250 0000002c                   .thumb
     251                            .global WatchdogResetEnable
     252                    
     253                    $C$DW$18        .dwtag  DW_TAG_subprogram
     254                            .dwattr $C$DW$18, DW_AT_name("WatchdogResetEnable")
     255                            .dwattr $C$DW$18, DW_AT_low_pc(WatchdogResetEnable)
     256                            .dwattr $C$DW$18, DW_AT_high_pc(0x00)
     257                            .dwattr $C$DW$18, DW_AT_TI_symbol_name("WatchdogResetEnable")
     258                            .dwattr $C$DW$18, DW_AT_external
     259                            .dwattr $C$DW$18, DW_AT_TI_begin_file("../driverlib/watchdog.c")
     260                            .dwattr $C$DW$18, DW_AT_TI_begin_line(0x7d)
     261                            .dwattr $C$DW$18, DW_AT_TI_begin_column(0x01)
     262                            .dwattr $C$DW$18, DW_AT_decl_file("../driverlib/watchdog.c")
     263                            .dwattr $C$DW$18, DW_AT_decl_line(0x7d)
     264                            .dwattr $C$DW$18, DW_AT_decl_column(0x01)
     265                            .dwattr $C$DW$18, DW_AT_TI_max_frame_size(0x08)
     266                            .dwpsn  file "../driverlib/watchdog.c",line 126,column 1,is_stmt,address WatchdogResetEnable,i
     267                    
     268                            .dwfde $C$DW$CIE, WatchdogResetEnable
     269                    $C$DW$19        .dwtag  DW_TAG_formal_parameter
     270                            .dwattr $C$DW$19, DW_AT_name("ui32Base")
     271                            .dwattr $C$DW$19, DW_AT_TI_symbol_name("ui32Base")
     272                            .dwattr $C$DW$19, DW_AT_type(*$C$DW$T$27)
     273                            .dwattr $C$DW$19, DW_AT_location[DW_OP_reg0]
     274                    
     275                    ;----------------------------------------------------------------------
TI ARM Assembler Unix v18.1.1 Fri Jul  3 20:08:27 2020

Tools Copyright (c) 1996-2017 Texas Instruments Incorporated
watchdog.asm                                                         PAGE    6

     276                    ; 125 | WatchdogResetEnable(uint32_t ui32Base)                                 
     277                    ;----------------------------------------------------------------------
     278                    
     279                    ;*****************************************************************************
     280                    ;* FUNCTION NAME: WatchdogResetEnable                                        *
     281                    ;*                                                                           *
     282                    ;*   Regs Modified     : A1,A2,SP,SR                                         *
     283                    ;*   Regs Used         : A1,A2,SP,LR,SR                                      *
     284                    ;*   Local Frame Size  : 0 Args + 4 Auto + 0 Save = 4 byte                   *
     285                    ;*****************************************************************************
     286 0000002c           WatchdogResetEnable:
     287                    ;* --------------------------------------------------------------------------*
     288                            .dwcfi  cfa_offset, 0
     289 0000002c 0D08F1AD          SUB       SP, SP, #8            ; [DPU_V7M3_PIPE]  ; [KEEP 32-BIT INS]
     290                            .dwcfi  cfa_offset, 8
     291                    $C$DW$20        .dwtag  DW_TAG_variable
     292                            .dwattr $C$DW$20, DW_AT_name("ui32Base")
     293                            .dwattr $C$DW$20, DW_AT_TI_symbol_name("ui32Base")
     294                            .dwattr $C$DW$20, DW_AT_type(*$C$DW$T$27)
     295                            .dwattr $C$DW$20, DW_AT_location[DW_OP_breg13 0]
     296                    
     297                    ;----------------------------------------------------------------------
     298                    ; 127 | //                                                                     
     299                    ; 128 | // Check the arguments.                                                
     300                    ; 129 | //                                                                     
     301                    ; 130 | ASSERT((ui32Base == WATCHDOG0_BASE) || (ui32Base == WATCHDOG1_BASE));  
     302                    ; 132 | //                                                                     
     303                    ; 133 | // Enable the watchdog reset.                                          
     304                    ; 134 | //                                                                     
     305                    ;----------------------------------------------------------------------
     306 00000030 9000              STR       A1, [SP, #0]          ; [DPU_V7M3_PIPE] |126|  ; [ORIG 16-BIT INS]
     307                            .dwpsn  file "../driverlib/watchdog.c",line 135,column 5,is_stmt,isa 1
     308                    ;----------------------------------------------------------------------
     309                    ; 135 | HWREG(ui32Base + WDT_O_CTL) |= WDT_CTL_RESEN;                          
     310                    ;----------------------------------------------------------------------
     311 00000032 9800              LDR       A1, [SP, #0]          ; [DPU_V7M3_PIPE] |135|  ; [ORIG 16-BIT INS]
     312 00000034 3008              ADDS      A1, A1, #8            ; [DPU_V7M3_PIPE] |135|  ; [ORIG 16-BIT INS]
     313 00000036 6801              LDR       A2, [A1, #0]          ; [DPU_V7M3_PIPE] |135|  ; [ORIG 16-BIT INS]
     314 00000038 0102F041          ORR       A2, A2, #2            ; [DPU_V7M3_PIPE] |135|  ; [KEEP 32-BIT INS]
     315 0000003c 6001              STR       A2, [A1, #0]          ; [DPU_V7M3_PIPE] |135|  ; [ORIG 16-BIT INS]
     316                            .dwpsn  file "../driverlib/watchdog.c",line 136,column 1,is_stmt,isa 1
     317 0000003e B002              ADD       SP, SP, #8            ; [DPU_V7M3_PIPE]  ; [ORIG 16-BIT INS]
     318                            .dwcfi  cfa_offset, 0
     319                    $C$DW$21        .dwtag  DW_TAG_TI_branch
     320                            .dwattr $C$DW$21, DW_AT_low_pc(0x00)
     321                            .dwattr $C$DW$21, DW_AT_TI_return
     322                    
     323 00000040 4770              BX        LR                    ; [DPU_V7M3_PIPE]  ; [ORIG 16-BIT INS]
     324                            ; BRANCH OCCURS                  ; [] 
     325                            .dwattr $C$DW$18, DW_AT_TI_end_file("../driverlib/watchdog.c")
     326                            .dwattr $C$DW$18, DW_AT_TI_end_line(0x88)
     327                            .dwattr $C$DW$18, DW_AT_TI_end_column(0x01)
     328                            .dwendentry
     329                            .dwendtag $C$DW$18
     330                    
TI ARM Assembler Unix v18.1.1 Fri Jul  3 20:08:27 2020

Tools Copyright (c) 1996-2017 Texas Instruments Incorporated
watchdog.asm                                                         PAGE    7

     331 00000042                   .sect   ".text"
     332                            .clink
     333                            .thumbfunc WatchdogResetDisable
     334 00000042                   .thumb
     335                            .global WatchdogResetDisable
     336                    
     337                    $C$DW$22        .dwtag  DW_TAG_subprogram
     338                            .dwattr $C$DW$22, DW_AT_name("WatchdogResetDisable")
     339                            .dwattr $C$DW$22, DW_AT_low_pc(WatchdogResetDisable)
     340                            .dwattr $C$DW$22, DW_AT_high_pc(0x00)
     341                            .dwattr $C$DW$22, DW_AT_TI_symbol_name("WatchdogResetDisable")
     342                            .dwattr $C$DW$22, DW_AT_external
     343                            .dwattr $C$DW$22, DW_AT_TI_begin_file("../driverlib/watchdog.c")
     344                            .dwattr $C$DW$22, DW_AT_TI_begin_line(0x99)
     345                            .dwattr $C$DW$22, DW_AT_TI_begin_column(0x01)
     346                            .dwattr $C$DW$22, DW_AT_decl_file("../driverlib/watchdog.c")
     347                            .dwattr $C$DW$22, DW_AT_decl_line(0x99)
     348                            .dwattr $C$DW$22, DW_AT_decl_column(0x01)
     349                            .dwattr $C$DW$22, DW_AT_TI_max_frame_size(0x08)
     350                            .dwpsn  file "../driverlib/watchdog.c",line 154,column 1,is_stmt,address WatchdogResetDisable,
     351                    
     352                            .dwfde $C$DW$CIE, WatchdogResetDisable
     353                    $C$DW$23        .dwtag  DW_TAG_formal_parameter
     354                            .dwattr $C$DW$23, DW_AT_name("ui32Base")
     355                            .dwattr $C$DW$23, DW_AT_TI_symbol_name("ui32Base")
     356                            .dwattr $C$DW$23, DW_AT_type(*$C$DW$T$27)
     357                            .dwattr $C$DW$23, DW_AT_location[DW_OP_reg0]
     358                    
     359                    ;----------------------------------------------------------------------
     360                    ; 153 | WatchdogResetDisable(uint32_t ui32Base)                                
     361                    ;----------------------------------------------------------------------
     362                    
     363                    ;*****************************************************************************
     364                    ;* FUNCTION NAME: WatchdogResetDisable                                       *
     365                    ;*                                                                           *
     366                    ;*   Regs Modified     : A1,A2,SP,SR                                         *
     367                    ;*   Regs Used         : A1,A2,SP,LR,SR                                      *
     368                    ;*   Local Frame Size  : 0 Args + 4 Auto + 0 Save = 4 byte                   *
     369                    ;*****************************************************************************
     370 00000042           WatchdogResetDisable:
     371                    ;* --------------------------------------------------------------------------*
     372                            .dwcfi  cfa_offset, 0
     373 00000042 0D08F1AD          SUB       SP, SP, #8            ; [DPU_V7M3_PIPE]  ; [KEEP 32-BIT INS]
     374                            .dwcfi  cfa_offset, 8
     375                    $C$DW$24        .dwtag  DW_TAG_variable
     376                            .dwattr $C$DW$24, DW_AT_name("ui32Base")
     377                            .dwattr $C$DW$24, DW_AT_TI_symbol_name("ui32Base")
     378                            .dwattr $C$DW$24, DW_AT_type(*$C$DW$T$27)
     379                            .dwattr $C$DW$24, DW_AT_location[DW_OP_breg13 0]
     380                    
     381                    ;----------------------------------------------------------------------
     382                    ; 155 | //                                                                     
     383                    ; 156 | // Check the arguments.                                                
     384                    ; 157 | //                                                                     
     385                    ; 158 | ASSERT((ui32Base == WATCHDOG0_BASE) || (ui32Base == WATCHDOG1_BASE));  
TI ARM Assembler Unix v18.1.1 Fri Jul  3 20:08:27 2020

Tools Copyright (c) 1996-2017 Texas Instruments Incorporated
watchdog.asm                                                         PAGE    8

     386                    ; 160 | //                                                                     
     387                    ; 161 | // Disable the watchdog reset.                                         
     388                    ; 162 | //                                                                     
     389                    ;----------------------------------------------------------------------
     390 00000046 9000              STR       A1, [SP, #0]          ; [DPU_V7M3_PIPE] |154|  ; [ORIG 16-BIT INS]
     391                            .dwpsn  file "../driverlib/watchdog.c",line 163,column 5,is_stmt,isa 1
     392                    ;----------------------------------------------------------------------
     393                    ; 163 | HWREG(ui32Base + WDT_O_CTL) &= ~(WDT_CTL_RESEN);                       
     394                    ;----------------------------------------------------------------------
     395 00000048 9800              LDR       A1, [SP, #0]          ; [DPU_V7M3_PIPE] |163|  ; [ORIG 16-BIT INS]
     396 0000004a 3008              ADDS      A1, A1, #8            ; [DPU_V7M3_PIPE] |163|  ; [ORIG 16-BIT INS]
     397 0000004c 6801              LDR       A2, [A1, #0]          ; [DPU_V7M3_PIPE] |163|  ; [ORIG 16-BIT INS]
     398 0000004e 0102F021          BIC       A2, A2, #2            ; [DPU_V7M3_PIPE] |163|  ; [KEEP 32-BIT INS]
     399 00000052 6001              STR       A2, [A1, #0]          ; [DPU_V7M3_PIPE] |163|  ; [ORIG 16-BIT INS]
     400                            .dwpsn  file "../driverlib/watchdog.c",line 164,column 1,is_stmt,isa 1
     401 00000054 B002              ADD       SP, SP, #8            ; [DPU_V7M3_PIPE]  ; [ORIG 16-BIT INS]
     402                            .dwcfi  cfa_offset, 0
     403                    $C$DW$25        .dwtag  DW_TAG_TI_branch
     404                            .dwattr $C$DW$25, DW_AT_low_pc(0x00)
     405                            .dwattr $C$DW$25, DW_AT_TI_return
     406                    
     407 00000056 4770              BX        LR                    ; [DPU_V7M3_PIPE]  ; [ORIG 16-BIT INS]
     408                            ; BRANCH OCCURS                  ; [] 
     409                            .dwattr $C$DW$22, DW_AT_TI_end_file("../driverlib/watchdog.c")
     410                            .dwattr $C$DW$22, DW_AT_TI_end_line(0xa4)
     411                            .dwattr $C$DW$22, DW_AT_TI_end_column(0x01)
     412                            .dwendentry
     413                            .dwendtag $C$DW$22
     414                    
     415 00000058                   .sect   ".text"
     416                            .clink
     417                            .thumbfunc WatchdogLock
     418 00000058                   .thumb
     419                            .global WatchdogLock
     420                    
     421                    $C$DW$26        .dwtag  DW_TAG_subprogram
     422                            .dwattr $C$DW$26, DW_AT_name("WatchdogLock")
     423                            .dwattr $C$DW$26, DW_AT_low_pc(WatchdogLock)
     424                            .dwattr $C$DW$26, DW_AT_high_pc(0x00)
     425                            .dwattr $C$DW$26, DW_AT_TI_symbol_name("WatchdogLock")
     426                            .dwattr $C$DW$26, DW_AT_external
     427                            .dwattr $C$DW$26, DW_AT_TI_begin_file("../driverlib/watchdog.c")
     428                            .dwattr $C$DW$26, DW_AT_TI_begin_line(0xb2)
     429                            .dwattr $C$DW$26, DW_AT_TI_begin_column(0x01)
     430                            .dwattr $C$DW$26, DW_AT_decl_file("../driverlib/watchdog.c")
     431                            .dwattr $C$DW$26, DW_AT_decl_line(0xb2)
     432                            .dwattr $C$DW$26, DW_AT_decl_column(0x01)
     433                            .dwattr $C$DW$26, DW_AT_TI_max_frame_size(0x08)
     434                            .dwpsn  file "../driverlib/watchdog.c",line 179,column 1,is_stmt,address WatchdogLock,isa 1
     435                    
     436                            .dwfde $C$DW$CIE, WatchdogLock
     437                    $C$DW$27        .dwtag  DW_TAG_formal_parameter
     438                            .dwattr $C$DW$27, DW_AT_name("ui32Base")
     439                            .dwattr $C$DW$27, DW_AT_TI_symbol_name("ui32Base")
     440                            .dwattr $C$DW$27, DW_AT_type(*$C$DW$T$27)
TI ARM Assembler Unix v18.1.1 Fri Jul  3 20:08:27 2020

Tools Copyright (c) 1996-2017 Texas Instruments Incorporated
watchdog.asm                                                         PAGE    9

     441                            .dwattr $C$DW$27, DW_AT_location[DW_OP_reg0]
     442                    
     443                    ;----------------------------------------------------------------------
     444                    ; 178 | WatchdogLock(uint32_t ui32Base)                                        
     445                    ;----------------------------------------------------------------------
     446                    
     447                    ;*****************************************************************************
     448                    ;* FUNCTION NAME: WatchdogLock                                               *
     449                    ;*                                                                           *
     450                    ;*   Regs Modified     : A1,A2,SP,SR                                         *
     451                    ;*   Regs Used         : A1,A2,SP,LR,SR                                      *
     452                    ;*   Local Frame Size  : 0 Args + 4 Auto + 0 Save = 4 byte                   *
     453                    ;*****************************************************************************
     454 00000058           WatchdogLock:
     455                    ;* --------------------------------------------------------------------------*
     456                            .dwcfi  cfa_offset, 0
     457 00000058 0D08F1AD          SUB       SP, SP, #8            ; [DPU_V7M3_PIPE]  ; [KEEP 32-BIT INS]
     458                            .dwcfi  cfa_offset, 8
     459                    $C$DW$28        .dwtag  DW_TAG_variable
     460                            .dwattr $C$DW$28, DW_AT_name("ui32Base")
     461                            .dwattr $C$DW$28, DW_AT_TI_symbol_name("ui32Base")
     462                            .dwattr $C$DW$28, DW_AT_type(*$C$DW$T$27)
     463                            .dwattr $C$DW$28, DW_AT_location[DW_OP_breg13 0]
     464                    
     465                    ;----------------------------------------------------------------------
     466                    ; 180 | //                                                                     
     467                    ; 181 | // Check the arguments.                                                
     468                    ; 182 | //                                                                     
     469                    ; 183 | ASSERT((ui32Base == WATCHDOG0_BASE) || (ui32Base == WATCHDOG1_BASE));  
     470                    ; 185 | //                                                                     
     471                    ; 186 | // Lock out watchdog register writes.  Writing anything to the WDT_O_LO
     472                    ;     | CK                                                                     
     473                    ; 187 | // register causes the lock to go into effect.                         
     474                    ; 188 | //                                                                     
     475                    ;----------------------------------------------------------------------
     476 0000005c 9000              STR       A1, [SP, #0]          ; [DPU_V7M3_PIPE] |179|  ; [ORIG 16-BIT INS]
     477                            .dwpsn  file "../driverlib/watchdog.c",line 189,column 5,is_stmt,isa 1
     478                    ;----------------------------------------------------------------------
     479                    ; 189 | HWREG(ui32Base + WDT_O_LOCK) = WDT_LOCK_LOCKED;                        
     480                    ;----------------------------------------------------------------------
     481 0000005e 9900              LDR       A2, [SP, #0]          ; [DPU_V7M3_PIPE] |189|  ; [ORIG 16-BIT INS]
     482 00000060 2001              MOVS      A1, #1                ; [DPU_V7M3_PIPE] |189|  ; [ORIG 16-BIT INS]
     483 00000062 0C00F8C1          STR       A1, [A2, #3072]       ; [DPU_V7M3_PIPE] |189|  ; [KEEP 32-BIT INS]
     484                            .dwpsn  file "../driverlib/watchdog.c",line 190,column 1,is_stmt,isa 1
     485 00000066 B002              ADD       SP, SP, #8            ; [DPU_V7M3_PIPE]  ; [ORIG 16-BIT INS]
     486                            .dwcfi  cfa_offset, 0
     487                    $C$DW$29        .dwtag  DW_TAG_TI_branch
     488                            .dwattr $C$DW$29, DW_AT_low_pc(0x00)
     489                            .dwattr $C$DW$29, DW_AT_TI_return
     490                    
     491 00000068 4770              BX        LR                    ; [DPU_V7M3_PIPE]  ; [ORIG 16-BIT INS]
     492                            ; BRANCH OCCURS                  ; [] 
     493                            .dwattr $C$DW$26, DW_AT_TI_end_file("../driverlib/watchdog.c")
     494                            .dwattr $C$DW$26, DW_AT_TI_end_line(0xbe)
     495                            .dwattr $C$DW$26, DW_AT_TI_end_column(0x01)
TI ARM Assembler Unix v18.1.1 Fri Jul  3 20:08:27 2020

Tools Copyright (c) 1996-2017 Texas Instruments Incorporated
watchdog.asm                                                         PAGE   10

     496                            .dwendentry
     497                            .dwendtag $C$DW$26
     498                    
     499 0000006a                   .sect   ".text"
     500                            .clink
     501                            .thumbfunc WatchdogUnlock
     502 0000006a                   .thumb
     503                            .global WatchdogUnlock
     504                    
     505                    $C$DW$30        .dwtag  DW_TAG_subprogram
     506                            .dwattr $C$DW$30, DW_AT_name("WatchdogUnlock")
     507                            .dwattr $C$DW$30, DW_AT_low_pc(WatchdogUnlock)
     508                            .dwattr $C$DW$30, DW_AT_high_pc(0x00)
     509                            .dwattr $C$DW$30, DW_AT_TI_symbol_name("WatchdogUnlock")
     510                            .dwattr $C$DW$30, DW_AT_external
     511                            .dwattr $C$DW$30, DW_AT_TI_begin_file("../driverlib/watchdog.c")
     512                            .dwattr $C$DW$30, DW_AT_TI_begin_line(0xcc)
     513                            .dwattr $C$DW$30, DW_AT_TI_begin_column(0x01)
     514                            .dwattr $C$DW$30, DW_AT_decl_file("../driverlib/watchdog.c")
     515                            .dwattr $C$DW$30, DW_AT_decl_line(0xcc)
     516                            .dwattr $C$DW$30, DW_AT_decl_column(0x01)
     517                            .dwattr $C$DW$30, DW_AT_TI_max_frame_size(0x08)
     518                            .dwpsn  file "../driverlib/watchdog.c",line 205,column 1,is_stmt,address WatchdogUnlock,isa 1
     519                    
     520                            .dwfde $C$DW$CIE, WatchdogUnlock
     521                    $C$DW$31        .dwtag  DW_TAG_formal_parameter
     522                            .dwattr $C$DW$31, DW_AT_name("ui32Base")
     523                            .dwattr $C$DW$31, DW_AT_TI_symbol_name("ui32Base")
     524                            .dwattr $C$DW$31, DW_AT_type(*$C$DW$T$27)
     525                            .dwattr $C$DW$31, DW_AT_location[DW_OP_reg0]
     526                    
     527                    ;----------------------------------------------------------------------
     528                    ; 204 | WatchdogUnlock(uint32_t ui32Base)                                      
     529                    ;----------------------------------------------------------------------
     530                    
     531                    ;*****************************************************************************
     532                    ;* FUNCTION NAME: WatchdogUnlock                                             *
     533                    ;*                                                                           *
     534                    ;*   Regs Modified     : A1,A2,SP                                            *
     535                    ;*   Regs Used         : A1,A2,SP,LR                                         *
     536                    ;*   Local Frame Size  : 0 Args + 4 Auto + 0 Save = 4 byte                   *
     537                    ;*****************************************************************************
     538 0000006a           WatchdogUnlock:
     539                    ;* --------------------------------------------------------------------------*
     540                            .dwcfi  cfa_offset, 0
     541 0000006a 0D08F1AD          SUB       SP, SP, #8            ; [DPU_V7M3_PIPE]  ; [KEEP 32-BIT INS]
     542                            .dwcfi  cfa_offset, 8
     543                    $C$DW$32        .dwtag  DW_TAG_variable
     544                            .dwattr $C$DW$32, DW_AT_name("ui32Base")
     545                            .dwattr $C$DW$32, DW_AT_TI_symbol_name("ui32Base")
     546                            .dwattr $C$DW$32, DW_AT_type(*$C$DW$T$27)
     547                            .dwattr $C$DW$32, DW_AT_location[DW_OP_breg13 0]
     548                    
     549                    ;----------------------------------------------------------------------
     550                    ; 206 | //                                                                     
TI ARM Assembler Unix v18.1.1 Fri Jul  3 20:08:27 2020

Tools Copyright (c) 1996-2017 Texas Instruments Incorporated
watchdog.asm                                                         PAGE   11

     551                    ; 207 | // Check the arguments.                                                
     552                    ; 208 | //                                                                     
     553                    ; 209 | ASSERT((ui32Base == WATCHDOG0_BASE) || (ui32Base == WATCHDOG1_BASE));  
     554                    ; 211 | //                                                                     
     555                    ; 212 | // Unlock watchdog register writes.                                    
     556                    ; 213 | //                                                                     
     557                    ;----------------------------------------------------------------------
     558 0000006e 9000              STR       A1, [SP, #0]          ; [DPU_V7M3_PIPE] |205|  ; [ORIG 16-BIT INS]
     559                            .dwpsn  file "../driverlib/watchdog.c",line 214,column 5,is_stmt,isa 1
     560                    ;----------------------------------------------------------------------
     561                    ; 214 | HWREG(ui32Base + WDT_O_LOCK) = WDT_LOCK_UNLOCK;                        
     562                    ;----------------------------------------------------------------------
     563 00000070 4844              LDR       A1, $C$CON1           ; [DPU_V7M3_PIPE] |214|  ; [ORIG 16-BIT INS]
     564 00000072 9900              LDR       A2, [SP, #0]          ; [DPU_V7M3_PIPE] |214|  ; [ORIG 16-BIT INS]
     565 00000074 0C00F8C1          STR       A1, [A2, #3072]       ; [DPU_V7M3_PIPE] |214|  ; [KEEP 32-BIT INS]
     566                            .dwpsn  file "../driverlib/watchdog.c",line 215,column 1,is_stmt,isa 1
     567 00000078 B002              ADD       SP, SP, #8            ; [DPU_V7M3_PIPE]  ; [ORIG 16-BIT INS]
     568                            .dwcfi  cfa_offset, 0
     569                    $C$DW$33        .dwtag  DW_TAG_TI_branch
     570                            .dwattr $C$DW$33, DW_AT_low_pc(0x00)
     571                            .dwattr $C$DW$33, DW_AT_TI_return
     572                    
     573 0000007a 4770              BX        LR                    ; [DPU_V7M3_PIPE]  ; [ORIG 16-BIT INS]
     574                            ; BRANCH OCCURS                  ; [] 
     575                            .dwattr $C$DW$30, DW_AT_TI_end_file("../driverlib/watchdog.c")
     576                            .dwattr $C$DW$30, DW_AT_TI_end_line(0xd7)
     577                            .dwattr $C$DW$30, DW_AT_TI_end_column(0x01)
     578                            .dwendentry
     579                            .dwendtag $C$DW$30
     580                    
     581 0000007c                   .sect   ".text"
     582                            .clink
     583                            .thumbfunc WatchdogLockState
     584 0000007c                   .thumb
     585                            .global WatchdogLockState
     586                    
     587                    $C$DW$34        .dwtag  DW_TAG_subprogram
     588                            .dwattr $C$DW$34, DW_AT_name("WatchdogLockState")
     589                            .dwattr $C$DW$34, DW_AT_low_pc(WatchdogLockState)
     590                            .dwattr $C$DW$34, DW_AT_high_pc(0x00)
     591                            .dwattr $C$DW$34, DW_AT_TI_symbol_name("WatchdogLockState")
     592                            .dwattr $C$DW$34, DW_AT_external
     593                            .dwattr $C$DW$34, DW_AT_type(*$C$DW$T$110)
     594                            .dwattr $C$DW$34, DW_AT_TI_begin_file("../driverlib/watchdog.c")
     595                            .dwattr $C$DW$34, DW_AT_TI_begin_line(0xe6)
     596                            .dwattr $C$DW$34, DW_AT_TI_begin_column(0x01)
     597                            .dwattr $C$DW$34, DW_AT_decl_file("../driverlib/watchdog.c")
     598                            .dwattr $C$DW$34, DW_AT_decl_line(0xe6)
     599                            .dwattr $C$DW$34, DW_AT_decl_column(0x01)
     600                            .dwattr $C$DW$34, DW_AT_TI_max_frame_size(0x08)
     601                            .dwpsn  file "../driverlib/watchdog.c",line 231,column 1,is_stmt,address WatchdogLockState,isa
     602                    
     603                            .dwfde $C$DW$CIE, WatchdogLockState
     604                    $C$DW$35        .dwtag  DW_TAG_formal_parameter
     605                            .dwattr $C$DW$35, DW_AT_name("ui32Base")
TI ARM Assembler Unix v18.1.1 Fri Jul  3 20:08:27 2020

Tools Copyright (c) 1996-2017 Texas Instruments Incorporated
watchdog.asm                                                         PAGE   12

     606                            .dwattr $C$DW$35, DW_AT_TI_symbol_name("ui32Base")
     607                            .dwattr $C$DW$35, DW_AT_type(*$C$DW$T$27)
     608                            .dwattr $C$DW$35, DW_AT_location[DW_OP_reg0]
     609                    
     610                    ;----------------------------------------------------------------------
     611                    ; 230 | WatchdogLockState(uint32_t ui32Base)                                   
     612                    ;----------------------------------------------------------------------
     613                    
     614                    ;*****************************************************************************
     615                    ;* FUNCTION NAME: WatchdogLockState                                          *
     616                    ;*                                                                           *
     617                    ;*   Regs Modified     : A1,A2,SP,SR                                         *
     618                    ;*   Regs Used         : A1,A2,SP,LR,SR                                      *
     619                    ;*   Local Frame Size  : 0 Args + 4 Auto + 0 Save = 4 byte                   *
     620                    ;*****************************************************************************
     621 0000007c           WatchdogLockState:
     622                    ;* --------------------------------------------------------------------------*
     623                            .dwcfi  cfa_offset, 0
     624 0000007c 0D08F1AD          SUB       SP, SP, #8            ; [DPU_V7M3_PIPE]  ; [KEEP 32-BIT INS]
     625                            .dwcfi  cfa_offset, 8
     626                    $C$DW$36        .dwtag  DW_TAG_variable
     627                            .dwattr $C$DW$36, DW_AT_name("ui32Base")
     628                            .dwattr $C$DW$36, DW_AT_TI_symbol_name("ui32Base")
     629                            .dwattr $C$DW$36, DW_AT_type(*$C$DW$T$27)
     630                            .dwattr $C$DW$36, DW_AT_location[DW_OP_breg13 0]
     631                    
     632                    ;----------------------------------------------------------------------
     633                    ; 232 | //                                                                     
     634                    ; 233 | // Check the arguments.                                                
     635                    ; 234 | //                                                                     
     636                    ; 235 | ASSERT((ui32Base == WATCHDOG0_BASE) || (ui32Base == WATCHDOG1_BASE));  
     637                    ; 237 | //                                                                     
     638                    ; 238 | // Get the lock state.                                                 
     639                    ; 239 | //                                                                     
     640                    ;----------------------------------------------------------------------
     641 00000080 9000              STR       A1, [SP, #0]          ; [DPU_V7M3_PIPE] |231|  ; [ORIG 16-BIT INS]
     642                            .dwpsn  file "../driverlib/watchdog.c",line 240,column 5,is_stmt,isa 1
     643                    ;----------------------------------------------------------------------
     644                    ; 240 | return((HWREG(ui32Base + WDT_O_LOCK) == WDT_LOCK_LOCKED) ? true : false
     645                    ;     | );                                                                     
     646                    ;----------------------------------------------------------------------
     647 00000082 9800              LDR       A1, [SP, #0]          ; [DPU_V7M3_PIPE] |240|  ; [ORIG 16-BIT INS]
     648 00000084 1C00F8D0          LDR       A2, [A1, #3072]       ; [DPU_V7M3_PIPE] |240|  ; [KEEP 32-BIT INS]
     649 00000088 2901              CMP       A2, #1                ; [DPU_V7M3_PIPE] |240|  ; [ORIG 16-BIT INS]
     650 0000008a 0000F04F          MOV       A1, #0                ; [DPU_V7M3_PIPE] |240|  ; [KEEP 32-BIT INS]
     651 0000008e D101              BNE       ||$C$L2||             ; [DPU_V7M3_PIPE] |240|  ; [ORIG 16-BIT INS]
     652                            ; BRANCHCC OCCURS {||$C$L2||}    ; [] |240| 
     653                    ;* --------------------------------------------------------------------------*
     654 00000090 2101              MOVS      A2, #1                ; [DPU_V7M3_PIPE] |240|  ; [ORIG 16-BIT INS]
     655 00000092 E000              B         ||$C$L3||             ; [DPU_V7M3_PIPE] |240|  ; [ORIG 16-BIT INS]
     656                            ; BRANCH OCCURS {||$C$L3||}      ; [] |240| 
     657                    ;* --------------------------------------------------------------------------*
     658 00000094           ||$C$L2||:    
     659 00000094 2100              MOVS      A2, #0                ; [DPU_V7M3_PIPE] |240|  ; [ORIG 16-BIT INS]
     660                    ;* --------------------------------------------------------------------------*
TI ARM Assembler Unix v18.1.1 Fri Jul  3 20:08:27 2020

Tools Copyright (c) 1996-2017 Texas Instruments Incorporated
watchdog.asm                                                         PAGE   13

     661 00000096           ||$C$L3||:    
     662 00000096 B101              CBZ       A2, ||$C$L4||         ; []  ; [ORIG 16-BIT INS]
     663                            ; BRANCHCC OCCURS {||$C$L4||}    ; [] |240| 
     664                    ;* --------------------------------------------------------------------------*
     665 00000098 2001              MOVS      A1, #1                ; [DPU_V7M3_PIPE] |240|  ; [ORIG 16-BIT INS]
     666                    ;* --------------------------------------------------------------------------*
     667 0000009a           ||$C$L4||:    
     668                            .dwpsn  file "../driverlib/watchdog.c",line 241,column 1,is_stmt,isa 1
     669 0000009a B002              ADD       SP, SP, #8            ; [DPU_V7M3_PIPE]  ; [ORIG 16-BIT INS]
     670                            .dwcfi  cfa_offset, 0
     671                    $C$DW$37        .dwtag  DW_TAG_TI_branch
     672                            .dwattr $C$DW$37, DW_AT_low_pc(0x00)
     673                            .dwattr $C$DW$37, DW_AT_TI_return
     674                    
     675 0000009c 4770              BX        LR                    ; [DPU_V7M3_PIPE]  ; [ORIG 16-BIT INS]
     676                            ; BRANCH OCCURS                  ; [] 
     677                            .dwattr $C$DW$34, DW_AT_TI_end_file("../driverlib/watchdog.c")
     678                            .dwattr $C$DW$34, DW_AT_TI_end_line(0xf1)
     679                            .dwattr $C$DW$34, DW_AT_TI_end_column(0x01)
     680                            .dwendentry
     681                            .dwendtag $C$DW$34
     682                    
     683 0000009e                   .sect   ".text"
     684                            .clink
     685                            .thumbfunc WatchdogReloadSet
     686 0000009e                   .thumb
     687                            .global WatchdogReloadSet
     688                    
     689                    $C$DW$38        .dwtag  DW_TAG_subprogram
     690                            .dwattr $C$DW$38, DW_AT_name("WatchdogReloadSet")
     691                            .dwattr $C$DW$38, DW_AT_low_pc(WatchdogReloadSet)
     692                            .dwattr $C$DW$38, DW_AT_high_pc(0x00)
     693                            .dwattr $C$DW$38, DW_AT_TI_symbol_name("WatchdogReloadSet")
     694                            .dwattr $C$DW$38, DW_AT_external
     695                            .dwattr $C$DW$38, DW_AT_TI_begin_file("../driverlib/watchdog.c")
     696                            .dwattr $C$DW$38, DW_AT_TI_begin_line(0x106)
     697                            .dwattr $C$DW$38, DW_AT_TI_begin_column(0x01)
     698                            .dwattr $C$DW$38, DW_AT_decl_file("../driverlib/watchdog.c")
     699                            .dwattr $C$DW$38, DW_AT_decl_line(0x106)
     700                            .dwattr $C$DW$38, DW_AT_decl_column(0x01)
     701                            .dwattr $C$DW$38, DW_AT_TI_max_frame_size(0x08)
     702                            .dwpsn  file "../driverlib/watchdog.c",line 263,column 1,is_stmt,address WatchdogReloadSet,isa
     703                    
     704                            .dwfde $C$DW$CIE, WatchdogReloadSet
     705                    $C$DW$39        .dwtag  DW_TAG_formal_parameter
     706                            .dwattr $C$DW$39, DW_AT_name("ui32Base")
     707                            .dwattr $C$DW$39, DW_AT_TI_symbol_name("ui32Base")
     708                            .dwattr $C$DW$39, DW_AT_type(*$C$DW$T$27)
     709                            .dwattr $C$DW$39, DW_AT_location[DW_OP_reg0]
     710                    
     711                    $C$DW$40        .dwtag  DW_TAG_formal_parameter
     712                            .dwattr $C$DW$40, DW_AT_name("ui32LoadVal")
     713                            .dwattr $C$DW$40, DW_AT_TI_symbol_name("ui32LoadVal")
     714                            .dwattr $C$DW$40, DW_AT_type(*$C$DW$T$27)
     715                            .dwattr $C$DW$40, DW_AT_location[DW_OP_reg1]
TI ARM Assembler Unix v18.1.1 Fri Jul  3 20:08:27 2020

Tools Copyright (c) 1996-2017 Texas Instruments Incorporated
watchdog.asm                                                         PAGE   14

     716                    
     717                    ;----------------------------------------------------------------------
     718                    ; 262 | WatchdogReloadSet(uint32_t ui32Base, uint32_t ui32LoadVal)             
     719                    ;----------------------------------------------------------------------
     720                    
     721                    ;*****************************************************************************
     722                    ;* FUNCTION NAME: WatchdogReloadSet                                          *
     723                    ;*                                                                           *
     724                    ;*   Regs Modified     : A1,A2,SP                                            *
     725                    ;*   Regs Used         : A1,A2,SP,LR                                         *
     726                    ;*   Local Frame Size  : 0 Args + 8 Auto + 0 Save = 8 byte                   *
     727                    ;*****************************************************************************
     728 0000009e           WatchdogReloadSet:
     729                    ;* --------------------------------------------------------------------------*
     730                            .dwcfi  cfa_offset, 0
     731 0000009e 0D08F1AD          SUB       SP, SP, #8            ; [DPU_V7M3_PIPE]  ; [KEEP 32-BIT INS]
     732                            .dwcfi  cfa_offset, 8
     733                    $C$DW$41        .dwtag  DW_TAG_variable
     734                            .dwattr $C$DW$41, DW_AT_name("ui32Base")
     735                            .dwattr $C$DW$41, DW_AT_TI_symbol_name("ui32Base")
     736                            .dwattr $C$DW$41, DW_AT_type(*$C$DW$T$27)
     737                            .dwattr $C$DW$41, DW_AT_location[DW_OP_breg13 0]
     738                    
     739                    $C$DW$42        .dwtag  DW_TAG_variable
     740                            .dwattr $C$DW$42, DW_AT_name("ui32LoadVal")
     741                            .dwattr $C$DW$42, DW_AT_TI_symbol_name("ui32LoadVal")
     742                            .dwattr $C$DW$42, DW_AT_type(*$C$DW$T$27)
     743                            .dwattr $C$DW$42, DW_AT_location[DW_OP_breg13 4]
     744                    
     745                    ;----------------------------------------------------------------------
     746                    ; 264 | //                                                                     
     747                    ; 265 | // Check the arguments.                                                
     748                    ; 266 | //                                                                     
     749                    ; 267 | ASSERT((ui32Base == WATCHDOG0_BASE) || (ui32Base == WATCHDOG1_BASE));  
     750                    ; 269 | //                                                                     
     751                    ; 270 | // Set the load register.                                              
     752                    ; 271 | //                                                                     
     753                    ;----------------------------------------------------------------------
     754 000000a2 9101              STR       A2, [SP, #4]          ; [DPU_V7M3_PIPE] |263|  ; [ORIG 16-BIT INS]
     755 000000a4 9000              STR       A1, [SP, #0]          ; [DPU_V7M3_PIPE] |263|  ; [ORIG 16-BIT INS]
     756                            .dwpsn  file "../driverlib/watchdog.c",line 272,column 5,is_stmt,isa 1
     757                    ;----------------------------------------------------------------------
     758                    ; 272 | HWREG(ui32Base + WDT_O_LOAD) = ui32LoadVal;                            
     759                    ;----------------------------------------------------------------------
     760 000000a6 9801              LDR       A1, [SP, #4]          ; [DPU_V7M3_PIPE] |272|  ; [ORIG 16-BIT INS]
     761 000000a8 9900              LDR       A2, [SP, #0]          ; [DPU_V7M3_PIPE] |272|  ; [ORIG 16-BIT INS]
     762 000000aa 6008              STR       A1, [A2, #0]          ; [DPU_V7M3_PIPE] |272|  ; [ORIG 16-BIT INS]
     763                            .dwpsn  file "../driverlib/watchdog.c",line 273,column 1,is_stmt,isa 1
     764 000000ac B002              ADD       SP, SP, #8            ; [DPU_V7M3_PIPE]  ; [ORIG 16-BIT INS]
     765                            .dwcfi  cfa_offset, 0
     766                    $C$DW$43        .dwtag  DW_TAG_TI_branch
     767                            .dwattr $C$DW$43, DW_AT_low_pc(0x00)
     768                            .dwattr $C$DW$43, DW_AT_TI_return
     769                    
     770 000000ae 4770              BX        LR                    ; [DPU_V7M3_PIPE]  ; [ORIG 16-BIT INS]
TI ARM Assembler Unix v18.1.1 Fri Jul  3 20:08:27 2020

Tools Copyright (c) 1996-2017 Texas Instruments Incorporated
watchdog.asm                                                         PAGE   15

     771                            ; BRANCH OCCURS                  ; [] 
     772                            .dwattr $C$DW$38, DW_AT_TI_end_file("../driverlib/watchdog.c")
     773                            .dwattr $C$DW$38, DW_AT_TI_end_line(0x111)
     774                            .dwattr $C$DW$38, DW_AT_TI_end_column(0x01)
     775                            .dwendentry
     776                            .dwendtag $C$DW$38
     777                    
     778 000000b0                   .sect   ".text"
     779                            .clink
     780                            .thumbfunc WatchdogReloadGet
     781 000000b0                   .thumb
     782                            .global WatchdogReloadGet
     783                    
     784                    $C$DW$44        .dwtag  DW_TAG_subprogram
     785                            .dwattr $C$DW$44, DW_AT_name("WatchdogReloadGet")
     786                            .dwattr $C$DW$44, DW_AT_low_pc(WatchdogReloadGet)
     787                            .dwattr $C$DW$44, DW_AT_high_pc(0x00)
     788                            .dwattr $C$DW$44, DW_AT_TI_symbol_name("WatchdogReloadGet")
     789                            .dwattr $C$DW$44, DW_AT_external
     790                            .dwattr $C$DW$44, DW_AT_type(*$C$DW$T$27)
     791                            .dwattr $C$DW$44, DW_AT_TI_begin_file("../driverlib/watchdog.c")
     792                            .dwattr $C$DW$44, DW_AT_TI_begin_line(0x120)
     793                            .dwattr $C$DW$44, DW_AT_TI_begin_column(0x01)
     794                            .dwattr $C$DW$44, DW_AT_decl_file("../driverlib/watchdog.c")
     795                            .dwattr $C$DW$44, DW_AT_decl_line(0x120)
     796                            .dwattr $C$DW$44, DW_AT_decl_column(0x01)
     797                            .dwattr $C$DW$44, DW_AT_TI_max_frame_size(0x08)
     798                            .dwpsn  file "../driverlib/watchdog.c",line 289,column 1,is_stmt,address WatchdogReloadGet,isa
     799                    
     800                            .dwfde $C$DW$CIE, WatchdogReloadGet
     801                    $C$DW$45        .dwtag  DW_TAG_formal_parameter
     802                            .dwattr $C$DW$45, DW_AT_name("ui32Base")
     803                            .dwattr $C$DW$45, DW_AT_TI_symbol_name("ui32Base")
     804                            .dwattr $C$DW$45, DW_AT_type(*$C$DW$T$27)
     805                            .dwattr $C$DW$45, DW_AT_location[DW_OP_reg0]
     806                    
     807                    ;----------------------------------------------------------------------
     808                    ; 288 | WatchdogReloadGet(uint32_t ui32Base)                                   
     809                    ;----------------------------------------------------------------------
     810                    
     811                    ;*****************************************************************************
     812                    ;* FUNCTION NAME: WatchdogReloadGet                                          *
     813                    ;*                                                                           *
     814                    ;*   Regs Modified     : A1,SP                                               *
     815                    ;*   Regs Used         : A1,SP,LR                                            *
     816                    ;*   Local Frame Size  : 0 Args + 4 Auto + 0 Save = 4 byte                   *
     817                    ;*****************************************************************************
     818 000000b0           WatchdogReloadGet:
     819                    ;* --------------------------------------------------------------------------*
     820                            .dwcfi  cfa_offset, 0
     821 000000b0 0D08F1AD          SUB       SP, SP, #8            ; [DPU_V7M3_PIPE]  ; [KEEP 32-BIT INS]
     822                            .dwcfi  cfa_offset, 8
     823                    $C$DW$46        .dwtag  DW_TAG_variable
     824                            .dwattr $C$DW$46, DW_AT_name("ui32Base")
     825                            .dwattr $C$DW$46, DW_AT_TI_symbol_name("ui32Base")
TI ARM Assembler Unix v18.1.1 Fri Jul  3 20:08:27 2020

Tools Copyright (c) 1996-2017 Texas Instruments Incorporated
watchdog.asm                                                         PAGE   16

     826                            .dwattr $C$DW$46, DW_AT_type(*$C$DW$T$27)
     827                            .dwattr $C$DW$46, DW_AT_location[DW_OP_breg13 0]
     828                    
     829                    ;----------------------------------------------------------------------
     830                    ; 290 | //                                                                     
     831                    ; 291 | // Check the arguments.                                                
     832                    ; 292 | //                                                                     
     833                    ; 293 | ASSERT((ui32Base == WATCHDOG0_BASE) || (ui32Base == WATCHDOG1_BASE));  
     834                    ; 295 | //                                                                     
     835                    ; 296 | // Get the load register.                                              
     836                    ; 297 | //                                                                     
     837                    ;----------------------------------------------------------------------
     838 000000b4 9000              STR       A1, [SP, #0]          ; [DPU_V7M3_PIPE] |289|  ; [ORIG 16-BIT INS]
     839                            .dwpsn  file "../driverlib/watchdog.c",line 298,column 5,is_stmt,isa 1
     840                    ;----------------------------------------------------------------------
     841                    ; 298 | return(HWREG(ui32Base + WDT_O_LOAD));                                  
     842                    ;----------------------------------------------------------------------
     843 000000b6 9800              LDR       A1, [SP, #0]          ; [DPU_V7M3_PIPE] |298|  ; [ORIG 16-BIT INS]
     844 000000b8 6800              LDR       A1, [A1, #0]          ; [DPU_V7M3_PIPE] |298|  ; [ORIG 16-BIT INS]
     845                            .dwpsn  file "../driverlib/watchdog.c",line 299,column 1,is_stmt,isa 1
     846 000000ba B002              ADD       SP, SP, #8            ; [DPU_V7M3_PIPE]  ; [ORIG 16-BIT INS]
     847                            .dwcfi  cfa_offset, 0
     848                    $C$DW$47        .dwtag  DW_TAG_TI_branch
     849                            .dwattr $C$DW$47, DW_AT_low_pc(0x00)
     850                            .dwattr $C$DW$47, DW_AT_TI_return
     851                    
     852 000000bc 4770              BX        LR                    ; [DPU_V7M3_PIPE]  ; [ORIG 16-BIT INS]
     853                            ; BRANCH OCCURS                  ; [] 
     854                            .dwattr $C$DW$44, DW_AT_TI_end_file("../driverlib/watchdog.c")
     855                            .dwattr $C$DW$44, DW_AT_TI_end_line(0x12b)
     856                            .dwattr $C$DW$44, DW_AT_TI_end_column(0x01)
     857                            .dwendentry
     858                            .dwendtag $C$DW$44
     859                    
     860 000000be                   .sect   ".text"
     861                            .clink
     862                            .thumbfunc WatchdogValueGet
     863 000000be                   .thumb
     864                            .global WatchdogValueGet
     865                    
     866                    $C$DW$48        .dwtag  DW_TAG_subprogram
     867                            .dwattr $C$DW$48, DW_AT_name("WatchdogValueGet")
     868                            .dwattr $C$DW$48, DW_AT_low_pc(WatchdogValueGet)
     869                            .dwattr $C$DW$48, DW_AT_high_pc(0x00)
     870                            .dwattr $C$DW$48, DW_AT_TI_symbol_name("WatchdogValueGet")
     871                            .dwattr $C$DW$48, DW_AT_external
     872                            .dwattr $C$DW$48, DW_AT_type(*$C$DW$T$27)
     873                            .dwattr $C$DW$48, DW_AT_TI_begin_file("../driverlib/watchdog.c")
     874                            .dwattr $C$DW$48, DW_AT_TI_begin_line(0x139)
     875                            .dwattr $C$DW$48, DW_AT_TI_begin_column(0x01)
     876                            .dwattr $C$DW$48, DW_AT_decl_file("../driverlib/watchdog.c")
     877                            .dwattr $C$DW$48, DW_AT_decl_line(0x139)
     878                            .dwattr $C$DW$48, DW_AT_decl_column(0x01)
     879                            .dwattr $C$DW$48, DW_AT_TI_max_frame_size(0x08)
     880                            .dwpsn  file "../driverlib/watchdog.c",line 314,column 1,is_stmt,address WatchdogValueGet,isa 
TI ARM Assembler Unix v18.1.1 Fri Jul  3 20:08:27 2020

Tools Copyright (c) 1996-2017 Texas Instruments Incorporated
watchdog.asm                                                         PAGE   17

     881                    
     882                            .dwfde $C$DW$CIE, WatchdogValueGet
     883                    $C$DW$49        .dwtag  DW_TAG_formal_parameter
     884                            .dwattr $C$DW$49, DW_AT_name("ui32Base")
     885                            .dwattr $C$DW$49, DW_AT_TI_symbol_name("ui32Base")
     886                            .dwattr $C$DW$49, DW_AT_type(*$C$DW$T$27)
     887                            .dwattr $C$DW$49, DW_AT_location[DW_OP_reg0]
     888                    
     889                    ;----------------------------------------------------------------------
     890                    ; 313 | WatchdogValueGet(uint32_t ui32Base)                                    
     891                    ;----------------------------------------------------------------------
     892                    
     893                    ;*****************************************************************************
     894                    ;* FUNCTION NAME: WatchdogValueGet                                           *
     895                    ;*                                                                           *
     896                    ;*   Regs Modified     : A1,SP                                               *
     897                    ;*   Regs Used         : A1,SP,LR                                            *
     898                    ;*   Local Frame Size  : 0 Args + 4 Auto + 0 Save = 4 byte                   *
     899                    ;*****************************************************************************
     900 000000be           WatchdogValueGet:
     901                    ;* --------------------------------------------------------------------------*
     902                            .dwcfi  cfa_offset, 0
     903 000000be 0D08F1AD          SUB       SP, SP, #8            ; [DPU_V7M3_PIPE]  ; [KEEP 32-BIT INS]
     904                            .dwcfi  cfa_offset, 8
     905                    $C$DW$50        .dwtag  DW_TAG_variable
     906                            .dwattr $C$DW$50, DW_AT_name("ui32Base")
     907                            .dwattr $C$DW$50, DW_AT_TI_symbol_name("ui32Base")
     908                            .dwattr $C$DW$50, DW_AT_type(*$C$DW$T$27)
     909                            .dwattr $C$DW$50, DW_AT_location[DW_OP_breg13 0]
     910                    
     911                    ;----------------------------------------------------------------------
     912                    ; 315 | //                                                                     
     913                    ; 316 | // Check the arguments.                                                
     914                    ; 317 | //                                                                     
     915                    ; 318 | ASSERT((ui32Base == WATCHDOG0_BASE) || (ui32Base == WATCHDOG1_BASE));  
     916                    ; 320 | //                                                                     
     917                    ; 321 | // Get the current watchdog timer register value.                      
     918                    ; 322 | //                                                                     
     919                    ;----------------------------------------------------------------------
     920 000000c2 9000              STR       A1, [SP, #0]          ; [DPU_V7M3_PIPE] |314|  ; [ORIG 16-BIT INS]
     921                            .dwpsn  file "../driverlib/watchdog.c",line 323,column 5,is_stmt,isa 1
     922                    ;----------------------------------------------------------------------
     923                    ; 323 | return(HWREG(ui32Base + WDT_O_VALUE));                                 
     924                    ;----------------------------------------------------------------------
     925 000000c4 9800              LDR       A1, [SP, #0]          ; [DPU_V7M3_PIPE] |323|  ; [ORIG 16-BIT INS]
     926 000000c6 6840              LDR       A1, [A1, #4]          ; [DPU_V7M3_PIPE] |323|  ; [ORIG 16-BIT INS]
     927                            .dwpsn  file "../driverlib/watchdog.c",line 324,column 1,is_stmt,isa 1
     928 000000c8 B002              ADD       SP, SP, #8            ; [DPU_V7M3_PIPE]  ; [ORIG 16-BIT INS]
     929                            .dwcfi  cfa_offset, 0
     930                    $C$DW$51        .dwtag  DW_TAG_TI_branch
     931                            .dwattr $C$DW$51, DW_AT_low_pc(0x00)
     932                            .dwattr $C$DW$51, DW_AT_TI_return
     933                    
     934 000000ca 4770              BX        LR                    ; [DPU_V7M3_PIPE]  ; [ORIG 16-BIT INS]
     935                            ; BRANCH OCCURS                  ; [] 
TI ARM Assembler Unix v18.1.1 Fri Jul  3 20:08:27 2020

Tools Copyright (c) 1996-2017 Texas Instruments Incorporated
watchdog.asm                                                         PAGE   18

     936                            .dwattr $C$DW$48, DW_AT_TI_end_file("../driverlib/watchdog.c")
     937                            .dwattr $C$DW$48, DW_AT_TI_end_line(0x144)
     938                            .dwattr $C$DW$48, DW_AT_TI_end_column(0x01)
     939                            .dwendentry
     940                            .dwendtag $C$DW$48
     941                    
     942 000000cc                   .sect   ".text"
     943                            .clink
     944                            .thumbfunc WatchdogIntRegister
     945 000000cc                   .thumb
     946                            .global WatchdogIntRegister
     947                    
     948                    $C$DW$52        .dwtag  DW_TAG_subprogram
     949                            .dwattr $C$DW$52, DW_AT_name("WatchdogIntRegister")
     950                            .dwattr $C$DW$52, DW_AT_low_pc(WatchdogIntRegister)
     951                            .dwattr $C$DW$52, DW_AT_high_pc(0x00)
     952                            .dwattr $C$DW$52, DW_AT_TI_symbol_name("WatchdogIntRegister")
     953                            .dwattr $C$DW$52, DW_AT_external
     954                            .dwattr $C$DW$52, DW_AT_TI_begin_file("../driverlib/watchdog.c")
     955                            .dwattr $C$DW$52, DW_AT_TI_begin_line(0x161)
     956                            .dwattr $C$DW$52, DW_AT_TI_begin_column(0x01)
     957                            .dwattr $C$DW$52, DW_AT_decl_file("../driverlib/watchdog.c")
     958                            .dwattr $C$DW$52, DW_AT_decl_line(0x161)
     959                            .dwattr $C$DW$52, DW_AT_decl_column(0x01)
     960                            .dwattr $C$DW$52, DW_AT_TI_max_frame_size(0x10)
     961                            .dwpsn  file "../driverlib/watchdog.c",line 354,column 1,is_stmt,address WatchdogIntRegister,i
     962                    
     963                            .dwfde $C$DW$CIE, WatchdogIntRegister
     964                    $C$DW$53        .dwtag  DW_TAG_formal_parameter
     965                            .dwattr $C$DW$53, DW_AT_name("ui32Base")
     966                            .dwattr $C$DW$53, DW_AT_TI_symbol_name("ui32Base")
     967                            .dwattr $C$DW$53, DW_AT_type(*$C$DW$T$27)
     968                            .dwattr $C$DW$53, DW_AT_location[DW_OP_reg0]
     969                    
     970                    $C$DW$54        .dwtag  DW_TAG_formal_parameter
     971                            .dwattr $C$DW$54, DW_AT_name("pfnHandler")
     972                            .dwattr $C$DW$54, DW_AT_TI_symbol_name("pfnHandler")
     973                            .dwattr $C$DW$54, DW_AT_type(*$C$DW$T$25)
     974                            .dwattr $C$DW$54, DW_AT_location[DW_OP_reg1]
     975                    
     976                    ;----------------------------------------------------------------------
     977                    ; 353 | WatchdogIntRegister(uint32_t ui32Base, void (*pfnHandler)(void))       
     978                    ;----------------------------------------------------------------------
     979                    
     980                    ;*****************************************************************************
     981                    ;* FUNCTION NAME: WatchdogIntRegister                                        *
     982                    ;*                                                                           *
     983                    ;*   Regs Modified     : A1,A2,A3,A4,V9,SP,LR,SR,D0,D0_hi,D1,D1_hi,D2,D2_hi, *
     984                    ;*                           D3,D3_hi,D4,D4_hi,D5,D5_hi,D6,D6_hi,D7,D7_hi,   *
     985                    ;*                           FPEXC,FPSCR                                     *
     986                    ;*   Regs Used         : A1,A2,A3,A4,V9,SP,LR,SR,D0,D0_hi,D1,D1_hi,D2,D2_hi, *
     987                    ;*                           D3,D3_hi,D4,D4_hi,D5,D5_hi,D6,D6_hi,D7,D7_hi,   *
     988                    ;*                           FPEXC,FPSCR                                     *
     989                    ;*   Local Frame Size  : 0 Args + 8 Auto + 4 Save = 12 byte                  *
     990                    ;*****************************************************************************
TI ARM Assembler Unix v18.1.1 Fri Jul  3 20:08:27 2020

Tools Copyright (c) 1996-2017 Texas Instruments Incorporated
watchdog.asm                                                         PAGE   19

     991 000000cc           WatchdogIntRegister:
     992                    ;* --------------------------------------------------------------------------*
     993                            .dwcfi  cfa_offset, 0
     994 000000cc B50E              PUSH      {A2, A3, A4, LR}      ; [DPU_V7M3_PIPE]  ; [ORIG 16-BIT INS]
     995                            .dwcfi  cfa_offset, 16
     996                            .dwcfi  save_reg_to_mem, 14, -4
     997                            .dwcfi  save_reg_to_mem, 3, -8
     998                            .dwcfi  save_reg_to_mem, 2, -12
     999                            .dwcfi  save_reg_to_mem, 1, -16
    1000                    $C$DW$55        .dwtag  DW_TAG_variable
    1001                            .dwattr $C$DW$55, DW_AT_name("ui32Base")
    1002                            .dwattr $C$DW$55, DW_AT_TI_symbol_name("ui32Base")
    1003                            .dwattr $C$DW$55, DW_AT_type(*$C$DW$T$27)
    1004                            .dwattr $C$DW$55, DW_AT_location[DW_OP_breg13 0]
    1005                    
    1006                    $C$DW$56        .dwtag  DW_TAG_variable
    1007                            .dwattr $C$DW$56, DW_AT_name("pfnHandler")
    1008                            .dwattr $C$DW$56, DW_AT_TI_symbol_name("pfnHandler")
    1009                            .dwattr $C$DW$56, DW_AT_type(*$C$DW$T$25)
    1010                            .dwattr $C$DW$56, DW_AT_location[DW_OP_breg13 4]
    1011                    
    1012                    ;----------------------------------------------------------------------
    1013                    ; 355 | //                                                                     
    1014                    ; 356 | // Check the arguments.                                                
    1015                    ; 357 | //                                                                     
    1016                    ; 358 | ASSERT((ui32Base == WATCHDOG0_BASE) || (ui32Base == WATCHDOG1_BASE));  
    1017                    ; 360 | //                                                                     
    1018                    ; 361 | // Register the interrupt handler.                                     
    1019                    ; 362 | //                                                                     
    1020                    ;----------------------------------------------------------------------
    1021 000000ce 9101              STR       A2, [SP, #4]          ; [DPU_V7M3_PIPE] |354|  ; [ORIG 16-BIT INS]
    1022 000000d0 9000              STR       A1, [SP, #0]          ; [DPU_V7M3_PIPE] |354|  ; [ORIG 16-BIT INS]
    1023                            .dwpsn  file "../driverlib/watchdog.c",line 363,column 5,is_stmt,isa 1
    1024                    ;----------------------------------------------------------------------
    1025                    ; 363 | IntRegister(INT_WATCHDOG_TM4C123, pfnHandler);                         
    1026                    ; 365 | //                                                                     
    1027                    ; 366 | // Enable the watchdog timer interrupt.                                
    1028                    ; 367 | //                                                                     
    1029                    ;----------------------------------------------------------------------
    1030 000000d2 9901              LDR       A2, [SP, #4]          ; [DPU_V7M3_PIPE] |363|  ; [ORIG 16-BIT INS]
    1031 000000d4 2022              MOVS      A1, #34               ; [DPU_V7M3_PIPE] |363|  ; [ORIG 16-BIT INS]
    1032                    $C$DW$57        .dwtag  DW_TAG_TI_branch
    1033                            .dwattr $C$DW$57, DW_AT_low_pc(0x00)
    1034                            .dwattr $C$DW$57, DW_AT_name("IntRegister")
    1035                            .dwattr $C$DW$57, DW_AT_TI_call
    1036                    
    1037 000000d6 FFFEF7FF!         BL        IntRegister           ; [DPU_V7M3_PIPE] |363|  ; [KEEP 32-BIT INS]
    1038                            ; CALL OCCURS {IntRegister }     ; [] |363| 
    1039                            .dwpsn  file "../driverlib/watchdog.c",line 368,column 5,is_stmt,isa 1
    1040                    ;----------------------------------------------------------------------
    1041                    ; 368 | IntEnable(INT_WATCHDOG_TM4C123);                                       
    1042                    ;----------------------------------------------------------------------
    1043 000000da 2022              MOVS      A1, #34               ; [DPU_V7M3_PIPE] |368|  ; [ORIG 16-BIT INS]
    1044                    $C$DW$58        .dwtag  DW_TAG_TI_branch
    1045                            .dwattr $C$DW$58, DW_AT_low_pc(0x00)
TI ARM Assembler Unix v18.1.1 Fri Jul  3 20:08:27 2020

Tools Copyright (c) 1996-2017 Texas Instruments Incorporated
watchdog.asm                                                         PAGE   20

    1046                            .dwattr $C$DW$58, DW_AT_name("IntEnable")
    1047                            .dwattr $C$DW$58, DW_AT_TI_call
    1048                    
    1049 000000dc FFFEF7FF!         BL        IntEnable             ; [DPU_V7M3_PIPE] |368|  ; [KEEP 32-BIT INS]
    1050                            ; CALL OCCURS {IntEnable }       ; [] |368| 
    1051                            .dwpsn  file "../driverlib/watchdog.c",line 369,column 1,is_stmt,isa 1
    1052                    $C$DW$59        .dwtag  DW_TAG_TI_branch
    1053                            .dwattr $C$DW$59, DW_AT_low_pc(0x00)
    1054                            .dwattr $C$DW$59, DW_AT_TI_return
    1055                    
    1056 000000e0 BD0E              POP       {A2, A3, A4, PC}      ; [DPU_V7M3_PIPE]  ; [ORIG 16-BIT INS]
    1057                            .dwcfi  cfa_offset, 0
    1058                            .dwcfi  restore_reg, 3
    1059                            .dwcfi  restore_reg, 2
    1060                            .dwcfi  restore_reg, 1
    1061                            ; BRANCH OCCURS                  ; [] 
    1062                            .dwattr $C$DW$52, DW_AT_TI_end_file("../driverlib/watchdog.c")
    1063                            .dwattr $C$DW$52, DW_AT_TI_end_line(0x171)
    1064                            .dwattr $C$DW$52, DW_AT_TI_end_column(0x01)
    1065                            .dwendentry
    1066                            .dwendtag $C$DW$52
    1067                    
    1068 000000e2                   .sect   ".text"
    1069                            .clink
    1070                            .thumbfunc WatchdogIntUnregister
    1071 000000e2                   .thumb
    1072                            .global WatchdogIntUnregister
    1073                    
    1074                    $C$DW$60        .dwtag  DW_TAG_subprogram
    1075                            .dwattr $C$DW$60, DW_AT_name("WatchdogIntUnregister")
    1076                            .dwattr $C$DW$60, DW_AT_low_pc(WatchdogIntUnregister)
    1077                            .dwattr $C$DW$60, DW_AT_high_pc(0x00)
    1078                            .dwattr $C$DW$60, DW_AT_TI_symbol_name("WatchdogIntUnregister")
    1079                            .dwattr $C$DW$60, DW_AT_external
    1080                            .dwattr $C$DW$60, DW_AT_TI_begin_file("../driverlib/watchdog.c")
    1081                            .dwattr $C$DW$60, DW_AT_TI_begin_line(0x18b)
    1082                            .dwattr $C$DW$60, DW_AT_TI_begin_column(0x01)
    1083                            .dwattr $C$DW$60, DW_AT_decl_file("../driverlib/watchdog.c")
    1084                            .dwattr $C$DW$60, DW_AT_decl_line(0x18b)
    1085                            .dwattr $C$DW$60, DW_AT_decl_column(0x01)
    1086                            .dwattr $C$DW$60, DW_AT_TI_max_frame_size(0x08)
    1087                            .dwpsn  file "../driverlib/watchdog.c",line 396,column 1,is_stmt,address WatchdogIntUnregister
    1088                    
    1089                            .dwfde $C$DW$CIE, WatchdogIntUnregister
    1090                    $C$DW$61        .dwtag  DW_TAG_formal_parameter
    1091                            .dwattr $C$DW$61, DW_AT_name("ui32Base")
    1092                            .dwattr $C$DW$61, DW_AT_TI_symbol_name("ui32Base")
    1093                            .dwattr $C$DW$61, DW_AT_type(*$C$DW$T$27)
    1094                            .dwattr $C$DW$61, DW_AT_location[DW_OP_reg0]
    1095                    
    1096                    ;----------------------------------------------------------------------
    1097                    ; 395 | WatchdogIntUnregister(uint32_t ui32Base)                               
    1098                    ;----------------------------------------------------------------------
    1099                    
    1100                    ;*****************************************************************************
TI ARM Assembler Unix v18.1.1 Fri Jul  3 20:08:27 2020

Tools Copyright (c) 1996-2017 Texas Instruments Incorporated
watchdog.asm                                                         PAGE   21

    1101                    ;* FUNCTION NAME: WatchdogIntUnregister                                      *
    1102                    ;*                                                                           *
    1103                    ;*   Regs Modified     : A1,A2,A3,A4,V9,SP,LR,SR,D0,D0_hi,D1,D1_hi,D2,D2_hi, *
    1104                    ;*                           D3,D3_hi,D4,D4_hi,D5,D5_hi,D6,D6_hi,D7,D7_hi,   *
    1105                    ;*                           FPEXC,FPSCR                                     *
    1106                    ;*   Regs Used         : A1,A2,A3,A4,V9,SP,LR,SR,D0,D0_hi,D1,D1_hi,D2,D2_hi, *
    1107                    ;*                           D3,D3_hi,D4,D4_hi,D5,D5_hi,D6,D6_hi,D7,D7_hi,   *
    1108                    ;*                           FPEXC,FPSCR                                     *
    1109                    ;*   Local Frame Size  : 0 Args + 4 Auto + 4 Save = 8 byte                   *
    1110                    ;*****************************************************************************
    1111 000000e2           WatchdogIntUnregister:
    1112                    ;* --------------------------------------------------------------------------*
    1113                            .dwcfi  cfa_offset, 0
    1114 000000e2 B508              PUSH      {A4, LR}              ; [DPU_V7M3_PIPE]  ; [ORIG 16-BIT INS]
    1115                            .dwcfi  cfa_offset, 8
    1116                            .dwcfi  save_reg_to_mem, 14, -4
    1117                            .dwcfi  save_reg_to_mem, 3, -8
    1118                    $C$DW$62        .dwtag  DW_TAG_variable
    1119                            .dwattr $C$DW$62, DW_AT_name("ui32Base")
    1120                            .dwattr $C$DW$62, DW_AT_TI_symbol_name("ui32Base")
    1121                            .dwattr $C$DW$62, DW_AT_type(*$C$DW$T$27)
    1122                            .dwattr $C$DW$62, DW_AT_location[DW_OP_breg13 0]
    1123                    
    1124                    ;----------------------------------------------------------------------
    1125                    ; 397 | //                                                                     
    1126                    ; 398 | // Check the arguments.                                                
    1127                    ; 399 | //                                                                     
    1128                    ; 400 | ASSERT((ui32Base == WATCHDOG0_BASE) || (ui32Base == WATCHDOG1_BASE));  
    1129                    ; 402 | //                                                                     
    1130                    ; 403 | // Disable the interrupt.                                              
    1131                    ; 404 | //                                                                     
    1132                    ;----------------------------------------------------------------------
    1133 000000e4 9000              STR       A1, [SP, #0]          ; [DPU_V7M3_PIPE] |396|  ; [ORIG 16-BIT INS]
    1134                            .dwpsn  file "../driverlib/watchdog.c",line 405,column 5,is_stmt,isa 1
    1135                    ;----------------------------------------------------------------------
    1136                    ; 405 | IntDisable(INT_WATCHDOG_TM4C123);                                      
    1137                    ; 407 | //                                                                     
    1138                    ; 408 | // Unregister the interrupt handler.                                   
    1139                    ; 409 | //                                                                     
    1140                    ;----------------------------------------------------------------------
    1141 000000e6 2022              MOVS      A1, #34               ; [DPU_V7M3_PIPE] |405|  ; [ORIG 16-BIT INS]
    1142                    $C$DW$63        .dwtag  DW_TAG_TI_branch
    1143                            .dwattr $C$DW$63, DW_AT_low_pc(0x00)
    1144                            .dwattr $C$DW$63, DW_AT_name("IntDisable")
    1145                            .dwattr $C$DW$63, DW_AT_TI_call
    1146                    
    1147 000000e8 FFFEF7FF!         BL        IntDisable            ; [DPU_V7M3_PIPE] |405|  ; [KEEP 32-BIT INS]
    1148                            ; CALL OCCURS {IntDisable }      ; [] |405| 
    1149                            .dwpsn  file "../driverlib/watchdog.c",line 410,column 5,is_stmt,isa 1
    1150                    ;----------------------------------------------------------------------
    1151                    ; 410 | IntUnregister(INT_WATCHDOG_TM4C123);                                   
    1152                    ;----------------------------------------------------------------------
    1153 000000ec 2022              MOVS      A1, #34               ; [DPU_V7M3_PIPE] |410|  ; [ORIG 16-BIT INS]
    1154                    $C$DW$64        .dwtag  DW_TAG_TI_branch
    1155                            .dwattr $C$DW$64, DW_AT_low_pc(0x00)
TI ARM Assembler Unix v18.1.1 Fri Jul  3 20:08:27 2020

Tools Copyright (c) 1996-2017 Texas Instruments Incorporated
watchdog.asm                                                         PAGE   22

    1156                            .dwattr $C$DW$64, DW_AT_name("IntUnregister")
    1157                            .dwattr $C$DW$64, DW_AT_TI_call
    1158                    
    1159 000000ee FFFEF7FF!         BL        IntUnregister         ; [DPU_V7M3_PIPE] |410|  ; [KEEP 32-BIT INS]
    1160                            ; CALL OCCURS {IntUnregister }   ; [] |410| 
    1161                            .dwpsn  file "../driverlib/watchdog.c",line 411,column 1,is_stmt,isa 1
    1162                    $C$DW$65        .dwtag  DW_TAG_TI_branch
    1163                            .dwattr $C$DW$65, DW_AT_low_pc(0x00)
    1164                            .dwattr $C$DW$65, DW_AT_TI_return
    1165                    
    1166 000000f2 BD08              POP       {A4, PC}              ; [DPU_V7M3_PIPE]  ; [ORIG 16-BIT INS]
    1167                            .dwcfi  cfa_offset, 0
    1168                            .dwcfi  restore_reg, 3
    1169                            ; BRANCH OCCURS                  ; [] 
    1170                            .dwattr $C$DW$60, DW_AT_TI_end_file("../driverlib/watchdog.c")
    1171                            .dwattr $C$DW$60, DW_AT_TI_end_line(0x19b)
    1172                            .dwattr $C$DW$60, DW_AT_TI_end_column(0x01)
    1173                            .dwendentry
    1174                            .dwendtag $C$DW$60
    1175                    
    1176 000000f4                   .sect   ".text"
    1177                            .clink
    1178                            .thumbfunc WatchdogIntEnable
    1179 000000f4                   .thumb
    1180                            .global WatchdogIntEnable
    1181                    
    1182                    $C$DW$66        .dwtag  DW_TAG_subprogram
    1183                            .dwattr $C$DW$66, DW_AT_name("WatchdogIntEnable")
    1184                            .dwattr $C$DW$66, DW_AT_low_pc(WatchdogIntEnable)
    1185                            .dwattr $C$DW$66, DW_AT_high_pc(0x00)
    1186                            .dwattr $C$DW$66, DW_AT_TI_symbol_name("WatchdogIntEnable")
    1187                            .dwattr $C$DW$66, DW_AT_external
    1188                            .dwattr $C$DW$66, DW_AT_TI_begin_file("../driverlib/watchdog.c")
    1189                            .dwattr $C$DW$66, DW_AT_TI_begin_line(0x1ab)
    1190                            .dwattr $C$DW$66, DW_AT_TI_begin_column(0x01)
    1191                            .dwattr $C$DW$66, DW_AT_decl_file("../driverlib/watchdog.c")
    1192                            .dwattr $C$DW$66, DW_AT_decl_line(0x1ab)
    1193                            .dwattr $C$DW$66, DW_AT_decl_column(0x01)
    1194                            .dwattr $C$DW$66, DW_AT_TI_max_frame_size(0x08)
    1195                            .dwpsn  file "../driverlib/watchdog.c",line 428,column 1,is_stmt,address WatchdogIntEnable,isa
    1196                    
    1197                            .dwfde $C$DW$CIE, WatchdogIntEnable
    1198                    $C$DW$67        .dwtag  DW_TAG_formal_parameter
    1199                            .dwattr $C$DW$67, DW_AT_name("ui32Base")
    1200                            .dwattr $C$DW$67, DW_AT_TI_symbol_name("ui32Base")
    1201                            .dwattr $C$DW$67, DW_AT_type(*$C$DW$T$27)
    1202                            .dwattr $C$DW$67, DW_AT_location[DW_OP_reg0]
    1203                    
    1204                    ;----------------------------------------------------------------------
    1205                    ; 427 | WatchdogIntEnable(uint32_t ui32Base)                                   
    1206                    ;----------------------------------------------------------------------
    1207                    
    1208                    ;*****************************************************************************
    1209                    ;* FUNCTION NAME: WatchdogIntEnable                                          *
    1210                    ;*                                                                           *
TI ARM Assembler Unix v18.1.1 Fri Jul  3 20:08:27 2020

Tools Copyright (c) 1996-2017 Texas Instruments Incorporated
watchdog.asm                                                         PAGE   23

    1211                    ;*   Regs Modified     : A1,A2,SP,SR                                         *
    1212                    ;*   Regs Used         : A1,A2,SP,LR,SR                                      *
    1213                    ;*   Local Frame Size  : 0 Args + 4 Auto + 0 Save = 4 byte                   *
    1214                    ;*****************************************************************************
    1215 000000f4           WatchdogIntEnable:
    1216                    ;* --------------------------------------------------------------------------*
    1217                            .dwcfi  cfa_offset, 0
    1218 000000f4 0D08F1AD          SUB       SP, SP, #8            ; [DPU_V7M3_PIPE]  ; [KEEP 32-BIT INS]
    1219                            .dwcfi  cfa_offset, 8
    1220                    $C$DW$68        .dwtag  DW_TAG_variable
    1221                            .dwattr $C$DW$68, DW_AT_name("ui32Base")
    1222                            .dwattr $C$DW$68, DW_AT_TI_symbol_name("ui32Base")
    1223                            .dwattr $C$DW$68, DW_AT_type(*$C$DW$T$27)
    1224                            .dwattr $C$DW$68, DW_AT_location[DW_OP_breg13 0]
    1225                    
    1226                    ;----------------------------------------------------------------------
    1227                    ; 429 | //                                                                     
    1228                    ; 430 | // Check the arguments.                                                
    1229                    ; 431 | //                                                                     
    1230                    ; 432 | ASSERT((ui32Base == WATCHDOG0_BASE) || (ui32Base == WATCHDOG1_BASE));  
    1231                    ; 434 | //                                                                     
    1232                    ; 435 | // Enable the watchdog interrupt.                                      
    1233                    ; 436 | //                                                                     
    1234                    ;----------------------------------------------------------------------
    1235 000000f8 9000              STR       A1, [SP, #0]          ; [DPU_V7M3_PIPE] |428|  ; [ORIG 16-BIT INS]
    1236                            .dwpsn  file "../driverlib/watchdog.c",line 437,column 5,is_stmt,isa 1
    1237                    ;----------------------------------------------------------------------
    1238                    ; 437 | HWREG(ui32Base + WDT_O_CTL) |= WDT_CTL_INTEN;                          
    1239                    ;----------------------------------------------------------------------
    1240 000000fa 9800              LDR       A1, [SP, #0]          ; [DPU_V7M3_PIPE] |437|  ; [ORIG 16-BIT INS]
    1241 000000fc 3008              ADDS      A1, A1, #8            ; [DPU_V7M3_PIPE] |437|  ; [ORIG 16-BIT INS]
    1242 000000fe 6801              LDR       A2, [A1, #0]          ; [DPU_V7M3_PIPE] |437|  ; [ORIG 16-BIT INS]
    1243 00000100 0101F041          ORR       A2, A2, #1            ; [DPU_V7M3_PIPE] |437|  ; [KEEP 32-BIT INS]
    1244 00000104 6001              STR       A2, [A1, #0]          ; [DPU_V7M3_PIPE] |437|  ; [ORIG 16-BIT INS]
    1245                            .dwpsn  file "../driverlib/watchdog.c",line 438,column 1,is_stmt,isa 1
    1246 00000106 B002              ADD       SP, SP, #8            ; [DPU_V7M3_PIPE]  ; [ORIG 16-BIT INS]
    1247                            .dwcfi  cfa_offset, 0
    1248                    $C$DW$69        .dwtag  DW_TAG_TI_branch
    1249                            .dwattr $C$DW$69, DW_AT_low_pc(0x00)
    1250                            .dwattr $C$DW$69, DW_AT_TI_return
    1251                    
    1252 00000108 4770              BX        LR                    ; [DPU_V7M3_PIPE]  ; [ORIG 16-BIT INS]
    1253                            ; BRANCH OCCURS                  ; [] 
    1254                            .dwattr $C$DW$66, DW_AT_TI_end_file("../driverlib/watchdog.c")
    1255                            .dwattr $C$DW$66, DW_AT_TI_end_line(0x1b6)
    1256                            .dwattr $C$DW$66, DW_AT_TI_end_column(0x01)
    1257                            .dwendentry
    1258                            .dwendtag $C$DW$66
    1259                    
    1260 0000010a                   .sect   ".text"
    1261                            .clink
    1262                            .thumbfunc WatchdogIntStatus
    1263 0000010a                   .thumb
    1264                            .global WatchdogIntStatus
    1265                    
TI ARM Assembler Unix v18.1.1 Fri Jul  3 20:08:27 2020

Tools Copyright (c) 1996-2017 Texas Instruments Incorporated
watchdog.asm                                                         PAGE   24

    1266                    $C$DW$70        .dwtag  DW_TAG_subprogram
    1267                            .dwattr $C$DW$70, DW_AT_name("WatchdogIntStatus")
    1268                            .dwattr $C$DW$70, DW_AT_low_pc(WatchdogIntStatus)
    1269                            .dwattr $C$DW$70, DW_AT_high_pc(0x00)
    1270                            .dwattr $C$DW$70, DW_AT_TI_symbol_name("WatchdogIntStatus")
    1271                            .dwattr $C$DW$70, DW_AT_external
    1272                            .dwattr $C$DW$70, DW_AT_type(*$C$DW$T$27)
    1273                            .dwattr $C$DW$70, DW_AT_TI_begin_file("../driverlib/watchdog.c")
    1274                            .dwattr $C$DW$70, DW_AT_TI_begin_line(0x1c9)
    1275                            .dwattr $C$DW$70, DW_AT_TI_begin_column(0x01)
    1276                            .dwattr $C$DW$70, DW_AT_decl_file("../driverlib/watchdog.c")
    1277                            .dwattr $C$DW$70, DW_AT_decl_line(0x1c9)
    1278                            .dwattr $C$DW$70, DW_AT_decl_column(0x01)
    1279                            .dwattr $C$DW$70, DW_AT_TI_max_frame_size(0x08)
    1280                            .dwpsn  file "../driverlib/watchdog.c",line 458,column 1,is_stmt,address WatchdogIntStatus,isa
    1281                    
    1282                            .dwfde $C$DW$CIE, WatchdogIntStatus
    1283                    $C$DW$71        .dwtag  DW_TAG_formal_parameter
    1284                            .dwattr $C$DW$71, DW_AT_name("ui32Base")
    1285                            .dwattr $C$DW$71, DW_AT_TI_symbol_name("ui32Base")
    1286                            .dwattr $C$DW$71, DW_AT_type(*$C$DW$T$27)
    1287                            .dwattr $C$DW$71, DW_AT_location[DW_OP_reg0]
    1288                    
    1289                    $C$DW$72        .dwtag  DW_TAG_formal_parameter
    1290                            .dwattr $C$DW$72, DW_AT_name("bMasked")
    1291                            .dwattr $C$DW$72, DW_AT_TI_symbol_name("bMasked")
    1292                            .dwattr $C$DW$72, DW_AT_type(*$C$DW$T$110)
    1293                            .dwattr $C$DW$72, DW_AT_location[DW_OP_reg1]
    1294                    
    1295                    ;----------------------------------------------------------------------
    1296                    ; 457 | WatchdogIntStatus(uint32_t ui32Base, bool bMasked)                     
    1297                    ;----------------------------------------------------------------------
    1298                    
    1299                    ;*****************************************************************************
    1300                    ;* FUNCTION NAME: WatchdogIntStatus                                          *
    1301                    ;*                                                                           *
    1302                    ;*   Regs Modified     : A1,SP                                               *
    1303                    ;*   Regs Used         : A1,A2,SP,LR                                         *
    1304                    ;*   Local Frame Size  : 0 Args + 8 Auto + 0 Save = 8 byte                   *
    1305                    ;*****************************************************************************
    1306 0000010a           WatchdogIntStatus:
    1307                    ;* --------------------------------------------------------------------------*
    1308                            .dwcfi  cfa_offset, 0
    1309 0000010a 0D08F1AD          SUB       SP, SP, #8            ; [DPU_V7M3_PIPE]  ; [KEEP 32-BIT INS]
    1310                            .dwcfi  cfa_offset, 8
    1311                    $C$DW$73        .dwtag  DW_TAG_variable
    1312                            .dwattr $C$DW$73, DW_AT_name("ui32Base")
    1313                            .dwattr $C$DW$73, DW_AT_TI_symbol_name("ui32Base")
    1314                            .dwattr $C$DW$73, DW_AT_type(*$C$DW$T$27)
    1315                            .dwattr $C$DW$73, DW_AT_location[DW_OP_breg13 0]
    1316                    
    1317                    $C$DW$74        .dwtag  DW_TAG_variable
    1318                            .dwattr $C$DW$74, DW_AT_name("bMasked")
    1319                            .dwattr $C$DW$74, DW_AT_TI_symbol_name("bMasked")
    1320                            .dwattr $C$DW$74, DW_AT_type(*$C$DW$T$110)
TI ARM Assembler Unix v18.1.1 Fri Jul  3 20:08:27 2020

Tools Copyright (c) 1996-2017 Texas Instruments Incorporated
watchdog.asm                                                         PAGE   25

    1321                            .dwattr $C$DW$74, DW_AT_location[DW_OP_breg13 4]
    1322                    
    1323                    ;----------------------------------------------------------------------
    1324                    ; 459 | //                                                                     
    1325                    ; 460 | // Check the arguments.                                                
    1326                    ; 461 | //                                                                     
    1327                    ; 462 | ASSERT((ui32Base == WATCHDOG0_BASE) || (ui32Base == WATCHDOG1_BASE));  
    1328                    ; 464 | //                                                                     
    1329                    ; 465 | // Return either the interrupt status or the raw interrupt status as   
    1330                    ; 466 | // requested.                                                          
    1331                    ; 467 | //                                                                     
    1332                    ;----------------------------------------------------------------------
    1333 0000010e 1004F88D          STRB      A2, [SP, #4]          ; [DPU_V7M3_PIPE] |458|  ; [KEEP 32-BIT INS]
    1334 00000112 9000              STR       A1, [SP, #0]          ; [DPU_V7M3_PIPE] |458|  ; [ORIG 16-BIT INS]
    1335                            .dwpsn  file "../driverlib/watchdog.c",line 468,column 5,is_stmt,isa 1
    1336                    ;----------------------------------------------------------------------
    1337                    ; 468 | if(bMasked)                                                            
    1338                    ;----------------------------------------------------------------------
    1339 00000114 0004F89D          LDRB      A1, [SP, #4]          ; [DPU_V7M3_PIPE] |468|  ; [KEEP 32-BIT INS]
    1340 00000118 B110              CBZ       A1, ||$C$L5||         ; []  ; [ORIG 16-BIT INS]
    1341                            ; BRANCHCC OCCURS {||$C$L5||}    ; [] |468| 
    1342                    ;* --------------------------------------------------------------------------*
    1343                            .dwpsn  file "../driverlib/watchdog.c",line 470,column 9,is_stmt,isa 1
    1344                    ;----------------------------------------------------------------------
    1345                    ; 470 | return(HWREG(ui32Base + WDT_O_MIS));                                   
    1346                    ; 472 | else                                                                   
    1347                    ;----------------------------------------------------------------------
    1348 0000011a 9800              LDR       A1, [SP, #0]          ; [DPU_V7M3_PIPE] |470|  ; [ORIG 16-BIT INS]
    1349 0000011c 6940              LDR       A1, [A1, #20]         ; [DPU_V7M3_PIPE] |470|  ; [ORIG 16-BIT INS]
    1350 0000011e E001              B         ||$C$L6||             ; [DPU_V7M3_PIPE] |470|  ; [ORIG 16-BIT INS]
    1351                            ; BRANCH OCCURS {||$C$L6||}      ; [] |470| 
    1352                    ;* --------------------------------------------------------------------------*
    1353                    ;* --------------------------------------------------------------------------*
    1354 00000120           ||$C$L5||:    
    1355                            .dwpsn  file "../driverlib/watchdog.c",line 474,column 9,is_stmt,isa 1
    1356                    ;----------------------------------------------------------------------
    1357                    ; 474 | return(HWREG(ui32Base + WDT_O_RIS));                                   
    1358                    ;----------------------------------------------------------------------
    1359 00000120 9800              LDR       A1, [SP, #0]          ; [DPU_V7M3_PIPE] |474|  ; [ORIG 16-BIT INS]
    1360 00000122 6900              LDR       A1, [A1, #16]         ; [DPU_V7M3_PIPE] |474|  ; [ORIG 16-BIT INS]
    1361                    ;* --------------------------------------------------------------------------*
    1362 00000124           ||$C$L6||:    
    1363                            .dwpsn  file "../driverlib/watchdog.c",line 476,column 1,is_stmt,isa 1
    1364 00000124 B002              ADD       SP, SP, #8            ; [DPU_V7M3_PIPE]  ; [ORIG 16-BIT INS]
    1365                            .dwcfi  cfa_offset, 0
    1366                    $C$DW$75        .dwtag  DW_TAG_TI_branch
    1367                            .dwattr $C$DW$75, DW_AT_low_pc(0x00)
    1368                            .dwattr $C$DW$75, DW_AT_TI_return
    1369                    
    1370 00000126 4770              BX        LR                    ; [DPU_V7M3_PIPE]  ; [ORIG 16-BIT INS]
    1371                            ; BRANCH OCCURS                  ; [] 
    1372                            .dwattr $C$DW$70, DW_AT_TI_end_file("../driverlib/watchdog.c")
    1373                            .dwattr $C$DW$70, DW_AT_TI_end_line(0x1dc)
    1374                            .dwattr $C$DW$70, DW_AT_TI_end_column(0x01)
    1375                            .dwendentry
TI ARM Assembler Unix v18.1.1 Fri Jul  3 20:08:27 2020

Tools Copyright (c) 1996-2017 Texas Instruments Incorporated
watchdog.asm                                                         PAGE   26

    1376                            .dwendtag $C$DW$70
    1377                    
    1378 00000128                   .sect   ".text"
    1379                            .clink
    1380                            .thumbfunc WatchdogIntClear
    1381 00000128                   .thumb
    1382                            .global WatchdogIntClear
    1383                    
    1384                    $C$DW$76        .dwtag  DW_TAG_subprogram
    1385                            .dwattr $C$DW$76, DW_AT_name("WatchdogIntClear")
    1386                            .dwattr $C$DW$76, DW_AT_low_pc(WatchdogIntClear)
    1387                            .dwattr $C$DW$76, DW_AT_high_pc(0x00)
    1388                            .dwattr $C$DW$76, DW_AT_TI_symbol_name("WatchdogIntClear")
    1389                            .dwattr $C$DW$76, DW_AT_external
    1390                            .dwattr $C$DW$76, DW_AT_TI_begin_file("../driverlib/watchdog.c")
    1391                            .dwattr $C$DW$76, DW_AT_TI_begin_line(0x1f5)
    1392                            .dwattr $C$DW$76, DW_AT_TI_begin_column(0x01)
    1393                            .dwattr $C$DW$76, DW_AT_decl_file("../driverlib/watchdog.c")
    1394                            .dwattr $C$DW$76, DW_AT_decl_line(0x1f5)
    1395                            .dwattr $C$DW$76, DW_AT_decl_column(0x01)
    1396                            .dwattr $C$DW$76, DW_AT_TI_max_frame_size(0x08)
    1397                            .dwpsn  file "../driverlib/watchdog.c",line 502,column 1,is_stmt,address WatchdogIntClear,isa 
    1398                    
    1399                            .dwfde $C$DW$CIE, WatchdogIntClear
    1400                    $C$DW$77        .dwtag  DW_TAG_formal_parameter
    1401                            .dwattr $C$DW$77, DW_AT_name("ui32Base")
    1402                            .dwattr $C$DW$77, DW_AT_TI_symbol_name("ui32Base")
    1403                            .dwattr $C$DW$77, DW_AT_type(*$C$DW$T$27)
    1404                            .dwattr $C$DW$77, DW_AT_location[DW_OP_reg0]
    1405                    
    1406                    ;----------------------------------------------------------------------
    1407                    ; 501 | WatchdogIntClear(uint32_t ui32Base)                                    
    1408                    ;----------------------------------------------------------------------
    1409                    
    1410                    ;*****************************************************************************
    1411                    ;* FUNCTION NAME: WatchdogIntClear                                           *
    1412                    ;*                                                                           *
    1413                    ;*   Regs Modified     : A1,A2,SP,SR                                         *
    1414                    ;*   Regs Used         : A1,A2,SP,LR,SR                                      *
    1415                    ;*   Local Frame Size  : 0 Args + 4 Auto + 0 Save = 4 byte                   *
    1416                    ;*****************************************************************************
    1417 00000128           WatchdogIntClear:
    1418                    ;* --------------------------------------------------------------------------*
    1419                            .dwcfi  cfa_offset, 0
    1420 00000128 0D08F1AD          SUB       SP, SP, #8            ; [DPU_V7M3_PIPE]  ; [KEEP 32-BIT INS]
    1421                            .dwcfi  cfa_offset, 8
    1422                    $C$DW$78        .dwtag  DW_TAG_variable
    1423                            .dwattr $C$DW$78, DW_AT_name("ui32Base")
    1424                            .dwattr $C$DW$78, DW_AT_TI_symbol_name("ui32Base")
    1425                            .dwattr $C$DW$78, DW_AT_type(*$C$DW$T$27)
    1426                            .dwattr $C$DW$78, DW_AT_location[DW_OP_breg13 0]
    1427                    
    1428                    ;----------------------------------------------------------------------
    1429                    ; 503 | //                                                                     
    1430                    ; 504 | // Check the arguments.                                                
TI ARM Assembler Unix v18.1.1 Fri Jul  3 20:08:27 2020

Tools Copyright (c) 1996-2017 Texas Instruments Incorporated
watchdog.asm                                                         PAGE   27

    1431                    ; 505 | //                                                                     
    1432                    ; 506 | ASSERT((ui32Base == WATCHDOG0_BASE) || (ui32Base == WATCHDOG1_BASE));  
    1433                    ; 508 | //                                                                     
    1434                    ; 509 | // Clear the interrupt source.                                         
    1435                    ; 510 | //                                                                     
    1436                    ;----------------------------------------------------------------------
    1437 0000012c 9000              STR       A1, [SP, #0]          ; [DPU_V7M3_PIPE] |502|  ; [ORIG 16-BIT INS]
    1438                            .dwpsn  file "../driverlib/watchdog.c",line 511,column 5,is_stmt,isa 1
    1439                    ;----------------------------------------------------------------------
    1440                    ; 511 | HWREG(ui32Base + WDT_O_ICR) = WDT_RIS_WDTRIS;                          
    1441                    ;----------------------------------------------------------------------
    1442 0000012e 9800              LDR       A1, [SP, #0]          ; [DPU_V7M3_PIPE] |511|  ; [ORIG 16-BIT INS]
    1443 00000130 2101              MOVS      A2, #1                ; [DPU_V7M3_PIPE] |511|  ; [ORIG 16-BIT INS]
    1444 00000132 60C1              STR       A2, [A1, #12]         ; [DPU_V7M3_PIPE] |511|  ; [ORIG 16-BIT INS]
    1445                            .dwpsn  file "../driverlib/watchdog.c",line 512,column 1,is_stmt,isa 1
    1446 00000134 B002              ADD       SP, SP, #8            ; [DPU_V7M3_PIPE]  ; [ORIG 16-BIT INS]
    1447                            .dwcfi  cfa_offset, 0
    1448                    $C$DW$79        .dwtag  DW_TAG_TI_branch
    1449                            .dwattr $C$DW$79, DW_AT_low_pc(0x00)
    1450                            .dwattr $C$DW$79, DW_AT_TI_return
    1451                    
    1452 00000136 4770              BX        LR                    ; [DPU_V7M3_PIPE]  ; [ORIG 16-BIT INS]
    1453                            ; BRANCH OCCURS                  ; [] 
    1454                            .dwattr $C$DW$76, DW_AT_TI_end_file("../driverlib/watchdog.c")
    1455                            .dwattr $C$DW$76, DW_AT_TI_end_line(0x200)
    1456                            .dwattr $C$DW$76, DW_AT_TI_end_column(0x01)
    1457                            .dwendentry
    1458                            .dwendtag $C$DW$76
    1459                    
    1460 00000138                   .sect   ".text"
    1461                            .clink
    1462                            .thumbfunc WatchdogIntTypeSet
    1463 00000138                   .thumb
    1464                            .global WatchdogIntTypeSet
    1465                    
    1466                    $C$DW$80        .dwtag  DW_TAG_subprogram
    1467                            .dwattr $C$DW$80, DW_AT_name("WatchdogIntTypeSet")
    1468                            .dwattr $C$DW$80, DW_AT_low_pc(WatchdogIntTypeSet)
    1469                            .dwattr $C$DW$80, DW_AT_high_pc(0x00)
    1470                            .dwattr $C$DW$80, DW_AT_TI_symbol_name("WatchdogIntTypeSet")
    1471                            .dwattr $C$DW$80, DW_AT_external
    1472                            .dwattr $C$DW$80, DW_AT_TI_begin_file("../driverlib/watchdog.c")
    1473                            .dwattr $C$DW$80, DW_AT_TI_begin_line(0x21b)
    1474                            .dwattr $C$DW$80, DW_AT_TI_begin_column(0x01)
    1475                            .dwattr $C$DW$80, DW_AT_decl_file("../driverlib/watchdog.c")
    1476                            .dwattr $C$DW$80, DW_AT_decl_line(0x21b)
    1477                            .dwattr $C$DW$80, DW_AT_decl_column(0x01)
    1478                            .dwattr $C$DW$80, DW_AT_TI_max_frame_size(0x08)
    1479                            .dwpsn  file "../driverlib/watchdog.c",line 540,column 1,is_stmt,address WatchdogIntTypeSet,is
    1480                    
    1481                            .dwfde $C$DW$CIE, WatchdogIntTypeSet
    1482                    $C$DW$81        .dwtag  DW_TAG_formal_parameter
    1483                            .dwattr $C$DW$81, DW_AT_name("ui32Base")
    1484                            .dwattr $C$DW$81, DW_AT_TI_symbol_name("ui32Base")
    1485                            .dwattr $C$DW$81, DW_AT_type(*$C$DW$T$27)
TI ARM Assembler Unix v18.1.1 Fri Jul  3 20:08:27 2020

Tools Copyright (c) 1996-2017 Texas Instruments Incorporated
watchdog.asm                                                         PAGE   28

    1486                            .dwattr $C$DW$81, DW_AT_location[DW_OP_reg0]
    1487                    
    1488                    $C$DW$82        .dwtag  DW_TAG_formal_parameter
    1489                            .dwattr $C$DW$82, DW_AT_name("ui32Type")
    1490                            .dwattr $C$DW$82, DW_AT_TI_symbol_name("ui32Type")
    1491                            .dwattr $C$DW$82, DW_AT_type(*$C$DW$T$27)
    1492                            .dwattr $C$DW$82, DW_AT_location[DW_OP_reg1]
    1493                    
    1494                    ;----------------------------------------------------------------------
    1495                    ; 539 | WatchdogIntTypeSet(uint32_t ui32Base, uint32_t ui32Type)               
    1496                    ;----------------------------------------------------------------------
    1497                    
    1498                    ;*****************************************************************************
    1499                    ;* FUNCTION NAME: WatchdogIntTypeSet                                         *
    1500                    ;*                                                                           *
    1501                    ;*   Regs Modified     : A1,A2,A3,SP,SR                                      *
    1502                    ;*   Regs Used         : A1,A2,A3,SP,LR,SR                                   *
    1503                    ;*   Local Frame Size  : 0 Args + 8 Auto + 0 Save = 8 byte                   *
    1504                    ;*****************************************************************************
    1505 00000138           WatchdogIntTypeSet:
    1506                    ;* --------------------------------------------------------------------------*
    1507                            .dwcfi  cfa_offset, 0
    1508 00000138 0D08F1AD          SUB       SP, SP, #8            ; [DPU_V7M3_PIPE]  ; [KEEP 32-BIT INS]
    1509                            .dwcfi  cfa_offset, 8
    1510                    $C$DW$83        .dwtag  DW_TAG_variable
    1511                            .dwattr $C$DW$83, DW_AT_name("ui32Base")
    1512                            .dwattr $C$DW$83, DW_AT_TI_symbol_name("ui32Base")
    1513                            .dwattr $C$DW$83, DW_AT_type(*$C$DW$T$27)
    1514                            .dwattr $C$DW$83, DW_AT_location[DW_OP_breg13 0]
    1515                    
    1516                    $C$DW$84        .dwtag  DW_TAG_variable
    1517                            .dwattr $C$DW$84, DW_AT_name("ui32Type")
    1518                            .dwattr $C$DW$84, DW_AT_TI_symbol_name("ui32Type")
    1519                            .dwattr $C$DW$84, DW_AT_type(*$C$DW$T$27)
    1520                            .dwattr $C$DW$84, DW_AT_location[DW_OP_breg13 4]
    1521                    
    1522                    ;----------------------------------------------------------------------
    1523                    ; 541 | //                                                                     
    1524                    ; 542 | // Check the arguments.                                                
    1525                    ; 543 | //                                                                     
    1526                    ; 544 | ASSERT((ui32Base == WATCHDOG0_BASE) || (ui32Base == WATCHDOG1_BASE));  
    1527                    ; 545 | ASSERT((ui32Type == WATCHDOG_INT_TYPE_INT) ||                          
    1528                    ; 546 |        (ui32Type == WATCHDOG_INT_TYPE_NMI));                           
    1529                    ; 548 | //                                                                     
    1530                    ; 549 | // Set the interrupt type.                                             
    1531                    ; 550 | //                                                                     
    1532                    ;----------------------------------------------------------------------
    1533 0000013c 9101              STR       A2, [SP, #4]          ; [DPU_V7M3_PIPE] |540|  ; [ORIG 16-BIT INS]
    1534 0000013e 9000              STR       A1, [SP, #0]          ; [DPU_V7M3_PIPE] |540|  ; [ORIG 16-BIT INS]
    1535                            .dwpsn  file "../driverlib/watchdog.c",line 551,column 5,is_stmt,isa 1
    1536                    ;----------------------------------------------------------------------
    1537                    ; 551 | HWREG(ui32Base + WDT_O_CTL) = (HWREG(ui32Base + WDT_O_CTL) &           
    1538                    ; 552 |                                ~WDT_CTL_INTTYPE) | ui32Type;           
    1539                    ;----------------------------------------------------------------------
    1540 00000140 9800              LDR       A1, [SP, #0]          ; [DPU_V7M3_PIPE] |551|  ; [ORIG 16-BIT INS]
TI ARM Assembler Unix v18.1.1 Fri Jul  3 20:08:27 2020

Tools Copyright (c) 1996-2017 Texas Instruments Incorporated
watchdog.asm                                                         PAGE   29

    1541 00000142 9901              LDR       A2, [SP, #4]          ; [DPU_V7M3_PIPE] |551|  ; [ORIG 16-BIT INS]
    1542 00000144 9A00              LDR       A3, [SP, #0]          ; [DPU_V7M3_PIPE] |551|  ; [ORIG 16-BIT INS]
    1543 00000146 6880              LDR       A1, [A1, #8]          ; [DPU_V7M3_PIPE] |551|  ; [ORIG 16-BIT INS]
    1544 00000148 0004F020          BIC       A1, A1, #4            ; [DPU_V7M3_PIPE] |551|  ; [KEEP 32-BIT INS]
    1545 0000014c 4301              ORRS      A2, A2, A1            ; [DPU_V7M3_PIPE] |551|  ; [ORIG 16-BIT INS]
    1546 0000014e 6091              STR       A2, [A3, #8]          ; [DPU_V7M3_PIPE] |551|  ; [ORIG 16-BIT INS]
    1547                            .dwpsn  file "../driverlib/watchdog.c",line 553,column 1,is_stmt,isa 1
    1548 00000150 B002              ADD       SP, SP, #8            ; [DPU_V7M3_PIPE]  ; [ORIG 16-BIT INS]
    1549                            .dwcfi  cfa_offset, 0
    1550                    $C$DW$85        .dwtag  DW_TAG_TI_branch
    1551                            .dwattr $C$DW$85, DW_AT_low_pc(0x00)
    1552                            .dwattr $C$DW$85, DW_AT_TI_return
    1553                    
    1554 00000152 4770              BX        LR                    ; [DPU_V7M3_PIPE]  ; [ORIG 16-BIT INS]
    1555                            ; BRANCH OCCURS                  ; [] 
    1556                            .dwattr $C$DW$80, DW_AT_TI_end_file("../driverlib/watchdog.c")
    1557                            .dwattr $C$DW$80, DW_AT_TI_end_line(0x229)
    1558                            .dwattr $C$DW$80, DW_AT_TI_end_column(0x01)
    1559                            .dwendentry
    1560                            .dwendtag $C$DW$80
    1561                    
    1562 00000154                   .sect   ".text"
    1563                            .clink
    1564                            .thumbfunc WatchdogStallEnable
    1565 00000154                   .thumb
    1566                            .global WatchdogStallEnable
    1567                    
    1568                    $C$DW$86        .dwtag  DW_TAG_subprogram
    1569                            .dwattr $C$DW$86, DW_AT_name("WatchdogStallEnable")
    1570                            .dwattr $C$DW$86, DW_AT_low_pc(WatchdogStallEnable)
    1571                            .dwattr $C$DW$86, DW_AT_high_pc(0x00)
    1572                            .dwattr $C$DW$86, DW_AT_TI_symbol_name("WatchdogStallEnable")
    1573                            .dwattr $C$DW$86, DW_AT_external
    1574                            .dwattr $C$DW$86, DW_AT_TI_begin_file("../driverlib/watchdog.c")
    1575                            .dwattr $C$DW$86, DW_AT_TI_begin_line(0x23f)
    1576                            .dwattr $C$DW$86, DW_AT_TI_begin_column(0x01)
    1577                            .dwattr $C$DW$86, DW_AT_decl_file("../driverlib/watchdog.c")
    1578                            .dwattr $C$DW$86, DW_AT_decl_line(0x23f)
    1579                            .dwattr $C$DW$86, DW_AT_decl_column(0x01)
    1580                            .dwattr $C$DW$86, DW_AT_TI_max_frame_size(0x08)
    1581                            .dwpsn  file "../driverlib/watchdog.c",line 576,column 1,is_stmt,address WatchdogStallEnable,i
    1582                    
    1583                            .dwfde $C$DW$CIE, WatchdogStallEnable
    1584                    $C$DW$87        .dwtag  DW_TAG_formal_parameter
    1585                            .dwattr $C$DW$87, DW_AT_name("ui32Base")
    1586                            .dwattr $C$DW$87, DW_AT_TI_symbol_name("ui32Base")
    1587                            .dwattr $C$DW$87, DW_AT_type(*$C$DW$T$27)
    1588                            .dwattr $C$DW$87, DW_AT_location[DW_OP_reg0]
    1589                    
    1590                    ;----------------------------------------------------------------------
    1591                    ; 575 | WatchdogStallEnable(uint32_t ui32Base)                                 
    1592                    ;----------------------------------------------------------------------
    1593                    
    1594                    ;*****************************************************************************
    1595                    ;* FUNCTION NAME: WatchdogStallEnable                                        *
TI ARM Assembler Unix v18.1.1 Fri Jul  3 20:08:27 2020

Tools Copyright (c) 1996-2017 Texas Instruments Incorporated
watchdog.asm                                                         PAGE   30

    1596                    ;*                                                                           *
    1597                    ;*   Regs Modified     : A1,A2,SP                                            *
    1598                    ;*   Regs Used         : A1,A2,SP,LR                                         *
    1599                    ;*   Local Frame Size  : 0 Args + 4 Auto + 0 Save = 4 byte                   *
    1600                    ;*****************************************************************************
    1601 00000154           WatchdogStallEnable:
    1602                    ;* --------------------------------------------------------------------------*
    1603                            .dwcfi  cfa_offset, 0
    1604 00000154 0D08F1AD          SUB       SP, SP, #8            ; [DPU_V7M3_PIPE]  ; [KEEP 32-BIT INS]
    1605                            .dwcfi  cfa_offset, 8
    1606                    $C$DW$88        .dwtag  DW_TAG_variable
    1607                            .dwattr $C$DW$88, DW_AT_name("ui32Base")
    1608                            .dwattr $C$DW$88, DW_AT_TI_symbol_name("ui32Base")
    1609                            .dwattr $C$DW$88, DW_AT_type(*$C$DW$T$27)
    1610                            .dwattr $C$DW$88, DW_AT_location[DW_OP_breg13 0]
    1611                    
    1612                    ;----------------------------------------------------------------------
    1613                    ; 577 | //                                                                     
    1614                    ; 578 | // Check the arguments.                                                
    1615                    ; 579 | //                                                                     
    1616                    ; 580 | ASSERT((ui32Base == WATCHDOG0_BASE) || (ui32Base == WATCHDOG1_BASE));  
    1617                    ; 582 | //                                                                     
    1618                    ; 583 | // Enable timer stalling.                                              
    1619                    ; 584 | //                                                                     
    1620                    ;----------------------------------------------------------------------
    1621 00000158 9000              STR       A1, [SP, #0]          ; [DPU_V7M3_PIPE] |576|  ; [ORIG 16-BIT INS]
    1622                            .dwpsn  file "../driverlib/watchdog.c",line 585,column 5,is_stmt,isa 1
    1623                    ;----------------------------------------------------------------------
    1624                    ; 585 | HWREG(ui32Base + WDT_O_TEST) |= WDT_TEST_STALL;                        
    1625                    ;----------------------------------------------------------------------
    1626 0000015a 9800              LDR       A1, [SP, #0]          ; [DPU_V7M3_PIPE] |585|  ; [ORIG 16-BIT INS]
    1627 0000015c 6083F500          ADD       A1, A1, #1048         ; [DPU_V7M3_PIPE] |585|  ; [KEEP 32-BIT INS]
    1628 00000160 6801              LDR       A2, [A1, #0]          ; [DPU_V7M3_PIPE] |585|  ; [ORIG 16-BIT INS]
    1629 00000162 7180F441          ORR       A2, A2, #256          ; [DPU_V7M3_PIPE] |585|  ; [KEEP 32-BIT INS]
    1630 00000166 6001              STR       A2, [A1, #0]          ; [DPU_V7M3_PIPE] |585|  ; [ORIG 16-BIT INS]
    1631                            .dwpsn  file "../driverlib/watchdog.c",line 586,column 1,is_stmt,isa 1
    1632 00000168 B002              ADD       SP, SP, #8            ; [DPU_V7M3_PIPE]  ; [ORIG 16-BIT INS]
    1633                            .dwcfi  cfa_offset, 0
    1634                    $C$DW$89        .dwtag  DW_TAG_TI_branch
    1635                            .dwattr $C$DW$89, DW_AT_low_pc(0x00)
    1636                            .dwattr $C$DW$89, DW_AT_TI_return
    1637                    
    1638 0000016a 4770              BX        LR                    ; [DPU_V7M3_PIPE]  ; [ORIG 16-BIT INS]
    1639                            ; BRANCH OCCURS                  ; [] 
    1640                            .dwattr $C$DW$86, DW_AT_TI_end_file("../driverlib/watchdog.c")
    1641                            .dwattr $C$DW$86, DW_AT_TI_end_line(0x24a)
    1642                            .dwattr $C$DW$86, DW_AT_TI_end_column(0x01)
    1643                            .dwendentry
    1644                            .dwendtag $C$DW$86
    1645                    
    1646 0000016c                   .sect   ".text"
    1647                            .clink
    1648                            .thumbfunc WatchdogStallDisable
    1649 0000016c                   .thumb
    1650                            .global WatchdogStallDisable
TI ARM Assembler Unix v18.1.1 Fri Jul  3 20:08:27 2020

Tools Copyright (c) 1996-2017 Texas Instruments Incorporated
watchdog.asm                                                         PAGE   31

    1651                    
    1652                    $C$DW$90        .dwtag  DW_TAG_subprogram
    1653                            .dwattr $C$DW$90, DW_AT_name("WatchdogStallDisable")
    1654                            .dwattr $C$DW$90, DW_AT_low_pc(WatchdogStallDisable)
    1655                            .dwattr $C$DW$90, DW_AT_high_pc(0x00)
    1656                            .dwattr $C$DW$90, DW_AT_TI_symbol_name("WatchdogStallDisable")
    1657                            .dwattr $C$DW$90, DW_AT_external
    1658                            .dwattr $C$DW$90, DW_AT_TI_begin_file("../driverlib/watchdog.c")
    1659                            .dwattr $C$DW$90, DW_AT_TI_begin_line(0x25c)
    1660                            .dwattr $C$DW$90, DW_AT_TI_begin_column(0x01)
    1661                            .dwattr $C$DW$90, DW_AT_decl_file("../driverlib/watchdog.c")
    1662                            .dwattr $C$DW$90, DW_AT_decl_line(0x25c)
    1663                            .dwattr $C$DW$90, DW_AT_decl_column(0x01)
    1664                            .dwattr $C$DW$90, DW_AT_TI_max_frame_size(0x08)
    1665                            .dwpsn  file "../driverlib/watchdog.c",line 605,column 1,is_stmt,address WatchdogStallDisable,
    1666                    
    1667                            .dwfde $C$DW$CIE, WatchdogStallDisable
    1668                    $C$DW$91        .dwtag  DW_TAG_formal_parameter
    1669                            .dwattr $C$DW$91, DW_AT_name("ui32Base")
    1670                            .dwattr $C$DW$91, DW_AT_TI_symbol_name("ui32Base")
    1671                            .dwattr $C$DW$91, DW_AT_type(*$C$DW$T$27)
    1672                            .dwattr $C$DW$91, DW_AT_location[DW_OP_reg0]
    1673                    
    1674                    ;----------------------------------------------------------------------
    1675                    ; 604 | WatchdogStallDisable(uint32_t ui32Base)                                
    1676                    ;----------------------------------------------------------------------
    1677                    
    1678                    ;*****************************************************************************
    1679                    ;* FUNCTION NAME: WatchdogStallDisable                                       *
    1680                    ;*                                                                           *
    1681                    ;*   Regs Modified     : A1,A2,SP                                            *
    1682                    ;*   Regs Used         : A1,A2,SP,LR                                         *
    1683                    ;*   Local Frame Size  : 0 Args + 4 Auto + 0 Save = 4 byte                   *
    1684                    ;*****************************************************************************
    1685 0000016c           WatchdogStallDisable:
    1686                    ;* --------------------------------------------------------------------------*
    1687                            .dwcfi  cfa_offset, 0
    1688 0000016c 0D08F1AD          SUB       SP, SP, #8            ; [DPU_V7M3_PIPE]  ; [KEEP 32-BIT INS]
    1689                            .dwcfi  cfa_offset, 8
    1690                    $C$DW$92        .dwtag  DW_TAG_variable
    1691                            .dwattr $C$DW$92, DW_AT_name("ui32Base")
    1692                            .dwattr $C$DW$92, DW_AT_TI_symbol_name("ui32Base")
    1693                            .dwattr $C$DW$92, DW_AT_type(*$C$DW$T$27)
    1694                            .dwattr $C$DW$92, DW_AT_location[DW_OP_breg13 0]
    1695                    
    1696                    ;----------------------------------------------------------------------
    1697                    ; 606 | //                                                                     
    1698                    ; 607 | // Check the arguments.                                                
    1699                    ; 608 | //                                                                     
    1700                    ; 609 | ASSERT((ui32Base == WATCHDOG0_BASE) || (ui32Base == WATCHDOG1_BASE));  
    1701                    ; 611 | //                                                                     
    1702                    ; 612 | // Disable timer stalling.                                             
    1703                    ; 613 | //                                                                     
    1704                    ;----------------------------------------------------------------------
    1705 00000170 9000              STR       A1, [SP, #0]          ; [DPU_V7M3_PIPE] |605|  ; [ORIG 16-BIT INS]
TI ARM Assembler Unix v18.1.1 Fri Jul  3 20:08:27 2020

Tools Copyright (c) 1996-2017 Texas Instruments Incorporated
watchdog.asm                                                         PAGE   32

    1706                            .dwpsn  file "../driverlib/watchdog.c",line 614,column 5,is_stmt,isa 1
    1707                    ;----------------------------------------------------------------------
    1708                    ; 614 | HWREG(ui32Base + WDT_O_TEST) &= ~(WDT_TEST_STALL);                     
    1709                    ;----------------------------------------------------------------------
    1710 00000172 9800              LDR       A1, [SP, #0]          ; [DPU_V7M3_PIPE] |614|  ; [ORIG 16-BIT INS]
    1711 00000174 6083F500          ADD       A1, A1, #1048         ; [DPU_V7M3_PIPE] |614|  ; [KEEP 32-BIT INS]
    1712 00000178 6801              LDR       A2, [A1, #0]          ; [DPU_V7M3_PIPE] |614|  ; [ORIG 16-BIT INS]
    1713 0000017a 7180F421          BIC       A2, A2, #256          ; [DPU_V7M3_PIPE] |614|  ; [KEEP 32-BIT INS]
    1714 0000017e 6001              STR       A2, [A1, #0]          ; [DPU_V7M3_PIPE] |614|  ; [ORIG 16-BIT INS]
    1715                            .dwpsn  file "../driverlib/watchdog.c",line 615,column 1,is_stmt,isa 1
    1716 00000180 B002              ADD       SP, SP, #8            ; [DPU_V7M3_PIPE]  ; [ORIG 16-BIT INS]
    1717                            .dwcfi  cfa_offset, 0
    1718                    $C$DW$93        .dwtag  DW_TAG_TI_branch
    1719                            .dwattr $C$DW$93, DW_AT_low_pc(0x00)
    1720                            .dwattr $C$DW$93, DW_AT_TI_return
    1721                    
    1722 00000182 4770              BX        LR                    ; [DPU_V7M3_PIPE]  ; [ORIG 16-BIT INS]
    1723                            ; BRANCH OCCURS                  ; [] 
    1724                            .dwattr $C$DW$90, DW_AT_TI_end_file("../driverlib/watchdog.c")
    1725                            .dwattr $C$DW$90, DW_AT_TI_end_line(0x267)
    1726                            .dwattr $C$DW$90, DW_AT_TI_end_column(0x01)
    1727                            .dwendentry
    1728                            .dwendtag $C$DW$90
    1729                    
    1730                    ;******************************************************************************
    1731                    ;* CONSTANT TABLE                                                             *
    1732                    ;******************************************************************************
    1733 00000184                   .sect   ".text"
    1734                            .align  4
    1735 00000184 1ACCE551  ||$C$CON1||:    .bits   449635665,32
    1736                    ;*****************************************************************************
    1737                    ;* UNDEFINED EXTERNAL REFERENCES                                             *
    1738                    ;*****************************************************************************
    1739                            .global IntRegister
    1740                            .global IntEnable
    1741                            .global IntDisable
    1742                            .global IntUnregister
    1743                    
    1744                    ;******************************************************************************
    1745                    ;* BUILD ATTRIBUTES                                                           *
    1746                    ;******************************************************************************
    1747                            .battr "aeabi", Tag_File, 1, Tag_ABI_PCS_wchar_t(2)
    1748                            .battr "aeabi", Tag_File, 1, Tag_ABI_FP_rounding(0)
    1749                            .battr "aeabi", Tag_File, 1, Tag_ABI_FP_denormal(0)
    1750                            .battr "aeabi", Tag_File, 1, Tag_ABI_FP_exceptions(0)
    1751                            .battr "aeabi", Tag_File, 1, Tag_ABI_FP_number_model(1)
    1752                            .battr "aeabi", Tag_File, 1, Tag_ABI_enum_size(0)
    1753                            .battr "aeabi", Tag_File, 1, Tag_ABI_optimization_goals(5)
    1754                            .battr "aeabi", Tag_File, 1, Tag_ABI_FP_optimization_goals(0)
    1755                            .battr "TI", Tag_File, 1, Tag_Bitfield_layout(2)
    1756                            .battr "aeabi", Tag_File, 1, Tag_ABI_VFP_args(3)
    1757                            .battr "TI", Tag_File, 1, Tag_FP_interface(1)
    1758                    
    1759                    ;******************************************************************************
    1760                    ;* TYPE INFORMATION                                                           *
TI ARM Assembler Unix v18.1.1 Fri Jul  3 20:08:27 2020

Tools Copyright (c) 1996-2017 Texas Instruments Incorporated
watchdog.asm                                                         PAGE   33

    1761                    ;******************************************************************************
    1762                    
    1763                    $C$DW$T$21      .dwtag  DW_TAG_structure_type
    1764                            .dwattr $C$DW$T$21, DW_AT_byte_size(0x10)
    1765                    $C$DW$94        .dwtag  DW_TAG_member
    1766                            .dwattr $C$DW$94, DW_AT_type(*$C$DW$T$14)
    1767                            .dwattr $C$DW$94, DW_AT_name("__max_align1")
    1768                            .dwattr $C$DW$94, DW_AT_TI_symbol_name("__max_align1")
    1769                            .dwattr $C$DW$94, DW_AT_data_member_location[DW_OP_plus_uconst 0x0]
    1770                            .dwattr $C$DW$94, DW_AT_accessibility(DW_ACCESS_public)
    1771                            .dwattr $C$DW$94, DW_AT_decl_file("/home/pola/ti/ccsv8/tools/compiler/ti-cgt-arm_18.1.1.LTS/in
    1772                            .dwattr $C$DW$94, DW_AT_decl_line(0x70)
    1773                            .dwattr $C$DW$94, DW_AT_decl_column(0x0c)
    1774                    
    1775                    $C$DW$95        .dwtag  DW_TAG_member
    1776                            .dwattr $C$DW$95, DW_AT_type(*$C$DW$T$18)
    1777                            .dwattr $C$DW$95, DW_AT_name("__max_align2")
    1778                            .dwattr $C$DW$95, DW_AT_TI_symbol_name("__max_align2")
    1779                            .dwattr $C$DW$95, DW_AT_data_member_location[DW_OP_plus_uconst 0x8]
    1780                            .dwattr $C$DW$95, DW_AT_accessibility(DW_ACCESS_public)
    1781                            .dwattr $C$DW$95, DW_AT_decl_file("/home/pola/ti/ccsv8/tools/compiler/ti-cgt-arm_18.1.1.LTS/in
    1782                            .dwattr $C$DW$95, DW_AT_decl_line(0x71)
    1783                            .dwattr $C$DW$95, DW_AT_decl_column(0x0e)
    1784                    
    1785                            .dwattr $C$DW$T$21, DW_AT_decl_file("/home/pola/ti/ccsv8/tools/compiler/ti-cgt-arm_18.1.1.LTS/
    1786                            .dwattr $C$DW$T$21, DW_AT_decl_line(0x6f)
    1787                            .dwattr $C$DW$T$21, DW_AT_decl_column(0x10)
    1788                            .dwendtag $C$DW$T$21
    1789                    
    1790                    $C$DW$T$23      .dwtag  DW_TAG_typedef
    1791                            .dwattr $C$DW$T$23, DW_AT_name("__max_align_t")
    1792                            .dwattr $C$DW$T$23, DW_AT_type(*$C$DW$T$21)
    1793                            .dwattr $C$DW$T$23, DW_AT_language(DW_LANG_C)
    1794                            .dwattr $C$DW$T$23, DW_AT_decl_file("/home/pola/ti/ccsv8/tools/compiler/ti-cgt-arm_18.1.1.LTS/
    1795                            .dwattr $C$DW$T$23, DW_AT_decl_line(0x72)
    1796                            .dwattr $C$DW$T$23, DW_AT_decl_column(0x03)
    1797                    
    1798                    $C$DW$T$2       .dwtag  DW_TAG_unspecified_type
    1799                            .dwattr $C$DW$T$2, DW_AT_name("void")
    1800                    
    1801                    $C$DW$T$3       .dwtag  DW_TAG_pointer_type
    1802                            .dwattr $C$DW$T$3, DW_AT_type(*$C$DW$T$2)
    1803                            .dwattr $C$DW$T$3, DW_AT_address_class(0x20)
    1804                    
    1805                    
    1806                    $C$DW$T$24      .dwtag  DW_TAG_subroutine_type
    1807                            .dwattr $C$DW$T$24, DW_AT_language(DW_LANG_C)
    1808                            .dwendtag $C$DW$T$24
    1809                    
    1810                    $C$DW$T$25      .dwtag  DW_TAG_pointer_type
    1811                            .dwattr $C$DW$T$25, DW_AT_type(*$C$DW$T$24)
    1812                            .dwattr $C$DW$T$25, DW_AT_address_class(0x20)
    1813                    
    1814                    $C$DW$T$4       .dwtag  DW_TAG_base_type
    1815                            .dwattr $C$DW$T$4, DW_AT_encoding(DW_ATE_boolean)
TI ARM Assembler Unix v18.1.1 Fri Jul  3 20:08:27 2020

Tools Copyright (c) 1996-2017 Texas Instruments Incorporated
watchdog.asm                                                         PAGE   34

    1816                            .dwattr $C$DW$T$4, DW_AT_name("bool")
    1817                            .dwattr $C$DW$T$4, DW_AT_byte_size(0x01)
    1818                    
    1819                    $C$DW$T$5       .dwtag  DW_TAG_base_type
    1820                            .dwattr $C$DW$T$5, DW_AT_encoding(DW_ATE_signed_char)
    1821                            .dwattr $C$DW$T$5, DW_AT_name("signed char")
    1822                            .dwattr $C$DW$T$5, DW_AT_byte_size(0x01)
    1823                    
    1824                    $C$DW$T$33      .dwtag  DW_TAG_typedef
    1825                            .dwattr $C$DW$T$33, DW_AT_name("__int8_t")
    1826                            .dwattr $C$DW$T$33, DW_AT_type(*$C$DW$T$5)
    1827                            .dwattr $C$DW$T$33, DW_AT_language(DW_LANG_C)
    1828                            .dwattr $C$DW$T$33, DW_AT_decl_file("/home/pola/ti/ccsv8/tools/compiler/ti-cgt-arm_18.1.1.LTS/
    1829                            .dwattr $C$DW$T$33, DW_AT_decl_line(0x39)
    1830                            .dwattr $C$DW$T$33, DW_AT_decl_column(0x16)
    1831                    
    1832                    $C$DW$T$34      .dwtag  DW_TAG_typedef
    1833                            .dwattr $C$DW$T$34, DW_AT_name("__int_least8_t")
    1834                            .dwattr $C$DW$T$34, DW_AT_type(*$C$DW$T$33)
    1835                            .dwattr $C$DW$T$34, DW_AT_language(DW_LANG_C)
    1836                            .dwattr $C$DW$T$34, DW_AT_decl_file("/home/pola/ti/ccsv8/tools/compiler/ti-cgt-arm_18.1.1.LTS/
    1837                            .dwattr $C$DW$T$34, DW_AT_decl_line(0x58)
    1838                            .dwattr $C$DW$T$34, DW_AT_decl_column(0x12)
    1839                    
    1840                    $C$DW$T$35      .dwtag  DW_TAG_typedef
    1841                            .dwattr $C$DW$T$35, DW_AT_name("int_least8_t")
    1842                            .dwattr $C$DW$T$35, DW_AT_type(*$C$DW$T$34)
    1843                            .dwattr $C$DW$T$35, DW_AT_language(DW_LANG_C)
    1844                            .dwattr $C$DW$T$35, DW_AT_decl_file("/home/pola/ti/ccsv8/tools/compiler/ti-cgt-arm_18.1.1.LTS/
    1845                            .dwattr $C$DW$T$35, DW_AT_decl_line(0x28)
    1846                            .dwattr $C$DW$T$35, DW_AT_decl_column(0x19)
    1847                    
    1848                    $C$DW$T$36      .dwtag  DW_TAG_typedef
    1849                            .dwattr $C$DW$T$36, DW_AT_name("int8_t")
    1850                            .dwattr $C$DW$T$36, DW_AT_type(*$C$DW$T$33)
    1851                            .dwattr $C$DW$T$36, DW_AT_language(DW_LANG_C)
    1852                            .dwattr $C$DW$T$36, DW_AT_decl_file("/home/pola/ti/ccsv8/tools/compiler/ti-cgt-arm_18.1.1.LTS/
    1853                            .dwattr $C$DW$T$36, DW_AT_decl_line(0x24)
    1854                            .dwattr $C$DW$T$36, DW_AT_decl_column(0x13)
    1855                    
    1856                    $C$DW$T$6       .dwtag  DW_TAG_base_type
    1857                            .dwattr $C$DW$T$6, DW_AT_encoding(DW_ATE_unsigned_char)
    1858                            .dwattr $C$DW$T$6, DW_AT_name("unsigned char")
    1859                            .dwattr $C$DW$T$6, DW_AT_byte_size(0x01)
    1860                    
    1861                    $C$DW$T$37      .dwtag  DW_TAG_typedef
    1862                            .dwattr $C$DW$T$37, DW_AT_name("__uint8_t")
    1863                            .dwattr $C$DW$T$37, DW_AT_type(*$C$DW$T$6)
    1864                            .dwattr $C$DW$T$37, DW_AT_language(DW_LANG_C)
    1865                            .dwattr $C$DW$T$37, DW_AT_decl_file("/home/pola/ti/ccsv8/tools/compiler/ti-cgt-arm_18.1.1.LTS/
    1866                            .dwattr $C$DW$T$37, DW_AT_decl_line(0x3a)
    1867                            .dwattr $C$DW$T$37, DW_AT_decl_column(0x18)
    1868                    
    1869                    $C$DW$T$38      .dwtag  DW_TAG_typedef
    1870                            .dwattr $C$DW$T$38, DW_AT_name("__sa_family_t")
TI ARM Assembler Unix v18.1.1 Fri Jul  3 20:08:27 2020

Tools Copyright (c) 1996-2017 Texas Instruments Incorporated
watchdog.asm                                                         PAGE   35

    1871                            .dwattr $C$DW$T$38, DW_AT_type(*$C$DW$T$37)
    1872                            .dwattr $C$DW$T$38, DW_AT_language(DW_LANG_C)
    1873                            .dwattr $C$DW$T$38, DW_AT_decl_file("/home/pola/ti/ccsv8/tools/compiler/ti-cgt-arm_18.1.1.LTS/
    1874                            .dwattr $C$DW$T$38, DW_AT_decl_line(0x43)
    1875                            .dwattr $C$DW$T$38, DW_AT_decl_column(0x13)
    1876                    
    1877                    $C$DW$T$39      .dwtag  DW_TAG_typedef
    1878                            .dwattr $C$DW$T$39, DW_AT_name("__uint_least8_t")
    1879                            .dwattr $C$DW$T$39, DW_AT_type(*$C$DW$T$37)
    1880                            .dwattr $C$DW$T$39, DW_AT_language(DW_LANG_C)
    1881                            .dwattr $C$DW$T$39, DW_AT_decl_file("/home/pola/ti/ccsv8/tools/compiler/ti-cgt-arm_18.1.1.LTS/
    1882                            .dwattr $C$DW$T$39, DW_AT_decl_line(0x6d)
    1883                            .dwattr $C$DW$T$39, DW_AT_decl_column(0x13)
    1884                    
    1885                    $C$DW$T$40      .dwtag  DW_TAG_typedef
    1886                            .dwattr $C$DW$T$40, DW_AT_name("uint_least8_t")
    1887                            .dwattr $C$DW$T$40, DW_AT_type(*$C$DW$T$39)
    1888                            .dwattr $C$DW$T$40, DW_AT_language(DW_LANG_C)
    1889                            .dwattr $C$DW$T$40, DW_AT_decl_file("/home/pola/ti/ccsv8/tools/compiler/ti-cgt-arm_18.1.1.LTS/
    1890                            .dwattr $C$DW$T$40, DW_AT_decl_line(0x2d)
    1891                            .dwattr $C$DW$T$40, DW_AT_decl_column(0x1a)
    1892                    
    1893                    $C$DW$T$41      .dwtag  DW_TAG_typedef
    1894                            .dwattr $C$DW$T$41, DW_AT_name("uint8_t")
    1895                            .dwattr $C$DW$T$41, DW_AT_type(*$C$DW$T$37)
    1896                            .dwattr $C$DW$T$41, DW_AT_language(DW_LANG_C)
    1897                            .dwattr $C$DW$T$41, DW_AT_decl_file("/home/pola/ti/ccsv8/tools/compiler/ti-cgt-arm_18.1.1.LTS/
    1898                            .dwattr $C$DW$T$41, DW_AT_decl_line(0x38)
    1899                            .dwattr $C$DW$T$41, DW_AT_decl_column(0x14)
    1900                    
    1901                    $C$DW$T$7       .dwtag  DW_TAG_base_type
    1902                            .dwattr $C$DW$T$7, DW_AT_encoding(DW_ATE_signed_char)
    1903                            .dwattr $C$DW$T$7, DW_AT_name("wchar_t")
    1904                            .dwattr $C$DW$T$7, DW_AT_byte_size(0x02)
    1905                    
    1906                    $C$DW$T$8       .dwtag  DW_TAG_base_type
    1907                            .dwattr $C$DW$T$8, DW_AT_encoding(DW_ATE_signed)
    1908                            .dwattr $C$DW$T$8, DW_AT_name("short")
    1909                            .dwattr $C$DW$T$8, DW_AT_byte_size(0x02)
    1910                    
    1911                    $C$DW$T$42      .dwtag  DW_TAG_typedef
    1912                            .dwattr $C$DW$T$42, DW_AT_name("__int16_t")
    1913                            .dwattr $C$DW$T$42, DW_AT_type(*$C$DW$T$8)
    1914                            .dwattr $C$DW$T$42, DW_AT_language(DW_LANG_C)
    1915                            .dwattr $C$DW$T$42, DW_AT_decl_file("/home/pola/ti/ccsv8/tools/compiler/ti-cgt-arm_18.1.1.LTS/
    1916                            .dwattr $C$DW$T$42, DW_AT_decl_line(0x3b)
    1917                            .dwattr $C$DW$T$42, DW_AT_decl_column(0x11)
    1918                    
    1919                    $C$DW$T$43      .dwtag  DW_TAG_typedef
    1920                            .dwattr $C$DW$T$43, DW_AT_name("__int_least16_t")
    1921                            .dwattr $C$DW$T$43, DW_AT_type(*$C$DW$T$42)
    1922                            .dwattr $C$DW$T$43, DW_AT_language(DW_LANG_C)
    1923                            .dwattr $C$DW$T$43, DW_AT_decl_file("/home/pola/ti/ccsv8/tools/compiler/ti-cgt-arm_18.1.1.LTS/
    1924                            .dwattr $C$DW$T$43, DW_AT_decl_line(0x59)
    1925                            .dwattr $C$DW$T$43, DW_AT_decl_column(0x13)
TI ARM Assembler Unix v18.1.1 Fri Jul  3 20:08:27 2020

Tools Copyright (c) 1996-2017 Texas Instruments Incorporated
watchdog.asm                                                         PAGE   36

    1926                    
    1927                    $C$DW$T$44      .dwtag  DW_TAG_typedef
    1928                            .dwattr $C$DW$T$44, DW_AT_name("int_least16_t")
    1929                            .dwattr $C$DW$T$44, DW_AT_type(*$C$DW$T$43)
    1930                            .dwattr $C$DW$T$44, DW_AT_language(DW_LANG_C)
    1931                            .dwattr $C$DW$T$44, DW_AT_decl_file("/home/pola/ti/ccsv8/tools/compiler/ti-cgt-arm_18.1.1.LTS/
    1932                            .dwattr $C$DW$T$44, DW_AT_decl_line(0x29)
    1933                            .dwattr $C$DW$T$44, DW_AT_decl_column(0x1a)
    1934                    
    1935                    $C$DW$T$45      .dwtag  DW_TAG_typedef
    1936                            .dwattr $C$DW$T$45, DW_AT_name("int16_t")
    1937                            .dwattr $C$DW$T$45, DW_AT_type(*$C$DW$T$42)
    1938                            .dwattr $C$DW$T$45, DW_AT_language(DW_LANG_C)
    1939                            .dwattr $C$DW$T$45, DW_AT_decl_file("/home/pola/ti/ccsv8/tools/compiler/ti-cgt-arm_18.1.1.LTS/
    1940                            .dwattr $C$DW$T$45, DW_AT_decl_line(0x29)
    1941                            .dwattr $C$DW$T$45, DW_AT_decl_column(0x14)
    1942                    
    1943                    $C$DW$T$9       .dwtag  DW_TAG_base_type
    1944                            .dwattr $C$DW$T$9, DW_AT_encoding(DW_ATE_unsigned)
    1945                            .dwattr $C$DW$T$9, DW_AT_name("unsigned short")
    1946                            .dwattr $C$DW$T$9, DW_AT_byte_size(0x02)
    1947                    
    1948                    $C$DW$T$46      .dwtag  DW_TAG_typedef
    1949                            .dwattr $C$DW$T$46, DW_AT_name("___wchar_t")
    1950                            .dwattr $C$DW$T$46, DW_AT_type(*$C$DW$T$9)
    1951                            .dwattr $C$DW$T$46, DW_AT_language(DW_LANG_C)
    1952                            .dwattr $C$DW$T$46, DW_AT_decl_file("/home/pola/ti/ccsv8/tools/compiler/ti-cgt-arm_18.1.1.LTS/
    1953                            .dwattr $C$DW$T$46, DW_AT_decl_line(0x76)
    1954                            .dwattr $C$DW$T$46, DW_AT_decl_column(0x1a)
    1955                    
    1956                    $C$DW$T$47      .dwtag  DW_TAG_typedef
    1957                            .dwattr $C$DW$T$47, DW_AT_name("__uint16_t")
    1958                            .dwattr $C$DW$T$47, DW_AT_type(*$C$DW$T$9)
    1959                            .dwattr $C$DW$T$47, DW_AT_language(DW_LANG_C)
    1960                            .dwattr $C$DW$T$47, DW_AT_decl_file("/home/pola/ti/ccsv8/tools/compiler/ti-cgt-arm_18.1.1.LTS/
    1961                            .dwattr $C$DW$T$47, DW_AT_decl_line(0x3c)
    1962                            .dwattr $C$DW$T$47, DW_AT_decl_column(0x19)
    1963                    
    1964                    $C$DW$T$48      .dwtag  DW_TAG_typedef
    1965                            .dwattr $C$DW$T$48, DW_AT_name("__mode_t")
    1966                            .dwattr $C$DW$T$48, DW_AT_type(*$C$DW$T$47)
    1967                            .dwattr $C$DW$T$48, DW_AT_language(DW_LANG_C)
    1968                            .dwattr $C$DW$T$48, DW_AT_decl_file("/home/pola/ti/ccsv8/tools/compiler/ti-cgt-arm_18.1.1.LTS/
    1969                            .dwattr $C$DW$T$48, DW_AT_decl_line(0x39)
    1970                            .dwattr $C$DW$T$48, DW_AT_decl_column(0x14)
    1971                    
    1972                    $C$DW$T$49      .dwtag  DW_TAG_typedef
    1973                            .dwattr $C$DW$T$49, DW_AT_name("__uint_least16_t")
    1974                            .dwattr $C$DW$T$49, DW_AT_type(*$C$DW$T$47)
    1975                            .dwattr $C$DW$T$49, DW_AT_language(DW_LANG_C)
    1976                            .dwattr $C$DW$T$49, DW_AT_decl_file("/home/pola/ti/ccsv8/tools/compiler/ti-cgt-arm_18.1.1.LTS/
    1977                            .dwattr $C$DW$T$49, DW_AT_decl_line(0x6e)
    1978                            .dwattr $C$DW$T$49, DW_AT_decl_column(0x14)
    1979                    
    1980                    $C$DW$T$50      .dwtag  DW_TAG_typedef
TI ARM Assembler Unix v18.1.1 Fri Jul  3 20:08:27 2020

Tools Copyright (c) 1996-2017 Texas Instruments Incorporated
watchdog.asm                                                         PAGE   37

    1981                            .dwattr $C$DW$T$50, DW_AT_name("__char16_t")
    1982                            .dwattr $C$DW$T$50, DW_AT_type(*$C$DW$T$49)
    1983                            .dwattr $C$DW$T$50, DW_AT_language(DW_LANG_C)
    1984                            .dwattr $C$DW$T$50, DW_AT_decl_file("/home/pola/ti/ccsv8/tools/compiler/ti-cgt-arm_18.1.1.LTS/
    1985                            .dwattr $C$DW$T$50, DW_AT_decl_line(0x66)
    1986                            .dwattr $C$DW$T$50, DW_AT_decl_column(0x1a)
    1987                    
    1988                    $C$DW$T$51      .dwtag  DW_TAG_typedef
    1989                            .dwattr $C$DW$T$51, DW_AT_name("uint_least16_t")
    1990                            .dwattr $C$DW$T$51, DW_AT_type(*$C$DW$T$49)
    1991                            .dwattr $C$DW$T$51, DW_AT_language(DW_LANG_C)
    1992                            .dwattr $C$DW$T$51, DW_AT_decl_file("/home/pola/ti/ccsv8/tools/compiler/ti-cgt-arm_18.1.1.LTS/
    1993                            .dwattr $C$DW$T$51, DW_AT_decl_line(0x2e)
    1994                            .dwattr $C$DW$T$51, DW_AT_decl_column(0x1a)
    1995                    
    1996                    $C$DW$T$52      .dwtag  DW_TAG_typedef
    1997                            .dwattr $C$DW$T$52, DW_AT_name("uint16_t")
    1998                            .dwattr $C$DW$T$52, DW_AT_type(*$C$DW$T$47)
    1999                            .dwattr $C$DW$T$52, DW_AT_language(DW_LANG_C)
    2000                            .dwattr $C$DW$T$52, DW_AT_decl_file("/home/pola/ti/ccsv8/tools/compiler/ti-cgt-arm_18.1.1.LTS/
    2001                            .dwattr $C$DW$T$52, DW_AT_decl_line(0x3d)
    2002                            .dwattr $C$DW$T$52, DW_AT_decl_column(0x15)
    2003                    
    2004                    $C$DW$T$10      .dwtag  DW_TAG_base_type
    2005                            .dwattr $C$DW$T$10, DW_AT_encoding(DW_ATE_signed)
    2006                            .dwattr $C$DW$T$10, DW_AT_name("int")
    2007                            .dwattr $C$DW$T$10, DW_AT_byte_size(0x04)
    2008                    
    2009                    $C$DW$T$53      .dwtag  DW_TAG_typedef
    2010                            .dwattr $C$DW$T$53, DW_AT_name("_Mbstatet")
    2011                            .dwattr $C$DW$T$53, DW_AT_type(*$C$DW$T$10)
    2012                            .dwattr $C$DW$T$53, DW_AT_language(DW_LANG_C)
    2013                            .dwattr $C$DW$T$53, DW_AT_decl_file("/home/pola/ti/ccsv8/tools/compiler/ti-cgt-arm_18.1.1.LTS/
    2014                            .dwattr $C$DW$T$53, DW_AT_decl_line(0x84)
    2015                            .dwattr $C$DW$T$53, DW_AT_decl_column(0x0d)
    2016                    
    2017                    $C$DW$T$54      .dwtag  DW_TAG_typedef
    2018                            .dwattr $C$DW$T$54, DW_AT_name("__mbstate_t")
    2019                            .dwattr $C$DW$T$54, DW_AT_type(*$C$DW$T$53)
    2020                            .dwattr $C$DW$T$54, DW_AT_language(DW_LANG_C)
    2021                            .dwattr $C$DW$T$54, DW_AT_decl_file("/home/pola/ti/ccsv8/tools/compiler/ti-cgt-arm_18.1.1.LTS/
    2022                            .dwattr $C$DW$T$54, DW_AT_decl_line(0x87)
    2023                            .dwattr $C$DW$T$54, DW_AT_decl_column(0x13)
    2024                    
    2025                    $C$DW$T$55      .dwtag  DW_TAG_typedef
    2026                            .dwattr $C$DW$T$55, DW_AT_name("__accmode_t")
    2027                            .dwattr $C$DW$T$55, DW_AT_type(*$C$DW$T$10)
    2028                            .dwattr $C$DW$T$55, DW_AT_language(DW_LANG_C)
    2029                            .dwattr $C$DW$T$55, DW_AT_decl_file("/home/pola/ti/ccsv8/tools/compiler/ti-cgt-arm_18.1.1.LTS/
    2030                            .dwattr $C$DW$T$55, DW_AT_decl_line(0x3a)
    2031                            .dwattr $C$DW$T$55, DW_AT_decl_column(0x0e)
    2032                    
    2033                    $C$DW$T$56      .dwtag  DW_TAG_typedef
    2034                            .dwattr $C$DW$T$56, DW_AT_name("__cpulevel_t")
    2035                            .dwattr $C$DW$T$56, DW_AT_type(*$C$DW$T$10)
TI ARM Assembler Unix v18.1.1 Fri Jul  3 20:08:27 2020

Tools Copyright (c) 1996-2017 Texas Instruments Incorporated
watchdog.asm                                                         PAGE   38

    2036                            .dwattr $C$DW$T$56, DW_AT_language(DW_LANG_C)
    2037                            .dwattr $C$DW$T$56, DW_AT_decl_file("/home/pola/ti/ccsv8/tools/compiler/ti-cgt-arm_18.1.1.LTS/
    2038                            .dwattr $C$DW$T$56, DW_AT_decl_line(0x4b)
    2039                            .dwattr $C$DW$T$56, DW_AT_decl_column(0x0e)
    2040                    
    2041                    $C$DW$T$57      .dwtag  DW_TAG_typedef
    2042                            .dwattr $C$DW$T$57, DW_AT_name("__cpusetid_t")
    2043                            .dwattr $C$DW$T$57, DW_AT_type(*$C$DW$T$10)
    2044                            .dwattr $C$DW$T$57, DW_AT_language(DW_LANG_C)
    2045                            .dwattr $C$DW$T$57, DW_AT_decl_file("/home/pola/ti/ccsv8/tools/compiler/ti-cgt-arm_18.1.1.LTS/
    2046                            .dwattr $C$DW$T$57, DW_AT_decl_line(0x4c)
    2047                            .dwattr $C$DW$T$57, DW_AT_decl_column(0x0e)
    2048                    
    2049                    $C$DW$T$58      .dwtag  DW_TAG_typedef
    2050                            .dwattr $C$DW$T$58, DW_AT_name("__cpuwhich_t")
    2051                            .dwattr $C$DW$T$58, DW_AT_type(*$C$DW$T$10)
    2052                            .dwattr $C$DW$T$58, DW_AT_language(DW_LANG_C)
    2053                            .dwattr $C$DW$T$58, DW_AT_decl_file("/home/pola/ti/ccsv8/tools/compiler/ti-cgt-arm_18.1.1.LTS/
    2054                            .dwattr $C$DW$T$58, DW_AT_decl_line(0x4a)
    2055                            .dwattr $C$DW$T$58, DW_AT_decl_column(0x0e)
    2056                    
    2057                    $C$DW$T$59      .dwtag  DW_TAG_typedef
    2058                            .dwattr $C$DW$T$59, DW_AT_name("__ct_rune_t")
    2059                            .dwattr $C$DW$T$59, DW_AT_type(*$C$DW$T$10)
    2060                            .dwattr $C$DW$T$59, DW_AT_language(DW_LANG_C)
    2061                            .dwattr $C$DW$T$59, DW_AT_decl_file("/home/pola/ti/ccsv8/tools/compiler/ti-cgt-arm_18.1.1.LTS/
    2062                            .dwattr $C$DW$T$59, DW_AT_decl_line(0x60)
    2063                            .dwattr $C$DW$T$59, DW_AT_decl_column(0x0e)
    2064                    
    2065                    $C$DW$T$60      .dwtag  DW_TAG_typedef
    2066                            .dwattr $C$DW$T$60, DW_AT_name("__rune_t")
    2067                            .dwattr $C$DW$T$60, DW_AT_type(*$C$DW$T$59)
    2068                            .dwattr $C$DW$T$60, DW_AT_language(DW_LANG_C)
    2069                            .dwattr $C$DW$T$60, DW_AT_decl_file("/home/pola/ti/ccsv8/tools/compiler/ti-cgt-arm_18.1.1.LTS/
    2070                            .dwattr $C$DW$T$60, DW_AT_decl_line(0x61)
    2071                            .dwattr $C$DW$T$60, DW_AT_decl_column(0x15)
    2072                    
    2073                    $C$DW$T$61      .dwtag  DW_TAG_typedef
    2074                            .dwattr $C$DW$T$61, DW_AT_name("__wint_t")
    2075                            .dwattr $C$DW$T$61, DW_AT_type(*$C$DW$T$59)
    2076                            .dwattr $C$DW$T$61, DW_AT_language(DW_LANG_C)
    2077                            .dwattr $C$DW$T$61, DW_AT_decl_file("/home/pola/ti/ccsv8/tools/compiler/ti-cgt-arm_18.1.1.LTS/
    2078                            .dwattr $C$DW$T$61, DW_AT_decl_line(0x62)
    2079                            .dwattr $C$DW$T$61, DW_AT_decl_column(0x15)
    2080                    
    2081                    $C$DW$T$62      .dwtag  DW_TAG_typedef
    2082                            .dwattr $C$DW$T$62, DW_AT_name("__int32_t")
    2083                            .dwattr $C$DW$T$62, DW_AT_type(*$C$DW$T$10)
    2084                            .dwattr $C$DW$T$62, DW_AT_language(DW_LANG_C)
    2085                            .dwattr $C$DW$T$62, DW_AT_decl_file("/home/pola/ti/ccsv8/tools/compiler/ti-cgt-arm_18.1.1.LTS/
    2086                            .dwattr $C$DW$T$62, DW_AT_decl_line(0x3d)
    2087                            .dwattr $C$DW$T$62, DW_AT_decl_column(0x0f)
    2088                    
    2089                    $C$DW$T$63      .dwtag  DW_TAG_typedef
    2090                            .dwattr $C$DW$T$63, DW_AT_name("__blksize_t")
TI ARM Assembler Unix v18.1.1 Fri Jul  3 20:08:27 2020

Tools Copyright (c) 1996-2017 Texas Instruments Incorporated
watchdog.asm                                                         PAGE   39

    2091                            .dwattr $C$DW$T$63, DW_AT_type(*$C$DW$T$62)
    2092                            .dwattr $C$DW$T$63, DW_AT_language(DW_LANG_C)
    2093                            .dwattr $C$DW$T$63, DW_AT_decl_file("/home/pola/ti/ccsv8/tools/compiler/ti-cgt-arm_18.1.1.LTS/
    2094                            .dwattr $C$DW$T$63, DW_AT_decl_line(0x2e)
    2095                            .dwattr $C$DW$T$63, DW_AT_decl_column(0x13)
    2096                    
    2097                    $C$DW$T$64      .dwtag  DW_TAG_typedef
    2098                            .dwattr $C$DW$T$64, DW_AT_name("__clockid_t")
    2099                            .dwattr $C$DW$T$64, DW_AT_type(*$C$DW$T$62)
    2100                            .dwattr $C$DW$T$64, DW_AT_language(DW_LANG_C)
    2101                            .dwattr $C$DW$T$64, DW_AT_decl_file("/home/pola/ti/ccsv8/tools/compiler/ti-cgt-arm_18.1.1.LTS/
    2102                            .dwattr $C$DW$T$64, DW_AT_decl_line(0x30)
    2103                            .dwattr $C$DW$T$64, DW_AT_decl_column(0x13)
    2104                    
    2105                    $C$DW$T$65      .dwtag  DW_TAG_typedef
    2106                            .dwattr $C$DW$T$65, DW_AT_name("__critical_t")
    2107                            .dwattr $C$DW$T$65, DW_AT_type(*$C$DW$T$62)
    2108                            .dwattr $C$DW$T$65, DW_AT_language(DW_LANG_C)
    2109                            .dwattr $C$DW$T$65, DW_AT_decl_file("/home/pola/ti/ccsv8/tools/compiler/ti-cgt-arm_18.1.1.LTS/
    2110                            .dwattr $C$DW$T$65, DW_AT_decl_line(0x4e)
    2111                            .dwattr $C$DW$T$65, DW_AT_decl_column(0x13)
    2112                    
    2113                    $C$DW$T$66      .dwtag  DW_TAG_typedef
    2114                            .dwattr $C$DW$T$66, DW_AT_name("__int_fast16_t")
    2115                            .dwattr $C$DW$T$66, DW_AT_type(*$C$DW$T$62)
    2116                            .dwattr $C$DW$T$66, DW_AT_language(DW_LANG_C)
    2117                            .dwattr $C$DW$T$66, DW_AT_decl_file("/home/pola/ti/ccsv8/tools/compiler/ti-cgt-arm_18.1.1.LTS/
    2118                            .dwattr $C$DW$T$66, DW_AT_decl_line(0x55)
    2119                            .dwattr $C$DW$T$66, DW_AT_decl_column(0x13)
    2120                    
    2121                    $C$DW$T$67      .dwtag  DW_TAG_typedef
    2122                            .dwattr $C$DW$T$67, DW_AT_name("int_fast16_t")
    2123                            .dwattr $C$DW$T$67, DW_AT_type(*$C$DW$T$66)
    2124                            .dwattr $C$DW$T$67, DW_AT_language(DW_LANG_C)
    2125                            .dwattr $C$DW$T$67, DW_AT_decl_file("/home/pola/ti/ccsv8/tools/compiler/ti-cgt-arm_18.1.1.LTS/
    2126                            .dwattr $C$DW$T$67, DW_AT_decl_line(0x33)
    2127                            .dwattr $C$DW$T$67, DW_AT_decl_column(0x19)
    2128                    
    2129                    $C$DW$T$68      .dwtag  DW_TAG_typedef
    2130                            .dwattr $C$DW$T$68, DW_AT_name("__int_fast32_t")
    2131                            .dwattr $C$DW$T$68, DW_AT_type(*$C$DW$T$62)
    2132                            .dwattr $C$DW$T$68, DW_AT_language(DW_LANG_C)
    2133                            .dwattr $C$DW$T$68, DW_AT_decl_file("/home/pola/ti/ccsv8/tools/compiler/ti-cgt-arm_18.1.1.LTS/
    2134                            .dwattr $C$DW$T$68, DW_AT_decl_line(0x56)
    2135                            .dwattr $C$DW$T$68, DW_AT_decl_column(0x13)
    2136                    
    2137                    $C$DW$T$69      .dwtag  DW_TAG_typedef
    2138                            .dwattr $C$DW$T$69, DW_AT_name("int_fast32_t")
    2139                            .dwattr $C$DW$T$69, DW_AT_type(*$C$DW$T$68)
    2140                            .dwattr $C$DW$T$69, DW_AT_language(DW_LANG_C)
    2141                            .dwattr $C$DW$T$69, DW_AT_decl_file("/home/pola/ti/ccsv8/tools/compiler/ti-cgt-arm_18.1.1.LTS/
    2142                            .dwattr $C$DW$T$69, DW_AT_decl_line(0x34)
    2143                            .dwattr $C$DW$T$69, DW_AT_decl_column(0x19)
    2144                    
    2145                    $C$DW$T$70      .dwtag  DW_TAG_typedef
TI ARM Assembler Unix v18.1.1 Fri Jul  3 20:08:27 2020

Tools Copyright (c) 1996-2017 Texas Instruments Incorporated
watchdog.asm                                                         PAGE   40

    2146                            .dwattr $C$DW$T$70, DW_AT_name("__int_fast8_t")
    2147                            .dwattr $C$DW$T$70, DW_AT_type(*$C$DW$T$62)
    2148                            .dwattr $C$DW$T$70, DW_AT_language(DW_LANG_C)
    2149                            .dwattr $C$DW$T$70, DW_AT_decl_file("/home/pola/ti/ccsv8/tools/compiler/ti-cgt-arm_18.1.1.LTS/
    2150                            .dwattr $C$DW$T$70, DW_AT_decl_line(0x54)
    2151                            .dwattr $C$DW$T$70, DW_AT_decl_column(0x13)
    2152                    
    2153                    $C$DW$T$71      .dwtag  DW_TAG_typedef
    2154                            .dwattr $C$DW$T$71, DW_AT_name("int_fast8_t")
    2155                            .dwattr $C$DW$T$71, DW_AT_type(*$C$DW$T$70)
    2156                            .dwattr $C$DW$T$71, DW_AT_language(DW_LANG_C)
    2157                            .dwattr $C$DW$T$71, DW_AT_decl_file("/home/pola/ti/ccsv8/tools/compiler/ti-cgt-arm_18.1.1.LTS/
    2158                            .dwattr $C$DW$T$71, DW_AT_decl_line(0x32)
    2159                            .dwattr $C$DW$T$71, DW_AT_decl_column(0x18)
    2160                    
    2161                    $C$DW$T$72      .dwtag  DW_TAG_typedef
    2162                            .dwattr $C$DW$T$72, DW_AT_name("__int_least32_t")
    2163                            .dwattr $C$DW$T$72, DW_AT_type(*$C$DW$T$62)
    2164                            .dwattr $C$DW$T$72, DW_AT_language(DW_LANG_C)
    2165                            .dwattr $C$DW$T$72, DW_AT_decl_file("/home/pola/ti/ccsv8/tools/compiler/ti-cgt-arm_18.1.1.LTS/
    2166                            .dwattr $C$DW$T$72, DW_AT_decl_line(0x5a)
    2167                            .dwattr $C$DW$T$72, DW_AT_decl_column(0x13)
    2168                    
    2169                    $C$DW$T$73      .dwtag  DW_TAG_typedef
    2170                            .dwattr $C$DW$T$73, DW_AT_name("int_least32_t")
    2171                            .dwattr $C$DW$T$73, DW_AT_type(*$C$DW$T$72)
    2172                            .dwattr $C$DW$T$73, DW_AT_language(DW_LANG_C)
    2173                            .dwattr $C$DW$T$73, DW_AT_decl_file("/home/pola/ti/ccsv8/tools/compiler/ti-cgt-arm_18.1.1.LTS/
    2174                            .dwattr $C$DW$T$73, DW_AT_decl_line(0x2a)
    2175                            .dwattr $C$DW$T$73, DW_AT_decl_column(0x1a)
    2176                    
    2177                    $C$DW$T$74      .dwtag  DW_TAG_typedef
    2178                            .dwattr $C$DW$T$74, DW_AT_name("__intfptr_t")
    2179                            .dwattr $C$DW$T$74, DW_AT_type(*$C$DW$T$62)
    2180                            .dwattr $C$DW$T$74, DW_AT_language(DW_LANG_C)
    2181                            .dwattr $C$DW$T$74, DW_AT_decl_file("/home/pola/ti/ccsv8/tools/compiler/ti-cgt-arm_18.1.1.LTS/
    2182                            .dwattr $C$DW$T$74, DW_AT_decl_line(0x51)
    2183                            .dwattr $C$DW$T$74, DW_AT_decl_column(0x13)
    2184                    
    2185                    $C$DW$T$75      .dwtag  DW_TAG_typedef
    2186                            .dwattr $C$DW$T$75, DW_AT_name("__intptr_t")
    2187                            .dwattr $C$DW$T$75, DW_AT_type(*$C$DW$T$62)
    2188                            .dwattr $C$DW$T$75, DW_AT_language(DW_LANG_C)
    2189                            .dwattr $C$DW$T$75, DW_AT_decl_file("/home/pola/ti/ccsv8/tools/compiler/ti-cgt-arm_18.1.1.LTS/
    2190                            .dwattr $C$DW$T$75, DW_AT_decl_line(0x53)
    2191                            .dwattr $C$DW$T$75, DW_AT_decl_column(0x13)
    2192                    
    2193                    $C$DW$T$76      .dwtag  DW_TAG_typedef
    2194                            .dwattr $C$DW$T$76, DW_AT_name("intptr_t")
    2195                            .dwattr $C$DW$T$76, DW_AT_type(*$C$DW$T$75)
    2196                            .dwattr $C$DW$T$76, DW_AT_language(DW_LANG_C)
    2197                            .dwattr $C$DW$T$76, DW_AT_decl_file("/home/pola/ti/ccsv8/tools/compiler/ti-cgt-arm_18.1.1.LTS/
    2198                            .dwattr $C$DW$T$76, DW_AT_decl_line(0x4c)
    2199                            .dwattr $C$DW$T$76, DW_AT_decl_column(0x15)
    2200                    
TI ARM Assembler Unix v18.1.1 Fri Jul  3 20:08:27 2020

Tools Copyright (c) 1996-2017 Texas Instruments Incorporated
watchdog.asm                                                         PAGE   41

    2201                    $C$DW$T$77      .dwtag  DW_TAG_typedef
    2202                            .dwattr $C$DW$T$77, DW_AT_name("__lwpid_t")
    2203                            .dwattr $C$DW$T$77, DW_AT_type(*$C$DW$T$62)
    2204                            .dwattr $C$DW$T$77, DW_AT_language(DW_LANG_C)
    2205                            .dwattr $C$DW$T$77, DW_AT_decl_file("/home/pola/ti/ccsv8/tools/compiler/ti-cgt-arm_18.1.1.LTS/
    2206                            .dwattr $C$DW$T$77, DW_AT_decl_line(0x38)
    2207                            .dwattr $C$DW$T$77, DW_AT_decl_column(0x13)
    2208                    
    2209                    $C$DW$T$78      .dwtag  DW_TAG_typedef
    2210                            .dwattr $C$DW$T$78, DW_AT_name("__pid_t")
    2211                            .dwattr $C$DW$T$78, DW_AT_type(*$C$DW$T$62)
    2212                            .dwattr $C$DW$T$78, DW_AT_language(DW_LANG_C)
    2213                            .dwattr $C$DW$T$78, DW_AT_decl_file("/home/pola/ti/ccsv8/tools/compiler/ti-cgt-arm_18.1.1.LTS/
    2214                            .dwattr $C$DW$T$78, DW_AT_decl_line(0x3f)
    2215                            .dwattr $C$DW$T$78, DW_AT_decl_column(0x13)
    2216                    
    2217                    $C$DW$T$79      .dwtag  DW_TAG_typedef
    2218                            .dwattr $C$DW$T$79, DW_AT_name("__ptrdiff_t")
    2219                            .dwattr $C$DW$T$79, DW_AT_type(*$C$DW$T$62)
    2220                            .dwattr $C$DW$T$79, DW_AT_language(DW_LANG_C)
    2221                            .dwattr $C$DW$T$79, DW_AT_decl_file("/home/pola/ti/ccsv8/tools/compiler/ti-cgt-arm_18.1.1.LTS/
    2222                            .dwattr $C$DW$T$79, DW_AT_decl_line(0x5c)
    2223                            .dwattr $C$DW$T$79, DW_AT_decl_column(0x13)
    2224                    
    2225                    $C$DW$T$80      .dwtag  DW_TAG_typedef
    2226                            .dwattr $C$DW$T$80, DW_AT_name("__register_t")
    2227                            .dwattr $C$DW$T$80, DW_AT_type(*$C$DW$T$62)
    2228                            .dwattr $C$DW$T$80, DW_AT_language(DW_LANG_C)
    2229                            .dwattr $C$DW$T$80, DW_AT_decl_file("/home/pola/ti/ccsv8/tools/compiler/ti-cgt-arm_18.1.1.LTS/
    2230                            .dwattr $C$DW$T$80, DW_AT_decl_line(0x5d)
    2231                            .dwattr $C$DW$T$80, DW_AT_decl_column(0x13)
    2232                    
    2233                    $C$DW$T$81      .dwtag  DW_TAG_typedef
    2234                            .dwattr $C$DW$T$81, DW_AT_name("__segsz_t")
    2235                            .dwattr $C$DW$T$81, DW_AT_type(*$C$DW$T$62)
    2236                            .dwattr $C$DW$T$81, DW_AT_language(DW_LANG_C)
    2237                            .dwattr $C$DW$T$81, DW_AT_decl_file("/home/pola/ti/ccsv8/tools/compiler/ti-cgt-arm_18.1.1.LTS/
    2238                            .dwattr $C$DW$T$81, DW_AT_decl_line(0x5e)
    2239                            .dwattr $C$DW$T$81, DW_AT_decl_column(0x13)
    2240                    
    2241                    $C$DW$T$82      .dwtag  DW_TAG_typedef
    2242                            .dwattr $C$DW$T$82, DW_AT_name("__ssize_t")
    2243                            .dwattr $C$DW$T$82, DW_AT_type(*$C$DW$T$62)
    2244                            .dwattr $C$DW$T$82, DW_AT_language(DW_LANG_C)
    2245                            .dwattr $C$DW$T$82, DW_AT_decl_file("/home/pola/ti/ccsv8/tools/compiler/ti-cgt-arm_18.1.1.LTS/
    2246                            .dwattr $C$DW$T$82, DW_AT_decl_line(0x60)
    2247                            .dwattr $C$DW$T$82, DW_AT_decl_column(0x13)
    2248                    
    2249                    $C$DW$T$83      .dwtag  DW_TAG_typedef
    2250                            .dwattr $C$DW$T$83, DW_AT_name("int32_t")
    2251                            .dwattr $C$DW$T$83, DW_AT_type(*$C$DW$T$62)
    2252                            .dwattr $C$DW$T$83, DW_AT_language(DW_LANG_C)
    2253                            .dwattr $C$DW$T$83, DW_AT_decl_file("/home/pola/ti/ccsv8/tools/compiler/ti-cgt-arm_18.1.1.LTS/
    2254                            .dwattr $C$DW$T$83, DW_AT_decl_line(0x2e)
    2255                            .dwattr $C$DW$T$83, DW_AT_decl_column(0x14)
TI ARM Assembler Unix v18.1.1 Fri Jul  3 20:08:27 2020

Tools Copyright (c) 1996-2017 Texas Instruments Incorporated
watchdog.asm                                                         PAGE   42

    2256                    
    2257                    $C$DW$T$84      .dwtag  DW_TAG_typedef
    2258                            .dwattr $C$DW$T$84, DW_AT_name("__nl_item")
    2259                            .dwattr $C$DW$T$84, DW_AT_type(*$C$DW$T$10)
    2260                            .dwattr $C$DW$T$84, DW_AT_language(DW_LANG_C)
    2261                            .dwattr $C$DW$T$84, DW_AT_decl_file("/home/pola/ti/ccsv8/tools/compiler/ti-cgt-arm_18.1.1.LTS/
    2262                            .dwattr $C$DW$T$84, DW_AT_decl_line(0x3b)
    2263                            .dwattr $C$DW$T$84, DW_AT_decl_column(0x0e)
    2264                    
    2265                    $C$DW$T$11      .dwtag  DW_TAG_base_type
    2266                            .dwattr $C$DW$T$11, DW_AT_encoding(DW_ATE_unsigned)
    2267                            .dwattr $C$DW$T$11, DW_AT_name("unsigned int")
    2268                            .dwattr $C$DW$T$11, DW_AT_byte_size(0x04)
    2269                    
    2270                    $C$DW$T$26      .dwtag  DW_TAG_typedef
    2271                            .dwattr $C$DW$T$26, DW_AT_name("__uint32_t")
    2272                            .dwattr $C$DW$T$26, DW_AT_type(*$C$DW$T$11)
    2273                            .dwattr $C$DW$T$26, DW_AT_language(DW_LANG_C)
    2274                            .dwattr $C$DW$T$26, DW_AT_decl_file("/home/pola/ti/ccsv8/tools/compiler/ti-cgt-arm_18.1.1.LTS/
    2275                            .dwattr $C$DW$T$26, DW_AT_decl_line(0x3e)
    2276                            .dwattr $C$DW$T$26, DW_AT_decl_column(0x17)
    2277                    
    2278                    $C$DW$T$85      .dwtag  DW_TAG_typedef
    2279                            .dwattr $C$DW$T$85, DW_AT_name("__clock_t")
    2280                            .dwattr $C$DW$T$85, DW_AT_type(*$C$DW$T$26)
    2281                            .dwattr $C$DW$T$85, DW_AT_language(DW_LANG_C)
    2282                            .dwattr $C$DW$T$85, DW_AT_decl_file("/home/pola/ti/ccsv8/tools/compiler/ti-cgt-arm_18.1.1.LTS/
    2283                            .dwattr $C$DW$T$85, DW_AT_decl_line(0x4d)
    2284                            .dwattr $C$DW$T$85, DW_AT_decl_column(0x14)
    2285                    
    2286                    $C$DW$T$86      .dwtag  DW_TAG_typedef
    2287                            .dwattr $C$DW$T$86, DW_AT_name("__fflags_t")
    2288                            .dwattr $C$DW$T$86, DW_AT_type(*$C$DW$T$26)
    2289                            .dwattr $C$DW$T$86, DW_AT_language(DW_LANG_C)
    2290                            .dwattr $C$DW$T$86, DW_AT_decl_file("/home/pola/ti/ccsv8/tools/compiler/ti-cgt-arm_18.1.1.LTS/
    2291                            .dwattr $C$DW$T$86, DW_AT_decl_line(0x31)
    2292                            .dwattr $C$DW$T$86, DW_AT_decl_column(0x14)
    2293                    
    2294                    $C$DW$T$87      .dwtag  DW_TAG_typedef
    2295                            .dwattr $C$DW$T$87, DW_AT_name("__fixpt_t")
    2296                            .dwattr $C$DW$T$87, DW_AT_type(*$C$DW$T$26)
    2297                            .dwattr $C$DW$T$87, DW_AT_language(DW_LANG_C)
    2298                            .dwattr $C$DW$T$87, DW_AT_decl_file("/home/pola/ti/ccsv8/tools/compiler/ti-cgt-arm_18.1.1.LTS/
    2299                            .dwattr $C$DW$T$87, DW_AT_decl_line(0x76)
    2300                            .dwattr $C$DW$T$87, DW_AT_decl_column(0x14)
    2301                    
    2302                    $C$DW$T$88      .dwtag  DW_TAG_typedef
    2303                            .dwattr $C$DW$T$88, DW_AT_name("__gid_t")
    2304                            .dwattr $C$DW$T$88, DW_AT_type(*$C$DW$T$26)
    2305                            .dwattr $C$DW$T$88, DW_AT_language(DW_LANG_C)
    2306                            .dwattr $C$DW$T$88, DW_AT_decl_file("/home/pola/ti/ccsv8/tools/compiler/ti-cgt-arm_18.1.1.LTS/
    2307                            .dwattr $C$DW$T$88, DW_AT_decl_line(0x34)
    2308                            .dwattr $C$DW$T$88, DW_AT_decl_column(0x14)
    2309                    
    2310                    $C$DW$T$89      .dwtag  DW_TAG_typedef
TI ARM Assembler Unix v18.1.1 Fri Jul  3 20:08:27 2020

Tools Copyright (c) 1996-2017 Texas Instruments Incorporated
watchdog.asm                                                         PAGE   43

    2311                            .dwattr $C$DW$T$89, DW_AT_name("__size_t")
    2312                            .dwattr $C$DW$T$89, DW_AT_type(*$C$DW$T$26)
    2313                            .dwattr $C$DW$T$89, DW_AT_language(DW_LANG_C)
    2314                            .dwattr $C$DW$T$89, DW_AT_decl_file("/home/pola/ti/ccsv8/tools/compiler/ti-cgt-arm_18.1.1.LTS/
    2315                            .dwattr $C$DW$T$89, DW_AT_decl_line(0x5f)
    2316                            .dwattr $C$DW$T$89, DW_AT_decl_column(0x14)
    2317                    
    2318                    $C$DW$T$90      .dwtag  DW_TAG_typedef
    2319                            .dwattr $C$DW$T$90, DW_AT_name("__socklen_t")
    2320                            .dwattr $C$DW$T$90, DW_AT_type(*$C$DW$T$26)
    2321                            .dwattr $C$DW$T$90, DW_AT_language(DW_LANG_C)
    2322                            .dwattr $C$DW$T$90, DW_AT_decl_file("/home/pola/ti/ccsv8/tools/compiler/ti-cgt-arm_18.1.1.LTS/
    2323                            .dwattr $C$DW$T$90, DW_AT_decl_line(0x44)
    2324                            .dwattr $C$DW$T$90, DW_AT_decl_column(0x14)
    2325                    
    2326                    $C$DW$T$91      .dwtag  DW_TAG_typedef
    2327                            .dwattr $C$DW$T$91, DW_AT_name("__time_t")
    2328                            .dwattr $C$DW$T$91, DW_AT_type(*$C$DW$T$26)
    2329                            .dwattr $C$DW$T$91, DW_AT_language(DW_LANG_C)
    2330                            .dwattr $C$DW$T$91, DW_AT_decl_file("/home/pola/ti/ccsv8/tools/compiler/ti-cgt-arm_18.1.1.LTS/
    2331                            .dwattr $C$DW$T$91, DW_AT_decl_line(0x64)
    2332                            .dwattr $C$DW$T$91, DW_AT_decl_column(0x19)
    2333                    
    2334                    $C$DW$T$92      .dwtag  DW_TAG_typedef
    2335                            .dwattr $C$DW$T$92, DW_AT_name("__u_register_t")
    2336                            .dwattr $C$DW$T$92, DW_AT_type(*$C$DW$T$26)
    2337                            .dwattr $C$DW$T$92, DW_AT_language(DW_LANG_C)
    2338                            .dwattr $C$DW$T$92, DW_AT_decl_file("/home/pola/ti/ccsv8/tools/compiler/ti-cgt-arm_18.1.1.LTS/
    2339                            .dwattr $C$DW$T$92, DW_AT_decl_line(0x71)
    2340                            .dwattr $C$DW$T$92, DW_AT_decl_column(0x14)
    2341                    
    2342                    $C$DW$T$93      .dwtag  DW_TAG_typedef
    2343                            .dwattr $C$DW$T$93, DW_AT_name("__uid_t")
    2344                            .dwattr $C$DW$T$93, DW_AT_type(*$C$DW$T$26)
    2345                            .dwattr $C$DW$T$93, DW_AT_language(DW_LANG_C)
    2346                            .dwattr $C$DW$T$93, DW_AT_decl_file("/home/pola/ti/ccsv8/tools/compiler/ti-cgt-arm_18.1.1.LTS/
    2347                            .dwattr $C$DW$T$93, DW_AT_decl_line(0x48)
    2348                            .dwattr $C$DW$T$93, DW_AT_decl_column(0x14)
    2349                    
    2350                    $C$DW$T$94      .dwtag  DW_TAG_typedef
    2351                            .dwattr $C$DW$T$94, DW_AT_name("__uint_fast16_t")
    2352                            .dwattr $C$DW$T$94, DW_AT_type(*$C$DW$T$26)
    2353                            .dwattr $C$DW$T$94, DW_AT_language(DW_LANG_C)
    2354                            .dwattr $C$DW$T$94, DW_AT_decl_file("/home/pola/ti/ccsv8/tools/compiler/ti-cgt-arm_18.1.1.LTS/
    2355                            .dwattr $C$DW$T$94, DW_AT_decl_line(0x6a)
    2356                            .dwattr $C$DW$T$94, DW_AT_decl_column(0x14)
    2357                    
    2358                    $C$DW$T$95      .dwtag  DW_TAG_typedef
    2359                            .dwattr $C$DW$T$95, DW_AT_name("uint_fast16_t")
    2360                            .dwattr $C$DW$T$95, DW_AT_type(*$C$DW$T$94)
    2361                            .dwattr $C$DW$T$95, DW_AT_language(DW_LANG_C)
    2362                            .dwattr $C$DW$T$95, DW_AT_decl_file("/home/pola/ti/ccsv8/tools/compiler/ti-cgt-arm_18.1.1.LTS/
    2363                            .dwattr $C$DW$T$95, DW_AT_decl_line(0x38)
    2364                            .dwattr $C$DW$T$95, DW_AT_decl_column(0x1a)
    2365                    
TI ARM Assembler Unix v18.1.1 Fri Jul  3 20:08:27 2020

Tools Copyright (c) 1996-2017 Texas Instruments Incorporated
watchdog.asm                                                         PAGE   44

    2366                    $C$DW$T$96      .dwtag  DW_TAG_typedef
    2367                            .dwattr $C$DW$T$96, DW_AT_name("__uint_fast32_t")
    2368                            .dwattr $C$DW$T$96, DW_AT_type(*$C$DW$T$26)
    2369                            .dwattr $C$DW$T$96, DW_AT_language(DW_LANG_C)
    2370                            .dwattr $C$DW$T$96, DW_AT_decl_file("/home/pola/ti/ccsv8/tools/compiler/ti-cgt-arm_18.1.1.LTS/
    2371                            .dwattr $C$DW$T$96, DW_AT_decl_line(0x6b)
    2372                            .dwattr $C$DW$T$96, DW_AT_decl_column(0x14)
    2373                    
    2374                    $C$DW$T$97      .dwtag  DW_TAG_typedef
    2375                            .dwattr $C$DW$T$97, DW_AT_name("uint_fast32_t")
    2376                            .dwattr $C$DW$T$97, DW_AT_type(*$C$DW$T$96)
    2377                            .dwattr $C$DW$T$97, DW_AT_language(DW_LANG_C)
    2378                            .dwattr $C$DW$T$97, DW_AT_decl_file("/home/pola/ti/ccsv8/tools/compiler/ti-cgt-arm_18.1.1.LTS/
    2379                            .dwattr $C$DW$T$97, DW_AT_decl_line(0x39)
    2380                            .dwattr $C$DW$T$97, DW_AT_decl_column(0x1a)
    2381                    
    2382                    $C$DW$T$98      .dwtag  DW_TAG_typedef
    2383                            .dwattr $C$DW$T$98, DW_AT_name("__uint_fast8_t")
    2384                            .dwattr $C$DW$T$98, DW_AT_type(*$C$DW$T$26)
    2385                            .dwattr $C$DW$T$98, DW_AT_language(DW_LANG_C)
    2386                            .dwattr $C$DW$T$98, DW_AT_decl_file("/home/pola/ti/ccsv8/tools/compiler/ti-cgt-arm_18.1.1.LTS/
    2387                            .dwattr $C$DW$T$98, DW_AT_decl_line(0x69)
    2388                            .dwattr $C$DW$T$98, DW_AT_decl_column(0x14)
    2389                    
    2390                    $C$DW$T$99      .dwtag  DW_TAG_typedef
    2391                            .dwattr $C$DW$T$99, DW_AT_name("uint_fast8_t")
    2392                            .dwattr $C$DW$T$99, DW_AT_type(*$C$DW$T$98)
    2393                            .dwattr $C$DW$T$99, DW_AT_language(DW_LANG_C)
    2394                            .dwattr $C$DW$T$99, DW_AT_decl_file("/home/pola/ti/ccsv8/tools/compiler/ti-cgt-arm_18.1.1.LTS/
    2395                            .dwattr $C$DW$T$99, DW_AT_decl_line(0x37)
    2396                            .dwattr $C$DW$T$99, DW_AT_decl_column(0x19)
    2397                    
    2398                    $C$DW$T$100     .dwtag  DW_TAG_typedef
    2399                            .dwattr $C$DW$T$100, DW_AT_name("__uint_least32_t")
    2400                            .dwattr $C$DW$T$100, DW_AT_type(*$C$DW$T$26)
    2401                            .dwattr $C$DW$T$100, DW_AT_language(DW_LANG_C)
    2402                            .dwattr $C$DW$T$100, DW_AT_decl_file("/home/pola/ti/ccsv8/tools/compiler/ti-cgt-arm_18.1.1.LTS
    2403                            .dwattr $C$DW$T$100, DW_AT_decl_line(0x6f)
    2404                            .dwattr $C$DW$T$100, DW_AT_decl_column(0x14)
    2405                    
    2406                    $C$DW$T$101     .dwtag  DW_TAG_typedef
    2407                            .dwattr $C$DW$T$101, DW_AT_name("__char32_t")
    2408                            .dwattr $C$DW$T$101, DW_AT_type(*$C$DW$T$100)
    2409                            .dwattr $C$DW$T$101, DW_AT_language(DW_LANG_C)
    2410                            .dwattr $C$DW$T$101, DW_AT_decl_file("/home/pola/ti/ccsv8/tools/compiler/ti-cgt-arm_18.1.1.LTS
    2411                            .dwattr $C$DW$T$101, DW_AT_decl_line(0x67)
    2412                            .dwattr $C$DW$T$101, DW_AT_decl_column(0x1a)
    2413                    
    2414                    $C$DW$T$102     .dwtag  DW_TAG_typedef
    2415                            .dwattr $C$DW$T$102, DW_AT_name("uint_least32_t")
    2416                            .dwattr $C$DW$T$102, DW_AT_type(*$C$DW$T$100)
    2417                            .dwattr $C$DW$T$102, DW_AT_language(DW_LANG_C)
    2418                            .dwattr $C$DW$T$102, DW_AT_decl_file("/home/pola/ti/ccsv8/tools/compiler/ti-cgt-arm_18.1.1.LTS
    2419                            .dwattr $C$DW$T$102, DW_AT_decl_line(0x2f)
    2420                            .dwattr $C$DW$T$102, DW_AT_decl_column(0x1a)
TI ARM Assembler Unix v18.1.1 Fri Jul  3 20:08:27 2020

Tools Copyright (c) 1996-2017 Texas Instruments Incorporated
watchdog.asm                                                         PAGE   45

    2421                    
    2422                    $C$DW$T$103     .dwtag  DW_TAG_typedef
    2423                            .dwattr $C$DW$T$103, DW_AT_name("__uintfptr_t")
    2424                            .dwattr $C$DW$T$103, DW_AT_type(*$C$DW$T$26)
    2425                            .dwattr $C$DW$T$103, DW_AT_language(DW_LANG_C)
    2426                            .dwattr $C$DW$T$103, DW_AT_decl_file("/home/pola/ti/ccsv8/tools/compiler/ti-cgt-arm_18.1.1.LTS
    2427                            .dwattr $C$DW$T$103, DW_AT_decl_line(0x66)
    2428                            .dwattr $C$DW$T$103, DW_AT_decl_column(0x14)
    2429                    
    2430                    $C$DW$T$104     .dwtag  DW_TAG_typedef
    2431                            .dwattr $C$DW$T$104, DW_AT_name("__uintptr_t")
    2432                            .dwattr $C$DW$T$104, DW_AT_type(*$C$DW$T$26)
    2433                            .dwattr $C$DW$T$104, DW_AT_language(DW_LANG_C)
    2434                            .dwattr $C$DW$T$104, DW_AT_decl_file("/home/pola/ti/ccsv8/tools/compiler/ti-cgt-arm_18.1.1.LTS
    2435                            .dwattr $C$DW$T$104, DW_AT_decl_line(0x68)
    2436                            .dwattr $C$DW$T$104, DW_AT_decl_column(0x14)
    2437                    
    2438                    $C$DW$T$105     .dwtag  DW_TAG_typedef
    2439                            .dwattr $C$DW$T$105, DW_AT_name("uintptr_t")
    2440                            .dwattr $C$DW$T$105, DW_AT_type(*$C$DW$T$104)
    2441                            .dwattr $C$DW$T$105, DW_AT_language(DW_LANG_C)
    2442                            .dwattr $C$DW$T$105, DW_AT_decl_file("/home/pola/ti/ccsv8/tools/compiler/ti-cgt-arm_18.1.1.LTS
    2443                            .dwattr $C$DW$T$105, DW_AT_decl_line(0x50)
    2444                            .dwattr $C$DW$T$105, DW_AT_decl_column(0x16)
    2445                    
    2446                    $C$DW$T$106     .dwtag  DW_TAG_typedef
    2447                            .dwattr $C$DW$T$106, DW_AT_name("__vm_offset_t")
    2448                            .dwattr $C$DW$T$106, DW_AT_type(*$C$DW$T$26)
    2449                            .dwattr $C$DW$T$106, DW_AT_language(DW_LANG_C)
    2450                            .dwattr $C$DW$T$106, DW_AT_decl_file("/home/pola/ti/ccsv8/tools/compiler/ti-cgt-arm_18.1.1.LTS
    2451                            .dwattr $C$DW$T$106, DW_AT_decl_line(0x72)
    2452                            .dwattr $C$DW$T$106, DW_AT_decl_column(0x14)
    2453                    
    2454                    $C$DW$T$107     .dwtag  DW_TAG_typedef
    2455                            .dwattr $C$DW$T$107, DW_AT_name("__vm_paddr_t")
    2456                            .dwattr $C$DW$T$107, DW_AT_type(*$C$DW$T$26)
    2457                            .dwattr $C$DW$T$107, DW_AT_language(DW_LANG_C)
    2458                            .dwattr $C$DW$T$107, DW_AT_decl_file("/home/pola/ti/ccsv8/tools/compiler/ti-cgt-arm_18.1.1.LTS
    2459                            .dwattr $C$DW$T$107, DW_AT_decl_line(0x73)
    2460                            .dwattr $C$DW$T$107, DW_AT_decl_column(0x14)
    2461                    
    2462                    $C$DW$T$108     .dwtag  DW_TAG_typedef
    2463                            .dwattr $C$DW$T$108, DW_AT_name("__vm_size_t")
    2464                            .dwattr $C$DW$T$108, DW_AT_type(*$C$DW$T$26)
    2465                            .dwattr $C$DW$T$108, DW_AT_language(DW_LANG_C)
    2466                            .dwattr $C$DW$T$108, DW_AT_decl_file("/home/pola/ti/ccsv8/tools/compiler/ti-cgt-arm_18.1.1.LTS
    2467                            .dwattr $C$DW$T$108, DW_AT_decl_line(0x74)
    2468                            .dwattr $C$DW$T$108, DW_AT_decl_column(0x14)
    2469                    
    2470                    $C$DW$T$27      .dwtag  DW_TAG_typedef
    2471                            .dwattr $C$DW$T$27, DW_AT_name("uint32_t")
    2472                            .dwattr $C$DW$T$27, DW_AT_type(*$C$DW$T$26)
    2473                            .dwattr $C$DW$T$27, DW_AT_language(DW_LANG_C)
    2474                            .dwattr $C$DW$T$27, DW_AT_decl_file("/home/pola/ti/ccsv8/tools/compiler/ti-cgt-arm_18.1.1.LTS/
    2475                            .dwattr $C$DW$T$27, DW_AT_decl_line(0x42)
TI ARM Assembler Unix v18.1.1 Fri Jul  3 20:08:27 2020

Tools Copyright (c) 1996-2017 Texas Instruments Incorporated
watchdog.asm                                                         PAGE   46

    2476                            .dwattr $C$DW$T$27, DW_AT_decl_column(0x15)
    2477                    
    2478                    $C$DW$T$114     .dwtag  DW_TAG_typedef
    2479                            .dwattr $C$DW$T$114, DW_AT_name("__useconds_t")
    2480                            .dwattr $C$DW$T$114, DW_AT_type(*$C$DW$T$11)
    2481                            .dwattr $C$DW$T$114, DW_AT_language(DW_LANG_C)
    2482                            .dwattr $C$DW$T$114, DW_AT_decl_file("/home/pola/ti/ccsv8/tools/compiler/ti-cgt-arm_18.1.1.LTS
    2483                            .dwattr $C$DW$T$114, DW_AT_decl_line(0x49)
    2484                            .dwattr $C$DW$T$114, DW_AT_decl_column(0x16)
    2485                    
    2486                    $C$DW$T$12      .dwtag  DW_TAG_base_type
    2487                            .dwattr $C$DW$T$12, DW_AT_encoding(DW_ATE_signed)
    2488                            .dwattr $C$DW$T$12, DW_AT_name("long")
    2489                            .dwattr $C$DW$T$12, DW_AT_byte_size(0x04)
    2490                    
    2491                    $C$DW$T$115     .dwtag  DW_TAG_typedef
    2492                            .dwattr $C$DW$T$115, DW_AT_name("__key_t")
    2493                            .dwattr $C$DW$T$115, DW_AT_type(*$C$DW$T$12)
    2494                            .dwattr $C$DW$T$115, DW_AT_language(DW_LANG_C)
    2495                            .dwattr $C$DW$T$115, DW_AT_decl_file("/home/pola/ti/ccsv8/tools/compiler/ti-cgt-arm_18.1.1.LTS
    2496                            .dwattr $C$DW$T$115, DW_AT_decl_line(0x37)
    2497                            .dwattr $C$DW$T$115, DW_AT_decl_column(0x0f)
    2498                    
    2499                    $C$DW$T$116     .dwtag  DW_TAG_typedef
    2500                            .dwattr $C$DW$T$116, DW_AT_name("__suseconds_t")
    2501                            .dwattr $C$DW$T$116, DW_AT_type(*$C$DW$T$12)
    2502                            .dwattr $C$DW$T$116, DW_AT_language(DW_LANG_C)
    2503                            .dwattr $C$DW$T$116, DW_AT_decl_file("/home/pola/ti/ccsv8/tools/compiler/ti-cgt-arm_18.1.1.LTS
    2504                            .dwattr $C$DW$T$116, DW_AT_decl_line(0x45)
    2505                            .dwattr $C$DW$T$116, DW_AT_decl_column(0x0f)
    2506                    
    2507                    $C$DW$T$13      .dwtag  DW_TAG_base_type
    2508                            .dwattr $C$DW$T$13, DW_AT_encoding(DW_ATE_unsigned)
    2509                            .dwattr $C$DW$T$13, DW_AT_name("unsigned long")
    2510                            .dwattr $C$DW$T$13, DW_AT_byte_size(0x04)
    2511                    
    2512                    $C$DW$T$14      .dwtag  DW_TAG_base_type
    2513                            .dwattr $C$DW$T$14, DW_AT_encoding(DW_ATE_signed)
    2514                            .dwattr $C$DW$T$14, DW_AT_name("long long")
    2515                            .dwattr $C$DW$T$14, DW_AT_byte_size(0x08)
    2516                    
    2517                    $C$DW$T$117     .dwtag  DW_TAG_typedef
    2518                            .dwattr $C$DW$T$117, DW_AT_name("__int64_t")
    2519                            .dwattr $C$DW$T$117, DW_AT_type(*$C$DW$T$14)
    2520                            .dwattr $C$DW$T$117, DW_AT_language(DW_LANG_C)
    2521                            .dwattr $C$DW$T$117, DW_AT_decl_file("/home/pola/ti/ccsv8/tools/compiler/ti-cgt-arm_18.1.1.LTS
    2522                            .dwattr $C$DW$T$117, DW_AT_decl_line(0x43)
    2523                            .dwattr $C$DW$T$117, DW_AT_decl_column(0x14)
    2524                    
    2525                    $C$DW$T$118     .dwtag  DW_TAG_typedef
    2526                            .dwattr $C$DW$T$118, DW_AT_name("__blkcnt_t")
    2527                            .dwattr $C$DW$T$118, DW_AT_type(*$C$DW$T$117)
    2528                            .dwattr $C$DW$T$118, DW_AT_language(DW_LANG_C)
    2529                            .dwattr $C$DW$T$118, DW_AT_decl_file("/home/pola/ti/ccsv8/tools/compiler/ti-cgt-arm_18.1.1.LTS
    2530                            .dwattr $C$DW$T$118, DW_AT_decl_line(0x2f)
TI ARM Assembler Unix v18.1.1 Fri Jul  3 20:08:27 2020

Tools Copyright (c) 1996-2017 Texas Instruments Incorporated
watchdog.asm                                                         PAGE   47

    2531                            .dwattr $C$DW$T$118, DW_AT_decl_column(0x13)
    2532                    
    2533                    $C$DW$T$119     .dwtag  DW_TAG_typedef
    2534                            .dwattr $C$DW$T$119, DW_AT_name("__id_t")
    2535                            .dwattr $C$DW$T$119, DW_AT_type(*$C$DW$T$117)
    2536                            .dwattr $C$DW$T$119, DW_AT_language(DW_LANG_C)
    2537                            .dwattr $C$DW$T$119, DW_AT_decl_file("/home/pola/ti/ccsv8/tools/compiler/ti-cgt-arm_18.1.1.LTS
    2538                            .dwattr $C$DW$T$119, DW_AT_decl_line(0x35)
    2539                            .dwattr $C$DW$T$119, DW_AT_decl_column(0x13)
    2540                    
    2541                    $C$DW$T$120     .dwtag  DW_TAG_typedef
    2542                            .dwattr $C$DW$T$120, DW_AT_name("__int_fast64_t")
    2543                            .dwattr $C$DW$T$120, DW_AT_type(*$C$DW$T$117)
    2544                            .dwattr $C$DW$T$120, DW_AT_language(DW_LANG_C)
    2545                            .dwattr $C$DW$T$120, DW_AT_decl_file("/home/pola/ti/ccsv8/tools/compiler/ti-cgt-arm_18.1.1.LTS
    2546                            .dwattr $C$DW$T$120, DW_AT_decl_line(0x57)
    2547                            .dwattr $C$DW$T$120, DW_AT_decl_column(0x13)
    2548                    
    2549                    $C$DW$T$121     .dwtag  DW_TAG_typedef
    2550                            .dwattr $C$DW$T$121, DW_AT_name("int_fast64_t")
    2551                            .dwattr $C$DW$T$121, DW_AT_type(*$C$DW$T$120)
    2552                            .dwattr $C$DW$T$121, DW_AT_language(DW_LANG_C)
    2553                            .dwattr $C$DW$T$121, DW_AT_decl_file("/home/pola/ti/ccsv8/tools/compiler/ti-cgt-arm_18.1.1.LTS
    2554                            .dwattr $C$DW$T$121, DW_AT_decl_line(0x35)
    2555                            .dwattr $C$DW$T$121, DW_AT_decl_column(0x19)
    2556                    
    2557                    $C$DW$T$122     .dwtag  DW_TAG_typedef
    2558                            .dwattr $C$DW$T$122, DW_AT_name("__int_least64_t")
    2559                            .dwattr $C$DW$T$122, DW_AT_type(*$C$DW$T$117)
    2560                            .dwattr $C$DW$T$122, DW_AT_language(DW_LANG_C)
    2561                            .dwattr $C$DW$T$122, DW_AT_decl_file("/home/pola/ti/ccsv8/tools/compiler/ti-cgt-arm_18.1.1.LTS
    2562                            .dwattr $C$DW$T$122, DW_AT_decl_line(0x5b)
    2563                            .dwattr $C$DW$T$122, DW_AT_decl_column(0x13)
    2564                    
    2565                    $C$DW$T$123     .dwtag  DW_TAG_typedef
    2566                            .dwattr $C$DW$T$123, DW_AT_name("int_least64_t")
    2567                            .dwattr $C$DW$T$123, DW_AT_type(*$C$DW$T$122)
    2568                            .dwattr $C$DW$T$123, DW_AT_language(DW_LANG_C)
    2569                            .dwattr $C$DW$T$123, DW_AT_decl_file("/home/pola/ti/ccsv8/tools/compiler/ti-cgt-arm_18.1.1.LTS
    2570                            .dwattr $C$DW$T$123, DW_AT_decl_line(0x2b)
    2571                            .dwattr $C$DW$T$123, DW_AT_decl_column(0x1a)
    2572                    
    2573                    $C$DW$T$124     .dwtag  DW_TAG_typedef
    2574                            .dwattr $C$DW$T$124, DW_AT_name("__intmax_t")
    2575                            .dwattr $C$DW$T$124, DW_AT_type(*$C$DW$T$117)
    2576                            .dwattr $C$DW$T$124, DW_AT_language(DW_LANG_C)
    2577                            .dwattr $C$DW$T$124, DW_AT_decl_file("/home/pola/ti/ccsv8/tools/compiler/ti-cgt-arm_18.1.1.LTS
    2578                            .dwattr $C$DW$T$124, DW_AT_decl_line(0x52)
    2579                            .dwattr $C$DW$T$124, DW_AT_decl_column(0x13)
    2580                    
    2581                    $C$DW$T$125     .dwtag  DW_TAG_typedef
    2582                            .dwattr $C$DW$T$125, DW_AT_name("intmax_t")
    2583                            .dwattr $C$DW$T$125, DW_AT_type(*$C$DW$T$124)
    2584                            .dwattr $C$DW$T$125, DW_AT_language(DW_LANG_C)
    2585                            .dwattr $C$DW$T$125, DW_AT_decl_file("/home/pola/ti/ccsv8/tools/compiler/ti-cgt-arm_18.1.1.LTS
TI ARM Assembler Unix v18.1.1 Fri Jul  3 20:08:27 2020

Tools Copyright (c) 1996-2017 Texas Instruments Incorporated
watchdog.asm                                                         PAGE   48

    2586                            .dwattr $C$DW$T$125, DW_AT_decl_line(0x54)
    2587                            .dwattr $C$DW$T$125, DW_AT_decl_column(0x15)
    2588                    
    2589                    $C$DW$T$126     .dwtag  DW_TAG_typedef
    2590                            .dwattr $C$DW$T$126, DW_AT_name("__off64_t")
    2591                            .dwattr $C$DW$T$126, DW_AT_type(*$C$DW$T$117)
    2592                            .dwattr $C$DW$T$126, DW_AT_language(DW_LANG_C)
    2593                            .dwattr $C$DW$T$126, DW_AT_decl_file("/home/pola/ti/ccsv8/tools/compiler/ti-cgt-arm_18.1.1.LTS
    2594                            .dwattr $C$DW$T$126, DW_AT_decl_line(0x3e)
    2595                            .dwattr $C$DW$T$126, DW_AT_decl_column(0x13)
    2596                    
    2597                    $C$DW$T$127     .dwtag  DW_TAG_typedef
    2598                            .dwattr $C$DW$T$127, DW_AT_name("__off_t")
    2599                            .dwattr $C$DW$T$127, DW_AT_type(*$C$DW$T$117)
    2600                            .dwattr $C$DW$T$127, DW_AT_language(DW_LANG_C)
    2601                            .dwattr $C$DW$T$127, DW_AT_decl_file("/home/pola/ti/ccsv8/tools/compiler/ti-cgt-arm_18.1.1.LTS
    2602                            .dwattr $C$DW$T$127, DW_AT_decl_line(0x3d)
    2603                            .dwattr $C$DW$T$127, DW_AT_decl_column(0x13)
    2604                    
    2605                    $C$DW$T$128     .dwtag  DW_TAG_typedef
    2606                            .dwattr $C$DW$T$128, DW_AT_name("__rlim_t")
    2607                            .dwattr $C$DW$T$128, DW_AT_type(*$C$DW$T$117)
    2608                            .dwattr $C$DW$T$128, DW_AT_language(DW_LANG_C)
    2609                            .dwattr $C$DW$T$128, DW_AT_decl_file("/home/pola/ti/ccsv8/tools/compiler/ti-cgt-arm_18.1.1.LTS
    2610                            .dwattr $C$DW$T$128, DW_AT_decl_line(0x40)
    2611                            .dwattr $C$DW$T$128, DW_AT_decl_column(0x13)
    2612                    
    2613                    $C$DW$T$129     .dwtag  DW_TAG_typedef
    2614                            .dwattr $C$DW$T$129, DW_AT_name("int64_t")
    2615                            .dwattr $C$DW$T$129, DW_AT_type(*$C$DW$T$117)
    2616                            .dwattr $C$DW$T$129, DW_AT_language(DW_LANG_C)
    2617                            .dwattr $C$DW$T$129, DW_AT_decl_file("/home/pola/ti/ccsv8/tools/compiler/ti-cgt-arm_18.1.1.LTS
    2618                            .dwattr $C$DW$T$129, DW_AT_decl_line(0x33)
    2619                            .dwattr $C$DW$T$129, DW_AT_decl_column(0x14)
    2620                    
    2621                    $C$DW$T$15      .dwtag  DW_TAG_base_type
    2622                            .dwattr $C$DW$T$15, DW_AT_encoding(DW_ATE_unsigned)
    2623                            .dwattr $C$DW$T$15, DW_AT_name("unsigned long long")
    2624                            .dwattr $C$DW$T$15, DW_AT_byte_size(0x08)
    2625                    
    2626                    $C$DW$T$130     .dwtag  DW_TAG_typedef
    2627                            .dwattr $C$DW$T$130, DW_AT_name("__uint64_t")
    2628                            .dwattr $C$DW$T$130, DW_AT_type(*$C$DW$T$15)
    2629                            .dwattr $C$DW$T$130, DW_AT_language(DW_LANG_C)
    2630                            .dwattr $C$DW$T$130, DW_AT_decl_file("/home/pola/ti/ccsv8/tools/compiler/ti-cgt-arm_18.1.1.LTS
    2631                            .dwattr $C$DW$T$130, DW_AT_decl_line(0x48)
    2632                            .dwattr $C$DW$T$130, DW_AT_decl_column(0x1c)
    2633                    
    2634                    $C$DW$T$131     .dwtag  DW_TAG_typedef
    2635                            .dwattr $C$DW$T$131, DW_AT_name("__dev_t")
    2636                            .dwattr $C$DW$T$131, DW_AT_type(*$C$DW$T$130)
    2637                            .dwattr $C$DW$T$131, DW_AT_language(DW_LANG_C)
    2638                            .dwattr $C$DW$T$131, DW_AT_decl_file("/home/pola/ti/ccsv8/tools/compiler/ti-cgt-arm_18.1.1.LTS
    2639                            .dwattr $C$DW$T$131, DW_AT_decl_line(0x74)
    2640                            .dwattr $C$DW$T$131, DW_AT_decl_column(0x14)
TI ARM Assembler Unix v18.1.1 Fri Jul  3 20:08:27 2020

Tools Copyright (c) 1996-2017 Texas Instruments Incorporated
watchdog.asm                                                         PAGE   49

    2641                    
    2642                    $C$DW$T$132     .dwtag  DW_TAG_typedef
    2643                            .dwattr $C$DW$T$132, DW_AT_name("__fsblkcnt_t")
    2644                            .dwattr $C$DW$T$132, DW_AT_type(*$C$DW$T$130)
    2645                            .dwattr $C$DW$T$132, DW_AT_language(DW_LANG_C)
    2646                            .dwattr $C$DW$T$132, DW_AT_decl_file("/home/pola/ti/ccsv8/tools/compiler/ti-cgt-arm_18.1.1.LTS
    2647                            .dwattr $C$DW$T$132, DW_AT_decl_line(0x32)
    2648                            .dwattr $C$DW$T$132, DW_AT_decl_column(0x14)
    2649                    
    2650                    $C$DW$T$133     .dwtag  DW_TAG_typedef
    2651                            .dwattr $C$DW$T$133, DW_AT_name("__fsfilcnt_t")
    2652                            .dwattr $C$DW$T$133, DW_AT_type(*$C$DW$T$130)
    2653                            .dwattr $C$DW$T$133, DW_AT_language(DW_LANG_C)
    2654                            .dwattr $C$DW$T$133, DW_AT_decl_file("/home/pola/ti/ccsv8/tools/compiler/ti-cgt-arm_18.1.1.LTS
    2655                            .dwattr $C$DW$T$133, DW_AT_decl_line(0x33)
    2656                            .dwattr $C$DW$T$133, DW_AT_decl_column(0x14)
    2657                    
    2658                    $C$DW$T$134     .dwtag  DW_TAG_typedef
    2659                            .dwattr $C$DW$T$134, DW_AT_name("__ino_t")
    2660                            .dwattr $C$DW$T$134, DW_AT_type(*$C$DW$T$130)
    2661                            .dwattr $C$DW$T$134, DW_AT_language(DW_LANG_C)
    2662                            .dwattr $C$DW$T$134, DW_AT_decl_file("/home/pola/ti/ccsv8/tools/compiler/ti-cgt-arm_18.1.1.LTS
    2663                            .dwattr $C$DW$T$134, DW_AT_decl_line(0x36)
    2664                            .dwattr $C$DW$T$134, DW_AT_decl_column(0x14)
    2665                    
    2666                    $C$DW$T$135     .dwtag  DW_TAG_typedef
    2667                            .dwattr $C$DW$T$135, DW_AT_name("__nlink_t")
    2668                            .dwattr $C$DW$T$135, DW_AT_type(*$C$DW$T$130)
    2669                            .dwattr $C$DW$T$135, DW_AT_language(DW_LANG_C)
    2670                            .dwattr $C$DW$T$135, DW_AT_decl_file("/home/pola/ti/ccsv8/tools/compiler/ti-cgt-arm_18.1.1.LTS
    2671                            .dwattr $C$DW$T$135, DW_AT_decl_line(0x3c)
    2672                            .dwattr $C$DW$T$135, DW_AT_decl_column(0x14)
    2673                    
    2674                    $C$DW$T$136     .dwtag  DW_TAG_typedef
    2675                            .dwattr $C$DW$T$136, DW_AT_name("__uint_fast64_t")
    2676                            .dwattr $C$DW$T$136, DW_AT_type(*$C$DW$T$130)
    2677                            .dwattr $C$DW$T$136, DW_AT_language(DW_LANG_C)
    2678                            .dwattr $C$DW$T$136, DW_AT_decl_file("/home/pola/ti/ccsv8/tools/compiler/ti-cgt-arm_18.1.1.LTS
    2679                            .dwattr $C$DW$T$136, DW_AT_decl_line(0x6c)
    2680                            .dwattr $C$DW$T$136, DW_AT_decl_column(0x14)
    2681                    
    2682                    $C$DW$T$137     .dwtag  DW_TAG_typedef
    2683                            .dwattr $C$DW$T$137, DW_AT_name("uint_fast64_t")
    2684                            .dwattr $C$DW$T$137, DW_AT_type(*$C$DW$T$136)
    2685                            .dwattr $C$DW$T$137, DW_AT_language(DW_LANG_C)
    2686                            .dwattr $C$DW$T$137, DW_AT_decl_file("/home/pola/ti/ccsv8/tools/compiler/ti-cgt-arm_18.1.1.LTS
    2687                            .dwattr $C$DW$T$137, DW_AT_decl_line(0x3a)
    2688                            .dwattr $C$DW$T$137, DW_AT_decl_column(0x1a)
    2689                    
    2690                    $C$DW$T$138     .dwtag  DW_TAG_typedef
    2691                            .dwattr $C$DW$T$138, DW_AT_name("__uint_least64_t")
    2692                            .dwattr $C$DW$T$138, DW_AT_type(*$C$DW$T$130)
    2693                            .dwattr $C$DW$T$138, DW_AT_language(DW_LANG_C)
    2694                            .dwattr $C$DW$T$138, DW_AT_decl_file("/home/pola/ti/ccsv8/tools/compiler/ti-cgt-arm_18.1.1.LTS
    2695                            .dwattr $C$DW$T$138, DW_AT_decl_line(0x70)
TI ARM Assembler Unix v18.1.1 Fri Jul  3 20:08:27 2020

Tools Copyright (c) 1996-2017 Texas Instruments Incorporated
watchdog.asm                                                         PAGE   50

    2696                            .dwattr $C$DW$T$138, DW_AT_decl_column(0x14)
    2697                    
    2698                    $C$DW$T$139     .dwtag  DW_TAG_typedef
    2699                            .dwattr $C$DW$T$139, DW_AT_name("uint_least64_t")
    2700                            .dwattr $C$DW$T$139, DW_AT_type(*$C$DW$T$138)
    2701                            .dwattr $C$DW$T$139, DW_AT_language(DW_LANG_C)
    2702                            .dwattr $C$DW$T$139, DW_AT_decl_file("/home/pola/ti/ccsv8/tools/compiler/ti-cgt-arm_18.1.1.LTS
    2703                            .dwattr $C$DW$T$139, DW_AT_decl_line(0x30)
    2704                            .dwattr $C$DW$T$139, DW_AT_decl_column(0x1a)
    2705                    
    2706                    $C$DW$T$140     .dwtag  DW_TAG_typedef
    2707                            .dwattr $C$DW$T$140, DW_AT_name("__uintmax_t")
    2708                            .dwattr $C$DW$T$140, DW_AT_type(*$C$DW$T$130)
    2709                            .dwattr $C$DW$T$140, DW_AT_language(DW_LANG_C)
    2710                            .dwattr $C$DW$T$140, DW_AT_decl_file("/home/pola/ti/ccsv8/tools/compiler/ti-cgt-arm_18.1.1.LTS
    2711                            .dwattr $C$DW$T$140, DW_AT_decl_line(0x67)
    2712                            .dwattr $C$DW$T$140, DW_AT_decl_column(0x14)
    2713                    
    2714                    $C$DW$T$141     .dwtag  DW_TAG_typedef
    2715                            .dwattr $C$DW$T$141, DW_AT_name("__rman_res_t")
    2716                            .dwattr $C$DW$T$141, DW_AT_type(*$C$DW$T$140)
    2717                            .dwattr $C$DW$T$141, DW_AT_language(DW_LANG_C)
    2718                            .dwattr $C$DW$T$141, DW_AT_decl_file("/home/pola/ti/ccsv8/tools/compiler/ti-cgt-arm_18.1.1.LTS
    2719                            .dwattr $C$DW$T$141, DW_AT_decl_line(0x8f)
    2720                            .dwattr $C$DW$T$141, DW_AT_decl_column(0x19)
    2721                    
    2722                    $C$DW$T$142     .dwtag  DW_TAG_typedef
    2723                            .dwattr $C$DW$T$142, DW_AT_name("uintmax_t")
    2724                            .dwattr $C$DW$T$142, DW_AT_type(*$C$DW$T$140)
    2725                            .dwattr $C$DW$T$142, DW_AT_language(DW_LANG_C)
    2726                            .dwattr $C$DW$T$142, DW_AT_decl_file("/home/pola/ti/ccsv8/tools/compiler/ti-cgt-arm_18.1.1.LTS
    2727                            .dwattr $C$DW$T$142, DW_AT_decl_line(0x58)
    2728                            .dwattr $C$DW$T$142, DW_AT_decl_column(0x16)
    2729                    
    2730                    $C$DW$T$143     .dwtag  DW_TAG_typedef
    2731                            .dwattr $C$DW$T$143, DW_AT_name("uint64_t")
    2732                            .dwattr $C$DW$T$143, DW_AT_type(*$C$DW$T$130)
    2733                            .dwattr $C$DW$T$143, DW_AT_language(DW_LANG_C)
    2734                            .dwattr $C$DW$T$143, DW_AT_decl_file("/home/pola/ti/ccsv8/tools/compiler/ti-cgt-arm_18.1.1.LTS
    2735                            .dwattr $C$DW$T$143, DW_AT_decl_line(0x47)
    2736                            .dwattr $C$DW$T$143, DW_AT_decl_column(0x15)
    2737                    
    2738                    $C$DW$T$16      .dwtag  DW_TAG_base_type
    2739                            .dwattr $C$DW$T$16, DW_AT_encoding(DW_ATE_float)
    2740                            .dwattr $C$DW$T$16, DW_AT_name("float")
    2741                            .dwattr $C$DW$T$16, DW_AT_byte_size(0x04)
    2742                    
    2743                    $C$DW$T$144     .dwtag  DW_TAG_typedef
    2744                            .dwattr $C$DW$T$144, DW_AT_name("__float_t")
    2745                            .dwattr $C$DW$T$144, DW_AT_type(*$C$DW$T$16)
    2746                            .dwattr $C$DW$T$144, DW_AT_language(DW_LANG_C)
    2747                            .dwattr $C$DW$T$144, DW_AT_decl_file("/home/pola/ti/ccsv8/tools/compiler/ti-cgt-arm_18.1.1.LTS
    2748                            .dwattr $C$DW$T$144, DW_AT_decl_line(0x50)
    2749                            .dwattr $C$DW$T$144, DW_AT_decl_column(0x10)
    2750                    
TI ARM Assembler Unix v18.1.1 Fri Jul  3 20:08:27 2020

Tools Copyright (c) 1996-2017 Texas Instruments Incorporated
watchdog.asm                                                         PAGE   51

    2751                    $C$DW$T$17      .dwtag  DW_TAG_base_type
    2752                            .dwattr $C$DW$T$17, DW_AT_encoding(DW_ATE_float)
    2753                            .dwattr $C$DW$T$17, DW_AT_name("double")
    2754                            .dwattr $C$DW$T$17, DW_AT_byte_size(0x08)
    2755                    
    2756                    $C$DW$T$145     .dwtag  DW_TAG_typedef
    2757                            .dwattr $C$DW$T$145, DW_AT_name("__double_t")
    2758                            .dwattr $C$DW$T$145, DW_AT_type(*$C$DW$T$17)
    2759                            .dwattr $C$DW$T$145, DW_AT_language(DW_LANG_C)
    2760                            .dwattr $C$DW$T$145, DW_AT_decl_file("/home/pola/ti/ccsv8/tools/compiler/ti-cgt-arm_18.1.1.LTS
    2761                            .dwattr $C$DW$T$145, DW_AT_decl_line(0x4f)
    2762                            .dwattr $C$DW$T$145, DW_AT_decl_column(0x11)
    2763                    
    2764                    $C$DW$T$18      .dwtag  DW_TAG_base_type
    2765                            .dwattr $C$DW$T$18, DW_AT_encoding(DW_ATE_float)
    2766                            .dwattr $C$DW$T$18, DW_AT_name("long double")
    2767                            .dwattr $C$DW$T$18, DW_AT_byte_size(0x08)
    2768                    
    2769                    $C$DW$T$110     .dwtag  DW_TAG_base_type
    2770                            .dwattr $C$DW$T$110, DW_AT_encoding(DW_ATE_unsigned_char)
    2771                            .dwattr $C$DW$T$110, DW_AT_name("unsigned char")
    2772                            .dwattr $C$DW$T$110, DW_AT_byte_size(0x01)
    2773                    
    2774                    
    2775                    $C$DW$T$19      .dwtag  DW_TAG_structure_type
    2776                            .dwattr $C$DW$T$19, DW_AT_name("__mq")
    2777                            .dwattr $C$DW$T$19, DW_AT_declaration
    2778                            .dwattr $C$DW$T$19, DW_AT_decl_file("/home/pola/ti/ccsv8/tools/compiler/ti-cgt-arm_18.1.1.LTS/
    2779                            .dwattr $C$DW$T$19, DW_AT_decl_line(0x47)
    2780                            .dwattr $C$DW$T$19, DW_AT_decl_column(0x10)
    2781                            .dwendtag $C$DW$T$19
    2782                    
    2783                    $C$DW$T$147     .dwtag  DW_TAG_pointer_type
    2784                            .dwattr $C$DW$T$147, DW_AT_type(*$C$DW$T$19)
    2785                            .dwattr $C$DW$T$147, DW_AT_address_class(0x20)
    2786                    
    2787                    $C$DW$T$148     .dwtag  DW_TAG_typedef
    2788                            .dwattr $C$DW$T$148, DW_AT_name("__mqd_t")
    2789                            .dwattr $C$DW$T$148, DW_AT_type(*$C$DW$T$147)
    2790                            .dwattr $C$DW$T$148, DW_AT_language(DW_LANG_C)
    2791                            .dwattr $C$DW$T$148, DW_AT_decl_file("/home/pola/ti/ccsv8/tools/compiler/ti-cgt-arm_18.1.1.LTS
    2792                            .dwattr $C$DW$T$148, DW_AT_decl_line(0x47)
    2793                            .dwattr $C$DW$T$148, DW_AT_decl_column(0x16)
    2794                    
    2795                    
    2796                    $C$DW$T$20      .dwtag  DW_TAG_structure_type
    2797                            .dwattr $C$DW$T$20, DW_AT_name("__timer")
    2798                            .dwattr $C$DW$T$20, DW_AT_declaration
    2799                            .dwattr $C$DW$T$20, DW_AT_decl_file("/home/pola/ti/ccsv8/tools/compiler/ti-cgt-arm_18.1.1.LTS/
    2800                            .dwattr $C$DW$T$20, DW_AT_decl_line(0x46)
    2801                            .dwattr $C$DW$T$20, DW_AT_decl_column(0x10)
    2802                            .dwendtag $C$DW$T$20
    2803                    
    2804                    $C$DW$T$149     .dwtag  DW_TAG_pointer_type
    2805                            .dwattr $C$DW$T$149, DW_AT_type(*$C$DW$T$20)
TI ARM Assembler Unix v18.1.1 Fri Jul  3 20:08:27 2020

Tools Copyright (c) 1996-2017 Texas Instruments Incorporated
watchdog.asm                                                         PAGE   52

    2806                            .dwattr $C$DW$T$149, DW_AT_address_class(0x20)
    2807                    
    2808                    $C$DW$T$150     .dwtag  DW_TAG_typedef
    2809                            .dwattr $C$DW$T$150, DW_AT_name("__timer_t")
    2810                            .dwattr $C$DW$T$150, DW_AT_type(*$C$DW$T$149)
    2811                            .dwattr $C$DW$T$150, DW_AT_language(DW_LANG_C)
    2812                            .dwattr $C$DW$T$150, DW_AT_decl_file("/home/pola/ti/ccsv8/tools/compiler/ti-cgt-arm_18.1.1.LTS
    2813                            .dwattr $C$DW$T$150, DW_AT_decl_line(0x46)
    2814                            .dwattr $C$DW$T$150, DW_AT_decl_column(0x19)
    2815                    
    2816                    
    2817                    $C$DW$T$22      .dwtag  DW_TAG_structure_type
    2818                            .dwattr $C$DW$T$22, DW_AT_name("__va_list_t")
    2819                            .dwattr $C$DW$T$22, DW_AT_byte_size(0x04)
    2820                    $C$DW$96        .dwtag  DW_TAG_member
    2821                            .dwattr $C$DW$96, DW_AT_type(*$C$DW$T$3)
    2822                            .dwattr $C$DW$96, DW_AT_name("__ap")
    2823                            .dwattr $C$DW$96, DW_AT_TI_symbol_name("__ap")
    2824                            .dwattr $C$DW$96, DW_AT_data_member_location[DW_OP_plus_uconst 0x0]
    2825                            .dwattr $C$DW$96, DW_AT_accessibility(DW_ACCESS_public)
    2826                            .dwattr $C$DW$96, DW_AT_decl_file("/home/pola/ti/ccsv8/tools/compiler/ti-cgt-arm_18.1.1.LTS/in
    2827                            .dwattr $C$DW$96, DW_AT_decl_line(0x88)
    2828                            .dwattr $C$DW$96, DW_AT_decl_column(0x0c)
    2829                    
    2830                            .dwattr $C$DW$T$22, DW_AT_decl_file("/home/pola/ti/ccsv8/tools/compiler/ti-cgt-arm_18.1.1.LTS/
    2831                            .dwattr $C$DW$T$22, DW_AT_decl_line(0x87)
    2832                            .dwattr $C$DW$T$22, DW_AT_decl_column(0x10)
    2833                            .dwendtag $C$DW$T$22
    2834                    
    2835                    $C$DW$T$151     .dwtag  DW_TAG_typedef
    2836                            .dwattr $C$DW$T$151, DW_AT_name("__va_list")
    2837                            .dwattr $C$DW$T$151, DW_AT_type(*$C$DW$T$22)
    2838                            .dwattr $C$DW$T$151, DW_AT_language(DW_LANG_C)
    2839                            .dwattr $C$DW$T$151, DW_AT_decl_file("/home/pola/ti/ccsv8/tools/compiler/ti-cgt-arm_18.1.1.LTS
    2840                            .dwattr $C$DW$T$151, DW_AT_decl_line(0x89)
    2841                            .dwattr $C$DW$T$151, DW_AT_decl_column(0x03)
    2842                    
    2843                            .dwattr $C$DW$CU, DW_AT_language(DW_LANG_C)
    2844                    
    2845                    ;***************************************************************
    2846                    ;* DWARF CIE ENTRIES                                           *
    2847                    ;***************************************************************
    2848                    
    2849                    $C$DW$CIE       .dwcie 14
    2850                            .dwcfi  cfa_register, 13
    2851                            .dwcfi  cfa_offset, 0
    2852                            .dwcfi  same_value, 4
    2853                            .dwcfi  same_value, 5
    2854                            .dwcfi  same_value, 6
    2855                            .dwcfi  same_value, 7
    2856                            .dwcfi  same_value, 8
    2857                            .dwcfi  same_value, 9
    2858                            .dwcfi  same_value, 10
    2859                            .dwcfi  same_value, 11
    2860                            .dwcfi  same_value, 80
TI ARM Assembler Unix v18.1.1 Fri Jul  3 20:08:27 2020

Tools Copyright (c) 1996-2017 Texas Instruments Incorporated
watchdog.asm                                                         PAGE   53

    2861                            .dwcfi  same_value, 81
    2862                            .dwcfi  same_value, 82
    2863                            .dwcfi  same_value, 83
    2864                            .dwcfi  same_value, 84
    2865                            .dwcfi  same_value, 85
    2866                            .dwcfi  same_value, 86
    2867                            .dwcfi  same_value, 87
    2868                            .dwcfi  same_value, 88
    2869                            .dwcfi  same_value, 89
    2870                            .dwcfi  same_value, 90
    2871                            .dwcfi  same_value, 91
    2872                            .dwcfi  same_value, 92
    2873                            .dwcfi  same_value, 93
    2874                            .dwcfi  same_value, 94
    2875                            .dwcfi  same_value, 95
    2876                            .dwendentry
    2877                    
    2878                    ;***************************************************************
    2879                    ;* DWARF REGISTER MAP                                          *
    2880                    ;***************************************************************
    2881                    
    2882                    $C$DW$97        .dwtag  DW_TAG_TI_assign_register
    2883                            .dwattr $C$DW$97, DW_AT_name("A1")
    2884                            .dwattr $C$DW$97, DW_AT_location[DW_OP_reg0]
    2885                    
    2886                    $C$DW$98        .dwtag  DW_TAG_TI_assign_register
    2887                            .dwattr $C$DW$98, DW_AT_name("A2")
    2888                            .dwattr $C$DW$98, DW_AT_location[DW_OP_reg1]
    2889                    
    2890                    $C$DW$99        .dwtag  DW_TAG_TI_assign_register
    2891                            .dwattr $C$DW$99, DW_AT_name("A3")
    2892                            .dwattr $C$DW$99, DW_AT_location[DW_OP_reg2]
    2893                    
    2894                    $C$DW$100       .dwtag  DW_TAG_TI_assign_register
    2895                            .dwattr $C$DW$100, DW_AT_name("A4")
    2896                            .dwattr $C$DW$100, DW_AT_location[DW_OP_reg3]
    2897                    
    2898                    $C$DW$101       .dwtag  DW_TAG_TI_assign_register
    2899                            .dwattr $C$DW$101, DW_AT_name("V1")
    2900                            .dwattr $C$DW$101, DW_AT_location[DW_OP_reg4]
    2901                    
    2902                    $C$DW$102       .dwtag  DW_TAG_TI_assign_register
    2903                            .dwattr $C$DW$102, DW_AT_name("V2")
    2904                            .dwattr $C$DW$102, DW_AT_location[DW_OP_reg5]
    2905                    
    2906                    $C$DW$103       .dwtag  DW_TAG_TI_assign_register
    2907                            .dwattr $C$DW$103, DW_AT_name("V3")
    2908                            .dwattr $C$DW$103, DW_AT_location[DW_OP_reg6]
    2909                    
    2910                    $C$DW$104       .dwtag  DW_TAG_TI_assign_register
    2911                            .dwattr $C$DW$104, DW_AT_name("V4")
    2912                            .dwattr $C$DW$104, DW_AT_location[DW_OP_reg7]
    2913                    
    2914                    $C$DW$105       .dwtag  DW_TAG_TI_assign_register
    2915                            .dwattr $C$DW$105, DW_AT_name("V5")
TI ARM Assembler Unix v18.1.1 Fri Jul  3 20:08:27 2020

Tools Copyright (c) 1996-2017 Texas Instruments Incorporated
watchdog.asm                                                         PAGE   54

    2916                            .dwattr $C$DW$105, DW_AT_location[DW_OP_reg8]
    2917                    
    2918                    $C$DW$106       .dwtag  DW_TAG_TI_assign_register
    2919                            .dwattr $C$DW$106, DW_AT_name("V6")
    2920                            .dwattr $C$DW$106, DW_AT_location[DW_OP_reg9]
    2921                    
    2922                    $C$DW$107       .dwtag  DW_TAG_TI_assign_register
    2923                            .dwattr $C$DW$107, DW_AT_name("V7")
    2924                            .dwattr $C$DW$107, DW_AT_location[DW_OP_reg10]
    2925                    
    2926                    $C$DW$108       .dwtag  DW_TAG_TI_assign_register
    2927                            .dwattr $C$DW$108, DW_AT_name("V8")
    2928                            .dwattr $C$DW$108, DW_AT_location[DW_OP_reg11]
    2929                    
    2930                    $C$DW$109       .dwtag  DW_TAG_TI_assign_register
    2931                            .dwattr $C$DW$109, DW_AT_name("V9")
    2932                            .dwattr $C$DW$109, DW_AT_location[DW_OP_reg12]
    2933                    
    2934                    $C$DW$110       .dwtag  DW_TAG_TI_assign_register
    2935                            .dwattr $C$DW$110, DW_AT_name("SP")
    2936                            .dwattr $C$DW$110, DW_AT_location[DW_OP_reg13]
    2937                    
    2938                    $C$DW$111       .dwtag  DW_TAG_TI_assign_register
    2939                            .dwattr $C$DW$111, DW_AT_name("LR")
    2940                            .dwattr $C$DW$111, DW_AT_location[DW_OP_reg14]
    2941                    
    2942                    $C$DW$112       .dwtag  DW_TAG_TI_assign_register
    2943                            .dwattr $C$DW$112, DW_AT_name("PC")
    2944                            .dwattr $C$DW$112, DW_AT_location[DW_OP_reg15]
    2945                    
    2946                    $C$DW$113       .dwtag  DW_TAG_TI_assign_register
    2947                            .dwattr $C$DW$113, DW_AT_name("SR")
    2948                            .dwattr $C$DW$113, DW_AT_location[DW_OP_reg17]
    2949                    
    2950                    $C$DW$114       .dwtag  DW_TAG_TI_assign_register
    2951                            .dwattr $C$DW$114, DW_AT_name("AP")
    2952                            .dwattr $C$DW$114, DW_AT_location[DW_OP_reg7]
    2953                    
    2954                    $C$DW$115       .dwtag  DW_TAG_TI_assign_register
    2955                            .dwattr $C$DW$115, DW_AT_name("D0")
    2956                            .dwattr $C$DW$115, DW_AT_location[DW_OP_regx 0x40]
    2957                    
    2958                    $C$DW$116       .dwtag  DW_TAG_TI_assign_register
    2959                            .dwattr $C$DW$116, DW_AT_name("D0_hi")
    2960                            .dwattr $C$DW$116, DW_AT_location[DW_OP_regx 0x41]
    2961                    
    2962                    $C$DW$117       .dwtag  DW_TAG_TI_assign_register
    2963                            .dwattr $C$DW$117, DW_AT_name("D1")
    2964                            .dwattr $C$DW$117, DW_AT_location[DW_OP_regx 0x42]
    2965                    
    2966                    $C$DW$118       .dwtag  DW_TAG_TI_assign_register
    2967                            .dwattr $C$DW$118, DW_AT_name("D1_hi")
    2968                            .dwattr $C$DW$118, DW_AT_location[DW_OP_regx 0x43]
    2969                    
    2970                    $C$DW$119       .dwtag  DW_TAG_TI_assign_register
TI ARM Assembler Unix v18.1.1 Fri Jul  3 20:08:27 2020

Tools Copyright (c) 1996-2017 Texas Instruments Incorporated
watchdog.asm                                                         PAGE   55

    2971                            .dwattr $C$DW$119, DW_AT_name("D2")
    2972                            .dwattr $C$DW$119, DW_AT_location[DW_OP_regx 0x44]
    2973                    
    2974                    $C$DW$120       .dwtag  DW_TAG_TI_assign_register
    2975                            .dwattr $C$DW$120, DW_AT_name("D2_hi")
    2976                            .dwattr $C$DW$120, DW_AT_location[DW_OP_regx 0x45]
    2977                    
    2978                    $C$DW$121       .dwtag  DW_TAG_TI_assign_register
