TI ARM Assembler Unix v18.1.1 Fri Jul  3 20:08:22 2020

Tools Copyright (c) 1996-2017 Texas Instruments Incorporated
App.asm                                                              PAGE    1

       1                    ;******************************************************************************
       2                    ;* TI ARM C/C++ Codegen                                      Unix v18.1.1.LTS *
       3                    ;* Date/Time created: Fri Jul  3 20:08:22 2020                                *
       4                    ;******************************************************************************
       5                            .compiler_opts --abi=eabi --arm_vmrs_si_workaround=off --code_state=16 --diag_wrap=off --embed
       6 00000000                   .thumb
       7                    
       8                    $C$DW$CU        .dwtag  DW_TAG_compile_unit
       9                            .dwattr $C$DW$CU, DW_AT_name("../OS/App.c")
      10                            .dwattr $C$DW$CU, DW_AT_producer("TI TI ARM C/C++ Codegen Unix v18.1.1.LTS Copyright (c) 1996-
      11                            .dwattr $C$DW$CU, DW_AT_TI_version(0x01)
      12                            .dwattr $C$DW$CU, DW_AT_comp_dir("/home/pola/workspace_v8/Microwave/Debug")
      13 00000000           xIdleTaskTCB$1: .usect  ".bss:xIdleTaskTCB$1",88,4
      14                            .clink ".bss:xIdleTaskTCB$1"
      15 00000000           uxIdleTaskStack$2:      .usect  ".bss:uxIdleTaskStack$2",400,4
      16                            .clink ".bss:uxIdleTaskStack$2"
      17 00000000           xTimerTaskTCB$3:        .usect  ".bss:xTimerTaskTCB$3",88,4
      18                            .clink ".bss:xTimerTaskTCB$3"
      19 00000000           uxTimerTaskStack$4:     .usect  ".bss:uxTimerTaskStack$4",400,4
      20                            .clink ".bss:uxTimerTaskStack$4"
      21                    ;       /home/pola/ti/ccsv8/tools/compiler/ti-cgt-arm_18.1.1.LTS/bin/armacpia -@/tmp/TI3LJxZbplb 
      22 00000000                   .sect   ".text"
      23                            .clink
      24                            .thumbfunc vApplicationGetIdleTaskMemory
      25 00000000                   .thumb
      26                            .global vApplicationGetIdleTaskMemory
      27                    
      28                    $C$DW$1 .dwtag  DW_TAG_subprogram
      29                            .dwattr $C$DW$1, DW_AT_name("vApplicationGetIdleTaskMemory")
      30                            .dwattr $C$DW$1, DW_AT_low_pc(vApplicationGetIdleTaskMemory)
      31                            .dwattr $C$DW$1, DW_AT_high_pc(0x00)
      32                            .dwattr $C$DW$1, DW_AT_TI_symbol_name("vApplicationGetIdleTaskMemory")
      33                            .dwattr $C$DW$1, DW_AT_external
      34                            .dwattr $C$DW$1, DW_AT_TI_begin_file("../OS/App.c")
      35                            .dwattr $C$DW$1, DW_AT_TI_begin_line(0x0f)
      36                            .dwattr $C$DW$1, DW_AT_TI_begin_column(0x06)
      37                            .dwattr $C$DW$1, DW_AT_decl_file("../OS/App.c")
      38                            .dwattr $C$DW$1, DW_AT_decl_line(0x0f)
      39                            .dwattr $C$DW$1, DW_AT_decl_column(0x06)
      40                            .dwattr $C$DW$1, DW_AT_TI_max_frame_size(0x10)
      41                            .dwpsn  file "../OS/App.c",line 18,column 1,is_stmt,address vApplicationGetIdleTaskMemory,isa 
      42                    
      43                            .dwfde $C$DW$CIE, vApplicationGetIdleTaskMemory
      44                    $C$DW$2 .dwtag  DW_TAG_variable
      45                            .dwattr $C$DW$2, DW_AT_name("xIdleTaskTCB")
      46                            .dwattr $C$DW$2, DW_AT_TI_symbol_name("xIdleTaskTCB$1")
      47                            .dwattr $C$DW$2, DW_AT_type(*$C$DW$T$65)
      48                            .dwattr $C$DW$2, DW_AT_location[DW_OP_addr xIdleTaskTCB$1]
      49                    
      50                    $C$DW$3 .dwtag  DW_TAG_variable
      51                            .dwattr $C$DW$3, DW_AT_name("uxIdleTaskStack")
      52                            .dwattr $C$DW$3, DW_AT_TI_symbol_name("uxIdleTaskStack$2")
      53                            .dwattr $C$DW$3, DW_AT_type(*$C$DW$T$157)
      54                            .dwattr $C$DW$3, DW_AT_location[DW_OP_addr uxIdleTaskStack$2]
      55                    
TI ARM Assembler Unix v18.1.1 Fri Jul  3 20:08:22 2020

Tools Copyright (c) 1996-2017 Texas Instruments Incorporated
App.asm                                                              PAGE    2

      56                    $C$DW$4 .dwtag  DW_TAG_formal_parameter
      57                            .dwattr $C$DW$4, DW_AT_name("ppxIdleTaskTCBBuffer")
      58                            .dwattr $C$DW$4, DW_AT_TI_symbol_name("ppxIdleTaskTCBBuffer")
      59                            .dwattr $C$DW$4, DW_AT_type(*$C$DW$T$67)
      60                            .dwattr $C$DW$4, DW_AT_location[DW_OP_reg0]
      61                    
      62                    $C$DW$5 .dwtag  DW_TAG_formal_parameter
      63                            .dwattr $C$DW$5, DW_AT_name("ppxIdleTaskStackBuffer")
      64                            .dwattr $C$DW$5, DW_AT_TI_symbol_name("ppxIdleTaskStackBuffer")
      65                            .dwattr $C$DW$5, DW_AT_type(*$C$DW$T$70)
      66                            .dwattr $C$DW$5, DW_AT_location[DW_OP_reg1]
      67                    
      68                    $C$DW$6 .dwtag  DW_TAG_formal_parameter
      69                            .dwattr $C$DW$6, DW_AT_name("pulIdleTaskStackSize")
      70                            .dwattr $C$DW$6, DW_AT_TI_symbol_name("pulIdleTaskStackSize")
      71                            .dwattr $C$DW$6, DW_AT_type(*$C$DW$T$71)
      72                            .dwattr $C$DW$6, DW_AT_location[DW_OP_reg2]
      73                    
      74                    ;----------------------------------------------------------------------
      75                    ;  15 | void vApplicationGetIdleTaskMemory( StaticTask_t **ppxIdleTaskTCBBuffer
      76                    ;     | ,                                                                      
      77                    ;  16 | StackType_t **ppxIdleTaskStackBuffer,                                  
      78                    ;  17 | uint32_t *pulIdleTaskStackSize )                                       
      79                    ;----------------------------------------------------------------------
      80                    
      81                    ;*****************************************************************************
      82                    ;* FUNCTION NAME: vApplicationGetIdleTaskMemory                              *
      83                    ;*                                                                           *
      84                    ;*   Regs Modified     : A1,A2,SP,SR                                         *
      85                    ;*   Regs Used         : A1,A2,A3,SP,LR,SR                                   *
      86                    ;*   Local Frame Size  : 0 Args + 12 Auto + 0 Save = 12 byte                 *
      87                    ;*****************************************************************************
      88 00000000           vApplicationGetIdleTaskMemory:
      89                    ;* --------------------------------------------------------------------------*
      90                            .dwcfi  cfa_offset, 0
      91 00000000 0D10F1AD          SUB       SP, SP, #16           ; [DPU_V7M3_PIPE]  ; [KEEP 32-BIT INS]
      92                            .dwcfi  cfa_offset, 16
      93                    $C$DW$7 .dwtag  DW_TAG_variable
      94                            .dwattr $C$DW$7, DW_AT_name("ppxIdleTaskTCBBuffer")
      95                            .dwattr $C$DW$7, DW_AT_TI_symbol_name("ppxIdleTaskTCBBuffer")
      96                            .dwattr $C$DW$7, DW_AT_type(*$C$DW$T$67)
      97                            .dwattr $C$DW$7, DW_AT_location[DW_OP_breg13 0]
      98                    
      99                    $C$DW$8 .dwtag  DW_TAG_variable
     100                            .dwattr $C$DW$8, DW_AT_name("ppxIdleTaskStackBuffer")
     101                            .dwattr $C$DW$8, DW_AT_TI_symbol_name("ppxIdleTaskStackBuffer")
     102                            .dwattr $C$DW$8, DW_AT_type(*$C$DW$T$70)
     103                            .dwattr $C$DW$8, DW_AT_location[DW_OP_breg13 4]
     104                    
     105                    $C$DW$9 .dwtag  DW_TAG_variable
     106                            .dwattr $C$DW$9, DW_AT_name("pulIdleTaskStackSize")
     107                            .dwattr $C$DW$9, DW_AT_TI_symbol_name("pulIdleTaskStackSize")
     108                            .dwattr $C$DW$9, DW_AT_type(*$C$DW$T$71)
     109                            .dwattr $C$DW$9, DW_AT_location[DW_OP_breg13 8]
     110                    
TI ARM Assembler Unix v18.1.1 Fri Jul  3 20:08:22 2020

Tools Copyright (c) 1996-2017 Texas Instruments Incorporated
App.asm                                                              PAGE    3

     111                    ;----------------------------------------------------------------------
     112                    ;  22 | static StaticTask_t xIdleTaskTCB;                                      
     113                    ;  23 | static StackType_t uxIdleTaskStack[ configMINIMAL_STACK_SIZE ];        
     114                    ;----------------------------------------------------------------------
     115 00000004 9202              STR       A3, [SP, #8]          ; [DPU_V7M3_PIPE] |18|  ; [ORIG 16-BIT INS]
     116 00000006 9101              STR       A2, [SP, #4]          ; [DPU_V7M3_PIPE] |18|  ; [ORIG 16-BIT INS]
     117 00000008 9000              STR       A1, [SP, #0]          ; [DPU_V7M3_PIPE] |18|  ; [ORIG 16-BIT INS]
     118                            .dwpsn  file "../OS/App.c",line 27,column 5,is_stmt,isa 1
     119                    ;----------------------------------------------------------------------
     120                    ;  27 | *ppxIdleTaskTCBBuffer = &xIdleTaskTCB;                                 
     121                    ;----------------------------------------------------------------------
     122 0000000a 490D              LDR       A2, $C$CON1           ; [DPU_V7M3_PIPE] |27|  ; [ORIG 16-BIT INS]
     123 0000000c 9800              LDR       A1, [SP, #0]          ; [DPU_V7M3_PIPE] |27|  ; [ORIG 16-BIT INS]
     124 0000000e 6001              STR       A2, [A1, #0]          ; [DPU_V7M3_PIPE] |27|  ; [ORIG 16-BIT INS]
     125                            .dwpsn  file "../OS/App.c",line 30,column 5,is_stmt,isa 1
     126                    ;----------------------------------------------------------------------
     127                    ;  30 | *ppxIdleTaskStackBuffer = uxIdleTaskStack;                             
     128                    ;----------------------------------------------------------------------
     129 00000010 490C              LDR       A2, $C$CON2           ; [DPU_V7M3_PIPE] |30|  ; [ORIG 16-BIT INS]
     130 00000012 9801              LDR       A1, [SP, #4]          ; [DPU_V7M3_PIPE] |30|  ; [ORIG 16-BIT INS]
     131 00000014 6001              STR       A2, [A1, #0]          ; [DPU_V7M3_PIPE] |30|  ; [ORIG 16-BIT INS]
     132                            .dwpsn  file "../OS/App.c",line 35,column 5,is_stmt,isa 1
     133                    ;----------------------------------------------------------------------
     134                    ;  35 | *pulIdleTaskStackSize = configMINIMAL_STACK_SIZE;                      
     135                    ;----------------------------------------------------------------------
     136 00000016 9802              LDR       A1, [SP, #8]          ; [DPU_V7M3_PIPE] |35|  ; [ORIG 16-BIT INS]
     137 00000018 2164              MOVS      A2, #100              ; [DPU_V7M3_PIPE] |35|  ; [ORIG 16-BIT INS]
     138 0000001a 6001              STR       A2, [A1, #0]          ; [DPU_V7M3_PIPE] |35|  ; [ORIG 16-BIT INS]
     139                            .dwpsn  file "../OS/App.c",line 36,column 1,is_stmt,isa 1
     140 0000001c B004              ADD       SP, SP, #16           ; [DPU_V7M3_PIPE]  ; [ORIG 16-BIT INS]
     141                            .dwcfi  cfa_offset, 0
     142                    $C$DW$10        .dwtag  DW_TAG_TI_branch
     143                            .dwattr $C$DW$10, DW_AT_low_pc(0x00)
     144                            .dwattr $C$DW$10, DW_AT_TI_return
     145                    
     146 0000001e 4770              BX        LR                    ; [DPU_V7M3_PIPE]  ; [ORIG 16-BIT INS]
     147                            ; BRANCH OCCURS                  ; [] 
     148                            .dwattr $C$DW$1, DW_AT_TI_end_file("../OS/App.c")
     149                            .dwattr $C$DW$1, DW_AT_TI_end_line(0x24)
     150                            .dwattr $C$DW$1, DW_AT_TI_end_column(0x01)
     151                            .dwendentry
     152                            .dwendtag $C$DW$1
     153                    
     154 00000020                   .sect   ".text"
     155                            .clink
     156                            .thumbfunc vApplicationGetTimerTaskMemory
     157 00000020                   .thumb
     158                            .global vApplicationGetTimerTaskMemory
     159                    
     160                    $C$DW$11        .dwtag  DW_TAG_subprogram
     161                            .dwattr $C$DW$11, DW_AT_name("vApplicationGetTimerTaskMemory")
     162                            .dwattr $C$DW$11, DW_AT_low_pc(vApplicationGetTimerTaskMemory)
     163                            .dwattr $C$DW$11, DW_AT_high_pc(0x00)
     164                            .dwattr $C$DW$11, DW_AT_TI_symbol_name("vApplicationGetTimerTaskMemory")
     165                            .dwattr $C$DW$11, DW_AT_external
TI ARM Assembler Unix v18.1.1 Fri Jul  3 20:08:22 2020

Tools Copyright (c) 1996-2017 Texas Instruments Incorporated
App.asm                                                              PAGE    4

     166                            .dwattr $C$DW$11, DW_AT_TI_begin_file("../OS/App.c")
     167                            .dwattr $C$DW$11, DW_AT_TI_begin_line(0x2a)
     168                            .dwattr $C$DW$11, DW_AT_TI_begin_column(0x06)
     169                            .dwattr $C$DW$11, DW_AT_decl_file("../OS/App.c")
     170                            .dwattr $C$DW$11, DW_AT_decl_line(0x2a)
     171                            .dwattr $C$DW$11, DW_AT_decl_column(0x06)
     172                            .dwattr $C$DW$11, DW_AT_TI_max_frame_size(0x10)
     173                            .dwpsn  file "../OS/App.c",line 45,column 1,is_stmt,address vApplicationGetTimerTaskMemory,isa
     174                    
     175                            .dwfde $C$DW$CIE, vApplicationGetTimerTaskMemory
     176                    $C$DW$12        .dwtag  DW_TAG_variable
     177                            .dwattr $C$DW$12, DW_AT_name("xTimerTaskTCB")
     178                            .dwattr $C$DW$12, DW_AT_TI_symbol_name("xTimerTaskTCB$3")
     179                            .dwattr $C$DW$12, DW_AT_type(*$C$DW$T$65)
     180                            .dwattr $C$DW$12, DW_AT_location[DW_OP_addr xTimerTaskTCB$3]
     181                    
     182                    $C$DW$13        .dwtag  DW_TAG_variable
     183                            .dwattr $C$DW$13, DW_AT_name("uxTimerTaskStack")
     184                            .dwattr $C$DW$13, DW_AT_TI_symbol_name("uxTimerTaskStack$4")
     185                            .dwattr $C$DW$13, DW_AT_type(*$C$DW$T$157)
     186                            .dwattr $C$DW$13, DW_AT_location[DW_OP_addr uxTimerTaskStack$4]
     187                    
     188                    $C$DW$14        .dwtag  DW_TAG_formal_parameter
     189                            .dwattr $C$DW$14, DW_AT_name("ppxTimerTaskTCBBuffer")
     190                            .dwattr $C$DW$14, DW_AT_TI_symbol_name("ppxTimerTaskTCBBuffer")
     191                            .dwattr $C$DW$14, DW_AT_type(*$C$DW$T$67)
     192                            .dwattr $C$DW$14, DW_AT_location[DW_OP_reg0]
     193                    
     194                    $C$DW$15        .dwtag  DW_TAG_formal_parameter
     195                            .dwattr $C$DW$15, DW_AT_name("ppxTimerTaskStackBuffer")
     196                            .dwattr $C$DW$15, DW_AT_TI_symbol_name("ppxTimerTaskStackBuffer")
     197                            .dwattr $C$DW$15, DW_AT_type(*$C$DW$T$70)
     198                            .dwattr $C$DW$15, DW_AT_location[DW_OP_reg1]
     199                    
     200                    $C$DW$16        .dwtag  DW_TAG_formal_parameter
     201                            .dwattr $C$DW$16, DW_AT_name("pulTimerTaskStackSize")
     202                            .dwattr $C$DW$16, DW_AT_TI_symbol_name("pulTimerTaskStackSize")
     203                            .dwattr $C$DW$16, DW_AT_type(*$C$DW$T$71)
     204                            .dwattr $C$DW$16, DW_AT_location[DW_OP_reg2]
     205                    
     206                    ;----------------------------------------------------------------------
     207                    ;  42 | void vApplicationGetTimerTaskMemory( StaticTask_t **ppxTimerTaskTCBBuff
     208                    ;     | er,                                                                    
     209                    ;  43 | StackType_t **ppxTimerTaskStackBuffer,                                 
     210                    ;  44 | uint32_t *pulTimerTaskStackSize )                                      
     211                    ;----------------------------------------------------------------------
     212                    
     213                    ;*****************************************************************************
     214                    ;* FUNCTION NAME: vApplicationGetTimerTaskMemory                             *
     215                    ;*                                                                           *
     216                    ;*   Regs Modified     : A1,A2,SP,SR                                         *
     217                    ;*   Regs Used         : A1,A2,A3,SP,LR,SR                                   *
     218                    ;*   Local Frame Size  : 0 Args + 12 Auto + 0 Save = 12 byte                 *
     219                    ;*****************************************************************************
     220 00000020           vApplicationGetTimerTaskMemory:
TI ARM Assembler Unix v18.1.1 Fri Jul  3 20:08:22 2020

Tools Copyright (c) 1996-2017 Texas Instruments Incorporated
App.asm                                                              PAGE    5

     221                    ;* --------------------------------------------------------------------------*
     222                            .dwcfi  cfa_offset, 0
     223 00000020 0D10F1AD          SUB       SP, SP, #16           ; [DPU_V7M3_PIPE]  ; [KEEP 32-BIT INS]
     224                            .dwcfi  cfa_offset, 16
     225                    $C$DW$17        .dwtag  DW_TAG_variable
     226                            .dwattr $C$DW$17, DW_AT_name("ppxTimerTaskTCBBuffer")
     227                            .dwattr $C$DW$17, DW_AT_TI_symbol_name("ppxTimerTaskTCBBuffer")
     228                            .dwattr $C$DW$17, DW_AT_type(*$C$DW$T$67)
     229                            .dwattr $C$DW$17, DW_AT_location[DW_OP_breg13 0]
     230                    
     231                    $C$DW$18        .dwtag  DW_TAG_variable
     232                            .dwattr $C$DW$18, DW_AT_name("ppxTimerTaskStackBuffer")
     233                            .dwattr $C$DW$18, DW_AT_TI_symbol_name("ppxTimerTaskStackBuffer")
     234                            .dwattr $C$DW$18, DW_AT_type(*$C$DW$T$70)
     235                            .dwattr $C$DW$18, DW_AT_location[DW_OP_breg13 4]
     236                    
     237                    $C$DW$19        .dwtag  DW_TAG_variable
     238                            .dwattr $C$DW$19, DW_AT_name("pulTimerTaskStackSize")
     239                            .dwattr $C$DW$19, DW_AT_TI_symbol_name("pulTimerTaskStackSize")
     240                            .dwattr $C$DW$19, DW_AT_type(*$C$DW$T$71)
     241                            .dwattr $C$DW$19, DW_AT_location[DW_OP_breg13 8]
     242                    
     243                    ;----------------------------------------------------------------------
     244                    ;  49 | static StaticTask_t xTimerTaskTCB;                                     
     245                    ;  50 | static StackType_t uxTimerTaskStack[ configTIMER_TASK_STACK_DEPTH ];   
     246                    ;----------------------------------------------------------------------
     247 00000024 9202              STR       A3, [SP, #8]          ; [DPU_V7M3_PIPE] |45|  ; [ORIG 16-BIT INS]
     248 00000026 9101              STR       A2, [SP, #4]          ; [DPU_V7M3_PIPE] |45|  ; [ORIG 16-BIT INS]
     249 00000028 9000              STR       A1, [SP, #0]          ; [DPU_V7M3_PIPE] |45|  ; [ORIG 16-BIT INS]
     250                            .dwpsn  file "../OS/App.c",line 54,column 5,is_stmt,isa 1
     251                    ;----------------------------------------------------------------------
     252                    ;  54 | *ppxTimerTaskTCBBuffer = &xTimerTaskTCB;                               
     253                    ;----------------------------------------------------------------------
     254 0000002a 4907              LDR       A2, $C$CON3           ; [DPU_V7M3_PIPE] |54|  ; [ORIG 16-BIT INS]
     255 0000002c 9800              LDR       A1, [SP, #0]          ; [DPU_V7M3_PIPE] |54|  ; [ORIG 16-BIT INS]
     256 0000002e 6001              STR       A2, [A1, #0]          ; [DPU_V7M3_PIPE] |54|  ; [ORIG 16-BIT INS]
     257                            .dwpsn  file "../OS/App.c",line 57,column 5,is_stmt,isa 1
     258                    ;----------------------------------------------------------------------
     259                    ;  57 | *ppxTimerTaskStackBuffer = uxTimerTaskStack;                           
     260                    ;----------------------------------------------------------------------
     261 00000030 4906              LDR       A2, $C$CON4           ; [DPU_V7M3_PIPE] |57|  ; [ORIG 16-BIT INS]
     262 00000032 9801              LDR       A1, [SP, #4]          ; [DPU_V7M3_PIPE] |57|  ; [ORIG 16-BIT INS]
     263 00000034 6001              STR       A2, [A1, #0]          ; [DPU_V7M3_PIPE] |57|  ; [ORIG 16-BIT INS]
     264                            .dwpsn  file "../OS/App.c",line 62,column 5,is_stmt,isa 1
     265                    ;----------------------------------------------------------------------
     266                    ;  62 | *pulTimerTaskStackSize = configTIMER_TASK_STACK_DEPTH;                 
     267                    ;----------------------------------------------------------------------
     268 00000036 9802              LDR       A1, [SP, #8]          ; [DPU_V7M3_PIPE] |62|  ; [ORIG 16-BIT INS]
     269 00000038 2164              MOVS      A2, #100              ; [DPU_V7M3_PIPE] |62|  ; [ORIG 16-BIT INS]
     270 0000003a 6001              STR       A2, [A1, #0]          ; [DPU_V7M3_PIPE] |62|  ; [ORIG 16-BIT INS]
     271                            .dwpsn  file "../OS/App.c",line 63,column 1,is_stmt,isa 1
     272 0000003c B004              ADD       SP, SP, #16           ; [DPU_V7M3_PIPE]  ; [ORIG 16-BIT INS]
     273                            .dwcfi  cfa_offset, 0
     274                    $C$DW$20        .dwtag  DW_TAG_TI_branch
     275                            .dwattr $C$DW$20, DW_AT_low_pc(0x00)
TI ARM Assembler Unix v18.1.1 Fri Jul  3 20:08:22 2020

Tools Copyright (c) 1996-2017 Texas Instruments Incorporated
App.asm                                                              PAGE    6

     276                            .dwattr $C$DW$20, DW_AT_TI_return
     277                    
     278 0000003e 4770              BX        LR                    ; [DPU_V7M3_PIPE]  ; [ORIG 16-BIT INS]
     279                            ; BRANCH OCCURS                  ; [] 
     280                            .dwattr $C$DW$11, DW_AT_TI_end_file("../OS/App.c")
     281                            .dwattr $C$DW$11, DW_AT_TI_end_line(0x3f)
     282                            .dwattr $C$DW$11, DW_AT_TI_end_column(0x01)
     283                            .dwendentry
     284                            .dwendtag $C$DW$11
     285                    
     286                    ;******************************************************************************
     287                    ;* CONSTANT TABLE                                                             *
     288                    ;******************************************************************************
     289 00000040                   .sect   ".text"
     290                            .align  4
     291 00000040 00000000! ||$C$CON1||:    .bits   xIdleTaskTCB$1,32
     292                            .align  4
     293 00000044 00000000! ||$C$CON2||:    .bits   uxIdleTaskStack$2,32
     294                            .align  4
     295 00000048 00000000! ||$C$CON3||:    .bits   xTimerTaskTCB$3,32
     296                            .align  4
     297 0000004c 00000000! ||$C$CON4||:    .bits   uxTimerTaskStack$4,32
     298                    
     299                    ;******************************************************************************
     300                    ;* BUILD ATTRIBUTES                                                           *
     301                    ;******************************************************************************
     302                            .battr "aeabi", Tag_File, 1, Tag_ABI_PCS_wchar_t(2)
     303                            .battr "aeabi", Tag_File, 1, Tag_ABI_FP_rounding(0)
     304                            .battr "aeabi", Tag_File, 1, Tag_ABI_FP_denormal(0)
     305                            .battr "aeabi", Tag_File, 1, Tag_ABI_FP_exceptions(0)
     306                            .battr "aeabi", Tag_File, 1, Tag_ABI_FP_number_model(1)
     307                            .battr "aeabi", Tag_File, 1, Tag_ABI_enum_size(0)
     308                            .battr "aeabi", Tag_File, 1, Tag_ABI_optimization_goals(5)
     309                            .battr "aeabi", Tag_File, 1, Tag_ABI_FP_optimization_goals(0)
     310                            .battr "TI", Tag_File, 1, Tag_Bitfield_layout(2)
     311                            .battr "aeabi", Tag_File, 1, Tag_ABI_VFP_args(3)
     312                            .battr "TI", Tag_File, 1, Tag_FP_interface(1)
     313                    
     314                    ;******************************************************************************
     315                    ;* TYPE INFORMATION                                                           *
     316                    ;******************************************************************************
     317                    
     318                    $C$DW$T$21      .dwtag  DW_TAG_structure_type
     319                            .dwattr $C$DW$T$21, DW_AT_byte_size(0x10)
     320                    $C$DW$21        .dwtag  DW_TAG_member
     321                            .dwattr $C$DW$21, DW_AT_type(*$C$DW$T$14)
     322                            .dwattr $C$DW$21, DW_AT_name("__max_align1")
     323                            .dwattr $C$DW$21, DW_AT_TI_symbol_name("__max_align1")
     324                            .dwattr $C$DW$21, DW_AT_data_member_location[DW_OP_plus_uconst 0x0]
     325                            .dwattr $C$DW$21, DW_AT_accessibility(DW_ACCESS_public)
     326                            .dwattr $C$DW$21, DW_AT_decl_file("/home/pola/ti/ccsv8/tools/compiler/ti-cgt-arm_18.1.1.LTS/in
     327                            .dwattr $C$DW$21, DW_AT_decl_line(0x70)
     328                            .dwattr $C$DW$21, DW_AT_decl_column(0x0c)
     329                    
     330                    $C$DW$22        .dwtag  DW_TAG_member
TI ARM Assembler Unix v18.1.1 Fri Jul  3 20:08:22 2020

Tools Copyright (c) 1996-2017 Texas Instruments Incorporated
App.asm                                                              PAGE    7

     331                            .dwattr $C$DW$22, DW_AT_type(*$C$DW$T$18)
     332                            .dwattr $C$DW$22, DW_AT_name("__max_align2")
     333                            .dwattr $C$DW$22, DW_AT_TI_symbol_name("__max_align2")
     334                            .dwattr $C$DW$22, DW_AT_data_member_location[DW_OP_plus_uconst 0x8]
     335                            .dwattr $C$DW$22, DW_AT_accessibility(DW_ACCESS_public)
     336                            .dwattr $C$DW$22, DW_AT_decl_file("/home/pola/ti/ccsv8/tools/compiler/ti-cgt-arm_18.1.1.LTS/in
     337                            .dwattr $C$DW$22, DW_AT_decl_line(0x71)
     338                            .dwattr $C$DW$22, DW_AT_decl_column(0x0e)
     339                    
     340                            .dwattr $C$DW$T$21, DW_AT_decl_file("/home/pola/ti/ccsv8/tools/compiler/ti-cgt-arm_18.1.1.LTS/
     341                            .dwattr $C$DW$T$21, DW_AT_decl_line(0x6f)
     342                            .dwattr $C$DW$T$21, DW_AT_decl_column(0x10)
     343                            .dwendtag $C$DW$T$21
     344                    
     345                    $C$DW$T$60      .dwtag  DW_TAG_typedef
     346                            .dwattr $C$DW$T$60, DW_AT_name("__max_align_t")
     347                            .dwattr $C$DW$T$60, DW_AT_type(*$C$DW$T$21)
     348                            .dwattr $C$DW$T$60, DW_AT_language(DW_LANG_C)
     349                            .dwattr $C$DW$T$60, DW_AT_decl_file("/home/pola/ti/ccsv8/tools/compiler/ti-cgt-arm_18.1.1.LTS/
     350                            .dwattr $C$DW$T$60, DW_AT_decl_line(0x72)
     351                            .dwattr $C$DW$T$60, DW_AT_decl_column(0x03)
     352                    
     353                    
     354                    $C$DW$T$22      .dwtag  DW_TAG_structure_type
     355                            .dwattr $C$DW$T$22, DW_AT_byte_size(0x08)
     356                    $C$DW$23        .dwtag  DW_TAG_member
     357                            .dwattr $C$DW$23, DW_AT_type(*$C$DW$T$10)
     358                            .dwattr $C$DW$23, DW_AT_name("quot")
     359                            .dwattr $C$DW$23, DW_AT_TI_symbol_name("quot")
     360                            .dwattr $C$DW$23, DW_AT_data_member_location[DW_OP_plus_uconst 0x0]
     361                            .dwattr $C$DW$23, DW_AT_accessibility(DW_ACCESS_public)
     362                            .dwattr $C$DW$23, DW_AT_decl_file("/home/pola/ti/ccsv8/tools/compiler/ti-cgt-arm_18.1.1.LTS/in
     363                            .dwattr $C$DW$23, DW_AT_decl_line(0x49)
     364                            .dwattr $C$DW$23, DW_AT_decl_column(0x16)
     365                    
     366                    $C$DW$24        .dwtag  DW_TAG_member
     367                            .dwattr $C$DW$24, DW_AT_type(*$C$DW$T$10)
     368                            .dwattr $C$DW$24, DW_AT_name("rem")
     369                            .dwattr $C$DW$24, DW_AT_TI_symbol_name("rem")
     370                            .dwattr $C$DW$24, DW_AT_data_member_location[DW_OP_plus_uconst 0x4]
     371                            .dwattr $C$DW$24, DW_AT_accessibility(DW_ACCESS_public)
     372                            .dwattr $C$DW$24, DW_AT_decl_file("/home/pola/ti/ccsv8/tools/compiler/ti-cgt-arm_18.1.1.LTS/in
     373                            .dwattr $C$DW$24, DW_AT_decl_line(0x49)
     374                            .dwattr $C$DW$24, DW_AT_decl_column(0x1c)
     375                    
     376                            .dwattr $C$DW$T$22, DW_AT_decl_file("/home/pola/ti/ccsv8/tools/compiler/ti-cgt-arm_18.1.1.LTS/
     377                            .dwattr $C$DW$T$22, DW_AT_decl_line(0x49)
     378                            .dwattr $C$DW$T$22, DW_AT_decl_column(0x10)
     379                            .dwendtag $C$DW$T$22
     380                    
     381                    $C$DW$T$61      .dwtag  DW_TAG_typedef
     382                            .dwattr $C$DW$T$61, DW_AT_name("div_t")
     383                            .dwattr $C$DW$T$61, DW_AT_type(*$C$DW$T$22)
     384                            .dwattr $C$DW$T$61, DW_AT_language(DW_LANG_C)
     385                            .dwattr $C$DW$T$61, DW_AT_decl_file("/home/pola/ti/ccsv8/tools/compiler/ti-cgt-arm_18.1.1.LTS/
TI ARM Assembler Unix v18.1.1 Fri Jul  3 20:08:22 2020

Tools Copyright (c) 1996-2017 Texas Instruments Incorporated
App.asm                                                              PAGE    8

     386                            .dwattr $C$DW$T$61, DW_AT_decl_line(0x49)
     387                            .dwattr $C$DW$T$61, DW_AT_decl_column(0x23)
     388                    
     389                    
     390                    $C$DW$T$23      .dwtag  DW_TAG_structure_type
     391                            .dwattr $C$DW$T$23, DW_AT_byte_size(0x08)
     392                    $C$DW$25        .dwtag  DW_TAG_member
     393                            .dwattr $C$DW$25, DW_AT_type(*$C$DW$T$10)
     394                            .dwattr $C$DW$25, DW_AT_name("quot")
     395                            .dwattr $C$DW$25, DW_AT_TI_symbol_name("quot")
     396                            .dwattr $C$DW$25, DW_AT_data_member_location[DW_OP_plus_uconst 0x0]
     397                            .dwattr $C$DW$25, DW_AT_accessibility(DW_ACCESS_public)
     398                            .dwattr $C$DW$25, DW_AT_decl_file("/home/pola/ti/ccsv8/tools/compiler/ti-cgt-arm_18.1.1.LTS/in
     399                            .dwattr $C$DW$25, DW_AT_decl_line(0x4e)
     400                            .dwattr $C$DW$25, DW_AT_decl_column(0x16)
     401                    
     402                    $C$DW$26        .dwtag  DW_TAG_member
     403                            .dwattr $C$DW$26, DW_AT_type(*$C$DW$T$10)
     404                            .dwattr $C$DW$26, DW_AT_name("rem")
     405                            .dwattr $C$DW$26, DW_AT_TI_symbol_name("rem")
     406                            .dwattr $C$DW$26, DW_AT_data_member_location[DW_OP_plus_uconst 0x4]
     407                            .dwattr $C$DW$26, DW_AT_accessibility(DW_ACCESS_public)
     408                            .dwattr $C$DW$26, DW_AT_decl_file("/home/pola/ti/ccsv8/tools/compiler/ti-cgt-arm_18.1.1.LTS/in
     409                            .dwattr $C$DW$26, DW_AT_decl_line(0x4e)
     410                            .dwattr $C$DW$26, DW_AT_decl_column(0x1c)
     411                    
     412                            .dwattr $C$DW$T$23, DW_AT_decl_file("/home/pola/ti/ccsv8/tools/compiler/ti-cgt-arm_18.1.1.LTS/
     413                            .dwattr $C$DW$T$23, DW_AT_decl_line(0x4e)
     414                            .dwattr $C$DW$T$23, DW_AT_decl_column(0x10)
     415                            .dwendtag $C$DW$T$23
     416                    
     417                    $C$DW$T$62      .dwtag  DW_TAG_typedef
     418                            .dwattr $C$DW$T$62, DW_AT_name("ldiv_t")
     419                            .dwattr $C$DW$T$62, DW_AT_type(*$C$DW$T$23)
     420                            .dwattr $C$DW$T$62, DW_AT_language(DW_LANG_C)
     421                            .dwattr $C$DW$T$62, DW_AT_decl_file("/home/pola/ti/ccsv8/tools/compiler/ti-cgt-arm_18.1.1.LTS/
     422                            .dwattr $C$DW$T$62, DW_AT_decl_line(0x4e)
     423                            .dwattr $C$DW$T$62, DW_AT_decl_column(0x23)
     424                    
     425                    
     426                    $C$DW$T$24      .dwtag  DW_TAG_structure_type
     427                            .dwattr $C$DW$T$24, DW_AT_byte_size(0x10)
     428                    $C$DW$27        .dwtag  DW_TAG_member
     429                            .dwattr $C$DW$27, DW_AT_type(*$C$DW$T$14)
     430                            .dwattr $C$DW$27, DW_AT_name("quot")
     431                            .dwattr $C$DW$27, DW_AT_TI_symbol_name("quot")
     432                            .dwattr $C$DW$27, DW_AT_data_member_location[DW_OP_plus_uconst 0x0]
     433                            .dwattr $C$DW$27, DW_AT_accessibility(DW_ACCESS_public)
     434                            .dwattr $C$DW$27, DW_AT_decl_file("/home/pola/ti/ccsv8/tools/compiler/ti-cgt-arm_18.1.1.LTS/in
     435                            .dwattr $C$DW$27, DW_AT_decl_line(0x56)
     436                            .dwattr $C$DW$27, DW_AT_decl_column(0x1c)
     437                    
     438                    $C$DW$28        .dwtag  DW_TAG_member
     439                            .dwattr $C$DW$28, DW_AT_type(*$C$DW$T$14)
     440                            .dwattr $C$DW$28, DW_AT_name("rem")
TI ARM Assembler Unix v18.1.1 Fri Jul  3 20:08:22 2020

Tools Copyright (c) 1996-2017 Texas Instruments Incorporated
App.asm                                                              PAGE    9

     441                            .dwattr $C$DW$28, DW_AT_TI_symbol_name("rem")
     442                            .dwattr $C$DW$28, DW_AT_data_member_location[DW_OP_plus_uconst 0x8]
     443                            .dwattr $C$DW$28, DW_AT_accessibility(DW_ACCESS_public)
     444                            .dwattr $C$DW$28, DW_AT_decl_file("/home/pola/ti/ccsv8/tools/compiler/ti-cgt-arm_18.1.1.LTS/in
     445                            .dwattr $C$DW$28, DW_AT_decl_line(0x56)
     446                            .dwattr $C$DW$28, DW_AT_decl_column(0x22)
     447                    
     448                            .dwattr $C$DW$T$24, DW_AT_decl_file("/home/pola/ti/ccsv8/tools/compiler/ti-cgt-arm_18.1.1.LTS/
     449                            .dwattr $C$DW$T$24, DW_AT_decl_line(0x56)
     450                            .dwattr $C$DW$T$24, DW_AT_decl_column(0x10)
     451                            .dwendtag $C$DW$T$24
     452                    
     453                    $C$DW$T$63      .dwtag  DW_TAG_typedef
     454                            .dwattr $C$DW$T$63, DW_AT_name("lldiv_t")
     455                            .dwattr $C$DW$T$63, DW_AT_type(*$C$DW$T$24)
     456                            .dwattr $C$DW$T$63, DW_AT_language(DW_LANG_C)
     457                            .dwattr $C$DW$T$63, DW_AT_decl_file("/home/pola/ti/ccsv8/tools/compiler/ti-cgt-arm_18.1.1.LTS/
     458                            .dwattr $C$DW$T$63, DW_AT_decl_line(0x56)
     459                            .dwattr $C$DW$T$63, DW_AT_decl_column(0x29)
     460                    
     461                    
     462                    $C$DW$T$26      .dwtag  DW_TAG_union_type
     463                            .dwattr $C$DW$T$26, DW_AT_byte_size(0x04)
     464                    $C$DW$29        .dwtag  DW_TAG_member
     465                            .dwattr $C$DW$29, DW_AT_type(*$C$DW$T$3)
     466                            .dwattr $C$DW$29, DW_AT_name("pvDummy2")
     467                            .dwattr $C$DW$29, DW_AT_TI_symbol_name("pvDummy2")
     468                            .dwattr $C$DW$29, DW_AT_data_member_location[DW_OP_plus_uconst 0x0]
     469                            .dwattr $C$DW$29, DW_AT_accessibility(DW_ACCESS_public)
     470                            .dwattr $C$DW$29, DW_AT_decl_file("../OS/FreeRTOS.h")
     471                            .dwattr $C$DW$29, DW_AT_decl_line(0x42d)
     472                            .dwattr $C$DW$29, DW_AT_decl_column(0x09)
     473                    
     474                    $C$DW$30        .dwtag  DW_TAG_member
     475                            .dwattr $C$DW$30, DW_AT_type(*$C$DW$T$25)
     476                            .dwattr $C$DW$30, DW_AT_name("uxDummy2")
     477                            .dwattr $C$DW$30, DW_AT_TI_symbol_name("uxDummy2")
     478                            .dwattr $C$DW$30, DW_AT_data_member_location[DW_OP_plus_uconst 0x0]
     479                            .dwattr $C$DW$30, DW_AT_accessibility(DW_ACCESS_public)
     480                            .dwattr $C$DW$30, DW_AT_decl_file("../OS/FreeRTOS.h")
     481                            .dwattr $C$DW$30, DW_AT_decl_line(0x42e)
     482                            .dwattr $C$DW$30, DW_AT_decl_column(0x0f)
     483                    
     484                            .dwattr $C$DW$T$26, DW_AT_decl_file("../OS/FreeRTOS.h")
     485                            .dwattr $C$DW$T$26, DW_AT_decl_line(0x42c)
     486                            .dwattr $C$DW$T$26, DW_AT_decl_column(0x02)
     487                            .dwendtag $C$DW$T$26
     488                    
     489                    
     490                    $C$DW$T$31      .dwtag  DW_TAG_structure_type
     491                            .dwattr $C$DW$T$31, DW_AT_name("HeapRegion")
     492                            .dwattr $C$DW$T$31, DW_AT_byte_size(0x08)
     493                    $C$DW$31        .dwtag  DW_TAG_member
     494                            .dwattr $C$DW$31, DW_AT_type(*$C$DW$T$29)
     495                            .dwattr $C$DW$31, DW_AT_name("pucStartAddress")
TI ARM Assembler Unix v18.1.1 Fri Jul  3 20:08:22 2020

Tools Copyright (c) 1996-2017 Texas Instruments Incorporated
App.asm                                                              PAGE   10

     496                            .dwattr $C$DW$31, DW_AT_TI_symbol_name("pucStartAddress")
     497                            .dwattr $C$DW$31, DW_AT_data_member_location[DW_OP_plus_uconst 0x0]
     498                            .dwattr $C$DW$31, DW_AT_accessibility(DW_ACCESS_public)
     499                            .dwattr $C$DW$31, DW_AT_decl_file("../OS/portable.h")
     500                            .dwattr $C$DW$31, DW_AT_decl_line(0x6e)
     501                            .dwattr $C$DW$31, DW_AT_decl_column(0x0b)
     502                    
     503                    $C$DW$32        .dwtag  DW_TAG_member
     504                            .dwattr $C$DW$32, DW_AT_type(*$C$DW$T$30)
     505                            .dwattr $C$DW$32, DW_AT_name("xSizeInBytes")
     506                            .dwattr $C$DW$32, DW_AT_TI_symbol_name("xSizeInBytes")
     507                            .dwattr $C$DW$32, DW_AT_data_member_location[DW_OP_plus_uconst 0x4]
     508                            .dwattr $C$DW$32, DW_AT_accessibility(DW_ACCESS_public)
     509                            .dwattr $C$DW$32, DW_AT_decl_file("../OS/portable.h")
     510                            .dwattr $C$DW$32, DW_AT_decl_line(0x6f)
     511                            .dwattr $C$DW$32, DW_AT_decl_column(0x09)
     512                    
     513                            .dwattr $C$DW$T$31, DW_AT_decl_file("../OS/portable.h")
     514                            .dwattr $C$DW$T$31, DW_AT_decl_line(0x6c)
     515                            .dwattr $C$DW$T$31, DW_AT_decl_column(0x10)
     516                            .dwendtag $C$DW$T$31
     517                    
     518                    $C$DW$T$64      .dwtag  DW_TAG_typedef
     519                            .dwattr $C$DW$T$64, DW_AT_name("HeapRegion_t")
     520                            .dwattr $C$DW$T$64, DW_AT_type(*$C$DW$T$31)
     521                            .dwattr $C$DW$T$64, DW_AT_language(DW_LANG_C)
     522                            .dwattr $C$DW$T$64, DW_AT_decl_file("../OS/portable.h")
     523                            .dwattr $C$DW$T$64, DW_AT_decl_line(0x70)
     524                            .dwattr $C$DW$T$64, DW_AT_decl_column(0x03)
     525                    
     526                    $C$DW$T$2       .dwtag  DW_TAG_unspecified_type
     527                            .dwattr $C$DW$T$2, DW_AT_name("void")
     528                    
     529                    $C$DW$T$3       .dwtag  DW_TAG_pointer_type
     530                            .dwattr $C$DW$T$3, DW_AT_type(*$C$DW$T$2)
     531                            .dwattr $C$DW$T$3, DW_AT_address_class(0x20)
     532                    
     533                    
     534                    $C$DW$T$40      .dwtag  DW_TAG_array_type
     535                            .dwattr $C$DW$T$40, DW_AT_type(*$C$DW$T$3)
     536                            .dwattr $C$DW$T$40, DW_AT_language(DW_LANG_C)
     537                            .dwattr $C$DW$T$40, DW_AT_byte_size(0x10)
     538                    $C$DW$33        .dwtag  DW_TAG_subrange_type
     539                            .dwattr $C$DW$33, DW_AT_upper_bound(0x03)
     540                    
     541                            .dwendtag $C$DW$T$40
     542                    
     543                    
     544                    $C$DW$T$42      .dwtag  DW_TAG_array_type
     545                            .dwattr $C$DW$T$42, DW_AT_type(*$C$DW$T$3)
     546                            .dwattr $C$DW$T$42, DW_AT_language(DW_LANG_C)
     547                            .dwattr $C$DW$T$42, DW_AT_byte_size(0x08)
     548                    $C$DW$34        .dwtag  DW_TAG_subrange_type
     549                            .dwattr $C$DW$34, DW_AT_upper_bound(0x01)
     550                    
TI ARM Assembler Unix v18.1.1 Fri Jul  3 20:08:22 2020

Tools Copyright (c) 1996-2017 Texas Instruments Incorporated
App.asm                                                              PAGE   11

     551                            .dwendtag $C$DW$T$42
     552                    
     553                    
     554                    $C$DW$T$44      .dwtag  DW_TAG_array_type
     555                            .dwattr $C$DW$T$44, DW_AT_type(*$C$DW$T$3)
     556                            .dwattr $C$DW$T$44, DW_AT_language(DW_LANG_C)
     557                            .dwattr $C$DW$T$44, DW_AT_byte_size(0x0c)
     558                    $C$DW$35        .dwtag  DW_TAG_subrange_type
     559                            .dwattr $C$DW$35, DW_AT_upper_bound(0x02)
     560                    
     561                            .dwendtag $C$DW$T$44
     562                    
     563                    
     564                    $C$DW$T$56      .dwtag  DW_TAG_subroutine_type
     565                            .dwattr $C$DW$T$56, DW_AT_language(DW_LANG_C)
     566                    $C$DW$36        .dwtag  DW_TAG_formal_parameter
     567                            .dwattr $C$DW$36, DW_AT_type(*$C$DW$T$3)
     568                    
     569                            .dwendtag $C$DW$T$56
     570                    
     571                    $C$DW$T$57      .dwtag  DW_TAG_pointer_type
     572                            .dwattr $C$DW$T$57, DW_AT_type(*$C$DW$T$56)
     573                            .dwattr $C$DW$T$57, DW_AT_address_class(0x20)
     574                    
     575                    $C$DW$T$58      .dwtag  DW_TAG_typedef
     576                            .dwattr $C$DW$T$58, DW_AT_name("TaskFunction_t")
     577                            .dwattr $C$DW$T$58, DW_AT_type(*$C$DW$T$57)
     578                            .dwattr $C$DW$T$58, DW_AT_language(DW_LANG_C)
     579                            .dwattr $C$DW$T$58, DW_AT_decl_file("../OS/projdefs.h")
     580                            .dwattr $C$DW$T$58, DW_AT_decl_line(0x23)
     581                            .dwattr $C$DW$T$58, DW_AT_decl_column(0x10)
     582                    
     583                    
     584                    $C$DW$T$73      .dwtag  DW_TAG_subroutine_type
     585                            .dwattr $C$DW$T$73, DW_AT_language(DW_LANG_C)
     586                            .dwendtag $C$DW$T$73
     587                    
     588                    $C$DW$T$74      .dwtag  DW_TAG_pointer_type
     589                            .dwattr $C$DW$T$74, DW_AT_type(*$C$DW$T$73)
     590                            .dwattr $C$DW$T$74, DW_AT_address_class(0x20)
     591                    
     592                    $C$DW$T$75      .dwtag  DW_TAG_typedef
     593                            .dwattr $C$DW$T$75, DW_AT_name("__TI_atexit_fn")
     594                            .dwattr $C$DW$T$75, DW_AT_type(*$C$DW$T$74)
     595                            .dwattr $C$DW$T$75, DW_AT_language(DW_LANG_C)
     596                            .dwattr $C$DW$T$75, DW_AT_decl_file("/home/pola/ti/ccsv8/tools/compiler/ti-cgt-arm_18.1.1.LTS/
     597                            .dwattr $C$DW$T$75, DW_AT_decl_line(0xb2)
     598                            .dwattr $C$DW$T$75, DW_AT_decl_column(0x14)
     599                    
     600                    $C$DW$T$76      .dwtag  DW_TAG_const_type
     601                            .dwattr $C$DW$T$76, DW_AT_type(*$C$DW$T$2)
     602                    
     603                    $C$DW$T$77      .dwtag  DW_TAG_pointer_type
     604                            .dwattr $C$DW$T$77, DW_AT_type(*$C$DW$T$76)
     605                            .dwattr $C$DW$T$77, DW_AT_address_class(0x20)
TI ARM Assembler Unix v18.1.1 Fri Jul  3 20:08:22 2020

Tools Copyright (c) 1996-2017 Texas Instruments Incorporated
App.asm                                                              PAGE   12

     606                    
     607                    $C$DW$T$4       .dwtag  DW_TAG_base_type
     608                            .dwattr $C$DW$T$4, DW_AT_encoding(DW_ATE_boolean)
     609                            .dwattr $C$DW$T$4, DW_AT_name("bool")
     610                            .dwattr $C$DW$T$4, DW_AT_byte_size(0x01)
     611                    
     612                    $C$DW$T$5       .dwtag  DW_TAG_base_type
     613                            .dwattr $C$DW$T$5, DW_AT_encoding(DW_ATE_signed_char)
     614                            .dwattr $C$DW$T$5, DW_AT_name("signed char")
     615                            .dwattr $C$DW$T$5, DW_AT_byte_size(0x01)
     616                    
     617                    $C$DW$T$78      .dwtag  DW_TAG_typedef
     618                            .dwattr $C$DW$T$78, DW_AT_name("__int8_t")
     619                            .dwattr $C$DW$T$78, DW_AT_type(*$C$DW$T$5)
     620                            .dwattr $C$DW$T$78, DW_AT_language(DW_LANG_C)
     621                            .dwattr $C$DW$T$78, DW_AT_decl_file("/home/pola/ti/ccsv8/tools/compiler/ti-cgt-arm_18.1.1.LTS/
     622                            .dwattr $C$DW$T$78, DW_AT_decl_line(0x39)
     623                            .dwattr $C$DW$T$78, DW_AT_decl_column(0x16)
     624                    
     625                    $C$DW$T$79      .dwtag  DW_TAG_typedef
     626                            .dwattr $C$DW$T$79, DW_AT_name("__int_least8_t")
     627                            .dwattr $C$DW$T$79, DW_AT_type(*$C$DW$T$78)
     628                            .dwattr $C$DW$T$79, DW_AT_language(DW_LANG_C)
     629                            .dwattr $C$DW$T$79, DW_AT_decl_file("/home/pola/ti/ccsv8/tools/compiler/ti-cgt-arm_18.1.1.LTS/
     630                            .dwattr $C$DW$T$79, DW_AT_decl_line(0x58)
     631                            .dwattr $C$DW$T$79, DW_AT_decl_column(0x12)
     632                    
     633                    $C$DW$T$80      .dwtag  DW_TAG_typedef
     634                            .dwattr $C$DW$T$80, DW_AT_name("int_least8_t")
     635                            .dwattr $C$DW$T$80, DW_AT_type(*$C$DW$T$79)
     636                            .dwattr $C$DW$T$80, DW_AT_language(DW_LANG_C)
     637                            .dwattr $C$DW$T$80, DW_AT_decl_file("/home/pola/ti/ccsv8/tools/compiler/ti-cgt-arm_18.1.1.LTS/
     638                            .dwattr $C$DW$T$80, DW_AT_decl_line(0x28)
     639                            .dwattr $C$DW$T$80, DW_AT_decl_column(0x19)
     640                    
     641                    $C$DW$T$81      .dwtag  DW_TAG_typedef
     642                            .dwattr $C$DW$T$81, DW_AT_name("int8_t")
     643                            .dwattr $C$DW$T$81, DW_AT_type(*$C$DW$T$78)
     644                            .dwattr $C$DW$T$81, DW_AT_language(DW_LANG_C)
     645                            .dwattr $C$DW$T$81, DW_AT_decl_file("/home/pola/ti/ccsv8/tools/compiler/ti-cgt-arm_18.1.1.LTS/
     646                            .dwattr $C$DW$T$81, DW_AT_decl_line(0x24)
     647                            .dwattr $C$DW$T$81, DW_AT_decl_column(0x13)
     648                    
     649                    $C$DW$T$6       .dwtag  DW_TAG_base_type
     650                            .dwattr $C$DW$T$6, DW_AT_encoding(DW_ATE_unsigned_char)
     651                            .dwattr $C$DW$T$6, DW_AT_name("unsigned char")
     652                            .dwattr $C$DW$T$6, DW_AT_byte_size(0x01)
     653                    
     654                    $C$DW$T$27      .dwtag  DW_TAG_typedef
     655                            .dwattr $C$DW$T$27, DW_AT_name("__uint8_t")
     656                            .dwattr $C$DW$T$27, DW_AT_type(*$C$DW$T$6)
     657                            .dwattr $C$DW$T$27, DW_AT_language(DW_LANG_C)
     658                            .dwattr $C$DW$T$27, DW_AT_decl_file("/home/pola/ti/ccsv8/tools/compiler/ti-cgt-arm_18.1.1.LTS/
     659                            .dwattr $C$DW$T$27, DW_AT_decl_line(0x3a)
     660                            .dwattr $C$DW$T$27, DW_AT_decl_column(0x18)
TI ARM Assembler Unix v18.1.1 Fri Jul  3 20:08:22 2020

Tools Copyright (c) 1996-2017 Texas Instruments Incorporated
App.asm                                                              PAGE   13

     661                    
     662                    $C$DW$T$82      .dwtag  DW_TAG_typedef
     663                            .dwattr $C$DW$T$82, DW_AT_name("__sa_family_t")
     664                            .dwattr $C$DW$T$82, DW_AT_type(*$C$DW$T$27)
     665                            .dwattr $C$DW$T$82, DW_AT_language(DW_LANG_C)
     666                            .dwattr $C$DW$T$82, DW_AT_decl_file("/home/pola/ti/ccsv8/tools/compiler/ti-cgt-arm_18.1.1.LTS/
     667                            .dwattr $C$DW$T$82, DW_AT_decl_line(0x43)
     668                            .dwattr $C$DW$T$82, DW_AT_decl_column(0x13)
     669                    
     670                    $C$DW$T$83      .dwtag  DW_TAG_typedef
     671                            .dwattr $C$DW$T$83, DW_AT_name("__uint_least8_t")
     672                            .dwattr $C$DW$T$83, DW_AT_type(*$C$DW$T$27)
     673                            .dwattr $C$DW$T$83, DW_AT_language(DW_LANG_C)
     674                            .dwattr $C$DW$T$83, DW_AT_decl_file("/home/pola/ti/ccsv8/tools/compiler/ti-cgt-arm_18.1.1.LTS/
     675                            .dwattr $C$DW$T$83, DW_AT_decl_line(0x6d)
     676                            .dwattr $C$DW$T$83, DW_AT_decl_column(0x13)
     677                    
     678                    $C$DW$T$84      .dwtag  DW_TAG_typedef
     679                            .dwattr $C$DW$T$84, DW_AT_name("uint_least8_t")
     680                            .dwattr $C$DW$T$84, DW_AT_type(*$C$DW$T$83)
     681                            .dwattr $C$DW$T$84, DW_AT_language(DW_LANG_C)
     682                            .dwattr $C$DW$T$84, DW_AT_decl_file("/home/pola/ti/ccsv8/tools/compiler/ti-cgt-arm_18.1.1.LTS/
     683                            .dwattr $C$DW$T$84, DW_AT_decl_line(0x2d)
     684                            .dwattr $C$DW$T$84, DW_AT_decl_column(0x1a)
     685                    
     686                    $C$DW$T$28      .dwtag  DW_TAG_typedef
     687                            .dwattr $C$DW$T$28, DW_AT_name("uint8_t")
     688                            .dwattr $C$DW$T$28, DW_AT_type(*$C$DW$T$27)
     689                            .dwattr $C$DW$T$28, DW_AT_language(DW_LANG_C)
     690                            .dwattr $C$DW$T$28, DW_AT_decl_file("/home/pola/ti/ccsv8/tools/compiler/ti-cgt-arm_18.1.1.LTS/
     691                            .dwattr $C$DW$T$28, DW_AT_decl_line(0x38)
     692                            .dwattr $C$DW$T$28, DW_AT_decl_column(0x14)
     693                    
     694                    $C$DW$T$29      .dwtag  DW_TAG_pointer_type
     695                            .dwattr $C$DW$T$29, DW_AT_type(*$C$DW$T$28)
     696                            .dwattr $C$DW$T$29, DW_AT_address_class(0x20)
     697                    
     698                    
     699                    $C$DW$T$47      .dwtag  DW_TAG_array_type
     700                            .dwattr $C$DW$T$47, DW_AT_type(*$C$DW$T$28)
     701                            .dwattr $C$DW$T$47, DW_AT_language(DW_LANG_C)
     702                            .dwattr $C$DW$T$47, DW_AT_byte_size(0x02)
     703                    $C$DW$37        .dwtag  DW_TAG_subrange_type
     704                            .dwattr $C$DW$37, DW_AT_upper_bound(0x01)
     705                    
     706                            .dwendtag $C$DW$T$47
     707                    
     708                    
     709                    $C$DW$T$53      .dwtag  DW_TAG_array_type
     710                            .dwattr $C$DW$T$53, DW_AT_type(*$C$DW$T$28)
     711                            .dwattr $C$DW$T$53, DW_AT_language(DW_LANG_C)
     712                            .dwattr $C$DW$T$53, DW_AT_byte_size(0x0c)
     713                    $C$DW$38        .dwtag  DW_TAG_subrange_type
     714                            .dwattr $C$DW$38, DW_AT_upper_bound(0x0b)
     715                    
TI ARM Assembler Unix v18.1.1 Fri Jul  3 20:08:22 2020

Tools Copyright (c) 1996-2017 Texas Instruments Incorporated
App.asm                                                              PAGE   14

     716                            .dwendtag $C$DW$T$53
     717                    
     718                    $C$DW$T$7       .dwtag  DW_TAG_base_type
     719                            .dwattr $C$DW$T$7, DW_AT_encoding(DW_ATE_signed_char)
     720                            .dwattr $C$DW$T$7, DW_AT_name("wchar_t")
     721                            .dwattr $C$DW$T$7, DW_AT_byte_size(0x02)
     722                    
     723                    $C$DW$T$8       .dwtag  DW_TAG_base_type
     724                            .dwattr $C$DW$T$8, DW_AT_encoding(DW_ATE_signed)
     725                            .dwattr $C$DW$T$8, DW_AT_name("short")
     726                            .dwattr $C$DW$T$8, DW_AT_byte_size(0x02)
     727                    
     728                    $C$DW$T$85      .dwtag  DW_TAG_typedef
     729                            .dwattr $C$DW$T$85, DW_AT_name("__int16_t")
     730                            .dwattr $C$DW$T$85, DW_AT_type(*$C$DW$T$8)
     731                            .dwattr $C$DW$T$85, DW_AT_language(DW_LANG_C)
     732                            .dwattr $C$DW$T$85, DW_AT_decl_file("/home/pola/ti/ccsv8/tools/compiler/ti-cgt-arm_18.1.1.LTS/
     733                            .dwattr $C$DW$T$85, DW_AT_decl_line(0x3b)
     734                            .dwattr $C$DW$T$85, DW_AT_decl_column(0x11)
     735                    
     736                    $C$DW$T$86      .dwtag  DW_TAG_typedef
     737                            .dwattr $C$DW$T$86, DW_AT_name("__int_least16_t")
     738                            .dwattr $C$DW$T$86, DW_AT_type(*$C$DW$T$85)
     739                            .dwattr $C$DW$T$86, DW_AT_language(DW_LANG_C)
     740                            .dwattr $C$DW$T$86, DW_AT_decl_file("/home/pola/ti/ccsv8/tools/compiler/ti-cgt-arm_18.1.1.LTS/
     741                            .dwattr $C$DW$T$86, DW_AT_decl_line(0x59)
     742                            .dwattr $C$DW$T$86, DW_AT_decl_column(0x13)
     743                    
     744                    $C$DW$T$87      .dwtag  DW_TAG_typedef
     745                            .dwattr $C$DW$T$87, DW_AT_name("int_least16_t")
     746                            .dwattr $C$DW$T$87, DW_AT_type(*$C$DW$T$86)
     747                            .dwattr $C$DW$T$87, DW_AT_language(DW_LANG_C)
     748                            .dwattr $C$DW$T$87, DW_AT_decl_file("/home/pola/ti/ccsv8/tools/compiler/ti-cgt-arm_18.1.1.LTS/
     749                            .dwattr $C$DW$T$87, DW_AT_decl_line(0x29)
     750                            .dwattr $C$DW$T$87, DW_AT_decl_column(0x1a)
     751                    
     752                    $C$DW$T$88      .dwtag  DW_TAG_typedef
     753                            .dwattr $C$DW$T$88, DW_AT_name("int16_t")
     754                            .dwattr $C$DW$T$88, DW_AT_type(*$C$DW$T$85)
     755                            .dwattr $C$DW$T$88, DW_AT_language(DW_LANG_C)
     756                            .dwattr $C$DW$T$88, DW_AT_decl_file("/home/pola/ti/ccsv8/tools/compiler/ti-cgt-arm_18.1.1.LTS/
     757                            .dwattr $C$DW$T$88, DW_AT_decl_line(0x29)
     758                            .dwattr $C$DW$T$88, DW_AT_decl_column(0x14)
     759                    
     760                    $C$DW$T$9       .dwtag  DW_TAG_base_type
     761                            .dwattr $C$DW$T$9, DW_AT_encoding(DW_ATE_unsigned)
     762                            .dwattr $C$DW$T$9, DW_AT_name("unsigned short")
     763                            .dwattr $C$DW$T$9, DW_AT_byte_size(0x02)
     764                    
     765                    $C$DW$T$89      .dwtag  DW_TAG_typedef
     766                            .dwattr $C$DW$T$89, DW_AT_name("___wchar_t")
     767                            .dwattr $C$DW$T$89, DW_AT_type(*$C$DW$T$9)
     768                            .dwattr $C$DW$T$89, DW_AT_language(DW_LANG_C)
     769                            .dwattr $C$DW$T$89, DW_AT_decl_file("/home/pola/ti/ccsv8/tools/compiler/ti-cgt-arm_18.1.1.LTS/
     770                            .dwattr $C$DW$T$89, DW_AT_decl_line(0x76)
TI ARM Assembler Unix v18.1.1 Fri Jul  3 20:08:22 2020

Tools Copyright (c) 1996-2017 Texas Instruments Incorporated
App.asm                                                              PAGE   15

     771                            .dwattr $C$DW$T$89, DW_AT_decl_column(0x1a)
     772                    
     773                    $C$DW$T$90      .dwtag  DW_TAG_typedef
     774                            .dwattr $C$DW$T$90, DW_AT_name("__uint16_t")
     775                            .dwattr $C$DW$T$90, DW_AT_type(*$C$DW$T$9)
     776                            .dwattr $C$DW$T$90, DW_AT_language(DW_LANG_C)
     777                            .dwattr $C$DW$T$90, DW_AT_decl_file("/home/pola/ti/ccsv8/tools/compiler/ti-cgt-arm_18.1.1.LTS/
     778                            .dwattr $C$DW$T$90, DW_AT_decl_line(0x3c)
     779                            .dwattr $C$DW$T$90, DW_AT_decl_column(0x19)
     780                    
     781                    $C$DW$T$91      .dwtag  DW_TAG_typedef
     782                            .dwattr $C$DW$T$91, DW_AT_name("__mode_t")
     783                            .dwattr $C$DW$T$91, DW_AT_type(*$C$DW$T$90)
     784                            .dwattr $C$DW$T$91, DW_AT_language(DW_LANG_C)
     785                            .dwattr $C$DW$T$91, DW_AT_decl_file("/home/pola/ti/ccsv8/tools/compiler/ti-cgt-arm_18.1.1.LTS/
     786                            .dwattr $C$DW$T$91, DW_AT_decl_line(0x39)
     787                            .dwattr $C$DW$T$91, DW_AT_decl_column(0x14)
     788                    
     789                    $C$DW$T$92      .dwtag  DW_TAG_typedef
     790                            .dwattr $C$DW$T$92, DW_AT_name("__uint_least16_t")
     791                            .dwattr $C$DW$T$92, DW_AT_type(*$C$DW$T$90)
     792                            .dwattr $C$DW$T$92, DW_AT_language(DW_LANG_C)
     793                            .dwattr $C$DW$T$92, DW_AT_decl_file("/home/pola/ti/ccsv8/tools/compiler/ti-cgt-arm_18.1.1.LTS/
     794                            .dwattr $C$DW$T$92, DW_AT_decl_line(0x6e)
     795                            .dwattr $C$DW$T$92, DW_AT_decl_column(0x14)
     796                    
     797                    $C$DW$T$93      .dwtag  DW_TAG_typedef
     798                            .dwattr $C$DW$T$93, DW_AT_name("__char16_t")
     799                            .dwattr $C$DW$T$93, DW_AT_type(*$C$DW$T$92)
     800                            .dwattr $C$DW$T$93, DW_AT_language(DW_LANG_C)
     801                            .dwattr $C$DW$T$93, DW_AT_decl_file("/home/pola/ti/ccsv8/tools/compiler/ti-cgt-arm_18.1.1.LTS/
     802                            .dwattr $C$DW$T$93, DW_AT_decl_line(0x66)
     803                            .dwattr $C$DW$T$93, DW_AT_decl_column(0x1a)
     804                    
     805                    $C$DW$T$94      .dwtag  DW_TAG_typedef
     806                            .dwattr $C$DW$T$94, DW_AT_name("uint_least16_t")
     807                            .dwattr $C$DW$T$94, DW_AT_type(*$C$DW$T$92)
     808                            .dwattr $C$DW$T$94, DW_AT_language(DW_LANG_C)
     809                            .dwattr $C$DW$T$94, DW_AT_decl_file("/home/pola/ti/ccsv8/tools/compiler/ti-cgt-arm_18.1.1.LTS/
     810                            .dwattr $C$DW$T$94, DW_AT_decl_line(0x2e)
     811                            .dwattr $C$DW$T$94, DW_AT_decl_column(0x1a)
     812                    
     813                    $C$DW$T$95      .dwtag  DW_TAG_typedef
     814                            .dwattr $C$DW$T$95, DW_AT_name("uint16_t")
     815                            .dwattr $C$DW$T$95, DW_AT_type(*$C$DW$T$90)
     816                            .dwattr $C$DW$T$95, DW_AT_language(DW_LANG_C)
     817                            .dwattr $C$DW$T$95, DW_AT_decl_file("/home/pola/ti/ccsv8/tools/compiler/ti-cgt-arm_18.1.1.LTS/
     818                            .dwattr $C$DW$T$95, DW_AT_decl_line(0x3d)
     819                            .dwattr $C$DW$T$95, DW_AT_decl_column(0x15)
     820                    
     821                    $C$DW$T$96      .dwtag  DW_TAG_typedef
     822                            .dwattr $C$DW$T$96, DW_AT_name("wchar_t")
     823                            .dwattr $C$DW$T$96, DW_AT_type(*$C$DW$T$9)
     824                            .dwattr $C$DW$T$96, DW_AT_language(DW_LANG_C)
     825                            .dwattr $C$DW$T$96, DW_AT_decl_file("/home/pola/ti/ccsv8/tools/compiler/ti-cgt-arm_18.1.1.LTS/
TI ARM Assembler Unix v18.1.1 Fri Jul  3 20:08:22 2020

Tools Copyright (c) 1996-2017 Texas Instruments Incorporated
App.asm                                                              PAGE   16

     826                            .dwattr $C$DW$T$96, DW_AT_decl_line(0x41)
     827                            .dwattr $C$DW$T$96, DW_AT_decl_column(0x1a)
     828                    
     829                    $C$DW$T$10      .dwtag  DW_TAG_base_type
     830                            .dwattr $C$DW$T$10, DW_AT_encoding(DW_ATE_signed)
     831                            .dwattr $C$DW$T$10, DW_AT_name("int")
     832                            .dwattr $C$DW$T$10, DW_AT_byte_size(0x04)
     833                    
     834                    $C$DW$T$97      .dwtag  DW_TAG_typedef
     835                            .dwattr $C$DW$T$97, DW_AT_name("_Mbstatet")
     836                            .dwattr $C$DW$T$97, DW_AT_type(*$C$DW$T$10)
     837                            .dwattr $C$DW$T$97, DW_AT_language(DW_LANG_C)
     838                            .dwattr $C$DW$T$97, DW_AT_decl_file("/home/pola/ti/ccsv8/tools/compiler/ti-cgt-arm_18.1.1.LTS/
     839                            .dwattr $C$DW$T$97, DW_AT_decl_line(0x84)
     840                            .dwattr $C$DW$T$97, DW_AT_decl_column(0x0d)
     841                    
     842                    $C$DW$T$98      .dwtag  DW_TAG_typedef
     843                            .dwattr $C$DW$T$98, DW_AT_name("__mbstate_t")
     844                            .dwattr $C$DW$T$98, DW_AT_type(*$C$DW$T$97)
     845                            .dwattr $C$DW$T$98, DW_AT_language(DW_LANG_C)
     846                            .dwattr $C$DW$T$98, DW_AT_decl_file("/home/pola/ti/ccsv8/tools/compiler/ti-cgt-arm_18.1.1.LTS/
     847                            .dwattr $C$DW$T$98, DW_AT_decl_line(0x87)
     848                            .dwattr $C$DW$T$98, DW_AT_decl_column(0x13)
     849                    
     850                    $C$DW$T$99      .dwtag  DW_TAG_typedef
     851                            .dwattr $C$DW$T$99, DW_AT_name("__accmode_t")
     852                            .dwattr $C$DW$T$99, DW_AT_type(*$C$DW$T$10)
     853                            .dwattr $C$DW$T$99, DW_AT_language(DW_LANG_C)
     854                            .dwattr $C$DW$T$99, DW_AT_decl_file("/home/pola/ti/ccsv8/tools/compiler/ti-cgt-arm_18.1.1.LTS/
     855                            .dwattr $C$DW$T$99, DW_AT_decl_line(0x3a)
     856                            .dwattr $C$DW$T$99, DW_AT_decl_column(0x0e)
     857                    
     858                    
     859                    $C$DW$T$100     .dwtag  DW_TAG_subroutine_type
     860                            .dwattr $C$DW$T$100, DW_AT_type(*$C$DW$T$10)
     861                            .dwattr $C$DW$T$100, DW_AT_language(DW_LANG_C)
     862                    $C$DW$39        .dwtag  DW_TAG_formal_parameter
     863                            .dwattr $C$DW$39, DW_AT_type(*$C$DW$T$77)
     864                    
     865                    $C$DW$40        .dwtag  DW_TAG_formal_parameter
     866                            .dwattr $C$DW$40, DW_AT_type(*$C$DW$T$77)
     867                    
     868                            .dwendtag $C$DW$T$100
     869                    
     870                    $C$DW$T$101     .dwtag  DW_TAG_pointer_type
     871                            .dwattr $C$DW$T$101, DW_AT_type(*$C$DW$T$100)
     872                            .dwattr $C$DW$T$101, DW_AT_address_class(0x20)
     873                    
     874                    $C$DW$T$102     .dwtag  DW_TAG_typedef
     875                            .dwattr $C$DW$T$102, DW_AT_name("__TI_compar_fn")
     876                            .dwattr $C$DW$T$102, DW_AT_type(*$C$DW$T$101)
     877                            .dwattr $C$DW$T$102, DW_AT_language(DW_LANG_C)
     878                            .dwattr $C$DW$T$102, DW_AT_decl_file("/home/pola/ti/ccsv8/tools/compiler/ti-cgt-arm_18.1.1.LTS
     879                            .dwattr $C$DW$T$102, DW_AT_decl_line(0xb5)
     880                            .dwattr $C$DW$T$102, DW_AT_decl_column(0x13)
TI ARM Assembler Unix v18.1.1 Fri Jul  3 20:08:22 2020

Tools Copyright (c) 1996-2017 Texas Instruments Incorporated
App.asm                                                              PAGE   17

     881                    
     882                    $C$DW$T$103     .dwtag  DW_TAG_typedef
     883                            .dwattr $C$DW$T$103, DW_AT_name("__cpulevel_t")
     884                            .dwattr $C$DW$T$103, DW_AT_type(*$C$DW$T$10)
     885                            .dwattr $C$DW$T$103, DW_AT_language(DW_LANG_C)
     886                            .dwattr $C$DW$T$103, DW_AT_decl_file("/home/pola/ti/ccsv8/tools/compiler/ti-cgt-arm_18.1.1.LTS
     887                            .dwattr $C$DW$T$103, DW_AT_decl_line(0x4b)
     888                            .dwattr $C$DW$T$103, DW_AT_decl_column(0x0e)
     889                    
     890                    $C$DW$T$104     .dwtag  DW_TAG_typedef
     891                            .dwattr $C$DW$T$104, DW_AT_name("__cpusetid_t")
     892                            .dwattr $C$DW$T$104, DW_AT_type(*$C$DW$T$10)
     893                            .dwattr $C$DW$T$104, DW_AT_language(DW_LANG_C)
     894                            .dwattr $C$DW$T$104, DW_AT_decl_file("/home/pola/ti/ccsv8/tools/compiler/ti-cgt-arm_18.1.1.LTS
     895                            .dwattr $C$DW$T$104, DW_AT_decl_line(0x4c)
     896                            .dwattr $C$DW$T$104, DW_AT_decl_column(0x0e)
     897                    
     898                    $C$DW$T$105     .dwtag  DW_TAG_typedef
     899                            .dwattr $C$DW$T$105, DW_AT_name("__cpuwhich_t")
     900                            .dwattr $C$DW$T$105, DW_AT_type(*$C$DW$T$10)
     901                            .dwattr $C$DW$T$105, DW_AT_language(DW_LANG_C)
     902                            .dwattr $C$DW$T$105, DW_AT_decl_file("/home/pola/ti/ccsv8/tools/compiler/ti-cgt-arm_18.1.1.LTS
     903                            .dwattr $C$DW$T$105, DW_AT_decl_line(0x4a)
     904                            .dwattr $C$DW$T$105, DW_AT_decl_column(0x0e)
     905                    
     906                    $C$DW$T$106     .dwtag  DW_TAG_typedef
     907                            .dwattr $C$DW$T$106, DW_AT_name("__ct_rune_t")
     908                            .dwattr $C$DW$T$106, DW_AT_type(*$C$DW$T$10)
     909                            .dwattr $C$DW$T$106, DW_AT_language(DW_LANG_C)
     910                            .dwattr $C$DW$T$106, DW_AT_decl_file("/home/pola/ti/ccsv8/tools/compiler/ti-cgt-arm_18.1.1.LTS
     911                            .dwattr $C$DW$T$106, DW_AT_decl_line(0x60)
     912                            .dwattr $C$DW$T$106, DW_AT_decl_column(0x0e)
     913                    
     914                    $C$DW$T$107     .dwtag  DW_TAG_typedef
     915                            .dwattr $C$DW$T$107, DW_AT_name("__rune_t")
     916                            .dwattr $C$DW$T$107, DW_AT_type(*$C$DW$T$106)
     917                            .dwattr $C$DW$T$107, DW_AT_language(DW_LANG_C)
     918                            .dwattr $C$DW$T$107, DW_AT_decl_file("/home/pola/ti/ccsv8/tools/compiler/ti-cgt-arm_18.1.1.LTS
     919                            .dwattr $C$DW$T$107, DW_AT_decl_line(0x61)
     920                            .dwattr $C$DW$T$107, DW_AT_decl_column(0x15)
     921                    
     922                    $C$DW$T$108     .dwtag  DW_TAG_typedef
     923                            .dwattr $C$DW$T$108, DW_AT_name("__wint_t")
     924                            .dwattr $C$DW$T$108, DW_AT_type(*$C$DW$T$106)
     925                            .dwattr $C$DW$T$108, DW_AT_language(DW_LANG_C)
     926                            .dwattr $C$DW$T$108, DW_AT_decl_file("/home/pola/ti/ccsv8/tools/compiler/ti-cgt-arm_18.1.1.LTS
     927                            .dwattr $C$DW$T$108, DW_AT_decl_line(0x62)
     928                            .dwattr $C$DW$T$108, DW_AT_decl_column(0x15)
     929                    
     930                    $C$DW$T$109     .dwtag  DW_TAG_typedef
     931                            .dwattr $C$DW$T$109, DW_AT_name("__int32_t")
     932                            .dwattr $C$DW$T$109, DW_AT_type(*$C$DW$T$10)
     933                            .dwattr $C$DW$T$109, DW_AT_language(DW_LANG_C)
     934                            .dwattr $C$DW$T$109, DW_AT_decl_file("/home/pola/ti/ccsv8/tools/compiler/ti-cgt-arm_18.1.1.LTS
     935                            .dwattr $C$DW$T$109, DW_AT_decl_line(0x3d)
TI ARM Assembler Unix v18.1.1 Fri Jul  3 20:08:22 2020

Tools Copyright (c) 1996-2017 Texas Instruments Incorporated
App.asm                                                              PAGE   18

     936                            .dwattr $C$DW$T$109, DW_AT_decl_column(0x0f)
     937                    
     938                    $C$DW$T$110     .dwtag  DW_TAG_typedef
     939                            .dwattr $C$DW$T$110, DW_AT_name("__blksize_t")
     940                            .dwattr $C$DW$T$110, DW_AT_type(*$C$DW$T$109)
     941                            .dwattr $C$DW$T$110, DW_AT_language(DW_LANG_C)
     942                            .dwattr $C$DW$T$110, DW_AT_decl_file("/home/pola/ti/ccsv8/tools/compiler/ti-cgt-arm_18.1.1.LTS
     943                            .dwattr $C$DW$T$110, DW_AT_decl_line(0x2e)
     944                            .dwattr $C$DW$T$110, DW_AT_decl_column(0x13)
     945                    
     946                    $C$DW$T$111     .dwtag  DW_TAG_typedef
     947                            .dwattr $C$DW$T$111, DW_AT_name("__clockid_t")
     948                            .dwattr $C$DW$T$111, DW_AT_type(*$C$DW$T$109)
     949                            .dwattr $C$DW$T$111, DW_AT_language(DW_LANG_C)
     950                            .dwattr $C$DW$T$111, DW_AT_decl_file("/home/pola/ti/ccsv8/tools/compiler/ti-cgt-arm_18.1.1.LTS
     951                            .dwattr $C$DW$T$111, DW_AT_decl_line(0x30)
     952                            .dwattr $C$DW$T$111, DW_AT_decl_column(0x13)
     953                    
     954                    $C$DW$T$112     .dwtag  DW_TAG_typedef
     955                            .dwattr $C$DW$T$112, DW_AT_name("__critical_t")
     956                            .dwattr $C$DW$T$112, DW_AT_type(*$C$DW$T$109)
     957                            .dwattr $C$DW$T$112, DW_AT_language(DW_LANG_C)
     958                            .dwattr $C$DW$T$112, DW_AT_decl_file("/home/pola/ti/ccsv8/tools/compiler/ti-cgt-arm_18.1.1.LTS
     959                            .dwattr $C$DW$T$112, DW_AT_decl_line(0x4e)
     960                            .dwattr $C$DW$T$112, DW_AT_decl_column(0x13)
     961                    
     962                    $C$DW$T$113     .dwtag  DW_TAG_typedef
     963                            .dwattr $C$DW$T$113, DW_AT_name("__int_fast16_t")
     964                            .dwattr $C$DW$T$113, DW_AT_type(*$C$DW$T$109)
     965                            .dwattr $C$DW$T$113, DW_AT_language(DW_LANG_C)
     966                            .dwattr $C$DW$T$113, DW_AT_decl_file("/home/pola/ti/ccsv8/tools/compiler/ti-cgt-arm_18.1.1.LTS
     967                            .dwattr $C$DW$T$113, DW_AT_decl_line(0x55)
     968                            .dwattr $C$DW$T$113, DW_AT_decl_column(0x13)
     969                    
     970                    $C$DW$T$114     .dwtag  DW_TAG_typedef
     971                            .dwattr $C$DW$T$114, DW_AT_name("int_fast16_t")
     972                            .dwattr $C$DW$T$114, DW_AT_type(*$C$DW$T$113)
     973                            .dwattr $C$DW$T$114, DW_AT_language(DW_LANG_C)
     974                            .dwattr $C$DW$T$114, DW_AT_decl_file("/home/pola/ti/ccsv8/tools/compiler/ti-cgt-arm_18.1.1.LTS
     975                            .dwattr $C$DW$T$114, DW_AT_decl_line(0x33)
     976                            .dwattr $C$DW$T$114, DW_AT_decl_column(0x19)
     977                    
     978                    $C$DW$T$115     .dwtag  DW_TAG_typedef
     979                            .dwattr $C$DW$T$115, DW_AT_name("__int_fast32_t")
     980                            .dwattr $C$DW$T$115, DW_AT_type(*$C$DW$T$109)
     981                            .dwattr $C$DW$T$115, DW_AT_language(DW_LANG_C)
     982                            .dwattr $C$DW$T$115, DW_AT_decl_file("/home/pola/ti/ccsv8/tools/compiler/ti-cgt-arm_18.1.1.LTS
     983                            .dwattr $C$DW$T$115, DW_AT_decl_line(0x56)
     984                            .dwattr $C$DW$T$115, DW_AT_decl_column(0x13)
     985                    
     986                    $C$DW$T$116     .dwtag  DW_TAG_typedef
     987                            .dwattr $C$DW$T$116, DW_AT_name("int_fast32_t")
     988                            .dwattr $C$DW$T$116, DW_AT_type(*$C$DW$T$115)
     989                            .dwattr $C$DW$T$116, DW_AT_language(DW_LANG_C)
     990                            .dwattr $C$DW$T$116, DW_AT_decl_file("/home/pola/ti/ccsv8/tools/compiler/ti-cgt-arm_18.1.1.LTS
TI ARM Assembler Unix v18.1.1 Fri Jul  3 20:08:22 2020

Tools Copyright (c) 1996-2017 Texas Instruments Incorporated
App.asm                                                              PAGE   19

     991                            .dwattr $C$DW$T$116, DW_AT_decl_line(0x34)
     992                            .dwattr $C$DW$T$116, DW_AT_decl_column(0x19)
     993                    
     994                    $C$DW$T$117     .dwtag  DW_TAG_typedef
     995                            .dwattr $C$DW$T$117, DW_AT_name("__int_fast8_t")
     996                            .dwattr $C$DW$T$117, DW_AT_type(*$C$DW$T$109)
     997                            .dwattr $C$DW$T$117, DW_AT_language(DW_LANG_C)
     998                            .dwattr $C$DW$T$117, DW_AT_decl_file("/home/pola/ti/ccsv8/tools/compiler/ti-cgt-arm_18.1.1.LTS
     999                            .dwattr $C$DW$T$117, DW_AT_decl_line(0x54)
    1000                            .dwattr $C$DW$T$117, DW_AT_decl_column(0x13)
    1001                    
    1002                    $C$DW$T$118     .dwtag  DW_TAG_typedef
    1003                            .dwattr $C$DW$T$118, DW_AT_name("int_fast8_t")
    1004                            .dwattr $C$DW$T$118, DW_AT_type(*$C$DW$T$117)
    1005                            .dwattr $C$DW$T$118, DW_AT_language(DW_LANG_C)
    1006                            .dwattr $C$DW$T$118, DW_AT_decl_file("/home/pola/ti/ccsv8/tools/compiler/ti-cgt-arm_18.1.1.LTS
    1007                            .dwattr $C$DW$T$118, DW_AT_decl_line(0x32)
    1008                            .dwattr $C$DW$T$118, DW_AT_decl_column(0x18)
    1009                    
    1010                    $C$DW$T$119     .dwtag  DW_TAG_typedef
    1011                            .dwattr $C$DW$T$119, DW_AT_name("__int_least32_t")
    1012                            .dwattr $C$DW$T$119, DW_AT_type(*$C$DW$T$109)
    1013                            .dwattr $C$DW$T$119, DW_AT_language(DW_LANG_C)
    1014                            .dwattr $C$DW$T$119, DW_AT_decl_file("/home/pola/ti/ccsv8/tools/compiler/ti-cgt-arm_18.1.1.LTS
    1015                            .dwattr $C$DW$T$119, DW_AT_decl_line(0x5a)
    1016                            .dwattr $C$DW$T$119, DW_AT_decl_column(0x13)
    1017                    
    1018                    $C$DW$T$120     .dwtag  DW_TAG_typedef
    1019                            .dwattr $C$DW$T$120, DW_AT_name("int_least32_t")
    1020                            .dwattr $C$DW$T$120, DW_AT_type(*$C$DW$T$119)
    1021                            .dwattr $C$DW$T$120, DW_AT_language(DW_LANG_C)
    1022                            .dwattr $C$DW$T$120, DW_AT_decl_file("/home/pola/ti/ccsv8/tools/compiler/ti-cgt-arm_18.1.1.LTS
    1023                            .dwattr $C$DW$T$120, DW_AT_decl_line(0x2a)
    1024                            .dwattr $C$DW$T$120, DW_AT_decl_column(0x1a)
    1025                    
    1026                    $C$DW$T$121     .dwtag  DW_TAG_typedef
    1027                            .dwattr $C$DW$T$121, DW_AT_name("__intfptr_t")
    1028                            .dwattr $C$DW$T$121, DW_AT_type(*$C$DW$T$109)
    1029                            .dwattr $C$DW$T$121, DW_AT_language(DW_LANG_C)
    1030                            .dwattr $C$DW$T$121, DW_AT_decl_file("/home/pola/ti/ccsv8/tools/compiler/ti-cgt-arm_18.1.1.LTS
    1031                            .dwattr $C$DW$T$121, DW_AT_decl_line(0x51)
    1032                            .dwattr $C$DW$T$121, DW_AT_decl_column(0x13)
    1033                    
    1034                    $C$DW$T$122     .dwtag  DW_TAG_typedef
    1035                            .dwattr $C$DW$T$122, DW_AT_name("__intptr_t")
    1036                            .dwattr $C$DW$T$122, DW_AT_type(*$C$DW$T$109)
    1037                            .dwattr $C$DW$T$122, DW_AT_language(DW_LANG_C)
    1038                            .dwattr $C$DW$T$122, DW_AT_decl_file("/home/pola/ti/ccsv8/tools/compiler/ti-cgt-arm_18.1.1.LTS
    1039                            .dwattr $C$DW$T$122, DW_AT_decl_line(0x53)
    1040                            .dwattr $C$DW$T$122, DW_AT_decl_column(0x13)
    1041                    
    1042                    $C$DW$T$123     .dwtag  DW_TAG_typedef
    1043                            .dwattr $C$DW$T$123, DW_AT_name("intptr_t")
    1044                            .dwattr $C$DW$T$123, DW_AT_type(*$C$DW$T$122)
    1045                            .dwattr $C$DW$T$123, DW_AT_language(DW_LANG_C)
TI ARM Assembler Unix v18.1.1 Fri Jul  3 20:08:22 2020

Tools Copyright (c) 1996-2017 Texas Instruments Incorporated
App.asm                                                              PAGE   20

    1046                            .dwattr $C$DW$T$123, DW_AT_decl_file("/home/pola/ti/ccsv8/tools/compiler/ti-cgt-arm_18.1.1.LTS
    1047                            .dwattr $C$DW$T$123, DW_AT_decl_line(0x4c)
    1048                            .dwattr $C$DW$T$123, DW_AT_decl_column(0x15)
    1049                    
    1050                    $C$DW$T$124     .dwtag  DW_TAG_typedef
    1051                            .dwattr $C$DW$T$124, DW_AT_name("__lwpid_t")
    1052                            .dwattr $C$DW$T$124, DW_AT_type(*$C$DW$T$109)
    1053                            .dwattr $C$DW$T$124, DW_AT_language(DW_LANG_C)
    1054                            .dwattr $C$DW$T$124, DW_AT_decl_file("/home/pola/ti/ccsv8/tools/compiler/ti-cgt-arm_18.1.1.LTS
    1055                            .dwattr $C$DW$T$124, DW_AT_decl_line(0x38)
    1056                            .dwattr $C$DW$T$124, DW_AT_decl_column(0x13)
    1057                    
    1058                    $C$DW$T$125     .dwtag  DW_TAG_typedef
    1059                            .dwattr $C$DW$T$125, DW_AT_name("__pid_t")
    1060                            .dwattr $C$DW$T$125, DW_AT_type(*$C$DW$T$109)
    1061                            .dwattr $C$DW$T$125, DW_AT_language(DW_LANG_C)
    1062                            .dwattr $C$DW$T$125, DW_AT_decl_file("/home/pola/ti/ccsv8/tools/compiler/ti-cgt-arm_18.1.1.LTS
    1063                            .dwattr $C$DW$T$125, DW_AT_decl_line(0x3f)
    1064                            .dwattr $C$DW$T$125, DW_AT_decl_column(0x13)
    1065                    
    1066                    $C$DW$T$126     .dwtag  DW_TAG_typedef
    1067                            .dwattr $C$DW$T$126, DW_AT_name("__ptrdiff_t")
    1068                            .dwattr $C$DW$T$126, DW_AT_type(*$C$DW$T$109)
    1069                            .dwattr $C$DW$T$126, DW_AT_language(DW_LANG_C)
    1070                            .dwattr $C$DW$T$126, DW_AT_decl_file("/home/pola/ti/ccsv8/tools/compiler/ti-cgt-arm_18.1.1.LTS
    1071                            .dwattr $C$DW$T$126, DW_AT_decl_line(0x5c)
    1072                            .dwattr $C$DW$T$126, DW_AT_decl_column(0x13)
    1073                    
    1074                    $C$DW$T$127     .dwtag  DW_TAG_typedef
    1075                            .dwattr $C$DW$T$127, DW_AT_name("__register_t")
    1076                            .dwattr $C$DW$T$127, DW_AT_type(*$C$DW$T$109)
    1077                            .dwattr $C$DW$T$127, DW_AT_language(DW_LANG_C)
    1078                            .dwattr $C$DW$T$127, DW_AT_decl_file("/home/pola/ti/ccsv8/tools/compiler/ti-cgt-arm_18.1.1.LTS
    1079                            .dwattr $C$DW$T$127, DW_AT_decl_line(0x5d)
    1080                            .dwattr $C$DW$T$127, DW_AT_decl_column(0x13)
    1081                    
    1082                    $C$DW$T$128     .dwtag  DW_TAG_typedef
    1083                            .dwattr $C$DW$T$128, DW_AT_name("__segsz_t")
    1084                            .dwattr $C$DW$T$128, DW_AT_type(*$C$DW$T$109)
    1085                            .dwattr $C$DW$T$128, DW_AT_language(DW_LANG_C)
    1086                            .dwattr $C$DW$T$128, DW_AT_decl_file("/home/pola/ti/ccsv8/tools/compiler/ti-cgt-arm_18.1.1.LTS
    1087                            .dwattr $C$DW$T$128, DW_AT_decl_line(0x5e)
    1088                            .dwattr $C$DW$T$128, DW_AT_decl_column(0x13)
    1089                    
    1090                    $C$DW$T$129     .dwtag  DW_TAG_typedef
    1091                            .dwattr $C$DW$T$129, DW_AT_name("__ssize_t")
    1092                            .dwattr $C$DW$T$129, DW_AT_type(*$C$DW$T$109)
    1093                            .dwattr $C$DW$T$129, DW_AT_language(DW_LANG_C)
    1094                            .dwattr $C$DW$T$129, DW_AT_decl_file("/home/pola/ti/ccsv8/tools/compiler/ti-cgt-arm_18.1.1.LTS
    1095                            .dwattr $C$DW$T$129, DW_AT_decl_line(0x60)
    1096                            .dwattr $C$DW$T$129, DW_AT_decl_column(0x13)
    1097                    
    1098                    $C$DW$T$130     .dwtag  DW_TAG_typedef
    1099                            .dwattr $C$DW$T$130, DW_AT_name("int32_t")
    1100                            .dwattr $C$DW$T$130, DW_AT_type(*$C$DW$T$109)
TI ARM Assembler Unix v18.1.1 Fri Jul  3 20:08:22 2020

Tools Copyright (c) 1996-2017 Texas Instruments Incorporated
App.asm                                                              PAGE   21

    1101                            .dwattr $C$DW$T$130, DW_AT_language(DW_LANG_C)
    1102                            .dwattr $C$DW$T$130, DW_AT_decl_file("/home/pola/ti/ccsv8/tools/compiler/ti-cgt-arm_18.1.1.LTS
    1103                            .dwattr $C$DW$T$130, DW_AT_decl_line(0x2e)
    1104                            .dwattr $C$DW$T$130, DW_AT_decl_column(0x14)
    1105                    
    1106                    $C$DW$T$131     .dwtag  DW_TAG_typedef
    1107                            .dwattr $C$DW$T$131, DW_AT_name("__nl_item")
    1108                            .dwattr $C$DW$T$131, DW_AT_type(*$C$DW$T$10)
    1109                            .dwattr $C$DW$T$131, DW_AT_language(DW_LANG_C)
    1110                            .dwattr $C$DW$T$131, DW_AT_decl_file("/home/pola/ti/ccsv8/tools/compiler/ti-cgt-arm_18.1.1.LTS
    1111                            .dwattr $C$DW$T$131, DW_AT_decl_line(0x3b)
    1112                            .dwattr $C$DW$T$131, DW_AT_decl_column(0x0e)
    1113                    
    1114                    $C$DW$T$132     .dwtag  DW_TAG_typedef
    1115                            .dwattr $C$DW$T$132, DW_AT_name("ptrdiff_t")
    1116                            .dwattr $C$DW$T$132, DW_AT_type(*$C$DW$T$10)
    1117                            .dwattr $C$DW$T$132, DW_AT_language(DW_LANG_C)
    1118                            .dwattr $C$DW$T$132, DW_AT_decl_file("/home/pola/ti/ccsv8/tools/compiler/ti-cgt-arm_18.1.1.LTS
    1119                            .dwattr $C$DW$T$132, DW_AT_decl_line(0x36)
    1120                            .dwattr $C$DW$T$132, DW_AT_decl_column(0x1c)
    1121                    
    1122                    $C$DW$T$11      .dwtag  DW_TAG_base_type
    1123                            .dwattr $C$DW$T$11, DW_AT_encoding(DW_ATE_unsigned)
    1124                            .dwattr $C$DW$T$11, DW_AT_name("unsigned int")
    1125                            .dwattr $C$DW$T$11, DW_AT_byte_size(0x04)
    1126                    
    1127                    $C$DW$T$33      .dwtag  DW_TAG_typedef
    1128                            .dwattr $C$DW$T$33, DW_AT_name("__uint32_t")
    1129                            .dwattr $C$DW$T$33, DW_AT_type(*$C$DW$T$11)
    1130                            .dwattr $C$DW$T$33, DW_AT_language(DW_LANG_C)
    1131                            .dwattr $C$DW$T$33, DW_AT_decl_file("/home/pola/ti/ccsv8/tools/compiler/ti-cgt-arm_18.1.1.LTS/
    1132                            .dwattr $C$DW$T$33, DW_AT_decl_line(0x3e)
    1133                            .dwattr $C$DW$T$33, DW_AT_decl_column(0x17)
    1134                    
    1135                    $C$DW$T$133     .dwtag  DW_TAG_typedef
    1136                            .dwattr $C$DW$T$133, DW_AT_name("__clock_t")
    1137                            .dwattr $C$DW$T$133, DW_AT_type(*$C$DW$T$33)
    1138                            .dwattr $C$DW$T$133, DW_AT_language(DW_LANG_C)
    1139                            .dwattr $C$DW$T$133, DW_AT_decl_file("/home/pola/ti/ccsv8/tools/compiler/ti-cgt-arm_18.1.1.LTS
    1140                            .dwattr $C$DW$T$133, DW_AT_decl_line(0x4d)
    1141                            .dwattr $C$DW$T$133, DW_AT_decl_column(0x14)
    1142                    
    1143                    $C$DW$T$134     .dwtag  DW_TAG_typedef
    1144                            .dwattr $C$DW$T$134, DW_AT_name("__fflags_t")
    1145                            .dwattr $C$DW$T$134, DW_AT_type(*$C$DW$T$33)
    1146                            .dwattr $C$DW$T$134, DW_AT_language(DW_LANG_C)
    1147                            .dwattr $C$DW$T$134, DW_AT_decl_file("/home/pola/ti/ccsv8/tools/compiler/ti-cgt-arm_18.1.1.LTS
    1148                            .dwattr $C$DW$T$134, DW_AT_decl_line(0x31)
    1149                            .dwattr $C$DW$T$134, DW_AT_decl_column(0x14)
    1150                    
    1151                    $C$DW$T$135     .dwtag  DW_TAG_typedef
    1152                            .dwattr $C$DW$T$135, DW_AT_name("__fixpt_t")
    1153                            .dwattr $C$DW$T$135, DW_AT_type(*$C$DW$T$33)
    1154                            .dwattr $C$DW$T$135, DW_AT_language(DW_LANG_C)
    1155                            .dwattr $C$DW$T$135, DW_AT_decl_file("/home/pola/ti/ccsv8/tools/compiler/ti-cgt-arm_18.1.1.LTS
TI ARM Assembler Unix v18.1.1 Fri Jul  3 20:08:22 2020

Tools Copyright (c) 1996-2017 Texas Instruments Incorporated
App.asm                                                              PAGE   22

    1156                            .dwattr $C$DW$T$135, DW_AT_decl_line(0x76)
    1157                            .dwattr $C$DW$T$135, DW_AT_decl_column(0x14)
    1158                    
    1159                    $C$DW$T$136     .dwtag  DW_TAG_typedef
    1160                            .dwattr $C$DW$T$136, DW_AT_name("__gid_t")
    1161                            .dwattr $C$DW$T$136, DW_AT_type(*$C$DW$T$33)
    1162                            .dwattr $C$DW$T$136, DW_AT_language(DW_LANG_C)
    1163                            .dwattr $C$DW$T$136, DW_AT_decl_file("/home/pola/ti/ccsv8/tools/compiler/ti-cgt-arm_18.1.1.LTS
    1164                            .dwattr $C$DW$T$136, DW_AT_decl_line(0x34)
    1165                            .dwattr $C$DW$T$136, DW_AT_decl_column(0x14)
    1166                    
    1167                    $C$DW$T$137     .dwtag  DW_TAG_typedef
    1168                            .dwattr $C$DW$T$137, DW_AT_name("__size_t")
    1169                            .dwattr $C$DW$T$137, DW_AT_type(*$C$DW$T$33)
    1170                            .dwattr $C$DW$T$137, DW_AT_language(DW_LANG_C)
    1171                            .dwattr $C$DW$T$137, DW_AT_decl_file("/home/pola/ti/ccsv8/tools/compiler/ti-cgt-arm_18.1.1.LTS
    1172                            .dwattr $C$DW$T$137, DW_AT_decl_line(0x5f)
    1173                            .dwattr $C$DW$T$137, DW_AT_decl_column(0x14)
    1174                    
    1175                    $C$DW$T$138     .dwtag  DW_TAG_typedef
    1176                            .dwattr $C$DW$T$138, DW_AT_name("__socklen_t")
    1177                            .dwattr $C$DW$T$138, DW_AT_type(*$C$DW$T$33)
    1178                            .dwattr $C$DW$T$138, DW_AT_language(DW_LANG_C)
    1179                            .dwattr $C$DW$T$138, DW_AT_decl_file("/home/pola/ti/ccsv8/tools/compiler/ti-cgt-arm_18.1.1.LTS
    1180                            .dwattr $C$DW$T$138, DW_AT_decl_line(0x44)
    1181                            .dwattr $C$DW$T$138, DW_AT_decl_column(0x14)
    1182                    
    1183                    $C$DW$T$139     .dwtag  DW_TAG_typedef
    1184                            .dwattr $C$DW$T$139, DW_AT_name("__time_t")
    1185                            .dwattr $C$DW$T$139, DW_AT_type(*$C$DW$T$33)
    1186                            .dwattr $C$DW$T$139, DW_AT_language(DW_LANG_C)
    1187                            .dwattr $C$DW$T$139, DW_AT_decl_file("/home/pola/ti/ccsv8/tools/compiler/ti-cgt-arm_18.1.1.LTS
    1188                            .dwattr $C$DW$T$139, DW_AT_decl_line(0x64)
    1189                            .dwattr $C$DW$T$139, DW_AT_decl_column(0x19)
    1190                    
    1191                    $C$DW$T$140     .dwtag  DW_TAG_typedef
    1192                            .dwattr $C$DW$T$140, DW_AT_name("__u_register_t")
    1193                            .dwattr $C$DW$T$140, DW_AT_type(*$C$DW$T$33)
    1194                            .dwattr $C$DW$T$140, DW_AT_language(DW_LANG_C)
    1195                            .dwattr $C$DW$T$140, DW_AT_decl_file("/home/pola/ti/ccsv8/tools/compiler/ti-cgt-arm_18.1.1.LTS
    1196                            .dwattr $C$DW$T$140, DW_AT_decl_line(0x71)
    1197                            .dwattr $C$DW$T$140, DW_AT_decl_column(0x14)
    1198                    
    1199                    $C$DW$T$141     .dwtag  DW_TAG_typedef
    1200                            .dwattr $C$DW$T$141, DW_AT_name("__uid_t")
    1201                            .dwattr $C$DW$T$141, DW_AT_type(*$C$DW$T$33)
    1202                            .dwattr $C$DW$T$141, DW_AT_language(DW_LANG_C)
    1203                            .dwattr $C$DW$T$141, DW_AT_decl_file("/home/pola/ti/ccsv8/tools/compiler/ti-cgt-arm_18.1.1.LTS
    1204                            .dwattr $C$DW$T$141, DW_AT_decl_line(0x48)
    1205                            .dwattr $C$DW$T$141, DW_AT_decl_column(0x14)
    1206                    
    1207                    $C$DW$T$142     .dwtag  DW_TAG_typedef
    1208                            .dwattr $C$DW$T$142, DW_AT_name("__uint_fast16_t")
    1209                            .dwattr $C$DW$T$142, DW_AT_type(*$C$DW$T$33)
    1210                            .dwattr $C$DW$T$142, DW_AT_language(DW_LANG_C)
TI ARM Assembler Unix v18.1.1 Fri Jul  3 20:08:22 2020

Tools Copyright (c) 1996-2017 Texas Instruments Incorporated
App.asm                                                              PAGE   23

    1211                            .dwattr $C$DW$T$142, DW_AT_decl_file("/home/pola/ti/ccsv8/tools/compiler/ti-cgt-arm_18.1.1.LTS
    1212                            .dwattr $C$DW$T$142, DW_AT_decl_line(0x6a)
    1213                            .dwattr $C$DW$T$142, DW_AT_decl_column(0x14)
    1214                    
    1215                    $C$DW$T$143     .dwtag  DW_TAG_typedef
    1216                            .dwattr $C$DW$T$143, DW_AT_name("uint_fast16_t")
    1217                            .dwattr $C$DW$T$143, DW_AT_type(*$C$DW$T$142)
    1218                            .dwattr $C$DW$T$143, DW_AT_language(DW_LANG_C)
    1219                            .dwattr $C$DW$T$143, DW_AT_decl_file("/home/pola/ti/ccsv8/tools/compiler/ti-cgt-arm_18.1.1.LTS
    1220                            .dwattr $C$DW$T$143, DW_AT_decl_line(0x38)
    1221                            .dwattr $C$DW$T$143, DW_AT_decl_column(0x1a)
    1222                    
    1223                    $C$DW$T$144     .dwtag  DW_TAG_typedef
    1224                            .dwattr $C$DW$T$144, DW_AT_name("__uint_fast32_t")
    1225                            .dwattr $C$DW$T$144, DW_AT_type(*$C$DW$T$33)
    1226                            .dwattr $C$DW$T$144, DW_AT_language(DW_LANG_C)
    1227                            .dwattr $C$DW$T$144, DW_AT_decl_file("/home/pola/ti/ccsv8/tools/compiler/ti-cgt-arm_18.1.1.LTS
    1228                            .dwattr $C$DW$T$144, DW_AT_decl_line(0x6b)
    1229                            .dwattr $C$DW$T$144, DW_AT_decl_column(0x14)
    1230                    
    1231                    $C$DW$T$145     .dwtag  DW_TAG_typedef
    1232                            .dwattr $C$DW$T$145, DW_AT_name("uint_fast32_t")
    1233                            .dwattr $C$DW$T$145, DW_AT_type(*$C$DW$T$144)
    1234                            .dwattr $C$DW$T$145, DW_AT_language(DW_LANG_C)
    1235                            .dwattr $C$DW$T$145, DW_AT_decl_file("/home/pola/ti/ccsv8/tools/compiler/ti-cgt-arm_18.1.1.LTS
    1236                            .dwattr $C$DW$T$145, DW_AT_decl_line(0x39)
    1237                            .dwattr $C$DW$T$145, DW_AT_decl_column(0x1a)
    1238                    
    1239                    $C$DW$T$146     .dwtag  DW_TAG_typedef
    1240                            .dwattr $C$DW$T$146, DW_AT_name("__uint_fast8_t")
    1241                            .dwattr $C$DW$T$146, DW_AT_type(*$C$DW$T$33)
    1242                            .dwattr $C$DW$T$146, DW_AT_language(DW_LANG_C)
    1243                            .dwattr $C$DW$T$146, DW_AT_decl_file("/home/pola/ti/ccsv8/tools/compiler/ti-cgt-arm_18.1.1.LTS
    1244                            .dwattr $C$DW$T$146, DW_AT_decl_line(0x69)
    1245                            .dwattr $C$DW$T$146, DW_AT_decl_column(0x14)
    1246                    
    1247                    $C$DW$T$147     .dwtag  DW_TAG_typedef
    1248                            .dwattr $C$DW$T$147, DW_AT_name("uint_fast8_t")
    1249                            .dwattr $C$DW$T$147, DW_AT_type(*$C$DW$T$146)
    1250                            .dwattr $C$DW$T$147, DW_AT_language(DW_LANG_C)
    1251                            .dwattr $C$DW$T$147, DW_AT_decl_file("/home/pola/ti/ccsv8/tools/compiler/ti-cgt-arm_18.1.1.LTS
    1252                            .dwattr $C$DW$T$147, DW_AT_decl_line(0x37)
    1253                            .dwattr $C$DW$T$147, DW_AT_decl_column(0x19)
    1254                    
    1255                    $C$DW$T$148     .dwtag  DW_TAG_typedef
    1256                            .dwattr $C$DW$T$148, DW_AT_name("__uint_least32_t")
    1257                            .dwattr $C$DW$T$148, DW_AT_type(*$C$DW$T$33)
    1258                            .dwattr $C$DW$T$148, DW_AT_language(DW_LANG_C)
    1259                            .dwattr $C$DW$T$148, DW_AT_decl_file("/home/pola/ti/ccsv8/tools/compiler/ti-cgt-arm_18.1.1.LTS
    1260                            .dwattr $C$DW$T$148, DW_AT_decl_line(0x6f)
    1261                            .dwattr $C$DW$T$148, DW_AT_decl_column(0x14)
    1262                    
    1263                    $C$DW$T$149     .dwtag  DW_TAG_typedef
    1264                            .dwattr $C$DW$T$149, DW_AT_name("__char32_t")
    1265                            .dwattr $C$DW$T$149, DW_AT_type(*$C$DW$T$148)
TI ARM Assembler Unix v18.1.1 Fri Jul  3 20:08:22 2020

Tools Copyright (c) 1996-2017 Texas Instruments Incorporated
App.asm                                                              PAGE   24

    1266                            .dwattr $C$DW$T$149, DW_AT_language(DW_LANG_C)
    1267                            .dwattr $C$DW$T$149, DW_AT_decl_file("/home/pola/ti/ccsv8/tools/compiler/ti-cgt-arm_18.1.1.LTS
    1268                            .dwattr $C$DW$T$149, DW_AT_decl_line(0x67)
    1269                            .dwattr $C$DW$T$149, DW_AT_decl_column(0x1a)
    1270                    
    1271                    $C$DW$T$150     .dwtag  DW_TAG_typedef
    1272                            .dwattr $C$DW$T$150, DW_AT_name("uint_least32_t")
    1273                            .dwattr $C$DW$T$150, DW_AT_type(*$C$DW$T$148)
    1274                            .dwattr $C$DW$T$150, DW_AT_language(DW_LANG_C)
    1275                            .dwattr $C$DW$T$150, DW_AT_decl_file("/home/pola/ti/ccsv8/tools/compiler/ti-cgt-arm_18.1.1.LTS
    1276                            .dwattr $C$DW$T$150, DW_AT_decl_line(0x2f)
    1277                            .dwattr $C$DW$T$150, DW_AT_decl_column(0x1a)
    1278                    
    1279                    $C$DW$T$151     .dwtag  DW_TAG_typedef
    1280                            .dwattr $C$DW$T$151, DW_AT_name("__uintfptr_t")
    1281                            .dwattr $C$DW$T$151, DW_AT_type(*$C$DW$T$33)
    1282                            .dwattr $C$DW$T$151, DW_AT_language(DW_LANG_C)
    1283                            .dwattr $C$DW$T$151, DW_AT_decl_file("/home/pola/ti/ccsv8/tools/compiler/ti-cgt-arm_18.1.1.LTS
    1284                            .dwattr $C$DW$T$151, DW_AT_decl_line(0x66)
    1285                            .dwattr $C$DW$T$151, DW_AT_decl_column(0x14)
    1286                    
    1287                    $C$DW$T$152     .dwtag  DW_TAG_typedef
    1288                            .dwattr $C$DW$T$152, DW_AT_name("__uintptr_t")
    1289                            .dwattr $C$DW$T$152, DW_AT_type(*$C$DW$T$33)
    1290                            .dwattr $C$DW$T$152, DW_AT_language(DW_LANG_C)
    1291                            .dwattr $C$DW$T$152, DW_AT_decl_file("/home/pola/ti/ccsv8/tools/compiler/ti-cgt-arm_18.1.1.LTS
    1292                            .dwattr $C$DW$T$152, DW_AT_decl_line(0x68)
    1293                            .dwattr $C$DW$T$152, DW_AT_decl_column(0x14)
    1294                    
    1295                    $C$DW$T$153     .dwtag  DW_TAG_typedef
    1296                            .dwattr $C$DW$T$153, DW_AT_name("uintptr_t")
    1297                            .dwattr $C$DW$T$153, DW_AT_type(*$C$DW$T$152)
    1298                            .dwattr $C$DW$T$153, DW_AT_language(DW_LANG_C)
    1299                            .dwattr $C$DW$T$153, DW_AT_decl_file("/home/pola/ti/ccsv8/tools/compiler/ti-cgt-arm_18.1.1.LTS
    1300                            .dwattr $C$DW$T$153, DW_AT_decl_line(0x50)
    1301                            .dwattr $C$DW$T$153, DW_AT_decl_column(0x16)
    1302                    
    1303                    $C$DW$T$154     .dwtag  DW_TAG_typedef
    1304                            .dwattr $C$DW$T$154, DW_AT_name("__vm_offset_t")
    1305                            .dwattr $C$DW$T$154, DW_AT_type(*$C$DW$T$33)
    1306                            .dwattr $C$DW$T$154, DW_AT_language(DW_LANG_C)
    1307                            .dwattr $C$DW$T$154, DW_AT_decl_file("/home/pola/ti/ccsv8/tools/compiler/ti-cgt-arm_18.1.1.LTS
    1308                            .dwattr $C$DW$T$154, DW_AT_decl_line(0x72)
    1309                            .dwattr $C$DW$T$154, DW_AT_decl_column(0x14)
    1310                    
    1311                    $C$DW$T$155     .dwtag  DW_TAG_typedef
    1312                            .dwattr $C$DW$T$155, DW_AT_name("__vm_paddr_t")
    1313                            .dwattr $C$DW$T$155, DW_AT_type(*$C$DW$T$33)
    1314                            .dwattr $C$DW$T$155, DW_AT_language(DW_LANG_C)
    1315                            .dwattr $C$DW$T$155, DW_AT_decl_file("/home/pola/ti/ccsv8/tools/compiler/ti-cgt-arm_18.1.1.LTS
    1316                            .dwattr $C$DW$T$155, DW_AT_decl_line(0x73)
    1317                            .dwattr $C$DW$T$155, DW_AT_decl_column(0x14)
    1318                    
    1319                    $C$DW$T$156     .dwtag  DW_TAG_typedef
    1320                            .dwattr $C$DW$T$156, DW_AT_name("__vm_size_t")
TI ARM Assembler Unix v18.1.1 Fri Jul  3 20:08:22 2020

Tools Copyright (c) 1996-2017 Texas Instruments Incorporated
App.asm                                                              PAGE   25

    1321                            .dwattr $C$DW$T$156, DW_AT_type(*$C$DW$T$33)
    1322                            .dwattr $C$DW$T$156, DW_AT_language(DW_LANG_C)
    1323                            .dwattr $C$DW$T$156, DW_AT_decl_file("/home/pola/ti/ccsv8/tools/compiler/ti-cgt-arm_18.1.1.LTS
    1324                            .dwattr $C$DW$T$156, DW_AT_decl_line(0x74)
    1325                            .dwattr $C$DW$T$156, DW_AT_decl_column(0x14)
    1326                    
    1327                    $C$DW$T$34      .dwtag  DW_TAG_typedef
    1328                            .dwattr $C$DW$T$34, DW_AT_name("uint32_t")
    1329                            .dwattr $C$DW$T$34, DW_AT_type(*$C$DW$T$33)
    1330                            .dwattr $C$DW$T$34, DW_AT_language(DW_LANG_C)
    1331                            .dwattr $C$DW$T$34, DW_AT_decl_file("/home/pola/ti/ccsv8/tools/compiler/ti-cgt-arm_18.1.1.LTS/
    1332                            .dwattr $C$DW$T$34, DW_AT_decl_line(0x42)
    1333                            .dwattr $C$DW$T$34, DW_AT_decl_column(0x15)
    1334                    
    1335                    $C$DW$T$68      .dwtag  DW_TAG_typedef
    1336                            .dwattr $C$DW$T$68, DW_AT_name("StackType_t")
    1337                            .dwattr $C$DW$T$68, DW_AT_type(*$C$DW$T$34)
    1338                            .dwattr $C$DW$T$68, DW_AT_language(DW_LANG_C)
    1339                            .dwattr $C$DW$T$68, DW_AT_decl_file("../OS/portmacro.h")
    1340                            .dwattr $C$DW$T$68, DW_AT_decl_line(0x37)
    1341                            .dwattr $C$DW$T$68, DW_AT_decl_column(0x18)
    1342                    
    1343                    $C$DW$T$69      .dwtag  DW_TAG_pointer_type
    1344                            .dwattr $C$DW$T$69, DW_AT_type(*$C$DW$T$68)
    1345                            .dwattr $C$DW$T$69, DW_AT_address_class(0x20)
    1346                    
    1347                    $C$DW$T$70      .dwtag  DW_TAG_pointer_type
    1348                            .dwattr $C$DW$T$70, DW_AT_type(*$C$DW$T$69)
    1349                            .dwattr $C$DW$T$70, DW_AT_address_class(0x20)
    1350                    
    1351                    
    1352                    $C$DW$T$157     .dwtag  DW_TAG_array_type
    1353                            .dwattr $C$DW$T$157, DW_AT_type(*$C$DW$T$68)
    1354                            .dwattr $C$DW$T$157, DW_AT_language(DW_LANG_C)
    1355                            .dwattr $C$DW$T$157, DW_AT_byte_size(0x190)
    1356                    $C$DW$41        .dwtag  DW_TAG_subrange_type
    1357                            .dwattr $C$DW$41, DW_AT_upper_bound(0x63)
    1358                    
    1359                            .dwendtag $C$DW$T$157
    1360                    
    1361                    $C$DW$T$35      .dwtag  DW_TAG_typedef
    1362                            .dwattr $C$DW$T$35, DW_AT_name("TickType_t")
    1363                            .dwattr $C$DW$T$35, DW_AT_type(*$C$DW$T$34)
    1364                            .dwattr $C$DW$T$35, DW_AT_language(DW_LANG_C)
    1365                            .dwattr $C$DW$T$35, DW_AT_decl_file("../OS/portmacro.h")
    1366                            .dwattr $C$DW$T$35, DW_AT_decl_line(0x3f)
    1367                            .dwattr $C$DW$T$35, DW_AT_decl_column(0x13)
    1368                    
    1369                    $C$DW$T$71      .dwtag  DW_TAG_pointer_type
    1370                            .dwattr $C$DW$T$71, DW_AT_type(*$C$DW$T$34)
    1371                            .dwattr $C$DW$T$71, DW_AT_address_class(0x20)
    1372                    
    1373                    $C$DW$T$158     .dwtag  DW_TAG_typedef
    1374                            .dwattr $C$DW$T$158, DW_AT_name("__useconds_t")
    1375                            .dwattr $C$DW$T$158, DW_AT_type(*$C$DW$T$11)
TI ARM Assembler Unix v18.1.1 Fri Jul  3 20:08:22 2020

Tools Copyright (c) 1996-2017 Texas Instruments Incorporated
App.asm                                                              PAGE   26

    1376                            .dwattr $C$DW$T$158, DW_AT_language(DW_LANG_C)
    1377                            .dwattr $C$DW$T$158, DW_AT_decl_file("/home/pola/ti/ccsv8/tools/compiler/ti-cgt-arm_18.1.1.LTS
    1378                            .dwattr $C$DW$T$158, DW_AT_decl_line(0x49)
    1379                            .dwattr $C$DW$T$158, DW_AT_decl_column(0x16)
    1380                    
    1381                    $C$DW$T$30      .dwtag  DW_TAG_typedef
    1382                            .dwattr $C$DW$T$30, DW_AT_name("size_t")
    1383                            .dwattr $C$DW$T$30, DW_AT_type(*$C$DW$T$11)
    1384                            .dwattr $C$DW$T$30, DW_AT_language(DW_LANG_C)
    1385                            .dwattr $C$DW$T$30, DW_AT_decl_file("/home/pola/ti/ccsv8/tools/compiler/ti-cgt-arm_18.1.1.LTS/
    1386                            .dwattr $C$DW$T$30, DW_AT_decl_line(0x3a)
    1387                            .dwattr $C$DW$T$30, DW_AT_decl_column(0x19)
    1388                    
    1389                    
    1390                    $C$DW$T$49      .dwtag  DW_TAG_array_type
    1391                            .dwattr $C$DW$T$49, DW_AT_type(*$C$DW$T$30)
    1392                            .dwattr $C$DW$T$49, DW_AT_language(DW_LANG_C)
    1393                            .dwattr $C$DW$T$49, DW_AT_byte_size(0x10)
    1394                    $C$DW$42        .dwtag  DW_TAG_subrange_type
    1395                            .dwattr $C$DW$42, DW_AT_upper_bound(0x03)
    1396                    
    1397                            .dwendtag $C$DW$T$49
    1398                    
    1399                    $C$DW$T$12      .dwtag  DW_TAG_base_type
    1400                            .dwattr $C$DW$T$12, DW_AT_encoding(DW_ATE_signed)
    1401                            .dwattr $C$DW$T$12, DW_AT_name("long")
    1402                            .dwattr $C$DW$T$12, DW_AT_byte_size(0x04)
    1403                    
    1404                    $C$DW$T$159     .dwtag  DW_TAG_typedef
    1405                            .dwattr $C$DW$T$159, DW_AT_name("BaseType_t")
    1406                            .dwattr $C$DW$T$159, DW_AT_type(*$C$DW$T$12)
    1407                            .dwattr $C$DW$T$159, DW_AT_language(DW_LANG_C)
    1408                            .dwattr $C$DW$T$159, DW_AT_decl_file("../OS/portmacro.h")
    1409                            .dwattr $C$DW$T$159, DW_AT_decl_line(0x38)
    1410                            .dwattr $C$DW$T$159, DW_AT_decl_column(0x0e)
    1411                    
    1412                    $C$DW$T$160     .dwtag  DW_TAG_typedef
    1413                            .dwattr $C$DW$T$160, DW_AT_name("__key_t")
    1414                            .dwattr $C$DW$T$160, DW_AT_type(*$C$DW$T$12)
    1415                            .dwattr $C$DW$T$160, DW_AT_language(DW_LANG_C)
    1416                            .dwattr $C$DW$T$160, DW_AT_decl_file("/home/pola/ti/ccsv8/tools/compiler/ti-cgt-arm_18.1.1.LTS
    1417                            .dwattr $C$DW$T$160, DW_AT_decl_line(0x37)
    1418                            .dwattr $C$DW$T$160, DW_AT_decl_column(0x0f)
    1419                    
    1420                    $C$DW$T$161     .dwtag  DW_TAG_typedef
    1421                            .dwattr $C$DW$T$161, DW_AT_name("__suseconds_t")
    1422                            .dwattr $C$DW$T$161, DW_AT_type(*$C$DW$T$12)
    1423                            .dwattr $C$DW$T$161, DW_AT_language(DW_LANG_C)
    1424                            .dwattr $C$DW$T$161, DW_AT_decl_file("/home/pola/ti/ccsv8/tools/compiler/ti-cgt-arm_18.1.1.LTS
    1425                            .dwattr $C$DW$T$161, DW_AT_decl_line(0x45)
    1426                            .dwattr $C$DW$T$161, DW_AT_decl_column(0x0f)
    1427                    
    1428                    $C$DW$T$13      .dwtag  DW_TAG_base_type
    1429                            .dwattr $C$DW$T$13, DW_AT_encoding(DW_ATE_unsigned)
    1430                            .dwattr $C$DW$T$13, DW_AT_name("unsigned long")
TI ARM Assembler Unix v18.1.1 Fri Jul  3 20:08:22 2020

Tools Copyright (c) 1996-2017 Texas Instruments Incorporated
App.asm                                                              PAGE   27

    1431                            .dwattr $C$DW$T$13, DW_AT_byte_size(0x04)
    1432                    
    1433                    $C$DW$T$25      .dwtag  DW_TAG_typedef
    1434                            .dwattr $C$DW$T$25, DW_AT_name("UBaseType_t")
    1435                            .dwattr $C$DW$T$25, DW_AT_type(*$C$DW$T$13)
    1436                            .dwattr $C$DW$T$25, DW_AT_language(DW_LANG_C)
    1437                            .dwattr $C$DW$T$25, DW_AT_decl_file("../OS/portmacro.h")
    1438                            .dwattr $C$DW$T$25, DW_AT_decl_line(0x39)
    1439                            .dwattr $C$DW$T$25, DW_AT_decl_column(0x17)
    1440                    
    1441                    
    1442                    $C$DW$T$46      .dwtag  DW_TAG_array_type
    1443                            .dwattr $C$DW$T$46, DW_AT_type(*$C$DW$T$25)
    1444                            .dwattr $C$DW$T$46, DW_AT_language(DW_LANG_C)
    1445                            .dwattr $C$DW$T$46, DW_AT_byte_size(0x0c)
    1446                    $C$DW$43        .dwtag  DW_TAG_subrange_type
    1447                            .dwattr $C$DW$43, DW_AT_upper_bound(0x02)
    1448                    
    1449                            .dwendtag $C$DW$T$46
    1450                    
    1451                    
    1452                    $C$DW$T$54      .dwtag  DW_TAG_array_type
    1453                            .dwattr $C$DW$T$54, DW_AT_type(*$C$DW$T$25)
    1454                            .dwattr $C$DW$T$54, DW_AT_language(DW_LANG_C)
    1455                            .dwattr $C$DW$T$54, DW_AT_byte_size(0x08)
    1456                    $C$DW$44        .dwtag  DW_TAG_subrange_type
    1457                            .dwattr $C$DW$44, DW_AT_upper_bound(0x01)
    1458                    
    1459                            .dwendtag $C$DW$T$54
    1460                    
    1461                    $C$DW$T$14      .dwtag  DW_TAG_base_type
    1462                            .dwattr $C$DW$T$14, DW_AT_encoding(DW_ATE_signed)
    1463                            .dwattr $C$DW$T$14, DW_AT_name("long long")
    1464                            .dwattr $C$DW$T$14, DW_AT_byte_size(0x08)
    1465                    
    1466                    $C$DW$T$162     .dwtag  DW_TAG_typedef
    1467                            .dwattr $C$DW$T$162, DW_AT_name("__int64_t")
    1468                            .dwattr $C$DW$T$162, DW_AT_type(*$C$DW$T$14)
    1469                            .dwattr $C$DW$T$162, DW_AT_language(DW_LANG_C)
    1470                            .dwattr $C$DW$T$162, DW_AT_decl_file("/home/pola/ti/ccsv8/tools/compiler/ti-cgt-arm_18.1.1.LTS
    1471                            .dwattr $C$DW$T$162, DW_AT_decl_line(0x43)
    1472                            .dwattr $C$DW$T$162, DW_AT_decl_column(0x14)
    1473                    
    1474                    $C$DW$T$163     .dwtag  DW_TAG_typedef
    1475                            .dwattr $C$DW$T$163, DW_AT_name("__blkcnt_t")
    1476                            .dwattr $C$DW$T$163, DW_AT_type(*$C$DW$T$162)
    1477                            .dwattr $C$DW$T$163, DW_AT_language(DW_LANG_C)
    1478                            .dwattr $C$DW$T$163, DW_AT_decl_file("/home/pola/ti/ccsv8/tools/compiler/ti-cgt-arm_18.1.1.LTS
    1479                            .dwattr $C$DW$T$163, DW_AT_decl_line(0x2f)
    1480                            .dwattr $C$DW$T$163, DW_AT_decl_column(0x13)
    1481                    
    1482                    $C$DW$T$164     .dwtag  DW_TAG_typedef
    1483                            .dwattr $C$DW$T$164, DW_AT_name("__id_t")
    1484                            .dwattr $C$DW$T$164, DW_AT_type(*$C$DW$T$162)
    1485                            .dwattr $C$DW$T$164, DW_AT_language(DW_LANG_C)
TI ARM Assembler Unix v18.1.1 Fri Jul  3 20:08:22 2020

Tools Copyright (c) 1996-2017 Texas Instruments Incorporated
App.asm                                                              PAGE   28

    1486                            .dwattr $C$DW$T$164, DW_AT_decl_file("/home/pola/ti/ccsv8/tools/compiler/ti-cgt-arm_18.1.1.LTS
    1487                            .dwattr $C$DW$T$164, DW_AT_decl_line(0x35)
    1488                            .dwattr $C$DW$T$164, DW_AT_decl_column(0x13)
    1489                    
    1490                    $C$DW$T$165     .dwtag  DW_TAG_typedef
    1491                            .dwattr $C$DW$T$165, DW_AT_name("__int_fast64_t")
    1492                            .dwattr $C$DW$T$165, DW_AT_type(*$C$DW$T$162)
    1493                            .dwattr $C$DW$T$165, DW_AT_language(DW_LANG_C)
    1494                            .dwattr $C$DW$T$165, DW_AT_decl_file("/home/pola/ti/ccsv8/tools/compiler/ti-cgt-arm_18.1.1.LTS
    1495                            .dwattr $C$DW$T$165, DW_AT_decl_line(0x57)
    1496                            .dwattr $C$DW$T$165, DW_AT_decl_column(0x13)
    1497                    
    1498                    $C$DW$T$166     .dwtag  DW_TAG_typedef
    1499                            .dwattr $C$DW$T$166, DW_AT_name("int_fast64_t")
    1500                            .dwattr $C$DW$T$166, DW_AT_type(*$C$DW$T$165)
    1501                            .dwattr $C$DW$T$166, DW_AT_language(DW_LANG_C)
    1502                            .dwattr $C$DW$T$166, DW_AT_decl_file("/home/pola/ti/ccsv8/tools/compiler/ti-cgt-arm_18.1.1.LTS
    1503                            .dwattr $C$DW$T$166, DW_AT_decl_line(0x35)
    1504                            .dwattr $C$DW$T$166, DW_AT_decl_column(0x19)
    1505                    
    1506                    $C$DW$T$167     .dwtag  DW_TAG_typedef
    1507                            .dwattr $C$DW$T$167, DW_AT_name("__int_least64_t")
    1508                            .dwattr $C$DW$T$167, DW_AT_type(*$C$DW$T$162)
    1509                            .dwattr $C$DW$T$167, DW_AT_language(DW_LANG_C)
    1510                            .dwattr $C$DW$T$167, DW_AT_decl_file("/home/pola/ti/ccsv8/tools/compiler/ti-cgt-arm_18.1.1.LTS
    1511                            .dwattr $C$DW$T$167, DW_AT_decl_line(0x5b)
    1512                            .dwattr $C$DW$T$167, DW_AT_decl_column(0x13)
    1513                    
    1514                    $C$DW$T$168     .dwtag  DW_TAG_typedef
    1515                            .dwattr $C$DW$T$168, DW_AT_name("int_least64_t")
    1516                            .dwattr $C$DW$T$168, DW_AT_type(*$C$DW$T$167)
    1517                            .dwattr $C$DW$T$168, DW_AT_language(DW_LANG_C)
    1518                            .dwattr $C$DW$T$168, DW_AT_decl_file("/home/pola/ti/ccsv8/tools/compiler/ti-cgt-arm_18.1.1.LTS
    1519                            .dwattr $C$DW$T$168, DW_AT_decl_line(0x2b)
    1520                            .dwattr $C$DW$T$168, DW_AT_decl_column(0x1a)
    1521                    
    1522                    $C$DW$T$169     .dwtag  DW_TAG_typedef
    1523                            .dwattr $C$DW$T$169, DW_AT_name("__intmax_t")
    1524                            .dwattr $C$DW$T$169, DW_AT_type(*$C$DW$T$162)
    1525                            .dwattr $C$DW$T$169, DW_AT_language(DW_LANG_C)
    1526                            .dwattr $C$DW$T$169, DW_AT_decl_file("/home/pola/ti/ccsv8/tools/compiler/ti-cgt-arm_18.1.1.LTS
    1527                            .dwattr $C$DW$T$169, DW_AT_decl_line(0x52)
    1528                            .dwattr $C$DW$T$169, DW_AT_decl_column(0x13)
    1529                    
    1530                    $C$DW$T$170     .dwtag  DW_TAG_typedef
    1531                            .dwattr $C$DW$T$170, DW_AT_name("intmax_t")
    1532                            .dwattr $C$DW$T$170, DW_AT_type(*$C$DW$T$169)
    1533                            .dwattr $C$DW$T$170, DW_AT_language(DW_LANG_C)
    1534                            .dwattr $C$DW$T$170, DW_AT_decl_file("/home/pola/ti/ccsv8/tools/compiler/ti-cgt-arm_18.1.1.LTS
    1535                            .dwattr $C$DW$T$170, DW_AT_decl_line(0x54)
    1536                            .dwattr $C$DW$T$170, DW_AT_decl_column(0x15)
    1537                    
    1538                    $C$DW$T$171     .dwtag  DW_TAG_typedef
    1539                            .dwattr $C$DW$T$171, DW_AT_name("__off64_t")
    1540                            .dwattr $C$DW$T$171, DW_AT_type(*$C$DW$T$162)
TI ARM Assembler Unix v18.1.1 Fri Jul  3 20:08:22 2020

Tools Copyright (c) 1996-2017 Texas Instruments Incorporated
App.asm                                                              PAGE   29

    1541                            .dwattr $C$DW$T$171, DW_AT_language(DW_LANG_C)
    1542                            .dwattr $C$DW$T$171, DW_AT_decl_file("/home/pola/ti/ccsv8/tools/compiler/ti-cgt-arm_18.1.1.LTS
    1543                            .dwattr $C$DW$T$171, DW_AT_decl_line(0x3e)
    1544                            .dwattr $C$DW$T$171, DW_AT_decl_column(0x13)
    1545                    
    1546                    $C$DW$T$172     .dwtag  DW_TAG_typedef
    1547                            .dwattr $C$DW$T$172, DW_AT_name("__off_t")
    1548                            .dwattr $C$DW$T$172, DW_AT_type(*$C$DW$T$162)
    1549                            .dwattr $C$DW$T$172, DW_AT_language(DW_LANG_C)
    1550                            .dwattr $C$DW$T$172, DW_AT_decl_file("/home/pola/ti/ccsv8/tools/compiler/ti-cgt-arm_18.1.1.LTS
    1551                            .dwattr $C$DW$T$172, DW_AT_decl_line(0x3d)
    1552                            .dwattr $C$DW$T$172, DW_AT_decl_column(0x13)
    1553                    
    1554                    $C$DW$T$173     .dwtag  DW_TAG_typedef
    1555                            .dwattr $C$DW$T$173, DW_AT_name("__rlim_t")
    1556                            .dwattr $C$DW$T$173, DW_AT_type(*$C$DW$T$162)
    1557                            .dwattr $C$DW$T$173, DW_AT_language(DW_LANG_C)
    1558                            .dwattr $C$DW$T$173, DW_AT_decl_file("/home/pola/ti/ccsv8/tools/compiler/ti-cgt-arm_18.1.1.LTS
    1559                            .dwattr $C$DW$T$173, DW_AT_decl_line(0x40)
    1560                            .dwattr $C$DW$T$173, DW_AT_decl_column(0x13)
    1561                    
    1562                    $C$DW$T$174     .dwtag  DW_TAG_typedef
    1563                            .dwattr $C$DW$T$174, DW_AT_name("int64_t")
    1564                            .dwattr $C$DW$T$174, DW_AT_type(*$C$DW$T$162)
    1565                            .dwattr $C$DW$T$174, DW_AT_language(DW_LANG_C)
    1566                            .dwattr $C$DW$T$174, DW_AT_decl_file("/home/pola/ti/ccsv8/tools/compiler/ti-cgt-arm_18.1.1.LTS
    1567                            .dwattr $C$DW$T$174, DW_AT_decl_line(0x33)
    1568                            .dwattr $C$DW$T$174, DW_AT_decl_column(0x14)
    1569                    
    1570                    $C$DW$T$15      .dwtag  DW_TAG_base_type
    1571                            .dwattr $C$DW$T$15, DW_AT_encoding(DW_ATE_unsigned)
    1572                            .dwattr $C$DW$T$15, DW_AT_name("unsigned long long")
    1573                            .dwattr $C$DW$T$15, DW_AT_byte_size(0x08)
    1574                    
    1575                    $C$DW$T$175     .dwtag  DW_TAG_typedef
    1576                            .dwattr $C$DW$T$175, DW_AT_name("__uint64_t")
    1577                            .dwattr $C$DW$T$175, DW_AT_type(*$C$DW$T$15)
    1578                            .dwattr $C$DW$T$175, DW_AT_language(DW_LANG_C)
    1579                            .dwattr $C$DW$T$175, DW_AT_decl_file("/home/pola/ti/ccsv8/tools/compiler/ti-cgt-arm_18.1.1.LTS
    1580                            .dwattr $C$DW$T$175, DW_AT_decl_line(0x48)
    1581                            .dwattr $C$DW$T$175, DW_AT_decl_column(0x1c)
    1582                    
    1583                    $C$DW$T$176     .dwtag  DW_TAG_typedef
    1584                            .dwattr $C$DW$T$176, DW_AT_name("__dev_t")
    1585                            .dwattr $C$DW$T$176, DW_AT_type(*$C$DW$T$175)
    1586                            .dwattr $C$DW$T$176, DW_AT_language(DW_LANG_C)
    1587                            .dwattr $C$DW$T$176, DW_AT_decl_file("/home/pola/ti/ccsv8/tools/compiler/ti-cgt-arm_18.1.1.LTS
    1588                            .dwattr $C$DW$T$176, DW_AT_decl_line(0x74)
    1589                            .dwattr $C$DW$T$176, DW_AT_decl_column(0x14)
    1590                    
    1591                    $C$DW$T$177     .dwtag  DW_TAG_typedef
    1592                            .dwattr $C$DW$T$177, DW_AT_name("__fsblkcnt_t")
    1593                            .dwattr $C$DW$T$177, DW_AT_type(*$C$DW$T$175)
    1594                            .dwattr $C$DW$T$177, DW_AT_language(DW_LANG_C)
    1595                            .dwattr $C$DW$T$177, DW_AT_decl_file("/home/pola/ti/ccsv8/tools/compiler/ti-cgt-arm_18.1.1.LTS
TI ARM Assembler Unix v18.1.1 Fri Jul  3 20:08:22 2020

Tools Copyright (c) 1996-2017 Texas Instruments Incorporated
App.asm                                                              PAGE   30

    1596                            .dwattr $C$DW$T$177, DW_AT_decl_line(0x32)
    1597                            .dwattr $C$DW$T$177, DW_AT_decl_column(0x14)
    1598                    
    1599                    $C$DW$T$178     .dwtag  DW_TAG_typedef
    1600                            .dwattr $C$DW$T$178, DW_AT_name("__fsfilcnt_t")
    1601                            .dwattr $C$DW$T$178, DW_AT_type(*$C$DW$T$175)
    1602                            .dwattr $C$DW$T$178, DW_AT_language(DW_LANG_C)
    1603                            .dwattr $C$DW$T$178, DW_AT_decl_file("/home/pola/ti/ccsv8/tools/compiler/ti-cgt-arm_18.1.1.LTS
    1604                            .dwattr $C$DW$T$178, DW_AT_decl_line(0x33)
    1605                            .dwattr $C$DW$T$178, DW_AT_decl_column(0x14)
    1606                    
    1607                    $C$DW$T$179     .dwtag  DW_TAG_typedef
    1608                            .dwattr $C$DW$T$179, DW_AT_name("__ino_t")
    1609                            .dwattr $C$DW$T$179, DW_AT_type(*$C$DW$T$175)
    1610                            .dwattr $C$DW$T$179, DW_AT_language(DW_LANG_C)
    1611                            .dwattr $C$DW$T$179, DW_AT_decl_file("/home/pola/ti/ccsv8/tools/compiler/ti-cgt-arm_18.1.1.LTS
    1612                            .dwattr $C$DW$T$179, DW_AT_decl_line(0x36)
    1613                            .dwattr $C$DW$T$179, DW_AT_decl_column(0x14)
    1614                    
    1615                    $C$DW$T$180     .dwtag  DW_TAG_typedef
    1616                            .dwattr $C$DW$T$180, DW_AT_name("__nlink_t")
    1617                            .dwattr $C$DW$T$180, DW_AT_type(*$C$DW$T$175)
    1618                            .dwattr $C$DW$T$180, DW_AT_language(DW_LANG_C)
    1619                            .dwattr $C$DW$T$180, DW_AT_decl_file("/home/pola/ti/ccsv8/tools/compiler/ti-cgt-arm_18.1.1.LTS
    1620                            .dwattr $C$DW$T$180, DW_AT_decl_line(0x3c)
    1621                            .dwattr $C$DW$T$180, DW_AT_decl_column(0x14)
    1622                    
    1623                    $C$DW$T$181     .dwtag  DW_TAG_typedef
    1624                            .dwattr $C$DW$T$181, DW_AT_name("__uint_fast64_t")
    1625                            .dwattr $C$DW$T$181, DW_AT_type(*$C$DW$T$175)
    1626                            .dwattr $C$DW$T$181, DW_AT_language(DW_LANG_C)
    1627                            .dwattr $C$DW$T$181, DW_AT_decl_file("/home/pola/ti/ccsv8/tools/compiler/ti-cgt-arm_18.1.1.LTS
    1628                            .dwattr $C$DW$T$181, DW_AT_decl_line(0x6c)
    1629                            .dwattr $C$DW$T$181, DW_AT_decl_column(0x14)
    1630                    
    1631                    $C$DW$T$182     .dwtag  DW_TAG_typedef
    1632                            .dwattr $C$DW$T$182, DW_AT_name("uint_fast64_t")
    1633                            .dwattr $C$DW$T$182, DW_AT_type(*$C$DW$T$181)
    1634                            .dwattr $C$DW$T$182, DW_AT_language(DW_LANG_C)
    1635                            .dwattr $C$DW$T$182, DW_AT_decl_file("/home/pola/ti/ccsv8/tools/compiler/ti-cgt-arm_18.1.1.LTS
    1636                            .dwattr $C$DW$T$182, DW_AT_decl_line(0x3a)
    1637                            .dwattr $C$DW$T$182, DW_AT_decl_column(0x1a)
    1638                    
    1639                    $C$DW$T$183     .dwtag  DW_TAG_typedef
    1640                            .dwattr $C$DW$T$183, DW_AT_name("__uint_least64_t")
    1641                            .dwattr $C$DW$T$183, DW_AT_type(*$C$DW$T$175)
    1642                            .dwattr $C$DW$T$183, DW_AT_language(DW_LANG_C)
    1643                            .dwattr $C$DW$T$183, DW_AT_decl_file("/home/pola/ti/ccsv8/tools/compiler/ti-cgt-arm_18.1.1.LTS
    1644                            .dwattr $C$DW$T$183, DW_AT_decl_line(0x70)
    1645                            .dwattr $C$DW$T$183, DW_AT_decl_column(0x14)
    1646                    
    1647                    $C$DW$T$184     .dwtag  DW_TAG_typedef
    1648                            .dwattr $C$DW$T$184, DW_AT_name("uint_least64_t")
    1649                            .dwattr $C$DW$T$184, DW_AT_type(*$C$DW$T$183)
    1650                            .dwattr $C$DW$T$184, DW_AT_language(DW_LANG_C)
TI ARM Assembler Unix v18.1.1 Fri Jul  3 20:08:22 2020

Tools Copyright (c) 1996-2017 Texas Instruments Incorporated
App.asm                                                              PAGE   31

    1651                            .dwattr $C$DW$T$184, DW_AT_decl_file("/home/pola/ti/ccsv8/tools/compiler/ti-cgt-arm_18.1.1.LTS
    1652                            .dwattr $C$DW$T$184, DW_AT_decl_line(0x30)
    1653                            .dwattr $C$DW$T$184, DW_AT_decl_column(0x1a)
    1654                    
    1655                    $C$DW$T$185     .dwtag  DW_TAG_typedef
    1656                            .dwattr $C$DW$T$185, DW_AT_name("__uintmax_t")
    1657                            .dwattr $C$DW$T$185, DW_AT_type(*$C$DW$T$175)
    1658                            .dwattr $C$DW$T$185, DW_AT_language(DW_LANG_C)
    1659                            .dwattr $C$DW$T$185, DW_AT_decl_file("/home/pola/ti/ccsv8/tools/compiler/ti-cgt-arm_18.1.1.LTS
    1660                            .dwattr $C$DW$T$185, DW_AT_decl_line(0x67)
    1661                            .dwattr $C$DW$T$185, DW_AT_decl_column(0x14)
    1662                    
    1663                    $C$DW$T$186     .dwtag  DW_TAG_typedef
    1664                            .dwattr $C$DW$T$186, DW_AT_name("__rman_res_t")
    1665                            .dwattr $C$DW$T$186, DW_AT_type(*$C$DW$T$185)
    1666                            .dwattr $C$DW$T$186, DW_AT_language(DW_LANG_C)
    1667                            .dwattr $C$DW$T$186, DW_AT_decl_file("/home/pola/ti/ccsv8/tools/compiler/ti-cgt-arm_18.1.1.LTS
    1668                            .dwattr $C$DW$T$186, DW_AT_decl_line(0x8f)
    1669                            .dwattr $C$DW$T$186, DW_AT_decl_column(0x19)
    1670                    
    1671                    $C$DW$T$187     .dwtag  DW_TAG_typedef
    1672                            .dwattr $C$DW$T$187, DW_AT_name("uintmax_t")
    1673                            .dwattr $C$DW$T$187, DW_AT_type(*$C$DW$T$185)
    1674                            .dwattr $C$DW$T$187, DW_AT_language(DW_LANG_C)
    1675                            .dwattr $C$DW$T$187, DW_AT_decl_file("/home/pola/ti/ccsv8/tools/compiler/ti-cgt-arm_18.1.1.LTS
    1676                            .dwattr $C$DW$T$187, DW_AT_decl_line(0x58)
    1677                            .dwattr $C$DW$T$187, DW_AT_decl_column(0x16)
    1678                    
    1679                    $C$DW$T$188     .dwtag  DW_TAG_typedef
    1680                            .dwattr $C$DW$T$188, DW_AT_name("uint64_t")
    1681                            .dwattr $C$DW$T$188, DW_AT_type(*$C$DW$T$175)
    1682                            .dwattr $C$DW$T$188, DW_AT_language(DW_LANG_C)
    1683                            .dwattr $C$DW$T$188, DW_AT_decl_file("/home/pola/ti/ccsv8/tools/compiler/ti-cgt-arm_18.1.1.LTS
    1684                            .dwattr $C$DW$T$188, DW_AT_decl_line(0x47)
    1685                            .dwattr $C$DW$T$188, DW_AT_decl_column(0x15)
    1686                    
    1687                    $C$DW$T$16      .dwtag  DW_TAG_base_type
    1688                            .dwattr $C$DW$T$16, DW_AT_encoding(DW_ATE_float)
    1689                            .dwattr $C$DW$T$16, DW_AT_name("float")
    1690                            .dwattr $C$DW$T$16, DW_AT_byte_size(0x04)
    1691                    
    1692                    $C$DW$T$189     .dwtag  DW_TAG_typedef
    1693                            .dwattr $C$DW$T$189, DW_AT_name("__float_t")
    1694                            .dwattr $C$DW$T$189, DW_AT_type(*$C$DW$T$16)
    1695                            .dwattr $C$DW$T$189, DW_AT_language(DW_LANG_C)
    1696                            .dwattr $C$DW$T$189, DW_AT_decl_file("/home/pola/ti/ccsv8/tools/compiler/ti-cgt-arm_18.1.1.LTS
    1697                            .dwattr $C$DW$T$189, DW_AT_decl_line(0x50)
    1698                            .dwattr $C$DW$T$189, DW_AT_decl_column(0x10)
    1699                    
    1700                    $C$DW$T$17      .dwtag  DW_TAG_base_type
    1701                            .dwattr $C$DW$T$17, DW_AT_encoding(DW_ATE_float)
    1702                            .dwattr $C$DW$T$17, DW_AT_name("double")
    1703                            .dwattr $C$DW$T$17, DW_AT_byte_size(0x08)
    1704                    
    1705                    $C$DW$T$190     .dwtag  DW_TAG_typedef
TI ARM Assembler Unix v18.1.1 Fri Jul  3 20:08:22 2020

Tools Copyright (c) 1996-2017 Texas Instruments Incorporated
App.asm                                                              PAGE   32

    1706                            .dwattr $C$DW$T$190, DW_AT_name("__double_t")
    1707                            .dwattr $C$DW$T$190, DW_AT_type(*$C$DW$T$17)
    1708                            .dwattr $C$DW$T$190, DW_AT_language(DW_LANG_C)
    1709                            .dwattr $C$DW$T$190, DW_AT_decl_file("/home/pola/ti/ccsv8/tools/compiler/ti-cgt-arm_18.1.1.LTS
    1710                            .dwattr $C$DW$T$190, DW_AT_decl_line(0x4f)
    1711                            .dwattr $C$DW$T$190, DW_AT_decl_column(0x11)
    1712                    
    1713                    $C$DW$T$18      .dwtag  DW_TAG_base_type
    1714                            .dwattr $C$DW$T$18, DW_AT_encoding(DW_ATE_float)
    1715                            .dwattr $C$DW$T$18, DW_AT_name("long double")
    1716                            .dwattr $C$DW$T$18, DW_AT_byte_size(0x08)
    1717                    
    1718                    $C$DW$T$191     .dwtag  DW_TAG_typedef
    1719                            .dwattr $C$DW$T$191, DW_AT_name("max_align_t")
    1720                            .dwattr $C$DW$T$191, DW_AT_type(*$C$DW$T$18)
    1721                            .dwattr $C$DW$T$191, DW_AT_language(DW_LANG_C)
    1722                            .dwattr $C$DW$T$191, DW_AT_decl_file("/home/pola/ti/ccsv8/tools/compiler/ti-cgt-arm_18.1.1.LTS
    1723                            .dwattr $C$DW$T$191, DW_AT_decl_line(0x4f)
    1724                            .dwattr $C$DW$T$191, DW_AT_decl_column(0x15)
    1725                    
    1726                    
    1727                    $C$DW$T$19      .dwtag  DW_TAG_structure_type
    1728                            .dwattr $C$DW$T$19, DW_AT_name("__mq")
    1729                            .dwattr $C$DW$T$19, DW_AT_declaration
    1730                            .dwattr $C$DW$T$19, DW_AT_decl_file("/home/pola/ti/ccsv8/tools/compiler/ti-cgt-arm_18.1.1.LTS/
    1731                            .dwattr $C$DW$T$19, DW_AT_decl_line(0x47)
    1732                            .dwattr $C$DW$T$19, DW_AT_decl_column(0x10)
    1733                            .dwendtag $C$DW$T$19
    1734                    
    1735                    $C$DW$T$192     .dwtag  DW_TAG_pointer_type
    1736                            .dwattr $C$DW$T$192, DW_AT_type(*$C$DW$T$19)
    1737                            .dwattr $C$DW$T$192, DW_AT_address_class(0x20)
    1738                    
    1739                    $C$DW$T$193     .dwtag  DW_TAG_typedef
    1740                            .dwattr $C$DW$T$193, DW_AT_name("__mqd_t")
    1741                            .dwattr $C$DW$T$193, DW_AT_type(*$C$DW$T$192)
    1742                            .dwattr $C$DW$T$193, DW_AT_language(DW_LANG_C)
    1743                            .dwattr $C$DW$T$193, DW_AT_decl_file("/home/pola/ti/ccsv8/tools/compiler/ti-cgt-arm_18.1.1.LTS
    1744                            .dwattr $C$DW$T$193, DW_AT_decl_line(0x47)
    1745                            .dwattr $C$DW$T$193, DW_AT_decl_column(0x16)
    1746                    
    1747                    
    1748                    $C$DW$T$20      .dwtag  DW_TAG_structure_type
    1749                            .dwattr $C$DW$T$20, DW_AT_name("__timer")
    1750                            .dwattr $C$DW$T$20, DW_AT_declaration
    1751                            .dwattr $C$DW$T$20, DW_AT_decl_file("/home/pola/ti/ccsv8/tools/compiler/ti-cgt-arm_18.1.1.LTS/
    1752                            .dwattr $C$DW$T$20, DW_AT_decl_line(0x46)
    1753                            .dwattr $C$DW$T$20, DW_AT_decl_column(0x10)
    1754                            .dwendtag $C$DW$T$20
    1755                    
    1756                    $C$DW$T$194     .dwtag  DW_TAG_pointer_type
    1757                            .dwattr $C$DW$T$194, DW_AT_type(*$C$DW$T$20)
    1758                            .dwattr $C$DW$T$194, DW_AT_address_class(0x20)
    1759                    
    1760                    $C$DW$T$195     .dwtag  DW_TAG_typedef
TI ARM Assembler Unix v18.1.1 Fri Jul  3 20:08:22 2020

Tools Copyright (c) 1996-2017 Texas Instruments Incorporated
App.asm                                                              PAGE   33

    1761                            .dwattr $C$DW$T$195, DW_AT_name("__timer_t")
    1762                            .dwattr $C$DW$T$195, DW_AT_type(*$C$DW$T$194)
    1763                            .dwattr $C$DW$T$195, DW_AT_language(DW_LANG_C)
    1764                            .dwattr $C$DW$T$195, DW_AT_decl_file("/home/pola/ti/ccsv8/tools/compiler/ti-cgt-arm_18.1.1.LTS
    1765                            .dwattr $C$DW$T$195, DW_AT_decl_line(0x46)
    1766                            .dwattr $C$DW$T$195, DW_AT_decl_column(0x19)
    1767                    
    1768                    
    1769                    $C$DW$T$32      .dwtag  DW_TAG_structure_type
    1770                            .dwattr $C$DW$T$32, DW_AT_name("__va_list_t")
    1771                            .dwattr $C$DW$T$32, DW_AT_byte_size(0x04)
    1772                    $C$DW$45        .dwtag  DW_TAG_member
    1773                            .dwattr $C$DW$45, DW_AT_type(*$C$DW$T$3)
    1774                            .dwattr $C$DW$45, DW_AT_name("__ap")
    1775                            .dwattr $C$DW$45, DW_AT_TI_symbol_name("__ap")
    1776                            .dwattr $C$DW$45, DW_AT_data_member_location[DW_OP_plus_uconst 0x0]
    1777                            .dwattr $C$DW$45, DW_AT_accessibility(DW_ACCESS_public)
    1778                            .dwattr $C$DW$45, DW_AT_decl_file("/home/pola/ti/ccsv8/tools/compiler/ti-cgt-arm_18.1.1.LTS/in
    1779                            .dwattr $C$DW$45, DW_AT_decl_line(0x88)
    1780                            .dwattr $C$DW$45, DW_AT_decl_column(0x0c)
    1781                    
    1782                            .dwattr $C$DW$T$32, DW_AT_decl_file("/home/pola/ti/ccsv8/tools/compiler/ti-cgt-arm_18.1.1.LTS/
    1783                            .dwattr $C$DW$T$32, DW_AT_decl_line(0x87)
    1784                            .dwattr $C$DW$T$32, DW_AT_decl_column(0x10)
    1785                            .dwendtag $C$DW$T$32
    1786                    
    1787                    $C$DW$T$196     .dwtag  DW_TAG_typedef
    1788                            .dwattr $C$DW$T$196, DW_AT_name("__va_list")
    1789                            .dwattr $C$DW$T$196, DW_AT_type(*$C$DW$T$32)
    1790                            .dwattr $C$DW$T$196, DW_AT_language(DW_LANG_C)
    1791                            .dwattr $C$DW$T$196, DW_AT_decl_file("/home/pola/ti/ccsv8/tools/compiler/ti-cgt-arm_18.1.1.LTS
    1792                            .dwattr $C$DW$T$196, DW_AT_decl_line(0x89)
    1793                            .dwattr $C$DW$T$196, DW_AT_decl_column(0x03)
    1794                    
    1795                    
    1796                    $C$DW$T$37      .dwtag  DW_TAG_structure_type
    1797                            .dwattr $C$DW$T$37, DW_AT_name("xSTATIC_EVENT_GROUP")
    1798                            .dwattr $C$DW$T$37, DW_AT_byte_size(0x1c)
    1799                    $C$DW$46        .dwtag  DW_TAG_member
    1800                            .dwattr $C$DW$46, DW_AT_type(*$C$DW$T$35)
    1801                            .dwattr $C$DW$46, DW_AT_name("xDummy1")
    1802                            .dwattr $C$DW$46, DW_AT_TI_symbol_name("xDummy1")
    1803                            .dwattr $C$DW$46, DW_AT_data_member_location[DW_OP_plus_uconst 0x0]
    1804                            .dwattr $C$DW$46, DW_AT_accessibility(DW_ACCESS_public)
    1805                            .dwattr $C$DW$46, DW_AT_decl_file("../OS/FreeRTOS.h")
    1806                            .dwattr $C$DW$46, DW_AT_decl_line(0x455)
    1807                            .dwattr $C$DW$46, DW_AT_decl_column(0x0d)
    1808                    
    1809                    $C$DW$47        .dwtag  DW_TAG_member
    1810                            .dwattr $C$DW$47, DW_AT_type(*$C$DW$T$36)
    1811                            .dwattr $C$DW$47, DW_AT_name("xDummy2")
    1812                            .dwattr $C$DW$47, DW_AT_TI_symbol_name("xDummy2")
    1813                            .dwattr $C$DW$47, DW_AT_data_member_location[DW_OP_plus_uconst 0x4]
    1814                            .dwattr $C$DW$47, DW_AT_accessibility(DW_ACCESS_public)
    1815                            .dwattr $C$DW$47, DW_AT_decl_file("../OS/FreeRTOS.h")
TI ARM Assembler Unix v18.1.1 Fri Jul  3 20:08:22 2020

Tools Copyright (c) 1996-2017 Texas Instruments Incorporated
App.asm                                                              PAGE   34

    1816                            .dwattr $C$DW$47, DW_AT_decl_line(0x456)
    1817                            .dwattr $C$DW$47, DW_AT_decl_column(0x0f)
    1818                    
    1819                    $C$DW$48        .dwtag  DW_TAG_member
    1820                            .dwattr $C$DW$48, DW_AT_type(*$C$DW$T$25)
    1821                            .dwattr $C$DW$48, DW_AT_name("uxDummy3")
    1822                            .dwattr $C$DW$48, DW_AT_TI_symbol_name("uxDummy3")
    1823                            .dwattr $C$DW$48, DW_AT_data_member_location[DW_OP_plus_uconst 0x18]
    1824                            .dwattr $C$DW$48, DW_AT_accessibility(DW_ACCESS_public)
    1825                            .dwattr $C$DW$48, DW_AT_decl_file("../OS/FreeRTOS.h")
    1826                            .dwattr $C$DW$48, DW_AT_decl_line(0x459)
    1827                            .dwattr $C$DW$48, DW_AT_decl_column(0x0f)
    1828                    
    1829                            .dwattr $C$DW$T$37, DW_AT_decl_file("../OS/FreeRTOS.h")
    1830                            .dwattr $C$DW$T$37, DW_AT_decl_line(0x453)
    1831                            .dwattr $C$DW$T$37, DW_AT_decl_column(0x10)
    1832                            .dwendtag $C$DW$T$37
    1833                    
    1834                    $C$DW$T$197     .dwtag  DW_TAG_typedef
    1835                            .dwattr $C$DW$T$197, DW_AT_name("StaticEventGroup_t")
    1836                            .dwattr $C$DW$T$197, DW_AT_type(*$C$DW$T$37)
    1837                            .dwattr $C$DW$T$197, DW_AT_language(DW_LANG_C)
    1838                            .dwattr $C$DW$T$197, DW_AT_decl_file("../OS/FreeRTOS.h")
    1839                            .dwattr $C$DW$T$197, DW_AT_decl_line(0x460)
    1840                            .dwattr $C$DW$T$197, DW_AT_decl_column(0x03)
    1841                    
    1842                    
    1843                    $C$DW$T$39      .dwtag  DW_TAG_structure_type
    1844                            .dwattr $C$DW$T$39, DW_AT_name("xSTATIC_LIST")
    1845                            .dwattr $C$DW$T$39, DW_AT_byte_size(0x14)
    1846                    $C$DW$49        .dwtag  DW_TAG_member
    1847                            .dwattr $C$DW$49, DW_AT_type(*$C$DW$T$25)
    1848                            .dwattr $C$DW$49, DW_AT_name("uxDummy1")
    1849                            .dwattr $C$DW$49, DW_AT_TI_symbol_name("uxDummy1")
    1850                            .dwattr $C$DW$49, DW_AT_data_member_location[DW_OP_plus_uconst 0x0]
    1851                            .dwattr $C$DW$49, DW_AT_accessibility(DW_ACCESS_public)
    1852                            .dwattr $C$DW$49, DW_AT_decl_file("../OS/FreeRTOS.h")
    1853                            .dwattr $C$DW$49, DW_AT_decl_line(0x3d5)
    1854                            .dwattr $C$DW$49, DW_AT_decl_column(0x0e)
    1855                    
    1856                    $C$DW$50        .dwtag  DW_TAG_member
    1857                            .dwattr $C$DW$50, DW_AT_type(*$C$DW$T$3)
    1858                            .dwattr $C$DW$50, DW_AT_name("pvDummy2")
    1859                            .dwattr $C$DW$50, DW_AT_TI_symbol_name("pvDummy2")
    1860                            .dwattr $C$DW$50, DW_AT_data_member_location[DW_OP_plus_uconst 0x4]
    1861                            .dwattr $C$DW$50, DW_AT_accessibility(DW_ACCESS_public)
    1862                            .dwattr $C$DW$50, DW_AT_decl_file("../OS/FreeRTOS.h")
    1863                            .dwattr $C$DW$50, DW_AT_decl_line(0x3d6)
    1864                            .dwattr $C$DW$50, DW_AT_decl_column(0x08)
    1865                    
    1866                    $C$DW$51        .dwtag  DW_TAG_member
    1867                            .dwattr $C$DW$51, DW_AT_type(*$C$DW$T$38)
    1868                            .dwattr $C$DW$51, DW_AT_name("xDummy3")
    1869                            .dwattr $C$DW$51, DW_AT_TI_symbol_name("xDummy3")
    1870                            .dwattr $C$DW$51, DW_AT_data_member_location[DW_OP_plus_uconst 0x8]
TI ARM Assembler Unix v18.1.1 Fri Jul  3 20:08:22 2020

Tools Copyright (c) 1996-2017 Texas Instruments Incorporated
App.asm                                                              PAGE   35

    1871                            .dwattr $C$DW$51, DW_AT_accessibility(DW_ACCESS_public)
    1872                            .dwattr $C$DW$51, DW_AT_decl_file("../OS/FreeRTOS.h")
    1873                            .dwattr $C$DW$51, DW_AT_decl_line(0x3d7)
    1874                            .dwattr $C$DW$51, DW_AT_decl_column(0x17)
    1875                    
    1876                            .dwattr $C$DW$T$39, DW_AT_decl_file("../OS/FreeRTOS.h")
    1877                            .dwattr $C$DW$T$39, DW_AT_decl_line(0x3d3)
    1878                            .dwattr $C$DW$T$39, DW_AT_decl_column(0x10)
    1879                            .dwendtag $C$DW$T$39
    1880                    
    1881                    $C$DW$T$36      .dwtag  DW_TAG_typedef
    1882                            .dwattr $C$DW$T$36, DW_AT_name("StaticList_t")
    1883                            .dwattr $C$DW$T$36, DW_AT_type(*$C$DW$T$39)
    1884                            .dwattr $C$DW$T$36, DW_AT_language(DW_LANG_C)
    1885                            .dwattr $C$DW$T$36, DW_AT_decl_file("../OS/FreeRTOS.h")
    1886                            .dwattr $C$DW$T$36, DW_AT_decl_line(0x3d8)
    1887                            .dwattr $C$DW$T$36, DW_AT_decl_column(0x03)
    1888                    
    1889                    
    1890                    $C$DW$T$45      .dwtag  DW_TAG_array_type
    1891                            .dwattr $C$DW$T$45, DW_AT_type(*$C$DW$T$36)
    1892                            .dwattr $C$DW$T$45, DW_AT_language(DW_LANG_C)
    1893                            .dwattr $C$DW$T$45, DW_AT_byte_size(0x28)
    1894                    $C$DW$52        .dwtag  DW_TAG_subrange_type
    1895                            .dwattr $C$DW$52, DW_AT_upper_bound(0x01)
    1896                    
    1897                            .dwendtag $C$DW$T$45
    1898                    
    1899                    
    1900                    $C$DW$T$41      .dwtag  DW_TAG_structure_type
    1901                            .dwattr $C$DW$T$41, DW_AT_name("xSTATIC_LIST_ITEM")
    1902                            .dwattr $C$DW$T$41, DW_AT_byte_size(0x14)
    1903                    $C$DW$53        .dwtag  DW_TAG_member
    1904                            .dwattr $C$DW$53, DW_AT_type(*$C$DW$T$35)
    1905                            .dwattr $C$DW$53, DW_AT_name("xDummy1")
    1906                            .dwattr $C$DW$53, DW_AT_TI_symbol_name("xDummy1")
    1907                            .dwattr $C$DW$53, DW_AT_data_member_location[DW_OP_plus_uconst 0x0]
    1908                            .dwattr $C$DW$53, DW_AT_accessibility(DW_ACCESS_public)
    1909                            .dwattr $C$DW$53, DW_AT_decl_file("../OS/FreeRTOS.h")
    1910                            .dwattr $C$DW$53, DW_AT_decl_line(0x3c5)
    1911                            .dwattr $C$DW$53, DW_AT_decl_column(0x0d)
    1912                    
    1913                    $C$DW$54        .dwtag  DW_TAG_member
    1914                            .dwattr $C$DW$54, DW_AT_type(*$C$DW$T$40)
    1915                            .dwattr $C$DW$54, DW_AT_name("pvDummy2")
    1916                            .dwattr $C$DW$54, DW_AT_TI_symbol_name("pvDummy2")
    1917                            .dwattr $C$DW$54, DW_AT_data_member_location[DW_OP_plus_uconst 0x4]
    1918                            .dwattr $C$DW$54, DW_AT_accessibility(DW_ACCESS_public)
    1919                            .dwattr $C$DW$54, DW_AT_decl_file("../OS/FreeRTOS.h")
    1920                            .dwattr $C$DW$54, DW_AT_decl_line(0x3c6)
    1921                            .dwattr $C$DW$54, DW_AT_decl_column(0x08)
    1922                    
    1923                            .dwattr $C$DW$T$41, DW_AT_decl_file("../OS/FreeRTOS.h")
    1924                            .dwattr $C$DW$T$41, DW_AT_decl_line(0x3c3)
    1925                            .dwattr $C$DW$T$41, DW_AT_decl_column(0x08)
TI ARM Assembler Unix v18.1.1 Fri Jul  3 20:08:22 2020

Tools Copyright (c) 1996-2017 Texas Instruments Incorporated
App.asm                                                              PAGE   36

    1926                            .dwendtag $C$DW$T$41
    1927                    
    1928                    $C$DW$T$51      .dwtag  DW_TAG_typedef
    1929                            .dwattr $C$DW$T$51, DW_AT_name("StaticListItem_t")
    1930                            .dwattr $C$DW$T$51, DW_AT_type(*$C$DW$T$41)
    1931                            .dwattr $C$DW$T$51, DW_AT_language(DW_LANG_C)
    1932                            .dwattr $C$DW$T$51, DW_AT_decl_file("../OS/FreeRTOS.h")
    1933                            .dwattr $C$DW$T$51, DW_AT_decl_line(0x3c8)
    1934                            .dwattr $C$DW$T$51, DW_AT_decl_column(0x22)
    1935                    
    1936                    
    1937                    $C$DW$T$52      .dwtag  DW_TAG_array_type
    1938                            .dwattr $C$DW$T$52, DW_AT_type(*$C$DW$T$51)
    1939                            .dwattr $C$DW$T$52, DW_AT_language(DW_LANG_C)
    1940                            .dwattr $C$DW$T$52, DW_AT_byte_size(0x28)
    1941                    $C$DW$55        .dwtag  DW_TAG_subrange_type
    1942                            .dwattr $C$DW$55, DW_AT_upper_bound(0x01)
    1943                    
    1944                            .dwendtag $C$DW$T$52
    1945                    
    1946                    
    1947                    $C$DW$T$43      .dwtag  DW_TAG_structure_type
    1948                            .dwattr $C$DW$T$43, DW_AT_name("xSTATIC_MINI_LIST_ITEM")
    1949                            .dwattr $C$DW$T$43, DW_AT_byte_size(0x0c)
    1950                    $C$DW$56        .dwtag  DW_TAG_member
    1951                            .dwattr $C$DW$56, DW_AT_type(*$C$DW$T$35)
    1952                            .dwattr $C$DW$56, DW_AT_name("xDummy1")
    1953                            .dwattr $C$DW$56, DW_AT_TI_symbol_name("xDummy1")
    1954                            .dwattr $C$DW$56, DW_AT_data_member_location[DW_OP_plus_uconst 0x0]
    1955                            .dwattr $C$DW$56, DW_AT_accessibility(DW_ACCESS_public)
    1956                            .dwattr $C$DW$56, DW_AT_decl_file("../OS/FreeRTOS.h")
    1957                            .dwattr $C$DW$56, DW_AT_decl_line(0x3cd)
    1958                            .dwattr $C$DW$56, DW_AT_decl_column(0x0d)
    1959                    
    1960                    $C$DW$57        .dwtag  DW_TAG_member
    1961                            .dwattr $C$DW$57, DW_AT_type(*$C$DW$T$42)
    1962                            .dwattr $C$DW$57, DW_AT_name("pvDummy2")
    1963                            .dwattr $C$DW$57, DW_AT_TI_symbol_name("pvDummy2")
    1964                            .dwattr $C$DW$57, DW_AT_data_member_location[DW_OP_plus_uconst 0x4]
    1965                            .dwattr $C$DW$57, DW_AT_accessibility(DW_ACCESS_public)
    1966                            .dwattr $C$DW$57, DW_AT_decl_file("../OS/FreeRTOS.h")
    1967                            .dwattr $C$DW$57, DW_AT_decl_line(0x3ce)
    1968                            .dwattr $C$DW$57, DW_AT_decl_column(0x08)
    1969                    
    1970                            .dwattr $C$DW$T$43, DW_AT_decl_file("../OS/FreeRTOS.h")
    1971                            .dwattr $C$DW$T$43, DW_AT_decl_line(0x3cb)
    1972                            .dwattr $C$DW$T$43, DW_AT_decl_column(0x08)
    1973                            .dwendtag $C$DW$T$43
    1974                    
    1975                    $C$DW$T$38      .dwtag  DW_TAG_typedef
    1976                            .dwattr $C$DW$T$38, DW_AT_name("StaticMiniListItem_t")
    1977                            .dwattr $C$DW$T$38, DW_AT_type(*$C$DW$T$43)
    1978                            .dwattr $C$DW$T$38, DW_AT_language(DW_LANG_C)
    1979                            .dwattr $C$DW$T$38, DW_AT_decl_file("../OS/FreeRTOS.h")
    1980                            .dwattr $C$DW$T$38, DW_AT_decl_line(0x3d0)
TI ARM Assembler Unix v18.1.1 Fri Jul  3 20:08:22 2020

Tools Copyright (c) 1996-2017 Texas Instruments Incorporated
App.asm                                                              PAGE   37

    1981                            .dwattr $C$DW$T$38, DW_AT_decl_column(0x27)
    1982                    
    1983                    
    1984                    $C$DW$T$48      .dwtag  DW_TAG_structure_type
    1985                            .dwattr $C$DW$T$48, DW_AT_name("xSTATIC_QUEUE")
    1986                            .dwattr $C$DW$T$48, DW_AT_byte_size(0x50)
    1987                    $C$DW$58        .dwtag  DW_TAG_member
    1988                            .dwattr $C$DW$58, DW_AT_type(*$C$DW$T$44)
    1989                            .dwattr $C$DW$58, DW_AT_name("pvDummy1")
    1990                            .dwattr $C$DW$58, DW_AT_TI_symbol_name("pvDummy1")
    1991                            .dwattr $C$DW$58, DW_AT_data_member_location[DW_OP_plus_uconst 0x0]
    1992                            .dwattr $C$DW$58, DW_AT_accessibility(DW_ACCESS_public)
    1993                            .dwattr $C$DW$58, DW_AT_decl_file("../OS/FreeRTOS.h")
    1994                            .dwattr $C$DW$58, DW_AT_decl_line(0x429)
    1995                            .dwattr $C$DW$58, DW_AT_decl_column(0x08)
    1996                    
    1997                    $C$DW$59        .dwtag  DW_TAG_member
    1998                            .dwattr $C$DW$59, DW_AT_type(*$C$DW$T$26)
    1999                            .dwattr $C$DW$59, DW_AT_name("u")
    2000                            .dwattr $C$DW$59, DW_AT_TI_symbol_name("u")
    2001                            .dwattr $C$DW$59, DW_AT_data_member_location[DW_OP_plus_uconst 0xc]
    2002                            .dwattr $C$DW$59, DW_AT_accessibility(DW_ACCESS_public)
    2003                            .dwattr $C$DW$59, DW_AT_decl_file("../OS/FreeRTOS.h")
    2004                            .dwattr $C$DW$59, DW_AT_decl_line(0x42f)
    2005                            .dwattr $C$DW$59, DW_AT_decl_column(0x04)
    2006                    
    2007                    $C$DW$60        .dwtag  DW_TAG_member
    2008                            .dwattr $C$DW$60, DW_AT_type(*$C$DW$T$45)
    2009                            .dwattr $C$DW$60, DW_AT_name("xDummy3")
    2010                            .dwattr $C$DW$60, DW_AT_TI_symbol_name("xDummy3")
    2011                            .dwattr $C$DW$60, DW_AT_data_member_location[DW_OP_plus_uconst 0x10]
    2012                            .dwattr $C$DW$60, DW_AT_accessibility(DW_ACCESS_public)
    2013                            .dwattr $C$DW$60, DW_AT_decl_file("../OS/FreeRTOS.h")
    2014                            .dwattr $C$DW$60, DW_AT_decl_line(0x431)
    2015                            .dwattr $C$DW$60, DW_AT_decl_column(0x0f)
    2016                    
    2017                    $C$DW$61        .dwtag  DW_TAG_member
    2018                            .dwattr $C$DW$61, DW_AT_type(*$C$DW$T$46)
    2019                            .dwattr $C$DW$61, DW_AT_name("uxDummy4")
    2020                            .dwattr $C$DW$61, DW_AT_TI_symbol_name("uxDummy4")
    2021                            .dwattr $C$DW$61, DW_AT_data_member_location[DW_OP_plus_uconst 0x38]
    2022                            .dwattr $C$DW$61, DW_AT_accessibility(DW_ACCESS_public)
    2023                            .dwattr $C$DW$61, DW_AT_decl_file("../OS/FreeRTOS.h")
    2024                            .dwattr $C$DW$61, DW_AT_decl_line(0x432)
    2025                            .dwattr $C$DW$61, DW_AT_decl_column(0x0e)
    2026                    
    2027                    $C$DW$62        .dwtag  DW_TAG_member
    2028                            .dwattr $C$DW$62, DW_AT_type(*$C$DW$T$47)
    2029                            .dwattr $C$DW$62, DW_AT_name("ucDummy5")
    2030                            .dwattr $C$DW$62, DW_AT_TI_symbol_name("ucDummy5")
    2031                            .dwattr $C$DW$62, DW_AT_data_member_location[DW_OP_plus_uconst 0x44]
    2032                            .dwattr $C$DW$62, DW_AT_accessibility(DW_ACCESS_public)
    2033                            .dwattr $C$DW$62, DW_AT_decl_file("../OS/FreeRTOS.h")
    2034                            .dwattr $C$DW$62, DW_AT_decl_line(0x433)
    2035                            .dwattr $C$DW$62, DW_AT_decl_column(0x0a)
TI ARM Assembler Unix v18.1.1 Fri Jul  3 20:08:22 2020

Tools Copyright (c) 1996-2017 Texas Instruments Incorporated
App.asm                                                              PAGE   38

    2036                    
    2037                    $C$DW$63        .dwtag  DW_TAG_member
    2038                            .dwattr $C$DW$63, DW_AT_type(*$C$DW$T$25)
    2039                            .dwattr $C$DW$63, DW_AT_name("uxDummy8")
    2040                            .dwattr $C$DW$63, DW_AT_TI_symbol_name("uxDummy8")
    2041                            .dwattr $C$DW$63, DW_AT_data_member_location[DW_OP_plus_uconst 0x48]
    2042                            .dwattr $C$DW$63, DW_AT_accessibility(DW_ACCESS_public)
    2043                            .dwattr $C$DW$63, DW_AT_decl_file("../OS/FreeRTOS.h")
    2044                            .dwattr $C$DW$63, DW_AT_decl_line(0x43e)
    2045                            .dwattr $C$DW$63, DW_AT_decl_column(0x0f)
    2046                    
    2047                    $C$DW$64        .dwtag  DW_TAG_member
    2048                            .dwattr $C$DW$64, DW_AT_type(*$C$DW$T$28)
    2049                            .dwattr $C$DW$64, DW_AT_name("ucDummy9")
    2050                            .dwattr $C$DW$64, DW_AT_TI_symbol_name("ucDummy9")
    2051                            .dwattr $C$DW$64, DW_AT_data_member_location[DW_OP_plus_uconst 0x4c]
    2052                            .dwattr $C$DW$64, DW_AT_accessibility(DW_ACCESS_public)
    2053                            .dwattr $C$DW$64, DW_AT_decl_file("../OS/FreeRTOS.h")
    2054                            .dwattr $C$DW$64, DW_AT_decl_line(0x43f)
    2055                            .dwattr $C$DW$64, DW_AT_decl_column(0x0b)
    2056                    
    2057                            .dwattr $C$DW$T$48, DW_AT_decl_file("../OS/FreeRTOS.h")
    2058                            .dwattr $C$DW$T$48, DW_AT_decl_line(0x427)
    2059                            .dwattr $C$DW$T$48, DW_AT_decl_column(0x10)
    2060                            .dwendtag $C$DW$T$48
    2061                    
    2062                    $C$DW$T$198     .dwtag  DW_TAG_typedef
    2063                            .dwattr $C$DW$T$198, DW_AT_name("StaticQueue_t")
    2064                            .dwattr $C$DW$T$198, DW_AT_type(*$C$DW$T$48)
    2065                            .dwattr $C$DW$T$198, DW_AT_language(DW_LANG_C)
    2066                            .dwattr $C$DW$T$198, DW_AT_decl_file("../OS/FreeRTOS.h")
    2067                            .dwattr $C$DW$T$198, DW_AT_decl_line(0x442)
    2068                            .dwattr $C$DW$T$198, DW_AT_decl_column(0x03)
    2069                    
    2070                    $C$DW$T$199     .dwtag  DW_TAG_typedef
    2071                            .dwattr $C$DW$T$199, DW_AT_name("StaticSemaphore_t")
    2072                            .dwattr $C$DW$T$199, DW_AT_type(*$C$DW$T$198)
    2073                            .dwattr $C$DW$T$199, DW_AT_language(DW_LANG_C)
    2074                            .dwattr $C$DW$T$199, DW_AT_decl_file("../OS/FreeRTOS.h")
    2075                            .dwattr $C$DW$T$199, DW_AT_decl_line(0x443)
    2076                            .dwattr $C$DW$T$199, DW_AT_decl_column(0x17)
    2077                    
    2078                    
    2079                    $C$DW$T$50      .dwtag  DW_TAG_structure_type
    2080                            .dwattr $C$DW$T$50, DW_AT_name("xSTATIC_STREAM_BUFFER")
    2081                            .dwattr $C$DW$T$50, DW_AT_byte_size(0x24)
    2082                    $C$DW$65        .dwtag  DW_TAG_member
    2083                            .dwattr $C$DW$65, DW_AT_type(*$C$DW$T$49)
    2084                            .dwattr $C$DW$65, DW_AT_name("uxDummy1")
    2085                            .dwattr $C$DW$65, DW_AT_TI_symbol_name("uxDummy1")
    2086                            .dwattr $C$DW$65, DW_AT_data_member_location[DW_OP_plus_uconst 0x0]
    2087                            .dwattr $C$DW$65, DW_AT_accessibility(DW_ACCESS_public)
    2088                            .dwattr $C$DW$65, DW_AT_decl_file("../OS/FreeRTOS.h")
    2089                            .dwattr $C$DW$65, DW_AT_decl_line(0x492)
    2090                            .dwattr $C$DW$65, DW_AT_decl_column(0x09)
TI ARM Assembler Unix v18.1.1 Fri Jul  3 20:08:22 2020

Tools Copyright (c) 1996-2017 Texas Instruments Incorporated
App.asm                                                              PAGE   39

    2091                    
    2092                    $C$DW$66        .dwtag  DW_TAG_member
    2093                            .dwattr $C$DW$66, DW_AT_type(*$C$DW$T$44)
    2094                            .dwattr $C$DW$66, DW_AT_name("pvDummy2")
    2095                            .dwattr $C$DW$66, DW_AT_TI_symbol_name("pvDummy2")
    2096                            .dwattr $C$DW$66, DW_AT_data_member_location[DW_OP_plus_uconst 0x10]
    2097                            .dwattr $C$DW$66, DW_AT_accessibility(DW_ACCESS_public)
    2098                            .dwattr $C$DW$66, DW_AT_decl_file("../OS/FreeRTOS.h")
    2099                            .dwattr $C$DW$66, DW_AT_decl_line(0x493)
    2100                            .dwattr $C$DW$66, DW_AT_decl_column(0x09)
    2101                    
    2102                    $C$DW$67        .dwtag  DW_TAG_member
    2103                            .dwattr $C$DW$67, DW_AT_type(*$C$DW$T$28)
    2104                            .dwattr $C$DW$67, DW_AT_name("ucDummy3")
    2105                            .dwattr $C$DW$67, DW_AT_TI_symbol_name("ucDummy3")
    2106                            .dwattr $C$DW$67, DW_AT_data_member_location[DW_OP_plus_uconst 0x1c]
    2107                            .dwattr $C$DW$67, DW_AT_accessibility(DW_ACCESS_public)
    2108                            .dwattr $C$DW$67, DW_AT_decl_file("../OS/FreeRTOS.h")
    2109                            .dwattr $C$DW$67, DW_AT_decl_line(0x494)
    2110                            .dwattr $C$DW$67, DW_AT_decl_column(0x0a)
    2111                    
    2112                    $C$DW$68        .dwtag  DW_TAG_member
    2113                            .dwattr $C$DW$68, DW_AT_type(*$C$DW$T$25)
    2114                            .dwattr $C$DW$68, DW_AT_name("uxDummy4")
    2115                            .dwattr $C$DW$68, DW_AT_TI_symbol_name("uxDummy4")
    2116                            .dwattr $C$DW$68, DW_AT_data_member_location[DW_OP_plus_uconst 0x20]
    2117                            .dwattr $C$DW$68, DW_AT_accessibility(DW_ACCESS_public)
    2118                            .dwattr $C$DW$68, DW_AT_decl_file("../OS/FreeRTOS.h")
    2119                            .dwattr $C$DW$68, DW_AT_decl_line(0x496)
    2120                            .dwattr $C$DW$68, DW_AT_decl_column(0x0f)
    2121                    
    2122                            .dwattr $C$DW$T$50, DW_AT_decl_file("../OS/FreeRTOS.h")
    2123                            .dwattr $C$DW$T$50, DW_AT_decl_line(0x490)
    2124                            .dwattr $C$DW$T$50, DW_AT_decl_column(0x10)
    2125                            .dwendtag $C$DW$T$50
    2126                    
    2127                    $C$DW$T$200     .dwtag  DW_TAG_typedef
    2128                            .dwattr $C$DW$T$200, DW_AT_name("StaticStreamBuffer_t")
    2129                            .dwattr $C$DW$T$200, DW_AT_type(*$C$DW$T$50)
    2130                            .dwattr $C$DW$T$200, DW_AT_language(DW_LANG_C)
    2131                            .dwattr $C$DW$T$200, DW_AT_decl_file("../OS/FreeRTOS.h")
    2132                            .dwattr $C$DW$T$200, DW_AT_decl_line(0x498)
    2133                            .dwattr $C$DW$T$200, DW_AT_decl_column(0x03)
    2134                    
    2135                    $C$DW$T$201     .dwtag  DW_TAG_typedef
    2136                            .dwattr $C$DW$T$201, DW_AT_name("StaticMessageBuffer_t")
    2137                            .dwattr $C$DW$T$201, DW_AT_type(*$C$DW$T$200)
    2138                            .dwattr $C$DW$T$201, DW_AT_language(DW_LANG_C)
    2139                            .dwattr $C$DW$T$201, DW_AT_decl_file("../OS/FreeRTOS.h")
    2140                            .dwattr $C$DW$T$201, DW_AT_decl_line(0x49b)
    2141                            .dwattr $C$DW$T$201, DW_AT_decl_column(0x1e)
    2142                    
    2143                    
    2144                    $C$DW$T$55      .dwtag  DW_TAG_structure_type
    2145                            .dwattr $C$DW$T$55, DW_AT_name("xSTATIC_TCB")
TI ARM Assembler Unix v18.1.1 Fri Jul  3 20:08:22 2020

Tools Copyright (c) 1996-2017 Texas Instruments Incorporated
App.asm                                                              PAGE   40

    2146                            .dwattr $C$DW$T$55, DW_AT_byte_size(0x58)
    2147                    $C$DW$69        .dwtag  DW_TAG_member
    2148                            .dwattr $C$DW$69, DW_AT_type(*$C$DW$T$3)
    2149                            .dwattr $C$DW$69, DW_AT_name("pxDummy1")
    2150                            .dwattr $C$DW$69, DW_AT_TI_symbol_name("pxDummy1")
    2151                            .dwattr $C$DW$69, DW_AT_data_member_location[DW_OP_plus_uconst 0x0]
    2152                            .dwattr $C$DW$69, DW_AT_accessibility(DW_ACCESS_public)
    2153                            .dwattr $C$DW$69, DW_AT_decl_file("../OS/FreeRTOS.h")
    2154                            .dwattr $C$DW$69, DW_AT_decl_line(0x3e9)
    2155                            .dwattr $C$DW$69, DW_AT_decl_column(0x0b)
    2156                    
    2157                    $C$DW$70        .dwtag  DW_TAG_member
    2158                            .dwattr $C$DW$70, DW_AT_type(*$C$DW$T$52)
    2159                            .dwattr $C$DW$70, DW_AT_name("xDummy3")
    2160                            .dwattr $C$DW$70, DW_AT_TI_symbol_name("xDummy3")
    2161                            .dwattr $C$DW$70, DW_AT_data_member_location[DW_OP_plus_uconst 0x4]
    2162                            .dwattr $C$DW$70, DW_AT_accessibility(DW_ACCESS_public)
    2163                            .dwattr $C$DW$70, DW_AT_decl_file("../OS/FreeRTOS.h")
    2164                            .dwattr $C$DW$70, DW_AT_decl_line(0x3ed)
    2165                            .dwattr $C$DW$70, DW_AT_decl_column(0x13)
    2166                    
    2167                    $C$DW$71        .dwtag  DW_TAG_member
    2168                            .dwattr $C$DW$71, DW_AT_type(*$C$DW$T$25)
    2169                            .dwattr $C$DW$71, DW_AT_name("uxDummy5")
    2170                            .dwattr $C$DW$71, DW_AT_TI_symbol_name("uxDummy5")
    2171                            .dwattr $C$DW$71, DW_AT_data_member_location[DW_OP_plus_uconst 0x2c]
    2172                            .dwattr $C$DW$71, DW_AT_accessibility(DW_ACCESS_public)
    2173                            .dwattr $C$DW$71, DW_AT_decl_file("../OS/FreeRTOS.h")
    2174                            .dwattr $C$DW$71, DW_AT_decl_line(0x3ee)
    2175                            .dwattr $C$DW$71, DW_AT_decl_column(0x10)
    2176                    
    2177                    $C$DW$72        .dwtag  DW_TAG_member
    2178                            .dwattr $C$DW$72, DW_AT_type(*$C$DW$T$3)
    2179                            .dwattr $C$DW$72, DW_AT_name("pxDummy6")
    2180                            .dwattr $C$DW$72, DW_AT_TI_symbol_name("pxDummy6")
    2181                            .dwattr $C$DW$72, DW_AT_data_member_location[DW_OP_plus_uconst 0x30]
    2182                            .dwattr $C$DW$72, DW_AT_accessibility(DW_ACCESS_public)
    2183                            .dwattr $C$DW$72, DW_AT_decl_file("../OS/FreeRTOS.h")
    2184                            .dwattr $C$DW$72, DW_AT_decl_line(0x3ef)
    2185                            .dwattr $C$DW$72, DW_AT_decl_column(0x0b)
    2186                    
    2187                    $C$DW$73        .dwtag  DW_TAG_member
    2188                            .dwattr $C$DW$73, DW_AT_type(*$C$DW$T$53)
    2189                            .dwattr $C$DW$73, DW_AT_name("ucDummy7")
    2190                            .dwattr $C$DW$73, DW_AT_TI_symbol_name("ucDummy7")
    2191                            .dwattr $C$DW$73, DW_AT_data_member_location[DW_OP_plus_uconst 0x34]
    2192                            .dwattr $C$DW$73, DW_AT_accessibility(DW_ACCESS_public)
    2193                            .dwattr $C$DW$73, DW_AT_decl_file("../OS/FreeRTOS.h")
    2194                            .dwattr $C$DW$73, DW_AT_decl_line(0x3f0)
    2195                            .dwattr $C$DW$73, DW_AT_decl_column(0x0d)
    2196                    
    2197                    $C$DW$74        .dwtag  DW_TAG_member
    2198                            .dwattr $C$DW$74, DW_AT_type(*$C$DW$T$54)
    2199                            .dwattr $C$DW$74, DW_AT_name("uxDummy10")
    2200                            .dwattr $C$DW$74, DW_AT_TI_symbol_name("uxDummy10")
TI ARM Assembler Unix v18.1.1 Fri Jul  3 20:08:22 2020

Tools Copyright (c) 1996-2017 Texas Instruments Incorporated
App.asm                                                              PAGE   41

    2201                            .dwattr $C$DW$74, DW_AT_data_member_location[DW_OP_plus_uconst 0x40]
    2202                            .dwattr $C$DW$74, DW_AT_accessibility(DW_ACCESS_public)
    2203                            .dwattr $C$DW$74, DW_AT_decl_file("../OS/FreeRTOS.h")
    2204                            .dwattr $C$DW$74, DW_AT_decl_line(0x3f8)
    2205                            .dwattr $C$DW$74, DW_AT_decl_column(0x10)
    2206                    
    2207                    $C$DW$75        .dwtag  DW_TAG_member
    2208                            .dwattr $C$DW$75, DW_AT_type(*$C$DW$T$54)
    2209                            .dwattr $C$DW$75, DW_AT_name("uxDummy12")
    2210                            .dwattr $C$DW$75, DW_AT_TI_symbol_name("uxDummy12")
    2211                            .dwattr $C$DW$75, DW_AT_data_member_location[DW_OP_plus_uconst 0x48]
    2212                            .dwattr $C$DW$75, DW_AT_accessibility(DW_ACCESS_public)
    2213                            .dwattr $C$DW$75, DW_AT_decl_file("../OS/FreeRTOS.h")
    2214                            .dwattr $C$DW$75, DW_AT_decl_line(0x3fb)
    2215                            .dwattr $C$DW$75, DW_AT_decl_column(0x10)
    2216                    
    2217                    $C$DW$76        .dwtag  DW_TAG_member
    2218                            .dwattr $C$DW$76, DW_AT_type(*$C$DW$T$34)
    2219                            .dwattr $C$DW$76, DW_AT_name("ulDummy18")
    2220                            .dwattr $C$DW$76, DW_AT_TI_symbol_name("ulDummy18")
    2221                            .dwattr $C$DW$76, DW_AT_data_member_location[DW_OP_plus_uconst 0x50]
    2222                            .dwattr $C$DW$76, DW_AT_accessibility(DW_ACCESS_public)
    2223                            .dwattr $C$DW$76, DW_AT_decl_file("../OS/FreeRTOS.h")
    2224                            .dwattr $C$DW$76, DW_AT_decl_line(0x40a)
    2225                            .dwattr $C$DW$76, DW_AT_decl_column(0x0e)
    2226                    
    2227                    $C$DW$77        .dwtag  DW_TAG_member
    2228                            .dwattr $C$DW$77, DW_AT_type(*$C$DW$T$28)
    2229                            .dwattr $C$DW$77, DW_AT_name("ucDummy19")
    2230                            .dwattr $C$DW$77, DW_AT_TI_symbol_name("ucDummy19")
    2231                            .dwattr $C$DW$77, DW_AT_data_member_location[DW_OP_plus_uconst 0x54]
    2232                            .dwattr $C$DW$77, DW_AT_accessibility(DW_ACCESS_public)
    2233                            .dwattr $C$DW$77, DW_AT_decl_file("../OS/FreeRTOS.h")
    2234                            .dwattr $C$DW$77, DW_AT_decl_line(0x40b)
    2235                            .dwattr $C$DW$77, DW_AT_decl_column(0x0d)
    2236                    
    2237                            .dwattr $C$DW$T$55, DW_AT_decl_file("../OS/FreeRTOS.h")
    2238                            .dwattr $C$DW$T$55, DW_AT_decl_line(0x3e7)
    2239                            .dwattr $C$DW$T$55, DW_AT_decl_column(0x10)
    2240                            .dwendtag $C$DW$T$55
    2241                    
    2242                    $C$DW$T$65      .dwtag  DW_TAG_typedef
    2243                            .dwattr $C$DW$T$65, DW_AT_name("StaticTask_t")
    2244                            .dwattr $C$DW$T$65, DW_AT_type(*$C$DW$T$55)
    2245                            .dwattr $C$DW$T$65, DW_AT_language(DW_LANG_C)
    2246                            .dwattr $C$DW$T$65, DW_AT_decl_file("../OS/FreeRTOS.h")
    2247                            .dwattr $C$DW$T$65, DW_AT_decl_line(0x417)
    2248                            .dwattr $C$DW$T$65, DW_AT_decl_column(0x03)
    2249                    
    2250                    $C$DW$T$66      .dwtag  DW_TAG_pointer_type
    2251                            .dwattr $C$DW$T$66, DW_AT_type(*$C$DW$T$65)
    2252                            .dwattr $C$DW$T$66, DW_AT_address_class(0x20)
    2253                    
    2254                    $C$DW$T$67      .dwtag  DW_TAG_pointer_type
    2255                            .dwattr $C$DW$T$67, DW_AT_type(*$C$DW$T$66)
TI ARM Assembler Unix v18.1.1 Fri Jul  3 20:08:22 2020

Tools Copyright (c) 1996-2017 Texas Instruments Incorporated
App.asm                                                              PAGE   42

    2256                            .dwattr $C$DW$T$67, DW_AT_address_class(0x20)
    2257                    
    2258                    
    2259                    $C$DW$T$59      .dwtag  DW_TAG_structure_type
    2260                            .dwattr $C$DW$T$59, DW_AT_name("xSTATIC_TIMER")
    2261                            .dwattr $C$DW$T$59, DW_AT_byte_size(0x2c)
    2262                    $C$DW$78        .dwtag  DW_TAG_member
    2263                            .dwattr $C$DW$78, DW_AT_type(*$C$DW$T$3)
    2264                            .dwattr $C$DW$78, DW_AT_name("pvDummy1")
    2265                            .dwattr $C$DW$78, DW_AT_TI_symbol_name("pvDummy1")
    2266                            .dwattr $C$DW$78, DW_AT_data_member_location[DW_OP_plus_uconst 0x0]
    2267                            .dwattr $C$DW$78, DW_AT_accessibility(DW_ACCESS_public)
    2268                            .dwattr $C$DW$78, DW_AT_decl_file("../OS/FreeRTOS.h")
    2269                            .dwattr $C$DW$78, DW_AT_decl_line(0x472)
    2270                            .dwattr $C$DW$78, DW_AT_decl_column(0x0b)
    2271                    
    2272                    $C$DW$79        .dwtag  DW_TAG_member
    2273                            .dwattr $C$DW$79, DW_AT_type(*$C$DW$T$51)
    2274                            .dwattr $C$DW$79, DW_AT_name("xDummy2")
    2275                            .dwattr $C$DW$79, DW_AT_TI_symbol_name("xDummy2")
    2276                            .dwattr $C$DW$79, DW_AT_data_member_location[DW_OP_plus_uconst 0x4]
    2277                            .dwattr $C$DW$79, DW_AT_accessibility(DW_ACCESS_public)
    2278                            .dwattr $C$DW$79, DW_AT_decl_file("../OS/FreeRTOS.h")
    2279                            .dwattr $C$DW$79, DW_AT_decl_line(0x473)
    2280                            .dwattr $C$DW$79, DW_AT_decl_column(0x13)
    2281                    
    2282                    $C$DW$80        .dwtag  DW_TAG_member
    2283                            .dwattr $C$DW$80, DW_AT_type(*$C$DW$T$35)
    2284                            .dwattr $C$DW$80, DW_AT_name("xDummy3")
    2285                            .dwattr $C$DW$80, DW_AT_TI_symbol_name("xDummy3")
    2286                            .dwattr $C$DW$80, DW_AT_data_member_location[DW_OP_plus_uconst 0x18]
    2287                            .dwattr $C$DW$80, DW_AT_accessibility(DW_ACCESS_public)
    2288                            .dwattr $C$DW$80, DW_AT_decl_file("../OS/FreeRTOS.h")
    2289                            .dwattr $C$DW$80, DW_AT_decl_line(0x474)
    2290                            .dwattr $C$DW$80, DW_AT_decl_column(0x0f)
    2291                    
    2292                    $C$DW$81        .dwtag  DW_TAG_member
    2293                            .dwattr $C$DW$81, DW_AT_type(*$C$DW$T$25)
    2294                            .dwattr $C$DW$81, DW_AT_name("uxDummy4")
    2295                            .dwattr $C$DW$81, DW_AT_TI_symbol_name("uxDummy4")
    2296                            .dwattr $C$DW$81, DW_AT_data_member_location[DW_OP_plus_uconst 0x1c]
    2297                            .dwattr $C$DW$81, DW_AT_accessibility(DW_ACCESS_public)
    2298                            .dwattr $C$DW$81, DW_AT_decl_file("../OS/FreeRTOS.h")
    2299                            .dwattr $C$DW$81, DW_AT_decl_line(0x475)
    2300                            .dwattr $C$DW$81, DW_AT_decl_column(0x10)
    2301                    
    2302                    $C$DW$82        .dwtag  DW_TAG_member
    2303                            .dwattr $C$DW$82, DW_AT_type(*$C$DW$T$3)
    2304                            .dwattr $C$DW$82, DW_AT_name("pvDummy5")
    2305                            .dwattr $C$DW$82, DW_AT_TI_symbol_name("pvDummy5")
    2306                            .dwattr $C$DW$82, DW_AT_data_member_location[DW_OP_plus_uconst 0x20]
    2307                            .dwattr $C$DW$82, DW_AT_accessibility(DW_ACCESS_public)
    2308                            .dwattr $C$DW$82, DW_AT_decl_file("../OS/FreeRTOS.h")
    2309                            .dwattr $C$DW$82, DW_AT_decl_line(0x476)
    2310                            .dwattr $C$DW$82, DW_AT_decl_column(0x0c)
TI ARM Assembler Unix v18.1.1 Fri Jul  3 20:08:22 2020

Tools Copyright (c) 1996-2017 Texas Instruments Incorporated
App.asm                                                              PAGE   43

    2311                    
    2312                    $C$DW$83        .dwtag  DW_TAG_member
    2313                            .dwattr $C$DW$83, DW_AT_type(*$C$DW$T$58)
    2314                            .dwattr $C$DW$83, DW_AT_name("pvDummy6")
    2315                            .dwattr $C$DW$83, DW_AT_TI_symbol_name("pvDummy6")
    2316                            .dwattr $C$DW$83, DW_AT_data_member_location[DW_OP_plus_uconst 0x24]
    2317                            .dwattr $C$DW$83, DW_AT_accessibility(DW_ACCESS_public)
    2318                            .dwattr $C$DW$83, DW_AT_decl_file("../OS/FreeRTOS.h")
    2319                            .dwattr $C$DW$83, DW_AT_decl_line(0x477)
    2320                            .dwattr $C$DW$83, DW_AT_decl_column(0x12)
    2321                    
    2322                    $C$DW$84        .dwtag  DW_TAG_member
    2323                            .dwattr $C$DW$84, DW_AT_type(*$C$DW$T$25)
    2324                            .dwattr $C$DW$84, DW_AT_name("uxDummy7")
    2325                            .dwattr $C$DW$84, DW_AT_TI_symbol_name("uxDummy7")
    2326                            .dwattr $C$DW$84, DW_AT_data_member_location[DW_OP_plus_uconst 0x28]
    2327                            .dwattr $C$DW$84, DW_AT_accessibility(DW_ACCESS_public)
    2328                            .dwattr $C$DW$84, DW_AT_decl_file("../OS/FreeRTOS.h")
    2329                            .dwattr $C$DW$84, DW_AT_decl_line(0x479)
    2330                            .dwattr $C$DW$84, DW_AT_decl_column(0x10)
    2331                    
    2332                            .dwattr $C$DW$T$59, DW_AT_decl_file("../OS/FreeRTOS.h")
    2333                            .dwattr $C$DW$T$59, DW_AT_decl_line(0x470)
    2334                            .dwattr $C$DW$T$59, DW_AT_decl_column(0x10)
    2335                            .dwendtag $C$DW$T$59
    2336                    
    2337                    $C$DW$T$202     .dwtag  DW_TAG_typedef
    2338                            .dwattr $C$DW$T$202, DW_AT_name("StaticTimer_t")
    2339                            .dwattr $C$DW$T$202, DW_AT_type(*$C$DW$T$59)
    2340                            .dwattr $C$DW$T$202, DW_AT_language(DW_LANG_C)
    2341                            .dwattr $C$DW$T$202, DW_AT_decl_file("../OS/FreeRTOS.h")
    2342                            .dwattr $C$DW$T$202, DW_AT_decl_line(0x480)
    2343                            .dwattr $C$DW$T$202, DW_AT_decl_column(0x03)
    2344                    
    2345                            .dwattr $C$DW$CU, DW_AT_language(DW_LANG_C)
    2346                    
    2347                    ;***************************************************************
    2348                    ;* DWARF CIE ENTRIES                                           *
    2349                    ;***************************************************************
    2350                    
    2351                    $C$DW$CIE       .dwcie 14
    2352                            .dwcfi  cfa_register, 13
    2353                            .dwcfi  cfa_offset, 0
    2354                            .dwcfi  same_value, 4
    2355                            .dwcfi  same_value, 5
    2356                            .dwcfi  same_value, 6
    2357                            .dwcfi  same_value, 7
    2358                            .dwcfi  same_value, 8
    2359                            .dwcfi  same_value, 9
    2360                            .dwcfi  same_value, 10
    2361                            .dwcfi  same_value, 11
    2362                            .dwcfi  same_value, 80
    2363                            .dwcfi  same_value, 81
    2364                            .dwcfi  same_value, 82
    2365                            .dwcfi  same_value, 83
TI ARM Assembler Unix v18.1.1 Fri Jul  3 20:08:22 2020

Tools Copyright (c) 1996-2017 Texas Instruments Incorporated
App.asm                                                              PAGE   44

    2366                            .dwcfi  same_value, 84
    2367                            .dwcfi  same_value, 85
    2368                            .dwcfi  same_value, 86
    2369                            .dwcfi  same_value, 87
    2370                            .dwcfi  same_value, 88
    2371                            .dwcfi  same_value, 89
    2372                            .dwcfi  same_value, 90
    2373                            .dwcfi  same_value, 91
    2374                            .dwcfi  same_value, 92
    2375                            .dwcfi  same_value, 93
    2376                            .dwcfi  same_value, 94
    2377                            .dwcfi  same_value, 95
    2378                            .dwendentry
    2379                    
    2380                    ;***************************************************************
    2381                    ;* DWARF REGISTER MAP                                          *
    2382                    ;***************************************************************
    2383                    
    2384                    $C$DW$85        .dwtag  DW_TAG_TI_assign_register
    2385                            .dwattr $C$DW$85, DW_AT_name("A1")
    2386                            .dwattr $C$DW$85, DW_AT_location[DW_OP_reg0]
    2387                    
    2388                    $C$DW$86        .dwtag  DW_TAG_TI_assign_register
    2389                            .dwattr $C$DW$86, DW_AT_name("A2")
    2390                            .dwattr $C$DW$86, DW_AT_location[DW_OP_reg1]
    2391                    
    2392                    $C$DW$87        .dwtag  DW_TAG_TI_assign_register
    2393                            .dwattr $C$DW$87, DW_AT_name("A3")
    2394                            .dwattr $C$DW$87, DW_AT_location[DW_OP_reg2]
    2395                    
    2396                    $C$DW$88        .dwtag  DW_TAG_TI_assign_register
    2397                            .dwattr $C$DW$88, DW_AT_name("A4")
    2398                            .dwattr $C$DW$88, DW_AT_location[DW_OP_reg3]
    2399                    
    2400                    $C$DW$89        .dwtag  DW_TAG_TI_assign_register
    2401                            .dwattr $C$DW$89, DW_AT_name("V1")
    2402                            .dwattr $C$DW$89, DW_AT_location[DW_OP_reg4]
    2403                    
    2404                    $C$DW$90        .dwtag  DW_TAG_TI_assign_register
    2405                            .dwattr $C$DW$90, DW_AT_name("V2")
    2406                            .dwattr $C$DW$90, DW_AT_location[DW_OP_reg5]
    2407                    
    2408                    $C$DW$91        .dwtag  DW_TAG_TI_assign_register
    2409                            .dwattr $C$DW$91, DW_AT_name("V3")
    2410                            .dwattr $C$DW$91, DW_AT_location[DW_OP_reg6]
    2411                    
    2412                    $C$DW$92        .dwtag  DW_TAG_TI_assign_register
    2413                            .dwattr $C$DW$92, DW_AT_name("V4")
    2414                            .dwattr $C$DW$92, DW_AT_location[DW_OP_reg7]
    2415                    
    2416                    $C$DW$93        .dwtag  DW_TAG_TI_assign_register
    2417                            .dwattr $C$DW$93, DW_AT_name("V5")
    2418                            .dwattr $C$DW$93, DW_AT_location[DW_OP_reg8]
    2419                    
    2420                    $C$DW$94        .dwtag  DW_TAG_TI_assign_register
TI ARM Assembler Unix v18.1.1 Fri Jul  3 20:08:22 2020

Tools Copyright (c) 1996-2017 Texas Instruments Incorporated
App.asm                                                              PAGE   45

    2421                            .dwattr $C$DW$94, DW_AT_name("V6")
    2422                            .dwattr $C$DW$94, DW_AT_location[DW_OP_reg9]
    2423                    
    2424                    $C$DW$95        .dwtag  DW_TAG_TI_assign_register
    2425                            .dwattr $C$DW$95, DW_AT_name("V7")
    2426                            .dwattr $C$DW$95, DW_AT_location[DW_OP_reg10]
    2427                    
    2428                    $C$DW$96        .dwtag  DW_TAG_TI_assign_register
    2429                            .dwattr $C$DW$96, DW_AT_name("V8")
    2430                            .dwattr $C$DW$96, DW_AT_location[DW_OP_reg11]
    2431                    
    2432                    $C$DW$97        .dwtag  DW_TAG_TI_assign_register
    2433                            .dwattr $C$DW$97, DW_AT_name("V9")
    2434                            .dwattr $C$DW$97, DW_AT_location[DW_OP_reg12]
    2435                    
    2436                    $C$DW$98        .dwtag  DW_TAG_TI_assign_register
    2437                            .dwattr $C$DW$98, DW_AT_name("SP")
    2438                            .dwattr $C$DW$98, DW_AT_location[DW_OP_reg13]
    2439                    
    2440                    $C$DW$99        .dwtag  DW_TAG_TI_assign_register
    2441                            .dwattr $C$DW$99, DW_AT_name("LR")
    2442                            .dwattr $C$DW$99, DW_AT_location[DW_OP_reg14]
    2443                    
    2444                    $C$DW$100       .dwtag  DW_TAG_TI_assign_register
    2445                            .dwattr $C$DW$100, DW_AT_name("PC")
    2446                            .dwattr $C$DW$100, DW_AT_location[DW_OP_reg15]
    2447                    
    2448                    $C$DW$101       .dwtag  DW_TAG_TI_assign_register
    2449                            .dwattr $C$DW$101, DW_AT_name("SR")
    2450                            .dwattr $C$DW$101, DW_AT_location[DW_OP_reg17]
    2451                    
    2452                    $C$DW$102       .dwtag  DW_TAG_TI_assign_register
    2453                            .dwattr $C$DW$102, DW_AT_name("AP")
    2454                            .dwattr $C$DW$102, DW_AT_location[DW_OP_reg7]
    2455                    
    2456                    $C$DW$103       .dwtag  DW_TAG_TI_assign_register
    2457                            .dwattr $C$DW$103, DW_AT_name("D0")
    2458                            .dwattr $C$DW$103, DW_AT_location[DW_OP_regx 0x40]
    2459                    
    2460                    $C$DW$104       .dwtag  DW_TAG_TI_assign_register
    2461                            .dwattr $C$DW$104, DW_AT_name("D0_hi")
    2462                            .dwattr $C$DW$104, DW_AT_location[DW_OP_regx 0x41]
    2463                    
    2464                    $C$DW$105       .dwtag  DW_TAG_TI_assign_register
    2465                            .dwattr $C$DW$105, DW_AT_name("D1")
    2466                            .dwattr $C$DW$105, DW_AT_location[DW_OP_regx 0x42]
    2467                    
    2468                    $C$DW$106       .dwtag  DW_TAG_TI_assign_register
    2469                            .dwattr $C$DW$106, DW_AT_name("D1_hi")
    2470                            .dwattr $C$DW$106, DW_AT_location[DW_OP_regx 0x43]
    2471                    
    2472                    $C$DW$107       .dwtag  DW_TAG_TI_assign_register
    2473                            .dwattr $C$DW$107, DW_AT_name("D2")
    2474                            .dwattr $C$DW$107, DW_AT_location[DW_OP_regx 0x44]
    2475                    
TI ARM Assembler Unix v18.1.1 Fri Jul  3 20:08:22 2020

Tools Copyright (c) 1996-2017 Texas Instruments Incorporated
App.asm                                                              PAGE   46

    2476                    $C$DW$108       .dwtag  DW_TAG_TI_assign_register
    2477                            .dwattr $C$DW$108, DW_AT_name("D2_hi")
    2478                            .dwattr $C$DW$108, DW_AT_location[DW_OP_regx 0x45]
    2479                    
    2480                    $C$DW$109       .dwtag  DW_TAG_TI_assign_register
    2481                            .dwattr $C$DW$109, DW_AT_name("D3")
    2482                            .dwattr $C$DW$109, DW_AT_location[DW_OP_regx 0x46]
    2483                    
    2484                    $C$DW$110       .dwtag  DW_TAG_TI_assign_register
    2485                            .dwattr $C$DW$110, DW_AT_name("D3_hi")
    2486                            .dwattr $C$DW$110, DW_AT_location[DW_OP_regx 0x47]
    2487                    
    2488                    $C$DW$111       .dwtag  DW_TAG_TI_assign_register
    2489                            .dwattr $C$DW$111, DW_AT_name("D4")
    2490                            .dwattr $C$DW$111, DW_AT_location[DW_OP_regx 0x48]
    2491                    
    2492                    $C$DW$112       .dwtag  DW_TAG_TI_assign_register
    2493                            .dwattr $C$DW$112, DW_AT_name("D4_hi")
    2494                            .dwattr $C$DW$112, DW_AT_location[DW_OP_regx 0x49]
    2495                    
    2496                    $C$DW$113       .dwtag  DW_TAG_TI_assign_register
    2497                            .dwattr $C$DW$113, DW_AT_name("D5")
    2498                            .dwattr $C$DW$113, DW_AT_location[DW_OP_regx 0x4a]
    2499                    
    2500                    $C$DW$114       .dwtag  DW_TAG_TI_assign_register
    2501                            .dwattr $C$DW$114, DW_AT_name("D5_hi")
    2502                            .dwattr $C$DW$114, DW_AT_location[DW_OP_regx 0x4b]
    2503                    
    2504                    $C$DW$115       .dwtag  DW_TAG_TI_assign_register
    2505                            .dwattr $C$DW$115, DW_AT_name("D6")
    2506                            .dwattr $C$DW$115, DW_AT_location[DW_OP_regx 0x4c]
    2507                    
    2508                    $C$DW$116       .dwtag  DW_TAG_TI_assign_register
    2509                            .dwattr $C$DW$116, DW_AT_name("D6_hi")
    2510                            .dwattr $C$DW$116, DW_AT_location[DW_OP_regx 0x4d]
    2511                    
    2512                    $C$DW$117       .dwtag  DW_TAG_TI_assign_register
    2513                            .dwattr $C$DW$117, DW_AT_name("D7")
    2514                            .dwattr $C$DW$117, DW_AT_location[DW_OP_regx 0x4e]
    2515                    
    2516                    $C$DW$118       .dwtag  DW_TAG_TI_assign_register
    2517                            .dwattr $C$DW$118, DW_AT_name("D7_hi")
    2518                            .dwattr $C$DW$118, DW_AT_location[DW_OP_regx 0x4f]
    2519                    
    2520                    $C$DW$119       .dwtag  DW_TAG_TI_assign_register
    2521                            .dwattr $C$DW$119, DW_AT_name("D8")
    2522                            .dwattr $C$DW$119, DW_AT_location[DW_OP_regx 0x50]
    2523                    
    2524                    $C$DW$120       .dwtag  DW_TAG_TI_assign_register
    2525                            .dwattr $C$DW$120, DW_AT_name("D8_hi")
    2526                            .dwattr $C$DW$120, DW_AT_location[DW_OP_regx 0x51]
    2527                    
    2528                    $C$DW$121       .dwtag  DW_TAG_TI_assign_register
    2529                            .dwattr $C$DW$121, DW_AT_name("D9")
    2530                            .dwattr $C$DW$121, DW_AT_location[DW_OP_regx 0x52]
TI ARM Assembler Unix v18.1.1 Fri Jul  3 20:08:22 2020

Tools Copyright (c) 1996-2017 Texas Instruments Incorporated
App.asm                                                              PAGE   47

    2531                    
    2532                    $C$DW$122       .dwtag  DW_TAG_TI_assign_register
    2533                            .dwattr $C$DW$122, DW_AT_name("D9_hi")
    2534                            .dwattr $C$DW$122, DW_AT_location[DW_OP_regx 0x53]
    2535                    
    2536                    $C$DW$123       .dwtag  DW_TAG_TI_assign_register
    2537                            .dwattr $C$DW$123, DW_AT_name("D10")
    2538                            .dwattr $C$DW$123, DW_AT_location[DW_OP_regx 0x54]
    2539                    
    2540                    $C$DW$124       .dwtag  DW_TAG_TI_assign_register
    2541                            .dwattr $C$DW$124, DW_AT_name("D10_hi")
    2542                            .dwattr $C$DW$124, DW_AT_location[DW_OP_regx 0x55]
    2543                    
    2544                    $C$DW$125       .dwtag  DW_TAG_TI_assign_register
    2545                            .dwattr $C$DW$125, DW_AT_name("D11")
    2546                            .dwattr $C$DW$125, DW_AT_location[DW_OP_regx 0x56]
    2547                    
    2548                    $C$DW$126       .dwtag  DW_TAG_TI_assign_register
    2549                            .dwattr $C$DW$126, DW_AT_name("D11_hi")
    2550                            .dwattr $C$DW$126, DW_AT_location[DW_OP_regx 0x57]
    2551                    
    2552                    $C$DW$127       .dwtag  DW_TAG_TI_assign_register
    2553                            .dwattr $C$DW$127, DW_AT_name("D12")
    2554                            .dwattr $C$DW$127, DW_AT_location[DW_OP_regx 0x58]
    2555                    
    2556                    $C$DW$128       .dwtag  DW_TAG_TI_assign_register
    2557                            .dwattr $C$DW$128, DW_AT_name("D12_hi")
    2558                            .dwattr $C$DW$128, DW_AT_location[DW_OP_regx 0x59]
    2559                    
    2560                    $C$DW$129       .dwtag  DW_TAG_TI_assign_register
    2561                            .dwattr $C$DW$129, DW_AT_name("D13")
    2562                            .dwattr $C$DW$129, DW_AT_location[DW_OP_regx 0x5a]
    2563                    
    2564                    $C$DW$130       .dwtag  DW_TAG_TI_assign_register
    2565                            .dwattr $C$DW$130, DW_AT_name("D13_hi")
    2566                            .dwattr $C$DW$130, DW_AT_location[DW_OP_regx 0x5b]
    2567                    
    2568                    $C$DW$131       .dwtag  DW_TAG_TI_assign_register
    2569                            .dwattr $C$DW$131, DW_AT_name("D14")
    2570                            .dwattr $C$DW$131, DW_AT_location[DW_OP_regx 0x5c]
    2571                    
    2572                    $C$DW$132       .dwtag  DW_TAG_TI_assign_register
    2573                            .dwattr $C$DW$132, DW_AT_name("D14_hi")
    2574                            .dwattr $C$DW$132, DW_AT_location[DW_OP_regx 0x5d]
    2575                    
    2576                    $C$DW$133       .dwtag  DW_TAG_TI_assign_register
    2577                            .dwattr $C$DW$133, DW_AT_name("D15")
    2578                            .dwattr $C$DW$133, DW_AT_location[DW_OP_regx 0x5e]
    2579                    
    2580                    $C$DW$134       .dwtag  DW_TAG_TI_assign_register
    2581                            .dwattr $C$DW$134, DW_AT_name("D15_hi")
    2582                            .dwattr $C$DW$134, DW_AT_location[DW_OP_regx 0x5f]
    2583                    
    2584                    $C$DW$135       .dwtag  DW_TAG_TI_assign_register
    2585                            .dwattr $C$DW$135, DW_AT_name("FPEXC")
TI ARM Assembler Unix v18.1.1 Fri Jul  3 20:08:22 2020

Tools Copyright (c) 1996-2017 Texas Instruments Incorporated
App.asm                                                              PAGE   48

    2586                            .dwattr $C$DW$135, DW_AT_location[DW_OP_reg18]
    2587                    
    2588                    $C$DW$136       .dwtag  DW_TAG_TI_assign_register
    2589                            .dwattr $C$DW$136, DW_AT_name("FPSCR")
    2590                            .dwattr $C$DW$136, DW_AT_location[DW_OP_reg19]
    2591                    
    2592                            .dwendtag $C$DW$CU
    2593                    

--------------------------
Thumb2 Statistics
--------------------------
Number of Thumb2 ins converted to Thumb = 0 (0%)
Number of Thumb ins in input = 34 (94%)
Number of Thumb2 ins encoded as Thumb2 = 2 (100%)
Number of Thumb2 ins converted to 2 OPND Thumb = 2


No Assembly Errors, No Assembly Warnings
