TI ARM Assembler Unix v18.1.1 Fri Jul  3 20:08:23 2020

Tools Copyright (c) 1996-2017 Texas Instruments Incorporated
queue.asm                                                            PAGE    1

       1                    ;******************************************************************************
       2                    ;* TI ARM C/C++ Codegen                                      Unix v18.1.1.LTS *
       3                    ;* Date/Time created: Fri Jul  3 20:08:22 2020                                *
       4                    ;******************************************************************************
       5                            .compiler_opts --abi=eabi --arm_vmrs_si_workaround=off --code_state=16 --diag_wrap=off --embed
       6 00000000                   .thumb
       7                    
       8                    $C$DW$CU        .dwtag  DW_TAG_compile_unit
       9                            .dwattr $C$DW$CU, DW_AT_name("../OS/queue.c")
      10                            .dwattr $C$DW$CU, DW_AT_producer("TI TI ARM C/C++ Codegen Unix v18.1.1.LTS Copyright (c) 1996-
      11                            .dwattr $C$DW$CU, DW_AT_TI_version(0x01)
      12                            .dwattr $C$DW$CU, DW_AT_comp_dir("/home/pola/workspace_v8/Microwave/Debug")
      13                    
      14                    $C$DW$1 .dwtag  DW_TAG_subprogram
      15                            .dwattr $C$DW$1, DW_AT_name("vPortEnterCritical")
      16                            .dwattr $C$DW$1, DW_AT_TI_symbol_name("vPortEnterCritical")
      17                            .dwattr $C$DW$1, DW_AT_declaration
      18                            .dwattr $C$DW$1, DW_AT_external
      19                            .dwattr $C$DW$1, DW_AT_decl_file("../OS/portmacro.h")
      20                            .dwattr $C$DW$1, DW_AT_decl_line(0x76)
      21                            .dwattr $C$DW$1, DW_AT_decl_column(0x0d)
      22                            .dwendtag $C$DW$1
      23                    
      24                    
      25                    $C$DW$2 .dwtag  DW_TAG_subprogram
      26                            .dwattr $C$DW$2, DW_AT_name("xTaskRemoveFromEventList")
      27                            .dwattr $C$DW$2, DW_AT_TI_symbol_name("xTaskRemoveFromEventList")
      28                            .dwattr $C$DW$2, DW_AT_type(*$C$DW$T$98)
      29                            .dwattr $C$DW$2, DW_AT_declaration
      30                            .dwattr $C$DW$2, DW_AT_external
      31                            .dwattr $C$DW$2, DW_AT_decl_file("../OS/task.h")
      32                            .dwattr $C$DW$2, DW_AT_decl_line(0x8a6)
      33                            .dwattr $C$DW$2, DW_AT_decl_column(0x0c)
      34                    $C$DW$3 .dwtag  DW_TAG_formal_parameter
      35                            .dwattr $C$DW$3, DW_AT_type(*$C$DW$T$251)
      36                    
      37                            .dwendtag $C$DW$2
      38                    
      39                    
      40                    $C$DW$4 .dwtag  DW_TAG_subprogram
      41                            .dwattr $C$DW$4, DW_AT_name("vListInitialise")
      42                            .dwattr $C$DW$4, DW_AT_TI_symbol_name("vListInitialise")
      43                            .dwattr $C$DW$4, DW_AT_declaration
      44                            .dwattr $C$DW$4, DW_AT_external
      45                            .dwattr $C$DW$4, DW_AT_decl_file("../OS/list.h")
      46                            .dwattr $C$DW$4, DW_AT_decl_line(0x159)
      47                            .dwattr $C$DW$4, DW_AT_decl_column(0x06)
      48                    $C$DW$5 .dwtag  DW_TAG_formal_parameter
      49                            .dwattr $C$DW$5, DW_AT_type(*$C$DW$T$136)
      50                    
      51                            .dwendtag $C$DW$4
      52                    
      53                    
      54                    $C$DW$6 .dwtag  DW_TAG_subprogram
      55                            .dwattr $C$DW$6, DW_AT_name("vPortExitCritical")
TI ARM Assembler Unix v18.1.1 Fri Jul  3 20:08:23 2020

Tools Copyright (c) 1996-2017 Texas Instruments Incorporated
queue.asm                                                            PAGE    2

      56                            .dwattr $C$DW$6, DW_AT_TI_symbol_name("vPortExitCritical")
      57                            .dwattr $C$DW$6, DW_AT_declaration
      58                            .dwattr $C$DW$6, DW_AT_external
      59                            .dwattr $C$DW$6, DW_AT_decl_file("../OS/portmacro.h")
      60                            .dwattr $C$DW$6, DW_AT_decl_line(0x77)
      61                            .dwattr $C$DW$6, DW_AT_decl_column(0x0d)
      62                            .dwendtag $C$DW$6
      63                    
      64                    
      65                    $C$DW$7 .dwtag  DW_TAG_subprogram
      66                            .dwattr $C$DW$7, DW_AT_name("xTaskGetSchedulerState")
      67                            .dwattr $C$DW$7, DW_AT_TI_symbol_name("xTaskGetSchedulerState")
      68                            .dwattr $C$DW$7, DW_AT_type(*$C$DW$T$98)
      69                            .dwattr $C$DW$7, DW_AT_declaration
      70                            .dwattr $C$DW$7, DW_AT_external
      71                            .dwattr $C$DW$7, DW_AT_decl_file("../OS/task.h")
      72                            .dwattr $C$DW$7, DW_AT_decl_line(0x8d3)
      73                            .dwattr $C$DW$7, DW_AT_decl_column(0x0c)
      74                            .dwendtag $C$DW$7
      75                    
      76                    
      77                    $C$DW$8 .dwtag  DW_TAG_subprogram
      78                            .dwattr $C$DW$8, DW_AT_name("vTaskInternalSetTimeOutState")
      79                            .dwattr $C$DW$8, DW_AT_TI_symbol_name("vTaskInternalSetTimeOutState")
      80                            .dwattr $C$DW$8, DW_AT_declaration
      81                            .dwattr $C$DW$8, DW_AT_external
      82                            .dwattr $C$DW$8, DW_AT_decl_file("../OS/task.h")
      83                            .dwattr $C$DW$8, DW_AT_decl_line(0x91a)
      84                            .dwattr $C$DW$8, DW_AT_decl_column(0x06)
      85                    $C$DW$9 .dwtag  DW_TAG_formal_parameter
      86                            .dwattr $C$DW$9, DW_AT_type(*$C$DW$T$150)
      87                    
      88                            .dwendtag $C$DW$8
      89                    
      90                    
      91                    $C$DW$10        .dwtag  DW_TAG_subprogram
      92                            .dwattr $C$DW$10, DW_AT_name("vTaskSuspendAll")
      93                            .dwattr $C$DW$10, DW_AT_TI_symbol_name("vTaskSuspendAll")
      94                            .dwattr $C$DW$10, DW_AT_declaration
      95                            .dwattr $C$DW$10, DW_AT_external
      96                            .dwattr $C$DW$10, DW_AT_decl_file("../OS/task.h")
      97                            .dwattr $C$DW$10, DW_AT_decl_line(0x4fa)
      98                            .dwattr $C$DW$10, DW_AT_decl_column(0x06)
      99                            .dwendtag $C$DW$10
     100                    
     101                    
     102                    $C$DW$11        .dwtag  DW_TAG_subprogram
     103                            .dwattr $C$DW$11, DW_AT_name("xTaskCheckForTimeOut")
     104                            .dwattr $C$DW$11, DW_AT_TI_symbol_name("xTaskCheckForTimeOut")
     105                            .dwattr $C$DW$11, DW_AT_type(*$C$DW$T$98)
     106                            .dwattr $C$DW$11, DW_AT_declaration
     107                            .dwattr $C$DW$11, DW_AT_external
     108                            .dwattr $C$DW$11, DW_AT_decl_file("../OS/task.h")
     109                            .dwattr $C$DW$11, DW_AT_decl_line(0x8c7)
     110                            .dwattr $C$DW$11, DW_AT_decl_column(0x0c)
TI ARM Assembler Unix v18.1.1 Fri Jul  3 20:08:23 2020

Tools Copyright (c) 1996-2017 Texas Instruments Incorporated
queue.asm                                                            PAGE    3

     111                    $C$DW$12        .dwtag  DW_TAG_formal_parameter
     112                            .dwattr $C$DW$12, DW_AT_type(*$C$DW$T$150)
     113                    
     114                    $C$DW$13        .dwtag  DW_TAG_formal_parameter
     115                            .dwattr $C$DW$13, DW_AT_type(*$C$DW$T$242)
     116                    
     117                            .dwendtag $C$DW$11
     118                    
     119                    
     120                    $C$DW$14        .dwtag  DW_TAG_subprogram
     121                            .dwattr $C$DW$14, DW_AT_name("vTaskPlaceOnEventList")
     122                            .dwattr $C$DW$14, DW_AT_TI_symbol_name("vTaskPlaceOnEventList")
     123                            .dwattr $C$DW$14, DW_AT_declaration
     124                            .dwattr $C$DW$14, DW_AT_external
     125                            .dwattr $C$DW$14, DW_AT_decl_file("../OS/task.h")
     126                            .dwattr $C$DW$14, DW_AT_decl_line(0x87e)
     127                            .dwattr $C$DW$14, DW_AT_decl_column(0x06)
     128                    $C$DW$15        .dwtag  DW_TAG_formal_parameter
     129                            .dwattr $C$DW$15, DW_AT_type(*$C$DW$T$136)
     130                    
     131                    $C$DW$16        .dwtag  DW_TAG_formal_parameter
     132                            .dwattr $C$DW$16, DW_AT_type(*$C$DW$T$139)
     133                    
     134                            .dwendtag $C$DW$14
     135                    
     136                    
     137                    $C$DW$17        .dwtag  DW_TAG_subprogram
     138                            .dwattr $C$DW$17, DW_AT_name("xTaskResumeAll")
     139                            .dwattr $C$DW$17, DW_AT_TI_symbol_name("xTaskResumeAll")
     140                            .dwattr $C$DW$17, DW_AT_type(*$C$DW$T$98)
     141                            .dwattr $C$DW$17, DW_AT_declaration
     142                            .dwattr $C$DW$17, DW_AT_external
     143                            .dwattr $C$DW$17, DW_AT_decl_file("../OS/task.h")
     144                            .dwattr $C$DW$17, DW_AT_decl_line(0x530)
     145                            .dwattr $C$DW$17, DW_AT_decl_column(0x0c)
     146                            .dwendtag $C$DW$17
     147                    
     148                    
     149                    $C$DW$18        .dwtag  DW_TAG_subprogram
     150                            .dwattr $C$DW$18, DW_AT_name("vPortValidateInterruptPriority")
     151                            .dwattr $C$DW$18, DW_AT_TI_symbol_name("vPortValidateInterruptPriority")
     152                            .dwattr $C$DW$18, DW_AT_declaration
     153                            .dwattr $C$DW$18, DW_AT_external
     154                            .dwattr $C$DW$18, DW_AT_decl_file("../OS/portmacro.h")
     155                            .dwattr $C$DW$18, DW_AT_decl_line(0x97)
     156                            .dwattr $C$DW$18, DW_AT_decl_column(0x07)
     157                            .dwendtag $C$DW$18
     158                    
     159                    
     160                    $C$DW$19        .dwtag  DW_TAG_subprogram
     161                            .dwattr $C$DW$19, DW_AT_name("pvTaskIncrementMutexHeldCount")
     162                            .dwattr $C$DW$19, DW_AT_TI_symbol_name("pvTaskIncrementMutexHeldCount")
     163                            .dwattr $C$DW$19, DW_AT_type(*$C$DW$T$45)
     164                            .dwattr $C$DW$19, DW_AT_declaration
     165                            .dwattr $C$DW$19, DW_AT_external
TI ARM Assembler Unix v18.1.1 Fri Jul  3 20:08:23 2020

Tools Copyright (c) 1996-2017 Texas Instruments Incorporated
queue.asm                                                            PAGE    4

     166                            .dwattr $C$DW$19, DW_AT_decl_file("../OS/task.h")
     167                            .dwattr $C$DW$19, DW_AT_decl_line(0x914)
     168                            .dwattr $C$DW$19, DW_AT_decl_column(0x0e)
     169                            .dwendtag $C$DW$19
     170                    
     171                    
     172                    $C$DW$20        .dwtag  DW_TAG_subprogram
     173                            .dwattr $C$DW$20, DW_AT_name("xTaskPriorityInherit")
     174                            .dwattr $C$DW$20, DW_AT_TI_symbol_name("xTaskPriorityInherit")
     175                            .dwattr $C$DW$20, DW_AT_type(*$C$DW$T$98)
     176                            .dwattr $C$DW$20, DW_AT_declaration
     177                            .dwattr $C$DW$20, DW_AT_external
     178                            .dwattr $C$DW$20, DW_AT_decl_file("../OS/task.h")
     179                            .dwattr $C$DW$20, DW_AT_decl_line(0x8d9)
     180                            .dwattr $C$DW$20, DW_AT_decl_column(0x0c)
     181                    $C$DW$21        .dwtag  DW_TAG_formal_parameter
     182                            .dwattr $C$DW$21, DW_AT_type(*$C$DW$T$145)
     183                    
     184                            .dwendtag $C$DW$20
     185                    
     186                    
     187                    $C$DW$22        .dwtag  DW_TAG_subprogram
     188                            .dwattr $C$DW$22, DW_AT_name("vTaskPriorityDisinheritAfterTimeout")
     189                            .dwattr $C$DW$22, DW_AT_TI_symbol_name("vTaskPriorityDisinheritAfterTimeout")
     190                            .dwattr $C$DW$22, DW_AT_declaration
     191                            .dwattr $C$DW$22, DW_AT_external
     192                            .dwattr $C$DW$22, DW_AT_decl_file("../OS/task.h")
     193                            .dwattr $C$DW$22, DW_AT_decl_line(0x8e9)
     194                            .dwattr $C$DW$22, DW_AT_decl_column(0x06)
     195                    $C$DW$23        .dwtag  DW_TAG_formal_parameter
     196                            .dwattr $C$DW$23, DW_AT_type(*$C$DW$T$145)
     197                    
     198                    $C$DW$24        .dwtag  DW_TAG_formal_parameter
     199                            .dwattr $C$DW$24, DW_AT_type(*$C$DW$T$29)
     200                    
     201                            .dwendtag $C$DW$22
     202                    
     203                    
     204                    $C$DW$25        .dwtag  DW_TAG_subprogram
     205                            .dwattr $C$DW$25, DW_AT_name("xTaskPriorityDisinherit")
     206                            .dwattr $C$DW$25, DW_AT_TI_symbol_name("xTaskPriorityDisinherit")
     207                            .dwattr $C$DW$25, DW_AT_type(*$C$DW$T$98)
     208                            .dwattr $C$DW$25, DW_AT_declaration
     209                            .dwattr $C$DW$25, DW_AT_external
     210                            .dwattr $C$DW$25, DW_AT_decl_file("../OS/task.h")
     211                            .dwattr $C$DW$25, DW_AT_decl_line(0x8df)
     212                            .dwattr $C$DW$25, DW_AT_decl_column(0x0c)
     213                    $C$DW$26        .dwtag  DW_TAG_formal_parameter
     214                            .dwattr $C$DW$26, DW_AT_type(*$C$DW$T$145)
     215                    
     216                            .dwendtag $C$DW$25
     217                    
     218                    
     219                    $C$DW$27        .dwtag  DW_TAG_subprogram
     220                            .dwattr $C$DW$27, DW_AT_name("vTaskMissedYield")
TI ARM Assembler Unix v18.1.1 Fri Jul  3 20:08:23 2020

Tools Copyright (c) 1996-2017 Texas Instruments Incorporated
queue.asm                                                            PAGE    5

     221                            .dwattr $C$DW$27, DW_AT_TI_symbol_name("vTaskMissedYield")
     222                            .dwattr $C$DW$27, DW_AT_declaration
     223                            .dwattr $C$DW$27, DW_AT_external
     224                            .dwattr $C$DW$27, DW_AT_decl_file("../OS/task.h")
     225                            .dwattr $C$DW$27, DW_AT_decl_line(0x8cd)
     226                            .dwattr $C$DW$27, DW_AT_decl_column(0x06)
     227                            .dwendtag $C$DW$27
     228                    
     229                    
     230                    $C$DW$28        .dwtag  DW_TAG_subprogram
     231                            .dwattr $C$DW$28, DW_AT_name("vTaskPlaceOnEventListRestricted")
     232                            .dwattr $C$DW$28, DW_AT_TI_symbol_name("vTaskPlaceOnEventListRestricted")
     233                            .dwattr $C$DW$28, DW_AT_declaration
     234                            .dwattr $C$DW$28, DW_AT_external
     235                            .dwattr $C$DW$28, DW_AT_decl_file("../OS/task.h")
     236                            .dwattr $C$DW$28, DW_AT_decl_line(0x88c)
     237                            .dwattr $C$DW$28, DW_AT_decl_column(0x06)
     238                    $C$DW$29        .dwtag  DW_TAG_formal_parameter
     239                            .dwattr $C$DW$29, DW_AT_type(*$C$DW$T$136)
     240                    
     241                    $C$DW$30        .dwtag  DW_TAG_formal_parameter
     242                            .dwattr $C$DW$30, DW_AT_type(*$C$DW$T$54)
     243                    
     244                    $C$DW$31        .dwtag  DW_TAG_formal_parameter
     245                            .dwattr $C$DW$31, DW_AT_type(*$C$DW$T$142)
     246                    
     247                            .dwendtag $C$DW$28
     248                    
     249                    ;       /home/pola/ti/ccsv8/tools/compiler/ti-cgt-arm_18.1.1.LTS/bin/armacpia -@/tmp/TI3MKQerYiC 
     250 00000000                   .sect   ".text"
     251                            .clink
     252                            .thumbfunc xQueueGenericReset
     253 00000000                   .thumb
     254                            .global xQueueGenericReset
     255                    
     256                    $C$DW$32        .dwtag  DW_TAG_subprogram
     257                            .dwattr $C$DW$32, DW_AT_name("xQueueGenericReset")
     258                            .dwattr $C$DW$32, DW_AT_low_pc(xQueueGenericReset)
     259                            .dwattr $C$DW$32, DW_AT_high_pc(0x00)
     260                            .dwattr $C$DW$32, DW_AT_TI_symbol_name("xQueueGenericReset")
     261                            .dwattr $C$DW$32, DW_AT_external
     262                            .dwattr $C$DW$32, DW_AT_type(*$C$DW$T$98)
     263                            .dwattr $C$DW$32, DW_AT_TI_begin_file("../OS/queue.c")
     264                            .dwattr $C$DW$32, DW_AT_TI_begin_line(0xff)
     265                            .dwattr $C$DW$32, DW_AT_TI_begin_column(0x0c)
     266                            .dwattr $C$DW$32, DW_AT_decl_file("../OS/queue.c")
     267                            .dwattr $C$DW$32, DW_AT_decl_line(0xff)
     268                            .dwattr $C$DW$32, DW_AT_decl_column(0x0c)
     269                            .dwattr $C$DW$32, DW_AT_TI_max_frame_size(0x10)
     270                            .dwpsn  file "../OS/queue.c",line 256,column 1,is_stmt,address xQueueGenericReset,isa 1
     271                    
     272                            .dwfde $C$DW$CIE, xQueueGenericReset
     273                    $C$DW$33        .dwtag  DW_TAG_formal_parameter
     274                            .dwattr $C$DW$33, DW_AT_name("xQueue")
     275                            .dwattr $C$DW$33, DW_AT_TI_symbol_name("xQueue")
TI ARM Assembler Unix v18.1.1 Fri Jul  3 20:08:23 2020

Tools Copyright (c) 1996-2017 Texas Instruments Incorporated
queue.asm                                                            PAGE    6

     276                            .dwattr $C$DW$33, DW_AT_type(*$C$DW$T$110)
     277                            .dwattr $C$DW$33, DW_AT_location[DW_OP_reg0]
     278                    
     279                    $C$DW$34        .dwtag  DW_TAG_formal_parameter
     280                            .dwattr $C$DW$34, DW_AT_name("xNewQueue")
     281                            .dwattr $C$DW$34, DW_AT_TI_symbol_name("xNewQueue")
     282                            .dwattr $C$DW$34, DW_AT_type(*$C$DW$T$98)
     283                            .dwattr $C$DW$34, DW_AT_location[DW_OP_reg1]
     284                    
     285                    ;----------------------------------------------------------------------
     286                    ; 255 | BaseType_t xQueueGenericReset( QueueHandle_t xQueue, BaseType_t xNewQue
     287                    ;     | ue )                                                                   
     288                    ;----------------------------------------------------------------------
     289                    
     290                    ;*****************************************************************************
     291                    ;* FUNCTION NAME: xQueueGenericReset                                         *
     292                    ;*                                                                           *
     293                    ;*   Regs Modified     : A1,A2,A3,A4,V9,SP,LR,SR,D0,D0_hi,D1,D1_hi,D2,D2_hi, *
     294                    ;*                           D3,D3_hi,D4,D4_hi,D5,D5_hi,D6,D6_hi,D7,D7_hi,   *
     295                    ;*                           FPEXC,FPSCR                                     *
     296                    ;*   Regs Used         : A1,A2,A3,A4,V9,SP,LR,SR,D0,D0_hi,D1,D1_hi,D2,D2_hi, *
     297                    ;*                           D3,D3_hi,D4,D4_hi,D5,D5_hi,D6,D6_hi,D7,D7_hi,   *
     298                    ;*                           FPEXC,FPSCR                                     *
     299                    ;*   Local Frame Size  : 0 Args + 12 Auto + 4 Save = 16 byte                 *
     300                    ;*****************************************************************************
     301 00000000           xQueueGenericReset:
     302                    ;* --------------------------------------------------------------------------*
     303                            .dwcfi  cfa_offset, 0
     304 00000000 B50E              PUSH      {A2, A3, A4, LR}      ; [DPU_V7M3_PIPE]  ; [ORIG 16-BIT INS]
     305                            .dwcfi  cfa_offset, 16
     306                            .dwcfi  save_reg_to_mem, 14, -4
     307                            .dwcfi  save_reg_to_mem, 3, -8
     308                            .dwcfi  save_reg_to_mem, 2, -12
     309                            .dwcfi  save_reg_to_mem, 1, -16
     310                    $C$DW$35        .dwtag  DW_TAG_variable
     311                            .dwattr $C$DW$35, DW_AT_name("xQueue")
     312                            .dwattr $C$DW$35, DW_AT_TI_symbol_name("xQueue")
     313                            .dwattr $C$DW$35, DW_AT_type(*$C$DW$T$110)
     314                            .dwattr $C$DW$35, DW_AT_location[DW_OP_breg13 0]
     315                    
     316                    $C$DW$36        .dwtag  DW_TAG_variable
     317                            .dwattr $C$DW$36, DW_AT_name("xNewQueue")
     318                            .dwattr $C$DW$36, DW_AT_TI_symbol_name("xNewQueue")
     319                            .dwattr $C$DW$36, DW_AT_type(*$C$DW$T$98)
     320                            .dwattr $C$DW$36, DW_AT_location[DW_OP_breg13 4]
     321                    
     322                    $C$DW$37        .dwtag  DW_TAG_variable
     323                            .dwattr $C$DW$37, DW_AT_name("pxQueue")
     324                            .dwattr $C$DW$37, DW_AT_TI_symbol_name("pxQueue")
     325                            .dwattr $C$DW$37, DW_AT_type(*$C$DW$T$127)
     326                            .dwattr $C$DW$37, DW_AT_location[DW_OP_breg13 8]
     327                    
     328 00000002 9101              STR       A2, [SP, #4]          ; [DPU_V7M3_PIPE] |256|  ; [ORIG 16-BIT INS]
     329 00000004 9000              STR       A1, [SP, #0]          ; [DPU_V7M3_PIPE] |256|  ; [ORIG 16-BIT INS]
     330                            .dwpsn  file "../OS/queue.c",line 257,column 25,is_stmt,isa 1
TI ARM Assembler Unix v18.1.1 Fri Jul  3 20:08:23 2020

Tools Copyright (c) 1996-2017 Texas Instruments Incorporated
queue.asm                                                            PAGE    7

     331                    ;----------------------------------------------------------------------
     332                    ; 257 | Queue_t * const pxQueue = xQueue;                                      
     333                    ;----------------------------------------------------------------------
     334 00000006 9800              LDR       A1, [SP, #0]          ; [DPU_V7M3_PIPE] |257|  ; [ORIG 16-BIT INS]
     335 00000008 9002              STR       A1, [SP, #8]          ; [DPU_V7M3_PIPE] |257|  ; [ORIG 16-BIT INS]
     336                            .dwpsn  file "../OS/queue.c",line 259,column 2,is_stmt,isa 1
     337                    ;----------------------------------------------------------------------
     338                    ; 259 | configASSERT( pxQueue );                                               
     339                    ;----------------------------------------------------------------------
     340 0000000a 9802              LDR       A1, [SP, #8]          ; [DPU_V7M3_PIPE] |259|  ; [ORIG 16-BIT INS]
     341 0000000c B938              CBNZ      A1, ||$C$L2||         ; []  ; [ORIG 16-BIT INS]
     342                            ; BRANCHCC OCCURS {||$C$L2||}    ; [] |259| 
     343                    ;* --------------------------------------------------------------------------*
     344 0000000e 20A0              MOVS      A1, #160              ; [DPU_V7M3_PIPE] |259|  ; [ORIG 16-BIT INS]
     345 00000010 8811F380          MSR       BASEPRI, A1           ; [DPU_V7M3_PIPE] |259|  ; [KEEP 32-BIT INS]
     346 00000014 8F4FF3BF          dsb ; [KEEP 32-BIT INS]
     347 00000018 8F6FF3BF          isb ; [KEEP 32-BIT INS]
     348                    ;* --------------------------------------------------------------------------*
     349                    ;*   BEGIN LOOP ||$C$L1||
     350                    ;*
     351                    ;*   Loop source line                : 259
     352                    ;*   Loop closing brace source line  : 259
     353                    ;*   Known Minimum Trip Count        : 1
     354                    ;*   Known Maximum Trip Count        : 4294967295
     355                    ;*   Known Max Trip Count Factor     : 1
     356                    ;* --------------------------------------------------------------------------*
     357 0000001c           ||$C$L1||:    
     358 0000001c E7FE              B         ||$C$L1||             ; [DPU_V7M3_PIPE] |259|  ; [ORIG 16-BIT INS]
     359                            ; BRANCH OCCURS {||$C$L1||}      ; [] |259| 
     360                    ;* --------------------------------------------------------------------------*
     361 0000001e           ||$C$L2||:    
     362                            .dwpsn  file "../OS/queue.c",line 261,column 2,is_stmt,isa 1
     363                    ;----------------------------------------------------------------------
     364                    ; 261 | taskENTER_CRITICAL();                                                  
     365                    ;----------------------------------------------------------------------
     366                    $C$DW$38        .dwtag  DW_TAG_TI_branch
     367                            .dwattr $C$DW$38, DW_AT_low_pc(0x00)
     368                            .dwattr $C$DW$38, DW_AT_name("vPortEnterCritical")
     369                            .dwattr $C$DW$38, DW_AT_TI_call
     370                    
     371 0000001e FFFEF7FF!         BL        vPortEnterCritical    ; [DPU_V7M3_PIPE] |261|  ; [KEEP 32-BIT INS]
     372                            ; CALL OCCURS {vPortEnterCritical }  ; [] |261| 
     373                            .dwpsn  file "../OS/queue.c",line 263,column 3,is_stmt,isa 1
     374                    ;----------------------------------------------------------------------
     375                    ; 263 | pxQueue->u.xQueue.pcTail = pxQueue->pcHead + ( pxQueue->uxLength * pxQu
     376                    ;     | eue->uxItemSize ); /*lint !e9016 Pointer arithmetic allowed on char typ
     377                    ;     | es, especially when it assists conveying intent. */                    
     378                    ;----------------------------------------------------------------------
     379 00000022 9902              LDR       A2, [SP, #8]          ; [DPU_V7M3_PIPE] |263|  ; [ORIG 16-BIT INS]
     380 00000024 9A02              LDR       A3, [SP, #8]          ; [DPU_V7M3_PIPE] |263|  ; [ORIG 16-BIT INS]
     381 00000026 9802              LDR       A1, [SP, #8]          ; [DPU_V7M3_PIPE] |263|  ; [ORIG 16-BIT INS]
     382 00000028 9B02              LDR       A4, [SP, #8]          ; [DPU_V7M3_PIPE] |263|  ; [ORIG 16-BIT INS]
     383 0000002a 6BC9              LDR       A2, [A2, #60]         ; [DPU_V7M3_PIPE] |263|  ; [ORIG 16-BIT INS]
     384 0000002c 6C12              LDR       A3, [A3, #64]         ; [DPU_V7M3_PIPE] |263|  ; [ORIG 16-BIT INS]
     385 0000002e 6800              LDR       A1, [A1, #0]          ; [DPU_V7M3_PIPE] |263|  ; [ORIG 16-BIT INS]
TI ARM Assembler Unix v18.1.1 Fri Jul  3 20:08:23 2020

Tools Copyright (c) 1996-2017 Texas Instruments Incorporated
queue.asm                                                            PAGE    8

     386 00000030 0001FB02          MLA       A1, A3, A2, A1        ; [DPU_V7M3_PIPE] |263|  ; [KEEP 32-BIT INS]
     387 00000034 6098              STR       A1, [A4, #8]          ; [DPU_V7M3_PIPE] |263|  ; [ORIG 16-BIT INS]
     388                            .dwpsn  file "../OS/queue.c",line 264,column 3,is_stmt,isa 1
     389                    ;----------------------------------------------------------------------
     390                    ; 264 | pxQueue->uxMessagesWaiting = ( UBaseType_t ) 0U;                       
     391                    ;----------------------------------------------------------------------
     392 00000036 9802              LDR       A1, [SP, #8]          ; [DPU_V7M3_PIPE] |264|  ; [ORIG 16-BIT INS]
     393 00000038 2100              MOVS      A2, #0                ; [DPU_V7M3_PIPE] |264|  ; [ORIG 16-BIT INS]
     394 0000003a 6381              STR       A2, [A1, #56]         ; [DPU_V7M3_PIPE] |264|  ; [ORIG 16-BIT INS]
     395                            .dwpsn  file "../OS/queue.c",line 265,column 3,is_stmt,isa 1
     396                    ;----------------------------------------------------------------------
     397                    ; 265 | pxQueue->pcWriteTo = pxQueue->pcHead;                                  
     398                    ;----------------------------------------------------------------------
     399 0000003c 9802              LDR       A1, [SP, #8]          ; [DPU_V7M3_PIPE] |265|  ; [ORIG 16-BIT INS]
     400 0000003e 9902              LDR       A2, [SP, #8]          ; [DPU_V7M3_PIPE] |265|  ; [ORIG 16-BIT INS]
     401 00000040 6800              LDR       A1, [A1, #0]          ; [DPU_V7M3_PIPE] |265|  ; [ORIG 16-BIT INS]
     402 00000042 6048              STR       A1, [A2, #4]          ; [DPU_V7M3_PIPE] |265|  ; [ORIG 16-BIT INS]
     403                            .dwpsn  file "../OS/queue.c",line 266,column 3,is_stmt,isa 1
     404                    ;----------------------------------------------------------------------
     405                    ; 266 | pxQueue->u.xQueue.pcReadFrom = pxQueue->pcHead + ( ( pxQueue->uxLength
     406                    ;     | - 1U ) * pxQueue->uxItemSize ); /*lint !e9016 Pointer arithmetic allowe
     407                    ;     | d on char types, especially when it assists conveying intent. */       
     408                    ;----------------------------------------------------------------------
     409 00000044 9802              LDR       A1, [SP, #8]          ; [DPU_V7M3_PIPE] |266|  ; [ORIG 16-BIT INS]
     410 00000046 9A02              LDR       A3, [SP, #8]          ; [DPU_V7M3_PIPE] |266|  ; [ORIG 16-BIT INS]
     411 00000048 9902              LDR       A2, [SP, #8]          ; [DPU_V7M3_PIPE] |266|  ; [ORIG 16-BIT INS]
     412 0000004a 9B02              LDR       A4, [SP, #8]          ; [DPU_V7M3_PIPE] |266|  ; [ORIG 16-BIT INS]
     413 0000004c 6BC0              LDR       A1, [A1, #60]         ; [DPU_V7M3_PIPE] |266|  ; [ORIG 16-BIT INS]
     414 0000004e 6C12              LDR       A3, [A3, #64]         ; [DPU_V7M3_PIPE] |266|  ; [ORIG 16-BIT INS]
     415 00000050 6809              LDR       A2, [A2, #0]          ; [DPU_V7M3_PIPE] |266|  ; [ORIG 16-BIT INS]
     416 00000052 1E40              SUBS      A1, A1, #1            ; [DPU_V7M3_PIPE] |266|  ; [ORIG 16-BIT INS]
     417 00000054 1000FB02          MLA       A1, A3, A1, A2        ; [DPU_V7M3_PIPE] |266|  ; [KEEP 32-BIT INS]
     418 00000058 60D8              STR       A1, [A4, #12]         ; [DPU_V7M3_PIPE] |266|  ; [ORIG 16-BIT INS]
     419                            .dwpsn  file "../OS/queue.c",line 267,column 3,is_stmt,isa 1
     420                    ;----------------------------------------------------------------------
     421                    ; 267 | pxQueue->cRxLock = queueUNLOCKED;                                      
     422                    ;----------------------------------------------------------------------
     423 0000005a 9802              LDR       A1, [SP, #8]          ; [DPU_V7M3_PIPE] |267|  ; [ORIG 16-BIT INS]
     424 0000005c 31FFF04F          MOV       A2, #-1               ; [DPU_V7M3_PIPE] |267|  ; [KEEP 32-BIT INS]
     425 00000060 1044F880          STRB      A2, [A1, #68]         ; [DPU_V7M3_PIPE] |267|  ; [KEEP 32-BIT INS]
     426                            .dwpsn  file "../OS/queue.c",line 268,column 3,is_stmt,isa 1
     427                    ;----------------------------------------------------------------------
     428                    ; 268 | pxQueue->cTxLock = queueUNLOCKED;                                      
     429                    ;----------------------------------------------------------------------
     430 00000064 9802              LDR       A1, [SP, #8]          ; [DPU_V7M3_PIPE] |268|  ; [ORIG 16-BIT INS]
     431 00000066 31FFF04F          MOV       A2, #-1               ; [DPU_V7M3_PIPE] |268|  ; [KEEP 32-BIT INS]
     432 0000006a 1045F880          STRB      A2, [A1, #69]         ; [DPU_V7M3_PIPE] |268|  ; [KEEP 32-BIT INS]
     433                            .dwpsn  file "../OS/queue.c",line 270,column 3,is_stmt,isa 1
     434                    ;----------------------------------------------------------------------
     435                    ; 270 | if( xNewQueue == pdFALSE )                                             
     436                    ;----------------------------------------------------------------------
     437 0000006e 9801              LDR       A1, [SP, #4]          ; [DPU_V7M3_PIPE] |270|  ; [ORIG 16-BIT INS]
     438 00000070 B9A0              CBNZ      A1, ||$C$L5||         ; []  ; [ORIG 16-BIT INS]
     439                            ; BRANCHCC OCCURS {||$C$L5||}    ; [] |270| 
     440                    ;* --------------------------------------------------------------------------*
TI ARM Assembler Unix v18.1.1 Fri Jul  3 20:08:23 2020

Tools Copyright (c) 1996-2017 Texas Instruments Incorporated
queue.asm                                                            PAGE    9

     441                            .dwpsn  file "../OS/queue.c",line 277,column 4,is_stmt,isa 1
     442                    ;----------------------------------------------------------------------
     443                    ; 277 | if( listLIST_IS_EMPTY( &( pxQueue->xTasksWaitingToSend ) ) == pdFALSE )
     444                    ;----------------------------------------------------------------------
     445 00000072 9802              LDR       A1, [SP, #8]          ; [DPU_V7M3_PIPE] |277|  ; [ORIG 16-BIT INS]
     446 00000074 6900              LDR       A1, [A1, #16]         ; [DPU_V7M3_PIPE] |277|  ; [ORIG 16-BIT INS]
     447 00000076 B908              CBNZ      A1, ||$C$L3||         ; []  ; [ORIG 16-BIT INS]
     448                            ; BRANCHCC OCCURS {||$C$L3||}    ; [] |277| 
     449                    ;* --------------------------------------------------------------------------*
     450 00000078 2001              MOVS      A1, #1                ; [DPU_V7M3_PIPE] |277|  ; [ORIG 16-BIT INS]
     451 0000007a E000              B         ||$C$L4||             ; [DPU_V7M3_PIPE] |277|  ; [ORIG 16-BIT INS]
     452                            ; BRANCH OCCURS {||$C$L4||}      ; [] |277| 
     453                    ;* --------------------------------------------------------------------------*
     454 0000007c           ||$C$L3||:    
     455 0000007c 2000              MOVS      A1, #0                ; [DPU_V7M3_PIPE] |277|  ; [ORIG 16-BIT INS]
     456                    ;* --------------------------------------------------------------------------*
     457 0000007e           ||$C$L4||:    
     458 0000007e B9A8              CBNZ      A1, ||$C$L6||         ; []  ; [ORIG 16-BIT INS]
     459                            ; BRANCHCC OCCURS {||$C$L6||}    ; [] |277| 
     460                    ;* --------------------------------------------------------------------------*
     461                            .dwpsn  file "../OS/queue.c",line 279,column 5,is_stmt,isa 1
     462                    ;----------------------------------------------------------------------
     463                    ; 279 | if( xTaskRemoveFromEventList( &( pxQueue->xTasksWaitingToSend ) ) != pd
     464                    ;     | FALSE )                                                                
     465                    ;----------------------------------------------------------------------
     466 00000080 9802              LDR       A1, [SP, #8]          ; [DPU_V7M3_PIPE] |279|  ; [ORIG 16-BIT INS]
     467 00000082 3010              ADDS      A1, A1, #16           ; [DPU_V7M3_PIPE] |279|  ; [ORIG 16-BIT INS]
     468                    $C$DW$39        .dwtag  DW_TAG_TI_branch
     469                            .dwattr $C$DW$39, DW_AT_low_pc(0x00)
     470                            .dwattr $C$DW$39, DW_AT_name("xTaskRemoveFromEventList")
     471                            .dwattr $C$DW$39, DW_AT_TI_call
     472                    
     473 00000084 FFFEF7FF!         BL        xTaskRemoveFromEventList ; [DPU_V7M3_PIPE] |279|  ; [KEEP 32-BIT INS]
     474                            ; CALL OCCURS {xTaskRemoveFromEventList }  ; [] |279| 
     475 00000088 B180              CBZ       A1, ||$C$L6||         ; []  ; [ORIG 16-BIT INS]
     476                            ; BRANCHCC OCCURS {||$C$L6||}    ; [] |279| 
     477                    ;* --------------------------------------------------------------------------*
     478                            .dwpsn  file "../OS/queue.c",line 281,column 6,is_stmt,isa 1
     479                    ;----------------------------------------------------------------------
     480                    ; 281 | queueYIELD_IF_USING_PREEMPTION();                                      
     481                    ;----------------------------------------------------------------------
     482 0000008a 4966              LDR       A2, $C$CON1           ; [DPU_V7M3_PIPE] |281|  ; [ORIG 16-BIT INS]
     483 0000008c 5080F04F          MOV       A1, #268435456        ; [DPU_V7M3_PIPE] |281|  ; [KEEP 32-BIT INS]
     484 00000090 6008              STR       A1, [A2, #0]          ; [DPU_V7M3_PIPE] |281|  ; [ORIG 16-BIT INS]
     485 00000092 8F4FF3BF          dsb ; [KEEP 32-BIT INS]
     486 00000096 8F6FF3BF          isb ; [KEEP 32-BIT INS]
     487                            .dwpsn  file "../OS/queue.c",line 282,column 5,is_stmt,isa 1
     488                    ;----------------------------------------------------------------------
     489                    ; 283 | else                                                                   
     490                    ; 285 |         mtCOVERAGE_TEST_MARKER();                                      
     491                    ; 288 | else                                                                   
     492                    ; 290 | mtCOVERAGE_TEST_MARKER();                                              
     493                    ; 293 | else                                                                   
     494                    ;----------------------------------------------------------------------
     495 0000009a E007              B         ||$C$L6||             ; [DPU_V7M3_PIPE] |282|  ; [ORIG 16-BIT INS]
TI ARM Assembler Unix v18.1.1 Fri Jul  3 20:08:23 2020

Tools Copyright (c) 1996-2017 Texas Instruments Incorporated
queue.asm                                                            PAGE   10

     496                            ; BRANCH OCCURS {||$C$L6||}      ; [] |282| 
     497                    ;* --------------------------------------------------------------------------*
     498                    ;* --------------------------------------------------------------------------*
     499 0000009c           ||$C$L5||:    
     500                            .dwpsn  file "../OS/queue.c",line 296,column 4,is_stmt,isa 1
     501                    ;----------------------------------------------------------------------
     502                    ; 296 | vListInitialise( &( pxQueue->xTasksWaitingToSend ) );                  
     503                    ;----------------------------------------------------------------------
     504 0000009c 9802              LDR       A1, [SP, #8]          ; [DPU_V7M3_PIPE] |296|  ; [ORIG 16-BIT INS]
     505 0000009e 3010              ADDS      A1, A1, #16           ; [DPU_V7M3_PIPE] |296|  ; [ORIG 16-BIT INS]
     506                    $C$DW$40        .dwtag  DW_TAG_TI_branch
     507                            .dwattr $C$DW$40, DW_AT_low_pc(0x00)
     508                            .dwattr $C$DW$40, DW_AT_name("vListInitialise")
     509                            .dwattr $C$DW$40, DW_AT_TI_call
     510                    
     511 000000a0 FFFEF7FF!         BL        vListInitialise       ; [DPU_V7M3_PIPE] |296|  ; [KEEP 32-BIT INS]
     512                            ; CALL OCCURS {vListInitialise }  ; [] |296| 
     513                            .dwpsn  file "../OS/queue.c",line 297,column 4,is_stmt,isa 1
     514                    ;----------------------------------------------------------------------
     515                    ; 297 | vListInitialise( &( pxQueue->xTasksWaitingToReceive ) );               
     516                    ;----------------------------------------------------------------------
     517 000000a4 9802              LDR       A1, [SP, #8]          ; [DPU_V7M3_PIPE] |297|  ; [ORIG 16-BIT INS]
     518 000000a6 3024              ADDS      A1, A1, #36           ; [DPU_V7M3_PIPE] |297|  ; [ORIG 16-BIT INS]
     519                    $C$DW$41        .dwtag  DW_TAG_TI_branch
     520                            .dwattr $C$DW$41, DW_AT_low_pc(0x00)
     521                            .dwattr $C$DW$41, DW_AT_name("vListInitialise")
     522                            .dwattr $C$DW$41, DW_AT_TI_call
     523                    
     524 000000a8 FFFEF7FF!         BL        vListInitialise       ; [DPU_V7M3_PIPE] |297|  ; [KEEP 32-BIT INS]
     525                            ; CALL OCCURS {vListInitialise }  ; [] |297| 
     526                    ;* --------------------------------------------------------------------------*
     527 000000ac           ||$C$L6||:    
     528                            .dwpsn  file "../OS/queue.c",line 300,column 2,is_stmt,isa 1
     529                    ;----------------------------------------------------------------------
     530                    ; 300 | taskEXIT_CRITICAL();                                                   
     531                    ;----------------------------------------------------------------------
     532                    $C$DW$42        .dwtag  DW_TAG_TI_branch
     533                            .dwattr $C$DW$42, DW_AT_low_pc(0x00)
     534                            .dwattr $C$DW$42, DW_AT_name("vPortExitCritical")
     535                            .dwattr $C$DW$42, DW_AT_TI_call
     536                    
     537 000000ac FFFEF7FF!         BL        vPortExitCritical     ; [DPU_V7M3_PIPE] |300|  ; [KEEP 32-BIT INS]
     538                            ; CALL OCCURS {vPortExitCritical }  ; [] |300| 
     539                            .dwpsn  file "../OS/queue.c",line 304,column 2,is_stmt,isa 1
     540                    ;----------------------------------------------------------------------
     541                    ; 304 | return pdPASS;                                                         
     542                    ;----------------------------------------------------------------------
     543 000000b0 2001              MOVS      A1, #1                ; [DPU_V7M3_PIPE] |304|  ; [ORIG 16-BIT INS]
     544                            .dwpsn  file "../OS/queue.c",line 305,column 1,is_stmt,isa 1
     545                    $C$DW$43        .dwtag  DW_TAG_TI_branch
     546                            .dwattr $C$DW$43, DW_AT_low_pc(0x00)
     547                            .dwattr $C$DW$43, DW_AT_TI_return
     548                    
     549 000000b2 BD0E              POP       {A2, A3, A4, PC}      ; [DPU_V7M3_PIPE]  ; [ORIG 16-BIT INS]
     550                            .dwcfi  cfa_offset, 0
TI ARM Assembler Unix v18.1.1 Fri Jul  3 20:08:23 2020

Tools Copyright (c) 1996-2017 Texas Instruments Incorporated
queue.asm                                                            PAGE   11

     551                            .dwcfi  restore_reg, 3
     552                            .dwcfi  restore_reg, 2
     553                            .dwcfi  restore_reg, 1
     554                            ; BRANCH OCCURS                  ; [] 
     555                            .dwattr $C$DW$32, DW_AT_TI_end_file("../OS/queue.c")
     556                            .dwattr $C$DW$32, DW_AT_TI_end_line(0x131)
     557                            .dwattr $C$DW$32, DW_AT_TI_end_column(0x01)
     558                            .dwendentry
     559                            .dwendtag $C$DW$32
     560                    
     561 000000b4                   .sect   ".text"
     562                            .clink
     563                            .thumbfunc xQueueGenericCreateStatic
     564 000000b4                   .thumb
     565                            .global xQueueGenericCreateStatic
     566                    
     567                    $C$DW$44        .dwtag  DW_TAG_subprogram
     568                            .dwattr $C$DW$44, DW_AT_name("xQueueGenericCreateStatic")
     569                            .dwattr $C$DW$44, DW_AT_low_pc(xQueueGenericCreateStatic)
     570                            .dwattr $C$DW$44, DW_AT_high_pc(0x00)
     571                            .dwattr $C$DW$44, DW_AT_TI_symbol_name("xQueueGenericCreateStatic")
     572                            .dwattr $C$DW$44, DW_AT_external
     573                            .dwattr $C$DW$44, DW_AT_type(*$C$DW$T$110)
     574                            .dwattr $C$DW$44, DW_AT_TI_begin_file("../OS/queue.c")
     575                            .dwattr $C$DW$44, DW_AT_TI_begin_line(0x136)
     576                            .dwattr $C$DW$44, DW_AT_TI_begin_column(0x10)
     577                            .dwattr $C$DW$44, DW_AT_decl_file("../OS/queue.c")
     578                            .dwattr $C$DW$44, DW_AT_decl_line(0x136)
     579                            .dwattr $C$DW$44, DW_AT_decl_column(0x10)
     580                            .dwattr $C$DW$44, DW_AT_TI_max_frame_size(0x28)
     581                            .dwpsn  file "../OS/queue.c",line 311,column 2,is_stmt,address xQueueGenericCreateStatic,isa 1
     582                    
     583                            .dwfde $C$DW$CIE, xQueueGenericCreateStatic
     584                    $C$DW$45        .dwtag  DW_TAG_formal_parameter
     585                            .dwattr $C$DW$45, DW_AT_name("uxQueueLength")
     586                            .dwattr $C$DW$45, DW_AT_TI_symbol_name("uxQueueLength")
     587                            .dwattr $C$DW$45, DW_AT_type(*$C$DW$T$112)
     588                            .dwattr $C$DW$45, DW_AT_location[DW_OP_reg0]
     589                    
     590                    $C$DW$46        .dwtag  DW_TAG_formal_parameter
     591                            .dwattr $C$DW$46, DW_AT_name("uxItemSize")
     592                            .dwattr $C$DW$46, DW_AT_TI_symbol_name("uxItemSize")
     593                            .dwattr $C$DW$46, DW_AT_type(*$C$DW$T$112)
     594                            .dwattr $C$DW$46, DW_AT_location[DW_OP_reg1]
     595                    
     596                    $C$DW$47        .dwtag  DW_TAG_formal_parameter
     597                            .dwattr $C$DW$47, DW_AT_name("pucQueueStorage")
     598                            .dwattr $C$DW$47, DW_AT_TI_symbol_name("pucQueueStorage")
     599                            .dwattr $C$DW$47, DW_AT_type(*$C$DW$T$33)
     600                            .dwattr $C$DW$47, DW_AT_location[DW_OP_reg2]
     601                    
     602                    $C$DW$48        .dwtag  DW_TAG_formal_parameter
     603                            .dwattr $C$DW$48, DW_AT_name("pxStaticQueue")
     604                            .dwattr $C$DW$48, DW_AT_TI_symbol_name("pxStaticQueue")
     605                            .dwattr $C$DW$48, DW_AT_type(*$C$DW$T$114)
TI ARM Assembler Unix v18.1.1 Fri Jul  3 20:08:23 2020

Tools Copyright (c) 1996-2017 Texas Instruments Incorporated
queue.asm                                                            PAGE   12

     606                            .dwattr $C$DW$48, DW_AT_location[DW_OP_reg3]
     607                    
     608                    $C$DW$49        .dwtag  DW_TAG_formal_parameter
     609                            .dwattr $C$DW$49, DW_AT_name("ucQueueType")
     610                            .dwattr $C$DW$49, DW_AT_TI_symbol_name("ucQueueType")
     611                            .dwattr $C$DW$49, DW_AT_type(*$C$DW$T$115)
     612                            .dwattr $C$DW$49, DW_AT_location[DW_OP_breg13 40]
     613                    
     614                    ;----------------------------------------------------------------------
     615                    ; 310 | QueueHandle_t xQueueGenericCreateStatic( const UBaseType_t uxQueueLengt
     616                    ;     | h, const UBaseType_t uxItemSize, uint8_t *pucQueueStorage, StaticQueue_
     617                    ;     | t *pxStaticQueue, const uint8_t ucQueueType )                          
     618                    ;----------------------------------------------------------------------
     619                    
     620                    ;*****************************************************************************
     621                    ;* FUNCTION NAME: xQueueGenericCreateStatic                                  *
     622                    ;*                                                                           *
     623                    ;*   Regs Modified     : A1,A2,A3,A4,V4,V9,SP,LR,SR,D0,D0_hi,D1,D1_hi,D2,    *
     624                    ;*                           D2_hi,D3,D3_hi,D4,D4_hi,D5,D5_hi,D6,D6_hi,D7,   *
     625                    ;*                           D7_hi,FPEXC,FPSCR                               *
     626                    ;*   Regs Used         : A1,A2,A3,A4,V4,V9,SP,LR,SR,D0,D0_hi,D1,D1_hi,D2,    *
     627                    ;*                           D2_hi,D3,D3_hi,D4,D4_hi,D5,D5_hi,D6,D6_hi,D7,   *
     628                    ;*                           D7_hi,FPEXC,FPSCR                               *
     629                    ;*   Local Frame Size  : 4 Args + 24 Auto + 8 Save = 36 byte                 *
     630                    ;*****************************************************************************
     631 000000b4           xQueueGenericCreateStatic:
     632                    ;* --------------------------------------------------------------------------*
     633                            .dwcfi  cfa_offset, 0
     634 000000b4 B580              PUSH      {V4, LR}              ; [DPU_V7M3_PIPE]  ; [ORIG 16-BIT INS]
     635                            .dwcfi  cfa_offset, 8
     636                            .dwcfi  save_reg_to_mem, 14, -4
     637                            .dwcfi  save_reg_to_mem, 7, -8
     638 000000b6 AF02              ADD       V4, SP, #8            ; [DPU_V7M3_PIPE]  ; [ORIG 16-BIT INS]
     639 000000b8 0D20F1AD          SUB       SP, SP, #32           ; [DPU_V7M3_PIPE]  ; [KEEP 32-BIT INS]
     640                            .dwcfi  cfa_offset, 40
     641                    $C$DW$50        .dwtag  DW_TAG_variable
     642                            .dwattr $C$DW$50, DW_AT_name("uxQueueLength")
     643                            .dwattr $C$DW$50, DW_AT_TI_symbol_name("uxQueueLength")
     644                            .dwattr $C$DW$50, DW_AT_type(*$C$DW$T$112)
     645                            .dwattr $C$DW$50, DW_AT_location[DW_OP_breg13 4]
     646                    
     647                    $C$DW$51        .dwtag  DW_TAG_variable
     648                            .dwattr $C$DW$51, DW_AT_name("uxItemSize")
     649                            .dwattr $C$DW$51, DW_AT_TI_symbol_name("uxItemSize")
     650                            .dwattr $C$DW$51, DW_AT_type(*$C$DW$T$112)
     651                            .dwattr $C$DW$51, DW_AT_location[DW_OP_breg13 8]
     652                    
     653                    $C$DW$52        .dwtag  DW_TAG_variable
     654                            .dwattr $C$DW$52, DW_AT_name("pucQueueStorage")
     655                            .dwattr $C$DW$52, DW_AT_TI_symbol_name("pucQueueStorage")
     656                            .dwattr $C$DW$52, DW_AT_type(*$C$DW$T$33)
     657                            .dwattr $C$DW$52, DW_AT_location[DW_OP_breg13 12]
     658                    
     659                    $C$DW$53        .dwtag  DW_TAG_variable
     660                            .dwattr $C$DW$53, DW_AT_name("pxStaticQueue")
TI ARM Assembler Unix v18.1.1 Fri Jul  3 20:08:23 2020

Tools Copyright (c) 1996-2017 Texas Instruments Incorporated
queue.asm                                                            PAGE   13

     661                            .dwattr $C$DW$53, DW_AT_TI_symbol_name("pxStaticQueue")
     662                            .dwattr $C$DW$53, DW_AT_type(*$C$DW$T$114)
     663                            .dwattr $C$DW$53, DW_AT_location[DW_OP_breg13 16]
     664                    
     665                    $C$DW$54        .dwtag  DW_TAG_variable
     666                            .dwattr $C$DW$54, DW_AT_name("pxNewQueue")
     667                            .dwattr $C$DW$54, DW_AT_TI_symbol_name("pxNewQueue")
     668                            .dwattr $C$DW$54, DW_AT_type(*$C$DW$T$126)
     669                            .dwattr $C$DW$54, DW_AT_location[DW_OP_breg13 20]
     670                    
     671                    ;----------------------------------------------------------------------
     672                    ; 312 | Queue_t *pxNewQueue;                                                   
     673                    ;----------------------------------------------------------------------
     674 000000bc 9304              STR       A4, [SP, #16]         ; [DPU_V7M3_PIPE] |311|  ; [ORIG 16-BIT INS]
     675 000000be 9203              STR       A3, [SP, #12]         ; [DPU_V7M3_PIPE] |311|  ; [ORIG 16-BIT INS]
     676 000000c0 9102              STR       A2, [SP, #8]          ; [DPU_V7M3_PIPE] |311|  ; [ORIG 16-BIT INS]
     677 000000c2 9001              STR       A1, [SP, #4]          ; [DPU_V7M3_PIPE] |311|  ; [ORIG 16-BIT INS]
     678                            .dwpsn  file "../OS/queue.c",line 314,column 3,is_stmt,isa 1
     679                    ;----------------------------------------------------------------------
     680                    ; 314 | configASSERT( uxQueueLength > ( UBaseType_t ) 0 );                     
     681                    ;----------------------------------------------------------------------
     682 000000c4 9901              LDR       A2, [SP, #4]          ; [DPU_V7M3_PIPE] |314|  ; [ORIG 16-BIT INS]
     683 000000c6 2000              MOVS      A1, #0                ; [DPU_V7M3_PIPE] |314|  ; [ORIG 16-BIT INS]
     684 000000c8 B101              CBZ       A2, ||$C$L7||         ; []  ; [ORIG 16-BIT INS]
     685                            ; BRANCHCC OCCURS {||$C$L7||}    ; [] |314| 
     686                    ;* --------------------------------------------------------------------------*
     687 000000ca 2001              MOVS      A1, #1                ; [DPU_V7M3_PIPE] |314|  ; [ORIG 16-BIT INS]
     688                    ;* --------------------------------------------------------------------------*
     689 000000cc           ||$C$L7||:    
     690 000000cc B938              CBNZ      A1, ||$C$L9||         ; []  ; [ORIG 16-BIT INS]
     691                            ; BRANCHCC OCCURS {||$C$L9||}    ; [] |314| 
     692                    ;* --------------------------------------------------------------------------*
     693 000000ce 20A0              MOVS      A1, #160              ; [DPU_V7M3_PIPE] |314|  ; [ORIG 16-BIT INS]
     694 000000d0 8811F380          MSR       BASEPRI, A1           ; [DPU_V7M3_PIPE] |314|  ; [KEEP 32-BIT INS]
     695 000000d4 8F4FF3BF          dsb ; [KEEP 32-BIT INS]
     696 000000d8 8F6FF3BF          isb ; [KEEP 32-BIT INS]
     697                    ;* --------------------------------------------------------------------------*
     698                    ;*   BEGIN LOOP ||$C$L8||
     699                    ;*
     700                    ;*   Loop source line                : 314
     701                    ;*   Loop closing brace source line  : 314
     702                    ;*   Known Minimum Trip Count        : 1
     703                    ;*   Known Maximum Trip Count        : 4294967295
     704                    ;*   Known Max Trip Count Factor     : 1
     705                    ;* --------------------------------------------------------------------------*
     706 000000dc           ||$C$L8||:    
     707 000000dc E7FE              B         ||$C$L8||             ; [DPU_V7M3_PIPE] |314|  ; [ORIG 16-BIT INS]
     708                            ; BRANCH OCCURS {||$C$L8||}      ; [] |314| 
     709                    ;* --------------------------------------------------------------------------*
     710 000000de           ||$C$L9||:    
     711                            .dwpsn  file "../OS/queue.c",line 318,column 3,is_stmt,isa 1
     712                    ;----------------------------------------------------------------------
     713                    ; 318 | configASSERT( pxStaticQueue != NULL );                                 
     714                    ;----------------------------------------------------------------------
     715 000000de 9904              LDR       A2, [SP, #16]         ; [DPU_V7M3_PIPE] |318|  ; [ORIG 16-BIT INS]
TI ARM Assembler Unix v18.1.1 Fri Jul  3 20:08:23 2020

Tools Copyright (c) 1996-2017 Texas Instruments Incorporated
queue.asm                                                            PAGE   14

     716 000000e0 2000              MOVS      A1, #0                ; [DPU_V7M3_PIPE] |318|  ; [ORIG 16-BIT INS]
     717 000000e2 B101              CBZ       A2, ||$C$L10||        ; []  ; [ORIG 16-BIT INS]
     718                            ; BRANCHCC OCCURS {||$C$L10||}   ; [] |318| 
     719                    ;* --------------------------------------------------------------------------*
     720 000000e4 2001              MOVS      A1, #1                ; [DPU_V7M3_PIPE] |318|  ; [ORIG 16-BIT INS]
     721                    ;* --------------------------------------------------------------------------*
     722 000000e6           ||$C$L10||:    
     723 000000e6 B938              CBNZ      A1, ||$C$L12||        ; []  ; [ORIG 16-BIT INS]
     724                            ; BRANCHCC OCCURS {||$C$L12||}   ; [] |318| 
     725                    ;* --------------------------------------------------------------------------*
     726 000000e8 20A0              MOVS      A1, #160              ; [DPU_V7M3_PIPE] |318|  ; [ORIG 16-BIT INS]
     727 000000ea 8811F380          MSR       BASEPRI, A1           ; [DPU_V7M3_PIPE] |318|  ; [KEEP 32-BIT INS]
     728 000000ee 8F4FF3BF          dsb ; [KEEP 32-BIT INS]
     729 000000f2 8F6FF3BF          isb ; [KEEP 32-BIT INS]
     730                    ;* --------------------------------------------------------------------------*
     731                    ;*   BEGIN LOOP ||$C$L11||
     732                    ;*
     733                    ;*   Loop source line                : 318
     734                    ;*   Loop closing brace source line  : 318
     735                    ;*   Known Minimum Trip Count        : 1
     736                    ;*   Known Maximum Trip Count        : 4294967295
     737                    ;*   Known Max Trip Count Factor     : 1
     738                    ;* --------------------------------------------------------------------------*
     739 000000f6           ||$C$L11||:    
     740 000000f6 E7FE              B         ||$C$L11||            ; [DPU_V7M3_PIPE] |318|  ; [ORIG 16-BIT INS]
     741                            ; BRANCH OCCURS {||$C$L11||}     ; [] |318| 
     742                    ;* --------------------------------------------------------------------------*
     743 000000f8           ||$C$L12||:    
     744                            .dwpsn  file "../OS/queue.c",line 322,column 3,is_stmt,isa 1
     745                    ;----------------------------------------------------------------------
     746                    ; 322 | configASSERT( !( ( pucQueueStorage != NULL ) && ( uxItemSize == 0 ) ) )
     747                    ;     | ;                                                                      
     748                    ;----------------------------------------------------------------------
     749 000000f8 9A03              LDR       A3, [SP, #12]         ; [DPU_V7M3_PIPE] |322|  ; [ORIG 16-BIT INS]
     750 000000fa 2000              MOVS      A1, #0                ; [DPU_V7M3_PIPE] |322|  ; [ORIG 16-BIT INS]
     751 000000fc 2100              MOVS      A2, #0                ; [DPU_V7M3_PIPE] |322|  ; [ORIG 16-BIT INS]
     752 000000fe B112              CBZ       A3, ||$C$L13||        ; []  ; [ORIG 16-BIT INS]
     753                            ; BRANCHCC OCCURS {||$C$L13||}   ; [] |322| 
     754                    ;* --------------------------------------------------------------------------*
     755 00000100 9A02              LDR       A3, [SP, #8]          ; [DPU_V7M3_PIPE] |322|  ; [ORIG 16-BIT INS]
     756 00000102 B902              CBNZ      A3, ||$C$L13||        ; []  ; [ORIG 16-BIT INS]
     757                            ; BRANCHCC OCCURS {||$C$L13||}   ; [] |322| 
     758                    ;* --------------------------------------------------------------------------*
     759 00000104 2101              MOVS      A2, #1                ; [DPU_V7M3_PIPE] |322|  ; [ORIG 16-BIT INS]
     760                    ;* --------------------------------------------------------------------------*
     761 00000106           ||$C$L13||:    
     762 00000106 B901              CBNZ      A2, ||$C$L14||        ; []  ; [ORIG 16-BIT INS]
     763                            ; BRANCHCC OCCURS {||$C$L14||}   ; [] |322| 
     764                    ;* --------------------------------------------------------------------------*
     765 00000108 2001              MOVS      A1, #1                ; [DPU_V7M3_PIPE] |322|  ; [ORIG 16-BIT INS]
     766                    ;* --------------------------------------------------------------------------*
     767 0000010a           ||$C$L14||:    
     768 0000010a B938              CBNZ      A1, ||$C$L16||        ; []  ; [ORIG 16-BIT INS]
     769                            ; BRANCHCC OCCURS {||$C$L16||}   ; [] |322| 
     770                    ;* --------------------------------------------------------------------------*
TI ARM Assembler Unix v18.1.1 Fri Jul  3 20:08:23 2020

Tools Copyright (c) 1996-2017 Texas Instruments Incorporated
queue.asm                                                            PAGE   15

     771 0000010c 20A0              MOVS      A1, #160              ; [DPU_V7M3_PIPE] |322|  ; [ORIG 16-BIT INS]
     772 0000010e 8811F380          MSR       BASEPRI, A1           ; [DPU_V7M3_PIPE] |322|  ; [KEEP 32-BIT INS]
     773 00000112 8F4FF3BF          dsb ; [KEEP 32-BIT INS]
     774 00000116 8F6FF3BF          isb ; [KEEP 32-BIT INS]
     775                    ;* --------------------------------------------------------------------------*
     776                    ;*   BEGIN LOOP ||$C$L15||
     777                    ;*
     778                    ;*   Loop source line                : 322
     779                    ;*   Loop closing brace source line  : 322
     780                    ;*   Known Minimum Trip Count        : 1
     781                    ;*   Known Maximum Trip Count        : 4294967295
     782                    ;*   Known Max Trip Count Factor     : 1
     783                    ;* --------------------------------------------------------------------------*
     784 0000011a           ||$C$L15||:    
     785 0000011a E7FE              B         ||$C$L15||            ; [DPU_V7M3_PIPE] |322|  ; [ORIG 16-BIT INS]
     786                            ; BRANCH OCCURS {||$C$L15||}     ; [] |322| 
     787                    ;* --------------------------------------------------------------------------*
     788 0000011c           ||$C$L16||:    
     789                            .dwpsn  file "../OS/queue.c",line 323,column 3,is_stmt,isa 1
     790                    ;----------------------------------------------------------------------
     791                    ; 323 | configASSERT( !( ( pucQueueStorage == NULL ) && ( uxItemSize != 0 ) ) )
     792                    ;     | ;                                                                      
     793                    ; 325 | #if( configASSERT_DEFINED == 1 )                                       
     794                    ;----------------------------------------------------------------------
     795 0000011c 9A03              LDR       A3, [SP, #12]         ; [DPU_V7M3_PIPE] |323|  ; [ORIG 16-BIT INS]
     796 0000011e 2000              MOVS      A1, #0                ; [DPU_V7M3_PIPE] |323|  ; [ORIG 16-BIT INS]
     797 00000120 2100              MOVS      A2, #0                ; [DPU_V7M3_PIPE] |323|  ; [ORIG 16-BIT INS]
     798 00000122 B912              CBNZ      A3, ||$C$L17||        ; []  ; [ORIG 16-BIT INS]
     799                            ; BRANCHCC OCCURS {||$C$L17||}   ; [] |323| 
     800                    ;* --------------------------------------------------------------------------*
     801 00000124 9A02              LDR       A3, [SP, #8]          ; [DPU_V7M3_PIPE] |323|  ; [ORIG 16-BIT INS]
     802 00000126 B102              CBZ       A3, ||$C$L17||        ; []  ; [ORIG 16-BIT INS]
     803                            ; BRANCHCC OCCURS {||$C$L17||}   ; [] |323| 
     804                    ;* --------------------------------------------------------------------------*
     805 00000128 2101              MOVS      A2, #1                ; [DPU_V7M3_PIPE] |323|  ; [ORIG 16-BIT INS]
     806                    ;* --------------------------------------------------------------------------*
     807 0000012a           ||$C$L17||:    
     808 0000012a B901              CBNZ      A2, ||$C$L18||        ; []  ; [ORIG 16-BIT INS]
     809                            ; BRANCHCC OCCURS {||$C$L18||}   ; [] |323| 
     810                    ;* --------------------------------------------------------------------------*
     811 0000012c 2001              MOVS      A1, #1                ; [DPU_V7M3_PIPE] |323|  ; [ORIG 16-BIT INS]
     812                    ;* --------------------------------------------------------------------------*
     813 0000012e           ||$C$L18||:    
     814 0000012e B938              CBNZ      A1, ||$C$L20||        ; []  ; [ORIG 16-BIT INS]
     815                            ; BRANCHCC OCCURS {||$C$L20||}   ; [] |323| 
     816                    ;* --------------------------------------------------------------------------*
     817 00000130 20A0              MOVS      A1, #160              ; [DPU_V7M3_PIPE] |323|  ; [ORIG 16-BIT INS]
     818 00000132 8811F380          MSR       BASEPRI, A1           ; [DPU_V7M3_PIPE] |323|  ; [KEEP 32-BIT INS]
     819 00000136 8F4FF3BF          dsb ; [KEEP 32-BIT INS]
     820 0000013a 8F6FF3BF          isb ; [KEEP 32-BIT INS]
     821                    ;* --------------------------------------------------------------------------*
     822                    ;*   BEGIN LOOP ||$C$L19||
     823                    ;*
     824                    ;*   Loop source line                : 323
     825                    ;*   Loop closing brace source line  : 323
TI ARM Assembler Unix v18.1.1 Fri Jul  3 20:08:23 2020

Tools Copyright (c) 1996-2017 Texas Instruments Incorporated
queue.asm                                                            PAGE   16

     826                    ;*   Known Minimum Trip Count        : 1
     827                    ;*   Known Maximum Trip Count        : 4294967295
     828                    ;*   Known Max Trip Count Factor     : 1
     829                    ;* --------------------------------------------------------------------------*
     830 0000013e           ||$C$L19||:    
     831 0000013e E7FE              B         ||$C$L19||            ; [DPU_V7M3_PIPE] |323|  ; [ORIG 16-BIT INS]
     832                            ; BRANCH OCCURS {||$C$L19||}     ; [] |323| 
     833                    ;* --------------------------------------------------------------------------*
     834                    ||$C$L20||:    
     835                    
     836                    $C$DW$55        .dwtag  DW_TAG_lexical_block
     837                            .dwattr $C$DW$55, DW_AT_low_pc(0x00)
     838                            .dwattr $C$DW$55, DW_AT_high_pc(0x00)
     839                    $C$DW$56        .dwtag  DW_TAG_variable
     840                            .dwattr $C$DW$56, DW_AT_name("xSize")
     841                            .dwattr $C$DW$56, DW_AT_TI_symbol_name("xSize")
     842                            .dwattr $C$DW$56, DW_AT_type(*$C$DW$T$246)
     843                            .dwattr $C$DW$56, DW_AT_location[DW_OP_breg13 24]
     844                    
     845                            .dwpsn  file "../OS/queue.c",line 330,column 26,is_stmt,isa 1
     846                    ;----------------------------------------------------------------------
     847                    ; 330 | volatile size_t xSize = sizeof( StaticQueue_t );                       
     848                    ;----------------------------------------------------------------------
     849 00000140 2050              MOVS      A1, #80               ; [DPU_V7M3_PIPE] |330|  ; [ORIG 16-BIT INS]
     850 00000142 9006              STR       A1, [SP, #24]         ; [DPU_V7M3_PIPE] |330|  ; [ORIG 16-BIT INS]
     851                            .dwpsn  file "../OS/queue.c",line 331,column 4,is_stmt,isa 1
     852                    ;----------------------------------------------------------------------
     853                    ; 331 | configASSERT( xSize == sizeof( Queue_t ) );                            
     854                    ;----------------------------------------------------------------------
     855 00000144 9906              LDR       A2, [SP, #24]         ; [DPU_V7M3_PIPE] |331|  ; [ORIG 16-BIT INS]
     856 00000146 2000              MOVS      A1, #0                ; [DPU_V7M3_PIPE] |331|  ; [ORIG 16-BIT INS]
     857 00000148 2950              CMP       A2, #80               ; [DPU_V7M3_PIPE] |331|  ; [ORIG 16-BIT INS]
     858 0000014a D100              BNE       ||$C$L21||            ; [DPU_V7M3_PIPE] |331|  ; [ORIG 16-BIT INS]
     859                            ; BRANCHCC OCCURS {||$C$L21||}   ; [] |331| 
     860                    ;* --------------------------------------------------------------------------*
     861 0000014c 2001              MOVS      A1, #1                ; [DPU_V7M3_PIPE] |331|  ; [ORIG 16-BIT INS]
     862                    ;* --------------------------------------------------------------------------*
     863 0000014e           ||$C$L21||:    
     864 0000014e B938              CBNZ      A1, ||$C$L23||        ; []  ; [ORIG 16-BIT INS]
     865                            ; BRANCHCC OCCURS {||$C$L23||}   ; [] |331| 
     866                    ;* --------------------------------------------------------------------------*
     867 00000150 20A0              MOVS      A1, #160              ; [DPU_V7M3_PIPE] |331|  ; [ORIG 16-BIT INS]
     868 00000152 8811F380          MSR       BASEPRI, A1           ; [DPU_V7M3_PIPE] |331|  ; [KEEP 32-BIT INS]
     869 00000156 8F4FF3BF          dsb ; [KEEP 32-BIT INS]
     870 0000015a 8F6FF3BF          isb ; [KEEP 32-BIT INS]
     871                    ;* --------------------------------------------------------------------------*
     872                    ;*   BEGIN LOOP ||$C$L22||
     873                    ;*
     874                    ;*   Loop source line                : 331
     875                    ;*   Loop closing brace source line  : 331
     876                    ;*   Known Minimum Trip Count        : 1
     877                    ;*   Known Maximum Trip Count        : 4294967295
     878                    ;*   Known Max Trip Count Factor     : 1
     879                    ;* --------------------------------------------------------------------------*
     880 0000015e           ||$C$L22||:    
TI ARM Assembler Unix v18.1.1 Fri Jul  3 20:08:23 2020

Tools Copyright (c) 1996-2017 Texas Instruments Incorporated
queue.asm                                                            PAGE   17

     881 0000015e E7FE              B         ||$C$L22||            ; [DPU_V7M3_PIPE] |331|  ; [ORIG 16-BIT INS]
     882                            ; BRANCH OCCURS {||$C$L22||}     ; [] |331| 
     883                    ;* --------------------------------------------------------------------------*
     884 00000160           ||$C$L23||:    
     885                            .dwpsn  file "../OS/queue.c",line 332,column 4,is_stmt,isa 1
     886                    ;----------------------------------------------------------------------
     887                    ; 332 | ( void ) xSize; /* Keeps lint quiet when configASSERT() is not defined.
     888                    ;     |  */                                                                    
     889                    ; 334 | #endif /* configASSERT_DEFINED */                                      
     890                    ;----------------------------------------------------------------------
     891 00000160 9806              LDR       A1, [SP, #24]         ; [DPU_V7M3_PIPE] |332|  ; [ORIG 16-BIT INS]
     892                            .dwendtag $C$DW$55
     893                    
     894                            .dwpsn  file "../OS/queue.c",line 339,column 3,is_stmt,isa 1
     895                    ;----------------------------------------------------------------------
     896                    ; 339 | pxNewQueue = ( Queue_t * ) pxStaticQueue; /*lint !e740 !e9087 Unusual c
     897                    ;     | ast is ok as the structures are designed to have the same alignment, an
     898                    ;     | d the size is checked by an assert. */                                 
     899                    ;----------------------------------------------------------------------
     900 00000162 9804              LDR       A1, [SP, #16]         ; [DPU_V7M3_PIPE] |339|  ; [ORIG 16-BIT INS]
     901 00000164 9005              STR       A1, [SP, #20]         ; [DPU_V7M3_PIPE] |339|  ; [ORIG 16-BIT INS]
     902                            .dwpsn  file "../OS/queue.c",line 341,column 3,is_stmt,isa 1
     903                    ;----------------------------------------------------------------------
     904                    ; 341 | if( pxNewQueue != NULL )                                               
     905                    ; 343 |         #if( configSUPPORT_DYNAMIC_ALLOCATION == 1 )                   
     906                    ; 348 |                 pxNewQueue->ucStaticallyAllocated = pdTRUE;            
     907                    ; 350 |         #endif /* configSUPPORT_DYNAMIC_ALLOCATION */                  
     908                    ;----------------------------------------------------------------------
     909 00000166 9805              LDR       A1, [SP, #20]         ; [DPU_V7M3_PIPE] |341|  ; [ORIG 16-BIT INS]
     910 00000168 B138              CBZ       A1, ||$C$L24||        ; []  ; [ORIG 16-BIT INS]
     911                            ; BRANCHCC OCCURS {||$C$L24||}   ; [] |341| 
     912                    ;* --------------------------------------------------------------------------*
     913                            .dwpsn  file "../OS/queue.c",line 352,column 4,is_stmt,isa 1
     914                    ;----------------------------------------------------------------------
     915                    ; 352 | prvInitialiseNewQueue( uxQueueLength, uxItemSize, pucQueueStorage, ucQu
     916                    ;     | eueType, pxNewQueue );                                                 
     917                    ;----------------------------------------------------------------------
     918 0000016a 9805              LDR       A1, [SP, #20]         ; [DPU_V7M3_PIPE] |352|  ; [ORIG 16-BIT INS]
     919 0000016c 9000              STR       A1, [SP, #0]          ; [DPU_V7M3_PIPE] |352|  ; [ORIG 16-BIT INS]
     920 0000016e 783B              LDRB      A4, [V4, #0]          ; [DPU_V7M3_PIPE] |352|  ; [ORIG 16-BIT INS]
     921 00000170 9902              LDR       A2, [SP, #8]          ; [DPU_V7M3_PIPE] |352|  ; [ORIG 16-BIT INS]
     922 00000172 9A03              LDR       A3, [SP, #12]         ; [DPU_V7M3_PIPE] |352|  ; [ORIG 16-BIT INS]
     923 00000174 9801              LDR       A1, [SP, #4]          ; [DPU_V7M3_PIPE] |352|  ; [ORIG 16-BIT INS]
     924                    $C$DW$57        .dwtag  DW_TAG_TI_branch
     925                            .dwattr $C$DW$57, DW_AT_low_pc(0x00)
     926                            .dwattr $C$DW$57, DW_AT_name("prvInitialiseNewQueue")
     927                            .dwattr $C$DW$57, DW_AT_TI_call
     928                    
     929 00000176 FFFEF7FF!         BL        prvInitialiseNewQueue ; [DPU_V7M3_PIPE] |352|  ; [KEEP 32-BIT INS]
     930                            ; CALL OCCURS {prvInitialiseNewQueue }  ; [] |352| 
     931                            .dwpsn  file "../OS/queue.c",line 353,column 3,is_stmt,isa 1
     932                    ;----------------------------------------------------------------------
     933                    ; 354 | else                                                                   
     934                    ; 356 |         traceQUEUE_CREATE_FAILED( ucQueueType );                       
     935                    ; 357 |         mtCOVERAGE_TEST_MARKER();                                      
TI ARM Assembler Unix v18.1.1 Fri Jul  3 20:08:23 2020

Tools Copyright (c) 1996-2017 Texas Instruments Incorporated
queue.asm                                                            PAGE   18

     936                    ;----------------------------------------------------------------------
     937                    ;* --------------------------------------------------------------------------*
     938 0000017a           ||$C$L24||:    
     939                            .dwpsn  file "../OS/queue.c",line 360,column 3,is_stmt,isa 1
     940                    ;----------------------------------------------------------------------
     941                    ; 360 | return pxNewQueue;                                                     
     942                    ;----------------------------------------------------------------------
     943 0000017a 9805              LDR       A1, [SP, #20]         ; [DPU_V7M3_PIPE] |360|  ; [ORIG 16-BIT INS]
     944                            .dwpsn  file "../OS/queue.c",line 361,column 2,is_stmt,isa 1
     945 0000017c B008              ADD       SP, SP, #32           ; [DPU_V7M3_PIPE]  ; [ORIG 16-BIT INS]
     946                            .dwcfi  cfa_offset, 8
     947                    $C$DW$58        .dwtag  DW_TAG_TI_branch
     948                            .dwattr $C$DW$58, DW_AT_low_pc(0x00)
     949                            .dwattr $C$DW$58, DW_AT_TI_return
     950                    
     951 0000017e BD80              POP       {V4, PC}              ; [DPU_V7M3_PIPE]  ; [ORIG 16-BIT INS]
     952                            .dwcfi  cfa_offset, 0
     953                            .dwcfi  restore_reg, 7
     954                            ; BRANCH OCCURS                  ; [] 
     955                            .dwattr $C$DW$44, DW_AT_TI_end_file("../OS/queue.c")
     956                            .dwattr $C$DW$44, DW_AT_TI_end_line(0x169)
     957                            .dwattr $C$DW$44, DW_AT_TI_end_column(0x02)
     958                            .dwendentry
     959                            .dwendtag $C$DW$44
     960                    
     961 00000180                   .sect   ".text"
     962                            .clink
     963                            .thumbfunc prvInitialiseNewQueue
     964 00000180                   .thumb
     965                    
     966                    $C$DW$59        .dwtag  DW_TAG_subprogram
     967                            .dwattr $C$DW$59, DW_AT_name("prvInitialiseNewQueue")
     968                            .dwattr $C$DW$59, DW_AT_low_pc(prvInitialiseNewQueue)
     969                            .dwattr $C$DW$59, DW_AT_high_pc(0x00)
     970                            .dwattr $C$DW$59, DW_AT_TI_symbol_name("prvInitialiseNewQueue")
     971                            .dwattr $C$DW$59, DW_AT_TI_begin_file("../OS/queue.c")
     972                            .dwattr $C$DW$59, DW_AT_TI_begin_line(0x1ad)
     973                            .dwattr $C$DW$59, DW_AT_TI_begin_column(0x0d)
     974                            .dwattr $C$DW$59, DW_AT_decl_file("../OS/queue.c")
     975                            .dwattr $C$DW$59, DW_AT_decl_line(0x1ad)
     976                            .dwattr $C$DW$59, DW_AT_decl_column(0x0d)
     977                            .dwattr $C$DW$59, DW_AT_TI_max_frame_size(0x18)
     978                            .dwpsn  file "../OS/queue.c",line 430,column 1,is_stmt,address prvInitialiseNewQueue,isa 1
     979                    
     980                            .dwfde $C$DW$CIE, prvInitialiseNewQueue
     981                    $C$DW$60        .dwtag  DW_TAG_formal_parameter
     982                            .dwattr $C$DW$60, DW_AT_name("uxQueueLength")
     983                            .dwattr $C$DW$60, DW_AT_TI_symbol_name("uxQueueLength")
     984                            .dwattr $C$DW$60, DW_AT_type(*$C$DW$T$112)
     985                            .dwattr $C$DW$60, DW_AT_location[DW_OP_reg0]
     986                    
     987                    $C$DW$61        .dwtag  DW_TAG_formal_parameter
     988                            .dwattr $C$DW$61, DW_AT_name("uxItemSize")
     989                            .dwattr $C$DW$61, DW_AT_TI_symbol_name("uxItemSize")
     990                            .dwattr $C$DW$61, DW_AT_type(*$C$DW$T$112)
TI ARM Assembler Unix v18.1.1 Fri Jul  3 20:08:23 2020

Tools Copyright (c) 1996-2017 Texas Instruments Incorporated
queue.asm                                                            PAGE   19

     991                            .dwattr $C$DW$61, DW_AT_location[DW_OP_reg1]
     992                    
     993                    $C$DW$62        .dwtag  DW_TAG_formal_parameter
     994                            .dwattr $C$DW$62, DW_AT_name("pucQueueStorage")
     995                            .dwattr $C$DW$62, DW_AT_TI_symbol_name("pucQueueStorage")
     996                            .dwattr $C$DW$62, DW_AT_type(*$C$DW$T$33)
     997                            .dwattr $C$DW$62, DW_AT_location[DW_OP_reg2]
     998                    
     999                    $C$DW$63        .dwtag  DW_TAG_formal_parameter
    1000                            .dwattr $C$DW$63, DW_AT_name("ucQueueType")
    1001                            .dwattr $C$DW$63, DW_AT_TI_symbol_name("ucQueueType")
    1002                            .dwattr $C$DW$63, DW_AT_type(*$C$DW$T$115)
    1003                            .dwattr $C$DW$63, DW_AT_location[DW_OP_reg3]
    1004                    
    1005                    $C$DW$64        .dwtag  DW_TAG_formal_parameter
    1006                            .dwattr $C$DW$64, DW_AT_name("pxNewQueue")
    1007                            .dwattr $C$DW$64, DW_AT_TI_symbol_name("pxNewQueue")
    1008                            .dwattr $C$DW$64, DW_AT_type(*$C$DW$T$126)
    1009                            .dwattr $C$DW$64, DW_AT_location[DW_OP_breg13 24]
    1010                    
    1011                    ;----------------------------------------------------------------------
    1012                    ; 429 | static void prvInitialiseNewQueue( const UBaseType_t uxQueueLength, con
    1013                    ;     | st UBaseType_t uxItemSize, uint8_t *pucQueueStorage, const uint8_t ucQu
    1014                    ;     | eueType, Queue_t *pxNewQueue )                                         
    1015                    ;----------------------------------------------------------------------
    1016                    
    1017                    ;*****************************************************************************
    1018                    ;* FUNCTION NAME: prvInitialiseNewQueue                                      *
    1019                    ;*                                                                           *
    1020                    ;*   Regs Modified     : A1,A2,A3,A4,V9,SP,LR,SR,D0,D0_hi,D1,D1_hi,D2,D2_hi, *
    1021                    ;*                           D3,D3_hi,D4,D4_hi,D5,D5_hi,D6,D6_hi,D7,D7_hi,   *
    1022                    ;*                           FPEXC,FPSCR                                     *
    1023                    ;*   Regs Used         : A1,A2,A3,A4,V9,SP,LR,SR,D0,D0_hi,D1,D1_hi,D2,D2_hi, *
    1024                    ;*                           D3,D3_hi,D4,D4_hi,D5,D5_hi,D6,D6_hi,D7,D7_hi,   *
    1025                    ;*                           FPEXC,FPSCR                                     *
    1026                    ;*   Local Frame Size  : 0 Args + 16 Auto + 4 Save = 20 byte                 *
    1027                    ;*****************************************************************************
    1028 00000180           prvInitialiseNewQueue:
    1029                    ;* --------------------------------------------------------------------------*
    1030                            .dwcfi  cfa_offset, 0
    1031 00000180 B500              PUSH      {LR}                  ; [DPU_V7M3_PIPE]  ; [ORIG 16-BIT INS]
    1032                            .dwcfi  cfa_offset, 4
    1033                            .dwcfi  save_reg_to_mem, 14, -4
    1034 00000182 0D14F1AD          SUB       SP, SP, #20           ; [DPU_V7M3_PIPE]  ; [KEEP 32-BIT INS]
    1035                            .dwcfi  cfa_offset, 24
    1036                    $C$DW$65        .dwtag  DW_TAG_variable
    1037                            .dwattr $C$DW$65, DW_AT_name("uxQueueLength")
    1038                            .dwattr $C$DW$65, DW_AT_TI_symbol_name("uxQueueLength")
    1039                            .dwattr $C$DW$65, DW_AT_type(*$C$DW$T$112)
    1040                            .dwattr $C$DW$65, DW_AT_location[DW_OP_breg13 0]
    1041                    
    1042                    $C$DW$66        .dwtag  DW_TAG_variable
    1043                            .dwattr $C$DW$66, DW_AT_name("uxItemSize")
    1044                            .dwattr $C$DW$66, DW_AT_TI_symbol_name("uxItemSize")
    1045                            .dwattr $C$DW$66, DW_AT_type(*$C$DW$T$112)
TI ARM Assembler Unix v18.1.1 Fri Jul  3 20:08:23 2020

Tools Copyright (c) 1996-2017 Texas Instruments Incorporated
queue.asm                                                            PAGE   20

    1046                            .dwattr $C$DW$66, DW_AT_location[DW_OP_breg13 4]
    1047                    
    1048                    $C$DW$67        .dwtag  DW_TAG_variable
    1049                            .dwattr $C$DW$67, DW_AT_name("pucQueueStorage")
    1050                            .dwattr $C$DW$67, DW_AT_TI_symbol_name("pucQueueStorage")
    1051                            .dwattr $C$DW$67, DW_AT_type(*$C$DW$T$33)
    1052                            .dwattr $C$DW$67, DW_AT_location[DW_OP_breg13 8]
    1053                    
    1054                    $C$DW$68        .dwtag  DW_TAG_variable
    1055                            .dwattr $C$DW$68, DW_AT_name("ucQueueType")
    1056                            .dwattr $C$DW$68, DW_AT_TI_symbol_name("ucQueueType")
    1057                            .dwattr $C$DW$68, DW_AT_type(*$C$DW$T$115)
    1058                            .dwattr $C$DW$68, DW_AT_location[DW_OP_breg13 12]
    1059                    
    1060 00000186 300CF88D          STRB      A4, [SP, #12]         ; [DPU_V7M3_PIPE] |430|  ; [KEEP 32-BIT INS]
    1061 0000018a 9202              STR       A3, [SP, #8]          ; [DPU_V7M3_PIPE] |430|  ; [ORIG 16-BIT INS]
    1062 0000018c 9101              STR       A2, [SP, #4]          ; [DPU_V7M3_PIPE] |430|  ; [ORIG 16-BIT INS]
    1063 0000018e 9000              STR       A1, [SP, #0]          ; [DPU_V7M3_PIPE] |430|  ; [ORIG 16-BIT INS]
    1064                            .dwpsn  file "../OS/queue.c",line 433,column 2,is_stmt,isa 1
    1065                    ;----------------------------------------------------------------------
    1066                    ; 433 | ( void ) ucQueueType;                                                  
    1067                    ;----------------------------------------------------------------------
    1068                            .dwpsn  file "../OS/queue.c",line 435,column 2,is_stmt,isa 1
    1069                    ;----------------------------------------------------------------------
    1070                    ; 435 | if( uxItemSize == ( UBaseType_t ) 0 )                                  
    1071                    ;----------------------------------------------------------------------
    1072 00000190 9801              LDR       A1, [SP, #4]          ; [DPU_V7M3_PIPE] |435|  ; [ORIG 16-BIT INS]
    1073 00000192 B918              CBNZ      A1, ||$C$L25||        ; []  ; [ORIG 16-BIT INS]
    1074                            ; BRANCHCC OCCURS {||$C$L25||}   ; [] |435| 
    1075                    ;* --------------------------------------------------------------------------*
    1076                            .dwpsn  file "../OS/queue.c",line 441,column 3,is_stmt,isa 1
    1077                    ;----------------------------------------------------------------------
    1078                    ; 441 | pxNewQueue->pcHead = ( int8_t * ) pxNewQueue;                          
    1079                    ;----------------------------------------------------------------------
    1080 00000194 9806              LDR       A1, [SP, #24]         ; [DPU_V7M3_PIPE] |441|  ; [ORIG 16-BIT INS]
    1081 00000196 9906              LDR       A2, [SP, #24]         ; [DPU_V7M3_PIPE] |441|  ; [ORIG 16-BIT INS]
    1082 00000198 6008              STR       A1, [A2, #0]          ; [DPU_V7M3_PIPE] |441|  ; [ORIG 16-BIT INS]
    1083                            .dwpsn  file "../OS/queue.c",line 442,column 2,is_stmt,isa 1
    1084                    ;----------------------------------------------------------------------
    1085                    ; 443 | else                                                                   
    1086                    ;----------------------------------------------------------------------
    1087 0000019a E002              B         ||$C$L26||            ; [DPU_V7M3_PIPE] |442|  ; [ORIG 16-BIT INS]
    1088                            ; BRANCH OCCURS {||$C$L26||}     ; [] |442| 
    1089                    ;* --------------------------------------------------------------------------*
    1090 0000019c           ||$C$L25||:    
    1091                            .dwpsn  file "../OS/queue.c",line 446,column 3,is_stmt,isa 1
    1092                    ;----------------------------------------------------------------------
    1093                    ; 446 | pxNewQueue->pcHead = ( int8_t * ) pucQueueStorage;                     
    1094                    ;----------------------------------------------------------------------
    1095 0000019c 9802              LDR       A1, [SP, #8]          ; [DPU_V7M3_PIPE] |446|  ; [ORIG 16-BIT INS]
    1096 0000019e 9906              LDR       A2, [SP, #24]         ; [DPU_V7M3_PIPE] |446|  ; [ORIG 16-BIT INS]
    1097 000001a0 6008              STR       A1, [A2, #0]          ; [DPU_V7M3_PIPE] |446|  ; [ORIG 16-BIT INS]
    1098                    ;* --------------------------------------------------------------------------*
    1099 000001a2           ||$C$L26||:    
    1100                            .dwpsn  file "../OS/queue.c",line 451,column 2,is_stmt,isa 1
TI ARM Assembler Unix v18.1.1 Fri Jul  3 20:08:23 2020

Tools Copyright (c) 1996-2017 Texas Instruments Incorporated
queue.asm                                                            PAGE   21

    1101                    ;----------------------------------------------------------------------
    1102                    ; 451 | pxNewQueue->uxLength = uxQueueLength;                                  
    1103                    ;----------------------------------------------------------------------
    1104 000001a2 9800              LDR       A1, [SP, #0]          ; [DPU_V7M3_PIPE] |451|  ; [ORIG 16-BIT INS]
    1105 000001a4 9906              LDR       A2, [SP, #24]         ; [DPU_V7M3_PIPE] |451|  ; [ORIG 16-BIT INS]
    1106 000001a6 63C8              STR       A1, [A2, #60]         ; [DPU_V7M3_PIPE] |451|  ; [ORIG 16-BIT INS]
    1107                            .dwpsn  file "../OS/queue.c",line 452,column 2,is_stmt,isa 1
    1108                    ;----------------------------------------------------------------------
    1109                    ; 452 | pxNewQueue->uxItemSize = uxItemSize;                                   
    1110                    ;----------------------------------------------------------------------
    1111 000001a8 9801              LDR       A1, [SP, #4]          ; [DPU_V7M3_PIPE] |452|  ; [ORIG 16-BIT INS]
    1112 000001aa 9906              LDR       A2, [SP, #24]         ; [DPU_V7M3_PIPE] |452|  ; [ORIG 16-BIT INS]
    1113 000001ac 6408              STR       A1, [A2, #64]         ; [DPU_V7M3_PIPE] |452|  ; [ORIG 16-BIT INS]
    1114                            .dwpsn  file "../OS/queue.c",line 453,column 2,is_stmt,isa 1
    1115                    ;----------------------------------------------------------------------
    1116                    ; 453 | ( void ) xQueueGenericReset( pxNewQueue, pdTRUE );                     
    1117                    ; 455 | #if ( configUSE_TRACE_FACILITY == 1 )                                  
    1118                    ;----------------------------------------------------------------------
    1119 000001ae 9806              LDR       A1, [SP, #24]         ; [DPU_V7M3_PIPE] |453|  ; [ORIG 16-BIT INS]
    1120 000001b0 2101              MOVS      A2, #1                ; [DPU_V7M3_PIPE] |453|  ; [ORIG 16-BIT INS]
    1121                    $C$DW$69        .dwtag  DW_TAG_TI_branch
    1122                            .dwattr $C$DW$69, DW_AT_low_pc(0x00)
    1123                            .dwattr $C$DW$69, DW_AT_name("xQueueGenericReset")
    1124                            .dwattr $C$DW$69, DW_AT_TI_call
    1125                    
    1126 000001b2 FFFEF7FF!         BL        xQueueGenericReset    ; [DPU_V7M3_PIPE] |453|  ; [KEEP 32-BIT INS]
    1127                            ; CALL OCCURS {xQueueGenericReset }  ; [] |453| 
    1128                            .dwpsn  file "../OS/queue.c",line 457,column 3,is_stmt,isa 1
    1129                    ;----------------------------------------------------------------------
    1130                    ; 457 | pxNewQueue->ucQueueType = ucQueueType;                                 
    1131                    ; 459 | #endif /* configUSE_TRACE_FACILITY */                                  
    1132                    ; 461 | #if( configUSE_QUEUE_SETS == 1 )                                       
    1133                    ; 463 | pxNewQueue->pxQueueSetContainer = NULL;                                
    1134                    ; 465 | #endif /* configUSE_QUEUE_SETS */                                      
    1135                    ; 467 | traceQUEUE_CREATE( pxNewQueue );                                       
    1136                    ;----------------------------------------------------------------------
    1137 000001b6 000CF89D          LDRB      A1, [SP, #12]         ; [DPU_V7M3_PIPE] |457|  ; [KEEP 32-BIT INS]
    1138 000001ba 9906              LDR       A2, [SP, #24]         ; [DPU_V7M3_PIPE] |457|  ; [ORIG 16-BIT INS]
    1139 000001bc 004CF881          STRB      A1, [A2, #76]         ; [DPU_V7M3_PIPE] |457|  ; [KEEP 32-BIT INS]
    1140                            .dwpsn  file "../OS/queue.c",line 468,column 1,is_stmt,isa 1
    1141 000001c0 B005              ADD       SP, SP, #20           ; [DPU_V7M3_PIPE]  ; [ORIG 16-BIT INS]
    1142                            .dwcfi  cfa_offset, 4
    1143                    $C$DW$70        .dwtag  DW_TAG_TI_branch
    1144                            .dwattr $C$DW$70, DW_AT_low_pc(0x00)
    1145                            .dwattr $C$DW$70, DW_AT_TI_return
    1146                    
    1147 000001c2 BD00              POP       {PC}                  ; [DPU_V7M3_PIPE]  ; [ORIG 16-BIT INS]
    1148                            .dwcfi  cfa_offset, 0
    1149                            ; BRANCH OCCURS                  ; [] 
    1150                            .dwattr $C$DW$59, DW_AT_TI_end_file("../OS/queue.c")
    1151                            .dwattr $C$DW$59, DW_AT_TI_end_line(0x1d4)
    1152                            .dwattr $C$DW$59, DW_AT_TI_end_column(0x01)
    1153                            .dwendentry
    1154                            .dwendtag $C$DW$59
    1155                    
TI ARM Assembler Unix v18.1.1 Fri Jul  3 20:08:23 2020

Tools Copyright (c) 1996-2017 Texas Instruments Incorporated
queue.asm                                                            PAGE   22

    1156 000001c4                   .sect   ".text"
    1157                            .clink
    1158                            .thumbfunc prvInitialiseMutex
    1159 000001c4                   .thumb
    1160                    
    1161                    $C$DW$71        .dwtag  DW_TAG_subprogram
    1162                            .dwattr $C$DW$71, DW_AT_name("prvInitialiseMutex")
    1163                            .dwattr $C$DW$71, DW_AT_low_pc(prvInitialiseMutex)
    1164                            .dwattr $C$DW$71, DW_AT_high_pc(0x00)
    1165                            .dwattr $C$DW$71, DW_AT_TI_symbol_name("prvInitialiseMutex")
    1166                            .dwattr $C$DW$71, DW_AT_TI_begin_file("../OS/queue.c")
    1167                            .dwattr $C$DW$71, DW_AT_TI_begin_line(0x1d9)
    1168                            .dwattr $C$DW$71, DW_AT_TI_begin_column(0x0e)
    1169                            .dwattr $C$DW$71, DW_AT_decl_file("../OS/queue.c")
    1170                            .dwattr $C$DW$71, DW_AT_decl_line(0x1d9)
    1171                            .dwattr $C$DW$71, DW_AT_decl_column(0x0e)
    1172                            .dwattr $C$DW$71, DW_AT_TI_max_frame_size(0x08)
    1173                            .dwpsn  file "../OS/queue.c",line 474,column 2,is_stmt,address prvInitialiseMutex,isa 1
    1174                    
    1175                            .dwfde $C$DW$CIE, prvInitialiseMutex
    1176                    $C$DW$72        .dwtag  DW_TAG_formal_parameter
    1177                            .dwattr $C$DW$72, DW_AT_name("pxNewQueue")
    1178                            .dwattr $C$DW$72, DW_AT_TI_symbol_name("pxNewQueue")
    1179                            .dwattr $C$DW$72, DW_AT_type(*$C$DW$T$126)
    1180                            .dwattr $C$DW$72, DW_AT_location[DW_OP_reg0]
    1181                    
    1182                    ;----------------------------------------------------------------------
    1183                    ; 473 | static void prvInitialiseMutex( Queue_t *pxNewQueue )                  
    1184                    ;----------------------------------------------------------------------
    1185                    
    1186                    ;*****************************************************************************
    1187                    ;* FUNCTION NAME: prvInitialiseMutex                                         *
    1188                    ;*                                                                           *
    1189                    ;*   Regs Modified     : A1,A2,A3,A4,V9,SP,LR,SR,D0,D0_hi,D1,D1_hi,D2,D2_hi, *
    1190                    ;*                           D3,D3_hi,D4,D4_hi,D5,D5_hi,D6,D6_hi,D7,D7_hi,   *
    1191                    ;*                           FPEXC,FPSCR                                     *
    1192                    ;*   Regs Used         : A1,A2,A3,A4,V9,SP,LR,SR,D0,D0_hi,D1,D1_hi,D2,D2_hi, *
    1193                    ;*                           D3,D3_hi,D4,D4_hi,D5,D5_hi,D6,D6_hi,D7,D7_hi,   *
    1194                    ;*                           FPEXC,FPSCR                                     *
    1195                    ;*   Local Frame Size  : 0 Args + 4 Auto + 4 Save = 8 byte                   *
    1196                    ;*****************************************************************************
    1197 000001c4           prvInitialiseMutex:
    1198                    ;* --------------------------------------------------------------------------*
    1199                            .dwcfi  cfa_offset, 0
    1200 000001c4 B508              PUSH      {A4, LR}              ; [DPU_V7M3_PIPE]  ; [ORIG 16-BIT INS]
    1201                            .dwcfi  cfa_offset, 8
    1202                            .dwcfi  save_reg_to_mem, 14, -4
    1203                            .dwcfi  save_reg_to_mem, 3, -8
    1204                    $C$DW$73        .dwtag  DW_TAG_variable
    1205                            .dwattr $C$DW$73, DW_AT_name("pxNewQueue")
    1206                            .dwattr $C$DW$73, DW_AT_TI_symbol_name("pxNewQueue")
    1207                            .dwattr $C$DW$73, DW_AT_type(*$C$DW$T$126)
    1208                            .dwattr $C$DW$73, DW_AT_location[DW_OP_breg13 0]
    1209                    
    1210 000001c6 9000              STR       A1, [SP, #0]          ; [DPU_V7M3_PIPE] |474|  ; [ORIG 16-BIT INS]
TI ARM Assembler Unix v18.1.1 Fri Jul  3 20:08:23 2020

Tools Copyright (c) 1996-2017 Texas Instruments Incorporated
queue.asm                                                            PAGE   23

    1211                            .dwpsn  file "../OS/queue.c",line 475,column 3,is_stmt,isa 1
    1212                    ;----------------------------------------------------------------------
    1213                    ; 475 | if( pxNewQueue != NULL )                                               
    1214                    ;----------------------------------------------------------------------
    1215 000001c8 9800              LDR       A1, [SP, #0]          ; [DPU_V7M3_PIPE] |475|  ; [ORIG 16-BIT INS]
    1216 000001ca B178              CBZ       A1, ||$C$L27||        ; []  ; [ORIG 16-BIT INS]
    1217                            ; BRANCHCC OCCURS {||$C$L27||}   ; [] |475| 
    1218                    ;* --------------------------------------------------------------------------*
    1219                            .dwpsn  file "../OS/queue.c",line 481,column 4,is_stmt,isa 1
    1220                    ;----------------------------------------------------------------------
    1221                    ; 481 | pxNewQueue->u.xSemaphore.xMutexHolder = NULL;                          
    1222                    ;----------------------------------------------------------------------
    1223 000001cc 9800              LDR       A1, [SP, #0]          ; [DPU_V7M3_PIPE] |481|  ; [ORIG 16-BIT INS]
    1224 000001ce 2100              MOVS      A2, #0                ; [DPU_V7M3_PIPE] |481|  ; [ORIG 16-BIT INS]
    1225 000001d0 6081              STR       A2, [A1, #8]          ; [DPU_V7M3_PIPE] |481|  ; [ORIG 16-BIT INS]
    1226                            .dwpsn  file "../OS/queue.c",line 482,column 4,is_stmt,isa 1
    1227                    ;----------------------------------------------------------------------
    1228                    ; 482 | pxNewQueue->uxQueueType = queueQUEUE_IS_MUTEX;                         
    1229                    ;----------------------------------------------------------------------
    1230 000001d2 9800              LDR       A1, [SP, #0]          ; [DPU_V7M3_PIPE] |482|  ; [ORIG 16-BIT INS]
    1231 000001d4 2100              MOVS      A2, #0                ; [DPU_V7M3_PIPE] |482|  ; [ORIG 16-BIT INS]
    1232 000001d6 6001              STR       A2, [A1, #0]          ; [DPU_V7M3_PIPE] |482|  ; [ORIG 16-BIT INS]
    1233                            .dwpsn  file "../OS/queue.c",line 485,column 4,is_stmt,isa 1
    1234                    ;----------------------------------------------------------------------
    1235                    ; 485 | pxNewQueue->u.xSemaphore.uxRecursiveCallCount = 0;                     
    1236                    ; 487 | traceCREATE_MUTEX( pxNewQueue );                                       
    1237                    ;----------------------------------------------------------------------
    1238 000001d8 9800              LDR       A1, [SP, #0]          ; [DPU_V7M3_PIPE] |485|  ; [ORIG 16-BIT INS]
    1239 000001da 2100              MOVS      A2, #0                ; [DPU_V7M3_PIPE] |485|  ; [ORIG 16-BIT INS]
    1240 000001dc 60C1              STR       A2, [A1, #12]         ; [DPU_V7M3_PIPE] |485|  ; [ORIG 16-BIT INS]
    1241                            .dwpsn  file "../OS/queue.c",line 490,column 4,is_stmt,isa 1
    1242                    ;----------------------------------------------------------------------
    1243                    ; 490 | ( void ) xQueueGenericSend( pxNewQueue, NULL, ( TickType_t ) 0U, queueS
    1244                    ;     | END_TO_BACK );                                                         
    1245                    ;----------------------------------------------------------------------
    1246 000001de 9800              LDR       A1, [SP, #0]          ; [DPU_V7M3_PIPE] |490|  ; [ORIG 16-BIT INS]
    1247 000001e0 2200              MOVS      A3, #0                ; [DPU_V7M3_PIPE] |490|  ; [ORIG 16-BIT INS]
    1248 000001e2 2300              MOVS      A4, #0                ; [DPU_V7M3_PIPE] |490|  ; [ORIG 16-BIT INS]
    1249 000001e4 2100              MOVS      A2, #0                ; [DPU_V7M3_PIPE] |490|  ; [ORIG 16-BIT INS]
    1250                    $C$DW$74        .dwtag  DW_TAG_TI_branch
    1251                            .dwattr $C$DW$74, DW_AT_low_pc(0x00)
    1252                            .dwattr $C$DW$74, DW_AT_name("xQueueGenericSend")
    1253                            .dwattr $C$DW$74, DW_AT_TI_call
    1254                    
    1255 000001e6 FFFEF7FF!         BL        xQueueGenericSend     ; [DPU_V7M3_PIPE] |490|  ; [KEEP 32-BIT INS]
    1256                            ; CALL OCCURS {xQueueGenericSend }  ; [] |490| 
    1257                            .dwpsn  file "../OS/queue.c",line 491,column 3,is_stmt,isa 1
    1258                    ;----------------------------------------------------------------------
    1259                    ; 492 | else                                                                   
    1260                    ; 494 |         traceCREATE_MUTEX_FAILED();                                    
    1261                    ;----------------------------------------------------------------------
    1262 000001ea E7FF              B         ||$C$L27||            ; [DPU_V7M3_PIPE] |491|  ; [ORIG 16-BIT INS]
    1263                            ; BRANCH OCCURS {||$C$L27||}     ; [] |491| 
    1264                    ;* --------------------------------------------------------------------------*
    1265                    ;* --------------------------------------------------------------------------*
TI ARM Assembler Unix v18.1.1 Fri Jul  3 20:08:23 2020

Tools Copyright (c) 1996-2017 Texas Instruments Incorporated
queue.asm                                                            PAGE   24

    1266                    ||$C$L27||:    
    1267                    $C$DW$75        .dwtag  DW_TAG_TI_branch
    1268                            .dwattr $C$DW$75, DW_AT_low_pc(0x00)
    1269                            .dwattr $C$DW$75, DW_AT_TI_return
    1270                    
    1271 000001ec BD08              POP       {A4, PC}              ; [DPU_V7M3_PIPE]  ; [ORIG 16-BIT INS]
    1272                            .dwcfi  cfa_offset, 0
    1273                            .dwcfi  restore_reg, 3
    1274                            ; BRANCH OCCURS                  ; [] 
    1275                            .dwattr $C$DW$71, DW_AT_TI_end_file("../OS/queue.c")
    1276                            .dwattr $C$DW$71, DW_AT_TI_end_line(0x1f0)
    1277                            .dwattr $C$DW$71, DW_AT_TI_end_column(0x02)
    1278                            .dwendentry
    1279                            .dwendtag $C$DW$71
    1280                    
    1281 000001ee                   .sect   ".text"
    1282                            .clink
    1283                            .thumbfunc xQueueCreateMutexStatic
    1284 000001ee                   .thumb
    1285                            .global xQueueCreateMutexStatic
    1286                    
    1287                    $C$DW$76        .dwtag  DW_TAG_subprogram
    1288                            .dwattr $C$DW$76, DW_AT_name("xQueueCreateMutexStatic")
    1289                            .dwattr $C$DW$76, DW_AT_low_pc(xQueueCreateMutexStatic)
    1290                            .dwattr $C$DW$76, DW_AT_high_pc(0x00)
    1291                            .dwattr $C$DW$76, DW_AT_TI_symbol_name("xQueueCreateMutexStatic")
    1292                            .dwattr $C$DW$76, DW_AT_external
    1293                            .dwattr $C$DW$76, DW_AT_type(*$C$DW$T$110)
    1294                            .dwattr $C$DW$76, DW_AT_TI_begin_file("../OS/queue.c")
    1295                            .dwattr $C$DW$76, DW_AT_TI_begin_line(0x207)
    1296                            .dwattr $C$DW$76, DW_AT_TI_begin_column(0x10)
    1297                            .dwattr $C$DW$76, DW_AT_decl_file("../OS/queue.c")
    1298                            .dwattr $C$DW$76, DW_AT_decl_line(0x207)
    1299                            .dwattr $C$DW$76, DW_AT_decl_column(0x10)
    1300                            .dwattr $C$DW$76, DW_AT_TI_max_frame_size(0x20)
    1301                            .dwpsn  file "../OS/queue.c",line 520,column 2,is_stmt,address xQueueCreateMutexStatic,isa 1
    1302                    
    1303                            .dwfde $C$DW$CIE, xQueueCreateMutexStatic
    1304                    $C$DW$77        .dwtag  DW_TAG_formal_parameter
    1305                            .dwattr $C$DW$77, DW_AT_name("ucQueueType")
    1306                            .dwattr $C$DW$77, DW_AT_TI_symbol_name("ucQueueType")
    1307                            .dwattr $C$DW$77, DW_AT_type(*$C$DW$T$115)
    1308                            .dwattr $C$DW$77, DW_AT_location[DW_OP_reg0]
    1309                    
    1310                    $C$DW$78        .dwtag  DW_TAG_formal_parameter
    1311                            .dwattr $C$DW$78, DW_AT_name("pxStaticQueue")
    1312                            .dwattr $C$DW$78, DW_AT_TI_symbol_name("pxStaticQueue")
    1313                            .dwattr $C$DW$78, DW_AT_type(*$C$DW$T$114)
    1314                            .dwattr $C$DW$78, DW_AT_location[DW_OP_reg1]
    1315                    
    1316                    ;----------------------------------------------------------------------
    1317                    ; 519 | QueueHandle_t xQueueCreateMutexStatic( const uint8_t ucQueueType, Stati
    1318                    ;     | cQueue_t *pxStaticQueue )                                              
    1319                    ;----------------------------------------------------------------------
    1320                    
TI ARM Assembler Unix v18.1.1 Fri Jul  3 20:08:23 2020

Tools Copyright (c) 1996-2017 Texas Instruments Incorporated
queue.asm                                                            PAGE   25

    1321                    ;*****************************************************************************
    1322                    ;* FUNCTION NAME: xQueueCreateMutexStatic                                    *
    1323                    ;*                                                                           *
    1324                    ;*   Regs Modified     : A1,A2,A3,A4,V9,SP,LR,SR,D0,D0_hi,D1,D1_hi,D2,D2_hi, *
    1325                    ;*                           D3,D3_hi,D4,D4_hi,D5,D5_hi,D6,D6_hi,D7,D7_hi,   *
    1326                    ;*                           FPEXC,FPSCR                                     *
    1327                    ;*   Regs Used         : A1,A2,A3,A4,V9,SP,LR,SR,D0,D0_hi,D1,D1_hi,D2,D2_hi, *
    1328                    ;*                           D3,D3_hi,D4,D4_hi,D5,D5_hi,D6,D6_hi,D7,D7_hi,   *
    1329                    ;*                           FPEXC,FPSCR                                     *
    1330                    ;*   Local Frame Size  : 4 Args + 20 Auto + 4 Save = 28 byte                 *
    1331                    ;*****************************************************************************
    1332 000001ee           xQueueCreateMutexStatic:
    1333                    ;* --------------------------------------------------------------------------*
    1334                            .dwcfi  cfa_offset, 0
    1335 000001ee B500              PUSH      {LR}                  ; [DPU_V7M3_PIPE]  ; [ORIG 16-BIT INS]
    1336                            .dwcfi  cfa_offset, 4
    1337                            .dwcfi  save_reg_to_mem, 14, -4
    1338 000001f0 0D1CF1AD          SUB       SP, SP, #28           ; [DPU_V7M3_PIPE]  ; [KEEP 32-BIT INS]
    1339                            .dwcfi  cfa_offset, 32
    1340                    $C$DW$79        .dwtag  DW_TAG_variable
    1341                            .dwattr $C$DW$79, DW_AT_name("pxStaticQueue")
    1342                            .dwattr $C$DW$79, DW_AT_TI_symbol_name("pxStaticQueue")
    1343                            .dwattr $C$DW$79, DW_AT_type(*$C$DW$T$114)
    1344                            .dwattr $C$DW$79, DW_AT_location[DW_OP_breg13 4]
    1345                    
    1346                    $C$DW$80        .dwtag  DW_TAG_variable
    1347                            .dwattr $C$DW$80, DW_AT_name("xNewQueue")
    1348                            .dwattr $C$DW$80, DW_AT_TI_symbol_name("xNewQueue")
    1349                            .dwattr $C$DW$80, DW_AT_type(*$C$DW$T$110)
    1350                            .dwattr $C$DW$80, DW_AT_location[DW_OP_breg13 8]
    1351                    
    1352                    $C$DW$81        .dwtag  DW_TAG_variable
    1353                            .dwattr $C$DW$81, DW_AT_name("uxMutexLength")
    1354                            .dwattr $C$DW$81, DW_AT_TI_symbol_name("uxMutexLength")
    1355                            .dwattr $C$DW$81, DW_AT_type(*$C$DW$T$112)
    1356                            .dwattr $C$DW$81, DW_AT_location[DW_OP_breg13 12]
    1357                    
    1358                    $C$DW$82        .dwtag  DW_TAG_variable
    1359                            .dwattr $C$DW$82, DW_AT_name("uxMutexSize")
    1360                            .dwattr $C$DW$82, DW_AT_TI_symbol_name("uxMutexSize")
    1361                            .dwattr $C$DW$82, DW_AT_type(*$C$DW$T$112)
    1362                            .dwattr $C$DW$82, DW_AT_location[DW_OP_breg13 16]
    1363                    
    1364                    $C$DW$83        .dwtag  DW_TAG_variable
    1365                            .dwattr $C$DW$83, DW_AT_name("ucQueueType")
    1366                            .dwattr $C$DW$83, DW_AT_TI_symbol_name("ucQueueType")
    1367                            .dwattr $C$DW$83, DW_AT_type(*$C$DW$T$115)
    1368                            .dwattr $C$DW$83, DW_AT_location[DW_OP_breg13 20]
    1369                    
    1370                    ;----------------------------------------------------------------------
    1371                    ; 521 | QueueHandle_t xNewQueue;                                               
    1372                    ;----------------------------------------------------------------------
    1373 000001f4 9101              STR       A2, [SP, #4]          ; [DPU_V7M3_PIPE] |520|  ; [ORIG 16-BIT INS]
    1374 000001f6 0014F88D          STRB      A1, [SP, #20]         ; [DPU_V7M3_PIPE] |520|  ; [KEEP 32-BIT INS]
    1375                            .dwpsn  file "../OS/queue.c",line 522,column 34,is_stmt,isa 1
TI ARM Assembler Unix v18.1.1 Fri Jul  3 20:08:23 2020

Tools Copyright (c) 1996-2017 Texas Instruments Incorporated
queue.asm                                                            PAGE   26

    1376                    ;----------------------------------------------------------------------
    1377                    ; 522 | const UBaseType_t uxMutexLength = ( UBaseType_t ) 1, uxMutexSize = ( UB
    1378                    ;     | aseType_t ) 0;                                                         
    1379                    ;----------------------------------------------------------------------
    1380 000001fa 2001              MOVS      A1, #1                ; [DPU_V7M3_PIPE] |522|  ; [ORIG 16-BIT INS]
    1381 000001fc 9003              STR       A1, [SP, #12]         ; [DPU_V7M3_PIPE] |522|  ; [ORIG 16-BIT INS]
    1382                            .dwpsn  file "../OS/queue.c",line 522,column 67,is_stmt,isa 1
    1383 000001fe 2000              MOVS      A1, #0                ; [DPU_V7M3_PIPE] |522|  ; [ORIG 16-BIT INS]
    1384 00000200 9004              STR       A1, [SP, #16]         ; [DPU_V7M3_PIPE] |522|  ; [ORIG 16-BIT INS]
    1385                            .dwpsn  file "../OS/queue.c",line 526,column 3,is_stmt,isa 1
    1386                    ;----------------------------------------------------------------------
    1387                    ; 526 | ( void ) ucQueueType;                                                  
    1388                    ;----------------------------------------------------------------------
    1389                            .dwpsn  file "../OS/queue.c",line 528,column 3,is_stmt,isa 1
    1390                    ;----------------------------------------------------------------------
    1391                    ; 528 | xNewQueue = xQueueGenericCreateStatic( uxMutexLength, uxMutexSize, NULL
    1392                    ;     | , pxStaticQueue, ucQueueType );                                        
    1393                    ;----------------------------------------------------------------------
    1394 00000202 0014F89D          LDRB      A1, [SP, #20]         ; [DPU_V7M3_PIPE] |528|  ; [KEEP 32-BIT INS]
    1395 00000206 9000              STR       A1, [SP, #0]          ; [DPU_V7M3_PIPE] |528|  ; [ORIG 16-BIT INS]
    1396 00000208 9B01              LDR       A4, [SP, #4]          ; [DPU_V7M3_PIPE] |528|  ; [ORIG 16-BIT INS]
    1397 0000020a 2200              MOVS      A3, #0                ; [DPU_V7M3_PIPE] |528|  ; [ORIG 16-BIT INS]
    1398 0000020c 2100              MOVS      A2, #0                ; [DPU_V7M3_PIPE] |528|  ; [ORIG 16-BIT INS]
    1399 0000020e 2001              MOVS      A1, #1                ; [DPU_V7M3_PIPE] |528|  ; [ORIG 16-BIT INS]
    1400                    $C$DW$84        .dwtag  DW_TAG_TI_branch
    1401                            .dwattr $C$DW$84, DW_AT_low_pc(0x00)
    1402                            .dwattr $C$DW$84, DW_AT_name("xQueueGenericCreateStatic")
    1403                            .dwattr $C$DW$84, DW_AT_TI_call
    1404                    
    1405 00000210 FFFEF7FF!         BL        xQueueGenericCreateStatic ; [DPU_V7M3_PIPE] |528|  ; [KEEP 32-BIT INS]
    1406                            ; CALL OCCURS {xQueueGenericCreateStatic }  ; [] |528| 
    1407 00000214 9002              STR       A1, [SP, #8]          ; [DPU_V7M3_PIPE] |528|  ; [ORIG 16-BIT INS]
    1408                            .dwpsn  file "../OS/queue.c",line 529,column 3,is_stmt,isa 1
    1409                    ;----------------------------------------------------------------------
    1410                    ; 529 | prvInitialiseMutex( ( Queue_t * ) xNewQueue );                         
    1411                    ;----------------------------------------------------------------------
    1412 00000216 9802              LDR       A1, [SP, #8]          ; [DPU_V7M3_PIPE] |529|  ; [ORIG 16-BIT INS]
    1413                    $C$DW$85        .dwtag  DW_TAG_TI_branch
    1414                            .dwattr $C$DW$85, DW_AT_low_pc(0x00)
    1415                            .dwattr $C$DW$85, DW_AT_name("prvInitialiseMutex")
    1416                            .dwattr $C$DW$85, DW_AT_TI_call
    1417                    
    1418 00000218 FFFEF7FF!         BL        prvInitialiseMutex    ; [DPU_V7M3_PIPE] |529|  ; [KEEP 32-BIT INS]
    1419                            ; CALL OCCURS {prvInitialiseMutex }  ; [] |529| 
    1420                            .dwpsn  file "../OS/queue.c",line 531,column 3,is_stmt,isa 1
    1421                    ;----------------------------------------------------------------------
    1422                    ; 531 | return xNewQueue;                                                      
    1423                    ;----------------------------------------------------------------------
    1424 0000021c 9802              LDR       A1, [SP, #8]          ; [DPU_V7M3_PIPE] |531|  ; [ORIG 16-BIT INS]
    1425                            .dwpsn  file "../OS/queue.c",line 532,column 2,is_stmt,isa 1
    1426 0000021e B007              ADD       SP, SP, #28           ; [DPU_V7M3_PIPE]  ; [ORIG 16-BIT INS]
    1427                            .dwcfi  cfa_offset, 4
    1428                    $C$DW$86        .dwtag  DW_TAG_TI_branch
    1429                            .dwattr $C$DW$86, DW_AT_low_pc(0x00)
    1430                            .dwattr $C$DW$86, DW_AT_TI_return
TI ARM Assembler Unix v18.1.1 Fri Jul  3 20:08:23 2020

Tools Copyright (c) 1996-2017 Texas Instruments Incorporated
queue.asm                                                            PAGE   27

    1431                    
    1432 00000220 BD00              POP       {PC}                  ; [DPU_V7M3_PIPE]  ; [ORIG 16-BIT INS]
    1433                            .dwcfi  cfa_offset, 0
    1434                            ; BRANCH OCCURS                  ; [] 
    1435                            .dwattr $C$DW$76, DW_AT_TI_end_file("../OS/queue.c")
    1436                            .dwattr $C$DW$76, DW_AT_TI_end_line(0x214)
    1437                            .dwattr $C$DW$76, DW_AT_TI_end_column(0x02)
    1438                            .dwendentry
    1439                            .dwendtag $C$DW$76
    1440                    
    1441                    ;******************************************************************************
    1442                    ;* CONSTANT TABLE                                                             *
    1443                    ;******************************************************************************
    1444 00000222                   .sect   ".text"
    1445                            .align  4
    1446 00000222 ED0446C0  ||$C$CON1||:    .bits   -536810236,32
         00000226 0000E000 
    1447 00000228                   .sect   ".text"
    1448                            .clink
    1449                            .thumbfunc xQueueGenericSend
    1450 00000228                   .thumb
    1451                            .global xQueueGenericSend
    1452                    
    1453                    $C$DW$87        .dwtag  DW_TAG_subprogram
    1454                            .dwattr $C$DW$87, DW_AT_name("xQueueGenericSend")
    1455                            .dwattr $C$DW$87, DW_AT_low_pc(xQueueGenericSend)
    1456                            .dwattr $C$DW$87, DW_AT_high_pc(0x00)
    1457                            .dwattr $C$DW$87, DW_AT_TI_symbol_name("xQueueGenericSend")
    1458                            .dwattr $C$DW$87, DW_AT_external
    1459                            .dwattr $C$DW$87, DW_AT_type(*$C$DW$T$98)
    1460                            .dwattr $C$DW$87, DW_AT_TI_begin_file("../OS/queue.c")
    1461                            .dwattr $C$DW$87, DW_AT_TI_begin_line(0x2eb)
    1462                            .dwattr $C$DW$87, DW_AT_TI_begin_column(0x0c)
    1463                            .dwattr $C$DW$87, DW_AT_decl_file("../OS/queue.c")
    1464                            .dwattr $C$DW$87, DW_AT_decl_line(0x2eb)
    1465                            .dwattr $C$DW$87, DW_AT_decl_column(0x0c)
    1466                            .dwattr $C$DW$87, DW_AT_TI_max_frame_size(0x28)
    1467                            .dwpsn  file "../OS/queue.c",line 748,column 1,is_stmt,address xQueueGenericSend,isa 1
    1468                    
    1469                            .dwfde $C$DW$CIE, xQueueGenericSend
    1470                    $C$DW$88        .dwtag  DW_TAG_formal_parameter
    1471                            .dwattr $C$DW$88, DW_AT_name("xQueue")
    1472                            .dwattr $C$DW$88, DW_AT_TI_symbol_name("xQueue")
    1473                            .dwattr $C$DW$88, DW_AT_type(*$C$DW$T$110)
    1474                            .dwattr $C$DW$88, DW_AT_location[DW_OP_reg0]
    1475                    
    1476                    $C$DW$89        .dwtag  DW_TAG_formal_parameter
    1477                            .dwattr $C$DW$89, DW_AT_name("pvItemToQueue")
    1478                            .dwattr $C$DW$89, DW_AT_TI_symbol_name("pvItemToQueue")
    1479                            .dwattr $C$DW$89, DW_AT_type(*$C$DW$T$131)
    1480                            .dwattr $C$DW$89, DW_AT_location[DW_OP_reg1]
    1481                    
    1482                    $C$DW$90        .dwtag  DW_TAG_formal_parameter
    1483                            .dwattr $C$DW$90, DW_AT_name("xTicksToWait")
    1484                            .dwattr $C$DW$90, DW_AT_TI_symbol_name("xTicksToWait")
TI ARM Assembler Unix v18.1.1 Fri Jul  3 20:08:23 2020

Tools Copyright (c) 1996-2017 Texas Instruments Incorporated
queue.asm                                                            PAGE   28

    1485                            .dwattr $C$DW$90, DW_AT_type(*$C$DW$T$54)
    1486                            .dwattr $C$DW$90, DW_AT_location[DW_OP_reg2]
    1487                    
    1488                    $C$DW$91        .dwtag  DW_TAG_formal_parameter
    1489                            .dwattr $C$DW$91, DW_AT_name("xCopyPosition")
    1490                            .dwattr $C$DW$91, DW_AT_TI_symbol_name("xCopyPosition")
    1491                            .dwattr $C$DW$91, DW_AT_type(*$C$DW$T$142)
    1492                            .dwattr $C$DW$91, DW_AT_location[DW_OP_reg3]
    1493                    
    1494                    ;----------------------------------------------------------------------
    1495                    ; 747 | BaseType_t xQueueGenericSend( QueueHandle_t xQueue, const void * const
    1496                    ;     | pvItemToQueue, TickType_t xTicksToWait, const BaseType_t xCopyPosition 
    1497                    ;     | )                                                                      
    1498                    ;----------------------------------------------------------------------
    1499                    
    1500                    ;*****************************************************************************
    1501                    ;* FUNCTION NAME: xQueueGenericSend                                          *
    1502                    ;*                                                                           *
    1503                    ;*   Regs Modified     : A1,A2,A3,A4,V9,SP,LR,SR,D0,D0_hi,D1,D1_hi,D2,D2_hi, *
    1504                    ;*                           D3,D3_hi,D4,D4_hi,D5,D5_hi,D6,D6_hi,D7,D7_hi,   *
    1505                    ;*                           FPEXC,FPSCR                                     *
    1506                    ;*   Regs Used         : A1,A2,A3,A4,V9,SP,LR,SR,D0,D0_hi,D1,D1_hi,D2,D2_hi, *
    1507                    ;*                           D3,D3_hi,D4,D4_hi,D5,D5_hi,D6,D6_hi,D7,D7_hi,   *
    1508                    ;*                           FPEXC,FPSCR                                     *
    1509                    ;*   Local Frame Size  : 0 Args + 36 Auto + 4 Save = 40 byte                 *
    1510                    ;*****************************************************************************
    1511 00000228           xQueueGenericSend:
    1512                    ;* --------------------------------------------------------------------------*
    1513                            .dwcfi  cfa_offset, 0
    1514 00000228 B500              PUSH      {LR}                  ; [DPU_V7M3_PIPE]  ; [ORIG 16-BIT INS]
    1515                            .dwcfi  cfa_offset, 4
    1516                            .dwcfi  save_reg_to_mem, 14, -4
    1517 0000022a 0D24F1AD          SUB       SP, SP, #36           ; [DPU_V7M3_PIPE]  ; [KEEP 32-BIT INS]
    1518                            .dwcfi  cfa_offset, 40
    1519                    $C$DW$92        .dwtag  DW_TAG_variable
    1520                            .dwattr $C$DW$92, DW_AT_name("xTimeOut")
    1521                            .dwattr $C$DW$92, DW_AT_TI_symbol_name("xTimeOut")
    1522                            .dwattr $C$DW$92, DW_AT_type(*$C$DW$T$148)
    1523                            .dwattr $C$DW$92, DW_AT_location[DW_OP_breg13 0]
    1524                    
    1525                    $C$DW$93        .dwtag  DW_TAG_variable
    1526                            .dwattr $C$DW$93, DW_AT_name("xQueue")
    1527                            .dwattr $C$DW$93, DW_AT_TI_symbol_name("xQueue")
    1528                            .dwattr $C$DW$93, DW_AT_type(*$C$DW$T$110)
    1529                            .dwattr $C$DW$93, DW_AT_location[DW_OP_breg13 8]
    1530                    
    1531                    $C$DW$94        .dwtag  DW_TAG_variable
    1532                            .dwattr $C$DW$94, DW_AT_name("pvItemToQueue")
    1533                            .dwattr $C$DW$94, DW_AT_TI_symbol_name("pvItemToQueue")
    1534                            .dwattr $C$DW$94, DW_AT_type(*$C$DW$T$131)
    1535                            .dwattr $C$DW$94, DW_AT_location[DW_OP_breg13 12]
    1536                    
    1537                    $C$DW$95        .dwtag  DW_TAG_variable
    1538                            .dwattr $C$DW$95, DW_AT_name("xTicksToWait")
    1539                            .dwattr $C$DW$95, DW_AT_TI_symbol_name("xTicksToWait")
TI ARM Assembler Unix v18.1.1 Fri Jul  3 20:08:23 2020

Tools Copyright (c) 1996-2017 Texas Instruments Incorporated
queue.asm                                                            PAGE   29

    1540                            .dwattr $C$DW$95, DW_AT_type(*$C$DW$T$54)
    1541                            .dwattr $C$DW$95, DW_AT_location[DW_OP_breg13 16]
    1542                    
    1543                    $C$DW$96        .dwtag  DW_TAG_variable
    1544                            .dwattr $C$DW$96, DW_AT_name("xCopyPosition")
    1545                            .dwattr $C$DW$96, DW_AT_TI_symbol_name("xCopyPosition")
    1546                            .dwattr $C$DW$96, DW_AT_type(*$C$DW$T$142)
    1547                            .dwattr $C$DW$96, DW_AT_location[DW_OP_breg13 20]
    1548                    
    1549                    $C$DW$97        .dwtag  DW_TAG_variable
    1550                            .dwattr $C$DW$97, DW_AT_name("xEntryTimeSet")
    1551                            .dwattr $C$DW$97, DW_AT_TI_symbol_name("xEntryTimeSet")
    1552                            .dwattr $C$DW$97, DW_AT_type(*$C$DW$T$98)
    1553                            .dwattr $C$DW$97, DW_AT_location[DW_OP_breg13 24]
    1554                    
    1555                    $C$DW$98        .dwtag  DW_TAG_variable
    1556                            .dwattr $C$DW$98, DW_AT_name("xYieldRequired")
    1557                            .dwattr $C$DW$98, DW_AT_TI_symbol_name("xYieldRequired")
    1558                            .dwattr $C$DW$98, DW_AT_type(*$C$DW$T$98)
    1559                            .dwattr $C$DW$98, DW_AT_location[DW_OP_breg13 28]
    1560                    
    1561                    $C$DW$99        .dwtag  DW_TAG_variable
    1562                            .dwattr $C$DW$99, DW_AT_name("pxQueue")
    1563                            .dwattr $C$DW$99, DW_AT_TI_symbol_name("pxQueue")
    1564                            .dwattr $C$DW$99, DW_AT_type(*$C$DW$T$127)
    1565                            .dwattr $C$DW$99, DW_AT_location[DW_OP_breg13 32]
    1566                    
    1567 0000022e 9305              STR       A4, [SP, #20]         ; [DPU_V7M3_PIPE] |748|  ; [ORIG 16-BIT INS]
    1568 00000230 9204              STR       A3, [SP, #16]         ; [DPU_V7M3_PIPE] |748|  ; [ORIG 16-BIT INS]
    1569 00000232 9103              STR       A2, [SP, #12]         ; [DPU_V7M3_PIPE] |748|  ; [ORIG 16-BIT INS]
    1570 00000234 9002              STR       A1, [SP, #8]          ; [DPU_V7M3_PIPE] |748|  ; [ORIG 16-BIT INS]
    1571                            .dwpsn  file "../OS/queue.c",line 749,column 26,is_stmt,isa 1
    1572                    ;----------------------------------------------------------------------
    1573                    ; 749 | BaseType_t xEntryTimeSet = pdFALSE, xYieldRequired;                    
    1574                    ; 750 | TimeOut_t xTimeOut;                                                    
    1575                    ;----------------------------------------------------------------------
    1576 00000236 2000              MOVS      A1, #0                ; [DPU_V7M3_PIPE] |749|  ; [ORIG 16-BIT INS]
    1577 00000238 9006              STR       A1, [SP, #24]         ; [DPU_V7M3_PIPE] |749|  ; [ORIG 16-BIT INS]
    1578                            .dwpsn  file "../OS/queue.c",line 751,column 25,is_stmt,isa 1
    1579                    ;----------------------------------------------------------------------
    1580                    ; 751 | Queue_t * const pxQueue = xQueue;                                      
    1581                    ;----------------------------------------------------------------------
    1582 0000023a 9802              LDR       A1, [SP, #8]          ; [DPU_V7M3_PIPE] |751|  ; [ORIG 16-BIT INS]
    1583 0000023c 9008              STR       A1, [SP, #32]         ; [DPU_V7M3_PIPE] |751|  ; [ORIG 16-BIT INS]
    1584                            .dwpsn  file "../OS/queue.c",line 753,column 2,is_stmt,isa 1
    1585                    ;----------------------------------------------------------------------
    1586                    ; 753 | configASSERT( pxQueue );                                               
    1587                    ;----------------------------------------------------------------------
    1588 0000023e 9808              LDR       A1, [SP, #32]         ; [DPU_V7M3_PIPE] |753|  ; [ORIG 16-BIT INS]
    1589 00000240 B938              CBNZ      A1, ||$C$L29||        ; []  ; [ORIG 16-BIT INS]
    1590                            ; BRANCHCC OCCURS {||$C$L29||}   ; [] |753| 
    1591                    ;* --------------------------------------------------------------------------*
    1592 00000242 20A0              MOVS      A1, #160              ; [DPU_V7M3_PIPE] |753|  ; [ORIG 16-BIT INS]
    1593 00000244 8811F380          MSR       BASEPRI, A1           ; [DPU_V7M3_PIPE] |753|  ; [KEEP 32-BIT INS]
    1594 00000248 8F4FF3BF          dsb ; [KEEP 32-BIT INS]
TI ARM Assembler Unix v18.1.1 Fri Jul  3 20:08:23 2020

Tools Copyright (c) 1996-2017 Texas Instruments Incorporated
queue.asm                                                            PAGE   30

    1595 0000024c 8F6FF3BF          isb ; [KEEP 32-BIT INS]
    1596                    ;* --------------------------------------------------------------------------*
    1597                    ;*   BEGIN LOOP ||$C$L28||
    1598                    ;*
    1599                    ;*   Loop source line                : 753
    1600                    ;*   Loop closing brace source line  : 753
    1601                    ;*   Known Minimum Trip Count        : 1
    1602                    ;*   Known Maximum Trip Count        : 4294967295
    1603                    ;*   Known Max Trip Count Factor     : 1
    1604                    ;* --------------------------------------------------------------------------*
    1605 00000250           ||$C$L28||:    
    1606 00000250 E7FE              B         ||$C$L28||            ; [DPU_V7M3_PIPE] |753|  ; [ORIG 16-BIT INS]
    1607                            ; BRANCH OCCURS {||$C$L28||}     ; [] |753| 
    1608                    ;* --------------------------------------------------------------------------*
    1609 00000252           ||$C$L29||:    
    1610                            .dwpsn  file "../OS/queue.c",line 754,column 2,is_stmt,isa 1
    1611                    ;----------------------------------------------------------------------
    1612                    ; 754 | configASSERT( !( ( pvItemToQueue == NULL ) && ( pxQueue->uxItemSize !=
    1613                    ;     | ( UBaseType_t ) 0U ) ) );                                              
    1614                    ;----------------------------------------------------------------------
    1615 00000252 9A03              LDR       A3, [SP, #12]         ; [DPU_V7M3_PIPE] |754|  ; [ORIG 16-BIT INS]
    1616 00000254 2000              MOVS      A1, #0                ; [DPU_V7M3_PIPE] |754|  ; [ORIG 16-BIT INS]
    1617 00000256 2100              MOVS      A2, #0                ; [DPU_V7M3_PIPE] |754|  ; [ORIG 16-BIT INS]
    1618 00000258 B91A              CBNZ      A3, ||$C$L30||        ; []  ; [ORIG 16-BIT INS]
    1619                            ; BRANCHCC OCCURS {||$C$L30||}   ; [] |754| 
    1620                    ;* --------------------------------------------------------------------------*
    1621 0000025a 9A08              LDR       A3, [SP, #32]         ; [DPU_V7M3_PIPE] |754|  ; [ORIG 16-BIT INS]
    1622 0000025c 6C12              LDR       A3, [A3, #64]         ; [DPU_V7M3_PIPE] |754|  ; [ORIG 16-BIT INS]
    1623 0000025e B102              CBZ       A3, ||$C$L30||        ; []  ; [ORIG 16-BIT INS]
    1624                            ; BRANCHCC OCCURS {||$C$L30||}   ; [] |754| 
    1625                    ;* --------------------------------------------------------------------------*
    1626 00000260 2101              MOVS      A2, #1                ; [DPU_V7M3_PIPE] |754|  ; [ORIG 16-BIT INS]
    1627                    ;* --------------------------------------------------------------------------*
    1628 00000262           ||$C$L30||:    
    1629 00000262 B901              CBNZ      A2, ||$C$L31||        ; []  ; [ORIG 16-BIT INS]
    1630                            ; BRANCHCC OCCURS {||$C$L31||}   ; [] |754| 
    1631                    ;* --------------------------------------------------------------------------*
    1632 00000264 2001              MOVS      A1, #1                ; [DPU_V7M3_PIPE] |754|  ; [ORIG 16-BIT INS]
    1633                    ;* --------------------------------------------------------------------------*
    1634 00000266           ||$C$L31||:    
    1635 00000266 B938              CBNZ      A1, ||$C$L33||        ; []  ; [ORIG 16-BIT INS]
    1636                            ; BRANCHCC OCCURS {||$C$L33||}   ; [] |754| 
    1637                    ;* --------------------------------------------------------------------------*
    1638 00000268 20A0              MOVS      A1, #160              ; [DPU_V7M3_PIPE] |754|  ; [ORIG 16-BIT INS]
    1639 0000026a 8811F380          MSR       BASEPRI, A1           ; [DPU_V7M3_PIPE] |754|  ; [KEEP 32-BIT INS]
    1640 0000026e 8F4FF3BF          dsb ; [KEEP 32-BIT INS]
    1641 00000272 8F6FF3BF          isb ; [KEEP 32-BIT INS]
    1642                    ;* --------------------------------------------------------------------------*
    1643                    ;*   BEGIN LOOP ||$C$L32||
    1644                    ;*
    1645                    ;*   Loop source line                : 754
    1646                    ;*   Loop closing brace source line  : 754
    1647                    ;*   Known Minimum Trip Count        : 1
    1648                    ;*   Known Maximum Trip Count        : 4294967295
    1649                    ;*   Known Max Trip Count Factor     : 1
TI ARM Assembler Unix v18.1.1 Fri Jul  3 20:08:23 2020

Tools Copyright (c) 1996-2017 Texas Instruments Incorporated
queue.asm                                                            PAGE   31

    1650                    ;* --------------------------------------------------------------------------*
    1651 00000276           ||$C$L32||:    
    1652 00000276 E7FE              B         ||$C$L32||            ; [DPU_V7M3_PIPE] |754|  ; [ORIG 16-BIT INS]
    1653                            ; BRANCH OCCURS {||$C$L32||}     ; [] |754| 
    1654                    ;* --------------------------------------------------------------------------*
    1655 00000278           ||$C$L33||:    
    1656                            .dwpsn  file "../OS/queue.c",line 755,column 2,is_stmt,isa 1
    1657                    ;----------------------------------------------------------------------
    1658                    ; 755 | configASSERT( !( ( xCopyPosition == queueOVERWRITE ) && ( pxQueue->uxLe
    1659                    ;     | ngth != 1 ) ) );                                                       
    1660                    ; 756 | #if ( ( INCLUDE_xTaskGetSchedulerState == 1 ) || ( configUSE_TIMERS ==
    1661                    ;     | 1 ) )                                                                  
    1662                    ;----------------------------------------------------------------------
    1663 00000278 9A05              LDR       A3, [SP, #20]         ; [DPU_V7M3_PIPE] |755|  ; [ORIG 16-BIT INS]
    1664 0000027a 2000              MOVS      A1, #0                ; [DPU_V7M3_PIPE] |755|  ; [ORIG 16-BIT INS]
    1665 0000027c 2100              MOVS      A2, #0                ; [DPU_V7M3_PIPE] |755|  ; [ORIG 16-BIT INS]
    1666 0000027e 2A02              CMP       A3, #2                ; [DPU_V7M3_PIPE] |755|  ; [ORIG 16-BIT INS]
    1667 00000280 D104              BNE       ||$C$L34||            ; [DPU_V7M3_PIPE] |755|  ; [ORIG 16-BIT INS]
    1668                            ; BRANCHCC OCCURS {||$C$L34||}   ; [] |755| 
    1669                    ;* --------------------------------------------------------------------------*
    1670 00000282 9A08              LDR       A3, [SP, #32]         ; [DPU_V7M3_PIPE] |755|  ; [ORIG 16-BIT INS]
    1671 00000284 6BD2              LDR       A3, [A3, #60]         ; [DPU_V7M3_PIPE] |755|  ; [ORIG 16-BIT INS]
    1672 00000286 2A01              CMP       A3, #1                ; [DPU_V7M3_PIPE] |755|  ; [ORIG 16-BIT INS]
    1673 00000288 D000              BEQ       ||$C$L34||            ; [DPU_V7M3_PIPE] |755|  ; [ORIG 16-BIT INS]
    1674                            ; BRANCHCC OCCURS {||$C$L34||}   ; [] |755| 
    1675                    ;* --------------------------------------------------------------------------*
    1676 0000028a 2101              MOVS      A2, #1                ; [DPU_V7M3_PIPE] |755|  ; [ORIG 16-BIT INS]
    1677                    ;* --------------------------------------------------------------------------*
    1678 0000028c           ||$C$L34||:    
    1679 0000028c B901              CBNZ      A2, ||$C$L35||        ; []  ; [ORIG 16-BIT INS]
    1680                            ; BRANCHCC OCCURS {||$C$L35||}   ; [] |755| 
    1681                    ;* --------------------------------------------------------------------------*
    1682 0000028e 2001              MOVS      A1, #1                ; [DPU_V7M3_PIPE] |755|  ; [ORIG 16-BIT INS]
    1683                    ;* --------------------------------------------------------------------------*
    1684 00000290           ||$C$L35||:    
    1685 00000290 B938              CBNZ      A1, ||$C$L37||        ; []  ; [ORIG 16-BIT INS]
    1686                            ; BRANCHCC OCCURS {||$C$L37||}   ; [] |755| 
    1687                    ;* --------------------------------------------------------------------------*
    1688 00000292 20A0              MOVS      A1, #160              ; [DPU_V7M3_PIPE] |755|  ; [ORIG 16-BIT INS]
    1689 00000294 8811F380          MSR       BASEPRI, A1           ; [DPU_V7M3_PIPE] |755|  ; [KEEP 32-BIT INS]
    1690 00000298 8F4FF3BF          dsb ; [KEEP 32-BIT INS]
    1691 0000029c 8F6FF3BF          isb ; [KEEP 32-BIT INS]
    1692                    ;* --------------------------------------------------------------------------*
    1693                    ;*   BEGIN LOOP ||$C$L36||
    1694                    ;*
    1695                    ;*   Loop source line                : 755
    1696                    ;*   Loop closing brace source line  : 755
    1697                    ;*   Known Minimum Trip Count        : 1
    1698                    ;*   Known Maximum Trip Count        : 4294967295
    1699                    ;*   Known Max Trip Count Factor     : 1
    1700                    ;* --------------------------------------------------------------------------*
    1701 000002a0           ||$C$L36||:    
    1702 000002a0 E7FE              B         ||$C$L36||            ; [DPU_V7M3_PIPE] |755|  ; [ORIG 16-BIT INS]
    1703                            ; BRANCH OCCURS {||$C$L36||}     ; [] |755| 
    1704                    ;* --------------------------------------------------------------------------*
TI ARM Assembler Unix v18.1.1 Fri Jul  3 20:08:23 2020

Tools Copyright (c) 1996-2017 Texas Instruments Incorporated
queue.asm                                                            PAGE   32

    1705 000002a2           ||$C$L37||:    
    1706                            .dwpsn  file "../OS/queue.c",line 758,column 3,is_stmt,isa 1
    1707                    ;----------------------------------------------------------------------
    1708                    ; 758 | configASSERT( !( ( xTaskGetSchedulerState() == taskSCHEDULER_SUSPENDED
    1709                    ;     | ) && ( xTicksToWait != 0 ) ) );                                        
    1710                    ; 760 | #endif                                                                 
    1711                    ; 766 | for( ;; )                                                              
    1712                    ;----------------------------------------------------------------------
    1713                    $C$DW$100       .dwtag  DW_TAG_TI_branch
    1714                            .dwattr $C$DW$100, DW_AT_low_pc(0x00)
    1715                            .dwattr $C$DW$100, DW_AT_name("xTaskGetSchedulerState")
    1716                            .dwattr $C$DW$100, DW_AT_TI_call
    1717                    
    1718 000002a2 FFFEF7FF!         BL        xTaskGetSchedulerState ; [DPU_V7M3_PIPE] |758|  ; [KEEP 32-BIT INS]
    1719                            ; CALL OCCURS {xTaskGetSchedulerState }  ; [] |758| 
    1720 000002a6 2100              MOVS      A2, #0                ; [DPU_V7M3_PIPE] |758|  ; [ORIG 16-BIT INS]
    1721 000002a8 2200              MOVS      A3, #0                ; [DPU_V7M3_PIPE] |758|  ; [ORIG 16-BIT INS]
    1722 000002aa B910              CBNZ      A1, ||$C$L38||        ; []  ; [ORIG 16-BIT INS]
    1723                            ; BRANCHCC OCCURS {||$C$L38||}   ; [] |758| 
    1724                    ;* --------------------------------------------------------------------------*
    1725 000002ac 9804              LDR       A1, [SP, #16]         ; [DPU_V7M3_PIPE] |758|  ; [ORIG 16-BIT INS]
    1726 000002ae B100              CBZ       A1, ||$C$L38||        ; []  ; [ORIG 16-BIT INS]
    1727                            ; BRANCHCC OCCURS {||$C$L38||}   ; [] |758| 
    1728                    ;* --------------------------------------------------------------------------*
    1729 000002b0 2201              MOVS      A3, #1                ; [DPU_V7M3_PIPE] |758|  ; [ORIG 16-BIT INS]
    1730                    ;* --------------------------------------------------------------------------*
    1731 000002b2           ||$C$L38||:    
    1732 000002b2 B902              CBNZ      A3, ||$C$L39||        ; []  ; [ORIG 16-BIT INS]
    1733                            ; BRANCHCC OCCURS {||$C$L39||}   ; [] |758| 
    1734                    ;* --------------------------------------------------------------------------*
    1735 000002b4 2101              MOVS      A2, #1                ; [DPU_V7M3_PIPE] |758|  ; [ORIG 16-BIT INS]
    1736                    ;* --------------------------------------------------------------------------*
    1737 000002b6           ||$C$L39||:    
    1738 000002b6 B939              CBNZ      A2, ||$C$L41||        ; []  ; [ORIG 16-BIT INS]
    1739                            ; BRANCHCC OCCURS {||$C$L41||}   ; [] |758| 
    1740                    ;* --------------------------------------------------------------------------*
    1741 000002b8 20A0              MOVS      A1, #160              ; [DPU_V7M3_PIPE] |758|  ; [ORIG 16-BIT INS]
    1742 000002ba 8811F380          MSR       BASEPRI, A1           ; [DPU_V7M3_PIPE] |758|  ; [KEEP 32-BIT INS]
    1743 000002be 8F4FF3BF          dsb ; [KEEP 32-BIT INS]
    1744 000002c2 8F6FF3BF          isb ; [KEEP 32-BIT INS]
    1745                    ;* --------------------------------------------------------------------------*
    1746                    ;*   BEGIN LOOP ||$C$L40||
    1747                    ;*
    1748                    ;*   Loop source line                : 758
    1749                    ;*   Loop closing brace source line  : 758
    1750                    ;*   Known Minimum Trip Count        : 1
    1751                    ;*   Known Maximum Trip Count        : 4294967295
    1752                    ;*   Known Max Trip Count Factor     : 1
    1753                    ;* --------------------------------------------------------------------------*
    1754 000002c6           ||$C$L40||:    
    1755 000002c6 E7FE              B         ||$C$L40||            ; [DPU_V7M3_PIPE] |758|  ; [ORIG 16-BIT INS]
    1756                            ; BRANCH OCCURS {||$C$L40||}     ; [] |758| 
    1757                    ;* --------------------------------------------------------------------------*
    1758                    ;*   BEGIN LOOP ||$C$L41||
    1759                    ;*
TI ARM Assembler Unix v18.1.1 Fri Jul  3 20:08:23 2020

Tools Copyright (c) 1996-2017 Texas Instruments Incorporated
queue.asm                                                            PAGE   33

    1760                    ;*   Loop source line                : 766
    1761                    ;*   Loop closing brace source line  : 953
    1762                    ;*   Known Minimum Trip Count        : 1
    1763                    ;*   Known Maximum Trip Count        : 4294967295
    1764                    ;*   Known Max Trip Count Factor     : 1
    1765                    ;* --------------------------------------------------------------------------*
    1766 000002c8           ||$C$L41||:    
    1767                            .dwpsn  file "../OS/queue.c",line 768,column 3,is_stmt,isa 1
    1768                    ;----------------------------------------------------------------------
    1769                    ; 768 | taskENTER_CRITICAL();                                                  
    1770                    ;----------------------------------------------------------------------
    1771                    $C$DW$101       .dwtag  DW_TAG_TI_branch
    1772                            .dwattr $C$DW$101, DW_AT_low_pc(0x00)
    1773                            .dwattr $C$DW$101, DW_AT_name("vPortEnterCritical")
    1774                            .dwattr $C$DW$101, DW_AT_TI_call
    1775                    
    1776 000002c8 FFFEF7FF!         BL        vPortEnterCritical    ; [DPU_V7M3_PIPE] |768|  ; [KEEP 32-BIT INS]
    1777                            ; CALL OCCURS {vPortEnterCritical }  ; [] |768| 
    1778                            .dwpsn  file "../OS/queue.c",line 774,column 4,is_stmt,isa 1
    1779                    ;----------------------------------------------------------------------
    1780                    ; 774 | if( ( pxQueue->uxMessagesWaiting < pxQueue->uxLength ) || ( xCopyPositi
    1781                    ;     | on == queueOVERWRITE ) )                                               
    1782                    ; 776 |         traceQUEUE_SEND( pxQueue );                                    
    1783                    ; 778 |         #if ( configUSE_QUEUE_SETS == 1 )                              
    1784                    ; 780 |         UBaseType_t uxPreviousMessagesWaiting = pxQueue->uxMessagesWait
    1785                    ;     | ing;                                                                   
    1786                    ; 782 |                 xYieldRequired = prvCopyDataToQueue( pxQueue, pvItemToQ
    1787                    ;     | ueue, xCopyPosition );                                                 
    1788                    ; 784 |                 if( pxQueue->pxQueueSetContainer != NULL )             
    1789                    ; 786 |                         if( ( xCopyPosition == queueOVERWRITE ) && ( ux
    1790                    ;     | PreviousMessagesWaiting != ( UBaseType_t ) 0 ) )                       
    1791                    ; 791 |                                 mtCOVERAGE_TEST_MARKER();              
    1792                    ; 793 |                         else if( prvNotifyQueueSetContainer( pxQueue, x
    1793                    ;     | CopyPosition ) != pdFALSE )                                            
    1794                    ; 798 |                                 queueYIELD_IF_USING_PREEMPTION();      
    1795                    ; 800 |                         else                                           
    1796                    ; 802 |                                 mtCOVERAGE_TEST_MARKER();              
    1797                    ; 805 |                 else                                                   
    1798                    ; 809 |                         if( listLIST_IS_EMPTY( &( pxQueue->xTasksWaitin
    1799                    ;     | gToReceive ) ) == pdFALSE )                                            
    1800                    ; 811 |                                 if( xTaskRemoveFromEventList( &( pxQueu
    1801                    ;     | e->xTasksWaitingToReceive ) ) != pdFALSE )                             
    1802                    ; 817 |                                         queueYIELD_IF_USING_PREEMPTION(
    1803                    ;     | );                                                                     
    1804                    ; 819 |                                 else                                   
    1805                    ; 821 |                                         mtCOVERAGE_TEST_MARKER();      
    1806                    ; 824 |                         else if( xYieldRequired != pdFALSE )           
    1807                    ; 830 |                                 queueYIELD_IF_USING_PREEMPTION();      
    1808                    ; 832 |                         else                                           
    1809                    ; 834 |                                 mtCOVERAGE_TEST_MARKER();              
    1810                    ; 838 |         #else /* configUSE_QUEUE_SETS */                               
    1811                    ;----------------------------------------------------------------------
    1812 000002cc 9808              LDR       A1, [SP, #32]         ; [DPU_V7M3_PIPE] |774|  ; [ORIG 16-BIT INS]
    1813 000002ce 9908              LDR       A2, [SP, #32]         ; [DPU_V7M3_PIPE] |774|  ; [ORIG 16-BIT INS]
    1814 000002d0 6BC0              LDR       A1, [A1, #60]         ; [DPU_V7M3_PIPE] |774|  ; [ORIG 16-BIT INS]
TI ARM Assembler Unix v18.1.1 Fri Jul  3 20:08:23 2020

Tools Copyright (c) 1996-2017 Texas Instruments Incorporated
queue.asm                                                            PAGE   34

    1815 000002d2 6B89              LDR       A2, [A2, #56]         ; [DPU_V7M3_PIPE] |774|  ; [ORIG 16-BIT INS]
    1816 000002d4 4288              CMP       A1, A2                ; [DPU_V7M3_PIPE] |774|  ; [ORIG 16-BIT INS]
    1817 000002d6 D802              BHI       ||$C$L42||            ; [DPU_V7M3_PIPE] |774|  ; [ORIG 16-BIT INS]
    1818                            ; BRANCHCC OCCURS {||$C$L42||}   ; [] |774| 
    1819                    ;* --------------------------------------------------------------------------*
    1820 000002d8 9805              LDR       A1, [SP, #20]         ; [DPU_V7M3_PIPE] |774|  ; [ORIG 16-BIT INS]
    1821 000002da 2802              CMP       A1, #2                ; [DPU_V7M3_PIPE] |774|  ; [ORIG 16-BIT INS]
    1822 000002dc D128              BNE       ||$C$L47||            ; [DPU_V7M3_PIPE] |774|  ; [ORIG 16-BIT INS]
    1823                            ; BRANCHCC OCCURS {||$C$L47||}   ; [] |774| 
    1824                    ;* --------------------------------------------------------------------------*
    1825 000002de           ||$C$L42||:    
    1826                            .dwpsn  file "../OS/queue.c",line 840,column 6,is_stmt,isa 1
    1827                    ;----------------------------------------------------------------------
    1828                    ; 840 | xYieldRequired = prvCopyDataToQueue( pxQueue, pvItemToQueue, xCopyPosit
    1829                    ;     | ion );                                                                 
    1830                    ;----------------------------------------------------------------------
    1831 000002de 9808              LDR       A1, [SP, #32]         ; [DPU_V7M3_PIPE] |840|  ; [ORIG 16-BIT INS]
    1832 000002e0 9903              LDR       A2, [SP, #12]         ; [DPU_V7M3_PIPE] |840|  ; [ORIG 16-BIT INS]
    1833 000002e2 9A05              LDR       A3, [SP, #20]         ; [DPU_V7M3_PIPE] |840|  ; [ORIG 16-BIT INS]
    1834                    $C$DW$102       .dwtag  DW_TAG_TI_branch
    1835                            .dwattr $C$DW$102, DW_AT_low_pc(0x00)
    1836                            .dwattr $C$DW$102, DW_AT_name("prvCopyDataToQueue")
    1837                            .dwattr $C$DW$102, DW_AT_TI_call
    1838                    
    1839 000002e4 FFFEF7FF!         BL        prvCopyDataToQueue    ; [DPU_V7M3_PIPE] |840|  ; [KEEP 32-BIT INS]
    1840                            ; CALL OCCURS {prvCopyDataToQueue }  ; [] |840| 
    1841 000002e8 9007              STR       A1, [SP, #28]         ; [DPU_V7M3_PIPE] |840|  ; [ORIG 16-BIT INS]
    1842                            .dwpsn  file "../OS/queue.c",line 844,column 6,is_stmt,isa 1
    1843                    ;----------------------------------------------------------------------
    1844                    ; 844 | if( listLIST_IS_EMPTY( &( pxQueue->xTasksWaitingToReceive ) ) == pdFALS
    1845                    ;     | E )                                                                    
    1846                    ;----------------------------------------------------------------------
    1847 000002ea 9808              LDR       A1, [SP, #32]         ; [DPU_V7M3_PIPE] |844|  ; [ORIG 16-BIT INS]
    1848 000002ec 6A40              LDR       A1, [A1, #36]         ; [DPU_V7M3_PIPE] |844|  ; [ORIG 16-BIT INS]
    1849 000002ee B908              CBNZ      A1, ||$C$L43||        ; []  ; [ORIG 16-BIT INS]
    1850                            ; BRANCHCC OCCURS {||$C$L43||}   ; [] |844| 
    1851                    ;* --------------------------------------------------------------------------*
    1852 000002f0 2001              MOVS      A1, #1                ; [DPU_V7M3_PIPE] |844|  ; [ORIG 16-BIT INS]
    1853 000002f2 E000              B         ||$C$L44||            ; [DPU_V7M3_PIPE] |844|  ; [ORIG 16-BIT INS]
    1854                            ; BRANCH OCCURS {||$C$L44||}     ; [] |844| 
    1855                    ;* --------------------------------------------------------------------------*
    1856 000002f4           ||$C$L43||:    
    1857 000002f4 2000              MOVS      A1, #0                ; [DPU_V7M3_PIPE] |844|  ; [ORIG 16-BIT INS]
    1858                    ;* --------------------------------------------------------------------------*
    1859 000002f6           ||$C$L44||:    
    1860 000002f6 B968              CBNZ      A1, ||$C$L45||        ; []  ; [ORIG 16-BIT INS]
    1861                            ; BRANCHCC OCCURS {||$C$L45||}   ; [] |844| 
    1862                    ;* --------------------------------------------------------------------------*
    1863                            .dwpsn  file "../OS/queue.c",line 846,column 7,is_stmt,isa 1
    1864                    ;----------------------------------------------------------------------
    1865                    ; 846 | if( xTaskRemoveFromEventList( &( pxQueue->xTasksWaitingToReceive ) ) !=
    1866                    ;     |  pdFALSE )                                                             
    1867                    ;----------------------------------------------------------------------
    1868 000002f8 9808              LDR       A1, [SP, #32]         ; [DPU_V7M3_PIPE] |846|  ; [ORIG 16-BIT INS]
    1869 000002fa 3024              ADDS      A1, A1, #36           ; [DPU_V7M3_PIPE] |846|  ; [ORIG 16-BIT INS]
TI ARM Assembler Unix v18.1.1 Fri Jul  3 20:08:23 2020

Tools Copyright (c) 1996-2017 Texas Instruments Incorporated
queue.asm                                                            PAGE   35

    1870                    $C$DW$103       .dwtag  DW_TAG_TI_branch
    1871                            .dwattr $C$DW$103, DW_AT_low_pc(0x00)
    1872                            .dwattr $C$DW$103, DW_AT_name("xTaskRemoveFromEventList")
    1873                            .dwattr $C$DW$103, DW_AT_TI_call
    1874                    
    1875 000002fc FFFEF7FF!         BL        xTaskRemoveFromEventList ; [DPU_V7M3_PIPE] |846|  ; [KEEP 32-BIT INS]
    1876                            ; CALL OCCURS {xTaskRemoveFromEventList }  ; [] |846| 
    1877 00000300 B190              CBZ       A1, ||$C$L46||        ; []  ; [ORIG 16-BIT INS]
    1878                            ; BRANCHCC OCCURS {||$C$L46||}   ; [] |846| 
    1879                    ;* --------------------------------------------------------------------------*
    1880                            .dwpsn  file "../OS/queue.c",line 852,column 8,is_stmt,isa 1
    1881                    ;----------------------------------------------------------------------
    1882                    ; 852 | queueYIELD_IF_USING_PREEMPTION();                                      
    1883                    ;----------------------------------------------------------------------
    1884 00000302 4977              LDR       A2, $C$CON2           ; [DPU_V7M3_PIPE] |852|  ; [ORIG 16-BIT INS]
    1885 00000304 5080F04F          MOV       A1, #268435456        ; [DPU_V7M3_PIPE] |852|  ; [KEEP 32-BIT INS]
    1886 00000308 6008              STR       A1, [A2, #0]          ; [DPU_V7M3_PIPE] |852|  ; [ORIG 16-BIT INS]
    1887 0000030a 8F4FF3BF          dsb ; [KEEP 32-BIT INS]
    1888 0000030e 8F6FF3BF          isb ; [KEEP 32-BIT INS]
    1889                            .dwpsn  file "../OS/queue.c",line 853,column 7,is_stmt,isa 1
    1890                    ;----------------------------------------------------------------------
    1891                    ; 854 | else                                                                   
    1892                    ; 856 |         mtCOVERAGE_TEST_MARKER();                                      
    1893                    ;----------------------------------------------------------------------
    1894 00000312 E009              B         ||$C$L46||            ; [DPU_V7M3_PIPE] |853|  ; [ORIG 16-BIT INS]
    1895                            ; BRANCH OCCURS {||$C$L46||}     ; [] |853| 
    1896                    ;* --------------------------------------------------------------------------*
    1897                    ;* --------------------------------------------------------------------------*
    1898 00000314           ||$C$L45||:    
    1899                            .dwpsn  file "../OS/queue.c",line 859,column 11,is_stmt,isa 1
    1900                    ;----------------------------------------------------------------------
    1901                    ; 859 | else if( xYieldRequired != pdFALSE )                                   
    1902                    ;----------------------------------------------------------------------
    1903 00000314 9807              LDR       A1, [SP, #28]         ; [DPU_V7M3_PIPE] |859|  ; [ORIG 16-BIT INS]
    1904 00000316 B138              CBZ       A1, ||$C$L46||        ; []  ; [ORIG 16-BIT INS]
    1905                            ; BRANCHCC OCCURS {||$C$L46||}   ; [] |859| 
    1906                    ;* --------------------------------------------------------------------------*
    1907                            .dwpsn  file "../OS/queue.c",line 865,column 7,is_stmt,isa 1
    1908                    ;----------------------------------------------------------------------
    1909                    ; 865 | queueYIELD_IF_USING_PREEMPTION();                                      
    1910                    ;----------------------------------------------------------------------
    1911 00000318 4971              LDR       A2, $C$CON2           ; [DPU_V7M3_PIPE] |865|  ; [ORIG 16-BIT INS]
    1912 0000031a 5080F04F          MOV       A1, #268435456        ; [DPU_V7M3_PIPE] |865|  ; [KEEP 32-BIT INS]
    1913 0000031e 6008              STR       A1, [A2, #0]          ; [DPU_V7M3_PIPE] |865|  ; [ORIG 16-BIT INS]
    1914 00000320 8F4FF3BF          dsb ; [KEEP 32-BIT INS]
    1915 00000324 8F6FF3BF          isb ; [KEEP 32-BIT INS]
    1916                            .dwpsn  file "../OS/queue.c",line 866,column 6,is_stmt,isa 1
    1917                    ;----------------------------------------------------------------------
    1918                    ; 867 | else                                                                   
    1919                    ; 869 |         mtCOVERAGE_TEST_MARKER();                                      
    1920                    ; 872 | #endif /* configUSE_QUEUE_SETS */                                      
    1921                    ;----------------------------------------------------------------------
    1922                    ;* --------------------------------------------------------------------------*
    1923 00000328           ||$C$L46||:    
    1924                            .dwpsn  file "../OS/queue.c",line 874,column 5,is_stmt,isa 1
TI ARM Assembler Unix v18.1.1 Fri Jul  3 20:08:23 2020

Tools Copyright (c) 1996-2017 Texas Instruments Incorporated
queue.asm                                                            PAGE   36

    1925                    ;----------------------------------------------------------------------
    1926                    ; 874 | taskEXIT_CRITICAL();                                                   
    1927                    ;----------------------------------------------------------------------
    1928                    $C$DW$104       .dwtag  DW_TAG_TI_branch
    1929                            .dwattr $C$DW$104, DW_AT_low_pc(0x00)
    1930                            .dwattr $C$DW$104, DW_AT_name("vPortExitCritical")
    1931                            .dwattr $C$DW$104, DW_AT_TI_call
    1932                    
    1933 00000328 FFFEF7FF!         BL        vPortExitCritical     ; [DPU_V7M3_PIPE] |874|  ; [KEEP 32-BIT INS]
    1934                            ; CALL OCCURS {vPortExitCritical }  ; [] |874| 
    1935                            .dwpsn  file "../OS/queue.c",line 875,column 5,is_stmt,isa 1
    1936                    ;----------------------------------------------------------------------
    1937                    ; 875 | return pdPASS;                                                         
    1938                    ; 877 | else                                                                   
    1939                    ;----------------------------------------------------------------------
    1940 0000032c 2001              MOVS      A1, #1                ; [DPU_V7M3_PIPE] |875|  ; [ORIG 16-BIT INS]
    1941 0000032e E053              B         ||$C$L54||            ; [DPU_V7M3_PIPE] |875|  ; [ORIG 16-BIT INS]
    1942                            ; BRANCH OCCURS {||$C$L54||}     ; [] |875| 
    1943                    ;* --------------------------------------------------------------------------*
    1944                    ;* --------------------------------------------------------------------------*
    1945 00000330           ||$C$L47||:    
    1946                            .dwpsn  file "../OS/queue.c",line 879,column 5,is_stmt,isa 1
    1947                    ;----------------------------------------------------------------------
    1948                    ; 879 | if( xTicksToWait == ( TickType_t ) 0 )                                 
    1949                    ;----------------------------------------------------------------------
    1950 00000330 9804              LDR       A1, [SP, #16]         ; [DPU_V7M3_PIPE] |879|  ; [ORIG 16-BIT INS]
    1951 00000332 B918              CBNZ      A1, ||$C$L48||        ; []  ; [ORIG 16-BIT INS]
    1952                            ; BRANCHCC OCCURS {||$C$L48||}   ; [] |879| 
    1953                    ;* --------------------------------------------------------------------------*
    1954                            .dwpsn  file "../OS/queue.c",line 883,column 6,is_stmt,isa 1
    1955                    ;----------------------------------------------------------------------
    1956                    ; 883 | taskEXIT_CRITICAL();                                                   
    1957                    ; 887 | traceQUEUE_SEND_FAILED( pxQueue );                                     
    1958                    ;----------------------------------------------------------------------
    1959                    $C$DW$105       .dwtag  DW_TAG_TI_branch
    1960                            .dwattr $C$DW$105, DW_AT_low_pc(0x00)
    1961                            .dwattr $C$DW$105, DW_AT_name("vPortExitCritical")
    1962                            .dwattr $C$DW$105, DW_AT_TI_call
    1963                    
    1964 00000334 FFFEF7FF!         BL        vPortExitCritical     ; [DPU_V7M3_PIPE] |883|  ; [KEEP 32-BIT INS]
    1965                            ; CALL OCCURS {vPortExitCritical }  ; [] |883| 
    1966                            .dwpsn  file "../OS/queue.c",line 888,column 6,is_stmt,isa 1
    1967                    ;----------------------------------------------------------------------
    1968                    ; 888 | return errQUEUE_FULL;                                                  
    1969                    ;----------------------------------------------------------------------
    1970 00000338 2000              MOVS      A1, #0                ; [DPU_V7M3_PIPE] |888|  ; [ORIG 16-BIT INS]
    1971 0000033a E04D              B         ||$C$L54||            ; [DPU_V7M3_PIPE] |888|  ; [ORIG 16-BIT INS]
    1972                            ; BRANCH OCCURS {||$C$L54||}     ; [] |888| 
    1973                    ;* --------------------------------------------------------------------------*
    1974                    ;* --------------------------------------------------------------------------*
    1975 0000033c           ||$C$L48||:    
    1976                            .dwpsn  file "../OS/queue.c",line 890,column 10,is_stmt,isa 1
    1977                    ;----------------------------------------------------------------------
    1978                    ; 890 | else if( xEntryTimeSet == pdFALSE )                                    
    1979                    ;----------------------------------------------------------------------
TI ARM Assembler Unix v18.1.1 Fri Jul  3 20:08:23 2020

Tools Copyright (c) 1996-2017 Texas Instruments Incorporated
queue.asm                                                            PAGE   37

    1980 0000033c 9806              LDR       A1, [SP, #24]         ; [DPU_V7M3_PIPE] |890|  ; [ORIG 16-BIT INS]
    1981 0000033e B920              CBNZ      A1, ||$C$L49||        ; []  ; [ORIG 16-BIT INS]
    1982                            ; BRANCHCC OCCURS {||$C$L49||}   ; [] |890| 
    1983                    ;* --------------------------------------------------------------------------*
    1984                            .dwpsn  file "../OS/queue.c",line 894,column 6,is_stmt,isa 1
    1985                    ;----------------------------------------------------------------------
    1986                    ; 894 | vTaskInternalSetTimeOutState( &xTimeOut );                             
    1987                    ;----------------------------------------------------------------------
    1988 00000340 4668              MOV       A1, SP                ; [DPU_V7M3_PIPE] |894|  ; [ORIG 16-BIT INS]
    1989                    $C$DW$106       .dwtag  DW_TAG_TI_branch
    1990                            .dwattr $C$DW$106, DW_AT_low_pc(0x00)
    1991                            .dwattr $C$DW$106, DW_AT_name("vTaskInternalSetTimeOutState")
    1992                            .dwattr $C$DW$106, DW_AT_TI_call
    1993                    
    1994 00000342 FFFEF7FF!         BL        vTaskInternalSetTimeOutState ; [DPU_V7M3_PIPE] |894|  ; [KEEP 32-BIT INS]
    1995                            ; CALL OCCURS {vTaskInternalSetTimeOutState }  ; [] |894| 
    1996                            .dwpsn  file "../OS/queue.c",line 895,column 6,is_stmt,isa 1
    1997                    ;----------------------------------------------------------------------
    1998                    ; 895 | xEntryTimeSet = pdTRUE;                                                
    1999                    ;----------------------------------------------------------------------
    2000 00000346 2001              MOVS      A1, #1                ; [DPU_V7M3_PIPE] |895|  ; [ORIG 16-BIT INS]
    2001 00000348 9006              STR       A1, [SP, #24]         ; [DPU_V7M3_PIPE] |895|  ; [ORIG 16-BIT INS]
    2002                            .dwpsn  file "../OS/queue.c",line 896,column 5,is_stmt,isa 1
    2003                    ;----------------------------------------------------------------------
    2004                    ; 897 | else                                                                   
    2005                    ; 900 |         mtCOVERAGE_TEST_MARKER();                                      
    2006                    ;----------------------------------------------------------------------
    2007                    ;* --------------------------------------------------------------------------*
    2008 0000034a           ||$C$L49||:    
    2009                            .dwpsn  file "../OS/queue.c",line 904,column 3,is_stmt,isa 1
    2010                    ;----------------------------------------------------------------------
    2011                    ; 904 | taskEXIT_CRITICAL();                                                   
    2012                    ;----------------------------------------------------------------------
    2013                    $C$DW$107       .dwtag  DW_TAG_TI_branch
    2014                            .dwattr $C$DW$107, DW_AT_low_pc(0x00)
    2015                            .dwattr $C$DW$107, DW_AT_name("vPortExitCritical")
    2016                            .dwattr $C$DW$107, DW_AT_TI_call
    2017                    
    2018 0000034a FFFEF7FF!         BL        vPortExitCritical     ; [DPU_V7M3_PIPE] |904|  ; [KEEP 32-BIT INS]
    2019                            ; CALL OCCURS {vPortExitCritical }  ; [] |904| 
    2020                            .dwpsn  file "../OS/queue.c",line 909,column 3,is_stmt,isa 1
    2021                    ;----------------------------------------------------------------------
    2022                    ; 909 | vTaskSuspendAll();                                                     
    2023                    ;----------------------------------------------------------------------
    2024                    $C$DW$108       .dwtag  DW_TAG_TI_branch
    2025                            .dwattr $C$DW$108, DW_AT_low_pc(0x00)
    2026                            .dwattr $C$DW$108, DW_AT_name("vTaskSuspendAll")
    2027                            .dwattr $C$DW$108, DW_AT_TI_call
    2028                    
    2029 0000034e FFFEF7FF!         BL        vTaskSuspendAll       ; [DPU_V7M3_PIPE] |909|  ; [KEEP 32-BIT INS]
    2030                            ; CALL OCCURS {vTaskSuspendAll }  ; [] |909| 
    2031                            .dwpsn  file "../OS/queue.c",line 910,column 3,is_stmt,isa 1
    2032                    ;----------------------------------------------------------------------
    2033                    ; 910 | prvLockQueue( pxQueue );                                               
    2034                    ;----------------------------------------------------------------------
TI ARM Assembler Unix v18.1.1 Fri Jul  3 20:08:23 2020

Tools Copyright (c) 1996-2017 Texas Instruments Incorporated
queue.asm                                                            PAGE   38

    2035                    $C$DW$109       .dwtag  DW_TAG_TI_branch
    2036                            .dwattr $C$DW$109, DW_AT_low_pc(0x00)
    2037                            .dwattr $C$DW$109, DW_AT_name("vPortEnterCritical")
    2038                            .dwattr $C$DW$109, DW_AT_TI_call
    2039                    
    2040 00000352 FFFEF7FF!         BL        vPortEnterCritical    ; [DPU_V7M3_PIPE] |910|  ; [KEEP 32-BIT INS]
    2041                            ; CALL OCCURS {vPortEnterCritical }  ; [] |910| 
    2042 00000356 9808              LDR       A1, [SP, #32]         ; [DPU_V7M3_PIPE] |910|  ; [ORIG 16-BIT INS]
    2043 00000358 0044F990          LDRSB     A1, [A1, #68]         ; [DPU_V7M3_PIPE] |910|  ; [KEEP 32-BIT INS]
    2044 0000035c 3FFFF1B0          CMP       A1, #-1               ; [DPU_V7M3_PIPE] |910|  ; [KEEP 32-BIT INS]
    2045 00000360 D103              BNE       ||$C$L50||            ; [DPU_V7M3_PIPE] |910|  ; [ORIG 16-BIT INS]
    2046                            ; BRANCHCC OCCURS {||$C$L50||}   ; [] |910| 
    2047                    ;* --------------------------------------------------------------------------*
    2048 00000362 9908              LDR       A2, [SP, #32]         ; [DPU_V7M3_PIPE] |910|  ; [ORIG 16-BIT INS]
    2049 00000364 2000              MOVS      A1, #0                ; [DPU_V7M3_PIPE] |910|  ; [ORIG 16-BIT INS]
    2050 00000366 0044F881          STRB      A1, [A2, #68]         ; [DPU_V7M3_PIPE] |910|  ; [KEEP 32-BIT INS]
    2051                    ;* --------------------------------------------------------------------------*
    2052 0000036a           ||$C$L50||:    
    2053 0000036a 9808              LDR       A1, [SP, #32]         ; [DPU_V7M3_PIPE] |910|  ; [ORIG 16-BIT INS]
    2054 0000036c 0045F990          LDRSB     A1, [A1, #69]         ; [DPU_V7M3_PIPE] |910|  ; [KEEP 32-BIT INS]
    2055 00000370 3FFFF1B0          CMP       A1, #-1               ; [DPU_V7M3_PIPE] |910|  ; [KEEP 32-BIT INS]
    2056 00000374 D103              BNE       ||$C$L51||            ; [DPU_V7M3_PIPE] |910|  ; [ORIG 16-BIT INS]
    2057                            ; BRANCHCC OCCURS {||$C$L51||}   ; [] |910| 
    2058                    ;* --------------------------------------------------------------------------*
    2059 00000376 9908              LDR       A2, [SP, #32]         ; [DPU_V7M3_PIPE] |910|  ; [ORIG 16-BIT INS]
    2060 00000378 2000              MOVS      A1, #0                ; [DPU_V7M3_PIPE] |910|  ; [ORIG 16-BIT INS]
    2061 0000037a 0045F881          STRB      A1, [A2, #69]         ; [DPU_V7M3_PIPE] |910|  ; [KEEP 32-BIT INS]
    2062                    ;* --------------------------------------------------------------------------*
    2063                    ||$C$L51||:    
    2064                    $C$DW$110       .dwtag  DW_TAG_TI_branch
    2065                            .dwattr $C$DW$110, DW_AT_low_pc(0x00)
    2066                            .dwattr $C$DW$110, DW_AT_name("vPortExitCritical")
    2067                            .dwattr $C$DW$110, DW_AT_TI_call
    2068                    
    2069 0000037e FFFEF7FF!         BL        vPortExitCritical     ; [DPU_V7M3_PIPE] |910|  ; [KEEP 32-BIT INS]
    2070                            ; CALL OCCURS {vPortExitCritical }  ; [] |910| 
    2071                            .dwpsn  file "../OS/queue.c",line 913,column 3,is_stmt,isa 1
    2072                    ;----------------------------------------------------------------------
    2073                    ; 913 | if( xTaskCheckForTimeOut( &xTimeOut, &xTicksToWait ) == pdFALSE )      
    2074                    ;----------------------------------------------------------------------
    2075 00000382 4668              MOV       A1, SP                ; [DPU_V7M3_PIPE] |913|  ; [ORIG 16-BIT INS]
    2076 00000384 A904              ADD       A2, SP, #16           ; [DPU_V7M3_PIPE] |913|  ; [ORIG 16-BIT INS]
    2077                    $C$DW$111       .dwtag  DW_TAG_TI_branch
    2078                            .dwattr $C$DW$111, DW_AT_low_pc(0x00)
    2079                            .dwattr $C$DW$111, DW_AT_name("xTaskCheckForTimeOut")
    2080                            .dwattr $C$DW$111, DW_AT_TI_call
    2081                    
    2082 00000386 FFFEF7FF!         BL        xTaskCheckForTimeOut  ; [DPU_V7M3_PIPE] |913|  ; [KEEP 32-BIT INS]
    2083                            ; CALL OCCURS {xTaskCheckForTimeOut }  ; [] |913| 
    2084 0000038a B9F0              CBNZ      A1, ||$C$L53||        ; []  ; [ORIG 16-BIT INS]
    2085                            ; BRANCHCC OCCURS {||$C$L53||}   ; [] |913| 
    2086                    ;* --------------------------------------------------------------------------*
    2087                            .dwpsn  file "../OS/queue.c",line 915,column 4,is_stmt,isa 1
    2088                    ;----------------------------------------------------------------------
    2089                    ; 915 | if( prvIsQueueFull( pxQueue ) != pdFALSE )                             
TI ARM Assembler Unix v18.1.1 Fri Jul  3 20:08:23 2020

Tools Copyright (c) 1996-2017 Texas Instruments Incorporated
queue.asm                                                            PAGE   39

    2090                    ; 917 |         traceBLOCKING_ON_QUEUE_SEND( pxQueue );                        
    2091                    ;----------------------------------------------------------------------
    2092 0000038c 9808              LDR       A1, [SP, #32]         ; [DPU_V7M3_PIPE] |915|  ; [ORIG 16-BIT INS]
    2093                    $C$DW$112       .dwtag  DW_TAG_TI_branch
    2094                            .dwattr $C$DW$112, DW_AT_low_pc(0x00)
    2095                            .dwattr $C$DW$112, DW_AT_name("prvIsQueueFull")
    2096                            .dwattr $C$DW$112, DW_AT_TI_call
    2097                    
    2098 0000038e FFFEF7FF!         BL        prvIsQueueFull        ; [DPU_V7M3_PIPE] |915|  ; [KEEP 32-BIT INS]
    2099                            ; CALL OCCURS {prvIsQueueFull }  ; [] |915| 
    2100 00000392 B1A0              CBZ       A1, ||$C$L52||        ; []  ; [ORIG 16-BIT INS]
    2101                            ; BRANCHCC OCCURS {||$C$L52||}   ; [] |915| 
    2102                    ;* --------------------------------------------------------------------------*
    2103                            .dwpsn  file "../OS/queue.c",line 918,column 5,is_stmt,isa 1
    2104                    ;----------------------------------------------------------------------
    2105                    ; 918 | vTaskPlaceOnEventList( &( pxQueue->xTasksWaitingToSend ), xTicksToWait
    2106                    ;     | );                                                                     
    2107                    ;----------------------------------------------------------------------
    2108 00000394 9808              LDR       A1, [SP, #32]         ; [DPU_V7M3_PIPE] |918|  ; [ORIG 16-BIT INS]
    2109 00000396 9904              LDR       A2, [SP, #16]         ; [DPU_V7M3_PIPE] |918|  ; [ORIG 16-BIT INS]
    2110 00000398 3010              ADDS      A1, A1, #16           ; [DPU_V7M3_PIPE] |918|  ; [ORIG 16-BIT INS]
    2111                    $C$DW$113       .dwtag  DW_TAG_TI_branch
    2112                            .dwattr $C$DW$113, DW_AT_low_pc(0x00)
    2113                            .dwattr $C$DW$113, DW_AT_name("vTaskPlaceOnEventList")
    2114                            .dwattr $C$DW$113, DW_AT_TI_call
    2115                    
    2116 0000039a FFFEF7FF!         BL        vTaskPlaceOnEventList ; [DPU_V7M3_PIPE] |918|  ; [KEEP 32-BIT INS]
    2117                            ; CALL OCCURS {vTaskPlaceOnEventList }  ; [] |918| 
    2118                            .dwpsn  file "../OS/queue.c",line 925,column 5,is_stmt,isa 1
    2119                    ;----------------------------------------------------------------------
    2120                    ; 925 | prvUnlockQueue( pxQueue );                                             
    2121                    ;----------------------------------------------------------------------
    2122 0000039e 9808              LDR       A1, [SP, #32]         ; [DPU_V7M3_PIPE] |925|  ; [ORIG 16-BIT INS]
    2123                    $C$DW$114       .dwtag  DW_TAG_TI_branch
    2124                            .dwattr $C$DW$114, DW_AT_low_pc(0x00)
    2125                            .dwattr $C$DW$114, DW_AT_name("prvUnlockQueue")
    2126                            .dwattr $C$DW$114, DW_AT_TI_call
    2127                    
    2128 000003a0 FFFEF7FF!         BL        prvUnlockQueue        ; [DPU_V7M3_PIPE] |925|  ; [KEEP 32-BIT INS]
    2129                            ; CALL OCCURS {prvUnlockQueue }  ; [] |925| 
    2130                            .dwpsn  file "../OS/queue.c",line 932,column 5,is_stmt,isa 1
    2131                    ;----------------------------------------------------------------------
    2132                    ; 932 | if( xTaskResumeAll() == pdFALSE )                                      
    2133                    ;----------------------------------------------------------------------
    2134                    $C$DW$115       .dwtag  DW_TAG_TI_branch
    2135                            .dwattr $C$DW$115, DW_AT_low_pc(0x00)
    2136                            .dwattr $C$DW$115, DW_AT_name("xTaskResumeAll")
    2137                            .dwattr $C$DW$115, DW_AT_TI_call
    2138                    
    2139 000003a4 FFFEF7FF!         BL        xTaskResumeAll        ; [DPU_V7M3_PIPE] |932|  ; [KEEP 32-BIT INS]
    2140                            ; CALL OCCURS {xTaskResumeAll }  ; [] |932| 
    2141 000003a8 2800              CMP       A1, #0                ; [DPU_V7M3_PIPE] |932|  ; [ORIG 16-BIT INS]
    2142 000003aa D18D              BNE       ||$C$L41||            ; [DPU_V7M3_PIPE] |932|  ; [ORIG 16-BIT INS]
    2143                            ; BRANCHCC OCCURS {||$C$L41||}   ; [] |932| 
    2144                    ;* --------------------------------------------------------------------------*
TI ARM Assembler Unix v18.1.1 Fri Jul  3 20:08:23 2020

Tools Copyright (c) 1996-2017 Texas Instruments Incorporated
queue.asm                                                            PAGE   40

    2145                            .dwpsn  file "../OS/queue.c",line 934,column 6,is_stmt,isa 1
    2146                    ;----------------------------------------------------------------------
    2147                    ; 934 | portYIELD_WITHIN_API();                                                
    2148                    ;----------------------------------------------------------------------
    2149 000003ac 494C              LDR       A2, $C$CON2           ; [DPU_V7M3_PIPE] |934|  ; [ORIG 16-BIT INS]
    2150 000003ae 5080F04F          MOV       A1, #268435456        ; [DPU_V7M3_PIPE] |934|  ; [KEEP 32-BIT INS]
    2151 000003b2 6008              STR       A1, [A2, #0]          ; [DPU_V7M3_PIPE] |934|  ; [ORIG 16-BIT INS]
    2152 000003b4 8F4FF3BF          dsb ; [KEEP 32-BIT INS]
    2153 000003b8 8F6FF3BF          isb ; [KEEP 32-BIT INS]
    2154                            .dwpsn  file "../OS/queue.c",line 936,column 4,is_stmt,isa 1
    2155                    ;----------------------------------------------------------------------
    2156                    ; 937 | else                                                                   
    2157                    ;----------------------------------------------------------------------
    2158 000003bc E784              B         ||$C$L41||            ; [DPU_V7M3_PIPE] |936|  ; [ORIG 16-BIT INS]
    2159                            ; BRANCH OCCURS {||$C$L41||}     ; [] |936| 
    2160                    ;* --------------------------------------------------------------------------*
    2161 000003be           ||$C$L52||:    
    2162                            .dwpsn  file "../OS/queue.c",line 940,column 5,is_stmt,isa 1
    2163                    ;----------------------------------------------------------------------
    2164                    ; 940 | prvUnlockQueue( pxQueue );                                             
    2165                    ;----------------------------------------------------------------------
    2166 000003be 9808              LDR       A1, [SP, #32]         ; [DPU_V7M3_PIPE] |940|  ; [ORIG 16-BIT INS]
    2167                    $C$DW$116       .dwtag  DW_TAG_TI_branch
    2168                            .dwattr $C$DW$116, DW_AT_low_pc(0x00)
    2169                            .dwattr $C$DW$116, DW_AT_name("prvUnlockQueue")
    2170                            .dwattr $C$DW$116, DW_AT_TI_call
    2171                    
    2172 000003c0 FFFEF7FF!         BL        prvUnlockQueue        ; [DPU_V7M3_PIPE] |940|  ; [KEEP 32-BIT INS]
    2173                            ; CALL OCCURS {prvUnlockQueue }  ; [] |940| 
    2174                            .dwpsn  file "../OS/queue.c",line 941,column 5,is_stmt,isa 1
    2175                    ;----------------------------------------------------------------------
    2176                    ; 941 | ( void ) xTaskResumeAll();                                             
    2177                    ;----------------------------------------------------------------------
    2178                    $C$DW$117       .dwtag  DW_TAG_TI_branch
    2179                            .dwattr $C$DW$117, DW_AT_low_pc(0x00)
    2180                            .dwattr $C$DW$117, DW_AT_name("xTaskResumeAll")
    2181                            .dwattr $C$DW$117, DW_AT_TI_call
    2182                    
    2183 000003c4 FFFEF7FF!         BL        xTaskResumeAll        ; [DPU_V7M3_PIPE] |941|  ; [KEEP 32-BIT INS]
    2184                            ; CALL OCCURS {xTaskResumeAll }  ; [] |941| 
    2185                            .dwpsn  file "../OS/queue.c",line 943,column 3,is_stmt,isa 1
    2186                    ;----------------------------------------------------------------------
    2187                    ; 944 | else                                                                   
    2188                    ;----------------------------------------------------------------------
    2189 000003c8 E77E              B         ||$C$L41||            ; [DPU_V7M3_PIPE] |943|  ; [ORIG 16-BIT INS]
    2190                            ; BRANCH OCCURS {||$C$L41||}     ; [] |943| 
    2191                    ;* --------------------------------------------------------------------------*
    2192 000003ca           ||$C$L53||:    
    2193                            .dwpsn  file "../OS/queue.c",line 947,column 4,is_stmt,isa 1
    2194                    ;----------------------------------------------------------------------
    2195                    ; 947 | prvUnlockQueue( pxQueue );                                             
    2196                    ;----------------------------------------------------------------------
    2197 000003ca 9808              LDR       A1, [SP, #32]         ; [DPU_V7M3_PIPE] |947|  ; [ORIG 16-BIT INS]
    2198                    $C$DW$118       .dwtag  DW_TAG_TI_branch
    2199                            .dwattr $C$DW$118, DW_AT_low_pc(0x00)
TI ARM Assembler Unix v18.1.1 Fri Jul  3 20:08:23 2020

Tools Copyright (c) 1996-2017 Texas Instruments Incorporated
queue.asm                                                            PAGE   41

    2200                            .dwattr $C$DW$118, DW_AT_name("prvUnlockQueue")
    2201                            .dwattr $C$DW$118, DW_AT_TI_call
    2202                    
    2203 000003cc FFFEF7FF!         BL        prvUnlockQueue        ; [DPU_V7M3_PIPE] |947|  ; [KEEP 32-BIT INS]
    2204                            ; CALL OCCURS {prvUnlockQueue }  ; [] |947| 
    2205                            .dwpsn  file "../OS/queue.c",line 948,column 4,is_stmt,isa 1
    2206                    ;----------------------------------------------------------------------
    2207                    ; 948 | ( void ) xTaskResumeAll();                                             
    2208                    ; 950 | traceQUEUE_SEND_FAILED( pxQueue );                                     
    2209                    ;----------------------------------------------------------------------
    2210                    $C$DW$119       .dwtag  DW_TAG_TI_branch
    2211                            .dwattr $C$DW$119, DW_AT_low_pc(0x00)
    2212                            .dwattr $C$DW$119, DW_AT_name("xTaskResumeAll")
    2213                            .dwattr $C$DW$119, DW_AT_TI_call
    2214                    
    2215 000003d0 FFFEF7FF!         BL        xTaskResumeAll        ; [DPU_V7M3_PIPE] |948|  ; [KEEP 32-BIT INS]
    2216                            ; CALL OCCURS {xTaskResumeAll }  ; [] |948| 
    2217                            .dwpsn  file "../OS/queue.c",line 951,column 4,is_stmt,isa 1
    2218                    ;----------------------------------------------------------------------
    2219                    ; 951 | return errQUEUE_FULL;                                                  
    2220                    ;----------------------------------------------------------------------
    2221 000003d4 2000              MOVS      A1, #0                ; [DPU_V7M3_PIPE] |951|  ; [ORIG 16-BIT INS]
    2222 000003d6 E7FF              B         ||$C$L54||            ; [DPU_V7M3_PIPE] |951|  ; [ORIG 16-BIT INS]
    2223                            ; BRANCH OCCURS {||$C$L54||}     ; [] |951| 
    2224                    ;* --------------------------------------------------------------------------*
    2225                    ;* --------------------------------------------------------------------------*
    2226 000003d8           ||$C$L54||:    
    2227                            .dwpsn  file "../OS/queue.c",line 954,column 1,is_stmt,isa 1
    2228 000003d8 B009              ADD       SP, SP, #36           ; [DPU_V7M3_PIPE]  ; [ORIG 16-BIT INS]
    2229                            .dwcfi  cfa_offset, 4
    2230                    $C$DW$120       .dwtag  DW_TAG_TI_branch
    2231                            .dwattr $C$DW$120, DW_AT_low_pc(0x00)
    2232                            .dwattr $C$DW$120, DW_AT_TI_return
    2233                    
    2234 000003da BD00              POP       {PC}                  ; [DPU_V7M3_PIPE]  ; [ORIG 16-BIT INS]
    2235                            .dwcfi  cfa_offset, 0
    2236                            ; BRANCH OCCURS                  ; [] 
    2237                            .dwattr $C$DW$87, DW_AT_TI_end_file("../OS/queue.c")
    2238                            .dwattr $C$DW$87, DW_AT_TI_end_line(0x3ba)
    2239                            .dwattr $C$DW$87, DW_AT_TI_end_column(0x01)
    2240                            .dwendentry
    2241                            .dwendtag $C$DW$87
    2242                    
    2243 000003dc                   .sect   ".text"
    2244                            .clink
    2245                            .thumbfunc xQueueGenericSendFromISR
    2246 000003dc                   .thumb
    2247                            .global xQueueGenericSendFromISR
    2248                    
    2249                    $C$DW$121       .dwtag  DW_TAG_subprogram
    2250                            .dwattr $C$DW$121, DW_AT_name("xQueueGenericSendFromISR")
    2251                            .dwattr $C$DW$121, DW_AT_low_pc(xQueueGenericSendFromISR)
    2252                            .dwattr $C$DW$121, DW_AT_high_pc(0x00)
    2253                            .dwattr $C$DW$121, DW_AT_TI_symbol_name("xQueueGenericSendFromISR")
    2254                            .dwattr $C$DW$121, DW_AT_external
TI ARM Assembler Unix v18.1.1 Fri Jul  3 20:08:23 2020

Tools Copyright (c) 1996-2017 Texas Instruments Incorporated
queue.asm                                                            PAGE   42

    2255                            .dwattr $C$DW$121, DW_AT_type(*$C$DW$T$98)
    2256                            .dwattr $C$DW$121, DW_AT_TI_begin_file("../OS/queue.c")
    2257                            .dwattr $C$DW$121, DW_AT_TI_begin_line(0x3bd)
    2258                            .dwattr $C$DW$121, DW_AT_TI_begin_column(0x0c)
    2259                            .dwattr $C$DW$121, DW_AT_decl_file("../OS/queue.c")
    2260                            .dwattr $C$DW$121, DW_AT_decl_line(0x3bd)
    2261                            .dwattr $C$DW$121, DW_AT_decl_column(0x0c)
    2262                            .dwattr $C$DW$121, DW_AT_TI_max_frame_size(0x28)
    2263                            .dwpsn  file "../OS/queue.c",line 958,column 1,is_stmt,address xQueueGenericSendFromISR,isa 1
    2264                    
    2265                            .dwfde $C$DW$CIE, xQueueGenericSendFromISR
    2266                    $C$DW$122       .dwtag  DW_TAG_formal_parameter
    2267                            .dwattr $C$DW$122, DW_AT_name("xQueue")
    2268                            .dwattr $C$DW$122, DW_AT_TI_symbol_name("xQueue")
    2269                            .dwattr $C$DW$122, DW_AT_type(*$C$DW$T$110)
    2270                            .dwattr $C$DW$122, DW_AT_location[DW_OP_reg0]
    2271                    
    2272                    $C$DW$123       .dwtag  DW_TAG_formal_parameter
    2273                            .dwattr $C$DW$123, DW_AT_name("pvItemToQueue")
    2274                            .dwattr $C$DW$123, DW_AT_TI_symbol_name("pvItemToQueue")
    2275                            .dwattr $C$DW$123, DW_AT_type(*$C$DW$T$131)
    2276                            .dwattr $C$DW$123, DW_AT_location[DW_OP_reg1]
    2277                    
    2278                    $C$DW$124       .dwtag  DW_TAG_formal_parameter
    2279                            .dwattr $C$DW$124, DW_AT_name("pxHigherPriorityTaskWoken")
    2280                            .dwattr $C$DW$124, DW_AT_TI_symbol_name("pxHigherPriorityTaskWoken")
    2281                            .dwattr $C$DW$124, DW_AT_type(*$C$DW$T$263)
    2282                            .dwattr $C$DW$124, DW_AT_location[DW_OP_reg2]
    2283                    
    2284                    $C$DW$125       .dwtag  DW_TAG_formal_parameter
    2285                            .dwattr $C$DW$125, DW_AT_name("xCopyPosition")
    2286                            .dwattr $C$DW$125, DW_AT_TI_symbol_name("xCopyPosition")
    2287                            .dwattr $C$DW$125, DW_AT_type(*$C$DW$T$142)
    2288                            .dwattr $C$DW$125, DW_AT_location[DW_OP_reg3]
    2289                    
    2290                    ;----------------------------------------------------------------------
    2291                    ; 957 | BaseType_t xQueueGenericSendFromISR( QueueHandle_t xQueue, const void *
    2292                    ;     |  const pvItemToQueue, BaseType_t * const pxHigherPriorityTaskWoken, con
    2293                    ;     | st BaseType_t xCopyPosition )                                          
    2294                    ;----------------------------------------------------------------------
    2295                    
    2296                    ;*****************************************************************************
    2297                    ;* FUNCTION NAME: xQueueGenericSendFromISR                                   *
    2298                    ;*                                                                           *
    2299                    ;*   Regs Modified     : A1,A2,A3,A4,V9,SP,LR,SR,D0,D0_hi,D1,D1_hi,D2,D2_hi, *
    2300                    ;*                           D3,D3_hi,D4,D4_hi,D5,D5_hi,D6,D6_hi,D7,D7_hi,   *
    2301                    ;*                           FPEXC,FPSCR                                     *
    2302                    ;*   Regs Used         : A1,A2,A3,A4,V9,SP,LR,SR,D0,D0_hi,D1,D1_hi,D2,D2_hi, *
    2303                    ;*                           D3,D3_hi,D4,D4_hi,D5,D5_hi,D6,D6_hi,D7,D7_hi,   *
    2304                    ;*                           FPEXC,FPSCR                                     *
    2305                    ;*   Local Frame Size  : 0 Args + 32 Auto + 4 Save = 36 byte                 *
    2306                    ;*****************************************************************************
    2307 000003dc           xQueueGenericSendFromISR:
    2308                    ;* --------------------------------------------------------------------------*
    2309                            .dwcfi  cfa_offset, 0
TI ARM Assembler Unix v18.1.1 Fri Jul  3 20:08:23 2020

Tools Copyright (c) 1996-2017 Texas Instruments Incorporated
queue.asm                                                            PAGE   43

    2310 000003dc B500              PUSH      {LR}                  ; [DPU_V7M3_PIPE]  ; [ORIG 16-BIT INS]
    2311                            .dwcfi  cfa_offset, 4
    2312                            .dwcfi  save_reg_to_mem, 14, -4
    2313 000003de 0D24F1AD          SUB       SP, SP, #36           ; [DPU_V7M3_PIPE]  ; [KEEP 32-BIT INS]
    2314                            .dwcfi  cfa_offset, 40
    2315                    $C$DW$126       .dwtag  DW_TAG_variable
    2316                            .dwattr $C$DW$126, DW_AT_name("xQueue")
    2317                            .dwattr $C$DW$126, DW_AT_TI_symbol_name("xQueue")
    2318                            .dwattr $C$DW$126, DW_AT_type(*$C$DW$T$110)
    2319                            .dwattr $C$DW$126, DW_AT_location[DW_OP_breg13 0]
    2320                    
    2321                    $C$DW$127       .dwtag  DW_TAG_variable
    2322                            .dwattr $C$DW$127, DW_AT_name("pvItemToQueue")
    2323                            .dwattr $C$DW$127, DW_AT_TI_symbol_name("pvItemToQueue")
    2324                            .dwattr $C$DW$127, DW_AT_type(*$C$DW$T$131)
    2325                            .dwattr $C$DW$127, DW_AT_location[DW_OP_breg13 4]
    2326                    
    2327                    $C$DW$128       .dwtag  DW_TAG_variable
    2328                            .dwattr $C$DW$128, DW_AT_name("pxHigherPriorityTaskWoken")
    2329                            .dwattr $C$DW$128, DW_AT_TI_symbol_name("pxHigherPriorityTaskWoken")
    2330                            .dwattr $C$DW$128, DW_AT_type(*$C$DW$T$263)
    2331                            .dwattr $C$DW$128, DW_AT_location[DW_OP_breg13 8]
    2332                    
    2333                    $C$DW$129       .dwtag  DW_TAG_variable
    2334                            .dwattr $C$DW$129, DW_AT_name("xCopyPosition")
    2335                            .dwattr $C$DW$129, DW_AT_TI_symbol_name("xCopyPosition")
    2336                            .dwattr $C$DW$129, DW_AT_type(*$C$DW$T$142)
    2337                            .dwattr $C$DW$129, DW_AT_location[DW_OP_breg13 12]
    2338                    
    2339                    $C$DW$130       .dwtag  DW_TAG_variable
    2340                            .dwattr $C$DW$130, DW_AT_name("xReturn")
    2341                            .dwattr $C$DW$130, DW_AT_TI_symbol_name("xReturn")
    2342                            .dwattr $C$DW$130, DW_AT_type(*$C$DW$T$98)
    2343                            .dwattr $C$DW$130, DW_AT_location[DW_OP_breg13 16]
    2344                    
    2345                    $C$DW$131       .dwtag  DW_TAG_variable
    2346                            .dwattr $C$DW$131, DW_AT_name("uxSavedInterruptStatus")
    2347                            .dwattr $C$DW$131, DW_AT_TI_symbol_name("uxSavedInterruptStatus")
    2348                            .dwattr $C$DW$131, DW_AT_type(*$C$DW$T$29)
    2349                            .dwattr $C$DW$131, DW_AT_location[DW_OP_breg13 20]
    2350                    
    2351                    $C$DW$132       .dwtag  DW_TAG_variable
    2352                            .dwattr $C$DW$132, DW_AT_name("pxQueue")
    2353                            .dwattr $C$DW$132, DW_AT_TI_symbol_name("pxQueue")
    2354                            .dwattr $C$DW$132, DW_AT_type(*$C$DW$T$127)
    2355                            .dwattr $C$DW$132, DW_AT_location[DW_OP_breg13 24]
    2356                    
    2357                    ;----------------------------------------------------------------------
    2358                    ; 959 | BaseType_t xReturn;                                                    
    2359                    ; 960 | UBaseType_t uxSavedInterruptStatus;                                    
    2360                    ;----------------------------------------------------------------------
    2361 000003e2 9303              STR       A4, [SP, #12]         ; [DPU_V7M3_PIPE] |958|  ; [ORIG 16-BIT INS]
    2362 000003e4 9202              STR       A3, [SP, #8]          ; [DPU_V7M3_PIPE] |958|  ; [ORIG 16-BIT INS]
    2363 000003e6 9101              STR       A2, [SP, #4]          ; [DPU_V7M3_PIPE] |958|  ; [ORIG 16-BIT INS]
    2364 000003e8 9000              STR       A1, [SP, #0]          ; [DPU_V7M3_PIPE] |958|  ; [ORIG 16-BIT INS]
TI ARM Assembler Unix v18.1.1 Fri Jul  3 20:08:23 2020

Tools Copyright (c) 1996-2017 Texas Instruments Incorporated
queue.asm                                                            PAGE   44

    2365                            .dwpsn  file "../OS/queue.c",line 961,column 25,is_stmt,isa 1
    2366                    ;----------------------------------------------------------------------
    2367                    ; 961 | Queue_t * const pxQueue = xQueue;                                      
    2368                    ;----------------------------------------------------------------------
    2369 000003ea 9800              LDR       A1, [SP, #0]          ; [DPU_V7M3_PIPE] |961|  ; [ORIG 16-BIT INS]
    2370 000003ec 9006              STR       A1, [SP, #24]         ; [DPU_V7M3_PIPE] |961|  ; [ORIG 16-BIT INS]
    2371                            .dwpsn  file "../OS/queue.c",line 963,column 2,is_stmt,isa 1
    2372                    ;----------------------------------------------------------------------
    2373                    ; 963 | configASSERT( pxQueue );                                               
    2374                    ;----------------------------------------------------------------------
    2375 000003ee 9806              LDR       A1, [SP, #24]         ; [DPU_V7M3_PIPE] |963|  ; [ORIG 16-BIT INS]
    2376 000003f0 B938              CBNZ      A1, ||$C$L56||        ; []  ; [ORIG 16-BIT INS]
    2377                            ; BRANCHCC OCCURS {||$C$L56||}   ; [] |963| 
    2378                    ;* --------------------------------------------------------------------------*
    2379 000003f2 20A0              MOVS      A1, #160              ; [DPU_V7M3_PIPE] |963|  ; [ORIG 16-BIT INS]
    2380 000003f4 8811F380          MSR       BASEPRI, A1           ; [DPU_V7M3_PIPE] |963|  ; [KEEP 32-BIT INS]
    2381 000003f8 8F4FF3BF          dsb ; [KEEP 32-BIT INS]
    2382 000003fc 8F6FF3BF          isb ; [KEEP 32-BIT INS]
    2383                    ;* --------------------------------------------------------------------------*
    2384                    ;*   BEGIN LOOP ||$C$L55||
    2385                    ;*
    2386                    ;*   Loop source line                : 963
    2387                    ;*   Loop closing brace source line  : 963
    2388                    ;*   Known Minimum Trip Count        : 1
    2389                    ;*   Known Maximum Trip Count        : 4294967295
    2390                    ;*   Known Max Trip Count Factor     : 1
    2391                    ;* --------------------------------------------------------------------------*
    2392 00000400           ||$C$L55||:    
    2393 00000400 E7FE              B         ||$C$L55||            ; [DPU_V7M3_PIPE] |963|  ; [ORIG 16-BIT INS]
    2394                            ; BRANCH OCCURS {||$C$L55||}     ; [] |963| 
    2395                    ;* --------------------------------------------------------------------------*
    2396 00000402           ||$C$L56||:    
    2397                            .dwpsn  file "../OS/queue.c",line 964,column 2,is_stmt,isa 1
    2398                    ;----------------------------------------------------------------------
    2399                    ; 964 | configASSERT( !( ( pvItemToQueue == NULL ) && ( pxQueue->uxItemSize !=
    2400                    ;     | ( UBaseType_t ) 0U ) ) );                                              
    2401                    ;----------------------------------------------------------------------
    2402 00000402 9A01              LDR       A3, [SP, #4]          ; [DPU_V7M3_PIPE] |964|  ; [ORIG 16-BIT INS]
    2403 00000404 2000              MOVS      A1, #0                ; [DPU_V7M3_PIPE] |964|  ; [ORIG 16-BIT INS]
    2404 00000406 2100              MOVS      A2, #0                ; [DPU_V7M3_PIPE] |964|  ; [ORIG 16-BIT INS]
    2405 00000408 B91A              CBNZ      A3, ||$C$L57||        ; []  ; [ORIG 16-BIT INS]
    2406                            ; BRANCHCC OCCURS {||$C$L57||}   ; [] |964| 
    2407                    ;* --------------------------------------------------------------------------*
    2408 0000040a 9A06              LDR       A3, [SP, #24]         ; [DPU_V7M3_PIPE] |964|  ; [ORIG 16-BIT INS]
    2409 0000040c 6C12              LDR       A3, [A3, #64]         ; [DPU_V7M3_PIPE] |964|  ; [ORIG 16-BIT INS]
    2410 0000040e B102              CBZ       A3, ||$C$L57||        ; []  ; [ORIG 16-BIT INS]
    2411                            ; BRANCHCC OCCURS {||$C$L57||}   ; [] |964| 
    2412                    ;* --------------------------------------------------------------------------*
    2413 00000410 2101              MOVS      A2, #1                ; [DPU_V7M3_PIPE] |964|  ; [ORIG 16-BIT INS]
    2414                    ;* --------------------------------------------------------------------------*
    2415 00000412           ||$C$L57||:    
    2416 00000412 B901              CBNZ      A2, ||$C$L58||        ; []  ; [ORIG 16-BIT INS]
    2417                            ; BRANCHCC OCCURS {||$C$L58||}   ; [] |964| 
    2418                    ;* --------------------------------------------------------------------------*
    2419 00000414 2001              MOVS      A1, #1                ; [DPU_V7M3_PIPE] |964|  ; [ORIG 16-BIT INS]
TI ARM Assembler Unix v18.1.1 Fri Jul  3 20:08:23 2020

Tools Copyright (c) 1996-2017 Texas Instruments Incorporated
queue.asm                                                            PAGE   45

    2420                    ;* --------------------------------------------------------------------------*
    2421 00000416           ||$C$L58||:    
    2422 00000416 B938              CBNZ      A1, ||$C$L60||        ; []  ; [ORIG 16-BIT INS]
    2423                            ; BRANCHCC OCCURS {||$C$L60||}   ; [] |964| 
    2424                    ;* --------------------------------------------------------------------------*
    2425 00000418 20A0              MOVS      A1, #160              ; [DPU_V7M3_PIPE] |964|  ; [ORIG 16-BIT INS]
    2426 0000041a 8811F380          MSR       BASEPRI, A1           ; [DPU_V7M3_PIPE] |964|  ; [KEEP 32-BIT INS]
    2427 0000041e 8F4FF3BF          dsb ; [KEEP 32-BIT INS]
    2428 00000422 8F6FF3BF          isb ; [KEEP 32-BIT INS]
    2429                    ;* --------------------------------------------------------------------------*
    2430                    ;*   BEGIN LOOP ||$C$L59||
    2431                    ;*
    2432                    ;*   Loop source line                : 964
    2433                    ;*   Loop closing brace source line  : 964
    2434                    ;*   Known Minimum Trip Count        : 1
    2435                    ;*   Known Maximum Trip Count        : 4294967295
    2436                    ;*   Known Max Trip Count Factor     : 1
    2437                    ;* --------------------------------------------------------------------------*
    2438 00000426           ||$C$L59||:    
    2439 00000426 E7FE              B         ||$C$L59||            ; [DPU_V7M3_PIPE] |964|  ; [ORIG 16-BIT INS]
    2440                            ; BRANCH OCCURS {||$C$L59||}     ; [] |964| 
    2441                    ;* --------------------------------------------------------------------------*
    2442 00000428           ||$C$L60||:    
    2443                            .dwpsn  file "../OS/queue.c",line 965,column 2,is_stmt,isa 1
    2444                    ;----------------------------------------------------------------------
    2445                    ; 965 | configASSERT( !( ( xCopyPosition == queueOVERWRITE ) && ( pxQueue->uxLe
    2446                    ;     | ngth != 1 ) ) );                                                       
    2447                    ;----------------------------------------------------------------------
    2448 00000428 9A03              LDR       A3, [SP, #12]         ; [DPU_V7M3_PIPE] |965|  ; [ORIG 16-BIT INS]
    2449 0000042a 2000              MOVS      A1, #0                ; [DPU_V7M3_PIPE] |965|  ; [ORIG 16-BIT INS]
    2450 0000042c 2100              MOVS      A2, #0                ; [DPU_V7M3_PIPE] |965|  ; [ORIG 16-BIT INS]
    2451 0000042e 2A02              CMP       A3, #2                ; [DPU_V7M3_PIPE] |965|  ; [ORIG 16-BIT INS]
    2452 00000430 D104              BNE       ||$C$L61||            ; [DPU_V7M3_PIPE] |965|  ; [ORIG 16-BIT INS]
    2453                            ; BRANCHCC OCCURS {||$C$L61||}   ; [] |965| 
    2454                    ;* --------------------------------------------------------------------------*
    2455 00000432 9A06              LDR       A3, [SP, #24]         ; [DPU_V7M3_PIPE] |965|  ; [ORIG 16-BIT INS]
    2456 00000434 6BD2              LDR       A3, [A3, #60]         ; [DPU_V7M3_PIPE] |965|  ; [ORIG 16-BIT INS]
    2457 00000436 2A01              CMP       A3, #1                ; [DPU_V7M3_PIPE] |965|  ; [ORIG 16-BIT INS]
    2458 00000438 D000              BEQ       ||$C$L61||            ; [DPU_V7M3_PIPE] |965|  ; [ORIG 16-BIT INS]
    2459                            ; BRANCHCC OCCURS {||$C$L61||}   ; [] |965| 
    2460                    ;* --------------------------------------------------------------------------*
    2461 0000043a 2101              MOVS      A2, #1                ; [DPU_V7M3_PIPE] |965|  ; [ORIG 16-BIT INS]
    2462                    ;* --------------------------------------------------------------------------*
    2463 0000043c           ||$C$L61||:    
    2464 0000043c B901              CBNZ      A2, ||$C$L62||        ; []  ; [ORIG 16-BIT INS]
    2465                            ; BRANCHCC OCCURS {||$C$L62||}   ; [] |965| 
    2466                    ;* --------------------------------------------------------------------------*
    2467 0000043e 2001              MOVS      A1, #1                ; [DPU_V7M3_PIPE] |965|  ; [ORIG 16-BIT INS]
    2468                    ;* --------------------------------------------------------------------------*
    2469 00000440           ||$C$L62||:    
    2470 00000440 B938              CBNZ      A1, ||$C$L64||        ; []  ; [ORIG 16-BIT INS]
    2471                            ; BRANCHCC OCCURS {||$C$L64||}   ; [] |965| 
    2472                    ;* --------------------------------------------------------------------------*
    2473 00000442 20A0              MOVS      A1, #160              ; [DPU_V7M3_PIPE] |965|  ; [ORIG 16-BIT INS]
    2474 00000444 8811F380          MSR       BASEPRI, A1           ; [DPU_V7M3_PIPE] |965|  ; [KEEP 32-BIT INS]
TI ARM Assembler Unix v18.1.1 Fri Jul  3 20:08:23 2020

Tools Copyright (c) 1996-2017 Texas Instruments Incorporated
queue.asm                                                            PAGE   46

    2475 00000448 8F4FF3BF          dsb ; [KEEP 32-BIT INS]
    2476 0000044c 8F6FF3BF          isb ; [KEEP 32-BIT INS]
    2477                    ;* --------------------------------------------------------------------------*
    2478                    ;*   BEGIN LOOP ||$C$L63||
    2479                    ;*
    2480                    ;*   Loop source line                : 965
    2481                    ;*   Loop closing brace source line  : 965
    2482                    ;*   Known Minimum Trip Count        : 1
    2483                    ;*   Known Maximum Trip Count        : 4294967295
    2484                    ;*   Known Max Trip Count Factor     : 1
    2485                    ;* --------------------------------------------------------------------------*
    2486 00000450           ||$C$L63||:    
    2487 00000450 E7FE              B         ||$C$L63||            ; [DPU_V7M3_PIPE] |965|  ; [ORIG 16-BIT INS]
    2488                            ; BRANCH OCCURS {||$C$L63||}     ; [] |965| 
    2489                    ;* --------------------------------------------------------------------------*
    2490 00000452           ||$C$L64||:    
    2491                            .dwpsn  file "../OS/queue.c",line 981,column 2,is_stmt,isa 1
    2492                    ;----------------------------------------------------------------------
    2493                    ; 981 | portASSERT_IF_INTERRUPT_PRIORITY_INVALID();                            
    2494                    ;----------------------------------------------------------------------
    2495                    $C$DW$133       .dwtag  DW_TAG_TI_branch
    2496                            .dwattr $C$DW$133, DW_AT_low_pc(0x00)
    2497                            .dwattr $C$DW$133, DW_AT_name("vPortValidateInterruptPriority")
    2498                            .dwattr $C$DW$133, DW_AT_TI_call
    2499                    
    2500 00000452 FFFEF7FF!         BL        vPortValidateInterruptPriority ; [DPU_V7M3_PIPE] |981|  ; [KEEP 32-BIT INS]
    2501                            ; CALL OCCURS {vPortValidateInterruptPriority }  ; [] |981| 
    2502                            .dwpsn  file "../OS/queue.c",line 988,column 2,is_stmt,isa 1
    2503                    ;----------------------------------------------------------------------
    2504                    ; 988 | uxSavedInterruptStatus = portSET_INTERRUPT_MASK_FROM_ISR();            
    2505                    ;----------------------------------------------------------------------
    2506 00000456 20A0              MOVS      A1, #160              ; [DPU_V7M3_PIPE] |988|  ; [ORIG 16-BIT INS]
    2507 00000458 8111F3EF          MRS       A2, BASEPRI           ; [DPU_V7M3_PIPE] |988|  ; [KEEP 32-BIT INS]
    2508 0000045c 8811F380          MSR       BASEPRI, A1           ; [DPU_V7M3_PIPE] |988|  ; [KEEP 32-BIT INS]
    2509 00000460 9105              STR       A2, [SP, #20]         ; [DPU_V7M3_PIPE] |988|  ; [ORIG 16-BIT INS]
    2510                            .dwpsn  file "../OS/queue.c",line 988,column 27,is_stmt,isa 1
    2511 00000462 8F4FF3BF          dsb ; [KEEP 32-BIT INS]
    2512 00000466 8F6FF3BF          isb ; [KEEP 32-BIT INS]
    2513                    
    2514                    $C$DW$134       .dwtag  DW_TAG_lexical_block
    2515                            .dwattr $C$DW$134, DW_AT_low_pc(0x00)
    2516                            .dwattr $C$DW$134, DW_AT_high_pc(0x00)
    2517                            .dwpsn  file "../OS/queue.c",line 990,column 3,is_stmt,isa 1
    2518                    ;----------------------------------------------------------------------
    2519                    ; 990 | if( ( pxQueue->uxMessagesWaiting < pxQueue->uxLength ) || ( xCopyPositi
    2520                    ;     | on == queueOVERWRITE ) )                                               
    2521                    ;----------------------------------------------------------------------
    2522 0000046a 9806              LDR       A1, [SP, #24]         ; [DPU_V7M3_PIPE] |990|  ; [ORIG 16-BIT INS]
    2523 0000046c 9906              LDR       A2, [SP, #24]         ; [DPU_V7M3_PIPE] |990|  ; [ORIG 16-BIT INS]
    2524 0000046e 6BC0              LDR       A1, [A1, #60]         ; [DPU_V7M3_PIPE] |990|  ; [ORIG 16-BIT INS]
    2525 00000470 6B89              LDR       A2, [A2, #56]         ; [DPU_V7M3_PIPE] |990|  ; [ORIG 16-BIT INS]
    2526 00000472 4288              CMP       A1, A2                ; [DPU_V7M3_PIPE] |990|  ; [ORIG 16-BIT INS]
    2527 00000474 D802              BHI       ||$C$L65||            ; [DPU_V7M3_PIPE] |990|  ; [ORIG 16-BIT INS]
    2528                            ; BRANCHCC OCCURS {||$C$L65||}   ; [] |990| 
    2529                    ;* --------------------------------------------------------------------------*
TI ARM Assembler Unix v18.1.1 Fri Jul  3 20:08:23 2020

Tools Copyright (c) 1996-2017 Texas Instruments Incorporated
queue.asm                                                            PAGE   47

    2530 00000476 9803              LDR       A1, [SP, #12]         ; [DPU_V7M3_PIPE] |990|  ; [ORIG 16-BIT INS]
    2531 00000478 2802              CMP       A1, #2                ; [DPU_V7M3_PIPE] |990|  ; [ORIG 16-BIT INS]
    2532 0000047a D129              BNE       ||$C$L70||            ; [DPU_V7M3_PIPE] |990|  ; [ORIG 16-BIT INS]
    2533                            ; BRANCHCC OCCURS {||$C$L70||}   ; [] |990| 
    2534                    ;* --------------------------------------------------------------------------*
    2535                    ||$C$L65||:    
    2536                    
    2537                    $C$DW$135       .dwtag  DW_TAG_lexical_block
    2538                            .dwattr $C$DW$135, DW_AT_low_pc(0x00)
    2539                            .dwattr $C$DW$135, DW_AT_high_pc(0x00)
    2540                    $C$DW$136       .dwtag  DW_TAG_variable
    2541                            .dwattr $C$DW$136, DW_AT_name("cTxLock")
    2542                            .dwattr $C$DW$136, DW_AT_TI_symbol_name("cTxLock")
    2543                            .dwattr $C$DW$136, DW_AT_type(*$C$DW$T$166)
    2544                            .dwattr $C$DW$136, DW_AT_location[DW_OP_breg13 28]
    2545                    
    2546                            .dwpsn  file "../OS/queue.c",line 992,column 25,is_stmt,isa 1
    2547                    ;----------------------------------------------------------------------
    2548                    ; 992 | const int8_t cTxLock = pxQueue->cTxLock;                               
    2549                    ; 994 | traceQUEUE_SEND_FROM_ISR( pxQueue );                                   
    2550                    ;----------------------------------------------------------------------
    2551 0000047c 9806              LDR       A1, [SP, #24]         ; [DPU_V7M3_PIPE] |992|  ; [ORIG 16-BIT INS]
    2552 0000047e 0045F990          LDRSB     A1, [A1, #69]         ; [DPU_V7M3_PIPE] |992|  ; [KEEP 32-BIT INS]
    2553 00000482 001CF88D          STRB      A1, [SP, #28]         ; [DPU_V7M3_PIPE] |992|  ; [KEEP 32-BIT INS]
    2554                            .dwpsn  file "../OS/queue.c",line 1001,column 4,is_stmt,isa 1
    2555                    ;----------------------------------------------------------------------
    2556                    ; 1001 | ( void ) prvCopyDataToQueue( pxQueue, pvItemToQueue, xCopyPosition );  
    2557                    ;----------------------------------------------------------------------
    2558 00000486 9901              LDR       A2, [SP, #4]          ; [DPU_V7M3_PIPE] |1001|  ; [ORIG 16-BIT INS]
    2559 00000488 9A03              LDR       A3, [SP, #12]         ; [DPU_V7M3_PIPE] |1001|  ; [ORIG 16-BIT INS]
    2560 0000048a 9806              LDR       A1, [SP, #24]         ; [DPU_V7M3_PIPE] |1001|  ; [ORIG 16-BIT INS]
    2561                    $C$DW$137       .dwtag  DW_TAG_TI_branch
    2562                            .dwattr $C$DW$137, DW_AT_low_pc(0x00)
    2563                            .dwattr $C$DW$137, DW_AT_name("prvCopyDataToQueue")
    2564                            .dwattr $C$DW$137, DW_AT_TI_call
    2565                    
    2566 0000048c FFFEF7FF!         BL        prvCopyDataToQueue    ; [DPU_V7M3_PIPE] |1001|  ; [KEEP 32-BIT INS]
    2567                            ; CALL OCCURS {prvCopyDataToQueue }  ; [] |1001| 
    2568                            .dwpsn  file "../OS/queue.c",line 1005,column 4,is_stmt,isa 1
    2569                    ;----------------------------------------------------------------------
    2570                    ; 1005 | if( cTxLock == queueUNLOCKED )                                         
    2571                    ; 1007 |         #if ( configUSE_QUEUE_SETS == 1 )                              
    2572                    ; 1009 |                 if( pxQueue->pxQueueSetContainer != NULL )             
    2573                    ; 1011 |                         if( prvNotifyQueueSetContainer( pxQueue, xCopyP
    2574                    ;     | osition ) != pdFALSE )                                                 
    2575                    ; 1016 |                                 if( pxHigherPriorityTaskWoken != NULL )
    2576                    ; 1018 |                                         *pxHigherPriorityTaskWoken = pd
    2577                    ;     | TRUE;                                                                  
    2578                    ; 1020 |                                 else                                   
    2579                    ; 1022 |                                         mtCOVERAGE_TEST_MARKER();      
    2580                    ; 1025 |                         else                                           
    2581                    ; 1027 |                                 mtCOVERAGE_TEST_MARKER();              
    2582                    ; 1030 |                 else                                                   
    2583                    ; 1032 |                         if( listLIST_IS_EMPTY( &( pxQueue->xTasksWaitin
    2584                    ;     | gToReceive ) ) == pdFALSE )                                            
TI ARM Assembler Unix v18.1.1 Fri Jul  3 20:08:23 2020

Tools Copyright (c) 1996-2017 Texas Instruments Incorporated
queue.asm                                                            PAGE   48

    2585                    ; 1034 |                                 if( xTaskRemoveFromEventList( &( pxQueu
    2586                    ;     | e->xTasksWaitingToReceive ) ) != pdFALSE )                             
    2587                    ; 1038 |                                         if( pxHigherPriorityTaskWoken !
    2588                    ;     | = NULL )                                                               
    2589                    ; 1040 |                                                 *pxHigherPriorityTaskWo
    2590                    ;     | ken = pdTRUE;                                                          
    2591                    ; 1042 |                                         else                           
    2592                    ; 1044 |                                                 mtCOVERAGE_TEST_MARKER(
    2593                    ;     | );                                                                     
    2594                    ; 1047 |                                 else                                   
    2595                    ; 1049 |                                         mtCOVERAGE_TEST_MARKER();      
    2596                    ; 1052 |                         else                                           
    2597                    ; 1054 |                                 mtCOVERAGE_TEST_MARKER();              
    2598                    ; 1058 |         #else /* configUSE_QUEUE_SETS */                               
    2599                    ;----------------------------------------------------------------------
    2600 00000490 001CF99D          LDRSB     A1, [SP, #28]         ; [DPU_V7M3_PIPE] |1005|  ; [KEEP 32-BIT INS]
    2601 00000494 3FFFF1B0          CMP       A1, #-1               ; [DPU_V7M3_PIPE] |1005|  ; [KEEP 32-BIT INS]
    2602 00000498 D111              BNE       ||$C$L68||            ; [DPU_V7M3_PIPE] |1005|  ; [ORIG 16-BIT INS]
    2603                            ; BRANCHCC OCCURS {||$C$L68||}   ; [] |1005| 
    2604                    ;* --------------------------------------------------------------------------*
    2605                            .dwpsn  file "../OS/queue.c",line 1060,column 6,is_stmt,isa 1
    2606                    ;----------------------------------------------------------------------
    2607                    ; 1060 | if( listLIST_IS_EMPTY( &( pxQueue->xTasksWaitingToReceive ) ) == pdFALS
    2608                    ;     | E )                                                                    
    2609                    ;----------------------------------------------------------------------
    2610 0000049a 9806              LDR       A1, [SP, #24]         ; [DPU_V7M3_PIPE] |1060|  ; [ORIG 16-BIT INS]
    2611 0000049c 6A40              LDR       A1, [A1, #36]         ; [DPU_V7M3_PIPE] |1060|  ; [ORIG 16-BIT INS]
    2612 0000049e B908              CBNZ      A1, ||$C$L66||        ; []  ; [ORIG 16-BIT INS]
    2613                            ; BRANCHCC OCCURS {||$C$L66||}   ; [] |1060| 
    2614                    ;* --------------------------------------------------------------------------*
    2615 000004a0 2001              MOVS      A1, #1                ; [DPU_V7M3_PIPE] |1060|  ; [ORIG 16-BIT INS]
    2616 000004a2 E000              B         ||$C$L67||            ; [DPU_V7M3_PIPE] |1060|  ; [ORIG 16-BIT INS]
    2617                            ; BRANCH OCCURS {||$C$L67||}     ; [] |1060| 
    2618                    ;* --------------------------------------------------------------------------*
    2619 000004a4           ||$C$L66||:    
    2620 000004a4 2000              MOVS      A1, #0                ; [DPU_V7M3_PIPE] |1060|  ; [ORIG 16-BIT INS]
    2621                    ;* --------------------------------------------------------------------------*
    2622 000004a6           ||$C$L67||:    
    2623 000004a6 B980              CBNZ      A1, ||$C$L69||        ; []  ; [ORIG 16-BIT INS]
    2624                            ; BRANCHCC OCCURS {||$C$L69||}   ; [] |1060| 
    2625                    ;* --------------------------------------------------------------------------*
    2626                            .dwpsn  file "../OS/queue.c",line 1062,column 7,is_stmt,isa 1
    2627                    ;----------------------------------------------------------------------
    2628                    ; 1062 | if( xTaskRemoveFromEventList( &( pxQueue->xTasksWaitingToReceive ) ) !=
    2629                    ;     |  pdFALSE )                                                             
    2630                    ;----------------------------------------------------------------------
    2631 000004a8 9806              LDR       A1, [SP, #24]         ; [DPU_V7M3_PIPE] |1062|  ; [ORIG 16-BIT INS]
    2632 000004aa 3024              ADDS      A1, A1, #36           ; [DPU_V7M3_PIPE] |1062|  ; [ORIG 16-BIT INS]
    2633                    $C$DW$138       .dwtag  DW_TAG_TI_branch
    2634                            .dwattr $C$DW$138, DW_AT_low_pc(0x00)
    2635                            .dwattr $C$DW$138, DW_AT_name("xTaskRemoveFromEventList")
    2636                            .dwattr $C$DW$138, DW_AT_TI_call
    2637                    
    2638 000004ac FFFEF7FF!         BL        xTaskRemoveFromEventList ; [DPU_V7M3_PIPE] |1062|  ; [KEEP 32-BIT INS]
    2639                            ; CALL OCCURS {xTaskRemoveFromEventList }  ; [] |1062| 
TI ARM Assembler Unix v18.1.1 Fri Jul  3 20:08:23 2020

Tools Copyright (c) 1996-2017 Texas Instruments Incorporated
queue.asm                                                            PAGE   49

    2640 000004b0 B158              CBZ       A1, ||$C$L69||        ; []  ; [ORIG 16-BIT INS]
    2641                            ; BRANCHCC OCCURS {||$C$L69||}   ; [] |1062| 
    2642                    ;* --------------------------------------------------------------------------*
    2643                            .dwpsn  file "../OS/queue.c",line 1066,column 8,is_stmt,isa 1
    2644                    ;----------------------------------------------------------------------
    2645                    ; 1066 | if( pxHigherPriorityTaskWoken != NULL )                                
    2646                    ;----------------------------------------------------------------------
    2647 000004b2 9802              LDR       A1, [SP, #8]          ; [DPU_V7M3_PIPE] |1066|  ; [ORIG 16-BIT INS]
    2648 000004b4 B148              CBZ       A1, ||$C$L69||        ; []  ; [ORIG 16-BIT INS]
    2649                            ; BRANCHCC OCCURS {||$C$L69||}   ; [] |1066| 
    2650                    ;* --------------------------------------------------------------------------*
    2651                            .dwpsn  file "../OS/queue.c",line 1068,column 9,is_stmt,isa 1
    2652                    ;----------------------------------------------------------------------
    2653                    ; 1068 | *pxHigherPriorityTaskWoken = pdTRUE;                                   
    2654                    ;----------------------------------------------------------------------
    2655 000004b6 9802              LDR       A1, [SP, #8]          ; [DPU_V7M3_PIPE] |1068|  ; [ORIG 16-BIT INS]
    2656 000004b8 2101              MOVS      A2, #1                ; [DPU_V7M3_PIPE] |1068|  ; [ORIG 16-BIT INS]
    2657 000004ba 6001              STR       A2, [A1, #0]          ; [DPU_V7M3_PIPE] |1068|  ; [ORIG 16-BIT INS]
    2658                            .dwpsn  file "../OS/queue.c",line 1069,column 8,is_stmt,isa 1
    2659                    ;----------------------------------------------------------------------
    2660                    ; 1070 | else                                                                   
    2661                    ; 1072 |         mtCOVERAGE_TEST_MARKER();                                      
    2662                    ; 1075 | else                                                                   
    2663                    ; 1077 | mtCOVERAGE_TEST_MARKER();                                              
    2664                    ; 1080 | else                                                                   
    2665                    ; 1082 | mtCOVERAGE_TEST_MARKER();                                              
    2666                    ; 1085 | #endif /* configUSE_QUEUE_SETS */                                      
    2667                    ; 1087 | else                                                                   
    2668                    ;----------------------------------------------------------------------
    2669 000004bc E005              B         ||$C$L69||            ; [DPU_V7M3_PIPE] |1069|  ; [ORIG 16-BIT INS]
    2670                            ; BRANCH OCCURS {||$C$L69||}     ; [] |1069| 
    2671                    ;* --------------------------------------------------------------------------*
    2672                    ;* --------------------------------------------------------------------------*
    2673 000004be           ||$C$L68||:    
    2674                            .dwpsn  file "../OS/queue.c",line 1091,column 5,is_stmt,isa 1
    2675                    ;----------------------------------------------------------------------
    2676                    ; 1091 | pxQueue->cTxLock = ( int8_t ) ( cTxLock + 1 );                         
    2677                    ;----------------------------------------------------------------------
    2678 000004be 001CF99D          LDRSB     A1, [SP, #28]         ; [DPU_V7M3_PIPE] |1091|  ; [KEEP 32-BIT INS]
    2679 000004c2 9906              LDR       A2, [SP, #24]         ; [DPU_V7M3_PIPE] |1091|  ; [ORIG 16-BIT INS]
    2680 000004c4 1C40              ADDS      A1, A1, #1            ; [DPU_V7M3_PIPE] |1091|  ; [ORIG 16-BIT INS]
    2681 000004c6 0045F881          STRB      A1, [A2, #69]         ; [DPU_V7M3_PIPE] |1091|  ; [KEEP 32-BIT INS]
    2682                    ;* --------------------------------------------------------------------------*
    2683 000004ca           ||$C$L69||:    
    2684                            .dwpsn  file "../OS/queue.c",line 1094,column 4,is_stmt,isa 1
    2685                    ;----------------------------------------------------------------------
    2686                    ; 1094 | xReturn = pdPASS;                                                      
    2687                    ;----------------------------------------------------------------------
    2688 000004ca 2001              MOVS      A1, #1                ; [DPU_V7M3_PIPE] |1094|  ; [ORIG 16-BIT INS]
    2689 000004cc 9004              STR       A1, [SP, #16]         ; [DPU_V7M3_PIPE] |1094|  ; [ORIG 16-BIT INS]
    2690                            .dwendtag $C$DW$135
    2691                    
    2692                            .dwpsn  file "../OS/queue.c",line 1095,column 3,is_stmt,isa 1
    2693                    ;----------------------------------------------------------------------
    2694                    ; 1096 | else                                                                   
TI ARM Assembler Unix v18.1.1 Fri Jul  3 20:08:23 2020

Tools Copyright (c) 1996-2017 Texas Instruments Incorporated
queue.asm                                                            PAGE   50

    2695                    ; 1098 |         traceQUEUE_SEND_FROM_ISR_FAILED( pxQueue );                    
    2696                    ;----------------------------------------------------------------------
    2697 000004ce E001              B         ||$C$L71||            ; [DPU_V7M3_PIPE] |1095|  ; [ORIG 16-BIT INS]
    2698                            ; BRANCH OCCURS {||$C$L71||}     ; [] |1095| 
    2699                    ;* --------------------------------------------------------------------------*
    2700 000004d0           ||$C$L70||:    
    2701                            .dwpsn  file "../OS/queue.c",line 1099,column 4,is_stmt,isa 1
    2702                    ;----------------------------------------------------------------------
    2703                    ; 1099 | xReturn = errQUEUE_FULL;                                               
    2704                    ;----------------------------------------------------------------------
    2705 000004d0 2000              MOVS      A1, #0                ; [DPU_V7M3_PIPE] |1099|  ; [ORIG 16-BIT INS]
    2706 000004d2 9004              STR       A1, [SP, #16]         ; [DPU_V7M3_PIPE] |1099|  ; [ORIG 16-BIT INS]
    2707                    ;* --------------------------------------------------------------------------*
    2708                    ||$C$L71||:    
    2709                            .dwendtag $C$DW$134
    2710                    
    2711                            .dwpsn  file "../OS/queue.c",line 1102,column 2,is_stmt,isa 1
    2712                    ;----------------------------------------------------------------------
    2713                    ; 1102 | portCLEAR_INTERRUPT_MASK_FROM_ISR( uxSavedInterruptStatus );           
    2714                    ;----------------------------------------------------------------------
    2715 000004d4 9805              LDR       A1, [SP, #20]         ; [DPU_V7M3_PIPE] |1102|  ; [ORIG 16-BIT INS]
    2716 000004d6 8811F380          MSR       BASEPRI, A1           ; [DPU_V7M3_PIPE] |1102|  ; [KEEP 32-BIT INS]
    2717                            .dwpsn  file "../OS/queue.c",line 1104,column 2,is_stmt,isa 1
    2718                    ;----------------------------------------------------------------------
    2719                    ; 1104 | return xReturn;                                                        
    2720                    ;----------------------------------------------------------------------
    2721 000004da 9804              LDR       A1, [SP, #16]         ; [DPU_V7M3_PIPE] |1104|  ; [ORIG 16-BIT INS]
    2722                            .dwpsn  file "../OS/queue.c",line 1105,column 1,is_stmt,isa 1
    2723 000004dc B009              ADD       SP, SP, #36           ; [DPU_V7M3_PIPE]  ; [ORIG 16-BIT INS]
    2724                            .dwcfi  cfa_offset, 4
    2725                    $C$DW$139       .dwtag  DW_TAG_TI_branch
    2726                            .dwattr $C$DW$139, DW_AT_low_pc(0x00)
    2727                            .dwattr $C$DW$139, DW_AT_TI_return
    2728                    
    2729 000004de BD00              POP       {PC}                  ; [DPU_V7M3_PIPE]  ; [ORIG 16-BIT INS]
    2730                            .dwcfi  cfa_offset, 0
    2731                            ; BRANCH OCCURS                  ; [] 
    2732                            .dwattr $C$DW$121, DW_AT_TI_end_file("../OS/queue.c")
    2733                            .dwattr $C$DW$121, DW_AT_TI_end_line(0x451)
    2734                            .dwattr $C$DW$121, DW_AT_TI_end_column(0x01)
    2735                            .dwendentry
    2736                            .dwendtag $C$DW$121
    2737                    
    2738                    ;******************************************************************************
    2739                    ;* CONSTANT TABLE                                                             *
    2740                    ;******************************************************************************
    2741 000004e0                   .sect   ".text"
    2742                            .align  4
    2743 000004e0 E000ED04  ||$C$CON2||:    .bits   -536810236,32
    2744 000004e4                   .sect   ".text"
    2745                            .clink
    2746                            .thumbfunc xQueueGiveFromISR
    2747 000004e4                   .thumb
    2748                            .global xQueueGiveFromISR
    2749                    
TI ARM Assembler Unix v18.1.1 Fri Jul  3 20:08:23 2020

Tools Copyright (c) 1996-2017 Texas Instruments Incorporated
queue.asm                                                            PAGE   51

    2750                    $C$DW$140       .dwtag  DW_TAG_subprogram
    2751                            .dwattr $C$DW$140, DW_AT_name("xQueueGiveFromISR")
    2752                            .dwattr $C$DW$140, DW_AT_low_pc(xQueueGiveFromISR)
    2753                            .dwattr $C$DW$140, DW_AT_high_pc(0x00)
    2754                            .dwattr $C$DW$140, DW_AT_TI_symbol_name("xQueueGiveFromISR")
    2755                            .dwattr $C$DW$140, DW_AT_external
    2756                            .dwattr $C$DW$140, DW_AT_type(*$C$DW$T$98)
    2757                            .dwattr $C$DW$140, DW_AT_TI_begin_file("../OS/queue.c")
    2758                            .dwattr $C$DW$140, DW_AT_TI_begin_line(0x454)
    2759                            .dwattr $C$DW$140, DW_AT_TI_begin_column(0x0c)
    2760                            .dwattr $C$DW$140, DW_AT_decl_file("../OS/queue.c")
    2761                            .dwattr $C$DW$140, DW_AT_decl_line(0x454)
    2762                            .dwattr $C$DW$140, DW_AT_decl_column(0x0c)
    2763                            .dwattr $C$DW$140, DW_AT_TI_max_frame_size(0x20)
    2764                            .dwpsn  file "../OS/queue.c",line 1109,column 1,is_stmt,address xQueueGiveFromISR,isa 1
    2765                    
    2766                            .dwfde $C$DW$CIE, xQueueGiveFromISR
    2767                    $C$DW$141       .dwtag  DW_TAG_formal_parameter
    2768                            .dwattr $C$DW$141, DW_AT_name("xQueue")
    2769                            .dwattr $C$DW$141, DW_AT_TI_symbol_name("xQueue")
    2770                            .dwattr $C$DW$141, DW_AT_type(*$C$DW$T$110)
